
ISR_IO.elf:     file format elf32-avr

Sections:
Idx Name          Size      VMA       LMA       File off  Algn
  0 .data         0000002e  00803800  00003e96  00003f4a  2**0
                  CONTENTS, ALLOC, LOAD, DATA
  1 .text         00003d94  00000000  00000000  000000b4  2**1
                  CONTENTS, ALLOC, LOAD, READONLY, CODE
  2 .rodata       00000102  0000bd94  00003d94  00003e48  2**0
                  CONTENTS, ALLOC, LOAD, READONLY, DATA
  3 .bss          000002ec  0080382e  0080382e  00003f78  2**0
                  ALLOC
  4 .comment      00000030  00000000  00000000  00003f78  2**0
                  CONTENTS, READONLY
  5 .note.gnu.avr.deviceinfo 00000040  00000000  00000000  00003fa8  2**2
                  CONTENTS, READONLY
  6 .debug_aranges 00000328  00000000  00000000  00003fe8  2**0
                  CONTENTS, READONLY, DEBUGGING
  7 .debug_info   00006d01  00000000  00000000  00004310  2**0
                  CONTENTS, READONLY, DEBUGGING
  8 .debug_abbrev 00002920  00000000  00000000  0000b011  2**0
                  CONTENTS, READONLY, DEBUGGING
  9 .debug_line   00003b7a  00000000  00000000  0000d931  2**0
                  CONTENTS, READONLY, DEBUGGING
 10 .debug_frame  0000098c  00000000  00000000  000114ac  2**2
                  CONTENTS, READONLY, DEBUGGING
 11 .debug_str    00001a3c  00000000  00000000  00011e38  2**0
                  CONTENTS, READONLY, DEBUGGING
 12 .debug_loc    00004554  00000000  00000000  00013874  2**0
                  CONTENTS, READONLY, DEBUGGING
 13 .debug_ranges 00000398  00000000  00000000  00017dc8  2**0
                  CONTENTS, READONLY, DEBUGGING

Disassembly of section .text:

00000000 <__vectors>:
       0:	3d c0       	rjmp	.+122    	; 0x7c <__ctors_end>
       2:	00 00       	nop
       4:	58 c0       	rjmp	.+176    	; 0xb6 <__bad_interrupt>
       6:	00 00       	nop
       8:	56 c0       	rjmp	.+172    	; 0xb6 <__bad_interrupt>
       a:	00 00       	nop
       c:	54 c0       	rjmp	.+168    	; 0xb6 <__bad_interrupt>
       e:	00 00       	nop
      10:	52 c0       	rjmp	.+164    	; 0xb6 <__bad_interrupt>
      12:	00 00       	nop
      14:	50 c0       	rjmp	.+160    	; 0xb6 <__bad_interrupt>
      16:	00 00       	nop
      18:	0c 94 4a 08 	jmp	0x1094	; 0x1094 <__vector_6>
      1c:	0c 94 94 08 	jmp	0x1128	; 0x1128 <__vector_7>
      20:	6c c6       	rjmp	.+3288   	; 0xcfa <__vector_8>
      22:	00 00       	nop
      24:	48 c0       	rjmp	.+144    	; 0xb6 <__bad_interrupt>
      26:	00 00       	nop
      28:	46 c0       	rjmp	.+140    	; 0xb6 <__bad_interrupt>
      2a:	00 00       	nop
      2c:	44 c0       	rjmp	.+136    	; 0xb6 <__bad_interrupt>
      2e:	00 00       	nop
      30:	42 c0       	rjmp	.+132    	; 0xb6 <__bad_interrupt>
      32:	00 00       	nop
      34:	b3 c6       	rjmp	.+3430   	; 0xd9c <__vector_13>
      36:	00 00       	nop
      38:	e4 c6       	rjmp	.+3528   	; 0xe02 <__vector_14>
      3a:	00 00       	nop
      3c:	3c c0       	rjmp	.+120    	; 0xb6 <__bad_interrupt>
      3e:	00 00       	nop
      40:	3a c0       	rjmp	.+116    	; 0xb6 <__bad_interrupt>
      42:	00 00       	nop
      44:	38 c0       	rjmp	.+112    	; 0xb6 <__bad_interrupt>
      46:	00 00       	nop
      48:	36 c0       	rjmp	.+108    	; 0xb6 <__bad_interrupt>
      4a:	00 00       	nop
      4c:	34 c0       	rjmp	.+104    	; 0xb6 <__bad_interrupt>
      4e:	00 00       	nop
      50:	a2 c7       	rjmp	.+3908   	; 0xf96 <__vector_20>
      52:	00 00       	nop
      54:	30 c0       	rjmp	.+96     	; 0xb6 <__bad_interrupt>
      56:	00 00       	nop
      58:	d5 c7       	rjmp	.+4010   	; 0x1004 <__vector_22>
      5a:	00 00       	nop
      5c:	2c c0       	rjmp	.+88     	; 0xb6 <__bad_interrupt>
      5e:	00 00       	nop
      60:	2a c0       	rjmp	.+84     	; 0xb6 <__bad_interrupt>
      62:	00 00       	nop
      64:	28 c0       	rjmp	.+80     	; 0xb6 <__bad_interrupt>
      66:	00 00       	nop
      68:	26 c0       	rjmp	.+76     	; 0xb6 <__bad_interrupt>
      6a:	00 00       	nop
      6c:	1d c7       	rjmp	.+3642   	; 0xea8 <__vector_27>
      6e:	00 00       	nop
      70:	76 c7       	rjmp	.+3820   	; 0xf5e <__vector_28>
      72:	00 00       	nop
      74:	20 c0       	rjmp	.+64     	; 0xb6 <__bad_interrupt>
      76:	00 00       	nop
      78:	1e c0       	rjmp	.+60     	; 0xb6 <__bad_interrupt>
	...

0000007c <__ctors_end>:
      7c:	11 24       	eor	r1, r1
      7e:	1f be       	out	0x3f, r1	; 63
      80:	cf ef       	ldi	r28, 0xFF	; 255
      82:	cd bf       	out	0x3d, r28	; 61
      84:	df e3       	ldi	r29, 0x3F	; 63
      86:	de bf       	out	0x3e, r29	; 62

00000088 <__do_copy_data>:
      88:	18 e3       	ldi	r17, 0x38	; 56
      8a:	a0 e0       	ldi	r26, 0x00	; 0
      8c:	b8 e3       	ldi	r27, 0x38	; 56
      8e:	e6 e9       	ldi	r30, 0x96	; 150
      90:	fe e3       	ldi	r31, 0x3E	; 62
      92:	02 c0       	rjmp	.+4      	; 0x98 <__do_copy_data+0x10>
      94:	05 90       	lpm	r0, Z+
      96:	0d 92       	st	X+, r0
      98:	ae 32       	cpi	r26, 0x2E	; 46
      9a:	b1 07       	cpc	r27, r17
      9c:	d9 f7       	brne	.-10     	; 0x94 <__do_copy_data+0xc>

0000009e <__do_clear_bss>:
      9e:	2b e3       	ldi	r18, 0x3B	; 59
      a0:	ae e2       	ldi	r26, 0x2E	; 46
      a2:	b8 e3       	ldi	r27, 0x38	; 56
      a4:	01 c0       	rjmp	.+2      	; 0xa8 <.do_clear_bss_start>

000000a6 <.do_clear_bss_loop>:
      a6:	1d 92       	st	X+, r1

000000a8 <.do_clear_bss_start>:
      a8:	aa 31       	cpi	r26, 0x1A	; 26
      aa:	b2 07       	cpc	r27, r18
      ac:	e1 f7       	brne	.-8      	; 0xa6 <.do_clear_bss_loop>
      ae:	0e 94 c1 1d 	call	0x3b82	; 0x3b82 <main>
      b2:	0c 94 c8 1e 	jmp	0x3d90	; 0x3d90 <_exit>

000000b6 <__bad_interrupt>:
      b6:	a4 cf       	rjmp	.-184    	; 0x0 <__vectors>

000000b8 <chkVolt250>:
#include <main_def.h>
#include <resources.h>
#include <I2C.h>

//Returns measured voltage * 4 (2V returns 8) if it is in the expected range (DELTA)
uint8_t chkVolt250(){
      b8:	85 e1       	ldi	r24, 0x15	; 21
      ba:	90 e0       	ldi	r25, 0x00	; 0
      bc:	44 e0       	ldi	r20, 0x04	; 4
      be:	48 0f       	add	r20, r24
    static uint8_t avgVolt = 0;
        
    for (uint8_t x=25; x<250; x+=25) {
        if ((auIn[0] > (x-DELTA)) && (auIn[0] < (x+DELTA))) {
      c0:	20 91 c2 3a 	lds	r18, 0x3AC2	; 0x803ac2 <auIn>
      c4:	30 e0       	ldi	r19, 0x00	; 0
      c6:	28 17       	cp	r18, r24
      c8:	39 07       	cpc	r19, r25
      ca:	64 f0       	brlt	.+24     	; 0xe4 <chkVolt250+0x2c>
      cc:	20 91 c2 3a 	lds	r18, 0x3AC2	; 0x803ac2 <auIn>
      d0:	30 e0       	ldi	r19, 0x00	; 0
      d2:	bc 01       	movw	r22, r24
      d4:	68 5f       	subi	r22, 0xF8	; 248
      d6:	7f 4f       	sbci	r23, 0xFF	; 255
      d8:	62 17       	cp	r22, r18
      da:	73 07       	cpc	r23, r19
      dc:	1c f0       	brlt	.+6      	; 0xe4 <chkVolt250+0x2c>
            avgVolt = x;
      de:	40 93 32 38 	sts	0x3832, r20	; 0x803832 <avgVolt.3771>
            break;
      e2:	04 c0       	rjmp	.+8      	; 0xec <chkVolt250+0x34>
      e4:	49 96       	adiw	r24, 0x19	; 25

//Returns measured voltage * 4 (2V returns 8) if it is in the expected range (DELTA)
uint8_t chkVolt250(){
    static uint8_t avgVolt = 0;
        
    for (uint8_t x=25; x<250; x+=25) {
      e6:	86 3f       	cpi	r24, 0xF6	; 246
      e8:	91 05       	cpc	r25, r1
      ea:	41 f7       	brne	.-48     	; 0xbc <chkVolt250+0x4>
        if ((auIn[0] > (x-DELTA)) && (auIn[0] < (x+DELTA))) {
            avgVolt = x;
            break;
        }
    }
    return avgVolt/25;
      ec:	80 91 32 38 	lds	r24, 0x3832	; 0x803832 <avgVolt.3771>
      f0:	69 e1       	ldi	r22, 0x19	; 25
      f2:	0c 94 73 1e 	jmp	0x3ce6	; 0x3ce6 <__udivmodqi4>
}
      f6:	08 95       	ret

000000f8 <MakeFriends>:

// Main game loop
uint8_t MakeFriends(){
      f8:	ef 92       	push	r14
      fa:	ff 92       	push	r15
      fc:	0f 93       	push	r16
      fe:	1f 93       	push	r17
     100:	cf 93       	push	r28
     102:	df 93       	push	r29
     104:	c4 e6       	ldi	r28, 0x64	; 100
    static uint8_t chkTmr = 0;
    static uint8_t jackIn = 0;
    static uint8_t candidate = 0;

    //Check if badge has found 3 friends
    uint8_t foundAll = 1;
     106:	d1 e0       	ldi	r29, 0x01	; 1
    for (uint8_t x=0; x<4; x++){
        if (CheckState(100+x) == 0) foundAll = 0;
     108:	8c 2f       	mov	r24, r28
     10a:	0e 94 a7 0a 	call	0x154e	; 0x154e <CheckState>
     10e:	81 11       	cpse	r24, r1
     110:	01 c0       	rjmp	.+2      	; 0x114 <MakeFriends+0x1c>
     112:	d0 e0       	ldi	r29, 0x00	; 0
     114:	cf 5f       	subi	r28, 0xFF	; 255
    static uint8_t jackIn = 0;
    static uint8_t candidate = 0;

    //Check if badge has found 3 friends
    uint8_t foundAll = 1;
    for (uint8_t x=0; x<4; x++){
     116:	c8 36       	cpi	r28, 0x68	; 104
     118:	b9 f7       	brne	.-18     	; 0x108 <MakeFriends+0x10>
        if (CheckState(100+x) == 0) foundAll = 0;
    }
    if (foundAll) UpdateState(124);
     11a:	dd 23       	and	r29, r29
     11c:	19 f0       	breq	.+6      	; 0x124 <MakeFriends+0x2c>
     11e:	8c e7       	ldi	r24, 0x7C	; 124
     120:	0e 94 9d 0a 	call	0x153a	; 0x153a <UpdateState>


    //Checking for headphones
    if (detHdPh) return 0;
     124:	80 91 bf 3a 	lds	r24, 0x3ABF	; 0x803abf <detHdPh>
     128:	81 11       	cpse	r24, r1
     12a:	1e c1       	rjmp	.+572    	; 0x368 <MakeFriends+0x270>

    //Audio off, set voltage level (setDAC[0]*10mV)
    if (progress == NO_OTHER) {
     12c:	80 91 31 38 	lds	r24, 0x3831	; 0x803831 <progress.3778>
     130:	81 11       	cpse	r24, r1
     132:	11 c0       	rjmp	.+34     	; 0x156 <MakeFriends+0x5e>
        setDAC[0] = whoami * 50;
     134:	90 91 3d 38 	lds	r25, 0x383D	; 0x80383d <whoami>
     138:	22 e3       	ldi	r18, 0x32	; 50
     13a:	92 9f       	mul	r25, r18
     13c:	90 2d       	mov	r25, r0
     13e:	11 24       	eor	r1, r1
     140:	90 93 00 38 	sts	0x3800, r25	; 0x803800 <__data_start>
        auRepAddr = &setDAC[0];
     144:	20 e0       	ldi	r18, 0x00	; 0
     146:	38 e3       	ldi	r19, 0x38	; 56
     148:	20 93 05 38 	sts	0x3805, r18	; 0x803805 <auRepAddr>
     14c:	30 93 06 38 	sts	0x3806, r19	; 0x803806 <auRepAddr+0x1>
        auVolume = 255;
     150:	9f ef       	ldi	r25, 0xFF	; 255
     152:	90 93 b6 3a 	sts	0x3AB6, r25	; 0x803ab6 <auVolume>
    }

    //Check for other badges
    if ((auIn[0] < (setDAC[0] - DELTA)) || (auIn[0] > (setDAC[0] + DELTA)) ||((progress > FIRST_CONTACT))) {
     156:	40 91 c2 3a 	lds	r20, 0x3AC2	; 0x803ac2 <auIn>
     15a:	20 91 00 38 	lds	r18, 0x3800	; 0x803800 <__data_start>
     15e:	30 e0       	ldi	r19, 0x00	; 0
     160:	50 e0       	ldi	r21, 0x00	; 0
     162:	b9 01       	movw	r22, r18
     164:	65 50       	subi	r22, 0x05	; 5
     166:	71 09       	sbc	r23, r1
     168:	46 17       	cp	r20, r22
     16a:	57 07       	cpc	r21, r23
     16c:	64 f0       	brlt	.+24     	; 0x186 <MakeFriends+0x8e>
     16e:	40 91 c2 3a 	lds	r20, 0x3AC2	; 0x803ac2 <auIn>
     172:	50 e0       	ldi	r21, 0x00	; 0
     174:	2b 5f       	subi	r18, 0xFB	; 251
     176:	3f 4f       	sbci	r19, 0xFF	; 255
     178:	24 17       	cp	r18, r20
     17a:	35 07       	cpc	r19, r21
     17c:	24 f0       	brlt	.+8      	; 0x186 <MakeFriends+0x8e>
     17e:	82 30       	cpi	r24, 0x02	; 2
     180:	08 f0       	brcs	.+2      	; 0x184 <MakeFriends+0x8c>
     182:	40 c0       	rjmp	.+128    	; 0x204 <MakeFriends+0x10c>
     184:	ef c0       	rjmp	.+478    	; 0x364 <MakeFriends+0x26c>
        if (progress == NO_OTHER) {
     186:	81 11       	cpse	r24, r1
     188:	0a c0       	rjmp	.+20     	; 0x19e <MakeFriends+0xa6>
            ++chkTmr;
     18a:	80 91 30 38 	lds	r24, 0x3830	; 0x803830 <chkTmr.3780>
     18e:	8f 5f       	subi	r24, 0xFF	; 255
     190:	80 93 30 38 	sts	0x3830, r24	; 0x803830 <chkTmr.3780>
            if (chkTmr >= 8) {
     194:	88 30       	cpi	r24, 0x08	; 8
     196:	08 f4       	brcc	.+2      	; 0x19a <MakeFriends+0xa2>
     198:	e7 c0       	rjmp	.+462    	; 0x368 <MakeFriends+0x270>
                progress = FIRST_CONTACT;
     19a:	81 e0       	ldi	r24, 0x01	; 1
     19c:	81 c0       	rjmp	.+258    	; 0x2a0 <MakeFriends+0x1a8>
                chkTmr = 0;
            }
        }

        //Candidate found, check ranges
        else if (progress == FIRST_CONTACT) {
     19e:	81 30       	cpi	r24, 0x01	; 1
     1a0:	89 f5       	brne	.+98     	; 0x204 <MakeFriends+0x10c>
            jackIn = chkVolt250();
     1a2:	8a df       	rcall	.-236    	; 0xb8 <chkVolt250>
     1a4:	80 93 2f 38 	sts	0x382F, r24	; 0x80382f <jackIn.3781>
            if (jackIn) {
     1a8:	88 23       	and	r24, r24
     1aa:	49 f1       	breq	.+82     	; 0x1fe <MakeFriends+0x106>
                ++chkTmr;
     1ac:	90 91 30 38 	lds	r25, 0x3830	; 0x803830 <chkTmr.3780>
     1b0:	9f 5f       	subi	r25, 0xFF	; 255
     1b2:	90 93 30 38 	sts	0x3830, r25	; 0x803830 <chkTmr.3780>
                if (chkTmr >= SHORT_WAIT){
     1b6:	98 30       	cpi	r25, 0x08	; 8
     1b8:	08 f4       	brcc	.+2      	; 0x1bc <MakeFriends+0xc4>
     1ba:	d6 c0       	rjmp	.+428    	; 0x368 <MakeFriends+0x270>
                    if ((whoami == 1)&&((jackIn == 3)||(jackIn == 4)||(jackIn == 5))) {
     1bc:	90 91 3d 38 	lds	r25, 0x383D	; 0x80383d <whoami>
     1c0:	91 30       	cpi	r25, 0x01	; 1
     1c2:	29 f4       	brne	.+10     	; 0x1ce <MakeFriends+0xd6>
     1c4:	83 50       	subi	r24, 0x03	; 3
     1c6:	83 30       	cpi	r24, 0x03	; 3
     1c8:	b8 f4       	brcc	.+46     	; 0x1f8 <MakeFriends+0x100>
                        progress = SECOND_LOVE; 
     1ca:	82 e0       	ldi	r24, 0x02	; 2
     1cc:	69 c0       	rjmp	.+210    	; 0x2a0 <MakeFriends+0x1a8>
                    } else if ((whoami == 2)&&((jackIn == 3)||(jackIn == 5)||(jackIn == 6))) {
     1ce:	92 30       	cpi	r25, 0x02	; 2
     1d0:	31 f4       	brne	.+12     	; 0x1de <MakeFriends+0xe6>
     1d2:	83 30       	cpi	r24, 0x03	; 3
     1d4:	d1 f3       	breq	.-12     	; 0x1ca <MakeFriends+0xd2>
     1d6:	85 50       	subi	r24, 0x05	; 5
     1d8:	82 30       	cpi	r24, 0x02	; 2
     1da:	70 f4       	brcc	.+28     	; 0x1f8 <MakeFriends+0x100>
     1dc:	f6 cf       	rjmp	.-20     	; 0x1ca <MakeFriends+0xd2>
                        progress = SECOND_LOVE;
                    } else  if ((whoami == 3)&&((jackIn == 4)||(jackIn == 5)||(jackIn == 7))) {
     1de:	93 30       	cpi	r25, 0x03	; 3
     1e0:	39 f4       	brne	.+14     	; 0x1f0 <MakeFriends+0xf8>
     1e2:	9c ef       	ldi	r25, 0xFC	; 252
     1e4:	98 0f       	add	r25, r24
     1e6:	92 30       	cpi	r25, 0x02	; 2
     1e8:	80 f3       	brcs	.-32     	; 0x1ca <MakeFriends+0xd2>
     1ea:	87 30       	cpi	r24, 0x07	; 7
     1ec:	29 f4       	brne	.+10     	; 0x1f8 <MakeFriends+0x100>
     1ee:	ed cf       	rjmp	.-38     	; 0x1ca <MakeFriends+0xd2>
                        progress = SECOND_LOVE;
                    } else if ((whoami == 4)&&((jackIn == 5)||(jackIn == 6)||(jackIn == 7))) {
     1f0:	94 30       	cpi	r25, 0x04	; 4
     1f2:	11 f4       	brne	.+4      	; 0x1f8 <MakeFriends+0x100>
     1f4:	85 50       	subi	r24, 0x05	; 5
     1f6:	e7 cf       	rjmp	.-50     	; 0x1c6 <MakeFriends+0xce>
                        progress = SECOND_LOVE;
                    } else progress = NO_OTHER;
     1f8:	10 92 31 38 	sts	0x3831, r1	; 0x803831 <progress.3778>
     1fc:	53 c0       	rjmp	.+166    	; 0x2a4 <MakeFriends+0x1ac>
                    chkTmr = 0;
                }
            } else {
                chkTmr = 0;
     1fe:	10 92 30 38 	sts	0x3830, r1	; 0x803830 <chkTmr.3780>
     202:	b0 c0       	rjmp	.+352    	; 0x364 <MakeFriends+0x26c>
                progress = NO_OTHER;
            }
        }

        //Wait for the other badge (and a bit longer)
        else if (progress == SECOND_LOVE){
     204:	82 30       	cpi	r24, 0x02	; 2
     206:	09 f0       	breq	.+2      	; 0x20a <MakeFriends+0x112>
     208:	50 c0       	rjmp	.+160    	; 0x2aa <MakeFriends+0x1b2>
            ++chkTmr;
     20a:	80 91 30 38 	lds	r24, 0x3830	; 0x803830 <chkTmr.3780>
     20e:	8f 5f       	subi	r24, 0xFF	; 255
     210:	80 93 30 38 	sts	0x3830, r24	; 0x803830 <chkTmr.3780>
     214:	c0 ec       	ldi	r28, 0xC0	; 192
     216:	dd eb       	ldi	r29, 0xBD	; 189
     218:	7e 01       	movw	r14, r28
            for (uint8_t x=0; x<5; ++x){
                iLED[WING[L][x]] = (lfsr() > 127)?dimValue:0;
     21a:	0d 81       	ldd	r16, Y+5	; 0x05
     21c:	10 e0       	ldi	r17, 0x00	; 0
     21e:	0e 94 79 09 	call	0x12f2	; 0x12f2 <lfsr>
     222:	87 ff       	sbrs	r24, 7
     224:	03 c0       	rjmp	.+6      	; 0x22c <MakeFriends+0x134>
     226:	80 91 0b 38 	lds	r24, 0x380B	; 0x80380b <dimValue>
     22a:	01 c0       	rjmp	.+2      	; 0x22e <MakeFriends+0x136>
     22c:	80 e0       	ldi	r24, 0x00	; 0
     22e:	f8 01       	movw	r30, r16
     230:	e6 53       	subi	r30, 0x36	; 54
     232:	f5 4c       	sbci	r31, 0xC5	; 197
     234:	80 83       	st	Z, r24
     236:	21 96       	adiw	r28, 0x01	; 1
                iLED[WING[R][x]] = (lfsr() > 127)?dimValue:0;
     238:	f7 01       	movw	r30, r14
     23a:	00 81       	ld	r16, Z
     23c:	10 e0       	ldi	r17, 0x00	; 0
     23e:	0e 94 79 09 	call	0x12f2	; 0x12f2 <lfsr>
     242:	87 ff       	sbrs	r24, 7
     244:	03 c0       	rjmp	.+6      	; 0x24c <MakeFriends+0x154>
     246:	80 91 0b 38 	lds	r24, 0x380B	; 0x80380b <dimValue>
     24a:	01 c0       	rjmp	.+2      	; 0x24e <MakeFriends+0x156>
     24c:	80 e0       	ldi	r24, 0x00	; 0
     24e:	f8 01       	movw	r30, r16
     250:	e6 53       	subi	r30, 0x36	; 54
     252:	f5 4c       	sbci	r31, 0xC5	; 197
     254:	80 83       	st	Z, r24
        }

        //Wait for the other badge (and a bit longer)
        else if (progress == SECOND_LOVE){
            ++chkTmr;
            for (uint8_t x=0; x<5; ++x){
     256:	fd eb       	ldi	r31, 0xBD	; 189
     258:	c5 3c       	cpi	r28, 0xC5	; 197
     25a:	df 07       	cpc	r29, r31
     25c:	e9 f6       	brne	.-70     	; 0x218 <MakeFriends+0x120>
                iLED[WING[L][x]] = (lfsr() > 127)?dimValue:0;
                iLED[WING[R][x]] = (lfsr() > 127)?dimValue:0;
            }
            if (chkTmr >= SHORT_WAIT) {
     25e:	80 91 30 38 	lds	r24, 0x3830	; 0x803830 <chkTmr.3780>
     262:	88 30       	cpi	r24, 0x08	; 8
     264:	40 f0       	brcs	.+16     	; 0x276 <MakeFriends+0x17e>
                setDAC[0] = floatAround(0x80, 8, 100, 255); 
     266:	2f ef       	ldi	r18, 0xFF	; 255
     268:	44 e6       	ldi	r20, 0x64	; 100
     26a:	68 e0       	ldi	r22, 0x08	; 8
     26c:	80 e8       	ldi	r24, 0x80	; 128
     26e:	0e 94 ca 09 	call	0x1394	; 0x1394 <floatAround>
     272:	80 93 00 38 	sts	0x3800, r24	; 0x803800 <__data_start>
            }
            //The badge with the lowest voltage will now go to 2.5V (impedance check, for people tricking the things with a power supply)
            if (chkTmr >= LONG_WAIT){
     276:	80 91 30 38 	lds	r24, 0x3830	; 0x803830 <chkTmr.3780>
     27a:	8a 3f       	cpi	r24, 0xFA	; 250
     27c:	08 f4       	brcc	.+2      	; 0x280 <MakeFriends+0x188>
     27e:	74 c0       	rjmp	.+232    	; 0x368 <MakeFriends+0x270>
                candidate = jackIn-whoami;
     280:	90 91 3d 38 	lds	r25, 0x383D	; 0x80383d <whoami>
     284:	80 91 2f 38 	lds	r24, 0x382F	; 0x80382f <jackIn.3781>
     288:	89 1b       	sub	r24, r25
     28a:	80 93 2e 38 	sts	0x382E, r24	; 0x80382e <__data_end>
                if (candidate > whoami) setDAC[0] = 250; else setDAC[0] = 0;
     28e:	98 17       	cp	r25, r24
     290:	20 f4       	brcc	.+8      	; 0x29a <MakeFriends+0x1a2>
     292:	8a ef       	ldi	r24, 0xFA	; 250
     294:	80 93 00 38 	sts	0x3800, r24	; 0x803800 <__data_start>
     298:	02 c0       	rjmp	.+4      	; 0x29e <MakeFriends+0x1a6>
     29a:	10 92 00 38 	sts	0x3800, r1	; 0x803800 <__data_start>
                progress = THIRD_KISS;
     29e:	83 e0       	ldi	r24, 0x03	; 3
     2a0:	80 93 31 38 	sts	0x3831, r24	; 0x803831 <progress.3778>
                chkTmr = 0;
     2a4:	10 92 30 38 	sts	0x3830, r1	; 0x803830 <chkTmr.3780>
     2a8:	5f c0       	rjmp	.+190    	; 0x368 <MakeFriends+0x270>
            }
        } 
        
        //Wait a bit, check Voltage again, if ok show who you connected with and your own number, save, exit
        else if (progress == THIRD_KISS) {
     2aa:	83 30       	cpi	r24, 0x03	; 3
     2ac:	e1 f5       	brne	.+120    	; 0x326 <MakeFriends+0x22e>
            chkTmr++;
     2ae:	80 91 30 38 	lds	r24, 0x3830	; 0x803830 <chkTmr.3780>
     2b2:	8f 5f       	subi	r24, 0xFF	; 255
     2b4:	80 93 30 38 	sts	0x3830, r24	; 0x803830 <chkTmr.3780>
            if (chkTmr >= SHORT_WAIT) {
     2b8:	88 30       	cpi	r24, 0x08	; 8
     2ba:	08 f4       	brcc	.+2      	; 0x2be <MakeFriends+0x1c6>
                if (chkVolt250() == 5) {
     2bc:	55 c0       	rjmp	.+170    	; 0x368 <MakeFriends+0x270>
     2be:	fc de       	rcall	.-520    	; 0xb8 <chkVolt250>
     2c0:	85 30       	cpi	r24, 0x05	; 5
     2c2:	09 f0       	breq	.+2      	; 0x2c6 <MakeFriends+0x1ce>
     2c4:	99 cf       	rjmp	.-206    	; 0x1f8 <MakeFriends+0x100>
                    UpdateState(99+candidate);
     2c6:	80 91 2e 38 	lds	r24, 0x382E	; 0x80382e <__data_end>
     2ca:	8d 59       	subi	r24, 0x9D	; 157
     2cc:	0e 94 9d 0a 	call	0x153a	; 0x153a <UpdateState>
                    UpdateState(99+whoami);
     2d0:	80 91 3d 38 	lds	r24, 0x383D	; 0x80383d <whoami>
     2d4:	8d 59       	subi	r24, 0x9D	; 157
     2d6:	0e 94 9d 0a 	call	0x153a	; 0x153a <UpdateState>
                    for (uint8_t x=0; x<5; ++x){
                        iLED[WING[L][x]] = (x<candidate)?dimValue:0;
     2da:	20 91 2e 38 	lds	r18, 0x382E	; 0x80382e <__data_end>
                        iLED[WING[R][x]] = (x<whoami)?dimValue:00;
     2de:	30 91 3d 38 	lds	r19, 0x383D	; 0x80383d <whoami>
     2e2:	a0 ec       	ldi	r26, 0xC0	; 192
     2e4:	bd eb       	ldi	r27, 0xBD	; 189
            chkTmr++;
            if (chkTmr >= SHORT_WAIT) {
                if (chkVolt250() == 5) {
                    UpdateState(99+candidate);
                    UpdateState(99+whoami);
                    for (uint8_t x=0; x<5; ++x){
     2e6:	80 e0       	ldi	r24, 0x00	; 0
     2e8:	ed 01       	movw	r28, r26
                        iLED[WING[L][x]] = (x<candidate)?dimValue:0;
     2ea:	15 96       	adiw	r26, 0x05	; 5
     2ec:	ec 91       	ld	r30, X
     2ee:	15 97       	sbiw	r26, 0x05	; 5
     2f0:	f0 e0       	ldi	r31, 0x00	; 0
     2f2:	82 17       	cp	r24, r18
     2f4:	18 f4       	brcc	.+6      	; 0x2fc <MakeFriends+0x204>
     2f6:	90 91 0b 38 	lds	r25, 0x380B	; 0x80380b <dimValue>
     2fa:	01 c0       	rjmp	.+2      	; 0x2fe <MakeFriends+0x206>
     2fc:	90 e0       	ldi	r25, 0x00	; 0
     2fe:	e6 53       	subi	r30, 0x36	; 54
     300:	f5 4c       	sbci	r31, 0xC5	; 197
     302:	90 83       	st	Z, r25
     304:	11 96       	adiw	r26, 0x01	; 1
                        iLED[WING[R][x]] = (x<whoami)?dimValue:00;
     306:	e8 81       	ld	r30, Y
     308:	f0 e0       	ldi	r31, 0x00	; 0
     30a:	83 17       	cp	r24, r19
     30c:	18 f4       	brcc	.+6      	; 0x314 <MakeFriends+0x21c>
     30e:	90 91 0b 38 	lds	r25, 0x380B	; 0x80380b <dimValue>
     312:	01 c0       	rjmp	.+2      	; 0x316 <MakeFriends+0x21e>
     314:	90 e0       	ldi	r25, 0x00	; 0
     316:	e6 53       	subi	r30, 0x36	; 54
     318:	f5 4c       	sbci	r31, 0xC5	; 197
     31a:	90 83       	st	Z, r25
            chkTmr++;
            if (chkTmr >= SHORT_WAIT) {
                if (chkVolt250() == 5) {
                    UpdateState(99+candidate);
                    UpdateState(99+whoami);
                    for (uint8_t x=0; x<5; ++x){
     31c:	8f 5f       	subi	r24, 0xFF	; 255
     31e:	85 30       	cpi	r24, 0x05	; 5
     320:	19 f7       	brne	.-58     	; 0x2e8 <MakeFriends+0x1f0>
                        iLED[WING[L][x]] = (x<candidate)?dimValue:0;
                        iLED[WING[R][x]] = (x<whoami)?dimValue:00;
                    }   
                    progress = FOURTH_BASE;
     322:	84 e0       	ldi	r24, 0x04	; 4
     324:	bd cf       	rjmp	.-134    	; 0x2a0 <MakeFriends+0x1a8>
                } else progress = NO_OTHER;                
                chkTmr = 0;
            }

        //Wait for divorce of force quit
        } else if (progress == FOURTH_BASE) {
     326:	84 30       	cpi	r24, 0x04	; 4
            if (chkVolt250() == 5) {
     328:	f9 f4       	brne	.+62     	; 0x368 <MakeFriends+0x270>
     32a:	c6 de       	rcall	.-628    	; 0xb8 <chkVolt250>
     32c:	85 30       	cpi	r24, 0x05	; 5
     32e:	e1 f4       	brne	.+56     	; 0x368 <MakeFriends+0x270>
                chkTmr++;
     330:	80 91 30 38 	lds	r24, 0x3830	; 0x803830 <chkTmr.3780>
     334:	8f 5f       	subi	r24, 0xFF	; 255
     336:	80 93 30 38 	sts	0x3830, r24	; 0x803830 <chkTmr.3780>
                if (chkTmr >= LONG_WAIT) {
     33a:	8a 3f       	cpi	r24, 0xFA	; 250
     33c:	a8 f0       	brcs	.+42     	; 0x368 <MakeFriends+0x270>
     33e:	e0 ec       	ldi	r30, 0xC0	; 192
     340:	fd eb       	ldi	r31, 0xBD	; 189
     342:	85 ec       	ldi	r24, 0xC5	; 197
     344:	9d eb       	ldi	r25, 0xBD	; 189
     346:	ef 01       	movw	r28, r30
                    for (uint8_t x=0; x<5; ++x){
                        iLED[WING[L][x]] = 0;
     348:	a5 81       	ldd	r26, Z+5	; 0x05
     34a:	b0 e0       	ldi	r27, 0x00	; 0
     34c:	a6 53       	subi	r26, 0x36	; 54
     34e:	b5 4c       	sbci	r27, 0xC5	; 197
     350:	1c 92       	st	X, r1
     352:	31 96       	adiw	r30, 0x01	; 1
                        iLED[WING[R][x]] = 0;
     354:	a8 81       	ld	r26, Y
     356:	b0 e0       	ldi	r27, 0x00	; 0
     358:	a6 53       	subi	r26, 0x36	; 54
     35a:	b5 4c       	sbci	r27, 0xC5	; 197
     35c:	1c 92       	st	X, r1
        //Wait for divorce of force quit
        } else if (progress == FOURTH_BASE) {
            if (chkVolt250() == 5) {
                chkTmr++;
                if (chkTmr >= LONG_WAIT) {
                    for (uint8_t x=0; x<5; ++x){
     35e:	8e 17       	cp	r24, r30
     360:	9f 07       	cpc	r25, r31
     362:	89 f7       	brne	.-30     	; 0x346 <MakeFriends+0x24e>
                    }                    
                }
            }
        }

    } else progress = NO_OTHER;
     364:	10 92 31 38 	sts	0x3831, r1	; 0x803831 <progress.3778>
      
    return 0;
}
     368:	80 e0       	ldi	r24, 0x00	; 0
     36a:	df 91       	pop	r29
     36c:	cf 91       	pop	r28
     36e:	1f 91       	pop	r17
     370:	0f 91       	pop	r16
     372:	ff 90       	pop	r15
     374:	ef 90       	pop	r14
     376:	08 95       	ret

00000378 <I2C_init>:
// the Atmel device documentation mentions a special command for repeated start TWI_MCMD_REPSTART_gc,
// but this is not used in Atmel's demo code, so we don't use it either

void I2C_rep_start(uint8_t shifted_addr)						    // send repeated start, device_addr + LSB set if READ
{
	TWI0.MADDR = shifted_addr;	
     378:	81 e0       	ldi	r24, 0x01	; 1
     37a:	80 93 22 04 	sts	0x0422, r24	; 0x800422 <__TEXT_REGION_LENGTH__+0x700422>
     37e:	e6 e2       	ldi	r30, 0x26	; 38
     380:	f4 e0       	ldi	r31, 0x04	; 4
     382:	80 83       	st	Z, r24
     384:	10 92 30 04 	sts	0x0430, r1	; 0x800430 <__TEXT_REGION_LENGTH__+0x700430>
     388:	a1 e2       	ldi	r26, 0x21	; 33
     38a:	b4 e0       	ldi	r27, 0x04	; 4
     38c:	92 e0       	ldi	r25, 0x02	; 2
     38e:	9c 93       	st	X, r25
     390:	90 83       	st	Z, r25
     392:	10 92 31 04 	sts	0x0431, r1	; 0x800431 <__TEXT_REGION_LENGTH__+0x700431>
     396:	e0 e1       	ldi	r30, 0x10	; 16
     398:	f8 e0       	ldi	r31, 0x08	; 8
     39a:	97 e0       	ldi	r25, 0x07	; 7
     39c:	96 83       	std	Z+6, r25	; 0x06
     39e:	98 e0       	ldi	r25, 0x08	; 8
     3a0:	94 83       	std	Z+4, r25	; 0x04
     3a2:	83 83       	std	Z+3, r24	; 0x03
     3a4:	8c 93       	st	X, r24
     3a6:	85 81       	ldd	r24, Z+5	; 0x05
     3a8:	81 60       	ori	r24, 0x01	; 1
     3aa:	85 83       	std	Z+5, r24	; 0x05
     3ac:	85 81       	ldd	r24, Z+5	; 0x05
     3ae:	84 6c       	ori	r24, 0xC4	; 196
     3b0:	85 83       	std	Z+5, r24	; 0x05
     3b2:	08 95       	ret

000003b4 <I2C_recover>:
     3b4:	80 91 14 08 	lds	r24, 0x0814	; 0x800814 <__TEXT_REGION_LENGTH__+0x700814>
     3b8:	88 60       	ori	r24, 0x08	; 8
     3ba:	80 93 14 08 	sts	0x0814, r24	; 0x800814 <__TEXT_REGION_LENGTH__+0x700814>
     3be:	10 92 13 08 	sts	0x0813, r1	; 0x800813 <__TEXT_REGION_LENGTH__+0x700813>
     3c2:	82 e0       	ldi	r24, 0x02	; 2
     3c4:	80 93 22 04 	sts	0x0422, r24	; 0x800422 <__TEXT_REGION_LENGTH__+0x700422>
     3c8:	99 e0       	ldi	r25, 0x09	; 9
     3ca:	21 e0       	ldi	r18, 0x01	; 1
     3cc:	81 e0       	ldi	r24, 0x01	; 1
     3ce:	20 93 21 04 	sts	0x0421, r18	; 0x800421 <__TEXT_REGION_LENGTH__+0x700421>
     3d2:	30 e1       	ldi	r19, 0x10	; 16
     3d4:	3a 95       	dec	r19
     3d6:	f1 f7       	brne	.-4      	; 0x3d4 <I2C_recover+0x20>
     3d8:	00 c0       	rjmp	.+0      	; 0x3da <I2C_recover+0x26>
     3da:	20 93 22 04 	sts	0x0422, r18	; 0x800422 <__TEXT_REGION_LENGTH__+0x700422>
     3de:	30 e1       	ldi	r19, 0x10	; 16
     3e0:	3a 95       	dec	r19
     3e2:	f1 f7       	brne	.-4      	; 0x3e0 <I2C_recover+0x2c>
     3e4:	00 c0       	rjmp	.+0      	; 0x3e6 <I2C_recover+0x32>
     3e6:	91 50       	subi	r25, 0x01	; 1
     3e8:	89 f7       	brne	.-30     	; 0x3cc <I2C_recover+0x18>
     3ea:	28 e0       	ldi	r18, 0x08	; 8
     3ec:	20 93 14 08 	sts	0x0814, r18	; 0x800814 <__TEXT_REGION_LENGTH__+0x700814>
     3f0:	80 93 13 08 	sts	0x0813, r24	; 0x800813 <__TEXT_REGION_LENGTH__+0x700813>
     3f4:	92 e0       	ldi	r25, 0x02	; 2
     3f6:	90 93 21 04 	sts	0x0421, r25	; 0x800421 <__TEXT_REGION_LENGTH__+0x700421>
     3fa:	90 91 15 08 	lds	r25, 0x0815	; 0x800815 <__TEXT_REGION_LENGTH__+0x700815>
     3fe:	91 60       	ori	r25, 0x01	; 1
     400:	90 93 15 08 	sts	0x0815, r25	; 0x800815 <__TEXT_REGION_LENGTH__+0x700815>
     404:	90 91 15 08 	lds	r25, 0x0815	; 0x800815 <__TEXT_REGION_LENGTH__+0x700815>
     408:	94 6c       	ori	r25, 0xC4	; 196
     40a:	90 93 15 08 	sts	0x0815, r25	; 0x800815 <__TEXT_REGION_LENGTH__+0x700815>
     40e:	20 93 14 08 	sts	0x0814, r18	; 0x800814 <__TEXT_REGION_LENGTH__+0x700814>
     412:	80 93 13 08 	sts	0x0813, r24	; 0x800813 <__TEXT_REGION_LENGTH__+0x700813>
     416:	80 93 21 04 	sts	0x0421, r24	; 0x800421 <__TEXT_REGION_LENGTH__+0x700421>
     41a:	80 91 15 08 	lds	r24, 0x0815	; 0x800815 <__TEXT_REGION_LENGTH__+0x700815>
     41e:	81 60       	ori	r24, 0x01	; 1
     420:	80 93 15 08 	sts	0x0815, r24	; 0x800815 <__TEXT_REGION_LENGTH__+0x700815>
     424:	80 91 15 08 	lds	r24, 0x0815	; 0x800815 <__TEXT_REGION_LENGTH__+0x700815>
     428:	84 6c       	ori	r24, 0xC4	; 196
     42a:	80 93 15 08 	sts	0x0815, r24	; 0x800815 <__TEXT_REGION_LENGTH__+0x700815>
     42e:	08 95       	ret

00000430 <I2C_start>:
     430:	28 2f       	mov	r18, r24
     432:	90 91 15 08 	lds	r25, 0x0815	; 0x800815 <__TEXT_REGION_LENGTH__+0x700815>
     436:	90 6c       	ori	r25, 0xC0	; 192
     438:	90 93 15 08 	sts	0x0815, r25	; 0x800815 <__TEXT_REGION_LENGTH__+0x700815>
     43c:	90 91 15 08 	lds	r25, 0x0815	; 0x800815 <__TEXT_REGION_LENGTH__+0x700815>
     440:	89 2f       	mov	r24, r25
     442:	84 70       	andi	r24, 0x04	; 4
     444:	92 fd       	sbrc	r25, 2
     446:	03 c0       	rjmp	.+6      	; 0x44e <I2C_start+0x1e>
     448:	20 93 17 08 	sts	0x0817, r18	; 0x800817 <__TEXT_REGION_LENGTH__+0x700817>
     44c:	08 95       	ret
     44e:	84 e0       	ldi	r24, 0x04	; 4
     450:	08 95       	ret

00000452 <I2C_wait_ACK>:
     452:	8c e0       	ldi	r24, 0x0C	; 12
     454:	80 93 60 3a 	sts	0x3A60, r24	; 0x803a60 <timeout_I2C>
     458:	80 91 15 08 	lds	r24, 0x0815	; 0x800815 <__TEXT_REGION_LENGTH__+0x700815>
     45c:	87 fd       	sbrc	r24, 7
     45e:	0a c0       	rjmp	.+20     	; 0x474 <I2C_wait_ACK+0x22>
     460:	80 91 15 08 	lds	r24, 0x0815	; 0x800815 <__TEXT_REGION_LENGTH__+0x700815>
     464:	86 fd       	sbrc	r24, 6
     466:	06 c0       	rjmp	.+12     	; 0x474 <I2C_wait_ACK+0x22>
     468:	80 91 60 3a 	lds	r24, 0x3A60	; 0x803a60 <timeout_I2C>
     46c:	81 11       	cpse	r24, r1
     46e:	f4 cf       	rjmp	.-24     	; 0x458 <I2C_wait_ACK+0x6>
     470:	8f ef       	ldi	r24, 0xFF	; 255
     472:	08 95       	ret
     474:	80 91 15 08 	lds	r24, 0x0815	; 0x800815 <__TEXT_REGION_LENGTH__+0x700815>
     478:	80 6c       	ori	r24, 0xC0	; 192
     47a:	80 93 15 08 	sts	0x0815, r24	; 0x800815 <__TEXT_REGION_LENGTH__+0x700815>
     47e:	80 91 15 08 	lds	r24, 0x0815	; 0x800815 <__TEXT_REGION_LENGTH__+0x700815>
     482:	82 fd       	sbrc	r24, 2
     484:	09 c0       	rjmp	.+18     	; 0x498 <I2C_wait_ACK+0x46>
     486:	80 91 15 08 	lds	r24, 0x0815	; 0x800815 <__TEXT_REGION_LENGTH__+0x700815>
     48a:	83 fd       	sbrc	r24, 3
     48c:	07 c0       	rjmp	.+14     	; 0x49c <I2C_wait_ACK+0x4a>
     48e:	80 91 15 08 	lds	r24, 0x0815	; 0x800815 <__TEXT_REGION_LENGTH__+0x700815>
     492:	82 95       	swap	r24
     494:	81 70       	andi	r24, 0x01	; 1
     496:	08 95       	ret
     498:	84 e0       	ldi	r24, 0x04	; 4
     49a:	08 95       	ret
     49c:	82 e0       	ldi	r24, 0x02	; 2
     49e:	08 95       	ret

000004a0 <I2C_read>:
}

uint8_t	I2C_read(uint8_t *data, uint8_t ack_flag)					// read data, ack_flag 0: send ACK, 1: send NACK, returns status
{
     4a0:	fc 01       	movw	r30, r24
	timeout_I2C = READ_TIMEOUT;										// reset timeout counter, will be decremented by LED matrix interrupt
     4a2:	8c e0       	ldi	r24, 0x0C	; 12
     4a4:	80 93 60 3a 	sts	0x3A60, r24	; 0x803a60 <timeout_I2C>
	if ((TWI0.MSTATUS & TWI_BUSSTATE_gm) == TWI_BUSSTATE_OWNER_gc)	// if master controls bus
     4a8:	90 91 15 08 	lds	r25, 0x0815	; 0x800815 <__TEXT_REGION_LENGTH__+0x700815>
     4ac:	89 2f       	mov	r24, r25
     4ae:	83 70       	andi	r24, 0x03	; 3
     4b0:	82 30       	cpi	r24, 0x02	; 2
     4b2:	11 f0       	breq	.+4      	; 0x4b8 <I2C_read+0x18>
		else		TWI0.MCTRLB |= TWI_ACKACT_NACK_gc;				// setup NACK (last byte read)
		*data = TWI0.MDATA;
		if (ack_flag == 0) TWI0.MCTRLB |= TWI_MCMD_RECVTRANS_gc;	// send ACK, more bytes to follow					
		return 0;
	}
	else return 8;													// master does not control bus
     4b4:	88 e0       	ldi	r24, 0x08	; 8
     4b6:	08 95       	ret
uint8_t	I2C_read(uint8_t *data, uint8_t ack_flag)					// read data, ack_flag 0: send ACK, 1: send NACK, returns status
{
	timeout_I2C = READ_TIMEOUT;										// reset timeout counter, will be decremented by LED matrix interrupt
	if ((TWI0.MSTATUS & TWI_BUSSTATE_gm) == TWI_BUSSTATE_OWNER_gc)	// if master controls bus
	{		
		while (!(TWI0.MSTATUS & TWI_RIF_bm))						// wait for RIF set (data byte received)
     4b8:	90 91 15 08 	lds	r25, 0x0815	; 0x800815 <__TEXT_REGION_LENGTH__+0x700815>
     4bc:	97 fd       	sbrc	r25, 7
     4be:	06 c0       	rjmp	.+12     	; 0x4cc <I2C_read+0x2c>
		{
			if (!(timeout_I2C)) return 0xff;			            // return timeout error
     4c0:	90 91 60 3a 	lds	r25, 0x3A60	; 0x803a60 <timeout_I2C>
     4c4:	91 11       	cpse	r25, r1
     4c6:	f8 cf       	rjmp	.-16     	; 0x4b8 <I2C_read+0x18>
     4c8:	8f ef       	ldi	r24, 0xFF	; 255
     4ca:	08 95       	ret
		}
		TWI0.MSTATUS |= (TWI_RIF_bm | TWI_WIF_bm);					// clear Read and Write interrupt flags	
     4cc:	90 91 15 08 	lds	r25, 0x0815	; 0x800815 <__TEXT_REGION_LENGTH__+0x700815>
     4d0:	90 6c       	ori	r25, 0xC0	; 192
     4d2:	90 93 15 08 	sts	0x0815, r25	; 0x800815 <__TEXT_REGION_LENGTH__+0x700815>
		if (TWI0.MSTATUS & TWI_BUSERR_bm) return 4;					// Bus Error, abort
     4d6:	90 91 15 08 	lds	r25, 0x0815	; 0x800815 <__TEXT_REGION_LENGTH__+0x700815>
     4da:	92 fd       	sbrc	r25, 2
     4dc:	1e c0       	rjmp	.+60     	; 0x51a <I2C_read+0x7a>
		if (TWI0.MSTATUS & TWI_ARBLOST_bm) return 2;				// Arbitration Lost, abort
     4de:	90 91 15 08 	lds	r25, 0x0815	; 0x800815 <__TEXT_REGION_LENGTH__+0x700815>
     4e2:	93 fd       	sbrc	r25, 3
     4e4:	1d c0       	rjmp	.+58     	; 0x520 <I2C_read+0x80>
		if (TWI0.MSTATUS & TWI_RXACK_bm) return 1;					// Slave replied with NACK, abort				
     4e6:	90 91 15 08 	lds	r25, 0x0815	; 0x800815 <__TEXT_REGION_LENGTH__+0x700815>
     4ea:	89 2f       	mov	r24, r25
     4ec:	80 71       	andi	r24, 0x10	; 16
     4ee:	94 fd       	sbrc	r25, 4
     4f0:	16 c0       	rjmp	.+44     	; 0x51e <I2C_read+0x7e>
		if (ack_flag == 0) TWI0.MCTRLB &= ~(1 << TWI_ACKACT_bp);	// setup ACK
     4f2:	90 91 14 08 	lds	r25, 0x0814	; 0x800814 <__TEXT_REGION_LENGTH__+0x700814>
     4f6:	61 11       	cpse	r22, r1
     4f8:	02 c0       	rjmp	.+4      	; 0x4fe <I2C_read+0x5e>
     4fa:	9b 7f       	andi	r25, 0xFB	; 251
     4fc:	01 c0       	rjmp	.+2      	; 0x500 <I2C_read+0x60>
		else		TWI0.MCTRLB |= TWI_ACKACT_NACK_gc;				// setup NACK (last byte read)
     4fe:	94 60       	ori	r25, 0x04	; 4
     500:	90 93 14 08 	sts	0x0814, r25	; 0x800814 <__TEXT_REGION_LENGTH__+0x700814>
		*data = TWI0.MDATA;
     504:	90 91 18 08 	lds	r25, 0x0818	; 0x800818 <__TEXT_REGION_LENGTH__+0x700818>
     508:	90 83       	st	Z, r25
		if (ack_flag == 0) TWI0.MCTRLB |= TWI_MCMD_RECVTRANS_gc;	// send ACK, more bytes to follow					
     50a:	61 11       	cpse	r22, r1
     50c:	09 c0       	rjmp	.+18     	; 0x520 <I2C_read+0x80>
     50e:	90 91 14 08 	lds	r25, 0x0814	; 0x800814 <__TEXT_REGION_LENGTH__+0x700814>
     512:	92 60       	ori	r25, 0x02	; 2
     514:	90 93 14 08 	sts	0x0814, r25	; 0x800814 <__TEXT_REGION_LENGTH__+0x700814>
     518:	08 95       	ret
		while (!(TWI0.MSTATUS & TWI_RIF_bm))						// wait for RIF set (data byte received)
		{
			if (!(timeout_I2C)) return 0xff;			            // return timeout error
		}
		TWI0.MSTATUS |= (TWI_RIF_bm | TWI_WIF_bm);					// clear Read and Write interrupt flags	
		if (TWI0.MSTATUS & TWI_BUSERR_bm) return 4;					// Bus Error, abort
     51a:	84 e0       	ldi	r24, 0x04	; 4
     51c:	08 95       	ret
		if (TWI0.MSTATUS & TWI_ARBLOST_bm) return 2;				// Arbitration Lost, abort
		if (TWI0.MSTATUS & TWI_RXACK_bm) return 1;					// Slave replied with NACK, abort				
     51e:	81 e0       	ldi	r24, 0x01	; 1
		*data = TWI0.MDATA;
		if (ack_flag == 0) TWI0.MCTRLB |= TWI_MCMD_RECVTRANS_gc;	// send ACK, more bytes to follow					
		return 0;
	}
	else return 8;													// master does not control bus
}
     520:	08 95       	ret

00000522 <I2C_write>:

uint8_t I2C_write(uint8_t *data)									// write data, return status
{
     522:	fc 01       	movw	r30, r24
	timeout_I2C = WRITE_TIMEOUT;									// reset timeout counter, will be decremented by LED matrix interrupt
     524:	8c e0       	ldi	r24, 0x0C	; 12
     526:	80 93 60 3a 	sts	0x3A60, r24	; 0x803a60 <timeout_I2C>
	if ((TWI0.MSTATUS & TWI_BUSSTATE_gm) == TWI_BUSSTATE_OWNER_gc)	// if master controls bus
     52a:	90 91 15 08 	lds	r25, 0x0815	; 0x800815 <__TEXT_REGION_LENGTH__+0x700815>
     52e:	93 70       	andi	r25, 0x03	; 3
     530:	92 30       	cpi	r25, 0x02	; 2
     532:	b1 f4       	brne	.+44     	; 0x560 <I2C_write+0x3e>
	{
		TWI0.MDATA = *data;		
     534:	80 81       	ld	r24, Z
     536:	80 93 18 08 	sts	0x0818, r24	; 0x800818 <__TEXT_REGION_LENGTH__+0x700818>
		while (!(TWI0.MSTATUS & TWI_WIF_bm))						// wait until WIF set, status register contains ACK/NACK bit
     53a:	80 91 15 08 	lds	r24, 0x0815	; 0x800815 <__TEXT_REGION_LENGTH__+0x700815>
     53e:	86 fd       	sbrc	r24, 6
     540:	06 c0       	rjmp	.+12     	; 0x54e <I2C_write+0x2c>
		{
			if (!(timeout_I2C)) return 0xff;			            // return timeout error
     542:	80 91 60 3a 	lds	r24, 0x3A60	; 0x803a60 <timeout_I2C>
     546:	81 11       	cpse	r24, r1
     548:	f8 cf       	rjmp	.-16     	; 0x53a <I2C_write+0x18>
     54a:	8f ef       	ldi	r24, 0xFF	; 255
     54c:	08 95       	ret
		}
		if (TWI0.MSTATUS & TWI_BUSERR_bm) return 4;					// Bus Error, abort
     54e:	80 91 15 08 	lds	r24, 0x0815	; 0x800815 <__TEXT_REGION_LENGTH__+0x700815>
     552:	82 fd       	sbrc	r24, 2
     554:	07 c0       	rjmp	.+14     	; 0x564 <I2C_write+0x42>
		if (TWI0.MSTATUS & TWI_RXACK_bm) return 1;					// Slave replied with NACK, abort
     556:	80 91 15 08 	lds	r24, 0x0815	; 0x800815 <__TEXT_REGION_LENGTH__+0x700815>
	if ((TWI0.MSTATUS & TWI_BUSSTATE_gm) == TWI_BUSSTATE_OWNER_gc)	// if master controls bus
	{
		TWI0.MDATA = *data;		
		while (!(TWI0.MSTATUS & TWI_WIF_bm))						// wait until WIF set, status register contains ACK/NACK bit
		{
			if (!(timeout_I2C)) return 0xff;			            // return timeout error
     55a:	82 95       	swap	r24
     55c:	81 70       	andi	r24, 0x01	; 1
     55e:	08 95       	ret
		}
		if (TWI0.MSTATUS & TWI_BUSERR_bm) return 4;					// Bus Error, abort
		if (TWI0.MSTATUS & TWI_RXACK_bm) return 1;					// Slave replied with NACK, abort
		return 0;													// no error	
	}
	else return 8;													// master does not control bus
     560:	88 e0       	ldi	r24, 0x08	; 8
     562:	08 95       	ret
		TWI0.MDATA = *data;		
		while (!(TWI0.MSTATUS & TWI_WIF_bm))						// wait until WIF set, status register contains ACK/NACK bit
		{
			if (!(timeout_I2C)) return 0xff;			            // return timeout error
		}
		if (TWI0.MSTATUS & TWI_BUSERR_bm) return 4;					// Bus Error, abort
     564:	84 e0       	ldi	r24, 0x04	; 4
		if (TWI0.MSTATUS & TWI_RXACK_bm) return 1;					// Slave replied with NACK, abort
		return 0;													// no error	
	}
	else return 8;													// master does not control bus
}
     566:	08 95       	ret

00000568 <I2C_stop>:

void I2C_stop()
{
	TWI0.MCTRLB |= TWI_MCMD_STOP_gc;
     568:	e0 e1       	ldi	r30, 0x10	; 16
     56a:	f8 e0       	ldi	r31, 0x08	; 8
     56c:	84 81       	ldd	r24, Z+4	; 0x04
     56e:	83 60       	ori	r24, 0x03	; 3
     570:	84 83       	std	Z+4, r24	; 0x04
     572:	08 95       	ret

00000574 <I2C_read_bytes>:
// addr_ptr		address of first array element to transfer
// slave reg	starting slave register
// num_bytes	number of bytes to transfer

uint8_t	I2C_read_bytes(uint8_t slave_addr, uint8_t *reg_ptr, uint8_t reg_len, uint8_t *dat_ptr, uint8_t dat_len)
{
     574:	cf 92       	push	r12
     576:	df 92       	push	r13
     578:	ff 92       	push	r15
     57a:	0f 93       	push	r16
     57c:	1f 93       	push	r17
     57e:	cf 93       	push	r28
     580:	df 93       	push	r29
     582:	6b 01       	movw	r12, r22
     584:	f4 2e       	mov	r15, r20
     586:	e9 01       	movw	r28, r18
	uint8_t status;
	if (dat_len > MAX_LEN) dat_len = MAX_LEN;
	status = I2C_start(slave_addr << 1);							// slave write address, LSB 0
     588:	18 2f       	mov	r17, r24
     58a:	11 0f       	add	r17, r17
     58c:	81 2f       	mov	r24, r17
     58e:	50 df       	rcall	.-352    	; 0x430 <I2C_start>
	if (status != 0) goto error;
     590:	81 11       	cpse	r24, r1
	status = I2C_wait_ACK();										// wait for slave ACK
     592:	2b c0       	rjmp	.+86     	; 0x5ea <I2C_read_bytes+0x76>
     594:	5e df       	rcall	.-324    	; 0x452 <I2C_wait_ACK>
	if (status == 1) {
     596:	81 30       	cpi	r24, 0x01	; 1
		I2C_stop();													// NACK, abort
     598:	19 f4       	brne	.+6      	; 0x5a0 <I2C_read_bytes+0x2c>
     59a:	e6 df       	rcall	.-52     	; 0x568 <I2C_stop>
		return 1;
     59c:	81 e0       	ldi	r24, 0x01	; 1
     59e:	27 c0       	rjmp	.+78     	; 0x5ee <I2C_read_bytes+0x7a>
	}
	if (status != 0) goto error;
     5a0:	81 11       	cpse	r24, r1
     5a2:	23 c0       	rjmp	.+70     	; 0x5ea <I2C_read_bytes+0x76>
    while(reg_len > 0){
     5a4:	ff 20       	and	r15, r15
	    status = I2C_write(reg_ptr);    							// send slave start register
     5a6:	49 f0       	breq	.+18     	; 0x5ba <I2C_read_bytes+0x46>
     5a8:	c6 01       	movw	r24, r12
     5aa:	bb df       	rcall	.-138    	; 0x522 <I2C_write>
	    if (status != 0) goto error;
     5ac:	81 11       	cpse	r24, r1
     5ae:	1d c0       	rjmp	.+58     	; 0x5ea <I2C_read_bytes+0x76>
        ++reg_ptr;
     5b0:	8f ef       	ldi	r24, 0xFF	; 255
     5b2:	c8 1a       	sub	r12, r24
     5b4:	d8 0a       	sbc	r13, r24
        --reg_len;
     5b6:	fa 94       	dec	r15
     5b8:	f5 cf       	rjmp	.-22     	; 0x5a4 <I2C_read_bytes+0x30>
     5ba:	01 34       	cpi	r16, 0x41	; 65
     5bc:	08 f0       	brcs	.+2      	; 0x5c0 <I2C_read_bytes+0x4c>
     5be:	00 e4       	ldi	r16, 0x40	; 64
    }
	I2C_rep_start((slave_addr << 1) + 1);							// slave read address, LSB 1
     5c0:	1f 5f       	subi	r17, 0xFF	; 255
// the Atmel device documentation mentions a special command for repeated start TWI_MCMD_REPSTART_gc,
// but this is not used in Atmel's demo code, so we don't use it either

void I2C_rep_start(uint8_t shifted_addr)						    // send repeated start, device_addr + LSB set if READ
{
	TWI0.MADDR = shifted_addr;	
     5c2:	10 93 17 08 	sts	0x0817, r17	; 0x800817 <__TEXT_REGION_LENGTH__+0x700817>
	    if (status != 0) goto error;
        ++reg_ptr;
        --reg_len;
    }
	I2C_rep_start((slave_addr << 1) + 1);							// slave read address, LSB 1
	while (dat_len > 1) {
     5c6:	02 30       	cpi	r16, 0x02	; 2
		status = I2C_read(dat_ptr, 0);								// first bytes, send ACK
     5c8:	40 f0       	brcs	.+16     	; 0x5da <I2C_read_bytes+0x66>
     5ca:	60 e0       	ldi	r22, 0x00	; 0
     5cc:	ce 01       	movw	r24, r28
     5ce:	68 df       	rcall	.-304    	; 0x4a0 <I2C_read>
		if (status != 0) goto error;
     5d0:	81 11       	cpse	r24, r1
     5d2:	0b c0       	rjmp	.+22     	; 0x5ea <I2C_read_bytes+0x76>
		++dat_ptr;
		--dat_len;
     5d4:	21 96       	adiw	r28, 0x01	; 1
     5d6:	01 50       	subi	r16, 0x01	; 1
	}
	status = I2C_read(dat_ptr, 1);									// single or last byte, send NACK
     5d8:	f6 cf       	rjmp	.-20     	; 0x5c6 <I2C_read_bytes+0x52>
     5da:	61 e0       	ldi	r22, 0x01	; 1
     5dc:	ce 01       	movw	r24, r28
	if (status != 0) goto error;
     5de:	60 df       	rcall	.-320    	; 0x4a0 <I2C_read>
     5e0:	81 11       	cpse	r24, r1
	I2C_stop();
     5e2:	03 c0       	rjmp	.+6      	; 0x5ea <I2C_read_bytes+0x76>
     5e4:	c1 df       	rcall	.-126    	; 0x568 <I2C_stop>
	return 0;
     5e6:	80 e0       	ldi	r24, 0x00	; 0
     5e8:	02 c0       	rjmp	.+4      	; 0x5ee <I2C_read_bytes+0x7a>
	
error:
	I2C_recover();													// clock out possibly stuck slave, reset master
     5ea:	e4 de       	rcall	.-568    	; 0x3b4 <I2C_recover>
     5ec:	8f ef       	ldi	r24, 0xFF	; 255
	return 0xff;													// flag error
     5ee:	df 91       	pop	r29
}
     5f0:	cf 91       	pop	r28
     5f2:	1f 91       	pop	r17
     5f4:	0f 91       	pop	r16
     5f6:	ff 90       	pop	r15
     5f8:	df 90       	pop	r13
     5fa:	cf 90       	pop	r12
     5fc:	08 95       	ret

000005fe <initLanyard>:
uint8_t         lastButtonState = 0xff;
uint8_t         digit = 0xff;
uint16_t        lanyardLastActive = 0;

void initLanyard() {
    lanyardPos      = 0;
     5fe:	10 92 36 38 	sts	0x3836, r1	; 0x803836 <lanyardPos>
    lanyardCnt      = 0;
     602:	10 92 35 38 	sts	0x3835, r1	; 0x803835 <lanyardCnt>
    lanyardState    = TRUE;
     606:	81 e0       	ldi	r24, 0x01	; 1
     608:	80 93 04 38 	sts	0x3804, r24	; 0x803804 <lanyardState>
    lastButtonState = 0xff;
     60c:	8f ef       	ldi	r24, 0xFF	; 255
     60e:	80 93 03 38 	sts	0x3803, r24	; 0x803803 <lastButtonState>
    iLED[CAT]       = 0;
     612:	e0 91 bc bd 	lds	r30, 0xBDBC	; 0x80bdbc <__bss_end+0x82a2>
     616:	f0 e0       	ldi	r31, 0x00	; 0
     618:	e6 53       	subi	r30, 0x36	; 54
     61a:	f5 4c       	sbci	r31, 0xC5	; 197
     61c:	10 82       	st	Z, r1
    iLED[EYE[G][L]] = 0;
     61e:	e0 91 cd bd 	lds	r30, 0xBDCD	; 0x80bdcd <__bss_end+0x82b3>
     622:	f0 e0       	ldi	r31, 0x00	; 0
     624:	e6 53       	subi	r30, 0x36	; 54
     626:	f5 4c       	sbci	r31, 0xC5	; 197
     628:	10 82       	st	Z, r1
    iLED[EYE[G][R]] = 0;
     62a:	e0 91 cc bd 	lds	r30, 0xBDCC	; 0x80bdcc <__bss_end+0x82b2>
     62e:	f0 e0       	ldi	r31, 0x00	; 0
     630:	e6 53       	subi	r30, 0x36	; 54
     632:	f5 4c       	sbci	r31, 0xC5	; 197
     634:	10 82       	st	Z, r1
    iLED[EYE[R][L]] = 0;
     636:	e0 91 cb bd 	lds	r30, 0xBDCB	; 0x80bdcb <__bss_end+0x82b1>
     63a:	f0 e0       	ldi	r31, 0x00	; 0
     63c:	e6 53       	subi	r30, 0x36	; 54
     63e:	f5 4c       	sbci	r31, 0xC5	; 197
     640:	10 82       	st	Z, r1
    iLED[EYE[R][R]] = 0;
     642:	e0 91 ca bd 	lds	r30, 0xBDCA	; 0x80bdca <__bss_end+0x82b0>
     646:	f0 e0       	ldi	r31, 0x00	; 0
     648:	e6 53       	subi	r30, 0x36	; 54
     64a:	f5 4c       	sbci	r31, 0xC5	; 197
     64c:	10 82       	st	Z, r1
     64e:	a4 ed       	ldi	r26, 0xD4	; 212
     650:	bd eb       	ldi	r27, 0xBD	; 189
    for (int i=0; i<6; i++ )
        iLED[HCKR[G][i]] = 0;
     652:	ed 91       	ld	r30, X+
     654:	f0 e0       	ldi	r31, 0x00	; 0
     656:	e6 53       	subi	r30, 0x36	; 54
     658:	f5 4c       	sbci	r31, 0xC5	; 197
     65a:	10 82       	st	Z, r1
    iLED[CAT]       = 0;
    iLED[EYE[G][L]] = 0;
    iLED[EYE[G][R]] = 0;
    iLED[EYE[R][L]] = 0;
    iLED[EYE[R][R]] = 0;
    for (int i=0; i<6; i++ )
     65c:	8d eb       	ldi	r24, 0xBD	; 189
     65e:	aa 3d       	cpi	r26, 0xDA	; 218
     660:	b8 07       	cpc	r27, r24
     662:	b9 f7       	brne	.-18     	; 0x652 <initLanyard+0x54>
        iLED[HCKR[G][i]] = 0;
}
     664:	08 95       	ret

00000666 <LanyardCode>:

// Main game loop
uint8_t LanyardCode(){
     666:	cf 93       	push	r28
    if (gameNow == LANYARD && idleTimeout(lanyardLastActive,LANYARD_MAX_IDLE)) {
     668:	80 91 3c 38 	lds	r24, 0x383C	; 0x80383c <gameNow>
     66c:	83 30       	cpi	r24, 0x03	; 3
     66e:	71 f4       	brne	.+28     	; 0x68c <LanyardCode+0x26>
     670:	6a e0       	ldi	r22, 0x0A	; 10
     672:	70 e0       	ldi	r23, 0x00	; 0
     674:	80 91 33 38 	lds	r24, 0x3833	; 0x803833 <lanyardLastActive>
     678:	90 91 34 38 	lds	r25, 0x3834	; 0x803834 <lanyardLastActive+0x1>
     67c:	0e 94 65 0d 	call	0x1aca	; 0x1aca <idleTimeout>
     680:	88 23       	and	r24, r24
     682:	21 f0       	breq	.+8      	; 0x68c <LanyardCode+0x26>
        /* clean up maze game and go back to text game */
        initLanyard();
     684:	bc df       	rcall	.-136    	; 0x5fe <initLanyard>
        gameNow = TEXT;
     686:	10 92 3c 38 	sts	0x383C, r1	; 0x80383c <gameNow>
        return 0;
     68a:	bf c0       	rjmp	.+382    	; 0x80a <LanyardCode+0x1a4>
    }

    if (CheckState(LANYARD_COMPLETED))
     68c:	8b e7       	ldi	r24, 0x7B	; 123
     68e:	5f d7       	rcall	.+3774   	; 0x154e <CheckState>
     690:	81 11       	cpse	r24, r1
     692:	bb c0       	rjmp	.+374    	; 0x80a <LanyardCode+0x1a4>
        return 0;

    if ( gameNow != TEXT && gameNow != LANYARD )
     694:	80 91 3c 38 	lds	r24, 0x383C	; 0x80383c <gameNow>
     698:	88 23       	and	r24, r24
     69a:	19 f0       	breq	.+6      	; 0x6a2 <LanyardCode+0x3c>
     69c:	83 30       	cpi	r24, 0x03	; 3
     69e:	09 f0       	breq	.+2      	; 0x6a2 <LanyardCode+0x3c>
     6a0:	b4 c0       	rjmp	.+360    	; 0x80a <LanyardCode+0x1a4>
        return 0;

    /* activate led for buttonstate */
    iLED[CAT] = (buttonState==0xff ? 0 : dimValue);
     6a2:	c0 91 bc bd 	lds	r28, 0xBDBC	; 0x80bdbc <__bss_end+0x82a2>
     6a6:	ec 2f       	mov	r30, r28
     6a8:	f0 e0       	ldi	r31, 0x00	; 0
     6aa:	90 91 09 38 	lds	r25, 0x3809	; 0x803809 <buttonState>
     6ae:	9f 3f       	cpi	r25, 0xFF	; 255
     6b0:	19 f0       	breq	.+6      	; 0x6b8 <LanyardCode+0x52>
     6b2:	80 91 0b 38 	lds	r24, 0x380B	; 0x80380b <dimValue>
     6b6:	01 c0       	rjmp	.+2      	; 0x6ba <LanyardCode+0x54>
     6b8:	80 e0       	ldi	r24, 0x00	; 0
     6ba:	e6 53       	subi	r30, 0x36	; 54
     6bc:	f5 4c       	sbci	r31, 0xC5	; 197
     6be:	80 83       	st	Z, r24

    if ( (buttonState & 0xf0) == 0)
     6c0:	89 2f       	mov	r24, r25
     6c2:	80 7f       	andi	r24, 0xF0	; 240
     6c4:	09 f4       	brne	.+2      	; 0x6c8 <LanyardCode+0x62>
     6c6:	a1 c0       	rjmp	.+322    	; 0x80a <LanyardCode+0x1a4>
        return 0;

    if ((buttonState&0x0f) == (lastButtonState&0x0f))
     6c8:	80 91 03 38 	lds	r24, 0x3803	; 0x803803 <lastButtonState>
     6cc:	89 27       	eor	r24, r25
     6ce:	8f 70       	andi	r24, 0x0F	; 15
     6d0:	09 f4       	brne	.+2      	; 0x6d4 <LanyardCode+0x6e>
     6d2:	9b c0       	rjmp	.+310    	; 0x80a <LanyardCode+0x1a4>
        return 0;

    lanyardLastActive = getClock();
     6d4:	0e 94 56 0d 	call	0x1aac	; 0x1aac <getClock>
     6d8:	80 93 33 38 	sts	0x3833, r24	; 0x803833 <lanyardLastActive>
     6dc:	90 93 34 38 	sts	0x3834, r25	; 0x803834 <lanyardLastActive+0x1>

    if (lastButtonState == 0xff){
     6e0:	80 91 03 38 	lds	r24, 0x3803	; 0x803803 <lastButtonState>
     6e4:	8f 3f       	cpi	r24, 0xFF	; 255
     6e6:	09 f0       	breq	.+2      	; 0x6ea <LanyardCode+0x84>
     6e8:	8c c0       	rjmp	.+280    	; 0x802 <LanyardCode+0x19c>
        switch (buttonState & 0x0f) {
     6ea:	80 91 09 38 	lds	r24, 0x3809	; 0x803809 <buttonState>
     6ee:	8f 70       	andi	r24, 0x0F	; 15
     6f0:	82 30       	cpi	r24, 0x02	; 2
     6f2:	61 f0       	breq	.+24     	; 0x70c <LanyardCode+0xa6>
     6f4:	28 f4       	brcc	.+10     	; 0x700 <LanyardCode+0x9a>
     6f6:	81 30       	cpi	r24, 0x01	; 1
     6f8:	69 f4       	brne	.+26     	; 0x714 <LanyardCode+0xae>
            case 0b0001:
                digit = 0;
     6fa:	10 92 02 38 	sts	0x3802, r1	; 0x803802 <digit>
                break;
     6fe:	0d c0       	rjmp	.+26     	; 0x71a <LanyardCode+0xb4>
        return 0;

    lanyardLastActive = getClock();

    if (lastButtonState == 0xff){
        switch (buttonState & 0x0f) {
     700:	84 30       	cpi	r24, 0x04	; 4
     702:	31 f0       	breq	.+12     	; 0x710 <LanyardCode+0xaa>
     704:	88 30       	cpi	r24, 0x08	; 8
     706:	31 f4       	brne	.+12     	; 0x714 <LanyardCode+0xae>
            case 0b0100:
                digit = 3;
                break;

            case 0b1000:
                digit = 2;
     708:	82 e0       	ldi	r24, 0x02	; 2
     70a:	05 c0       	rjmp	.+10     	; 0x716 <LanyardCode+0xb0>
            case 0b0001:
                digit = 0;
                break;

            case 0b0010:
                digit = 1;
     70c:	81 e0       	ldi	r24, 0x01	; 1
     70e:	03 c0       	rjmp	.+6      	; 0x716 <LanyardCode+0xb0>
                break;

            case 0b0100:
                digit = 3;
     710:	83 e0       	ldi	r24, 0x03	; 3
     712:	01 c0       	rjmp	.+2      	; 0x716 <LanyardCode+0xb0>
            case 0b1000:
                digit = 2;
                break;

            default:
                digit = 0xff;
     714:	8f ef       	ldi	r24, 0xFF	; 255
     716:	80 93 02 38 	sts	0x3802, r24	; 0x803802 <digit>
                break;
        }
        gameNow = LANYARD;
     71a:	83 e0       	ldi	r24, 0x03	; 3
     71c:	80 93 3c 38 	sts	0x383C, r24	; 0x80383c <gameNow>
        /* TODO play tone for button */

        if (digit == lanyardCode[lanyardPos]) {
     720:	80 91 36 38 	lds	r24, 0x3836	; 0x803836 <lanyardPos>
     724:	e8 2f       	mov	r30, r24
     726:	f0 e0       	ldi	r31, 0x00	; 0
     728:	ec 55       	subi	r30, 0x5C	; 92
     72a:	f2 44       	sbci	r31, 0x42	; 66
     72c:	20 81       	ld	r18, Z
     72e:	90 91 02 38 	lds	r25, 0x3802	; 0x803802 <digit>
     732:	29 13       	cpse	r18, r25
     734:	12 c0       	rjmp	.+36     	; 0x75a <LanyardCode+0xf4>
            lanyardState &= TRUE;
     736:	90 91 04 38 	lds	r25, 0x3804	; 0x803804 <lanyardState>
     73a:	91 70       	andi	r25, 0x01	; 1
     73c:	90 93 04 38 	sts	0x3804, r25	; 0x803804 <lanyardState>
            iLED[EYE[R][L]] = 0;
     740:	e0 91 cb bd 	lds	r30, 0xBDCB	; 0x80bdcb <__bss_end+0x82b1>
     744:	f0 e0       	ldi	r31, 0x00	; 0
     746:	e6 53       	subi	r30, 0x36	; 54
     748:	f5 4c       	sbci	r31, 0xC5	; 197
     74a:	10 82       	st	Z, r1
            iLED[EYE[R][R]] = 0;
     74c:	e0 91 ca bd 	lds	r30, 0xBDCA	; 0x80bdca <__bss_end+0x82b0>
     750:	f0 e0       	ldi	r31, 0x00	; 0
     752:	e6 53       	subi	r30, 0x36	; 54
     754:	f5 4c       	sbci	r31, 0xC5	; 197
     756:	10 82       	st	Z, r1
     758:	05 c0       	rjmp	.+10     	; 0x764 <LanyardCode+0xfe>
        } else {
            lanyardState = FALSE;
     75a:	10 92 04 38 	sts	0x3804, r1	; 0x803804 <lanyardState>
            if (lanyardPos < 4 ) {
     75e:	84 30       	cpi	r24, 0x04	; 4
     760:	08 f4       	brcc	.+2      	; 0x764 <LanyardCode+0xfe>
     762:	90 cf       	rjmp	.-224    	; 0x684 <LanyardCode+0x1e>
                */
                gameNow         = TEXT;
                return 0;
            }
        }
        lanyardPos++;
     764:	8f 5f       	subi	r24, 0xFF	; 255
     766:	80 93 36 38 	sts	0x3836, r24	; 0x803836 <lanyardPos>
        lanyardCnt++;            
     76a:	90 91 35 38 	lds	r25, 0x3835	; 0x803835 <lanyardCnt>
     76e:	9f 5f       	subi	r25, 0xFF	; 255
        if (lanyardCnt >= 4) {
     770:	94 30       	cpi	r25, 0x04	; 4
     772:	18 f4       	brcc	.+6      	; 0x77a <LanyardCode+0x114>
                gameNow         = TEXT;
                return 0;
            }
        }
        lanyardPos++;
        lanyardCnt++;            
     774:	90 93 35 38 	sts	0x3835, r25	; 0x803835 <lanyardCnt>
     778:	44 c0       	rjmp	.+136    	; 0x802 <LanyardCode+0x19c>
        if (lanyardCnt >= 4) {
            lanyardCnt = 0;
     77a:	10 92 35 38 	sts	0x3835, r1	; 0x803835 <lanyardCnt>
            if (lanyardState == TRUE) {
     77e:	90 91 04 38 	lds	r25, 0x3804	; 0x803804 <lanyardState>
     782:	91 30       	cpi	r25, 0x01	; 1
     784:	69 f5       	brne	.+90     	; 0x7e0 <LanyardCode+0x17a>
                iLED[HCKR[G][(lanyardPos/4)-1]] = dimValue;
     786:	e8 2f       	mov	r30, r24
     788:	e6 95       	lsr	r30
     78a:	e6 95       	lsr	r30
     78c:	f0 e0       	ldi	r31, 0x00	; 0
     78e:	e2 53       	subi	r30, 0x32	; 50
     790:	f2 44       	sbci	r31, 0x42	; 66
     792:	e5 81       	ldd	r30, Z+5	; 0x05
     794:	f0 e0       	ldi	r31, 0x00	; 0
     796:	90 91 0b 38 	lds	r25, 0x380B	; 0x80380b <dimValue>
     79a:	e6 53       	subi	r30, 0x36	; 54
     79c:	f5 4c       	sbci	r31, 0xC5	; 197
     79e:	90 83       	st	Z, r25
                if (lanyardPos == sizeof(lanyardCode)) {
     7a0:	88 31       	cpi	r24, 0x18	; 24
                    UpdateState(LANYARD_COMPLETED);
     7a2:	79 f5       	brne	.+94     	; 0x802 <LanyardCode+0x19c>
     7a4:	8b e7       	ldi	r24, 0x7B	; 123
     7a6:	c9 d6       	rcall	.+3474   	; 0x153a <UpdateState>
                    iLED[CAT]       = 0;
     7a8:	ec 2f       	mov	r30, r28
     7aa:	f0 e0       	ldi	r31, 0x00	; 0
     7ac:	e6 53       	subi	r30, 0x36	; 54
     7ae:	f5 4c       	sbci	r31, 0xC5	; 197
     7b0:	10 82       	st	Z, r1
                    iLED[EYE[R][L]] = 0;
     7b2:	e0 91 cb bd 	lds	r30, 0xBDCB	; 0x80bdcb <__bss_end+0x82b1>
     7b6:	f0 e0       	ldi	r31, 0x00	; 0
     7b8:	e6 53       	subi	r30, 0x36	; 54
     7ba:	f5 4c       	sbci	r31, 0xC5	; 197
     7bc:	10 82       	st	Z, r1
                    iLED[EYE[R][R]] = 0;
     7be:	e0 91 ca bd 	lds	r30, 0xBDCA	; 0x80bdca <__bss_end+0x82b0>
     7c2:	f0 e0       	ldi	r31, 0x00	; 0
     7c4:	e6 53       	subi	r30, 0x36	; 54
     7c6:	f5 4c       	sbci	r31, 0xC5	; 197
     7c8:	10 82       	st	Z, r1
                    iLED[EYE[G][L]] = dimValue;
     7ca:	e0 91 cd bd 	lds	r30, 0xBDCD	; 0x80bdcd <__bss_end+0x82b3>
     7ce:	f0 e0       	ldi	r31, 0x00	; 0
     7d0:	80 91 0b 38 	lds	r24, 0x380B	; 0x80380b <dimValue>
     7d4:	e6 53       	subi	r30, 0x36	; 54
     7d6:	f5 4c       	sbci	r31, 0xC5	; 197
     7d8:	80 83       	st	Z, r24
                    iLED[EYE[G][R]] = dimValue;
     7da:	e0 91 cc bd 	lds	r30, 0xBDCC	; 0x80bdcc <__bss_end+0x82b2>
                    /*TODO state = STATE_MUSIC;*/
                }
            } else {
                initLanyard();
     7de:	0b c0       	rjmp	.+22     	; 0x7f6 <LanyardCode+0x190>
     7e0:	0e df       	rcall	.-484    	; 0x5fe <initLanyard>
                iLED[EYE[R][L]] = dimValue;
     7e2:	e0 91 cb bd 	lds	r30, 0xBDCB	; 0x80bdcb <__bss_end+0x82b1>
     7e6:	f0 e0       	ldi	r31, 0x00	; 0
     7e8:	80 91 0b 38 	lds	r24, 0x380B	; 0x80380b <dimValue>
     7ec:	e6 53       	subi	r30, 0x36	; 54
     7ee:	f5 4c       	sbci	r31, 0xC5	; 197
     7f0:	80 83       	st	Z, r24
                iLED[EYE[R][R]] = dimValue;
     7f2:	e0 91 ca bd 	lds	r30, 0xBDCA	; 0x80bdca <__bss_end+0x82b0>
     7f6:	f0 e0       	ldi	r31, 0x00	; 0
     7f8:	80 91 0b 38 	lds	r24, 0x380B	; 0x80380b <dimValue>
     7fc:	e6 53       	subi	r30, 0x36	; 54
     7fe:	f5 4c       	sbci	r31, 0xC5	; 197
     800:	80 83       	st	Z, r24
            }
        }
    }

    lastButtonState = buttonState;
     802:	80 91 09 38 	lds	r24, 0x3809	; 0x803809 <buttonState>
     806:	80 93 03 38 	sts	0x3803, r24	; 0x803803 <lastButtonState>
    return 0;
}
     80a:	80 e0       	ldi	r24, 0x00	; 0
     80c:	cf 91       	pop	r28
     80e:	08 95       	ret

00000810 <initMaze>:
uint8_t         mazeState = TRUE;
uint8_t         inverted  = FALSE;
uint16_t        mazeLastActive = 0;

void initMaze() {
    mazePos = 0;
     810:	10 92 49 38 	sts	0x3849, r1	; 0x803849 <mazePos>
    mazeCnt = 0;
     814:	10 92 48 38 	sts	0x3848, r1	; 0x803848 <mazeCnt>
    mazeState = TRUE;
     818:	81 e0       	ldi	r24, 0x01	; 1
     81a:	80 93 0c 38 	sts	0x380C, r24	; 0x80380c <mazeState>
    inverted  = FALSE;
     81e:	10 92 47 38 	sts	0x3847, r1	; 0x803847 <inverted>
    iLED[CAT]       = 0;
     822:	e0 91 bc bd 	lds	r30, 0xBDBC	; 0x80bdbc <__bss_end+0x82a2>
     826:	f0 e0       	ldi	r31, 0x00	; 0
     828:	e6 53       	subi	r30, 0x36	; 54
     82a:	f5 4c       	sbci	r31, 0xC5	; 197
     82c:	10 82       	st	Z, r1
    iLED[EYE[G][L]] = 0;
     82e:	e0 91 cd bd 	lds	r30, 0xBDCD	; 0x80bdcd <__bss_end+0x82b3>
     832:	f0 e0       	ldi	r31, 0x00	; 0
     834:	e6 53       	subi	r30, 0x36	; 54
     836:	f5 4c       	sbci	r31, 0xC5	; 197
     838:	10 82       	st	Z, r1
    iLED[EYE[G][R]] = 0;
     83a:	e0 91 cc bd 	lds	r30, 0xBDCC	; 0x80bdcc <__bss_end+0x82b2>
     83e:	f0 e0       	ldi	r31, 0x00	; 0
     840:	e6 53       	subi	r30, 0x36	; 54
     842:	f5 4c       	sbci	r31, 0xC5	; 197
     844:	10 82       	st	Z, r1
    iLED[EYE[R][L]] = 0;
     846:	e0 91 cb bd 	lds	r30, 0xBDCB	; 0x80bdcb <__bss_end+0x82b1>
     84a:	f0 e0       	ldi	r31, 0x00	; 0
     84c:	e6 53       	subi	r30, 0x36	; 54
     84e:	f5 4c       	sbci	r31, 0xC5	; 197
     850:	10 82       	st	Z, r1
    iLED[EYE[R][R]] = 0;
     852:	e0 91 ca bd 	lds	r30, 0xBDCA	; 0x80bdca <__bss_end+0x82b0>
     856:	f0 e0       	ldi	r31, 0x00	; 0
     858:	e6 53       	subi	r30, 0x36	; 54
     85a:	f5 4c       	sbci	r31, 0xC5	; 197
     85c:	10 82       	st	Z, r1
     85e:	a4 ed       	ldi	r26, 0xD4	; 212
     860:	bd eb       	ldi	r27, 0xBD	; 189
    for (int i=0; i<6; i++ )
        iLED[HCKR[G][i]] = 0;
     862:	ed 91       	ld	r30, X+
     864:	f0 e0       	ldi	r31, 0x00	; 0
     866:	e6 53       	subi	r30, 0x36	; 54
     868:	f5 4c       	sbci	r31, 0xC5	; 197
     86a:	10 82       	st	Z, r1
    iLED[CAT]       = 0;
    iLED[EYE[G][L]] = 0;
    iLED[EYE[G][R]] = 0;
    iLED[EYE[R][L]] = 0;
    iLED[EYE[R][R]] = 0;
    for (int i=0; i<6; i++ )
     86c:	8d eb       	ldi	r24, 0xBD	; 189
     86e:	aa 3d       	cpi	r26, 0xDA	; 218
     870:	b8 07       	cpc	r27, r24
     872:	b9 f7       	brne	.-18     	; 0x862 <initMaze+0x52>
        iLED[HCKR[G][i]] = 0;
}
     874:	08 95       	ret

00000876 <showFieldStrength>:

void showFieldStrength(int16_t val) {
    int16_t tmp;

    tmp = abs(val);
     876:	97 ff       	sbrs	r25, 7
     878:	03 c0       	rjmp	.+6      	; 0x880 <showFieldStrength+0xa>
     87a:	91 95       	neg	r25
     87c:	81 95       	neg	r24
     87e:	91 09       	sbc	r25, r1

    if ( tmp*2 > HALL_LOW )
     880:	9c 01       	movw	r18, r24
     882:	22 0f       	add	r18, r18
     884:	33 1f       	adc	r19, r19
     886:	29 37       	cpi	r18, 0x79	; 121
     888:	31 05       	cpc	r19, r1
     88a:	1c f0       	brlt	.+6      	; 0x892 <showFieldStrength+0x1c>
        gameNow = MAZE;
     88c:	41 e0       	ldi	r20, 0x01	; 1
     88e:	40 93 3c 38 	sts	0x383C, r20	; 0x80383c <gameNow>

    if (gameNow == MAZE) {
     892:	40 91 3c 38 	lds	r20, 0x383C	; 0x80383c <gameNow>
     896:	41 30       	cpi	r20, 0x01	; 1
     898:	21 f5       	brne	.+72     	; 0x8e2 <showFieldStrength+0x6c>
        if ( tmp*2 < HALL_LOW )
     89a:	28 37       	cpi	r18, 0x78	; 120
     89c:	31 05       	cpc	r19, r1
     89e:	1c f4       	brge	.+6      	; 0x8a6 <showFieldStrength+0x30>
            WingBar(0,0);
     8a0:	60 e0       	ldi	r22, 0x00	; 0
     8a2:	80 e0       	ldi	r24, 0x00	; 0
     8a4:	1d c0       	rjmp	.+58     	; 0x8e0 <showFieldStrength+0x6a>
        else if ( tmp   < HALL_LOW )
     8a6:	88 37       	cpi	r24, 0x78	; 120
     8a8:	91 05       	cpc	r25, r1
     8aa:	1c f4       	brge	.+6      	; 0x8b2 <showFieldStrength+0x3c>
            WingBar(1,1);
     8ac:	61 e0       	ldi	r22, 0x01	; 1
     8ae:	81 e0       	ldi	r24, 0x01	; 1
     8b0:	17 c0       	rjmp	.+46     	; 0x8e0 <showFieldStrength+0x6a>
        else if ( tmp*2 < HALL_HIGH )
     8b2:	2c 32       	cpi	r18, 0x2C	; 44
     8b4:	41 e0       	ldi	r20, 0x01	; 1
     8b6:	34 07       	cpc	r19, r20
     8b8:	1c f4       	brge	.+6      	; 0x8c0 <showFieldStrength+0x4a>
            WingBar(2,2);
     8ba:	62 e0       	ldi	r22, 0x02	; 2
     8bc:	82 e0       	ldi	r24, 0x02	; 2
     8be:	10 c0       	rjmp	.+32     	; 0x8e0 <showFieldStrength+0x6a>
        else if ( tmp*3 < HALL_HIGH*2 )
     8c0:	28 0f       	add	r18, r24
     8c2:	39 1f       	adc	r19, r25
     8c4:	28 35       	cpi	r18, 0x58	; 88
     8c6:	32 40       	sbci	r19, 0x02	; 2
     8c8:	1c f4       	brge	.+6      	; 0x8d0 <showFieldStrength+0x5a>
            WingBar(3,3);
     8ca:	63 e0       	ldi	r22, 0x03	; 3
     8cc:	83 e0       	ldi	r24, 0x03	; 3
     8ce:	08 c0       	rjmp	.+16     	; 0x8e0 <showFieldStrength+0x6a>
        else if ( tmp   < HALL_HIGH )
     8d0:	8c 32       	cpi	r24, 0x2C	; 44
     8d2:	91 40       	sbci	r25, 0x01	; 1
     8d4:	1c f4       	brge	.+6      	; 0x8dc <showFieldStrength+0x66>
            WingBar(4,4);
     8d6:	64 e0       	ldi	r22, 0x04	; 4
     8d8:	84 e0       	ldi	r24, 0x04	; 4
     8da:	02 c0       	rjmp	.+4      	; 0x8e0 <showFieldStrength+0x6a>
        else
            WingBar(5,5);
     8dc:	65 e0       	ldi	r22, 0x05	; 5
     8de:	85 e0       	ldi	r24, 0x05	; 5
     8e0:	0f c7       	rjmp	.+3614   	; 0x1700 <WingBar>
     8e2:	08 95       	ret

000008e4 <MagnetMaze>:
    }
}

// Main game loop
uint8_t MagnetMaze(){
     8e4:	cf 93       	push	r28
     8e6:	df 93       	push	r29
    if (gameNow == MAZE && idleTimeout(mazeLastActive,MAZE_MAX_IDLE)) {
     8e8:	80 91 3c 38 	lds	r24, 0x383C	; 0x80383c <gameNow>
     8ec:	81 30       	cpi	r24, 0x01	; 1
     8ee:	71 f4       	brne	.+28     	; 0x90c <MagnetMaze+0x28>
     8f0:	6a e0       	ldi	r22, 0x0A	; 10
     8f2:	70 e0       	ldi	r23, 0x00	; 0
     8f4:	80 91 45 38 	lds	r24, 0x3845	; 0x803845 <mazeLastActive>
     8f8:	90 91 46 38 	lds	r25, 0x3846	; 0x803846 <mazeLastActive+0x1>
     8fc:	0e 94 65 0d 	call	0x1aca	; 0x1aca <idleTimeout>
     900:	88 23       	and	r24, r24
     902:	21 f0       	breq	.+8      	; 0x90c <MagnetMaze+0x28>
        /* clean up maze game and go back to text game */
        initMaze();
     904:	85 df       	rcall	.-246    	; 0x810 <initMaze>
        gameNow = TEXT;
     906:	10 92 3c 38 	sts	0x383C, r1	; 0x80383c <gameNow>
        return 0;
     90a:	f4 c0       	rjmp	.+488    	; 0xaf4 <MagnetMaze+0x210>
    }
        
    if (CheckState(MAZE_INACTIVE))
     90c:	87 ef       	ldi	r24, 0xF7	; 247
     90e:	1f d6       	rcall	.+3134   	; 0x154e <CheckState>
     910:	81 11       	cpse	r24, r1
     912:	f0 c0       	rjmp	.+480    	; 0xaf4 <MagnetMaze+0x210>
        return 0;

    if (CheckState(MAZE_COMPLETED))
     914:	8d e7       	ldi	r24, 0x7D	; 125
     916:	1b d6       	rcall	.+3126   	; 0x154e <CheckState>
     918:	81 11       	cpse	r24, r1
     91a:	ec c0       	rjmp	.+472    	; 0xaf4 <MagnetMaze+0x210>
     91c:	80 91 3c 38 	lds	r24, 0x383C	; 0x80383c <gameNow>
        return 0;

    if ( (gameNow != TEXT) && (gameNow != MAZE) )
     920:	82 30       	cpi	r24, 0x02	; 2
     922:	08 f0       	brcs	.+2      	; 0x926 <MagnetMaze+0x42>
     924:	e7 c0       	rjmp	.+462    	; 0xaf4 <MagnetMaze+0x210>
     926:	80 91 f3 3a 	lds	r24, 0x3AF3	; 0x803af3 <calHall>
        return 0;

    if (calHall == 0)
     92a:	90 91 f4 3a 	lds	r25, 0x3AF4	; 0x803af4 <calHall+0x1>
     92e:	89 2b       	or	r24, r25
     930:	41 f4       	brne	.+16     	; 0x942 <MagnetMaze+0x5e>
     932:	80 91 bb 3a 	lds	r24, 0x3ABB	; 0x803abb <adcHall>
        calHall = adcHall;
     936:	90 91 bc 3a 	lds	r25, 0x3ABC	; 0x803abc <adcHall+0x1>
     93a:	80 93 f3 3a 	sts	0x3AF3, r24	; 0x803af3 <calHall>
     93e:	90 93 f4 3a 	sts	0x3AF4, r25	; 0x803af4 <calHall+0x1>
     942:	c0 91 bb 3a 	lds	r28, 0x3ABB	; 0x803abb <adcHall>

    int16_t valHall = adcHall - calHall;
     946:	d0 91 bc 3a 	lds	r29, 0x3ABC	; 0x803abc <adcHall+0x1>
     94a:	80 91 f3 3a 	lds	r24, 0x3AF3	; 0x803af3 <calHall>
     94e:	90 91 f4 3a 	lds	r25, 0x3AF4	; 0x803af4 <calHall+0x1>
     952:	c8 1b       	sub	r28, r24
     954:	d9 0b       	sbc	r29, r25
    showFieldStrength(valHall);
     956:	ce 01       	movw	r24, r28
     958:	8e df       	rcall	.-228    	; 0x876 <showFieldStrength>
     95a:	80 91 4b 38 	lds	r24, 0x384B	; 0x80384b <curHallState>

    switch (curHallState) {
     95e:	81 30       	cpi	r24, 0x01	; 1
     960:	89 f0       	breq	.+34     	; 0x984 <MagnetMaze+0xa0>
     962:	18 f0       	brcs	.+6      	; 0x96a <MagnetMaze+0x86>
     964:	82 30       	cpi	r24, 0x02	; 2
     966:	c1 f0       	breq	.+48     	; 0x998 <MagnetMaze+0xb4>
     968:	1f c0       	rjmp	.+62     	; 0x9a8 <MagnetMaze+0xc4>
     96a:	c4 3d       	cpi	r28, 0xD4	; 212
        case 0:
            if ( valHall + HALL_HIGH < 0 ) {
     96c:	9e ef       	ldi	r25, 0xFE	; 254
     96e:	d9 07       	cpc	r29, r25
     970:	14 f4       	brge	.+4      	; 0x976 <MagnetMaze+0x92>
     972:	91 e0       	ldi	r25, 0x01	; 1
                newHallState = 1;
     974:	04 c0       	rjmp	.+8      	; 0x97e <MagnetMaze+0x9a>
     976:	cd 32       	cpi	r28, 0x2D	; 45
            } else if ( valHall - HALL_HIGH > 0 ) {
     978:	d1 40       	sbci	r29, 0x01	; 1
     97a:	5c f0       	brlt	.+22     	; 0x992 <MagnetMaze+0xae>
     97c:	92 e0       	ldi	r25, 0x02	; 2
                newHallState = 2;
     97e:	90 93 4a 38 	sts	0x384A, r25	; 0x80384a <newHallState>
     982:	12 c0       	rjmp	.+36     	; 0x9a8 <MagnetMaze+0xc4>
     984:	cd 32       	cpi	r28, 0x2D	; 45
                newHallState = 0;
            }
            break;
        
        case 1:
            if ( valHall - HALL_HIGH > 0 ) {
     986:	91 e0       	ldi	r25, 0x01	; 1
     988:	d9 07       	cpc	r29, r25
     98a:	c4 f7       	brge	.-16     	; 0x97c <MagnetMaze+0x98>
     98c:	c9 38       	cpi	r28, 0x89	; 137
                newHallState = 2;
            } else if ( valHall + HALL_LOW > 0 ) {
     98e:	df 4f       	sbci	r29, 0xFF	; 255
     990:	84 f3       	brlt	.-32     	; 0x972 <MagnetMaze+0x8e>
     992:	10 92 4a 38 	sts	0x384A, r1	; 0x80384a <newHallState>
            if ( valHall + HALL_HIGH < 0 ) {
                newHallState = 1;
            } else if ( valHall - HALL_HIGH > 0 ) {
                newHallState = 2;
            } else {
                newHallState = 0;
     996:	08 c0       	rjmp	.+16     	; 0x9a8 <MagnetMaze+0xc4>
     998:	c4 3d       	cpi	r28, 0xD4	; 212
                newHallState = 1;
            }
            break;
        
        case 2:
            if ( valHall + HALL_HIGH < 0 ) {
     99a:	9e ef       	ldi	r25, 0xFE	; 254
     99c:	d9 07       	cpc	r29, r25
     99e:	4c f3       	brlt	.-46     	; 0x972 <MagnetMaze+0x8e>
     9a0:	c8 37       	cpi	r28, 0x78	; 120
                newHallState = 1;
            } else if ( valHall - HALL_LOW < 0 ) {
     9a2:	d1 05       	cpc	r29, r1
     9a4:	b4 f3       	brlt	.-20     	; 0x992 <MagnetMaze+0xae>
     9a6:	ea cf       	rjmp	.-44     	; 0x97c <MagnetMaze+0x98>
     9a8:	c0 91 bc bd 	lds	r28, 0xBDBC	; 0x80bdbc <__bss_end+0x82a2>
            }
            break;
    }

    /* Indicate that the magnet was read succesfully */
    iLED[CAT] = (newHallState ? dimValue : 0);
     9ac:	ec 2f       	mov	r30, r28
     9ae:	f0 e0       	ldi	r31, 0x00	; 0
     9b0:	90 91 4a 38 	lds	r25, 0x384A	; 0x80384a <newHallState>
     9b4:	99 23       	and	r25, r25
     9b6:	19 f0       	breq	.+6      	; 0x9be <MagnetMaze+0xda>
     9b8:	20 91 0b 38 	lds	r18, 0x380B	; 0x80380b <dimValue>
     9bc:	01 c0       	rjmp	.+2      	; 0x9c0 <MagnetMaze+0xdc>
     9be:	20 e0       	ldi	r18, 0x00	; 0
     9c0:	e6 53       	subi	r30, 0x36	; 54
     9c2:	f5 4c       	sbci	r31, 0xC5	; 197
     9c4:	20 83       	st	Z, r18
     9c6:	89 17       	cp	r24, r25

    if (newHallState != curHallState) {
     9c8:	09 f4       	brne	.+2      	; 0x9cc <MagnetMaze+0xe8>
     9ca:	94 c0       	rjmp	.+296    	; 0xaf4 <MagnetMaze+0x210>
     9cc:	0e 94 56 0d 	call	0x1aac	; 0x1aac <getClock>
        /* keep track of time to enable an idle timeout to exit the game */
        mazeLastActive = getClock();
     9d0:	80 93 45 38 	sts	0x3845, r24	; 0x803845 <mazeLastActive>
     9d4:	90 93 46 38 	sts	0x3846, r25	; 0x803846 <mazeLastActive+0x1>
     9d8:	20 91 49 38 	lds	r18, 0x3849	; 0x803849 <mazePos>

        /* Make the maze work regardless of badge orientation */
        if ((mazePos == 0) && (newHallState != 0))
     9dc:	80 91 4a 38 	lds	r24, 0x384A	; 0x80384a <newHallState>
     9e0:	21 11       	cpse	r18, r1
     9e2:	08 c0       	rjmp	.+16     	; 0x9f4 <MagnetMaze+0x110>
     9e4:	88 23       	and	r24, r24
     9e6:	31 f0       	breq	.+12     	; 0x9f4 <MagnetMaze+0x110>
     9e8:	91 e0       	ldi	r25, 0x01	; 1
            inverted = (newHallState != mazeCode[0]) ? TRUE : FALSE;
     9ea:	81 30       	cpi	r24, 0x01	; 1
     9ec:	09 f4       	brne	.+2      	; 0x9f0 <MagnetMaze+0x10c>
     9ee:	90 e0       	ldi	r25, 0x00	; 0
     9f0:	90 93 47 38 	sts	0x3847, r25	; 0x803847 <inverted>
     9f4:	80 93 4b 38 	sts	0x384B, r24	; 0x80384b <curHallState>

        curHallState = newHallState;
     9f8:	88 23       	and	r24, r24
        
        if (curHallState != 0) {
     9fa:	09 f4       	brne	.+2      	; 0x9fe <MagnetMaze+0x11a>
     9fc:	7b c0       	rjmp	.+246    	; 0xaf4 <MagnetMaze+0x210>
     9fe:	91 e0       	ldi	r25, 0x01	; 1
            gameNow = MAZE;
     a00:	90 93 3c 38 	sts	0x383C, r25	; 0x80383c <gameNow>
     a04:	90 91 47 38 	lds	r25, 0x3847	; 0x803847 <inverted>
            if ( (inverted ? curHallState^3 : curHallState) == mazeCode[mazePos]) {
     a08:	99 23       	and	r25, r25
     a0a:	11 f0       	breq	.+4      	; 0xa10 <MagnetMaze+0x12c>
     a0c:	93 e0       	ldi	r25, 0x03	; 3
     a0e:	89 27       	eor	r24, r25
     a10:	90 e0       	ldi	r25, 0x00	; 0
     a12:	e2 2f       	mov	r30, r18
     a14:	f0 e0       	ldi	r31, 0x00	; 0
     a16:	e6 50       	subi	r30, 0x06	; 6
     a18:	f2 44       	sbci	r31, 0x42	; 66
     a1a:	40 81       	ld	r20, Z
     a1c:	50 e0       	ldi	r21, 0x00	; 0
     a1e:	84 17       	cp	r24, r20
     a20:	95 07       	cpc	r25, r21
     a22:	91 f4       	brne	.+36     	; 0xa48 <MagnetMaze+0x164>
     a24:	80 91 0c 38 	lds	r24, 0x380C	; 0x80380c <mazeState>
                mazeState &= TRUE;
     a28:	81 70       	andi	r24, 0x01	; 1
     a2a:	80 93 0c 38 	sts	0x380C, r24	; 0x80380c <mazeState>
     a2e:	e0 91 cb bd 	lds	r30, 0xBDCB	; 0x80bdcb <__bss_end+0x82b1>
                iLED[EYE[R][L]] = 0;
     a32:	f0 e0       	ldi	r31, 0x00	; 0
     a34:	e6 53       	subi	r30, 0x36	; 54
     a36:	f5 4c       	sbci	r31, 0xC5	; 197
     a38:	10 82       	st	Z, r1
     a3a:	e0 91 ca bd 	lds	r30, 0xBDCA	; 0x80bdca <__bss_end+0x82b0>
                iLED[EYE[R][R]] = 0;
     a3e:	f0 e0       	ldi	r31, 0x00	; 0
     a40:	e6 53       	subi	r30, 0x36	; 54
     a42:	f5 4c       	sbci	r31, 0xC5	; 197
     a44:	10 82       	st	Z, r1
     a46:	02 c0       	rjmp	.+4      	; 0xa4c <MagnetMaze+0x168>
     a48:	10 92 0c 38 	sts	0x380C, r1	; 0x80380c <mazeState>
            } else {
                mazeState = FALSE;
     a4c:	81 e0       	ldi	r24, 0x01	; 1
                /* TODO play tone BAD */
            }
            mazePos++;
     a4e:	82 0f       	add	r24, r18
     a50:	80 93 49 38 	sts	0x3849, r24	; 0x803849 <mazePos>
     a54:	90 91 48 38 	lds	r25, 0x3848	; 0x803848 <mazeCnt>
            mazeCnt++;            
     a58:	9f 5f       	subi	r25, 0xFF	; 255
     a5a:	93 30       	cpi	r25, 0x03	; 3
            if (mazeCnt >= 3) {
     a5c:	18 f4       	brcc	.+6      	; 0xa64 <MagnetMaze+0x180>
     a5e:	90 93 48 38 	sts	0x3848, r25	; 0x803848 <mazeCnt>
            } else {
                mazeState = FALSE;
                /* TODO play tone BAD */
            }
            mazePos++;
            mazeCnt++;            
     a62:	48 c0       	rjmp	.+144    	; 0xaf4 <MagnetMaze+0x210>
     a64:	10 92 48 38 	sts	0x3848, r1	; 0x803848 <mazeCnt>
            if (mazeCnt >= 3) {
                mazeCnt = 0;
     a68:	90 91 0c 38 	lds	r25, 0x380C	; 0x80380c <mazeState>
                if (mazeState == TRUE) {
     a6c:	91 30       	cpi	r25, 0x01	; 1
     a6e:	79 f5       	brne	.+94     	; 0xace <MagnetMaze+0x1ea>
     a70:	eb ea       	ldi	r30, 0xAB	; 171
                    /* TODO play tone GOOD */
                    iLED[HCKR[G][(mazePos/3)-1]] = dimValue;
     a72:	8e 9f       	mul	r24, r30
     a74:	e1 2d       	mov	r30, r1
     a76:	11 24       	eor	r1, r1
     a78:	e6 95       	lsr	r30
     a7a:	f0 e0       	ldi	r31, 0x00	; 0
     a7c:	e2 53       	subi	r30, 0x32	; 50
     a7e:	f2 44       	sbci	r31, 0x42	; 66
     a80:	e5 81       	ldd	r30, Z+5	; 0x05
     a82:	f0 e0       	ldi	r31, 0x00	; 0
     a84:	90 91 0b 38 	lds	r25, 0x380B	; 0x80380b <dimValue>
     a88:	e6 53       	subi	r30, 0x36	; 54
     a8a:	f5 4c       	sbci	r31, 0xC5	; 197
     a8c:	90 83       	st	Z, r25
                    if (mazePos == sizeof(mazeCode)) {
     a8e:	82 31       	cpi	r24, 0x12	; 18
     a90:	89 f5       	brne	.+98     	; 0xaf4 <MagnetMaze+0x210>
                        UpdateState(MAZE_COMPLETED);
     a92:	8d e7       	ldi	r24, 0x7D	; 125
     a94:	52 d5       	rcall	.+2724   	; 0x153a <UpdateState>
     a96:	ec 2f       	mov	r30, r28
                        iLED[CAT]       = 0;
     a98:	f0 e0       	ldi	r31, 0x00	; 0
     a9a:	e6 53       	subi	r30, 0x36	; 54
     a9c:	f5 4c       	sbci	r31, 0xC5	; 197
     a9e:	10 82       	st	Z, r1
     aa0:	e0 91 cb bd 	lds	r30, 0xBDCB	; 0x80bdcb <__bss_end+0x82b1>
                        iLED[EYE[R][L]] = 0;
     aa4:	f0 e0       	ldi	r31, 0x00	; 0
     aa6:	e6 53       	subi	r30, 0x36	; 54
     aa8:	f5 4c       	sbci	r31, 0xC5	; 197
     aaa:	10 82       	st	Z, r1
     aac:	e0 91 ca bd 	lds	r30, 0xBDCA	; 0x80bdca <__bss_end+0x82b0>
                        iLED[EYE[R][R]] = 0;
     ab0:	f0 e0       	ldi	r31, 0x00	; 0
     ab2:	e6 53       	subi	r30, 0x36	; 54
     ab4:	f5 4c       	sbci	r31, 0xC5	; 197
     ab6:	10 82       	st	Z, r1
     ab8:	e0 91 cd bd 	lds	r30, 0xBDCD	; 0x80bdcd <__bss_end+0x82b3>
                        iLED[EYE[G][L]] = dimValue;
     abc:	f0 e0       	ldi	r31, 0x00	; 0
     abe:	80 91 0b 38 	lds	r24, 0x380B	; 0x80380b <dimValue>
     ac2:	e6 53       	subi	r30, 0x36	; 54
     ac4:	f5 4c       	sbci	r31, 0xC5	; 197
     ac6:	80 83       	st	Z, r24
                        iLED[EYE[G][R]] = dimValue;
     ac8:	e0 91 cc bd 	lds	r30, 0xBDCC	; 0x80bdcc <__bss_end+0x82b2>
     acc:	0d c0       	rjmp	.+26     	; 0xae8 <MagnetMaze+0x204>
                        /*state = STATE_MUSIC;*/
                    }
                } else {
                    initMaze();
     ace:	a0 de       	rcall	.-704    	; 0x810 <initMaze>
     ad0:	10 92 3c 38 	sts	0x383C, r1	; 0x80383c <gameNow>
                    gameNow   = TEXT;
     ad4:	e0 91 cb bd 	lds	r30, 0xBDCB	; 0x80bdcb <__bss_end+0x82b1>
                    iLED[EYE[R][L]] = dimValue;
     ad8:	f0 e0       	ldi	r31, 0x00	; 0
     ada:	80 91 0b 38 	lds	r24, 0x380B	; 0x80380b <dimValue>
     ade:	e6 53       	subi	r30, 0x36	; 54
     ae0:	f5 4c       	sbci	r31, 0xC5	; 197
     ae2:	80 83       	st	Z, r24
     ae4:	e0 91 ca bd 	lds	r30, 0xBDCA	; 0x80bdca <__bss_end+0x82b0>
                    iLED[EYE[R][R]] = dimValue;
     ae8:	f0 e0       	ldi	r31, 0x00	; 0
     aea:	80 91 0b 38 	lds	r24, 0x380B	; 0x80380b <dimValue>
     aee:	e6 53       	subi	r30, 0x36	; 54
     af0:	f5 4c       	sbci	r31, 0xC5	; 197
     af2:	80 83       	st	Z, r24
     af4:	80 e0       	ldi	r24, 0x00	; 0
                }
            }
        }
    }
    return 0;
}
     af6:	df 91       	pop	r29
     af8:	cf 91       	pop	r28
     afa:	08 95       	ret

00000afc <Setup>:

volatile uint16_t tmp16bit;    
volatile uint8_t mask[8] = {0x01, 0x03, 0x07, 0x0f, 0x1f, 0x3f, 0x7f, 0xff};
uint8_t heart = 0;

void Setup(){
     afc:	cf 93       	push	r28
     afe:	df 93       	push	r29
    cli();
     b00:	f8 94       	cli

    //Set up clock at 10MHz
    CCP = CCP_IOREG_gc;
     b02:	88 ed       	ldi	r24, 0xD8	; 216
     b04:	84 bf       	out	0x34, r24	; 52
    CLKCTRL_MCLKCTRLB = 0x01;
     b06:	c1 e0       	ldi	r28, 0x01	; 1
     b08:	c0 93 61 00 	sts	0x0061, r28	; 0x800061 <__TEXT_REGION_LENGTH__+0x700061>

    //Set I/O direction registers
    PORTA_DIR = 0b01001010;
     b0c:	8a e4       	ldi	r24, 0x4A	; 74
     b0e:	80 93 00 04 	sts	0x0400, r24	; 0x800400 <__TEXT_REGION_LENGTH__+0x700400>
    PORTB_DIR = 0b01111100;
     b12:	8c e7       	ldi	r24, 0x7C	; 124
     b14:	80 93 20 04 	sts	0x0420, r24	; 0x800420 <__TEXT_REGION_LENGTH__+0x700420>
    PORTC_DIR = 0b00111111;
     b18:	9f e3       	ldi	r25, 0x3F	; 63
     b1a:	90 93 40 04 	sts	0x0440, r25	; 0x800440 <__TEXT_REGION_LENGTH__+0x700440>

    //Invert some pins for correcting LED reversal error
    PORTC_PIN3CTRL |= 0x80;
     b1e:	80 91 53 04 	lds	r24, 0x0453	; 0x800453 <__TEXT_REGION_LENGTH__+0x700453>
     b22:	80 68       	ori	r24, 0x80	; 128
     b24:	80 93 53 04 	sts	0x0453, r24	; 0x800453 <__TEXT_REGION_LENGTH__+0x700453>
    PORTC_PIN4CTRL |= 0x80;
     b28:	80 91 54 04 	lds	r24, 0x0454	; 0x800454 <__TEXT_REGION_LENGTH__+0x700454>
     b2c:	80 68       	ori	r24, 0x80	; 128
     b2e:	80 93 54 04 	sts	0x0454, r24	; 0x800454 <__TEXT_REGION_LENGTH__+0x700454>
    PORTC_PIN5CTRL |= 0x80;
     b32:	80 91 55 04 	lds	r24, 0x0455	; 0x800455 <__TEXT_REGION_LENGTH__+0x700455>
     b36:	80 68       	ori	r24, 0x80	; 128
     b38:	80 93 55 04 	sts	0x0455, r24	; 0x800455 <__TEXT_REGION_LENGTH__+0x700455>
    PORTB_PIN3CTRL |= 0x80;
     b3c:	80 91 33 04 	lds	r24, 0x0433	; 0x800433 <__TEXT_REGION_LENGTH__+0x700433>
     b40:	80 68       	ori	r24, 0x80	; 128
     b42:	80 93 33 04 	sts	0x0433, r24	; 0x800433 <__TEXT_REGION_LENGTH__+0x700433>
    PORTB_PIN4CTRL |= 0x80;
     b46:	80 91 34 04 	lds	r24, 0x0434	; 0x800434 <__TEXT_REGION_LENGTH__+0x700434>
     b4a:	80 68       	ori	r24, 0x80	; 128
     b4c:	80 93 34 04 	sts	0x0434, r24	; 0x800434 <__TEXT_REGION_LENGTH__+0x700434>
    PORTB_PIN5CTRL |= 0x80;
     b50:	80 91 35 04 	lds	r24, 0x0435	; 0x800435 <__TEXT_REGION_LENGTH__+0x700435>
     b54:	80 68       	ori	r24, 0x80	; 128
     b56:	80 93 35 04 	sts	0x0435, r24	; 0x800435 <__TEXT_REGION_LENGTH__+0x700435>
    PORTB_PIN2CTRL |= 0x80;
    PORTB_PIN6CTRL |= 0x80;
    */

    //UART (Alternative pins PA1=TxD, PA2=RxD, baudrate 9600, 8n1, RX and Buffer empty interrupts on)
    PORTMUX_CTRLB = 0x01;
     b5a:	c0 93 01 02 	sts	0x0201, r28	; 0x800201 <__TEXT_REGION_LENGTH__+0x700201>
    PORTA_OUTSET = 0x02;
     b5e:	d2 e0       	ldi	r29, 0x02	; 2
     b60:	d0 93 05 04 	sts	0x0405, r29	; 0x800405 <__TEXT_REGION_LENGTH__+0x700405>
    USART0_BAUD = (uint16_t)USART0_BAUD_RATE(115200);
     b64:	2b e5       	ldi	r18, 0x5B	; 91
     b66:	31 e0       	ldi	r19, 0x01	; 1
     b68:	20 93 08 08 	sts	0x0808, r18	; 0x800808 <__TEXT_REGION_LENGTH__+0x700808>
     b6c:	30 93 09 08 	sts	0x0809, r19	; 0x800809 <__TEXT_REGION_LENGTH__+0x700809>
    USART0_CTRLA = 0xA0; //Interrupts on
     b70:	80 ea       	ldi	r24, 0xA0	; 160
     b72:	80 93 05 08 	sts	0x0805, r24	; 0x800805 <__TEXT_REGION_LENGTH__+0x700805>
    USART0_CTRLB = 0xC0; //RX and TX on
     b76:	80 ec       	ldi	r24, 0xC0	; 192
     b78:	80 93 06 08 	sts	0x0806, r24	; 0x800806 <__TEXT_REGION_LENGTH__+0x700806>
    USART0_CTRLC = 0x03; //8 bits data, no parity, 1 stop bit
     b7c:	83 e0       	ldi	r24, 0x03	; 3
     b7e:	80 93 07 08 	sts	0x0807, r24	; 0x800807 <__TEXT_REGION_LENGTH__+0x700807>
     
    //GPIO registers 0..3 can be used for global variables used in ISR routines (ASM capability: IN, OUT, SBI, CBI, SBIS, SBIC)
    L_COL = 0;     //Used in LED array to hold currently driven column value
     b82:	1c ba       	out	0x1c, r1	; 28
    RXCNT = 0;     //Used as UART receive counter
     b84:	1d ba       	out	0x1d, r1	; 29
    AUPOS = 0;     //Used as audio input/output buffer counter
     b86:	1e ba       	out	0x1e, r1	; 30
    GPIOR3 = 0;    //
     b88:	1f ba       	out	0x1f, r1	; 31

    //Init TCA (split mode, f_CLK/16, PWM on 6 alternative pins, underflow int enabled, synced and started)
    TCA0_SPLIT_CTRLD = 1;
     b8a:	c0 93 03 0a 	sts	0x0A03, r28	; 0x800a03 <__TEXT_REGION_LENGTH__+0x700a03>
    TCA0_SPLIT_CTRLA = (0x4)<<1;
     b8e:	88 e0       	ldi	r24, 0x08	; 8
     b90:	80 93 00 0a 	sts	0x0A00, r24	; 0x800a00 <__TEXT_REGION_LENGTH__+0x700a00>
    PORTMUX_CTRLC = 0x3F;
     b94:	90 93 02 02 	sts	0x0202, r25	; 0x800202 <__TEXT_REGION_LENGTH__+0x700202>
    TCA0_SPLIT_CTRLB = 0x77;
     b98:	87 e7       	ldi	r24, 0x77	; 119
     b9a:	80 93 01 0a 	sts	0x0A01, r24	; 0x800a01 <__TEXT_REGION_LENGTH__+0x700a01>
    TCA0_SPLIT_INTCTRL = 0x1;
     b9e:	c0 93 0a 0a 	sts	0x0A0A, r28	; 0x800a0a <__TEXT_REGION_LENGTH__+0x700a0a>
    TCA0_SPLIT_CTRLESET = ((0x2)<<2)|0x3;
     ba2:	8b e0       	ldi	r24, 0x0B	; 11
     ba4:	80 93 05 0a 	sts	0x0A05, r24	; 0x800a05 <__TEXT_REGION_LENGTH__+0x700a05>
    TCA0_SPLIT_CTRLA |= 1;
     ba8:	80 91 00 0a 	lds	r24, 0x0A00	; 0x800a00 <__TEXT_REGION_LENGTH__+0x700a00>
     bac:	81 60       	ori	r24, 0x01	; 1
     bae:	80 93 00 0a 	sts	0x0A00, r24	; 0x800a00 <__TEXT_REGION_LENGTH__+0x700a00>
     
    //Init TCB0 (compare value sets serial Tx pause between characters, uses TCA0 prescaler, enabled, interrupt disabled)
    TCB0_CTRLA = ((0x02)<<1)|0x01;
     bb2:	85 e0       	ldi	r24, 0x05	; 5
     bb4:	80 93 40 0a 	sts	0x0A40, r24	; 0x800a40 <__TEXT_REGION_LENGTH__+0x700a40>
    TCB0_CTRLB = 0;
     bb8:	10 92 41 0a 	sts	0x0A41, r1	; 0x800a41 <__TEXT_REGION_LENGTH__+0x700a41>
    TCB0_CCMP = 0x01FF;
     bbc:	8f ef       	ldi	r24, 0xFF	; 255
     bbe:	91 e0       	ldi	r25, 0x01	; 1
     bc0:	80 93 4c 0a 	sts	0x0A4C, r24	; 0x800a4c <__TEXT_REGION_LENGTH__+0x700a4c>
     bc4:	90 93 4d 0a 	sts	0x0A4D, r25	; 0x800a4d <__TEXT_REGION_LENGTH__+0x700a4d>
    TCB0_INTCTRL = 0x00;     
     bc8:	10 92 45 0a 	sts	0x0A45, r1	; 0x800a45 <__TEXT_REGION_LENGTH__+0x700a45>
     
    //Init TCB1 (compare value sets audio sample rate (0x038B = 11025sps), enabled, interrupt enabled)
    TCB1_CTRLA = 0x01;
     bcc:	c0 93 50 0a 	sts	0x0A50, r28	; 0x800a50 <__TEXT_REGION_LENGTH__+0x700a50>
    TCB1_CTRLB = 0;
     bd0:	10 92 51 0a 	sts	0x0A51, r1	; 0x800a51 <__TEXT_REGION_LENGTH__+0x700a51>
    TCB1_CCMP = 0x038B;
     bd4:	8b e8       	ldi	r24, 0x8B	; 139
     bd6:	93 e0       	ldi	r25, 0x03	; 3
     bd8:	80 93 5c 0a 	sts	0x0A5C, r24	; 0x800a5c <__TEXT_REGION_LENGTH__+0x700a5c>
     bdc:	90 93 5d 0a 	sts	0x0A5D, r25	; 0x800a5d <__TEXT_REGION_LENGTH__+0x700a5d>
    TCB1_INTCTRL = 0x01;
     be0:	c0 93 55 0a 	sts	0x0A55, r28	; 0x800a55 <__TEXT_REGION_LENGTH__+0x700a55>

    //Init I2C (100kHz)
    I2C_init();
     be4:	c9 db       	rcall	.-2158   	; 0x378 <I2C_init>

    //VREF (DAC, ADC's)
    VREF_CTRLA   = 0x12;    //0x22 for audio in/out (2.5V), 0x12 for temperature in, audio out (1.1V/2.5V)
     be6:	82 e1       	ldi	r24, 0x12	; 18
     be8:	80 93 a0 00 	sts	0x00A0, r24	; 0x8000a0 <__TEXT_REGION_LENGTH__+0x7000a0>
    VREF_CTRLC   = 0x20;    //ADC1 reference at 2.5V
     bec:	80 e2       	ldi	r24, 0x20	; 32
     bee:	80 93 a2 00 	sts	0x00A2, r24	; 0x8000a2 <__TEXT_REGION_LENGTH__+0x7000a2>
    VREF_CTRLB   = 0x01;    //DAC0 ref forced enabled
     bf2:	c0 93 a1 00 	sts	0x00A1, r28	; 0x8000a1 <__TEXT_REGION_LENGTH__+0x7000a1>

    //Init ADC0 (audio in, also controls DAC output rate, internal temperature?)
    ADC0_CTRLA   = 0x02;    //10 bit resolution, free running
     bf6:	d0 93 00 06 	sts	0x0600, r29	; 0x800600 <__TEXT_REGION_LENGTH__+0x700600>
    ADC0_CTRLC   = 0x44;    //Reduced sample capacitor, internal reference, clock/32 => 24038sps
     bfa:	84 e4       	ldi	r24, 0x44	; 68
     bfc:	80 93 02 06 	sts	0x0602, r24	; 0x800602 <__TEXT_REGION_LENGTH__+0x700602>
    ADC0_MUXPOS  = 0x1E;    //Audio in: AIN7 at (0x07), Temperature: Internal sensor at (0x1E)
     c00:	8e e1       	ldi	r24, 0x1E	; 30
     c02:	80 93 06 06 	sts	0x0606, r24	; 0x800606 <__TEXT_REGION_LENGTH__+0x700606>
    ADC0_INTCTRL = 0x01;    //Result ready interrupt enabled
     c06:	c0 93 0a 06 	sts	0x060A, r28	; 0x80060a <__TEXT_REGION_LENGTH__+0x70060a>
    ADC0_CTRLA  |= 0x01;    //ADC0 enabled
     c0a:	80 91 00 06 	lds	r24, 0x0600	; 0x800600 <__TEXT_REGION_LENGTH__+0x700600>
     c0e:	81 60       	ori	r24, 0x01	; 1
     c10:	80 93 00 06 	sts	0x0600, r24	; 0x800600 <__TEXT_REGION_LENGTH__+0x700600>
    ADC0_COMMAND = 0x01;    //Start first conversion, after that it will run periodically.
     c14:	c0 93 08 06 	sts	0x0608, r28	; 0x800608 <__TEXT_REGION_LENGTH__+0x700608>

    //Init ADC1 (buttons and sensors: CH0=Photo transistor, CH1=Hall, CH4=Buttons)
    ADC1_CTRLA   = 0;
     c18:	10 92 40 06 	sts	0x0640, r1	; 0x800640 <__TEXT_REGION_LENGTH__+0x700640>
    ADC1_CTRLB   = 0x02;    //4 results automatically accumulated
     c1c:	d0 93 41 06 	sts	0x0641, r29	; 0x800641 <__TEXT_REGION_LENGTH__+0x700641>
    ADC1_CTRLC   = 0x52;    //Reduced sample capacitor, VDD as reference, clock/8
     c20:	82 e5       	ldi	r24, 0x52	; 82
     c22:	80 93 42 06 	sts	0x0642, r24	; 0x800642 <__TEXT_REGION_LENGTH__+0x700642>
    ADC1_SAMPCTRL= 0x04;    //Extend sampling time with 4 cycles (6 total)
     c26:	84 e0       	ldi	r24, 0x04	; 4
     c28:	80 93 45 06 	sts	0x0645, r24	; 0x800645 <__TEXT_REGION_LENGTH__+0x700645>
    ADC1_MUXPOS  = 0x04;    //Start with Buttons, for sensors, activate sensor power first.
     c2c:	80 93 46 06 	sts	0x0646, r24	; 0x800646 <__TEXT_REGION_LENGTH__+0x700646>
    ADC1_INTCTRL = 0x01;    //Result ready interrupt enabled
     c30:	c0 93 4a 06 	sts	0x064A, r28	; 0x80064a <__TEXT_REGION_LENGTH__+0x70064a>
    ADC1_CTRLA  |= 0x01;    //ADC0 enabled
     c34:	80 91 40 06 	lds	r24, 0x0640	; 0x800640 <__TEXT_REGION_LENGTH__+0x700640>
     c38:	81 60       	ori	r24, 0x01	; 1
     c3a:	80 93 40 06 	sts	0x0640, r24	; 0x800640 <__TEXT_REGION_LENGTH__+0x700640>
    ADC1_COMMAND = 0x01;    //Start single conversion
     c3e:	c0 93 48 06 	sts	0x0648, r28	; 0x800648 <__TEXT_REGION_LENGTH__+0x700648>

    //Init DAC0
    DAC0_CTRLA = 0x40;     //Enable output buffer (connect to pin)
     c42:	80 e4       	ldi	r24, 0x40	; 64
     c44:	80 93 a0 06 	sts	0x06A0, r24	; 0x8006a0 <__TEXT_REGION_LENGTH__+0x7006a0>
    DAC0_DATA = 0x80;      //Data value at half point (about 1.25V)
     c48:	80 e8       	ldi	r24, 0x80	; 128
     c4a:	80 93 a1 06 	sts	0x06A1, r24	; 0x8006a1 <__TEXT_REGION_LENGTH__+0x7006a1>
    DAC0_CTRLA |= 0x01;    //Enable DAC
     c4e:	80 91 a0 06 	lds	r24, 0x06A0	; 0x8006a0 <__TEXT_REGION_LENGTH__+0x7006a0>
     c52:	81 60       	ori	r24, 0x01	; 1
     c54:	80 93 a0 06 	sts	0x06A0, r24	; 0x8006a0 <__TEXT_REGION_LENGTH__+0x7006a0>
     
    //PIT and RTC interrupts
    while(RTC_STATUS & RTC_CTRLABUSY_bm);
     c58:	80 91 41 01 	lds	r24, 0x0141	; 0x800141 <__TEXT_REGION_LENGTH__+0x700141>
     c5c:	80 fd       	sbrc	r24, 0
     c5e:	fc cf       	rjmp	.-8      	; 0xc58 <Setup+0x15c>
    RTC_CTRLA          = (0x6)<<3;                         //Prescaler: /64
     c60:	80 e3       	ldi	r24, 0x30	; 48
     c62:	80 93 40 01 	sts	0x0140, r24	; 0x800140 <__TEXT_REGION_LENGTH__+0x700140>
    RTC_CLKSEL         = 0;                                //Clock source: internal 32768Hz clock
     c66:	10 92 47 01 	sts	0x0147, r1	; 0x800147 <__TEXT_REGION_LENGTH__+0x700147>
    while(RTC_STATUS & RTC_PERBUSY_bm);
     c6a:	80 91 41 01 	lds	r24, 0x0141	; 0x800141 <__TEXT_REGION_LENGTH__+0x700141>
     c6e:	82 fd       	sbrc	r24, 2
     c70:	fc cf       	rjmp	.-8      	; 0xc6a <Setup+0x16e>
    RTC_PER            = 512*60;                           //60 second period (for clocking how long the device has been running?)
     c72:	80 e0       	ldi	r24, 0x00	; 0
     c74:	98 e7       	ldi	r25, 0x78	; 120
     c76:	80 93 4a 01 	sts	0x014A, r24	; 0x80014a <__TEXT_REGION_LENGTH__+0x70014a>
     c7a:	90 93 4b 01 	sts	0x014B, r25	; 0x80014b <__TEXT_REGION_LENGTH__+0x70014b>
    tmp16bit = (RTC_CNT + BTN_TMR)%RTC_PER;
     c7e:	80 91 48 01 	lds	r24, 0x0148	; 0x800148 <__TEXT_REGION_LENGTH__+0x700148>
     c82:	90 91 49 01 	lds	r25, 0x0149	; 0x800149 <__TEXT_REGION_LENGTH__+0x700149>
     c86:	60 91 4a 01 	lds	r22, 0x014A	; 0x80014a <__TEXT_REGION_LENGTH__+0x70014a>
     c8a:	70 91 4b 01 	lds	r23, 0x014B	; 0x80014b <__TEXT_REGION_LENGTH__+0x70014b>
     c8e:	82 96       	adiw	r24, 0x22	; 34
     c90:	0e 94 7f 1e 	call	0x3cfe	; 0x3cfe <__udivmodhi4>
     c94:	80 93 f7 3a 	sts	0x3AF7, r24	; 0x803af7 <tmp16bit>
     c98:	90 93 f8 3a 	sts	0x3AF8, r25	; 0x803af8 <tmp16bit+0x1>
    while(RTC_STATUS & RTC_CMPBUSY_bm);
     c9c:	80 91 41 01 	lds	r24, 0x0141	; 0x800141 <__TEXT_REGION_LENGTH__+0x700141>
     ca0:	83 fd       	sbrc	r24, 3
     ca2:	fc cf       	rjmp	.-8      	; 0xc9c <Setup+0x1a0>
    RTC_CMP            = tmp16bit;                         //Button timing
     ca4:	80 91 f7 3a 	lds	r24, 0x3AF7	; 0x803af7 <tmp16bit>
     ca8:	90 91 f8 3a 	lds	r25, 0x3AF8	; 0x803af8 <tmp16bit+0x1>
     cac:	80 93 4c 01 	sts	0x014C, r24	; 0x80014c <__TEXT_REGION_LENGTH__+0x70014c>
     cb0:	90 93 4d 01 	sts	0x014D, r25	; 0x80014d <__TEXT_REGION_LENGTH__+0x70014d>
    RTC_INTCTRL        = 0x03;                             //RTC overflow interrupt enabled
     cb4:	83 e0       	ldi	r24, 0x03	; 3
     cb6:	80 93 42 01 	sts	0x0142, r24	; 0x800142 <__TEXT_REGION_LENGTH__+0x700142>
    RTC_PITINTCTRL     = 0x01;                             //PIT interrupt enabled
     cba:	81 e0       	ldi	r24, 0x01	; 1
     cbc:	80 93 52 01 	sts	0x0152, r24	; 0x800152 <__TEXT_REGION_LENGTH__+0x700152>
    RTC_PITCTRLA       = (0x1)<<3;                         //Interrupt fires after 4 RTC clock cycles Rate=(RTCCLK/(PRESC*PERIOD)) 32768/256=128Hz
     cc0:	88 e0       	ldi	r24, 0x08	; 8
     cc2:	80 93 50 01 	sts	0x0150, r24	; 0x800150 <__TEXT_REGION_LENGTH__+0x700150>
    while(RTC_STATUS & RTC_CTRLABUSY_bm);      
     cc6:	80 91 41 01 	lds	r24, 0x0141	; 0x800141 <__TEXT_REGION_LENGTH__+0x700141>
     cca:	80 fd       	sbrc	r24, 0
     ccc:	fc cf       	rjmp	.-8      	; 0xcc6 <Setup+0x1ca>
    RTC_CTRLA          |= 0x01;                            //Enable RTC
     cce:	80 91 40 01 	lds	r24, 0x0140	; 0x800140 <__TEXT_REGION_LENGTH__+0x700140>
     cd2:	81 60       	ori	r24, 0x01	; 1
     cd4:	80 93 40 01 	sts	0x0140, r24	; 0x800140 <__TEXT_REGION_LENGTH__+0x700140>
    RTC_PITCTRLA       |= 0x01;                            //Enable PIT
     cd8:	80 91 50 01 	lds	r24, 0x0150	; 0x800150 <__TEXT_REGION_LENGTH__+0x700150>
     cdc:	81 60       	ori	r24, 0x01	; 1
     cde:	80 93 50 01 	sts	0x0150, r24	; 0x800150 <__TEXT_REGION_LENGTH__+0x700150>
     
    //Other inits
    serRx[0] = 0;           // Empty Rx buffer (first char is enough)
     ce2:	10 92 75 3a 	sts	0x3A75, r1	; 0x803a75 <serRx>
    serTxAddr = &serRx[0];  // Point to first address of the Rx buffer
     ce6:	85 e7       	ldi	r24, 0x75	; 117
     ce8:	9a e3       	ldi	r25, 0x3A	; 58
     cea:	80 93 b9 3a 	sts	0x3AB9, r24	; 0x803ab9 <serTxAddr>
     cee:	90 93 ba 3a 	sts	0x3ABA, r25	; 0x803aba <serTxAddr+0x1>

    sei();
     cf2:	78 94       	sei
}
     cf4:	df 91       	pop	r29
     cf6:	cf 91       	pop	r28
     cf8:	08 95       	ret

00000cfa <__vector_8>:

// TCA0 is used for driving the LED matrix at 488Hz (* 5 columns = 2440Hz). The lower 8 bit underflow interrupt is used to load new values and shift between columns.
ISR(TCA0_LUNF_vect){
     cfa:	1f 92       	push	r1
     cfc:	0f 92       	push	r0
     cfe:	0f b6       	in	r0, 0x3f	; 63
     d00:	0f 92       	push	r0
     d02:	11 24       	eor	r1, r1
     d04:	8f 93       	push	r24
     d06:	9f 93       	push	r25
     d08:	af 93       	push	r26
     d0a:	bf 93       	push	r27
     d0c:	ef 93       	push	r30
     d0e:	ff 93       	push	r31
    //Turn off all columns
    PORTC_OUTCLR = 0x07;
     d10:	87 e0       	ldi	r24, 0x07	; 7
     d12:	80 93 46 04 	sts	0x0446, r24	; 0x800446 <__TEXT_REGION_LENGTH__+0x700446>
    PORTB_OUTCLR = 0x44;
     d16:	84 e4       	ldi	r24, 0x44	; 68
     d18:	80 93 26 04 	sts	0x0426, r24	; 0x800426 <__TEXT_REGION_LENGTH__+0x700426>
    "ldi r25, 6        \n"
    "ld r24, %a[arr]+  \n"
    "st %a[wo]+, r24   \n"
    "dec r25           \n"
    "brne .-8          \n"
    :: [wo] "e" (&TCA0_SPLIT_LCMP0), [arr] "e" (&iLED[(L_COL<<3)]) : "r25", "r24", "cc", "memory");
     d1c:	ec b3       	in	r30, 0x1c	; 28
     d1e:	88 e0       	ldi	r24, 0x08	; 8
     d20:	e8 9f       	mul	r30, r24
     d22:	f0 01       	movw	r30, r0
     d24:	11 24       	eor	r1, r1
     d26:	e6 53       	subi	r30, 0x36	; 54
     d28:	f5 4c       	sbci	r31, 0xC5	; 197
    //Turn off all columns
    PORTC_OUTCLR = 0x07;
    PORTB_OUTCLR = 0x44;

    //Write all of the compare registers of TCA0 with PWM values in array (rows)
    asm(
     d2a:	a8 e2       	ldi	r26, 0x28	; 40
     d2c:	ba e0       	ldi	r27, 0x0A	; 10
     d2e:	96 e0       	ldi	r25, 0x06	; 6
     d30:	81 91       	ld	r24, Z+
     d32:	8d 93       	st	X+, r24
     d34:	9a 95       	dec	r25
     d36:	e1 f7       	brne	.-8      	; 0xd30 <__vector_8+0x36>
    "st %a[wo]+, r24   \n"
    "dec r25           \n"
    "brne .-8          \n"
    :: [wo] "e" (&TCA0_SPLIT_LCMP0), [arr] "e" (&iLED[(L_COL<<3)]) : "r25", "r24", "cc", "memory");

    TCA0_SPLIT_CTRLESET = ((0x2)<<2)|0x3; //Sync timers: Moved this below the PWM value loading to fix the data shifting in asm above.
     d38:	8b e0       	ldi	r24, 0x0B	; 11
     d3a:	80 93 05 0a 	sts	0x0A05, r24	; 0x800a05 <__TEXT_REGION_LENGTH__+0x700a05>

    //Turn on the right column
    if (L_COL<3) {
     d3e:	8c b3       	in	r24, 0x1c	; 28
     d40:	83 30       	cpi	r24, 0x03	; 3
     d42:	58 f4       	brcc	.+22     	; 0xd5a <__vector_8+0x60>
        asm(
     d44:	8c b3       	in	r24, 0x1c	; 28
     d46:	91 e0       	ldi	r25, 0x01	; 1
     d48:	01 c0       	rjmp	.+2      	; 0xd4c <__vector_8+0x52>
     d4a:	99 0f       	add	r25, r25
     d4c:	8a 95       	dec	r24
     d4e:	ea f7       	brpl	.-6      	; 0xd4a <__vector_8+0x50>
     d50:	99 b9       	out	0x09, r25	; 9
     d52:	8c b3       	in	r24, 0x1c	; 28
     d54:	83 95       	inc	r24
     d56:	8c bb       	out	0x1c, r24	; 28
     d58:	0a c0       	rjmp	.+20     	; 0xd6e <__vector_8+0x74>
        "in r24, %[io0]  \n"
        "inc r24         \n"
        "out %[io0], r24 \n"
        :: [io0] "I" (&L_COL), [vpc] "I" (&VPORTC_OUT) : "r24", "r25", "cc");
        } else {
        asm(
     d5a:	8c b3       	in	r24, 0x1c	; 28
     d5c:	83 30       	cpi	r24, 0x03	; 3
     d5e:	21 f4       	brne	.+8      	; 0xd68 <__vector_8+0x6e>
     d60:	2a 9a       	sbi	0x05, 2	; 5
     d62:	83 95       	inc	r24
     d64:	8c bb       	out	0x1c, r24	; 28
     d66:	03 c0       	rjmp	.+6      	; 0xd6e <__vector_8+0x74>
     d68:	2e 9a       	sbi	0x05, 6	; 5
     d6a:	88 27       	eor	r24, r24
     d6c:	8c bb       	out	0x1c, r24	; 28
        "clr r24         \n"
        "out %[io0], r24 \n"
        :: [io0] "I" (&L_COL), [vpb] "I" (&VPORTB_OUT) : "r24", "cc");
    }
    
    if(timeout_I2C) --timeout_I2C;
     d6e:	80 91 60 3a 	lds	r24, 0x3A60	; 0x803a60 <timeout_I2C>
     d72:	88 23       	and	r24, r24
     d74:	29 f0       	breq	.+10     	; 0xd80 <__vector_8+0x86>
     d76:	80 91 60 3a 	lds	r24, 0x3A60	; 0x803a60 <timeout_I2C>
     d7a:	81 50       	subi	r24, 0x01	; 1
     d7c:	80 93 60 3a 	sts	0x3A60, r24	; 0x803a60 <timeout_I2C>
    TCA0_SPLIT_INTFLAGS = 0xFF;
     d80:	8f ef       	ldi	r24, 0xFF	; 255
     d82:	80 93 0b 0a 	sts	0x0A0B, r24	; 0x800a0b <__TEXT_REGION_LENGTH__+0x700a0b>
}
     d86:	ff 91       	pop	r31
     d88:	ef 91       	pop	r30
     d8a:	bf 91       	pop	r27
     d8c:	af 91       	pop	r26
     d8e:	9f 91       	pop	r25
     d90:	8f 91       	pop	r24
     d92:	0f 90       	pop	r0
     d94:	0f be       	out	0x3f, r0	; 63
     d96:	0f 90       	pop	r0
     d98:	1f 90       	pop	r1
     d9a:	18 95       	reti

00000d9c <__vector_13>:

// TCB0 is used for (slowly) sending serial characters. A 0x00 character code is needed to terminate sending or it will leak memory to serial. It's a feature, honest! 
ISR(TCB0_INT_vect){
     d9c:	1f 92       	push	r1
     d9e:	0f 92       	push	r0
     da0:	0f b6       	in	r0, 0x3f	; 63
     da2:	0f 92       	push	r0
     da4:	11 24       	eor	r1, r1
     da6:	8f 93       	push	r24
     da8:	9f 93       	push	r25
     daa:	ef 93       	push	r30
     dac:	ff 93       	push	r31
    if (*serTxAddr) {
     dae:	e0 91 b9 3a 	lds	r30, 0x3AB9	; 0x803ab9 <serTxAddr>
     db2:	f0 91 ba 3a 	lds	r31, 0x3ABA	; 0x803aba <serTxAddr+0x1>
     db6:	80 81       	ld	r24, Z
     db8:	88 23       	and	r24, r24
     dba:	91 f0       	breq	.+36     	; 0xde0 <__vector_13+0x44>
        USART0_TXDATAL = *serTxAddr;
     dbc:	80 81       	ld	r24, Z
     dbe:	80 93 02 08 	sts	0x0802, r24	; 0x800802 <__TEXT_REGION_LENGTH__+0x700802>
        serTxAddr++;
     dc2:	80 91 b9 3a 	lds	r24, 0x3AB9	; 0x803ab9 <serTxAddr>
     dc6:	90 91 ba 3a 	lds	r25, 0x3ABA	; 0x803aba <serTxAddr+0x1>
     dca:	01 96       	adiw	r24, 0x01	; 1
     dcc:	80 93 b9 3a 	sts	0x3AB9, r24	; 0x803ab9 <serTxAddr>
     dd0:	90 93 ba 3a 	sts	0x3ABA, r25	; 0x803aba <serTxAddr+0x1>
        USART0_CTRLA |= USART_DREIE_bm;
     dd4:	80 91 05 08 	lds	r24, 0x0805	; 0x800805 <__TEXT_REGION_LENGTH__+0x700805>
     dd8:	80 62       	ori	r24, 0x20	; 32
     dda:	80 93 05 08 	sts	0x0805, r24	; 0x800805 <__TEXT_REGION_LENGTH__+0x700805>
     dde:	05 c0       	rjmp	.+10     	; 0xdea <__vector_13+0x4e>
    } else {
        serTxDone = 1;
     de0:	81 e0       	ldi	r24, 0x01	; 1
     de2:	80 93 0a 38 	sts	0x380A, r24	; 0x80380a <serTxDone>
        TCB0_INTCTRL = 0x00;
     de6:	10 92 45 0a 	sts	0x0A45, r1	; 0x800a45 <__TEXT_REGION_LENGTH__+0x700a45>
    }
    TCB0_INTFLAGS = TCB_CAPT_bm;
     dea:	81 e0       	ldi	r24, 0x01	; 1
     dec:	80 93 46 0a 	sts	0x0A46, r24	; 0x800a46 <__TEXT_REGION_LENGTH__+0x700a46>
}
     df0:	ff 91       	pop	r31
     df2:	ef 91       	pop	r30
     df4:	9f 91       	pop	r25
     df6:	8f 91       	pop	r24
     df8:	0f 90       	pop	r0
     dfa:	0f be       	out	0x3f, r0	; 63
     dfc:	0f 90       	pop	r0
     dfe:	1f 90       	pop	r1
     e00:	18 95       	reti

00000e02 <__vector_14>:

// TCB1 is used for audio generation. Keeps playing "data" until 0 is reached. Audio sample data can contain 0x01 to 0xFF, centered around 0x80
ISR(TCB1_INT_vect){
     e02:	1f 92       	push	r1
     e04:	0f 92       	push	r0
     e06:	0f b6       	in	r0, 0x3f	; 63
     e08:	0f 92       	push	r0
     e0a:	11 24       	eor	r1, r1
     e0c:	2f 93       	push	r18
     e0e:	3f 93       	push	r19
     e10:	4f 93       	push	r20
     e12:	8f 93       	push	r24
     e14:	9f 93       	push	r25
     e16:	ef 93       	push	r30
     e18:	ff 93       	push	r31
    int16_t volCtrl;
    if (*auSmpAddr == 0) auSmpAddr = auRepAddr;
     e1a:	e0 91 07 38 	lds	r30, 0x3807	; 0x803807 <auSmpAddr>
     e1e:	f0 91 08 38 	lds	r31, 0x3808	; 0x803808 <auSmpAddr+0x1>
     e22:	80 81       	ld	r24, Z
     e24:	81 11       	cpse	r24, r1
     e26:	08 c0       	rjmp	.+16     	; 0xe38 <__vector_14+0x36>
     e28:	80 91 05 38 	lds	r24, 0x3805	; 0x803805 <auRepAddr>
     e2c:	90 91 06 38 	lds	r25, 0x3806	; 0x803806 <auRepAddr+0x1>
     e30:	80 93 07 38 	sts	0x3807, r24	; 0x803807 <auSmpAddr>
     e34:	90 93 08 38 	sts	0x3808, r25	; 0x803808 <auSmpAddr+0x1>
    if (*auSmpAddr) {
     e38:	e0 91 07 38 	lds	r30, 0x3807	; 0x803807 <auSmpAddr>
     e3c:	f0 91 08 38 	lds	r31, 0x3808	; 0x803808 <auSmpAddr+0x1>
     e40:	80 81       	ld	r24, Z
     e42:	88 23       	and	r24, r24
     e44:	e1 f0       	breq	.+56     	; 0xe7e <__vector_14+0x7c>
        volCtrl = ((((int16_t)(*auSmpAddr) - 0x7f) * auVolume) >> 8) + 0x80;
     e46:	20 81       	ld	r18, Z
     e48:	40 91 b6 3a 	lds	r20, 0x3AB6	; 0x803ab6 <auVolume>
        DAC0_DATA = (uint8_t)(volCtrl);
     e4c:	30 e0       	ldi	r19, 0x00	; 0
     e4e:	2f 57       	subi	r18, 0x7F	; 127
     e50:	31 09       	sbc	r19, r1
     e52:	42 9f       	mul	r20, r18
     e54:	c0 01       	movw	r24, r0
     e56:	43 9f       	mul	r20, r19
     e58:	90 0d       	add	r25, r0
     e5a:	11 24       	eor	r1, r1
     e5c:	89 2f       	mov	r24, r25
     e5e:	99 0f       	add	r25, r25
     e60:	99 0b       	sbc	r25, r25
     e62:	80 58       	subi	r24, 0x80	; 128
     e64:	9f 4f       	sbci	r25, 0xFF	; 255
     e66:	80 93 a1 06 	sts	0x06A1, r24	; 0x8006a1 <__TEXT_REGION_LENGTH__+0x7006a1>
        ++auSmpAddr;
     e6a:	80 91 07 38 	lds	r24, 0x3807	; 0x803807 <auSmpAddr>
     e6e:	90 91 08 38 	lds	r25, 0x3808	; 0x803808 <auSmpAddr+0x1>
     e72:	01 96       	adiw	r24, 0x01	; 1
     e74:	80 93 07 38 	sts	0x3807, r24	; 0x803807 <auSmpAddr>
     e78:	90 93 08 38 	sts	0x3808, r25	; 0x803808 <auSmpAddr+0x1>
     e7c:	06 c0       	rjmp	.+12     	; 0xe8a <__vector_14+0x88>
    } else {
        DAC0_DATA = 0x80;
     e7e:	80 e8       	ldi	r24, 0x80	; 128
     e80:	80 93 a1 06 	sts	0x06A1, r24	; 0x8006a1 <__TEXT_REGION_LENGTH__+0x7006a1>
        auPlayDone = 1;
     e84:	81 e0       	ldi	r24, 0x01	; 1
     e86:	80 93 f2 3a 	sts	0x3AF2, r24	; 0x803af2 <auPlayDone>
    }
    TCB1_INTFLAGS = TCB_CAPT_bm;
     e8a:	81 e0       	ldi	r24, 0x01	; 1
     e8c:	80 93 56 0a 	sts	0x0A56, r24	; 0x800a56 <__TEXT_REGION_LENGTH__+0x700a56>
}
     e90:	ff 91       	pop	r31
     e92:	ef 91       	pop	r30
     e94:	9f 91       	pop	r25
     e96:	8f 91       	pop	r24
     e98:	4f 91       	pop	r20
     e9a:	3f 91       	pop	r19
     e9c:	2f 91       	pop	r18
     e9e:	0f 90       	pop	r0
     ea0:	0f be       	out	0x3f, r0	; 63
     ea2:	0f 90       	pop	r0
     ea4:	1f 90       	pop	r1
     ea6:	18 95       	reti

00000ea8 <__vector_27>:

// Reads up to RXLEN characters until LF is found, LF sets the serRxDone flag and writes 0 instead of LF.
ISR(USART0_RXC_vect){
     ea8:	1f 92       	push	r1
     eaa:	0f 92       	push	r0
     eac:	0f b6       	in	r0, 0x3f	; 63
     eae:	0f 92       	push	r0
     eb0:	11 24       	eor	r1, r1
     eb2:	8f 93       	push	r24
     eb4:	ef 93       	push	r30
     eb6:	ff 93       	push	r31
    if (serRxDone == 0){
     eb8:	80 91 44 38 	lds	r24, 0x3844	; 0x803844 <serRxDone>
     ebc:	81 11       	cpse	r24, r1
     ebe:	44 c0       	rjmp	.+136    	; 0xf48 <__vector_27+0xa0>
        serRx[RXCNT] = USART0.RXDATAL;
     ec0:	ed b3       	in	r30, 0x1d	; 29
     ec2:	f0 e0       	ldi	r31, 0x00	; 0
     ec4:	80 91 00 08 	lds	r24, 0x0800	; 0x800800 <__TEXT_REGION_LENGTH__+0x700800>
     ec8:	eb 58       	subi	r30, 0x8B	; 139
     eca:	f5 4c       	sbci	r31, 0xC5	; 197
     ecc:	80 83       	st	Z, r24
        USART0_TXDATAL = serRx[RXCNT];
     ece:	ed b3       	in	r30, 0x1d	; 29
     ed0:	f0 e0       	ldi	r31, 0x00	; 0
     ed2:	eb 58       	subi	r30, 0x8B	; 139
     ed4:	f5 4c       	sbci	r31, 0xC5	; 197
     ed6:	80 81       	ld	r24, Z
     ed8:	80 93 02 08 	sts	0x0802, r24	; 0x800802 <__TEXT_REGION_LENGTH__+0x700802>
        if ((serRx[RXCNT] == 0x0A)||(serRx[RXCNT] == 0x0D)){
     edc:	ed b3       	in	r30, 0x1d	; 29
     ede:	f0 e0       	ldi	r31, 0x00	; 0
     ee0:	eb 58       	subi	r30, 0x8B	; 139
     ee2:	f5 4c       	sbci	r31, 0xC5	; 197
     ee4:	80 81       	ld	r24, Z
     ee6:	8a 30       	cpi	r24, 0x0A	; 10
     ee8:	39 f0       	breq	.+14     	; 0xef8 <__vector_27+0x50>
     eea:	ed b3       	in	r30, 0x1d	; 29
     eec:	f0 e0       	ldi	r31, 0x00	; 0
     eee:	eb 58       	subi	r30, 0x8B	; 139
     ef0:	f5 4c       	sbci	r31, 0xC5	; 197
     ef2:	80 81       	ld	r24, Z
     ef4:	8d 30       	cpi	r24, 0x0D	; 13
     ef6:	49 f4       	brne	.+18     	; 0xf0a <__vector_27+0x62>
            serRx[RXCNT] = 0;
     ef8:	ed b3       	in	r30, 0x1d	; 29
     efa:	f0 e0       	ldi	r31, 0x00	; 0
     efc:	eb 58       	subi	r30, 0x8B	; 139
     efe:	f5 4c       	sbci	r31, 0xC5	; 197
     f00:	10 82       	st	Z, r1
            serRxDone = 1;
     f02:	81 e0       	ldi	r24, 0x01	; 1
     f04:	80 93 44 38 	sts	0x3844, r24	; 0x803844 <serRxDone>
     f08:	1f c0       	rjmp	.+62     	; 0xf48 <__vector_27+0xa0>
        } else if (((serRx[RXCNT] == 0x08)||(serRx[RXCNT] == 0x7F))&&(RXCNT > 0)) {
     f0a:	ed b3       	in	r30, 0x1d	; 29
     f0c:	f0 e0       	ldi	r31, 0x00	; 0
     f0e:	eb 58       	subi	r30, 0x8B	; 139
     f10:	f5 4c       	sbci	r31, 0xC5	; 197
     f12:	80 81       	ld	r24, Z
     f14:	88 30       	cpi	r24, 0x08	; 8
     f16:	39 f0       	breq	.+14     	; 0xf26 <__vector_27+0x7e>
     f18:	ed b3       	in	r30, 0x1d	; 29
     f1a:	f0 e0       	ldi	r31, 0x00	; 0
     f1c:	eb 58       	subi	r30, 0x8B	; 139
     f1e:	f5 4c       	sbci	r31, 0xC5	; 197
     f20:	80 81       	ld	r24, Z
     f22:	8f 37       	cpi	r24, 0x7F	; 127
     f24:	59 f4       	brne	.+22     	; 0xf3c <__vector_27+0x94>
     f26:	8d b3       	in	r24, 0x1d	; 29
     f28:	88 23       	and	r24, r24
     f2a:	41 f0       	breq	.+16     	; 0xf3c <__vector_27+0x94>
            serRx[RXCNT] = 0;
     f2c:	ed b3       	in	r30, 0x1d	; 29
     f2e:	f0 e0       	ldi	r31, 0x00	; 0
     f30:	eb 58       	subi	r30, 0x8B	; 139
     f32:	f5 4c       	sbci	r31, 0xC5	; 197
     f34:	10 82       	st	Z, r1
            --RXCNT;
     f36:	8d b3       	in	r24, 0x1d	; 29
     f38:	81 50       	subi	r24, 0x01	; 1
     f3a:	05 c0       	rjmp	.+10     	; 0xf46 <__vector_27+0x9e>
        } else if (RXCNT < (RXLEN-1)) ++RXCNT;
     f3c:	8d b3       	in	r24, 0x1d	; 29
     f3e:	80 34       	cpi	r24, 0x40	; 64
     f40:	18 f4       	brcc	.+6      	; 0xf48 <__vector_27+0xa0>
     f42:	8d b3       	in	r24, 0x1d	; 29
     f44:	8f 5f       	subi	r24, 0xFF	; 255
     f46:	8d bb       	out	0x1d, r24	; 29
    }
    USART0_STATUS = USART_RXCIF_bm;
     f48:	80 e8       	ldi	r24, 0x80	; 128
     f4a:	80 93 04 08 	sts	0x0804, r24	; 0x800804 <__TEXT_REGION_LENGTH__+0x700804>
};
     f4e:	ff 91       	pop	r31
     f50:	ef 91       	pop	r30
     f52:	8f 91       	pop	r24
     f54:	0f 90       	pop	r0
     f56:	0f be       	out	0x3f, r0	; 63
     f58:	0f 90       	pop	r0
     f5a:	1f 90       	pop	r1
     f5c:	18 95       	reti

00000f5e <__vector_28>:

// Trigger new data write and turn off DRE interrupt.
ISR(USART0_DRE_vect){
     f5e:	1f 92       	push	r1
     f60:	0f 92       	push	r0
     f62:	0f b6       	in	r0, 0x3f	; 63
     f64:	0f 92       	push	r0
     f66:	11 24       	eor	r1, r1
     f68:	8f 93       	push	r24
     f6a:	ef 93       	push	r30
     f6c:	ff 93       	push	r31
    TCB0_CNT = 0;
     f6e:	10 92 4a 0a 	sts	0x0A4A, r1	; 0x800a4a <__TEXT_REGION_LENGTH__+0x700a4a>
     f72:	10 92 4b 0a 	sts	0x0A4B, r1	; 0x800a4b <__TEXT_REGION_LENGTH__+0x700a4b>
    TCB0_INTCTRL = 0x01;
     f76:	81 e0       	ldi	r24, 0x01	; 1
     f78:	80 93 45 0a 	sts	0x0A45, r24	; 0x800a45 <__TEXT_REGION_LENGTH__+0x700a45>
    USART0_CTRLA &= ~(USART_DREIE_bm);
     f7c:	e5 e0       	ldi	r30, 0x05	; 5
     f7e:	f8 e0       	ldi	r31, 0x08	; 8
     f80:	80 81       	ld	r24, Z
     f82:	8f 7d       	andi	r24, 0xDF	; 223
     f84:	80 83       	st	Z, r24
};
     f86:	ff 91       	pop	r31
     f88:	ef 91       	pop	r30
     f8a:	8f 91       	pop	r24
     f8c:	0f 90       	pop	r0
     f8e:	0f be       	out	0x3f, r0	; 63
     f90:	0f 90       	pop	r0
     f92:	1f 90       	pop	r1
     f94:	18 95       	reti

00000f96 <__vector_20>:

// ADC used for audio input and temperature sensor.
ISR(ADC0_RESRDY_vect){
     f96:	1f 92       	push	r1
     f98:	0f 92       	push	r0
     f9a:	0f b6       	in	r0, 0x3f	; 63
     f9c:	0f 92       	push	r0
     f9e:	11 24       	eor	r1, r1
     fa0:	8f 93       	push	r24
     fa2:	9f 93       	push	r25
     fa4:	ef 93       	push	r30
     fa6:	ff 93       	push	r31
    //If just switched reference, discard first few samples
    if (adc0Chg == 0){
     fa8:	80 91 37 38 	lds	r24, 0x3837	; 0x803837 <adc0Chg>
     fac:	81 11       	cpse	r24, r1
     fae:	19 c0       	rjmp	.+50     	; 0xfe2 <__vector_20+0x4c>
        AUPOS = (AUPOS+1)&(AULEN-1);
     fb0:	8e b3       	in	r24, 0x1e	; 30
     fb2:	8f 5f       	subi	r24, 0xFF	; 255
     fb4:	87 70       	andi	r24, 0x07	; 7
     fb6:	8e bb       	out	0x1e, r24	; 30
        if (ADC0_MUXPOS == 0x1E) adcTemp = ADC0_RES; else auIn[AUPOS]=ADC0_RESL;
     fb8:	80 91 06 06 	lds	r24, 0x0606	; 0x800606 <__TEXT_REGION_LENGTH__+0x700606>
     fbc:	8e 31       	cpi	r24, 0x1E	; 30
     fbe:	49 f4       	brne	.+18     	; 0xfd2 <__vector_20+0x3c>
     fc0:	80 91 10 06 	lds	r24, 0x0610	; 0x800610 <__TEXT_REGION_LENGTH__+0x700610>
     fc4:	90 91 11 06 	lds	r25, 0x0611	; 0x800611 <__TEXT_REGION_LENGTH__+0x700611>
     fc8:	80 93 f5 3a 	sts	0x3AF5, r24	; 0x803af5 <adcTemp>
     fcc:	90 93 f6 3a 	sts	0x3AF6, r25	; 0x803af6 <adcTemp+0x1>
     fd0:	0d c0       	rjmp	.+26     	; 0xfec <__vector_20+0x56>
     fd2:	ee b3       	in	r30, 0x1e	; 30
     fd4:	f0 e0       	ldi	r31, 0x00	; 0
     fd6:	80 91 10 06 	lds	r24, 0x0610	; 0x800610 <__TEXT_REGION_LENGTH__+0x700610>
     fda:	ee 53       	subi	r30, 0x3E	; 62
     fdc:	f5 4c       	sbci	r31, 0xC5	; 197
     fde:	80 83       	st	Z, r24
     fe0:	05 c0       	rjmp	.+10     	; 0xfec <__vector_20+0x56>
    } else --adc0Chg;
     fe2:	80 91 37 38 	lds	r24, 0x3837	; 0x803837 <adc0Chg>
     fe6:	81 50       	subi	r24, 0x01	; 1
     fe8:	80 93 37 38 	sts	0x3837, r24	; 0x803837 <adc0Chg>
    ADC0_INTFLAGS = ADC_RESRDY_bm;
     fec:	81 e0       	ldi	r24, 0x01	; 1
     fee:	80 93 0b 06 	sts	0x060B, r24	; 0x80060b <__TEXT_REGION_LENGTH__+0x70060b>
}
     ff2:	ff 91       	pop	r31
     ff4:	ef 91       	pop	r30
     ff6:	9f 91       	pop	r25
     ff8:	8f 91       	pop	r24
     ffa:	0f 90       	pop	r0
     ffc:	0f be       	out	0x3f, r0	; 63
     ffe:	0f 90       	pop	r0
    1000:	1f 90       	pop	r1
    1002:	18 95       	reti

00001004 <__vector_22>:

// Reads out sensors at 8Hz and buttons at 42Hz (timed by PIT), power for the sensors is on 1/8th of the time to save power.
ISR(ADC1_RESRDY_vect){
    1004:	1f 92       	push	r1
    1006:	0f 92       	push	r0
    1008:	0f b6       	in	r0, 0x3f	; 63
    100a:	0f 92       	push	r0
    100c:	11 24       	eor	r1, r1
    100e:	8f 93       	push	r24
    1010:	9f 93       	push	r25
    if (ADC1_MUXPOS == 0) {
    1012:	80 91 46 06 	lds	r24, 0x0646	; 0x800646 <__TEXT_REGION_LENGTH__+0x700646>
    1016:	81 11       	cpse	r24, r1
    1018:	0a c0       	rjmp	.+20     	; 0x102e <__vector_22+0x2a>
        adcPhot = ADC1_RES;
    101a:	80 91 50 06 	lds	r24, 0x0650	; 0x800650 <__TEXT_REGION_LENGTH__+0x700650>
    101e:	90 91 51 06 	lds	r25, 0x0651	; 0x800651 <__TEXT_REGION_LENGTH__+0x700651>
    1022:	80 93 bd 3a 	sts	0x3ABD, r24	; 0x803abd <adcPhot>
    1026:	90 93 be 3a 	sts	0x3ABE, r25	; 0x803abe <adcPhot+0x1>
        ADC1_MUXPOS = 0x01;             //Select Hall sensor
    102a:	81 e0       	ldi	r24, 0x01	; 1
    102c:	10 c0       	rjmp	.+32     	; 0x104e <__vector_22+0x4a>
    } else if (ADC1_MUXPOS == 1){
    102e:	80 91 46 06 	lds	r24, 0x0646	; 0x800646 <__TEXT_REGION_LENGTH__+0x700646>
    1032:	81 30       	cpi	r24, 0x01	; 1
    1034:	79 f4       	brne	.+30     	; 0x1054 <__vector_22+0x50>
        PORTA_OUTCLR = 0b00001000;      //Turn off sensor power
    1036:	88 e0       	ldi	r24, 0x08	; 8
    1038:	80 93 06 04 	sts	0x0406, r24	; 0x800406 <__TEXT_REGION_LENGTH__+0x700406>
        adcHall = ADC1_RES;
    103c:	80 91 50 06 	lds	r24, 0x0650	; 0x800650 <__TEXT_REGION_LENGTH__+0x700650>
    1040:	90 91 51 06 	lds	r25, 0x0651	; 0x800651 <__TEXT_REGION_LENGTH__+0x700651>
    1044:	80 93 bb 3a 	sts	0x3ABB, r24	; 0x803abb <adcHall>
    1048:	90 93 bc 3a 	sts	0x3ABC, r25	; 0x803abc <adcHall+0x1>
        ADC1_MUXPOS = 0x04;             //select buttons
    104c:	84 e0       	ldi	r24, 0x04	; 4
    104e:	80 93 46 06 	sts	0x0646, r24	; 0x800646 <__TEXT_REGION_LENGTH__+0x700646>
    1052:	10 c0       	rjmp	.+32     	; 0x1074 <__vector_22+0x70>
    } else {
        adcBtns = ADC1_RES;
    1054:	80 91 50 06 	lds	r24, 0x0650	; 0x800650 <__TEXT_REGION_LENGTH__+0x700650>
    1058:	90 91 51 06 	lds	r25, 0x0651	; 0x800651 <__TEXT_REGION_LENGTH__+0x700651>
    105c:	80 93 b7 3a 	sts	0x3AB7, r24	; 0x803ab7 <adcBtns>
    1060:	90 93 b8 3a 	sts	0x3AB8, r25	; 0x803ab8 <adcBtns+0x1>
        if (A1CNT == 15){
    1064:	8f b3       	in	r24, 0x1f	; 31
    1066:	8f 30       	cpi	r24, 0x0F	; 15
    1068:	29 f4       	brne	.+10     	; 0x1074 <__vector_22+0x70>
            ADC1_MUXPOS = 0x00;         //Select photo transistor
    106a:	10 92 46 06 	sts	0x0646, r1	; 0x800646 <__TEXT_REGION_LENGTH__+0x700646>
            PORTA_OUTSET = 0b00001000;  //Turn on sensor power
    106e:	88 e0       	ldi	r24, 0x08	; 8
    1070:	80 93 05 04 	sts	0x0405, r24	; 0x800405 <__TEXT_REGION_LENGTH__+0x700405>
        }
    }

    A1CNT=(A1CNT+1)%16;        
    1074:	8f b3       	in	r24, 0x1f	; 31
    1076:	90 e0       	ldi	r25, 0x00	; 0
    1078:	01 96       	adiw	r24, 0x01	; 1
    107a:	8f 70       	andi	r24, 0x0F	; 15
    107c:	99 27       	eor	r25, r25
    107e:	8f bb       	out	0x1f, r24	; 31
    ADC1_INTFLAGS = ADC_RESRDY_bm;
    1080:	81 e0       	ldi	r24, 0x01	; 1
    1082:	80 93 4b 06 	sts	0x064B, r24	; 0x80064b <__TEXT_REGION_LENGTH__+0x70064b>
}
    1086:	9f 91       	pop	r25
    1088:	8f 91       	pop	r24
    108a:	0f 90       	pop	r0
    108c:	0f be       	out	0x3f, r0	; 63
    108e:	0f 90       	pop	r0
    1090:	1f 90       	pop	r1
    1092:	18 95       	reti

00001094 <__vector_6>:

// RTC compare interrupt, triggers at 512/BTN_TMR rate, also RTC overflow interrupt, triggers once a minute
ISR(RTC_CNT_vect) {
    1094:	1f 92       	push	r1
    1096:	0f 92       	push	r0
    1098:	0f b6       	in	r0, 0x3f	; 63
    109a:	0f 92       	push	r0
    109c:	11 24       	eor	r1, r1
    109e:	5f 93       	push	r21
    10a0:	6f 93       	push	r22
    10a2:	7f 93       	push	r23
    10a4:	8f 93       	push	r24
    10a6:	9f 93       	push	r25
    10a8:	af 93       	push	r26
    10aa:	bf 93       	push	r27
    if (RTC_INTFLAGS & RTC_CMP_bm){
    10ac:	80 91 43 01 	lds	r24, 0x0143	; 0x800143 <__TEXT_REGION_LENGTH__+0x700143>
    10b0:	81 ff       	sbrs	r24, 1
    10b2:	26 c0       	rjmp	.+76     	; 0x1100 <__vector_6+0x6c>
        if (buttonMark<0xff) buttonMark++;   // For button timing purposes
    10b4:	80 91 42 38 	lds	r24, 0x3842	; 0x803842 <buttonMark>
    10b8:	8f 3f       	cpi	r24, 0xFF	; 255
    10ba:	29 f0       	breq	.+10     	; 0x10c6 <__vector_6+0x32>
    10bc:	80 91 42 38 	lds	r24, 0x3842	; 0x803842 <buttonMark>
    10c0:	8f 5f       	subi	r24, 0xFF	; 255
    10c2:	80 93 42 38 	sts	0x3842, r24	; 0x803842 <buttonMark>
        tmp16bit = (RTC_CNT + BTN_TMR)%RTC_PER;
    10c6:	80 91 48 01 	lds	r24, 0x0148	; 0x800148 <__TEXT_REGION_LENGTH__+0x700148>
    10ca:	90 91 49 01 	lds	r25, 0x0149	; 0x800149 <__TEXT_REGION_LENGTH__+0x700149>
    10ce:	60 91 4a 01 	lds	r22, 0x014A	; 0x80014a <__TEXT_REGION_LENGTH__+0x70014a>
    10d2:	70 91 4b 01 	lds	r23, 0x014B	; 0x80014b <__TEXT_REGION_LENGTH__+0x70014b>
    10d6:	82 96       	adiw	r24, 0x22	; 34
    10d8:	0e 94 7f 1e 	call	0x3cfe	; 0x3cfe <__udivmodhi4>
    10dc:	80 93 f7 3a 	sts	0x3AF7, r24	; 0x803af7 <tmp16bit>
    10e0:	90 93 f8 3a 	sts	0x3AF8, r25	; 0x803af8 <tmp16bit+0x1>
        while(RTC_STATUS & RTC_CMPBUSY_bm);
    10e4:	80 91 41 01 	lds	r24, 0x0141	; 0x800141 <__TEXT_REGION_LENGTH__+0x700141>
    10e8:	83 fd       	sbrc	r24, 3
    10ea:	fc cf       	rjmp	.-8      	; 0x10e4 <__vector_6+0x50>
        RTC_CMP = tmp16bit;                 // Button timing: next interrupt set
    10ec:	80 91 f7 3a 	lds	r24, 0x3AF7	; 0x803af7 <tmp16bit>
    10f0:	90 91 f8 3a 	lds	r25, 0x3AF8	; 0x803af8 <tmp16bit+0x1>
    10f4:	80 93 4c 01 	sts	0x014C, r24	; 0x80014c <__TEXT_REGION_LENGTH__+0x70014c>
    10f8:	90 93 4d 01 	sts	0x014D, r25	; 0x80014d <__TEXT_REGION_LENGTH__+0x70014d>
        RTC_INTFLAGS = RTC_CMP_bm;		    // clear interrupt flag
    10fc:	82 e0       	ldi	r24, 0x02	; 2
    10fe:	06 c0       	rjmp	.+12     	; 0x110c <__vector_6+0x78>
    } else {
        minuteMark++;                       // For very slow timing purposes, overflows to 0
    1100:	80 91 43 38 	lds	r24, 0x3843	; 0x803843 <minuteMark>
    1104:	8f 5f       	subi	r24, 0xFF	; 255
    1106:	80 93 43 38 	sts	0x3843, r24	; 0x803843 <minuteMark>
        RTC_INTFLAGS = RTC_OVF_bm;		    // clear interrupt flag
    110a:	81 e0       	ldi	r24, 0x01	; 1
    110c:	80 93 43 01 	sts	0x0143, r24	; 0x800143 <__TEXT_REGION_LENGTH__+0x700143>
    }
}
    1110:	bf 91       	pop	r27
    1112:	af 91       	pop	r26
    1114:	9f 91       	pop	r25
    1116:	8f 91       	pop	r24
    1118:	7f 91       	pop	r23
    111a:	6f 91       	pop	r22
    111c:	5f 91       	pop	r21
    111e:	0f 90       	pop	r0
    1120:	0f be       	out	0x3f, r0	; 63
    1122:	0f 90       	pop	r0
    1124:	1f 90       	pop	r1
    1126:	18 95       	reti

00001128 <__vector_7>:

// PIT interrupt (timing of ADC1: sensor values)
ISR(RTC_PIT_vect) {						// PIT interrupt handling code
    1128:	1f 92       	push	r1
    112a:	0f 92       	push	r0
    112c:	0f b6       	in	r0, 0x3f	; 63
    112e:	0f 92       	push	r0
    1130:	11 24       	eor	r1, r1
    1132:	8f 93       	push	r24
    ADC1_COMMAND = 0x01;
    1134:	81 e0       	ldi	r24, 0x01	; 1
    1136:	80 93 48 06 	sts	0x0648, r24	; 0x800648 <__TEXT_REGION_LENGTH__+0x700648>
    RTC_PITINTFLAGS = RTC_PI_bm;		// clear interrupt flag
    113a:	80 93 53 01 	sts	0x0153, r24	; 0x800153 <__TEXT_REGION_LENGTH__+0x700153>
}
    113e:	8f 91       	pop	r24
    1140:	0f 90       	pop	r0
    1142:	0f be       	out	0x3f, r0	; 63
    1144:	0f 90       	pop	r0
    1146:	1f 90       	pop	r1
    1148:	18 95       	reti

0000114a <EERead>:

// Read bytes from EEPROM
void EERead(uint8_t eeAddr, uint8_t *eeValues, uint8_t size)
{
    while(NVMCTRL_STATUS & NVMCTRL_EEBUSY_bm);              // Wait until any write operation has finished
    114a:	90 91 02 10 	lds	r25, 0x1002	; 0x801002 <__TEXT_REGION_LENGTH__+0x701002>
    114e:	91 fd       	sbrc	r25, 1
    1150:	fc cf       	rjmp	.-8      	; 0x114a <EERead>
    1152:	fb 01       	movw	r30, r22
    1154:	48 0f       	add	r20, r24

    while(size){
    1156:	84 17       	cp	r24, r20
    1158:	39 f0       	breq	.+14     	; 0x1168 <EERead+0x1e>
        *eeValues++ = *(uint8_t *)(EEPROM_START+eeAddr++);  // Read data from buffer
    115a:	a8 2f       	mov	r26, r24
    115c:	b0 e0       	ldi	r27, 0x00	; 0
    115e:	bc 5e       	subi	r27, 0xEC	; 236
    1160:	9c 91       	ld	r25, X
    1162:	91 93       	st	Z+, r25
    1164:	8f 5f       	subi	r24, 0xFF	; 255
    1166:	f7 cf       	rjmp	.-18     	; 0x1156 <EERead+0xc>
        --size;
    }
}
    1168:	08 95       	ret

0000116a <EEWrite>:
{
    uint8_t lastByteOfPage;
    while(size){
        lastByteOfPage = 0;
        while(NVMCTRL_STATUS & NVMCTRL_EEBUSY_bm);              // Wait until any write operation has finished
        CCP = CCP_SPM_gc;                                       // Gain access to NVMCTRL_CTRLA
    116a:	9d e9       	ldi	r25, 0x9D	; 157
        NVMCTRL_CTRLA = NVMCTRL_CMD_PAGEBUFCLR_gc;              // Clear page buffer
    116c:	24 e0       	ldi	r18, 0x04	; 4
            if ((eeAddr % EEPROM_PAGE_SIZE) == (EEPROM_PAGE_SIZE-1)) lastByteOfPage = 1;
            *(uint8_t *)(EEPROM_START+eeAddr++) = *eeValues++;  // Write data to buffer
            --size;
        }
        CCP = CCP_SPM_gc;
        NVMCTRL_CTRLA = NVMCTRL_CMD_PAGEERASEWRITE_gc;          // Erase old data and write new data to EEPROM
    116e:	33 e0       	ldi	r19, 0x03	; 3

// Write bytes to the EEPROM, if address exceeds EEPROM space data wraps around
uint8_t EEWrite(uint8_t eeAddr, uint8_t *eeValues, uint8_t size)
{
    uint8_t lastByteOfPage;
    while(size){
    1170:	44 23       	and	r20, r20
    1172:	09 f1       	breq	.+66     	; 0x11b6 <EEWrite+0x4c>
        lastByteOfPage = 0;
        while(NVMCTRL_STATUS & NVMCTRL_EEBUSY_bm);              // Wait until any write operation has finished
    1174:	50 91 02 10 	lds	r21, 0x1002	; 0x801002 <__TEXT_REGION_LENGTH__+0x701002>
    1178:	51 fd       	sbrc	r21, 1
    117a:	fc cf       	rjmp	.-8      	; 0x1174 <EEWrite+0xa>
        CCP = CCP_SPM_gc;                                       // Gain access to NVMCTRL_CTRLA
    117c:	94 bf       	out	0x34, r25	; 52
        NVMCTRL_CTRLA = NVMCTRL_CMD_PAGEBUFCLR_gc;              // Clear page buffer
    117e:	20 93 00 10 	sts	0x1000, r18	; 0x801000 <__TEXT_REGION_LENGTH__+0x701000>
    1182:	e8 2f       	mov	r30, r24
        while((size) && (lastByteOfPage == 0)){
            if ((eeAddr % EEPROM_PAGE_SIZE) == (EEPROM_PAGE_SIZE-1)) lastByteOfPage = 1;
    1184:	58 2f       	mov	r21, r24
    1186:	5f 71       	andi	r21, 0x1F	; 31
            *(uint8_t *)(EEPROM_START+eeAddr++) = *eeValues++;  // Write data to buffer
    1188:	8f 5f       	subi	r24, 0xFF	; 255
    118a:	6f 5f       	subi	r22, 0xFF	; 255
    118c:	7f 4f       	sbci	r23, 0xFF	; 255
    118e:	db 01       	movw	r26, r22
    1190:	11 97       	sbiw	r26, 0x01	; 1
    1192:	ac 91       	ld	r26, X
    1194:	f0 e0       	ldi	r31, 0x00	; 0
    1196:	fc 5e       	subi	r31, 0xEC	; 236
    1198:	a0 83       	st	Z, r26
            --size;
    119a:	41 50       	subi	r20, 0x01	; 1
    while(size){
        lastByteOfPage = 0;
        while(NVMCTRL_STATUS & NVMCTRL_EEBUSY_bm);              // Wait until any write operation has finished
        CCP = CCP_SPM_gc;                                       // Gain access to NVMCTRL_CTRLA
        NVMCTRL_CTRLA = NVMCTRL_CMD_PAGEBUFCLR_gc;              // Clear page buffer
        while((size) && (lastByteOfPage == 0)){
    119c:	19 f0       	breq	.+6      	; 0x11a4 <EEWrite+0x3a>
            if ((eeAddr % EEPROM_PAGE_SIZE) == (EEPROM_PAGE_SIZE-1)) lastByteOfPage = 1;
            *(uint8_t *)(EEPROM_START+eeAddr++) = *eeValues++;  // Write data to buffer
    119e:	e8 2f       	mov	r30, r24
    while(size){
        lastByteOfPage = 0;
        while(NVMCTRL_STATUS & NVMCTRL_EEBUSY_bm);              // Wait until any write operation has finished
        CCP = CCP_SPM_gc;                                       // Gain access to NVMCTRL_CTRLA
        NVMCTRL_CTRLA = NVMCTRL_CMD_PAGEBUFCLR_gc;              // Clear page buffer
        while((size) && (lastByteOfPage == 0)){
    11a0:	5f 31       	cpi	r21, 0x1F	; 31
    11a2:	81 f7       	brne	.-32     	; 0x1184 <EEWrite+0x1a>
            if ((eeAddr % EEPROM_PAGE_SIZE) == (EEPROM_PAGE_SIZE-1)) lastByteOfPage = 1;
            *(uint8_t *)(EEPROM_START+eeAddr++) = *eeValues++;  // Write data to buffer
            --size;
        }
        CCP = CCP_SPM_gc;
    11a4:	94 bf       	out	0x34, r25	; 52
        NVMCTRL_CTRLA = NVMCTRL_CMD_PAGEERASEWRITE_gc;          // Erase old data and write new data to EEPROM
    11a6:	30 93 00 10 	sts	0x1000, r19	; 0x801000 <__TEXT_REGION_LENGTH__+0x701000>
        if (NVMCTRL_STATUS & NVMCTRL_WRERROR_bm) return 1;
    11aa:	50 91 02 10 	lds	r21, 0x1002	; 0x801002 <__TEXT_REGION_LENGTH__+0x701002>
    11ae:	52 ff       	sbrs	r21, 2
    11b0:	df cf       	rjmp	.-66     	; 0x1170 <EEWrite+0x6>
    11b2:	81 e0       	ldi	r24, 0x01	; 1
    }
    return 0;
}
    11b4:	08 95       	ret
        }
        CCP = CCP_SPM_gc;
        NVMCTRL_CTRLA = NVMCTRL_CMD_PAGEERASEWRITE_gc;          // Erase old data and write new data to EEPROM
        if (NVMCTRL_STATUS & NVMCTRL_WRERROR_bm) return 1;
    }
    return 0;
    11b6:	80 e0       	ldi	r24, 0x00	; 0
    11b8:	08 95       	ret

000011ba <SerSend>:
}

// Sends a set of characters to the serial port, stops only when character value 0 is reached.
uint8_t SerSend(unsigned char *addr){
    if (serTxDone){
    11ba:	20 91 0a 38 	lds	r18, 0x380A	; 0x80380a <serTxDone>
    11be:	22 23       	and	r18, r18
    11c0:	59 f0       	breq	.+22     	; 0x11d8 <SerSend+0x1e>
        serTxAddr = addr;
    11c2:	80 93 b9 3a 	sts	0x3AB9, r24	; 0x803ab9 <serTxAddr>
    11c6:	90 93 ba 3a 	sts	0x3ABA, r25	; 0x803aba <serTxAddr+0x1>
        serTxDone = 0;
    11ca:	10 92 0a 38 	sts	0x380A, r1	; 0x80380a <serTxDone>
        TCB0_INTCTRL = 0x01;
    11ce:	81 e0       	ldi	r24, 0x01	; 1
    11d0:	80 93 45 0a 	sts	0x0A45, r24	; 0x800a45 <__TEXT_REGION_LENGTH__+0x700a45>
        return 0;
    11d4:	80 e0       	ldi	r24, 0x00	; 0
    11d6:	08 95       	ret
    } else return 1;    //Error: Still sending data
    11d8:	81 e0       	ldi	r24, 0x01	; 1
};
    11da:	08 95       	ret

000011dc <SerSpeed>:

// Set serial character output speed, 255-0 (0.8 to 100ms delay between characters)
void SerSpeed(uint8_t serSpd){
    11dc:	28 2f       	mov	r18, r24
    if (serSpd<1) serSpd = 1;
    11de:	81 11       	cpse	r24, r1
    11e0:	01 c0       	rjmp	.+2      	; 0x11e4 <SerSpeed+0x8>
    11e2:	21 e0       	ldi	r18, 0x01	; 1
    TCB0_CCMP = ((uint16_t)(0xFF-serSpd)<<8) + 0xFF;
    11e4:	8f ef       	ldi	r24, 0xFF	; 255
    11e6:	90 e0       	ldi	r25, 0x00	; 0
    11e8:	82 1b       	sub	r24, r18
    11ea:	91 09       	sbc	r25, r1
    11ec:	98 2f       	mov	r25, r24
    11ee:	88 27       	eor	r24, r24
    11f0:	81 50       	subi	r24, 0x01	; 1
    11f2:	9f 4f       	sbci	r25, 0xFF	; 255
    11f4:	80 93 4c 0a 	sts	0x0A4C, r24	; 0x800a4c <__TEXT_REGION_LENGTH__+0x700a4c>
    11f8:	90 93 4d 0a 	sts	0x0A4D, r25	; 0x800a4d <__TEXT_REGION_LENGTH__+0x700a4d>
    11fc:	08 95       	ret

000011fe <SelectTSens>:
};

// Select temperature sensor
void SelectTSens(){
     VREF_CTRLA   = 0x12;    //0x22 for audio in/out (2.5V), 0x12 for temperature in, audio out (1.1V/2.5V)
    11fe:	82 e1       	ldi	r24, 0x12	; 18
    1200:	80 93 a0 00 	sts	0x00A0, r24	; 0x8000a0 <__TEXT_REGION_LENGTH__+0x7000a0>
     ADC0_CTRLA   &= ~(ADC_RESSEL_bm);
    1204:	e0 e0       	ldi	r30, 0x00	; 0
    1206:	f6 e0       	ldi	r31, 0x06	; 6
    1208:	80 81       	ld	r24, Z
    120a:	8b 7f       	andi	r24, 0xFB	; 251
    120c:	80 83       	st	Z, r24
     ADC0_MUXPOS  = 0x1E;    //Audio in: AIN7 at (0x07), Temperature: Internal sensor at (0x1E)
    120e:	8e e1       	ldi	r24, 0x1E	; 30
    1210:	80 93 06 06 	sts	0x0606, r24	; 0x800606 <__TEXT_REGION_LENGTH__+0x700606>
     adc0Chg = 3;
    1214:	83 e0       	ldi	r24, 0x03	; 3
    1216:	80 93 37 38 	sts	0x3837, r24	; 0x803837 <adc0Chg>
    121a:	08 95       	ret

0000121c <SelectAuIn>:
};

// Select "audio" input (0-2.5V)
void SelectAuIn(){
     VREF_CTRLA   = 0x22;    //0x22 for audio in/out (2.5V), 0x12 for temperature in, audio out (1.1V/2.5V)
    121c:	82 e2       	ldi	r24, 0x22	; 34
    121e:	80 93 a0 00 	sts	0x00A0, r24	; 0x8000a0 <__TEXT_REGION_LENGTH__+0x7000a0>
     ADC0_CTRLA   |= ADC_RESSEL_bm;
    1222:	e0 e0       	ldi	r30, 0x00	; 0
    1224:	f6 e0       	ldi	r31, 0x06	; 6
    1226:	80 81       	ld	r24, Z
    1228:	84 60       	ori	r24, 0x04	; 4
    122a:	80 83       	st	Z, r24
     ADC0_MUXPOS  = 0x07;    //Audio in: AIN7 at (0x07), Temperature: Internal sensor at (0x1E)
    122c:	87 e0       	ldi	r24, 0x07	; 7
    122e:	80 93 06 06 	sts	0x0606, r24	; 0x800606 <__TEXT_REGION_LENGTH__+0x700606>
     adc0Chg = 3;
    1232:	83 e0       	ldi	r24, 0x03	; 3
    1234:	80 93 37 38 	sts	0x3837, r24	; 0x803837 <adc0Chg>
    1238:	08 95       	ret

0000123a <CheckButtons>:
};

// Returns button combination (4LSB) and number of consecutive times this combination is detected. First read should always be ignored! 
uint8_t CheckButtons(uint8_t previousValue){
    uint8_t bADC = (uint8_t)(adcBtns>>4);
    123a:	20 91 b7 3a 	lds	r18, 0x3AB7	; 0x803ab7 <adcBtns>
    123e:	30 91 b8 3a 	lds	r19, 0x3AB8	; 0x803ab8 <adcBtns+0x1>
    uint8_t bNibble = 0x0F;     //MSB to LSB: Bottom left, top left, top right, bottom right, 0F is error
    
    switch(bADC){
    1242:	94 e0       	ldi	r25, 0x04	; 4
    1244:	36 95       	lsr	r19
    1246:	27 95       	ror	r18
    1248:	9a 95       	dec	r25
    124a:	e1 f7       	brne	.-8      	; 0x1244 <CheckButtons+0xa>
    124c:	33 27       	eor	r19, r19
    124e:	2c 35       	cpi	r18, 0x5C	; 92
    1250:	31 05       	cpc	r19, r1
    1252:	d0 f4       	brcc	.+52     	; 0x1288 <CheckButtons+0x4e>
    1254:	23 35       	cpi	r18, 0x53	; 83
    1256:	31 05       	cpc	r19, r1
    1258:	a8 f5       	brcc	.+106    	; 0x12c4 <CheckButtons+0x8a>
    125a:	22 33       	cpi	r18, 0x32	; 50
    125c:	31 05       	cpc	r19, r1
    125e:	50 f4       	brcc	.+20     	; 0x1274 <CheckButtons+0x3a>
    1260:	2d 32       	cpi	r18, 0x2D	; 45
    1262:	31 05       	cpc	r19, r1
    1264:	58 f5       	brcc	.+86     	; 0x12bc <CheckButtons+0x82>
    1266:	23 52       	subi	r18, 0x23	; 35
    1268:	31 09       	sbc	r19, r1
    126a:	25 30       	cpi	r18, 0x05	; 5
    126c:	31 05       	cpc	r19, r1
    126e:	80 f5       	brcc	.+96     	; 0x12d0 <CheckButtons+0x96>

        case 35 ... 39:          //37: Both left
        bNibble = 0b1100;
    1270:	9c e0       	ldi	r25, 0x0C	; 12
    1272:	2f c0       	rjmp	.+94     	; 0x12d2 <CheckButtons+0x98>
// Returns button combination (4LSB) and number of consecutive times this combination is detected. First read should always be ignored! 
uint8_t CheckButtons(uint8_t previousValue){
    uint8_t bADC = (uint8_t)(adcBtns>>4);
    uint8_t bNibble = 0x0F;     //MSB to LSB: Bottom left, top left, top right, bottom right, 0F is error
    
    switch(bADC){
    1274:	27 33       	cpi	r18, 0x37	; 55
    1276:	31 05       	cpc	r19, r1
    1278:	18 f1       	brcs	.+70     	; 0x12c0 <CheckButtons+0x86>
    127a:	2e 53       	subi	r18, 0x3E	; 62
    127c:	31 09       	sbc	r19, r1
    127e:	27 30       	cpi	r18, 0x07	; 7
    1280:	31 05       	cpc	r19, r1
    1282:	30 f5       	brcc	.+76     	; 0x12d0 <CheckButtons+0x96>
        case 50 ... 54:          //52: Bottom left
        bNibble = 0b1000;
        break;

        case 62 ... 68:          //65: Both top
        bNibble = 0b0110;
    1284:	96 e0       	ldi	r25, 0x06	; 6
        break;
    1286:	25 c0       	rjmp	.+74     	; 0x12d2 <CheckButtons+0x98>
// Returns button combination (4LSB) and number of consecutive times this combination is detected. First read should always be ignored! 
uint8_t CheckButtons(uint8_t previousValue){
    uint8_t bADC = (uint8_t)(adcBtns>>4);
    uint8_t bNibble = 0x0F;     //MSB to LSB: Bottom left, top left, top right, bottom right, 0F is error
    
    switch(bADC){
    1288:	2a 38       	cpi	r18, 0x8A	; 138
    128a:	31 05       	cpc	r19, r1
    128c:	50 f4       	brcc	.+20     	; 0x12a2 <CheckButtons+0x68>
    128e:	29 37       	cpi	r18, 0x79	; 121
    1290:	31 05       	cpc	r19, r1
    1292:	d0 f4       	brcc	.+52     	; 0x12c8 <CheckButtons+0x8e>
    1294:	23 56       	subi	r18, 0x63	; 99
    1296:	31 09       	sbc	r19, r1
    1298:	2b 30       	cpi	r18, 0x0B	; 11
    129a:	31 05       	cpc	r19, r1
    129c:	c8 f4       	brcc	.+50     	; 0x12d0 <CheckButtons+0x96>
        case 83 ... 91:          //87: Top left
        bNibble = 0b0100;
        break;

        case 99 ... 109:         //104: Both right
        bNibble = 0b0011;
    129e:	93 e0       	ldi	r25, 0x03	; 3
        break;
    12a0:	18 c0       	rjmp	.+48     	; 0x12d2 <CheckButtons+0x98>
// Returns button combination (4LSB) and number of consecutive times this combination is detected. First read should always be ignored! 
uint8_t CheckButtons(uint8_t previousValue){
    uint8_t bADC = (uint8_t)(adcBtns>>4);
    uint8_t bNibble = 0x0F;     //MSB to LSB: Bottom left, top left, top right, bottom right, 0F is error
    
    switch(bADC){
    12a2:	22 3a       	cpi	r18, 0xA2	; 162
    12a4:	31 05       	cpc	r19, r1
    12a6:	a0 f0       	brcs	.+40     	; 0x12d0 <CheckButtons+0x96>
    12a8:	2b 3b       	cpi	r18, 0xBB	; 187
    12aa:	31 05       	cpc	r19, r1
    12ac:	78 f0       	brcs	.+30     	; 0x12cc <CheckButtons+0x92>
    12ae:	20 5f       	subi	r18, 0xF0	; 240
    12b0:	31 09       	sbc	r19, r1
    12b2:	20 31       	cpi	r18, 0x10	; 16
    12b4:	31 05       	cpc	r19, r1
    12b6:	60 f4       	brcc	.+24     	; 0x12d0 <CheckButtons+0x96>
        case 162 ... 186:        //174: Bottom right
        bNibble = 0b0001;
        break;

        case 240 ... 255:        //255: No button pressed
        bNibble = 0b0000;
    12b8:	90 e0       	ldi	r25, 0x00	; 0
        break;
    12ba:	0b c0       	rjmp	.+22     	; 0x12d2 <CheckButtons+0x98>
        case 35 ... 39:          //37: Both left
        bNibble = 0b1100;
        break;

        case 45 ... 49:          //47: Both bottom
        bNibble = 0b1001;
    12bc:	99 e0       	ldi	r25, 0x09	; 9
        break;
    12be:	09 c0       	rjmp	.+18     	; 0x12d2 <CheckButtons+0x98>

        case 50 ... 54:          //52: Bottom left
        bNibble = 0b1000;
    12c0:	98 e0       	ldi	r25, 0x08	; 8
        break;
    12c2:	07 c0       	rjmp	.+14     	; 0x12d2 <CheckButtons+0x98>
        case 62 ... 68:          //65: Both top
        bNibble = 0b0110;
        break;

        case 83 ... 91:          //87: Top left
        bNibble = 0b0100;
    12c4:	94 e0       	ldi	r25, 0x04	; 4
        break;
    12c6:	05 c0       	rjmp	.+10     	; 0x12d2 <CheckButtons+0x98>
        case 99 ... 109:         //104: Both right
        bNibble = 0b0011;
        break;

        case 121 ... 137:        //129: Top right
        bNibble = 0b0010;
    12c8:	92 e0       	ldi	r25, 0x02	; 2
        break;
    12ca:	03 c0       	rjmp	.+6      	; 0x12d2 <CheckButtons+0x98>

        case 162 ... 186:        //174: Bottom right
        bNibble = 0b0001;
    12cc:	91 e0       	ldi	r25, 0x01	; 1
        break;
    12ce:	01 c0       	rjmp	.+2      	; 0x12d2 <CheckButtons+0x98>
};

// Returns button combination (4LSB) and number of consecutive times this combination is detected. First read should always be ignored! 
uint8_t CheckButtons(uint8_t previousValue){
    uint8_t bADC = (uint8_t)(adcBtns>>4);
    uint8_t bNibble = 0x0F;     //MSB to LSB: Bottom left, top left, top right, bottom right, 0F is error
    12d0:	9f e0       	ldi	r25, 0x0F	; 15
        case 240 ... 255:        //255: No button pressed
        bNibble = 0b0000;
        break;
    }

    if ((previousValue&0x0F)==bNibble){
    12d2:	28 2f       	mov	r18, r24
    12d4:	2f 70       	andi	r18, 0x0F	; 15
    12d6:	92 13       	cpse	r25, r18
    12d8:	06 c0       	rjmp	.+12     	; 0x12e6 <CheckButtons+0xac>
        if ((previousValue&0xF0) < 0xF0) previousValue += 0x10; //Same value? Increase time nibble
    12da:	98 2f       	mov	r25, r24
    12dc:	90 7f       	andi	r25, 0xF0	; 240
    12de:	90 3f       	cpi	r25, 0xF0	; 240
    12e0:	39 f0       	breq	.+14     	; 0x12f0 <CheckButtons+0xb6>
    12e2:	80 5f       	subi	r24, 0xF0	; 240
    12e4:	08 95       	ret
        return previousValue;       
    } else if (bNibble == 0) return 0xFF; //Buttons released, 0xFF triggers readout, previousValue holds last button value.
    12e6:	99 23       	and	r25, r25
    12e8:	11 f0       	breq	.+4      	; 0x12ee <CheckButtons+0xb4>
    12ea:	89 2f       	mov	r24, r25
    12ec:	08 95       	ret
    12ee:	8f ef       	ldi	r24, 0xFF	; 255
              else return bNibble;  //New value  
}
    12f0:	08 95       	ret

000012f2 <lfsr>:

uint8_t lfsr(){
    static uint16_t state = 0xd401;
    state ^= (state << 13);
    12f2:	80 91 21 38 	lds	r24, 0x3821	; 0x803821 <state.3887>
    12f6:	90 91 22 38 	lds	r25, 0x3822	; 0x803822 <state.3887+0x1>
    12fa:	9c 01       	movw	r18, r24
    12fc:	32 2f       	mov	r19, r18
    12fe:	22 27       	eor	r18, r18
    1300:	32 95       	swap	r19
    1302:	33 0f       	add	r19, r19
    1304:	30 7e       	andi	r19, 0xE0	; 224
    1306:	82 27       	eor	r24, r18
    1308:	93 27       	eor	r25, r19
    state ^= (state >> 9);
    130a:	9c 01       	movw	r18, r24
    130c:	23 2f       	mov	r18, r19
    130e:	33 27       	eor	r19, r19
    1310:	26 95       	lsr	r18
    1312:	82 27       	eor	r24, r18
    1314:	93 27       	eor	r25, r19
    state ^= (state << 7);
    1316:	9c 01       	movw	r18, r24
    1318:	36 95       	lsr	r19
    131a:	32 2f       	mov	r19, r18
    131c:	22 27       	eor	r18, r18
    131e:	37 95       	ror	r19
    1320:	27 95       	ror	r18
    1322:	82 27       	eor	r24, r18
    1324:	93 27       	eor	r25, r19
    1326:	80 93 21 38 	sts	0x3821, r24	; 0x803821 <state.3887>
    132a:	90 93 22 38 	sts	0x3822, r25	; 0x803822 <state.3887+0x1>
    return (state & 0xff);
}
    132e:	08 95       	ret

00001330 <floatSpeed>:

void floatSpeed(uint8_t bits, uint16_t min, uint16_t max){
    1330:	df 92       	push	r13
    1332:	ef 92       	push	r14
    1334:	ff 92       	push	r15
    1336:	0f 93       	push	r16
    1338:	1f 93       	push	r17
    133a:	cf 93       	push	r28
    133c:	df 93       	push	r29
    133e:	7b 01       	movw	r14, r22
    1340:	8a 01       	movw	r16, r20
    uint16_t val = TCB1_CCMP;
    1342:	c0 91 5c 0a 	lds	r28, 0x0A5C	; 0x800a5c <__TEXT_REGION_LENGTH__+0x700a5c>
    1346:	d0 91 5d 0a 	lds	r29, 0x0A5D	; 0x800a5d <__TEXT_REGION_LENGTH__+0x700a5d>
    bits = mask[(bits-1)&0x07];
    134a:	e8 2f       	mov	r30, r24
    134c:	f0 e0       	ldi	r31, 0x00	; 0
    134e:	31 97       	sbiw	r30, 0x01	; 1
    1350:	e7 70       	andi	r30, 0x07	; 7
    1352:	ff 27       	eor	r31, r31
    1354:	ed 5d       	subi	r30, 0xDD	; 221
    1356:	f7 4c       	sbci	r31, 0xC7	; 199
    1358:	d0 80       	ld	r13, Z
    val += (lfsr()&bits);
    135a:	cb df       	rcall	.-106    	; 0x12f2 <lfsr>
    135c:	8d 21       	and	r24, r13
    135e:	c8 0f       	add	r28, r24
    1360:	d1 1d       	adc	r29, r1
    val -= (lfsr()&bits);
    1362:	c7 df       	rcall	.-114    	; 0x12f2 <lfsr>
    1364:	8d 21       	and	r24, r13
    1366:	c8 1b       	sub	r28, r24
    1368:	d1 09       	sbc	r29, r1
    136a:	0c 17       	cp	r16, r28
    136c:	1d 07       	cpc	r17, r29
    136e:	08 f4       	brcc	.+2      	; 0x1372 <floatSpeed+0x42>
    1370:	e8 01       	movw	r28, r16
    1372:	c7 01       	movw	r24, r14
    1374:	ec 16       	cp	r14, r28
    1376:	fd 06       	cpc	r15, r29
    1378:	08 f4       	brcc	.+2      	; 0x137c <floatSpeed+0x4c>
    137a:	ce 01       	movw	r24, r28
    137c:	80 93 5c 0a 	sts	0x0A5C, r24	; 0x800a5c <__TEXT_REGION_LENGTH__+0x700a5c>
    if (val > max) val = max;    
    if (val < min) val = min;  
    TCB1_CCMP = val;
    1380:	90 93 5d 0a 	sts	0x0A5D, r25	; 0x800a5d <__TEXT_REGION_LENGTH__+0x700a5d>
    1384:	df 91       	pop	r29
}
    1386:	cf 91       	pop	r28
    1388:	1f 91       	pop	r17
    138a:	0f 91       	pop	r16
    138c:	ff 90       	pop	r15
    138e:	ef 90       	pop	r14
    1390:	df 90       	pop	r13
    1392:	08 95       	ret

00001394 <floatAround>:
    1394:	0f 93       	push	r16

uint8_t floatAround(uint8_t sample, uint8_t bits, uint8_t min, uint8_t max){
    1396:	1f 93       	push	r17
    1398:	cf 93       	push	r28
    139a:	df 93       	push	r29
    139c:	c8 2f       	mov	r28, r24
    139e:	d4 2f       	mov	r29, r20
    13a0:	02 2f       	mov	r16, r18
    bits = mask[(bits-1)&0x07];
    13a2:	e6 2f       	mov	r30, r22
    13a4:	f0 e0       	ldi	r31, 0x00	; 0
    13a6:	31 97       	sbiw	r30, 0x01	; 1
    13a8:	e7 70       	andi	r30, 0x07	; 7
    13aa:	ff 27       	eor	r31, r31
    13ac:	ed 5d       	subi	r30, 0xDD	; 221
    13ae:	f7 4c       	sbci	r31, 0xC7	; 199
    13b0:	10 81       	ld	r17, Z
    sample += lfsr()&bits;
    13b2:	9f df       	rcall	.-194    	; 0x12f2 <lfsr>
    13b4:	81 23       	and	r24, r17
    13b6:	c8 0f       	add	r28, r24
    sample -= lfsr()&bits;
    13b8:	9c df       	rcall	.-200    	; 0x12f2 <lfsr>
    13ba:	81 23       	and	r24, r17
    13bc:	c8 1b       	sub	r28, r24
    13be:	8c 2f       	mov	r24, r28
    13c0:	00 23       	and	r16, r16
    if (max){
    13c2:	41 f0       	breq	.+16     	; 0x13d4 <floatAround+0x40>
    13c4:	9c 2f       	mov	r25, r28
    13c6:	0c 17       	cp	r16, r28
    13c8:	08 f4       	brcc	.+2      	; 0x13cc <floatAround+0x38>
    13ca:	90 2f       	mov	r25, r16
    13cc:	8d 2f       	mov	r24, r29
    13ce:	d9 17       	cp	r29, r25
    13d0:	08 f4       	brcc	.+2      	; 0x13d4 <floatAround+0x40>
    13d2:	89 2f       	mov	r24, r25
    13d4:	41 e0       	ldi	r20, 0x01	; 1
        if (sample > max) sample = max;
        if (sample < min) sample = min;
    }
    if (min & (sample < min)) sample = min;
    13d6:	50 e0       	ldi	r21, 0x00	; 0
    13d8:	8d 17       	cp	r24, r29
    13da:	10 f0       	brcs	.+4      	; 0x13e0 <floatAround+0x4c>
    13dc:	40 e0       	ldi	r20, 0x00	; 0
    13de:	50 e0       	ldi	r21, 0x00	; 0
    13e0:	2d 2f       	mov	r18, r29
    13e2:	30 e0       	ldi	r19, 0x00	; 0
    13e4:	24 23       	and	r18, r20
    13e6:	35 23       	and	r19, r21
    13e8:	23 2b       	or	r18, r19
    13ea:	09 f0       	breq	.+2      	; 0x13ee <floatAround+0x5a>
    13ec:	8d 2f       	mov	r24, r29
    13ee:	df 91       	pop	r29

    return sample;
}
    13f0:	cf 91       	pop	r28
    13f2:	1f 91       	pop	r17
    13f4:	0f 91       	pop	r16
    13f6:	08 95       	ret

000013f8 <SaveGameState>:
    13f8:	cf 92       	push	r12
    inventory[0] = (gameState[INVADDR]<<8|gameState[INVADDR+1]);
    inventory[1] = (gameState[INVADDR+2]<<8|gameState[INVADDR+3]);
}

//Save changed data to EEPROM
uint8_t SaveGameState(){
    13fa:	df 92       	push	r13
    13fc:	ff 92       	push	r15
    13fe:	0f 93       	push	r16
    1400:	1f 93       	push	r17
    1402:	cf 93       	push	r28
    1404:	df 93       	push	r29
    1406:	cd b7       	in	r28, 0x3d	; 61
    1408:	de b7       	in	r29, 0x3e	; 62
    140a:	64 97       	sbiw	r28, 0x14	; 20
    140c:	cd bf       	out	0x3d, r28	; 61
    140e:	de bf       	out	0x3e, r29	; 62
    uint8_t gameCheck[BOOTCHK];

    //Read all data up to the boot/check result address from EEPROM
    EERead(0, &gameCheck[0], BOOTCHK);
    1410:	44 e1       	ldi	r20, 0x14	; 20
    1412:	be 01       	movw	r22, r28
    1414:	6f 5f       	subi	r22, 0xFF	; 255
    1416:	7f 4f       	sbci	r23, 0xFF	; 255
    1418:	80 e0       	ldi	r24, 0x00	; 0
    141a:	97 de       	rcall	.-722    	; 0x114a <EERead>
    141c:	81 e6       	ldi	r24, 0x61	; 97
    141e:	c8 2e       	mov	r12, r24
    1420:	8a e3       	ldi	r24, 0x3A	; 58
    1422:	d8 2e       	mov	r13, r24
    1424:	8e 01       	movw	r16, r28
    1426:	0f 5f       	subi	r16, 0xFF	; 255
    1428:	1f 4f       	sbci	r17, 0xFF	; 255

    //Check game status bits
    for (uint8_t x=0; x<STATLEN; ++x){
    142a:	f1 2c       	mov	r15, r1
        if (gameState[x] != gameCheck[x]){
    142c:	f8 01       	movw	r30, r16
    142e:	81 91       	ld	r24, Z+
    1430:	8f 01       	movw	r16, r30
    1432:	f6 01       	movw	r30, r12
    1434:	90 81       	ld	r25, Z
    1436:	98 13       	cpse	r25, r24
    1438:	08 c0       	rjmp	.+16     	; 0x144a <SaveGameState+0x52>

    //Read all data up to the boot/check result address from EEPROM
    EERead(0, &gameCheck[0], BOOTCHK);

    //Check game status bits
    for (uint8_t x=0; x<STATLEN; ++x){
    143a:	f3 94       	inc	r15
    143c:	ff ef       	ldi	r31, 0xFF	; 255
    143e:	cf 1a       	sub	r12, r31
    1440:	df 0a       	sbc	r13, r31
    1442:	80 e1       	ldi	r24, 0x10	; 16
    1444:	f8 12       	cpse	r15, r24
    1446:	f2 cf       	rjmp	.-28     	; 0x142c <SaveGameState+0x34>
    1448:	08 c0       	rjmp	.+16     	; 0x145a <SaveGameState+0x62>
        if (gameState[x] != gameCheck[x]){
            if (EEWrite(x, &gameState[x], 1)) return 1;
    144a:	41 e0       	ldi	r20, 0x01	; 1
    144c:	b6 01       	movw	r22, r12
    144e:	8f 2d       	mov	r24, r15
    1450:	8c de       	rcall	.-744    	; 0x116a <EEWrite>
    1452:	88 23       	and	r24, r24
    1454:	91 f3       	breq	.-28     	; 0x143a <SaveGameState+0x42>
    1456:	91 e0       	ldi	r25, 0x01	; 1
    1458:	36 c0       	rjmp	.+108    	; 0x14c6 <SaveGameState+0xce>
        }
    }

    //Check the inventory too
    gameState[INVADDR] = (uint8_t)(inventory[0]>>8);
    145a:	20 91 3e 38 	lds	r18, 0x383E	; 0x80383e <inventory>
    145e:	30 91 3f 38 	lds	r19, 0x383F	; 0x80383f <inventory+0x1>
    1462:	30 93 71 3a 	sts	0x3A71, r19	; 0x803a71 <gameState+0x10>
    gameState[INVADDR+1] = (uint8_t)(inventory[0]&0xff);
    1466:	20 93 72 3a 	sts	0x3A72, r18	; 0x803a72 <gameState+0x11>
    gameState[INVADDR+2] = (uint8_t)(inventory[1]>>8);
    146a:	80 91 40 38 	lds	r24, 0x3840	; 0x803840 <inventory+0x2>
    146e:	90 91 41 38 	lds	r25, 0x3841	; 0x803841 <inventory+0x3>
    1472:	90 93 73 3a 	sts	0x3A73, r25	; 0x803a73 <gameState+0x12>
    gameState[INVADDR+3] = (uint8_t)(inventory[1]&0xff);
    1476:	80 93 74 3a 	sts	0x3A74, r24	; 0x803a74 <gameState+0x13>
    if (inventory[0] != (gameCheck[INVADDR]<<8|gameCheck[INVADDR+1])) {
    147a:	89 89       	ldd	r24, Y+17	; 0x11
    147c:	9a 89       	ldd	r25, Y+18	; 0x12
    147e:	98 27       	eor	r25, r24
    1480:	89 27       	eor	r24, r25
    1482:	98 27       	eor	r25, r24
    1484:	28 17       	cp	r18, r24
    1486:	39 07       	cpc	r19, r25
    1488:	69 f4       	brne	.+26     	; 0x14a4 <SaveGameState+0xac>
        if (EEWrite(INVADDR, &gameState[INVADDR], 2)) return 1;
    }
    if (inventory[1] != (gameCheck[INVADDR+2]<<8|gameCheck[INVADDR+3])) {
    148a:	8b 89       	ldd	r24, Y+19	; 0x13
    148c:	9c 89       	ldd	r25, Y+20	; 0x14
    148e:	98 27       	eor	r25, r24
    1490:	89 27       	eor	r24, r25
    1492:	98 27       	eor	r25, r24
    1494:	20 91 40 38 	lds	r18, 0x3840	; 0x803840 <inventory+0x2>
    1498:	30 91 41 38 	lds	r19, 0x3841	; 0x803841 <inventory+0x3>
    149c:	28 17       	cp	r18, r24
    149e:	39 07       	cpc	r19, r25
    14a0:	49 f4       	brne	.+18     	; 0x14b4 <SaveGameState+0xbc>
    14a2:	10 c0       	rjmp	.+32     	; 0x14c4 <SaveGameState+0xcc>
    gameState[INVADDR] = (uint8_t)(inventory[0]>>8);
    gameState[INVADDR+1] = (uint8_t)(inventory[0]&0xff);
    gameState[INVADDR+2] = (uint8_t)(inventory[1]>>8);
    gameState[INVADDR+3] = (uint8_t)(inventory[1]&0xff);
    if (inventory[0] != (gameCheck[INVADDR]<<8|gameCheck[INVADDR+1])) {
        if (EEWrite(INVADDR, &gameState[INVADDR], 2)) return 1;
    14a4:	42 e0       	ldi	r20, 0x02	; 2
    14a6:	61 e7       	ldi	r22, 0x71	; 113
    14a8:	7a e3       	ldi	r23, 0x3A	; 58
    14aa:	80 e1       	ldi	r24, 0x10	; 16
    14ac:	5e de       	rcall	.-836    	; 0x116a <EEWrite>
    14ae:	88 23       	and	r24, r24
    14b0:	61 f3       	breq	.-40     	; 0x148a <SaveGameState+0x92>
    14b2:	d1 cf       	rjmp	.-94     	; 0x1456 <SaveGameState+0x5e>
    }
    if (inventory[1] != (gameCheck[INVADDR+2]<<8|gameCheck[INVADDR+3])) {
        if (EEWrite(INVADDR+2, &gameState[INVADDR+2], 2)) return 1;
    14b4:	42 e0       	ldi	r20, 0x02	; 2
    14b6:	63 e7       	ldi	r22, 0x73	; 115
    14b8:	7a e3       	ldi	r23, 0x3A	; 58
    14ba:	82 e1       	ldi	r24, 0x12	; 18
    14bc:	56 de       	rcall	.-852    	; 0x116a <EEWrite>
    EERead(0, &gameCheck[0], BOOTCHK);

    //Check game status bits
    for (uint8_t x=0; x<STATLEN; ++x){
        if (gameState[x] != gameCheck[x]){
            if (EEWrite(x, &gameState[x], 1)) return 1;
    14be:	91 e0       	ldi	r25, 0x01	; 1
    14c0:	81 11       	cpse	r24, r1
    14c2:	01 c0       	rjmp	.+2      	; 0x14c6 <SaveGameState+0xce>
    14c4:	90 e0       	ldi	r25, 0x00	; 0
    if (inventory[1] != (gameCheck[INVADDR+2]<<8|gameCheck[INVADDR+3])) {
        if (EEWrite(INVADDR+2, &gameState[INVADDR+2], 2)) return 1;
    }

    return 0;
}
    14c6:	89 2f       	mov	r24, r25
    14c8:	64 96       	adiw	r28, 0x14	; 20
    14ca:	cd bf       	out	0x3d, r28	; 61
    14cc:	de bf       	out	0x3e, r29	; 62
    14ce:	df 91       	pop	r29
    14d0:	cf 91       	pop	r28
    14d2:	1f 91       	pop	r17
    14d4:	0f 91       	pop	r16
    14d6:	ff 90       	pop	r15
    14d8:	df 90       	pop	r13
    14da:	cf 90       	pop	r12
    14dc:	08 95       	ret

000014de <ReadStatusBit>:

uint8_t ReadStatusBit(uint8_t number){
    number &= 0x7f;
    if (gameState[number>>3] & (1<<(number&7))) return 1; else return 0;
    14de:	e8 2f       	mov	r30, r24
    14e0:	ef 77       	andi	r30, 0x7F	; 127
    14e2:	e6 95       	lsr	r30
    14e4:	e6 95       	lsr	r30
    14e6:	e6 95       	lsr	r30
    14e8:	f0 e0       	ldi	r31, 0x00	; 0
    14ea:	ef 59       	subi	r30, 0x9F	; 159
    14ec:	f5 4c       	sbci	r31, 0xC5	; 197
    14ee:	20 81       	ld	r18, Z
    14f0:	30 e0       	ldi	r19, 0x00	; 0
    14f2:	87 70       	andi	r24, 0x07	; 7
    14f4:	a9 01       	movw	r20, r18
    14f6:	02 c0       	rjmp	.+4      	; 0x14fc <ReadStatusBit+0x1e>
    14f8:	55 95       	asr	r21
    14fa:	47 95       	ror	r20
    14fc:	8a 95       	dec	r24
    14fe:	e2 f7       	brpl	.-8      	; 0x14f8 <ReadStatusBit+0x1a>
    1500:	ca 01       	movw	r24, r20
}
    1502:	81 70       	andi	r24, 0x01	; 1
    1504:	08 95       	ret

00001506 <WriteStatusBit>:

void WriteStatusBit(uint8_t number, uint8_t state){
    number &= 0x7f;
    1506:	e8 2f       	mov	r30, r24
    1508:	ef 77       	andi	r30, 0x7F	; 127
    150a:	e6 95       	lsr	r30
    150c:	e6 95       	lsr	r30
    150e:	e6 95       	lsr	r30
    1510:	28 2f       	mov	r18, r24
    1512:	27 70       	andi	r18, 0x07	; 7
    if (state) gameState[number>>3] |= 1<<(number&7);
    1514:	f0 e0       	ldi	r31, 0x00	; 0
    1516:	ef 59       	subi	r30, 0x9F	; 159
    1518:	f5 4c       	sbci	r31, 0xC5	; 197
    151a:	81 e0       	ldi	r24, 0x01	; 1
    151c:	90 e0       	ldi	r25, 0x00	; 0
    151e:	01 c0       	rjmp	.+2      	; 0x1522 <WriteStatusBit+0x1c>
    1520:	88 0f       	add	r24, r24
    1522:	2a 95       	dec	r18
    1524:	ea f7       	brpl	.-6      	; 0x1520 <WriteStatusBit+0x1a>
    1526:	66 23       	and	r22, r22
    1528:	19 f0       	breq	.+6      	; 0x1530 <WriteStatusBit+0x2a>
    152a:	90 81       	ld	r25, Z
    152c:	89 2b       	or	r24, r25
    152e:	03 c0       	rjmp	.+6      	; 0x1536 <WriteStatusBit+0x30>
    else gameState[number>>3] &= ~(1<<(number&7));
    1530:	80 95       	com	r24
    1532:	90 81       	ld	r25, Z
    1534:	89 23       	and	r24, r25
    1536:	80 83       	st	Z, r24
    1538:	08 95       	ret

0000153a <UpdateState>:
}

//Update game state: num -> vBBBBbbb v=value(0 is set!), BBBB=Byte number, bbb=bit number
void UpdateState(uint8_t num){
    153a:	98 2f       	mov	r25, r24
    uint8_t clearBit = num & 0x80;
    num &= 0x7f;
    153c:	8f 77       	andi	r24, 0x7F	; 127
    if (num) {
    153e:	31 f0       	breq	.+12     	; 0x154c <UpdateState+0x12>
        if (clearBit) {
    1540:	97 ff       	sbrs	r25, 7
    1542:	02 c0       	rjmp	.+4      	; 0x1548 <UpdateState+0xe>
            WriteStatusBit(num, 0);
    1544:	60 e0       	ldi	r22, 0x00	; 0
    1546:	01 c0       	rjmp	.+2      	; 0x154a <UpdateState+0x10>
        } else {
            WriteStatusBit(num, 1);
    1548:	61 e0       	ldi	r22, 0x01	; 1
    154a:	dd cf       	rjmp	.-70     	; 0x1506 <WriteStatusBit>
    154c:	08 95       	ret

0000154e <CheckState>:
        }
    }
}

//Checks if state of bit BBBBbbb matches with v (inverted) bit
uint8_t CheckState(uint8_t num){
    154e:	cf 93       	push	r28
    1550:	c8 2f       	mov	r28, r24
    uint8_t bitSet = 0;
    if (ReadStatusBit(num & 0x7f)){
    1552:	8f 77       	andi	r24, 0x7F	; 127
    1554:	c4 df       	rcall	.-120    	; 0x14de <ReadStatusBit>
    1556:	2c 2f       	mov	r18, r28
    1558:	22 1f       	adc	r18, r18
    155a:	22 27       	eor	r18, r18
    155c:	22 1f       	adc	r18, r18
    155e:	91 e0       	ldi	r25, 0x01	; 1
    1560:	81 11       	cpse	r24, r1
    1562:	01 c0       	rjmp	.+2      	; 0x1566 <CheckState+0x18>
    1564:	90 e0       	ldi	r25, 0x00	; 0
    }
    if (((num & 0x80)>0)^(bitSet>0)){
        return 1;
    }
    return 0;
}
    1566:	82 2f       	mov	r24, r18
    1568:	89 27       	eor	r24, r25
    156a:	cf 91       	pop	r28
    156c:	08 95       	ret

0000156e <getID>:

//Give out a number 0..3, calculated using serial number fields
uint8_t getID(){
    uint8_t id = 0;
    uint8_t *serNum;
    serNum = (uint8_t*)&SIGROW_SERNUM0;
    156e:	e3 e0       	ldi	r30, 0x03	; 3
    1570:	f1 e1       	ldi	r31, 0x11	; 17
    return 0;
}

//Give out a number 0..3, calculated using serial number fields
uint8_t getID(){
    uint8_t id = 0;
    1572:	80 e0       	ldi	r24, 0x00	; 0
    uint8_t *serNum;
    serNum = (uint8_t*)&SIGROW_SERNUM0;

    for (uint8_t x=0; x<10; ++x){
        id += *serNum;
    1574:	91 91       	ld	r25, Z+
    1576:	89 0f       	add	r24, r25
uint8_t getID(){
    uint8_t id = 0;
    uint8_t *serNum;
    serNum = (uint8_t*)&SIGROW_SERNUM0;

    for (uint8_t x=0; x<10; ++x){
    1578:	ed 30       	cpi	r30, 0x0D	; 13
    157a:	91 e1       	ldi	r25, 0x11	; 17
    157c:	f9 07       	cpc	r31, r25
    157e:	d1 f7       	brne	.-12     	; 0x1574 <getID+0x6>
        id += *serNum;
        ++serNum;
    }
    id %= 4;
    whoami = id+1;
    1580:	83 70       	andi	r24, 0x03	; 3
    1582:	8f 5f       	subi	r24, 0xFF	; 255
    1584:	80 93 3d 38 	sts	0x383D, r24	; 0x80383d <whoami>
    return whoami;
}
    1588:	08 95       	ret

0000158a <Reset>:

void Reset(){
    158a:	e1 e6       	ldi	r30, 0x61	; 97
    158c:	fa e3       	ldi	r31, 0x3A	; 58
    //# 110   set to 1 by FW if badge UUID mod 4 == 0
    //# 111   set to 1 by FW if badge UUID mod 4 == 1
    //# 112   set to 1 by FW if badge UUID mod 4 == 2
    //# 113   set to 1 by FW if badge UUID mod 4 == 3
    for (uint8_t x=0; x<sizeof(gameState); ++x){
        gameState[x] = 0;
    158e:	11 92       	st	Z+, r1
    //Reset game progress (all zeroes) and load some bits:
    //# 110   set to 1 by FW if badge UUID mod 4 == 0
    //# 111   set to 1 by FW if badge UUID mod 4 == 1
    //# 112   set to 1 by FW if badge UUID mod 4 == 2
    //# 113   set to 1 by FW if badge UUID mod 4 == 3
    for (uint8_t x=0; x<sizeof(gameState); ++x){
    1590:	8a e3       	ldi	r24, 0x3A	; 58
    1592:	e5 37       	cpi	r30, 0x75	; 117
    1594:	f8 07       	cpc	r31, r24
    1596:	d9 f7       	brne	.-10     	; 0x158e <Reset+0x4>
        gameState[x] = 0;
    }

    uint8_t id = getID();
    1598:	ea df       	rcall	.-44     	; 0x156e <getID>

    //Write bit in gameState location 110..113
    if (id == 0) WriteStatusBit(110, 1);
    159a:	81 11       	cpse	r24, r1
    159c:	04 c0       	rjmp	.+8      	; 0x15a6 <Reset+0x1c>
    if (gameState[number>>3] & (1<<(number&7))) return 1; else return 0;
}

void WriteStatusBit(uint8_t number, uint8_t state){
    number &= 0x7f;
    if (state) gameState[number>>3] |= 1<<(number&7);
    159e:	80 91 6e 3a 	lds	r24, 0x3A6E	; 0x803a6e <gameState+0xd>
    15a2:	80 64       	ori	r24, 0x40	; 64
    15a4:	05 c0       	rjmp	.+10     	; 0x15b0 <Reset+0x26>

    uint8_t id = getID();

    //Write bit in gameState location 110..113
    if (id == 0) WriteStatusBit(110, 1);
    else if (id == 1) WriteStatusBit(111, 1);
    15a6:	81 30       	cpi	r24, 0x01	; 1
    15a8:	31 f4       	brne	.+12     	; 0x15b6 <Reset+0x2c>
    if (gameState[number>>3] & (1<<(number&7))) return 1; else return 0;
}

void WriteStatusBit(uint8_t number, uint8_t state){
    number &= 0x7f;
    if (state) gameState[number>>3] |= 1<<(number&7);
    15aa:	80 91 6e 3a 	lds	r24, 0x3A6E	; 0x803a6e <gameState+0xd>
    15ae:	80 68       	ori	r24, 0x80	; 128
    15b0:	80 93 6e 3a 	sts	0x3A6E, r24	; 0x803a6e <gameState+0xd>
    15b4:	0d c0       	rjmp	.+26     	; 0x15d0 <Reset+0x46>
    uint8_t id = getID();

    //Write bit in gameState location 110..113
    if (id == 0) WriteStatusBit(110, 1);
    else if (id == 1) WriteStatusBit(111, 1);
    else if (id == 2) WriteStatusBit(112, 1);
    15b6:	82 30       	cpi	r24, 0x02	; 2
    15b8:	21 f4       	brne	.+8      	; 0x15c2 <Reset+0x38>
    if (gameState[number>>3] & (1<<(number&7))) return 1; else return 0;
}

void WriteStatusBit(uint8_t number, uint8_t state){
    number &= 0x7f;
    if (state) gameState[number>>3] |= 1<<(number&7);
    15ba:	80 91 6f 3a 	lds	r24, 0x3A6F	; 0x803a6f <gameState+0xe>
    15be:	81 60       	ori	r24, 0x01	; 1
    15c0:	05 c0       	rjmp	.+10     	; 0x15cc <Reset+0x42>

    //Write bit in gameState location 110..113
    if (id == 0) WriteStatusBit(110, 1);
    else if (id == 1) WriteStatusBit(111, 1);
    else if (id == 2) WriteStatusBit(112, 1);
    else if (id == 3) WriteStatusBit(113, 1);
    15c2:	83 30       	cpi	r24, 0x03	; 3
    15c4:	29 f4       	brne	.+10     	; 0x15d0 <Reset+0x46>
    if (gameState[number>>3] & (1<<(number&7))) return 1; else return 0;
}

void WriteStatusBit(uint8_t number, uint8_t state){
    number &= 0x7f;
    if (state) gameState[number>>3] |= 1<<(number&7);
    15c6:	80 91 6f 3a 	lds	r24, 0x3A6F	; 0x803a6f <gameState+0xe>
    15ca:	82 60       	ori	r24, 0x02	; 2
    15cc:	80 93 6f 3a 	sts	0x3A6F, r24	; 0x803a6f <gameState+0xe>
    15d0:	80 91 61 3a 	lds	r24, 0x3A61	; 0x803a61 <gameState>
    15d4:	81 60       	ori	r24, 0x01	; 1
    15d6:	80 93 61 3a 	sts	0x3A61, r24	; 0x803a61 <gameState>
    15da:	08 95       	ret

000015dc <LoadGameState>:

    return sample;
}

//Load game status
void LoadGameState(){
    15dc:	cf 93       	push	r28
    15de:	df 93       	push	r29
    EERead(0, &gameState[0], BOOTCHK);   //Load game status bits from EEPROM
    15e0:	44 e1       	ldi	r20, 0x14	; 20
    15e2:	61 e6       	ldi	r22, 0x61	; 97
    15e4:	7a e3       	ldi	r23, 0x3A	; 58
    15e6:	80 e0       	ldi	r24, 0x00	; 0
    15e8:	b0 dd       	rcall	.-1184   	; 0x114a <EERead>
    15ea:	ce e6       	ldi	r28, 0x6E	; 110

    uint8_t idSet = 0;
    15ec:	d0 e0       	ldi	r29, 0x00	; 0
    for (uint8_t x=0; x<4; ++x){
        idSet += ReadStatusBit(110+x);
    15ee:	8c 2f       	mov	r24, r28
    15f0:	76 df       	rcall	.-276    	; 0x14de <ReadStatusBit>
    15f2:	d8 0f       	add	r29, r24
    15f4:	cf 5f       	subi	r28, 0xFF	; 255
//Load game status
void LoadGameState(){
    EERead(0, &gameState[0], BOOTCHK);   //Load game status bits from EEPROM

    uint8_t idSet = 0;
    for (uint8_t x=0; x<4; ++x){
    15f6:	c2 37       	cpi	r28, 0x72	; 114
    15f8:	d1 f7       	brne	.-12     	; 0x15ee <LoadGameState+0x12>
        idSet += ReadStatusBit(110+x);
    }

    //Check if badge is reset(0 = cheated!) or new(3) or error(2)
    if (idSet != 1) {
    15fa:	d1 30       	cpi	r29, 0x01	; 1
        Reset();
    15fc:	11 f0       	breq	.+4      	; 0x1602 <LoadGameState+0x26>
    15fe:	c5 df       	rcall	.-118    	; 0x158a <Reset>
    } else getID();
    1600:	01 c0       	rjmp	.+2      	; 0x1604 <LoadGameState+0x28>
    1602:	b5 df       	rcall	.-150    	; 0x156e <getID>

    inventory[0] = (gameState[INVADDR]<<8|gameState[INVADDR+1]);
    1604:	80 91 71 3a 	lds	r24, 0x3A71	; 0x803a71 <gameState+0x10>
    1608:	90 91 72 3a 	lds	r25, 0x3A72	; 0x803a72 <gameState+0x11>
    160c:	98 27       	eor	r25, r24
    160e:	89 27       	eor	r24, r25
    1610:	98 27       	eor	r25, r24
    1612:	80 93 3e 38 	sts	0x383E, r24	; 0x80383e <inventory>
    1616:	90 93 3f 38 	sts	0x383F, r25	; 0x80383f <inventory+0x1>
    inventory[1] = (gameState[INVADDR+2]<<8|gameState[INVADDR+3]);
    161a:	80 91 73 3a 	lds	r24, 0x3A73	; 0x803a73 <gameState+0x12>
    161e:	90 91 74 3a 	lds	r25, 0x3A74	; 0x803a74 <gameState+0x13>
    1622:	98 27       	eor	r25, r24
    1624:	89 27       	eor	r24, r25
    1626:	98 27       	eor	r25, r24
    1628:	80 93 40 38 	sts	0x3840, r24	; 0x803840 <inventory+0x2>
    162c:	90 93 41 38 	sts	0x3841, r25	; 0x803841 <inventory+0x3>
}
    1630:	df 91       	pop	r29
    1632:	cf 91       	pop	r28
    1634:	08 95       	ret

00001636 <HotSummer>:
    //Write bit 0, must always be 1!
    WriteStatusBit(0, 1);
}

//Sets specific game bits after the badge is heated for one and two times.
uint8_t HotSummer(){
    1636:	cf 93       	push	r28
    static uint8_t cooledDown = 0;

    if (CheckState(SUMMERS_COMPLETED)){
    1638:	86 e7       	ldi	r24, 0x76	; 118
    163a:	89 df       	rcall	.-238    	; 0x154e <CheckState>
    163c:	c8 2f       	mov	r28, r24
    163e:	88 23       	and	r24, r24
    1640:	81 f0       	breq	.+32     	; 0x1662 <HotSummer+0x2c>
        iLED[SCARAB[G]] = 0;
    1642:	e0 91 bf bd 	lds	r30, 0xBDBF	; 0x80bdbf <__bss_end+0x82a5>
    1646:	f0 e0       	ldi	r31, 0x00	; 0
    1648:	e6 53       	subi	r30, 0x36	; 54
    164a:	f5 4c       	sbci	r31, 0xC5	; 197
    164c:	10 82       	st	Z, r1
        iLED[SCARAB[R]] = dimValue;
    164e:	e0 91 be bd 	lds	r30, 0xBDBE	; 0x80bdbe <__bss_end+0x82a4>
    1652:	f0 e0       	ldi	r31, 0x00	; 0
    1654:	80 91 0b 38 	lds	r24, 0x380B	; 0x80380b <dimValue>
    1658:	e6 53       	subi	r30, 0x36	; 54
    165a:	f5 4c       	sbci	r31, 0xC5	; 197
    165c:	80 83       	st	Z, r24
        return 1;
    165e:	c1 e0       	ldi	r28, 0x01	; 1
    1660:	4c c0       	rjmp	.+152    	; 0x16fa <HotSummer+0xc4>
    }

    if (CheckState(FIRST_SUMMER)) {
    1662:	85 e7       	ldi	r24, 0x75	; 117
    1664:	74 df       	rcall	.-280    	; 0x154e <CheckState>
    1666:	88 23       	and	r24, r24
    1668:	59 f1       	breq	.+86     	; 0x16c0 <HotSummer+0x8a>
        iLED[SCARAB[G]] = dimValue;
    166a:	e0 91 bf bd 	lds	r30, 0xBDBF	; 0x80bdbf <__bss_end+0x82a5>
    166e:	f0 e0       	ldi	r31, 0x00	; 0
    1670:	80 91 0b 38 	lds	r24, 0x380B	; 0x80380b <dimValue>
    1674:	e6 53       	subi	r30, 0x36	; 54
    1676:	f5 4c       	sbci	r31, 0xC5	; 197
    1678:	80 83       	st	Z, r24
        if ((cooledDown) && (adcTemp >= (calTemp + 32))) {
    167a:	80 91 58 38 	lds	r24, 0x3858	; 0x803858 <cooledDown.3946>
    167e:	88 23       	and	r24, r24
    1680:	79 f0       	breq	.+30     	; 0x16a0 <HotSummer+0x6a>
    1682:	80 91 c0 3a 	lds	r24, 0x3AC0	; 0x803ac0 <calTemp>
    1686:	90 91 c1 3a 	lds	r25, 0x3AC1	; 0x803ac1 <calTemp+0x1>
    168a:	20 91 f5 3a 	lds	r18, 0x3AF5	; 0x803af5 <adcTemp>
    168e:	30 91 f6 3a 	lds	r19, 0x3AF6	; 0x803af6 <adcTemp+0x1>
    1692:	80 96       	adiw	r24, 0x20	; 32
    1694:	28 17       	cp	r18, r24
    1696:	39 07       	cpc	r19, r25
            UpdateState(SUMMERS_COMPLETED);
    1698:	18 f0       	brcs	.+6      	; 0x16a0 <HotSummer+0x6a>
    169a:	86 e7       	ldi	r24, 0x76	; 118
    169c:	4e df       	rcall	.-356    	; 0x153a <UpdateState>
            return 0;
    169e:	2d c0       	rjmp	.+90     	; 0x16fa <HotSummer+0xc4>
        }
        if (adcTemp <= (calTemp + 8)) cooledDown = 1;
    16a0:	80 91 c0 3a 	lds	r24, 0x3AC0	; 0x803ac0 <calTemp>
    16a4:	90 91 c1 3a 	lds	r25, 0x3AC1	; 0x803ac1 <calTemp+0x1>
    16a8:	20 91 f5 3a 	lds	r18, 0x3AF5	; 0x803af5 <adcTemp>
    16ac:	30 91 f6 3a 	lds	r19, 0x3AF6	; 0x803af6 <adcTemp+0x1>
    16b0:	08 96       	adiw	r24, 0x08	; 8
    16b2:	82 17       	cp	r24, r18
    16b4:	93 07       	cpc	r25, r19
    16b6:	08 f1       	brcs	.+66     	; 0x16fa <HotSummer+0xc4>
    16b8:	81 e0       	ldi	r24, 0x01	; 1
    16ba:	80 93 58 38 	sts	0x3858, r24	; 0x803858 <cooledDown.3946>
    16be:	1d c0       	rjmp	.+58     	; 0x16fa <HotSummer+0xc4>
                   
    } else {
        if (calTemp == 0) calTemp = adcTemp;
    16c0:	80 91 c0 3a 	lds	r24, 0x3AC0	; 0x803ac0 <calTemp>
    16c4:	90 91 c1 3a 	lds	r25, 0x3AC1	; 0x803ac1 <calTemp+0x1>
    16c8:	89 2b       	or	r24, r25
    16ca:	41 f4       	brne	.+16     	; 0x16dc <HotSummer+0xa6>
    16cc:	80 91 f5 3a 	lds	r24, 0x3AF5	; 0x803af5 <adcTemp>
    16d0:	90 91 f6 3a 	lds	r25, 0x3AF6	; 0x803af6 <adcTemp+0x1>
    16d4:	80 93 c0 3a 	sts	0x3AC0, r24	; 0x803ac0 <calTemp>
    16d8:	90 93 c1 3a 	sts	0x3AC1, r25	; 0x803ac1 <calTemp+0x1>
        if (adcTemp >= (calTemp + 32)) {
    16dc:	80 91 c0 3a 	lds	r24, 0x3AC0	; 0x803ac0 <calTemp>
    16e0:	90 91 c1 3a 	lds	r25, 0x3AC1	; 0x803ac1 <calTemp+0x1>
    16e4:	20 91 f5 3a 	lds	r18, 0x3AF5	; 0x803af5 <adcTemp>
    16e8:	30 91 f6 3a 	lds	r19, 0x3AF6	; 0x803af6 <adcTemp+0x1>
    16ec:	80 96       	adiw	r24, 0x20	; 32
    16ee:	28 17       	cp	r18, r24
    16f0:	39 07       	cpc	r19, r25
            UpdateState(FIRST_SUMMER);
    16f2:	18 f0       	brcs	.+6      	; 0x16fa <HotSummer+0xc4>
    16f4:	85 e7       	ldi	r24, 0x75	; 117
    16f6:	21 df       	rcall	.-446    	; 0x153a <UpdateState>
        }
    }
    return 0;
    16f8:	c0 e0       	ldi	r28, 0x00	; 0
}
    16fa:	8c 2f       	mov	r24, r28
    16fc:	cf 91       	pop	r28
    16fe:	08 95       	ret

00001700 <WingBar>:

void WingBar(int8_t l, int8_t r) {
    1700:	e0 ec       	ldi	r30, 0xC0	; 192
    1702:	fd eb       	ldi	r31, 0xBD	; 189
    for (int8_t i=0; i<5; i++) {
    1704:	90 e0       	ldi	r25, 0x00	; 0
        if (i<l)
            iLED[WING[L][i]] = dimValue;
    1706:	a5 81       	ldd	r26, Z+5	; 0x05
    1708:	b0 e0       	ldi	r27, 0x00	; 0
    return 0;
}

void WingBar(int8_t l, int8_t r) {
    for (int8_t i=0; i<5; i++) {
        if (i<l)
    170a:	98 17       	cp	r25, r24
    170c:	34 f4       	brge	.+12     	; 0x171a <WingBar+0x1a>
            iLED[WING[L][i]] = dimValue;
    170e:	20 91 0b 38 	lds	r18, 0x380B	; 0x80380b <dimValue>
    1712:	a6 53       	subi	r26, 0x36	; 54
    1714:	b5 4c       	sbci	r27, 0xC5	; 197
    1716:	2c 93       	st	X, r18
    1718:	03 c0       	rjmp	.+6      	; 0x1720 <WingBar+0x20>
        else
            iLED[WING[L][i]] = 0;
    171a:	a6 53       	subi	r26, 0x36	; 54
    171c:	b5 4c       	sbci	r27, 0xC5	; 197
    171e:	1c 92       	st	X, r1
        if (i<r)
            iLED[WING[R][i]] = dimValue;
    1720:	a0 81       	ld	r26, Z
    1722:	b0 e0       	ldi	r27, 0x00	; 0
    for (int8_t i=0; i<5; i++) {
        if (i<l)
            iLED[WING[L][i]] = dimValue;
        else
            iLED[WING[L][i]] = 0;
        if (i<r)
    1724:	96 17       	cp	r25, r22
    1726:	34 f4       	brge	.+12     	; 0x1734 <WingBar+0x34>
            iLED[WING[R][i]] = dimValue;
    1728:	20 91 0b 38 	lds	r18, 0x380B	; 0x80380b <dimValue>
    172c:	a6 53       	subi	r26, 0x36	; 54
    172e:	b5 4c       	sbci	r27, 0xC5	; 197
    1730:	2c 93       	st	X, r18
    1732:	03 c0       	rjmp	.+6      	; 0x173a <WingBar+0x3a>
        else
            iLED[WING[R][i]] = 0;
    1734:	a6 53       	subi	r26, 0x36	; 54
    1736:	b5 4c       	sbci	r27, 0xC5	; 197
    1738:	1c 92       	st	X, r1
    173a:	9f 5f       	subi	r25, 0xFF	; 255
    173c:	31 96       	adiw	r30, 0x01	; 1
    }
    return 0;
}

void WingBar(int8_t l, int8_t r) {
    for (int8_t i=0; i<5; i++) {
    173e:	95 30       	cpi	r25, 0x05	; 5
    1740:	11 f7       	brne	.-60     	; 0x1706 <WingBar+0x6>
        if (i<r)
            iLED[WING[R][i]] = dimValue;
        else
            iLED[WING[R][i]] = 0;
    }
}
    1742:	08 95       	ret

00001744 <GenerateBlinks>:

void GenerateBlinks(){
    1744:	1f 93       	push	r17
    1746:	cf 93       	push	r28
    1748:	df 93       	push	r29
    174a:	ce ec       	ldi	r28, 0xCE	; 206
    174c:	dd eb       	ldi	r29, 0xBD	; 189
    174e:	1a e7       	ldi	r17, 0x7A	; 122
    effect (or be set directly)
    */

    //Activate HCKR & BADGER leds based on the state-bits
    for (uint8_t i=0;i<6;i++) {
        if(CheckState(HACKER_STATES + i)) {
    1750:	81 2f       	mov	r24, r17
    1752:	fd de       	rcall	.-518    	; 0x154e <CheckState>
            iLED[HCKR[G][i]] = dimValue;
    1754:	ee 81       	ldd	r30, Y+6	; 0x06
    1756:	f0 e0       	ldi	r31, 0x00	; 0
    effect (or be set directly)
    */

    //Activate HCKR & BADGER leds based on the state-bits
    for (uint8_t i=0;i<6;i++) {
        if(CheckState(HACKER_STATES + i)) {
    1758:	88 23       	and	r24, r24
    175a:	59 f0       	breq	.+22     	; 0x1772 <GenerateBlinks+0x2e>
            iLED[HCKR[G][i]] = dimValue;
    175c:	80 91 0b 38 	lds	r24, 0x380B	; 0x80380b <dimValue>
    1760:	e6 53       	subi	r30, 0x36	; 54
    1762:	f5 4c       	sbci	r31, 0xC5	; 197
    1764:	80 83       	st	Z, r24
            iLED[HCKR[R][i]] = 0;
    1766:	e8 81       	ld	r30, Y
    1768:	f0 e0       	ldi	r31, 0x00	; 0
    176a:	e6 53       	subi	r30, 0x36	; 54
    176c:	f5 4c       	sbci	r31, 0xC5	; 197
    176e:	10 82       	st	Z, r1
    1770:	0a c0       	rjmp	.+20     	; 0x1786 <GenerateBlinks+0x42>
        } else {
            iLED[HCKR[G][i]] = 0;
    1772:	e6 53       	subi	r30, 0x36	; 54
    1774:	f5 4c       	sbci	r31, 0xC5	; 197
    1776:	10 82       	st	Z, r1
            iLED[HCKR[R][i]] = dimValue;
    1778:	e8 81       	ld	r30, Y
    177a:	f0 e0       	ldi	r31, 0x00	; 0
    177c:	80 91 0b 38 	lds	r24, 0x380B	; 0x80380b <dimValue>
    1780:	e6 53       	subi	r30, 0x36	; 54
    1782:	f5 4c       	sbci	r31, 0xC5	; 197
    1784:	80 83       	st	Z, r24
    1786:	1f 5f       	subi	r17, 0xFF	; 255
    1788:	21 96       	adiw	r28, 0x01	; 1
    used by the games, the other LEDs can be used by setting 
    effect (or be set directly)
    */

    //Activate HCKR & BADGER leds based on the state-bits
    for (uint8_t i=0;i<6;i++) {
    178a:	10 38       	cpi	r17, 0x80	; 128
    178c:	09 f7       	brne	.-62     	; 0x1750 <GenerateBlinks+0xc>
        } else {
            iLED[HCKR[G][i]] = 0;
            iLED[HCKR[R][i]] = dimValue;
        }
    }
    if (CheckState(GEM_STATE)) {
    178e:	80 e4       	ldi	r24, 0x40	; 64
    1790:	de de       	rcall	.-580    	; 0x154e <CheckState>
    1792:	88 23       	and	r24, r24
    1794:	69 f1       	breq	.+90     	; 0x17f0 <GenerateBlinks+0xac>
        if ( heart == 1 || heart == 3 || heart == 5 )
    1796:	80 91 59 38 	lds	r24, 0x3859	; 0x803859 <heart>
    179a:	98 2f       	mov	r25, r24
    179c:	9d 7f       	andi	r25, 0xFD	; 253
    179e:	e0 91 bd bd 	lds	r30, 0xBDBD	; 0x80bdbd <__bss_end+0x82a3>
            iLED[BADGER] = dimValue / 2;
    17a2:	f0 e0       	ldi	r31, 0x00	; 0
            iLED[HCKR[G][i]] = 0;
            iLED[HCKR[R][i]] = dimValue;
        }
    }
    if (CheckState(GEM_STATE)) {
        if ( heart == 1 || heart == 3 || heart == 5 )
    17a4:	91 30       	cpi	r25, 0x01	; 1
    17a6:	11 f0       	breq	.+4      	; 0x17ac <GenerateBlinks+0x68>
    17a8:	85 30       	cpi	r24, 0x05	; 5
    17aa:	21 f4       	brne	.+8      	; 0x17b4 <GenerateBlinks+0x70>
            iLED[BADGER] = dimValue / 2;
    17ac:	90 91 0b 38 	lds	r25, 0x380B	; 0x80380b <dimValue>
    17b0:	96 95       	lsr	r25
    17b2:	06 c0       	rjmp	.+12     	; 0x17c0 <GenerateBlinks+0x7c>
        else if ( heart == 2 || heart == 4 )
    17b4:	82 30       	cpi	r24, 0x02	; 2
    17b6:	11 f0       	breq	.+4      	; 0x17bc <GenerateBlinks+0x78>
    17b8:	84 30       	cpi	r24, 0x04	; 4
    17ba:	31 f4       	brne	.+12     	; 0x17c8 <GenerateBlinks+0x84>
            iLED[BADGER] = dimValue;
    17bc:	90 91 0b 38 	lds	r25, 0x380B	; 0x80380b <dimValue>
    17c0:	e6 53       	subi	r30, 0x36	; 54
    17c2:	f5 4c       	sbci	r31, 0xC5	; 197
    17c4:	90 83       	st	Z, r25
    17c6:	0c c0       	rjmp	.+24     	; 0x17e0 <GenerateBlinks+0x9c>
        else if ( heart == 0 || heart == 6 )
    17c8:	88 23       	and	r24, r24
    17ca:	11 f0       	breq	.+4      	; 0x17d0 <GenerateBlinks+0x8c>
    17cc:	86 30       	cpi	r24, 0x06	; 6
    17ce:	29 f4       	brne	.+10     	; 0x17da <GenerateBlinks+0x96>
            iLED[BADGER] = dimValue / 4;
    17d0:	90 91 0b 38 	lds	r25, 0x380B	; 0x80380b <dimValue>
    17d4:	96 95       	lsr	r25
    17d6:	96 95       	lsr	r25
    17d8:	f3 cf       	rjmp	.-26     	; 0x17c0 <GenerateBlinks+0x7c>
        else
            iLED[BADGER] = 0;
    17da:	e6 53       	subi	r30, 0x36	; 54
    17dc:	f5 4c       	sbci	r31, 0xC5	; 197
    17de:	10 82       	st	Z, r1
        if (heart<32)
    17e0:	80 32       	cpi	r24, 0x20	; 32
    17e2:	20 f4       	brcc	.+8      	; 0x17ec <GenerateBlinks+0xa8>
            heart++;
    17e4:	8f 5f       	subi	r24, 0xFF	; 255
    17e6:	80 93 59 38 	sts	0x3859, r24	; 0x803859 <heart>
    17ea:	02 c0       	rjmp	.+4      	; 0x17f0 <GenerateBlinks+0xac>
        else
            heart = 0;
    17ec:	10 92 59 38 	sts	0x3859, r1	; 0x803859 <heart>
    }

    //LEDs for text adventure
    if ((effect&0xff00)==0) {
    17f0:	80 91 3a 38 	lds	r24, 0x383A	; 0x80383a <effect>
    17f4:	90 91 3b 38 	lds	r25, 0x383B	; 0x80383b <effect+0x1>
    17f8:	88 27       	eor	r24, r24
    17fa:	89 2b       	or	r24, r25
    17fc:	71 f4       	brne	.+28     	; 0x181a <GenerateBlinks+0xd6>
        //Off
        if ((effect&0x1f)==0){
    17fe:	80 91 3a 38 	lds	r24, 0x383A	; 0x80383a <effect>
    1802:	90 91 3b 38 	lds	r25, 0x383B	; 0x80383b <effect+0x1>
    1806:	8f 71       	andi	r24, 0x1F	; 31
    1808:	99 27       	eor	r25, r25
    180a:	89 2b       	or	r24, r25
    180c:	31 f4       	brne	.+12     	; 0x181a <GenerateBlinks+0xd6>
            WingBar(0,0);
    180e:	60 e0       	ldi	r22, 0x00	; 0
    1810:	80 e0       	ldi	r24, 0x00	; 0
        }
    }
}
    1812:	df 91       	pop	r29
    1814:	cf 91       	pop	r28

    //LEDs for text adventure
    if ((effect&0xff00)==0) {
        //Off
        if ((effect&0x1f)==0){
            WingBar(0,0);
    1816:	1f 91       	pop	r17
    1818:	73 cf       	rjmp	.-282    	; 0x1700 <WingBar>
        }
    }
}
    181a:	df 91       	pop	r29
    181c:	cf 91       	pop	r28
    181e:	1f 91       	pop	r17
    1820:	08 95       	ret

00001822 <GenerateAudio>:


uint8_t GenerateAudio(){
    1822:	0f 93       	push	r16
    1824:	1f 93       	push	r17
    1826:	cf 93       	push	r28
    1828:	df 93       	push	r29

    if (auIn[AULEN>>1] < HPLVL) {
    182a:	80 91 c6 3a 	lds	r24, 0x3AC6	; 0x803ac6 <auIn+0x4>
    182e:	89 31       	cpi	r24, 0x19	; 25
    1830:	08 f0       	brcs	.+2      	; 0x1834 <GenerateAudio+0x12>
    1832:	33 c1       	rjmp	.+614    	; 0x1a9a <GenerateAudio+0x278>

        detHdPh = 1;
    1834:	c1 e0       	ldi	r28, 0x01	; 1
    1836:	c0 93 bf 3a 	sts	0x3ABF, r28	; 0x803abf <detHdPh>

        //Audio for text adventure
        if ((effect&0xff00)==0) {
    183a:	80 91 3a 38 	lds	r24, 0x383A	; 0x80383a <effect>
    183e:	90 91 3b 38 	lds	r25, 0x383B	; 0x80383b <effect+0x1>
    1842:	88 27       	eor	r24, r24
    1844:	89 2b       	or	r24, r25
    1846:	09 f0       	breq	.+2      	; 0x184a <GenerateAudio+0x28>
    1848:	c4 c0       	rjmp	.+392    	; 0x19d2 <GenerateAudio+0x1b0>

            //Silence
            if ((effect&0xE0)==0){
    184a:	80 91 3a 38 	lds	r24, 0x383A	; 0x80383a <effect>
    184e:	90 91 3b 38 	lds	r25, 0x383B	; 0x80383b <effect+0x1>
    1852:	80 7e       	andi	r24, 0xE0	; 224
    1854:	99 27       	eor	r25, r25
    1856:	89 2b       	or	r24, r25
    1858:	31 f4       	brne	.+12     	; 0x1866 <GenerateAudio+0x44>
                auRepAddr = &zero;
    185a:	88 e3       	ldi	r24, 0x38	; 56
    185c:	98 e3       	ldi	r25, 0x38	; 56
    185e:	80 93 05 38 	sts	0x3805, r24	; 0x803805 <auRepAddr>
    1862:	90 93 06 38 	sts	0x3806, r25	; 0x803806 <auRepAddr+0x1>
            }

            //Bad (buzzer)
            if ((effect&0xE0)==32){
    1866:	80 91 3a 38 	lds	r24, 0x383A	; 0x80383a <effect>
    186a:	90 91 3b 38 	lds	r25, 0x383B	; 0x80383b <effect+0x1>
    186e:	80 7e       	andi	r24, 0xE0	; 224
    1870:	99 27       	eor	r25, r25
    1872:	80 97       	sbiw	r24, 0x20	; 32
    1874:	09 f0       	breq	.+2      	; 0x1878 <GenerateAudio+0x56>
    1876:	59 c0       	rjmp	.+178    	; 0x192a <GenerateAudio+0x108>
                static uint8_t auBuffer[17] = {1, 255, 128, 128, 192, 255, 64, 255, 192, 128, 64, 1, 192, 1, 64, 128, 0}; 
                static uint8_t loudness, duration, start;
                floatSpeed(1, 0x2000, 0x2200);
    1878:	40 e0       	ldi	r20, 0x00	; 0
    187a:	52 e2       	ldi	r21, 0x22	; 34
    187c:	60 e0       	ldi	r22, 0x00	; 0
    187e:	70 e2       	ldi	r23, 0x20	; 32
    1880:	81 e0       	ldi	r24, 0x01	; 1
    1882:	56 dd       	rcall	.-1364   	; 0x1330 <floatSpeed>
                auBuffer[2] = floatAround(0x80, 5, 0x01, 0x00);
    1884:	20 e0       	ldi	r18, 0x00	; 0
    1886:	41 e0       	ldi	r20, 0x01	; 1
    1888:	65 e0       	ldi	r22, 0x05	; 5
    188a:	80 e8       	ldi	r24, 0x80	; 128
    188c:	83 dd       	rcall	.-1274   	; 0x1394 <floatAround>
    188e:	80 93 12 38 	sts	0x3812, r24	; 0x803812 <auBuffer.3963+0x2>

                if (buttonMark) {
    1892:	80 91 42 38 	lds	r24, 0x3842	; 0x803842 <buttonMark>
    1896:	88 23       	and	r24, r24
    1898:	09 f4       	brne	.+2      	; 0x189c <GenerateAudio+0x7a>
    189a:	47 c0       	rjmp	.+142    	; 0x192a <GenerateAudio+0x108>
                    if (start == 0) {
    189c:	80 91 57 38 	lds	r24, 0x3857	; 0x803857 <start.3966>
    18a0:	81 11       	cpse	r24, r1
    18a2:	15 c0       	rjmp	.+42     	; 0x18ce <GenerateAudio+0xac>
                        duration = 4;
    18a4:	84 e0       	ldi	r24, 0x04	; 4
    18a6:	80 93 56 38 	sts	0x3856, r24	; 0x803856 <duration.3965>
                        loudness = 0xff;
    18aa:	8f ef       	ldi	r24, 0xFF	; 255
    18ac:	80 93 55 38 	sts	0x3855, r24	; 0x803855 <loudness.3964>
                        TCB1_CCMP = 0x2000;
    18b0:	80 e0       	ldi	r24, 0x00	; 0
    18b2:	90 e2       	ldi	r25, 0x20	; 32
    18b4:	80 93 5c 0a 	sts	0x0A5C, r24	; 0x800a5c <__TEXT_REGION_LENGTH__+0x700a5c>
    18b8:	90 93 5d 0a 	sts	0x0A5D, r25	; 0x800a5d <__TEXT_REGION_LENGTH__+0x700a5d>
                        auRepAddr = &auBuffer[0];
    18bc:	80 e1       	ldi	r24, 0x10	; 16
    18be:	98 e3       	ldi	r25, 0x38	; 56
    18c0:	80 93 05 38 	sts	0x3805, r24	; 0x803805 <auRepAddr>
    18c4:	90 93 06 38 	sts	0x3806, r25	; 0x803806 <auRepAddr+0x1>
                        start = 1;
    18c8:	81 e0       	ldi	r24, 0x01	; 1
    18ca:	80 93 57 38 	sts	0x3857, r24	; 0x803857 <start.3966>
                    }

                    if (loudness) {
    18ce:	80 91 55 38 	lds	r24, 0x3855	; 0x803855 <loudness.3964>
    18d2:	88 23       	and	r24, r24
    18d4:	69 f0       	breq	.+26     	; 0x18f0 <GenerateAudio+0xce>
                        auVolume = loudness;
    18d6:	80 93 b6 3a 	sts	0x3AB6, r24	; 0x803ab6 <auVolume>
                        if (duration) duration--; else loudness >>= 1;
    18da:	90 91 56 38 	lds	r25, 0x3856	; 0x803856 <duration.3965>
    18de:	99 23       	and	r25, r25
    18e0:	21 f0       	breq	.+8      	; 0x18ea <GenerateAudio+0xc8>
    18e2:	91 50       	subi	r25, 0x01	; 1
    18e4:	90 93 56 38 	sts	0x3856, r25	; 0x803856 <duration.3965>
    18e8:	03 c0       	rjmp	.+6      	; 0x18f0 <GenerateAudio+0xce>
    18ea:	86 95       	lsr	r24
    18ec:	80 93 55 38 	sts	0x3855, r24	; 0x803855 <loudness.3964>
                    } 

                    if (loudness == 0) {
    18f0:	80 91 55 38 	lds	r24, 0x3855	; 0x803855 <loudness.3964>
    18f4:	81 11       	cpse	r24, r1
    18f6:	19 c0       	rjmp	.+50     	; 0x192a <GenerateAudio+0x108>
                        effect &= 0x1f;
    18f8:	80 91 3a 38 	lds	r24, 0x383A	; 0x80383a <effect>
    18fc:	90 91 3b 38 	lds	r25, 0x383B	; 0x80383b <effect+0x1>
    1900:	8f 71       	andi	r24, 0x1F	; 31
    1902:	99 27       	eor	r25, r25
    1904:	80 93 3a 38 	sts	0x383A, r24	; 0x80383a <effect>
    1908:	90 93 3b 38 	sts	0x383B, r25	; 0x80383b <effect+0x1>
                        auRepAddr = &zero;
    190c:	88 e3       	ldi	r24, 0x38	; 56
    190e:	98 e3       	ldi	r25, 0x38	; 56
    1910:	80 93 05 38 	sts	0x3805, r24	; 0x803805 <auRepAddr>
    1914:	90 93 06 38 	sts	0x3806, r25	; 0x803806 <auRepAddr+0x1>
                        auSmpAddr = &zero;
    1918:	80 93 07 38 	sts	0x3807, r24	; 0x803807 <auSmpAddr>
    191c:	90 93 08 38 	sts	0x3808, r25	; 0x803808 <auSmpAddr+0x1>
                        auVolume = 0xff;
    1920:	8f ef       	ldi	r24, 0xFF	; 255
    1922:	80 93 b6 3a 	sts	0x3AB6, r24	; 0x803ab6 <auVolume>
                        start = 0;
    1926:	10 92 57 38 	sts	0x3857, r1	; 0x803857 <start.3966>
                    }
                }
            }

            //Good (bell)
            if ((effect&0xE0)==64){
    192a:	80 91 3a 38 	lds	r24, 0x383A	; 0x80383a <effect>
    192e:	90 91 3b 38 	lds	r25, 0x383B	; 0x80383b <effect+0x1>
                //auBuffer = 
            }

            //Rain storm with whistling wind
            if ((effect&0xE0)==96){
    1932:	80 91 3a 38 	lds	r24, 0x383A	; 0x80383a <effect>
    1936:	90 91 3b 38 	lds	r25, 0x383B	; 0x80383b <effect+0x1>
    193a:	80 7e       	andi	r24, 0xE0	; 224
    193c:	99 27       	eor	r25, r25
    193e:	80 36       	cpi	r24, 0x60	; 96
    1940:	91 05       	cpc	r25, r1
    1942:	d1 f5       	brne	.+116    	; 0x19b8 <GenerateAudio+0x196>
                static uint8_t auBuffer[7];
                auBuffer[6]= 0;        
    1944:	10 92 54 38 	sts	0x3854, r1	; 0x803854 <auBuffer.3967+0x6>
                auRepAddr = &auBuffer[0];
    1948:	8e e4       	ldi	r24, 0x4E	; 78
    194a:	98 e3       	ldi	r25, 0x38	; 56
    194c:	80 93 05 38 	sts	0x3805, r24	; 0x803805 <auRepAddr>
    1950:	90 93 06 38 	sts	0x3806, r25	; 0x803806 <auRepAddr+0x1>
    1954:	8c 01       	movw	r16, r24

                //Noise is to be generated fast, outside of buttonMark loop
                for (uint8_t x=1; x<6; ++x){
    1956:	c1 e0       	ldi	r28, 0x01	; 1
                    if (x%3) auBuffer[x] = floatAround(0x80, 5, 0x01, 0x00);
    1958:	d3 e0       	ldi	r29, 0x03	; 3
    195a:	8c 2f       	mov	r24, r28
    195c:	6d 2f       	mov	r22, r29
    195e:	0e 94 73 1e 	call	0x3ce6	; 0x3ce6 <__udivmodqi4>
    1962:	99 23       	and	r25, r25
    1964:	39 f0       	breq	.+14     	; 0x1974 <GenerateAudio+0x152>
    1966:	20 e0       	ldi	r18, 0x00	; 0
    1968:	41 e0       	ldi	r20, 0x01	; 1
    196a:	65 e0       	ldi	r22, 0x05	; 5
    196c:	80 e8       	ldi	r24, 0x80	; 128
    196e:	12 dd       	rcall	.-1500   	; 0x1394 <floatAround>
    1970:	f8 01       	movw	r30, r16
    1972:	81 83       	std	Z+1, r24	; 0x01
                static uint8_t auBuffer[7];
                auBuffer[6]= 0;        
                auRepAddr = &auBuffer[0];

                //Noise is to be generated fast, outside of buttonMark loop
                for (uint8_t x=1; x<6; ++x){
    1974:	cf 5f       	subi	r28, 0xFF	; 255
    1976:	0f 5f       	subi	r16, 0xFF	; 255
    1978:	1f 4f       	sbci	r17, 0xFF	; 255
    197a:	c6 30       	cpi	r28, 0x06	; 6
    197c:	71 f7       	brne	.-36     	; 0x195a <GenerateAudio+0x138>
                    if (x%3) auBuffer[x] = floatAround(0x80, 5, 0x01, 0x00);
                }

                if (buttonMark){
    197e:	80 91 42 38 	lds	r24, 0x3842	; 0x803842 <buttonMark>
    1982:	88 23       	and	r24, r24
    1984:	c9 f0       	breq	.+50     	; 0x19b8 <GenerateAudio+0x196>
                    //"Floating" speed for howl (and noise, but that's hardly audible)
                    floatSpeed(5, 0x0280, 0x0400);
    1986:	40 e0       	ldi	r20, 0x00	; 0
    1988:	54 e0       	ldi	r21, 0x04	; 4
    198a:	60 e8       	ldi	r22, 0x80	; 128
    198c:	72 e0       	ldi	r23, 0x02	; 2
    198e:	85 e0       	ldi	r24, 0x05	; 5
    1990:	cf dc       	rcall	.-1634   	; 0x1330 <floatSpeed>
            
                    //"Floating" volume and wind howl during 8 bit rainstorm needs some randomness
                    auVolume = floatAround(auVolume, 2, 0x10, 0xA0);
    1992:	80 91 b6 3a 	lds	r24, 0x3AB6	; 0x803ab6 <auVolume>
    1996:	20 ea       	ldi	r18, 0xA0	; 160
    1998:	40 e1       	ldi	r20, 0x10	; 16
    199a:	62 e0       	ldi	r22, 0x02	; 2
    199c:	fb dc       	rcall	.-1546   	; 0x1394 <floatAround>
    199e:	80 93 b6 3a 	sts	0x3AB6, r24	; 0x803ab6 <auVolume>
                    auBuffer[0] = floatAround(auBuffer[0], 2, 0x70, 0x90);
    19a2:	20 e9       	ldi	r18, 0x90	; 144
    19a4:	40 e7       	ldi	r20, 0x70	; 112
    19a6:	62 e0       	ldi	r22, 0x02	; 2
    19a8:	80 91 4e 38 	lds	r24, 0x384E	; 0x80384e <auBuffer.3967>
    19ac:	f3 dc       	rcall	.-1562   	; 0x1394 <floatAround>
    19ae:	80 93 4e 38 	sts	0x384E, r24	; 0x80384e <auBuffer.3967>
                    auBuffer[3] = 0xFF-auBuffer[0];  //Inverse value of wind[0] produces a whistle
    19b2:	80 95       	com	r24
    19b4:	80 93 51 38 	sts	0x3851, r24	; 0x803851 <auBuffer.3967+0x3>
                }
            }

            //Footsteps
            if ((effect&0xE0)==128){
    19b8:	80 91 3a 38 	lds	r24, 0x383A	; 0x80383a <effect>
    19bc:	90 91 3b 38 	lds	r25, 0x383B	; 0x80383b <effect+0x1>

            }

            //
            if ((effect&0xE0)==160){
    19c0:	80 91 3a 38 	lds	r24, 0x383A	; 0x80383a <effect>
    19c4:	90 91 3b 38 	lds	r25, 0x383B	; 0x80383b <effect+0x1>

            }

            //
            if ((effect&0xE0)==192){
    19c8:	80 91 3a 38 	lds	r24, 0x383A	; 0x80383a <effect>
    19cc:	90 91 3b 38 	lds	r25, 0x383B	; 0x80383b <effect+0x1>
    19d0:	66 c0       	rjmp	.+204    	; 0x1a9e <GenerateAudio+0x27c>
            }

            //
            else {
            }
        } else if ((effect&0xff00)==0x0100) {
    19d2:	80 91 3a 38 	lds	r24, 0x383A	; 0x80383a <effect>
    19d6:	90 91 3b 38 	lds	r25, 0x383B	; 0x80383b <effect+0x1>
    19da:	88 27       	eor	r24, r24
    19dc:	81 15       	cp	r24, r1
    19de:	91 40       	sbci	r25, 0x01	; 1
    19e0:	09 f0       	breq	.+2      	; 0x19e4 <GenerateAudio+0x1c2>
    19e2:	5d c0       	rjmp	.+186    	; 0x1a9e <GenerateAudio+0x27c>
            if ((effect&0xE0) <= 0x90) {
    19e4:	80 91 3a 38 	lds	r24, 0x383A	; 0x80383a <effect>
    19e8:	90 91 3b 38 	lds	r25, 0x383B	; 0x80383b <effect+0x1>
    19ec:	80 7e       	andi	r24, 0xE0	; 224
    19ee:	99 27       	eor	r25, r25
    19f0:	81 39       	cpi	r24, 0x91	; 145
    19f2:	91 05       	cpc	r25, r1
    19f4:	08 f0       	brcs	.+2      	; 0x19f8 <GenerateAudio+0x1d6>
    19f6:	53 c0       	rjmp	.+166    	; 0x1a9e <GenerateAudio+0x27c>
                
                static uint8_t auBuffer[3] = {255, 1, 0};
                static uint8_t duration, start;
                uint16_t freq = ((effect&0xE0)+1)<<4;
    19f8:	60 91 3a 38 	lds	r22, 0x383A	; 0x80383a <effect>
    19fc:	70 91 3b 38 	lds	r23, 0x383B	; 0x80383b <effect+0x1>
    1a00:	60 7e       	andi	r22, 0xE0	; 224
    1a02:	77 27       	eor	r23, r23
    1a04:	6f 5f       	subi	r22, 0xFF	; 255
    1a06:	7f 4f       	sbci	r23, 0xFF	; 255
    1a08:	84 e0       	ldi	r24, 0x04	; 4
    1a0a:	66 0f       	add	r22, r22
    1a0c:	77 1f       	adc	r23, r23
    1a0e:	8a 95       	dec	r24
                floatSpeed(1, freq+0x0200, freq+0x0300);
    1a10:	e1 f7       	brne	.-8      	; 0x1a0a <GenerateAudio+0x1e8>
    1a12:	ab 01       	movw	r20, r22
    1a14:	5d 5f       	subi	r21, 0xFD	; 253
    1a16:	7e 5f       	subi	r23, 0xFE	; 254
    1a18:	81 e0       	ldi	r24, 0x01	; 1
                auBuffer[2] = floatAround(0x80, 5, 0x01, 0x00);
    1a1a:	8a dc       	rcall	.-1772   	; 0x1330 <floatSpeed>
    1a1c:	20 e0       	ldi	r18, 0x00	; 0
    1a1e:	41 e0       	ldi	r20, 0x01	; 1
    1a20:	65 e0       	ldi	r22, 0x05	; 5
    1a22:	80 e8       	ldi	r24, 0x80	; 128
    1a24:	b7 dc       	rcall	.-1682   	; 0x1394 <floatAround>
    1a26:	80 93 0f 38 	sts	0x380F, r24	; 0x80380f <auBuffer.3972+0x2>

                if (buttonMark) {
    1a2a:	80 91 42 38 	lds	r24, 0x3842	; 0x803842 <buttonMark>
    1a2e:	88 23       	and	r24, r24
    1a30:	b1 f1       	breq	.+108    	; 0x1a9e <GenerateAudio+0x27c>
                    if (start == 0) {
    1a32:	80 91 4d 38 	lds	r24, 0x384D	; 0x80384d <start.3974>
    1a36:	81 11       	cpse	r24, r1
    1a38:	0e c0       	rjmp	.+28     	; 0x1a56 <GenerateAudio+0x234>
                        duration = 4;
    1a3a:	84 e0       	ldi	r24, 0x04	; 4
    1a3c:	80 93 4c 38 	sts	0x384C, r24	; 0x80384c <duration.3973>
                        auRepAddr = &auBuffer[0];
    1a40:	8d e0       	ldi	r24, 0x0D	; 13
    1a42:	98 e3       	ldi	r25, 0x38	; 56
    1a44:	80 93 05 38 	sts	0x3805, r24	; 0x803805 <auRepAddr>
    1a48:	90 93 06 38 	sts	0x3806, r25	; 0x803806 <auRepAddr+0x1>
                        auVolume = 255;
    1a4c:	8f ef       	ldi	r24, 0xFF	; 255
    1a4e:	80 93 b6 3a 	sts	0x3AB6, r24	; 0x803ab6 <auVolume>
                        start = 1;
    1a52:	c0 93 4d 38 	sts	0x384D, r28	; 0x80384d <start.3974>
                    }   if (duration == 0) {
    1a56:	80 91 4c 38 	lds	r24, 0x384C	; 0x80384c <duration.3973>
    1a5a:	81 11       	cpse	r24, r1
    1a5c:	1a c0       	rjmp	.+52     	; 0x1a92 <GenerateAudio+0x270>
                        effect &= 0x1f;
    1a5e:	80 91 3a 38 	lds	r24, 0x383A	; 0x80383a <effect>
    1a62:	90 91 3b 38 	lds	r25, 0x383B	; 0x80383b <effect+0x1>
    1a66:	8f 71       	andi	r24, 0x1F	; 31
    1a68:	99 27       	eor	r25, r25
    1a6a:	80 93 3a 38 	sts	0x383A, r24	; 0x80383a <effect>
    1a6e:	90 93 3b 38 	sts	0x383B, r25	; 0x80383b <effect+0x1>
                        auRepAddr = &zero;
    1a72:	88 e3       	ldi	r24, 0x38	; 56
    1a74:	98 e3       	ldi	r25, 0x38	; 56
    1a76:	80 93 05 38 	sts	0x3805, r24	; 0x803805 <auRepAddr>
    1a7a:	90 93 06 38 	sts	0x3806, r25	; 0x803806 <auRepAddr+0x1>
                        auSmpAddr = &zero;
    1a7e:	80 93 07 38 	sts	0x3807, r24	; 0x803807 <auSmpAddr>
    1a82:	90 93 08 38 	sts	0x3808, r25	; 0x803808 <auSmpAddr+0x1>
                        auVolume = 0xff;
    1a86:	8f ef       	ldi	r24, 0xFF	; 255
    1a88:	80 93 b6 3a 	sts	0x3AB6, r24	; 0x803ab6 <auVolume>
                        start = 0;
    1a8c:	10 92 4d 38 	sts	0x384D, r1	; 0x80384d <start.3974>
    1a90:	06 c0       	rjmp	.+12     	; 0x1a9e <GenerateAudio+0x27c>
                    } else duration--;
    1a92:	81 50       	subi	r24, 0x01	; 1
    1a94:	80 93 4c 38 	sts	0x384C, r24	; 0x80384c <duration.3973>
    1a98:	02 c0       	rjmp	.+4      	; 0x1a9e <GenerateAudio+0x27c>
                }
            }
        }
    } else {
        detHdPh = 0;
    1a9a:	10 92 bf 3a 	sts	0x3ABF, r1	; 0x803abf <detHdPh>
    }
    return buttonMark;
    1a9e:	80 91 42 38 	lds	r24, 0x3842	; 0x803842 <buttonMark>
}
    1aa2:	df 91       	pop	r29
    1aa4:	cf 91       	pop	r28
    1aa6:	1f 91       	pop	r17
    1aa8:	0f 91       	pop	r16
    1aaa:	08 95       	ret

00001aac <getClock>:

uint16_t getClock() {
    return 60 * minuteMark + (RTC_CNT>>9);
    1aac:	20 91 43 38 	lds	r18, 0x3843	; 0x803843 <minuteMark>
    1ab0:	80 91 48 01 	lds	r24, 0x0148	; 0x800148 <__TEXT_REGION_LENGTH__+0x700148>
    1ab4:	90 91 49 01 	lds	r25, 0x0149	; 0x800149 <__TEXT_REGION_LENGTH__+0x700149>
    1ab8:	89 2f       	mov	r24, r25
    1aba:	99 27       	eor	r25, r25
    1abc:	86 95       	lsr	r24
}
    1abe:	3c e3       	ldi	r19, 0x3C	; 60
    1ac0:	23 9f       	mul	r18, r19
    1ac2:	80 0d       	add	r24, r0
    1ac4:	91 1d       	adc	r25, r1
    1ac6:	11 24       	eor	r1, r1
    1ac8:	08 95       	ret

00001aca <idleTimeout>:

uint8_t idleTimeout(uint16_t lastActive, uint16_t maxIdle) {
    1aca:	0f 93       	push	r16
    1acc:	1f 93       	push	r17
    1ace:	cf 93       	push	r28
    1ad0:	df 93       	push	r29
    1ad2:	8c 01       	movw	r16, r24
    1ad4:	eb 01       	movw	r28, r22
    uint16_t curClock;

    curClock = getClock();
    1ad6:	ea df       	rcall	.-44     	; 0x1aac <getClock>
    1ad8:	9c 01       	movw	r18, r24
    if (curClock < lastActive)
    1ada:	80 17       	cp	r24, r16
    1adc:	91 07       	cpc	r25, r17
    1ade:	08 f4       	brcc	.+2      	; 0x1ae2 <idleTimeout+0x18>
        curClock += 256 * 60;
    1ae0:	34 5c       	subi	r19, 0xC4	; 196

    return (curClock > (lastActive + maxIdle));
    1ae2:	c0 0f       	add	r28, r16
    1ae4:	d1 1f       	adc	r29, r17
    1ae6:	81 e0       	ldi	r24, 0x01	; 1
    1ae8:	c2 17       	cp	r28, r18
    1aea:	d3 07       	cpc	r29, r19
    1aec:	08 f0       	brcs	.+2      	; 0x1af0 <idleTimeout+0x26>
    1aee:	80 e0       	ldi	r24, 0x00	; 0
}
    1af0:	df 91       	pop	r29
    1af2:	cf 91       	pop	r28
    1af4:	1f 91       	pop	r17
    1af6:	0f 91       	pop	r16
    1af8:	08 95       	ret

00001afa <simonLed>:

void simonTone(uint8_t val) {
    // TODO some way to set teh audio stuff
}

void simonLed(uint8_t val) {
    1afa:	cf 93       	push	r28
    1afc:	df 93       	push	r29
    1afe:	e0 ec       	ldi	r30, 0xC0	; 192
    1b00:	fd eb       	ldi	r31, 0xBD	; 189
    1b02:	ef 01       	movw	r28, r30
    for (uint8_t n = 0; n < 5; n++) {
        iLED[WING[L][n]] = 0;
    1b04:	a5 81       	ldd	r26, Z+5	; 0x05
    1b06:	b0 e0       	ldi	r27, 0x00	; 0
    1b08:	a6 53       	subi	r26, 0x36	; 54
    1b0a:	b5 4c       	sbci	r27, 0xC5	; 197
    1b0c:	1c 92       	st	X, r1
    1b0e:	31 96       	adiw	r30, 0x01	; 1
        iLED[WING[R][n]] = 0;
    1b10:	a8 81       	ld	r26, Y
    1b12:	b0 e0       	ldi	r27, 0x00	; 0
    1b14:	a6 53       	subi	r26, 0x36	; 54
    1b16:	b5 4c       	sbci	r27, 0xC5	; 197
    1b18:	1c 92       	st	X, r1
void simonTone(uint8_t val) {
    // TODO some way to set teh audio stuff
}

void simonLed(uint8_t val) {
    for (uint8_t n = 0; n < 5; n++) {
    1b1a:	9d eb       	ldi	r25, 0xBD	; 189
    1b1c:	e5 3c       	cpi	r30, 0xC5	; 197
    1b1e:	f9 07       	cpc	r31, r25
    1b20:	81 f7       	brne	.-32     	; 0x1b02 <simonLed+0x8>
        iLED[WING[L][n]] = 0;
        iLED[WING[R][n]] = 0;
    }
    if (val == 1) {
    1b22:	81 30       	cpi	r24, 0x01	; 1
    1b24:	99 f4       	brne	.+38     	; 0x1b4c <simonLed+0x52>
        iLED[WING[L][0]] = dimValue;
    1b26:	e0 91 c5 bd 	lds	r30, 0xBDC5	; 0x80bdc5 <__bss_end+0x82ab>
    1b2a:	f0 e0       	ldi	r31, 0x00	; 0
    1b2c:	80 91 0b 38 	lds	r24, 0x380B	; 0x80380b <dimValue>
    1b30:	e6 53       	subi	r30, 0x36	; 54
    1b32:	f5 4c       	sbci	r31, 0xC5	; 197
    1b34:	80 83       	st	Z, r24
        iLED[WING[L][1]] = dimValue;
    1b36:	e0 91 c6 bd 	lds	r30, 0xBDC6	; 0x80bdc6 <__bss_end+0x82ac>
    1b3a:	f0 e0       	ldi	r31, 0x00	; 0
    1b3c:	80 91 0b 38 	lds	r24, 0x380B	; 0x80380b <dimValue>
    1b40:	e6 53       	subi	r30, 0x36	; 54
    1b42:	f5 4c       	sbci	r31, 0xC5	; 197
    1b44:	80 83       	st	Z, r24
        iLED[WING[L][2]] = dimValue;
    1b46:	e0 91 c7 bd 	lds	r30, 0xBDC7	; 0x80bdc7 <__bss_end+0x82ad>
    1b4a:	2e c0       	rjmp	.+92     	; 0x1ba8 <simonLed+0xae>
    } else if (val == 2) {
    1b4c:	82 30       	cpi	r24, 0x02	; 2
    1b4e:	59 f4       	brne	.+22     	; 0x1b66 <simonLed+0x6c>
        iLED[WING[L][3]] = dimValue;
    1b50:	e0 91 c8 bd 	lds	r30, 0xBDC8	; 0x80bdc8 <__bss_end+0x82ae>
    1b54:	f0 e0       	ldi	r31, 0x00	; 0
    1b56:	80 91 0b 38 	lds	r24, 0x380B	; 0x80380b <dimValue>
    1b5a:	e6 53       	subi	r30, 0x36	; 54
    1b5c:	f5 4c       	sbci	r31, 0xC5	; 197
    1b5e:	80 83       	st	Z, r24
        iLED[WING[L][4]] = dimValue;
    1b60:	e0 91 c9 bd 	lds	r30, 0xBDC9	; 0x80bdc9 <__bss_end+0x82af>
    1b64:	21 c0       	rjmp	.+66     	; 0x1ba8 <simonLed+0xae>
    } else if (val == 3) {
    1b66:	83 30       	cpi	r24, 0x03	; 3
    1b68:	99 f4       	brne	.+38     	; 0x1b90 <simonLed+0x96>
        iLED[WING[R][0]] = dimValue;
    1b6a:	e0 91 c0 bd 	lds	r30, 0xBDC0	; 0x80bdc0 <__bss_end+0x82a6>
    1b6e:	f0 e0       	ldi	r31, 0x00	; 0
    1b70:	80 91 0b 38 	lds	r24, 0x380B	; 0x80380b <dimValue>
    1b74:	e6 53       	subi	r30, 0x36	; 54
    1b76:	f5 4c       	sbci	r31, 0xC5	; 197
    1b78:	80 83       	st	Z, r24
        iLED[WING[R][1]] = dimValue;
    1b7a:	e0 91 c1 bd 	lds	r30, 0xBDC1	; 0x80bdc1 <__bss_end+0x82a7>
    1b7e:	f0 e0       	ldi	r31, 0x00	; 0
    1b80:	80 91 0b 38 	lds	r24, 0x380B	; 0x80380b <dimValue>
    1b84:	e6 53       	subi	r30, 0x36	; 54
    1b86:	f5 4c       	sbci	r31, 0xC5	; 197
    1b88:	80 83       	st	Z, r24
        iLED[WING[R][2]] = dimValue;
    1b8a:	e0 91 c2 bd 	lds	r30, 0xBDC2	; 0x80bdc2 <__bss_end+0x82a8>
    1b8e:	0c c0       	rjmp	.+24     	; 0x1ba8 <simonLed+0xae>
    } else if (val == 4) {
    1b90:	84 30       	cpi	r24, 0x04	; 4
    1b92:	81 f4       	brne	.+32     	; 0x1bb4 <simonLed+0xba>
        iLED[WING[R][3]] = dimValue;
    1b94:	e0 91 c3 bd 	lds	r30, 0xBDC3	; 0x80bdc3 <__bss_end+0x82a9>
    1b98:	f0 e0       	ldi	r31, 0x00	; 0
    1b9a:	80 91 0b 38 	lds	r24, 0x380B	; 0x80380b <dimValue>
    1b9e:	e6 53       	subi	r30, 0x36	; 54
    1ba0:	f5 4c       	sbci	r31, 0xC5	; 197
    1ba2:	80 83       	st	Z, r24
        iLED[WING[R][4]] = dimValue;
    1ba4:	e0 91 c4 bd 	lds	r30, 0xBDC4	; 0x80bdc4 <__bss_end+0x82aa>
    1ba8:	f0 e0       	ldi	r31, 0x00	; 0
    1baa:	80 91 0b 38 	lds	r24, 0x380B	; 0x80380b <dimValue>
    1bae:	e6 53       	subi	r30, 0x36	; 54
    1bb0:	f5 4c       	sbci	r31, 0xC5	; 197
    1bb2:	80 83       	st	Z, r24
    }
    simonTone(val);
}
    1bb4:	df 91       	pop	r29
    1bb6:	cf 91       	pop	r28
    1bb8:	08 95       	ret

00001bba <BastetDictates>:

// Main game loop
uint8_t BastetDictates() {
    1bba:	cf 93       	push	r28
    1bbc:	df 93       	push	r29
    if (CheckState(BASTET_COMPLETED))
    1bbe:	8a e7       	ldi	r24, 0x7A	; 122
    1bc0:	c6 dc       	rcall	.-1652   	; 0x154e <CheckState>
    1bc2:	81 11       	cpse	r24, r1
    1bc4:	b8 c0       	rjmp	.+368    	; 0x1d36 <BastetDictates+0x17c>
        return 0;

    if ((TEXT != gameNow) && (BASTET != gameNow))
    1bc6:	80 91 3c 38 	lds	r24, 0x383C	; 0x80383c <gameNow>
    1bca:	8d 7f       	andi	r24, 0xFD	; 253
    1bcc:	09 f0       	breq	.+2      	; 0x1bd0 <BastetDictates+0x16>
    1bce:	b3 c0       	rjmp	.+358    	; 0x1d36 <BastetDictates+0x17c>
        return 0;

    if (BASTET_BOOT == simonGameState) {
    1bd0:	80 91 5c 38 	lds	r24, 0x385C	; 0x80385c <simonGameState>
    1bd4:	81 11       	cpse	r24, r1
    1bd6:	22 c0       	rjmp	.+68     	; 0x1c1c <BastetDictates+0x62>
        simonPos = ((adcPhot+adcTemp)&0x3f);
    1bd8:	20 91 bd 3a 	lds	r18, 0x3ABD	; 0x803abd <adcPhot>
    1bdc:	30 91 be 3a 	lds	r19, 0x3ABE	; 0x803abe <adcPhot+0x1>
    1be0:	80 91 f5 3a 	lds	r24, 0x3AF5	; 0x803af5 <adcTemp>
    1be4:	90 91 f6 3a 	lds	r25, 0x3AF6	; 0x803af6 <adcTemp+0x1>
    1be8:	82 0f       	add	r24, r18
    1bea:	8f 73       	andi	r24, 0x3F	; 63
    1bec:	80 93 2b 38 	sts	0x382B, r24	; 0x80382b <simonPos>
        for(uint8_t x=0; x<simonPos; ++x) lfsr();
    1bf0:	c0 e0       	ldi	r28, 0x00	; 0
    1bf2:	80 91 2b 38 	lds	r24, 0x382B	; 0x80382b <simonPos>
    1bf6:	c8 17       	cp	r28, r24
    1bf8:	18 f4       	brcc	.+6      	; 0x1c00 <BastetDictates+0x46>
    1bfa:	7b db       	rcall	.-2314   	; 0x12f2 <lfsr>
    1bfc:	cf 5f       	subi	r28, 0xFF	; 255
    1bfe:	f9 cf       	rjmp	.-14     	; 0x1bf2 <BastetDictates+0x38>
    1c00:	ce e5       	ldi	r28, 0x5E	; 94

        for (uint8_t i = 0; i < BASTET_LENGTH; i++) {
            simonState[i] = (lfsr() % 4);
    1c02:	d8 e3       	ldi	r29, 0x38	; 56
    1c04:	76 db       	rcall	.-2324   	; 0x12f2 <lfsr>
    1c06:	83 70       	andi	r24, 0x03	; 3
    1c08:	89 93       	st	Y+, r24

    if (BASTET_BOOT == simonGameState) {
        simonPos = ((adcPhot+adcTemp)&0x3f);
        for(uint8_t x=0; x<simonPos; ++x) lfsr();

        for (uint8_t i = 0; i < BASTET_LENGTH; i++) {
    1c0a:	88 e3       	ldi	r24, 0x38	; 56
    1c0c:	ce 36       	cpi	r28, 0x6E	; 110
    1c0e:	d8 07       	cpc	r29, r24
    1c10:	c9 f7       	brne	.-14     	; 0x1c04 <BastetDictates+0x4a>
            simonState[i] = (lfsr() % 4);
        }
        simonPos = 1;
    1c12:	81 e0       	ldi	r24, 0x01	; 1
    1c14:	80 93 2b 38 	sts	0x382B, r24	; 0x80382b <simonPos>
        simonGameState = BASTET_GAME_START;
    1c18:	80 93 5c 38 	sts	0x385C, r24	; 0x80385c <simonGameState>
    }

    if (BASTET_GAME_START == simonGameState) {
    1c1c:	80 91 5c 38 	lds	r24, 0x385C	; 0x80385c <simonGameState>
    1c20:	81 30       	cpi	r24, 0x01	; 1
    1c22:	29 f4       	brne	.+10     	; 0x1c2e <BastetDictates+0x74>
        // TODO start animu
        simonGameState = BASTET_GAME_SHOW_PATTERN;
    1c24:	83 e0       	ldi	r24, 0x03	; 3
    1c26:	80 93 5c 38 	sts	0x385C, r24	; 0x80385c <simonGameState>
        simonTimer = 0;
    1c2a:	10 92 5b 38 	sts	0x385B, r1	; 0x80385b <simonTimer>
    }

    if (BASTET_GAME_SHOW_PATTERN == simonGameState) {
    1c2e:	80 91 5c 38 	lds	r24, 0x385C	; 0x80385c <simonGameState>
    1c32:	83 30       	cpi	r24, 0x03	; 3
    1c34:	d9 f4       	brne	.+54     	; 0x1c6c <BastetDictates+0xb2>
        // assuming 15Hz
        uint8_t pos = simonTimer / (15 - (simonPos>>1));
    1c36:	20 91 2b 38 	lds	r18, 0x382B	; 0x80382b <simonPos>
    1c3a:	80 91 5b 38 	lds	r24, 0x385B	; 0x80385b <simonTimer>
    1c3e:	90 e0       	ldi	r25, 0x00	; 0
    1c40:	32 2f       	mov	r19, r18
    1c42:	36 95       	lsr	r19
    1c44:	6f e0       	ldi	r22, 0x0F	; 15
    1c46:	70 e0       	ldi	r23, 0x00	; 0
    1c48:	63 1b       	sub	r22, r19
    1c4a:	71 09       	sbc	r23, r1
    1c4c:	0e 94 93 1e 	call	0x3d26	; 0x3d26 <__divmodhi4>
        if (pos > simonPos) {
    1c50:	26 17       	cp	r18, r22
    1c52:	30 f4       	brcc	.+12     	; 0x1c60 <BastetDictates+0xa6>
            simonGameState = BASTET_GAME_INPUT;
    1c54:	85 e0       	ldi	r24, 0x05	; 5
    1c56:	80 93 5c 38 	sts	0x385C, r24	; 0x80385c <simonGameState>
            simonLed(0);
    1c5a:	80 e0       	ldi	r24, 0x00	; 0
    1c5c:	4e df       	rcall	.-356    	; 0x1afa <simonLed>
            return 0;
    1c5e:	6b c0       	rjmp	.+214    	; 0x1d36 <BastetDictates+0x17c>
        }
        simonLed(simonState[pos]);
    1c60:	77 27       	eor	r23, r23
    1c62:	fb 01       	movw	r30, r22
    1c64:	e2 5a       	subi	r30, 0xA2	; 162
    1c66:	f7 4c       	sbci	r31, 0xC7	; 199
    1c68:	80 81       	ld	r24, Z
    1c6a:	47 df       	rcall	.-370    	; 0x1afa <simonLed>
    }

    if (BASTET_GAME_INPUT == simonGameState) {
    1c6c:	80 91 5c 38 	lds	r24, 0x385C	; 0x80385c <simonGameState>
    1c70:	85 30       	cpi	r24, 0x05	; 5
    1c72:	09 f0       	breq	.+2      	; 0x1c76 <BastetDictates+0xbc>
    1c74:	4e c0       	rjmp	.+156    	; 0x1d12 <BastetDictates+0x158>
        uint8_t choice = 0;
        if ((buttonState & 0xf0)&&(buttonState < 0xff)) {
    1c76:	e0 91 09 38 	lds	r30, 0x3809	; 0x803809 <buttonState>
    1c7a:	8e 2f       	mov	r24, r30
    1c7c:	80 7f       	andi	r24, 0xF0	; 240
    1c7e:	c9 f1       	breq	.+114    	; 0x1cf2 <BastetDictates+0x138>
    1c80:	ef 3f       	cpi	r30, 0xFF	; 255
    1c82:	b9 f1       	breq	.+110    	; 0x1cf2 <BastetDictates+0x138>
    1c84:	ef 70       	andi	r30, 0x0F	; 15
    1c86:	e1 50       	subi	r30, 0x01	; 1
    1c88:	e8 30       	cpi	r30, 0x08	; 8
    1c8a:	98 f5       	brcc	.+102    	; 0x1cf2 <BastetDictates+0x138>
    1c8c:	f0 e0       	ldi	r31, 0x00	; 0
    1c8e:	e4 5f       	subi	r30, 0xF4	; 244
    1c90:	f1 44       	sbci	r31, 0x41	; 65
    1c92:	c0 81       	ld	r28, Z
                    break;
            }
        }

        //Button pressed
        if (choice > 0) {
    1c94:	cc 23       	and	r28, r28
    1c96:	69 f1       	breq	.+90     	; 0x1cf2 <BastetDictates+0x138>
            gameNow = BASTET;
    1c98:	82 e0       	ldi	r24, 0x02	; 2
    1c9a:	80 93 3c 38 	sts	0x383C, r24	; 0x80383c <gameNow>
            if (simonProcessed == 0) {
    1c9e:	80 91 5a 38 	lds	r24, 0x385A	; 0x80385a <simonProcessed>
    1ca2:	81 11       	cpse	r24, r1
                simonTimer = 0;
    1ca4:	43 c0       	rjmp	.+134    	; 0x1d2c <BastetDictates+0x172>
    1ca6:	10 92 5b 38 	sts	0x385B, r1	; 0x80385b <simonTimer>
                simonLed(choice);
    1caa:	8c 2f       	mov	r24, r28
    1cac:	26 df       	rcall	.-436    	; 0x1afa <simonLed>
                // TODO something timer something 
                if (simonState[simonInputPos]+1 == choice) {
    1cae:	40 91 5d 38 	lds	r20, 0x385D	; 0x80385d <simonInputPos>
    1cb2:	e4 2f       	mov	r30, r20
    1cb4:	f0 e0       	ldi	r31, 0x00	; 0
    1cb6:	e2 5a       	subi	r30, 0xA2	; 162
    1cb8:	f7 4c       	sbci	r31, 0xC7	; 199
    1cba:	20 81       	ld	r18, Z
    1cbc:	30 e0       	ldi	r19, 0x00	; 0
    1cbe:	2f 5f       	subi	r18, 0xFF	; 255
    1cc0:	3f 4f       	sbci	r19, 0xFF	; 255
    1cc2:	8c 2f       	mov	r24, r28
    1cc4:	90 e0       	ldi	r25, 0x00	; 0
    1cc6:	28 17       	cp	r18, r24
    1cc8:	39 07       	cpc	r19, r25
    1cca:	21 f4       	brne	.+8      	; 0x1cd4 <BastetDictates+0x11a>
                    // TODO correct sound
                    simonInputPos++;
    1ccc:	4f 5f       	subi	r20, 0xFF	; 255
    1cce:	40 93 5d 38 	sts	0x385D, r20	; 0x80385d <simonInputPos>
                } else {
                    // TODO fail sound
                    simonInputPos = 0;
    1cd2:	06 c0       	rjmp	.+12     	; 0x1ce0 <BastetDictates+0x126>
    1cd4:	10 92 5d 38 	sts	0x385D, r1	; 0x80385d <simonInputPos>
                    gameNow = TEXT;
    1cd8:	10 92 3c 38 	sts	0x383C, r1	; 0x80383c <gameNow>
                    simonLed(0);
    1cdc:	80 e0       	ldi	r24, 0x00	; 0
                }

                if (simonInputPos == BASTET_LENGTH) {
    1cde:	0d df       	rcall	.-486    	; 0x1afa <simonLed>
    1ce0:	80 91 5d 38 	lds	r24, 0x385D	; 0x80385d <simonInputPos>
    1ce4:	80 31       	cpi	r24, 0x10	; 16
                    // TODO win animu
                    UpdateState(BASTET_COMPLETED);
    1ce6:	a9 f4       	brne	.+42     	; 0x1d12 <BastetDictates+0x158>
    1ce8:	8a e7       	ldi	r24, 0x7A	; 122
    1cea:	27 dc       	rcall	.-1970   	; 0x153a <UpdateState>
                    gameNow = TEXT;
    1cec:	10 92 3c 38 	sts	0x383C, r1	; 0x80383c <gameNow>
    1cf0:	10 c0       	rjmp	.+32     	; 0x1d12 <BastetDictates+0x158>
                }
            }
        
        //Button released, next or reset!
        } else {    
            if (simonInputPos == simonPos) {
    1cf2:	80 91 5d 38 	lds	r24, 0x385D	; 0x80385d <simonInputPos>
    1cf6:	90 91 2b 38 	lds	r25, 0x382B	; 0x80382b <simonPos>
    1cfa:	89 13       	cpse	r24, r25
    1cfc:	08 c0       	rjmp	.+16     	; 0x1d0e <BastetDictates+0x154>
                simonPos++;
    1cfe:	8f 5f       	subi	r24, 0xFF	; 255
    1d00:	80 93 2b 38 	sts	0x382B, r24	; 0x80382b <simonPos>
                simonInputPos = 0;
    1d04:	10 92 5d 38 	sts	0x385D, r1	; 0x80385d <simonInputPos>
                simonGameState = BASTET_GAME_SHOW_PATTERN;
    1d08:	83 e0       	ldi	r24, 0x03	; 3
    1d0a:	80 93 5c 38 	sts	0x385C, r24	; 0x80385c <simonGameState>
            }                    
            simonProcessed = 0;
    1d0e:	10 92 5a 38 	sts	0x385A, r1	; 0x80385a <simonProcessed>
        }
    }

    if (BASTET_GAME_WAIT_LEDS == simonGameState) {
    1d12:	80 91 5c 38 	lds	r24, 0x385C	; 0x80385c <simonGameState>
    1d16:	84 30       	cpi	r24, 0x04	; 4
        if (simonTimer >= 7) {
    1d18:	49 f4       	brne	.+18     	; 0x1d2c <BastetDictates+0x172>
    1d1a:	80 91 5b 38 	lds	r24, 0x385B	; 0x80385b <simonTimer>
    1d1e:	87 30       	cpi	r24, 0x07	; 7
            // on to next state after .5 second
            simonLed(0);  // LEDs off
    1d20:	28 f0       	brcs	.+10     	; 0x1d2c <BastetDictates+0x172>
    1d22:	80 e0       	ldi	r24, 0x00	; 0
    1d24:	ea de       	rcall	.-556    	; 0x1afa <simonLed>
            simonGameState = BASTET_GAME_INPUT;
    1d26:	85 e0       	ldi	r24, 0x05	; 5
    1d28:	80 93 5c 38 	sts	0x385C, r24	; 0x80385c <simonGameState>
        }
    }

    ++simonTimer;
    1d2c:	80 91 5b 38 	lds	r24, 0x385B	; 0x80385b <simonTimer>
    1d30:	8f 5f       	subi	r24, 0xFF	; 255
    1d32:	80 93 5b 38 	sts	0x385B, r24	; 0x80385b <simonTimer>
    return 0;
}
    1d36:	80 e0       	ldi	r24, 0x00	; 0
    1d38:	df 91       	pop	r29
    1d3a:	cf 91       	pop	r28
    1d3c:	08 95       	ret

00001d3e <Cheat>:

//
void SetResponse(uint8_t number, uint16_t address, uint16_t length, uint8_t type){
    reactStr[0][number]=address;
    reactStr[1][number]=length;
    reactStr[2][number]=type;
    1d3e:	1f 93       	push	r17
    1d40:	cf 93       	push	r28
    1d42:	df 93       	push	r29
    1d44:	cd b7       	in	r28, 0x3d	; 61
    1d46:	de b7       	in	r29, 0x3e	; 62
    1d48:	62 97       	sbiw	r28, 0x12	; 18
    1d4a:	cd bf       	out	0x3d, r28	; 61
    1d4c:	de bf       	out	0x3e, r29	; 62
    1d4e:	8a 8b       	std	Y+18, r24	; 0x12
    1d50:	80 e1       	ldi	r24, 0x10	; 16
    1d52:	e4 e9       	ldi	r30, 0x94	; 148
    1d54:	fd eb       	ldi	r31, 0xBD	; 189
    1d56:	de 01       	movw	r26, r28
    1d58:	11 96       	adiw	r26, 0x01	; 1
    1d5a:	01 90       	ld	r0, Z+
    1d5c:	0d 92       	st	X+, r0
    1d5e:	8a 95       	dec	r24
    1d60:	e1 f7       	brne	.-8      	; 0x1d5a <Cheat+0x1c>
    1d62:	fe 01       	movw	r30, r28
    1d64:	31 96       	adiw	r30, 0x01	; 1
    1d66:	90 e0       	ldi	r25, 0x00	; 0
    1d68:	8f ef       	ldi	r24, 0xFF	; 255
    1d6a:	21 91       	ld	r18, Z+
    1d6c:	31 91       	ld	r19, Z+
    1d6e:	26 17       	cp	r18, r22
    1d70:	37 07       	cpc	r19, r23
    1d72:	09 f4       	brne	.+2      	; 0x1d76 <Cheat+0x38>
    1d74:	89 2f       	mov	r24, r25
    1d76:	9f 5f       	subi	r25, 0xFF	; 255
    1d78:	98 30       	cpi	r25, 0x08	; 8
    1d7a:	b9 f7       	brne	.-18     	; 0x1d6a <Cheat+0x2c>
    1d7c:	88 30       	cpi	r24, 0x08	; 8
    1d7e:	10 f0       	brcs	.+4      	; 0x1d84 <Cheat+0x46>
    1d80:	80 e0       	ldi	r24, 0x00	; 0
    1d82:	12 c0       	rjmp	.+36     	; 0x1da8 <Cheat+0x6a>
    1d84:	18 e1       	ldi	r17, 0x18	; 24
    1d86:	18 0f       	add	r17, r24
    1d88:	41 e0       	ldi	r20, 0x01	; 1
    1d8a:	be 01       	movw	r22, r28
    1d8c:	6f 5e       	subi	r22, 0xEF	; 239
    1d8e:	7f 4f       	sbci	r23, 0xFF	; 255
    1d90:	81 2f       	mov	r24, r17
    1d92:	db d9       	rcall	.-3146   	; 0x114a <EERead>
    1d94:	89 89       	ldd	r24, Y+17	; 0x11
    1d96:	8f 3f       	cpi	r24, 0xFF	; 255
    1d98:	99 f7       	brne	.-26     	; 0x1d80 <Cheat+0x42>
    1d9a:	41 e0       	ldi	r20, 0x01	; 1
    1d9c:	be 01       	movw	r22, r28
    1d9e:	6e 5e       	subi	r22, 0xEE	; 238
    1da0:	7f 4f       	sbci	r23, 0xFF	; 255
    1da2:	81 2f       	mov	r24, r17
    1da4:	e2 d9       	rcall	.-3132   	; 0x116a <EEWrite>
    1da6:	81 e0       	ldi	r24, 0x01	; 1
    1da8:	62 96       	adiw	r28, 0x12	; 18
    1daa:	cd bf       	out	0x3d, r28	; 61
    1dac:	de bf       	out	0x3e, r29	; 62
    1dae:	df 91       	pop	r29
    1db0:	cf 91       	pop	r28
    1db2:	1f 91       	pop	r17
    1db4:	08 95       	ret

00001db6 <DecryptData>:
    1db6:	f9 01       	movw	r30, r18
    1db8:	9c 01       	movw	r18, r24
    1dba:	2e 1b       	sub	r18, r30
    1dbc:	3f 0b       	sbc	r19, r31
    1dbe:	88 e0       	ldi	r24, 0x08	; 8
    1dc0:	48 9f       	mul	r20, r24
    1dc2:	a0 01       	movw	r20, r0
    1dc4:	11 24       	eor	r1, r1
    1dc6:	4a 57       	subi	r20, 0x7A	; 122
    1dc8:	51 44       	sbci	r21, 0x41	; 65
    1dca:	66 23       	and	r22, r22
    1dcc:	69 f0       	breq	.+26     	; 0x1de8 <DecryptData+0x32>
    1dce:	df 01       	movw	r26, r30
    1dd0:	a2 0f       	add	r26, r18
    1dd2:	b3 1f       	adc	r27, r19
    1dd4:	a7 70       	andi	r26, 0x07	; 7
    1dd6:	bb 27       	eor	r27, r27
    1dd8:	a4 0f       	add	r26, r20
    1dda:	b5 1f       	adc	r27, r21
    1ddc:	80 81       	ld	r24, Z
    1dde:	9c 91       	ld	r25, X
    1de0:	98 27       	eor	r25, r24
    1de2:	91 93       	st	Z+, r25
    1de4:	61 50       	subi	r22, 0x01	; 1
    1de6:	f1 cf       	rjmp	.-30     	; 0x1dca <DecryptData+0x14>
    1de8:	08 95       	ret

00001dea <UnflipData>:
    1dea:	26 2f       	mov	r18, r22
    1dec:	fb 01       	movw	r30, r22
    1dee:	35 e5       	ldi	r19, 0x55	; 85
    1df0:	9e 2f       	mov	r25, r30
    1df2:	92 1b       	sub	r25, r18
    1df4:	98 17       	cp	r25, r24
    1df6:	28 f4       	brcc	.+10     	; 0x1e02 <UnflipData+0x18>
    1df8:	90 81       	ld	r25, Z
    1dfa:	92 95       	swap	r25
    1dfc:	93 27       	eor	r25, r19
    1dfe:	91 93       	st	Z+, r25
    1e00:	f7 cf       	rjmp	.-18     	; 0x1df0 <UnflipData+0x6>
    1e02:	08 95       	ret

00001e04 <ExtEERead>:
    1e04:	af 92       	push	r10
    1e06:	bf 92       	push	r11
    1e08:	cf 92       	push	r12
    1e0a:	df 92       	push	r13
    1e0c:	ef 92       	push	r14
    1e0e:	ff 92       	push	r15
    1e10:	0f 93       	push	r16
    1e12:	1f 93       	push	r17
    1e14:	cf 93       	push	r28
    1e16:	df 93       	push	r29
    1e18:	00 d0       	rcall	.+0      	; 0x1e1a <ExtEERead+0x16>
    1e1a:	cd b7       	in	r28, 0x3d	; 61
    1e1c:	de b7       	in	r29, 0x3e	; 62
    1e1e:	d6 2e       	mov	r13, r22
    1e20:	c4 2e       	mov	r12, r20
    1e22:	59 01       	movw	r10, r18
    1e24:	7c 01       	movw	r14, r24
    1e26:	e8 94       	clt
    1e28:	f7 f8       	bld	r15, 7
    1e2a:	f9 82       	std	Y+1, r15	; 0x01
    1e2c:	ea 82       	std	Y+2, r14	; 0x02
    1e2e:	06 2f       	mov	r16, r22
    1e30:	42 e0       	ldi	r20, 0x02	; 2
    1e32:	be 01       	movw	r22, r28
    1e34:	6f 5f       	subi	r22, 0xFF	; 255
    1e36:	7f 4f       	sbci	r23, 0xFF	; 255
    1e38:	80 e5       	ldi	r24, 0x50	; 80
    1e3a:	0e 94 ba 02 	call	0x574	; 0x574 <I2C_read_bytes>
    1e3e:	18 2f       	mov	r17, r24
    1e40:	81 11       	cpse	r24, r1
    1e42:	05 c0       	rjmp	.+10     	; 0x1e4e <ExtEERead+0x4a>
    1e44:	95 01       	movw	r18, r10
    1e46:	4c 2d       	mov	r20, r12
    1e48:	6d 2d       	mov	r22, r13
    1e4a:	c7 01       	movw	r24, r14
    1e4c:	b4 df       	rcall	.-152    	; 0x1db6 <DecryptData>
    1e4e:	81 2f       	mov	r24, r17
    1e50:	0f 90       	pop	r0
    1e52:	0f 90       	pop	r0
    1e54:	df 91       	pop	r29
    1e56:	cf 91       	pop	r28
    1e58:	1f 91       	pop	r17
    1e5a:	0f 91       	pop	r16
    1e5c:	ff 90       	pop	r15
    1e5e:	ef 90       	pop	r14
    1e60:	df 90       	pop	r13
    1e62:	cf 90       	pop	r12
    1e64:	bf 90       	pop	r11
    1e66:	af 90       	pop	r10
    1e68:	08 95       	ret

00001e6a <ClearTxAfter>:
    1e6a:	8f 5f       	subi	r24, 0xFF	; 255
    1e6c:	88 30       	cpi	r24, 0x08	; 8
    1e6e:	30 f4       	brcc	.+12     	; 0x1e7c <ClearTxAfter+0x12>
    1e70:	e8 2f       	mov	r30, r24
    1e72:	f0 e0       	ldi	r31, 0x00	; 0
    1e74:	e8 5b       	subi	r30, 0xB8	; 184
    1e76:	f5 4c       	sbci	r31, 0xC5	; 197
    1e78:	10 82       	st	Z, r1
    1e7a:	f7 cf       	rjmp	.-18     	; 0x1e6a <ClearTxAfter>
    1e7c:	08 95       	ret

00001e7e <StartsWith>:
    1e7e:	ac 01       	movw	r20, r24
    1e80:	90 e0       	ldi	r25, 0x00	; 0
    1e82:	e9 2f       	mov	r30, r25
    1e84:	f0 e0       	ldi	r31, 0x00	; 0
    1e86:	da 01       	movw	r26, r20
    1e88:	ae 0f       	add	r26, r30
    1e8a:	bf 1f       	adc	r27, r31
    1e8c:	3c 91       	ld	r19, X
    1e8e:	e6 0f       	add	r30, r22
    1e90:	f7 1f       	adc	r31, r23
    1e92:	31 11       	cpse	r19, r1
    1e94:	05 c0       	rjmp	.+10     	; 0x1ea0 <StartsWith+0x22>
    1e96:	81 e0       	ldi	r24, 0x01	; 1
    1e98:	90 81       	ld	r25, Z
    1e9a:	99 23       	and	r25, r25
    1e9c:	49 f0       	breq	.+18     	; 0x1eb0 <StartsWith+0x32>
    1e9e:	07 c0       	rjmp	.+14     	; 0x1eae <StartsWith+0x30>
    1ea0:	20 81       	ld	r18, Z
    1ea2:	22 23       	and	r18, r18
    1ea4:	c1 f3       	breq	.-16     	; 0x1e96 <StartsWith+0x18>
    1ea6:	32 13       	cpse	r19, r18
    1ea8:	02 c0       	rjmp	.+4      	; 0x1eae <StartsWith+0x30>
    1eaa:	9f 5f       	subi	r25, 0xFF	; 255
    1eac:	ea cf       	rjmp	.-44     	; 0x1e82 <StartsWith+0x4>
    1eae:	80 e0       	ldi	r24, 0x00	; 0
    1eb0:	08 95       	ret

00001eb2 <PrepareSending>:
    1eb2:	61 15       	cp	r22, r1
    1eb4:	71 05       	cpc	r23, r1
    1eb6:	51 f1       	breq	.+84     	; 0x1f0c <PrepareSending+0x5a>
    1eb8:	e0 e5       	ldi	r30, 0x50	; 80
    1eba:	fa e3       	ldi	r31, 0x3A	; 58
    1ebc:	a8 e4       	ldi	r26, 0x48	; 72
    1ebe:	ba e3       	ldi	r27, 0x3A	; 58
    1ec0:	20 e0       	ldi	r18, 0x00	; 0
    1ec2:	3f ef       	ldi	r19, 0xFF	; 255
    1ec4:	6f 3f       	cpi	r22, 0xFF	; 255
    1ec6:	71 05       	cpc	r23, r1
    1ec8:	69 f0       	breq	.+26     	; 0x1ee4 <PrepareSending+0x32>
    1eca:	60 f0       	brcs	.+24     	; 0x1ee4 <PrepareSending+0x32>
    1ecc:	81 93       	st	Z+, r24
    1ece:	91 93       	st	Z+, r25
    1ed0:	3d 93       	st	X+, r19
    1ed2:	81 50       	subi	r24, 0x01	; 1
    1ed4:	9f 4f       	sbci	r25, 0xFF	; 255
    1ed6:	6f 5f       	subi	r22, 0xFF	; 255
    1ed8:	71 09       	sbc	r23, r1
    1eda:	2f 5f       	subi	r18, 0xFF	; 255
    1edc:	27 30       	cpi	r18, 0x07	; 7
    1ede:	91 f7       	brne	.-28     	; 0x1ec4 <PrepareSending+0x12>
    1ee0:	81 e0       	ldi	r24, 0x01	; 1
    1ee2:	08 95       	ret
    1ee4:	e2 2f       	mov	r30, r18
    1ee6:	f0 e0       	ldi	r31, 0x00	; 0
    1ee8:	df 01       	movw	r26, r30
    1eea:	aa 0f       	add	r26, r26
    1eec:	bb 1f       	adc	r27, r27
    1eee:	a0 5b       	subi	r26, 0xB0	; 176
    1ef0:	b5 4c       	sbci	r27, 0xC5	; 197
    1ef2:	8d 93       	st	X+, r24
    1ef4:	9c 93       	st	X, r25
    1ef6:	e8 5b       	subi	r30, 0xB8	; 184
    1ef8:	f5 4c       	sbci	r31, 0xC5	; 197
    1efa:	cb 01       	movw	r24, r22
    1efc:	6f ef       	ldi	r22, 0xFF	; 255
    1efe:	70 e0       	ldi	r23, 0x00	; 0
    1f00:	0e 94 7f 1e 	call	0x3cfe	; 0x3cfe <__udivmodhi4>
    1f04:	80 83       	st	Z, r24
    1f06:	40 93 46 3a 	sts	0x3A46, r20	; 0x803a46 <txTypeNow>
    1f0a:	05 c0       	rjmp	.+10     	; 0x1f16 <PrepareSending+0x64>
    1f0c:	10 92 50 3a 	sts	0x3A50, r1	; 0x803a50 <txAddrList>
    1f10:	10 92 51 3a 	sts	0x3A51, r1	; 0x803a51 <txAddrList+0x1>
    1f14:	20 e0       	ldi	r18, 0x00	; 0
    1f16:	82 2f       	mov	r24, r18
    1f18:	a8 df       	rcall	.-176    	; 0x1e6a <ClearTxAfter>
    1f1a:	10 92 47 3a 	sts	0x3A47, r1	; 0x803a47 <txAddrNow>
    1f1e:	80 e0       	ldi	r24, 0x00	; 0
    1f20:	08 95       	ret

00001f22 <SetStandardResponse>:
}

//
uint8_t SetStandardResponse(uint8_t custStrEnd){
    1f22:	cf 93       	push	r28
    1f24:	df 93       	push	r29
    return 0;
}

//
void SetResponse(uint8_t number, uint16_t address, uint16_t length, uint8_t type){
    reactStr[0][number]=address;
    1f26:	28 2f       	mov	r18, r24
    1f28:	30 e0       	ldi	r19, 0x00	; 0
    1f2a:	f9 01       	movw	r30, r18
    1f2c:	ee 0f       	add	r30, r30
    1f2e:	ff 1f       	adc	r31, r31
    1f30:	e5 5e       	subi	r30, 0xE5	; 229
    1f32:	f6 4c       	sbci	r31, 0xC6	; 198
    1f34:	ab e5       	ldi	r26, 0x5B	; 91
    1f36:	ba e7       	ldi	r27, 0x7A	; 122
    1f38:	a0 83       	st	Z, r26
    1f3a:	b1 83       	std	Z+1, r27	; 0x01
    reactStr[1][number]=length;
    1f3c:	f9 01       	movw	r30, r18
    1f3e:	ee 0f       	add	r30, r30
    1f40:	ff 1f       	adc	r31, r31
    1f42:	e5 5a       	subi	r30, 0xA5	; 165
    1f44:	f6 4c       	sbci	r31, 0xC6	; 198
    1f46:	62 e0       	ldi	r22, 0x02	; 2
    1f48:	70 e0       	ldi	r23, 0x00	; 0
    1f4a:	60 83       	st	Z, r22
    1f4c:	71 83       	std	Z+1, r23	; 0x01
    reactStr[2][number]=type;
    1f4e:	22 0f       	add	r18, r18
    1f50:	33 1f       	adc	r19, r19
    1f52:	f9 01       	movw	r30, r18
    1f54:	e5 56       	subi	r30, 0x65	; 101
    1f56:	f6 4c       	sbci	r31, 0xC6	; 198
    1f58:	41 e0       	ldi	r20, 0x01	; 1
    1f5a:	50 e0       	ldi	r21, 0x00	; 0
    1f5c:	40 83       	st	Z, r20
    1f5e:	51 83       	std	Z+1, r21	; 0x01
    return 0;
}

//
void SetResponse(uint8_t number, uint16_t address, uint16_t length, uint8_t type){
    reactStr[0][number]=address;
    1f60:	21 e0       	ldi	r18, 0x01	; 1
    1f62:	28 0f       	add	r18, r24
    1f64:	30 e0       	ldi	r19, 0x00	; 0
    1f66:	f9 01       	movw	r30, r18
    1f68:	ee 0f       	add	r30, r30
    1f6a:	ff 1f       	adc	r31, r31
    1f6c:	e5 5e       	subi	r30, 0xE5	; 229
    1f6e:	f6 4c       	sbci	r31, 0xC6	; 198
    1f70:	c4 e6       	ldi	r28, 0x64	; 100
    1f72:	da e7       	ldi	r29, 0x7A	; 122
    1f74:	c0 83       	st	Z, r28
    1f76:	d1 83       	std	Z+1, r29	; 0x01
    reactStr[1][number]=length;
    1f78:	f9 01       	movw	r30, r18
    1f7a:	ee 0f       	add	r30, r30
    1f7c:	ff 1f       	adc	r31, r31
    1f7e:	e5 5a       	subi	r30, 0xA5	; 165
    1f80:	f6 4c       	sbci	r31, 0xC6	; 198
    1f82:	ca e0       	ldi	r28, 0x0A	; 10
    1f84:	d0 e0       	ldi	r29, 0x00	; 0
    1f86:	c0 83       	st	Z, r28
    1f88:	d1 83       	std	Z+1, r29	; 0x01
    reactStr[2][number]=type;
    1f8a:	22 0f       	add	r18, r18
    1f8c:	33 1f       	adc	r19, r19
    1f8e:	f9 01       	movw	r30, r18
    1f90:	e5 56       	subi	r30, 0x65	; 101
    1f92:	f6 4c       	sbci	r31, 0xC6	; 198
    1f94:	40 83       	st	Z, r20
    1f96:	51 83       	std	Z+1, r21	; 0x01
uint8_t SetStandardResponse(uint8_t custStrEnd){

    SetResponse(custStrEnd++, A_LF, 2, TEASER);
    SetResponse(custStrEnd++, A_LOCATION, L_LOCATION, TEASER);
    //SetResponse(custStrEnd++, A_SPACE, L_SPACE, TEASER);
    reactStr[0][custStrEnd++] = CURR_LOC;
    1f98:	e2 e0       	ldi	r30, 0x02	; 2
    1f9a:	e8 0f       	add	r30, r24
    1f9c:	f0 e0       	ldi	r31, 0x00	; 0
    1f9e:	ee 0f       	add	r30, r30
    1fa0:	ff 1f       	adc	r31, r31
    1fa2:	e5 5e       	subi	r30, 0xE5	; 229
    1fa4:	f6 4c       	sbci	r31, 0xC6	; 198
    1fa6:	20 ef       	ldi	r18, 0xF0	; 240
    1fa8:	3f ef       	ldi	r19, 0xFF	; 255
    1faa:	20 83       	st	Z, r18
    1fac:	31 83       	std	Z+1, r19	; 0x01
    return 0;
}

//
void SetResponse(uint8_t number, uint16_t address, uint16_t length, uint8_t type){
    reactStr[0][number]=address;
    1fae:	23 e0       	ldi	r18, 0x03	; 3
    1fb0:	28 0f       	add	r18, r24
    1fb2:	30 e0       	ldi	r19, 0x00	; 0
    1fb4:	f9 01       	movw	r30, r18
    1fb6:	ee 0f       	add	r30, r30
    1fb8:	ff 1f       	adc	r31, r31
    1fba:	e5 5e       	subi	r30, 0xE5	; 229
    1fbc:	f6 4c       	sbci	r31, 0xC6	; 198
    1fbe:	a0 83       	st	Z, r26
    1fc0:	b1 83       	std	Z+1, r27	; 0x01
    reactStr[1][number]=length;
    1fc2:	f9 01       	movw	r30, r18
    1fc4:	ee 0f       	add	r30, r30
    1fc6:	ff 1f       	adc	r31, r31
    1fc8:	e5 5a       	subi	r30, 0xA5	; 165
    1fca:	f6 4c       	sbci	r31, 0xC6	; 198
    1fcc:	60 83       	st	Z, r22
    1fce:	71 83       	std	Z+1, r23	; 0x01
    reactStr[2][number]=type;
    1fd0:	22 0f       	add	r18, r18
    1fd2:	33 1f       	adc	r19, r19
    1fd4:	f9 01       	movw	r30, r18
    1fd6:	e5 56       	subi	r30, 0x65	; 101
    1fd8:	f6 4c       	sbci	r31, 0xC6	; 198
    1fda:	40 83       	st	Z, r20
    1fdc:	51 83       	std	Z+1, r21	; 0x01
    return 0;
}

//
void SetResponse(uint8_t number, uint16_t address, uint16_t length, uint8_t type){
    reactStr[0][number]=address;
    1fde:	24 e0       	ldi	r18, 0x04	; 4
    1fe0:	28 0f       	add	r18, r24
    1fe2:	30 e0       	ldi	r19, 0x00	; 0
    1fe4:	f9 01       	movw	r30, r18
    1fe6:	ee 0f       	add	r30, r30
    1fe8:	ff 1f       	adc	r31, r31
    1fea:	e5 5e       	subi	r30, 0xE5	; 229
    1fec:	f6 4c       	sbci	r31, 0xC6	; 198
    1fee:	a7 e5       	ldi	r26, 0x57	; 87
    1ff0:	ba e7       	ldi	r27, 0x7A	; 122
    1ff2:	a0 83       	st	Z, r26
    1ff4:	b1 83       	std	Z+1, r27	; 0x01
    reactStr[1][number]=length;
    1ff6:	f9 01       	movw	r30, r18
    1ff8:	ee 0f       	add	r30, r30
    1ffa:	ff 1f       	adc	r31, r31
    1ffc:	e5 5a       	subi	r30, 0xA5	; 165
    1ffe:	f6 4c       	sbci	r31, 0xC6	; 198
    2000:	60 83       	st	Z, r22
    2002:	71 83       	std	Z+1, r23	; 0x01
    reactStr[2][number]=type;
    2004:	22 0f       	add	r18, r18
    2006:	33 1f       	adc	r19, r19
    2008:	f9 01       	movw	r30, r18
    200a:	e5 56       	subi	r30, 0x65	; 101
    200c:	f6 4c       	sbci	r31, 0xC6	; 198
    200e:	40 83       	st	Z, r20
    2010:	51 83       	std	Z+1, r21	; 0x01
    SetResponse(custStrEnd++, A_LF, 2, TEASER);
    SetResponse(custStrEnd++, A_PROMPT, L_PROMPT, TEASER);
    //SetResponse(custStrEnd++, A_SPACE, L_SPACE, TEASER);

    return custStrEnd;
}
    2012:	8b 5f       	subi	r24, 0xFB	; 251
    2014:	df 91       	pop	r29
    2016:	cf 91       	pop	r28
    2018:	08 95       	ret

0000201a <PopulateObject>:

//Get all the relevant data and string addresses of an object
void PopulateObject(uint16_t offset, object_model_t *object){
    201a:	af 92       	push	r10
    201c:	bf 92       	push	r11
    201e:	df 92       	push	r13
    2020:	ef 92       	push	r14
    2022:	ff 92       	push	r15
    2024:	0f 93       	push	r16
    2026:	1f 93       	push	r17
    2028:	cf 93       	push	r28
    202a:	df 93       	push	r29
    202c:	cd b7       	in	r28, 0x3d	; 61
    202e:	de b7       	in	r29, 0x3e	; 62
    2030:	2c 97       	sbiw	r28, 0x0c	; 12
    2032:	cd bf       	out	0x3d, r28	; 61
    2034:	de bf       	out	0x3e, r29	; 62
    2036:	7c 01       	movw	r14, r24
    2038:	8b 01       	movw	r16, r22
    uint16_t parStr;
    offset += L_BOILER;

    //Fill things with fixed distance to offset
    uint8_t data[OFF_STRINGFLDS];
    ExtEERead(offset, OFF_STRINGFLDS, GAME, &data[0]);
    203a:	9e 01       	movw	r18, r28
    203c:	2f 5f       	subi	r18, 0xFF	; 255
    203e:	3f 4f       	sbci	r19, 0xFF	; 255
    2040:	40 e0       	ldi	r20, 0x00	; 0
    2042:	6c e0       	ldi	r22, 0x0C	; 12
    2044:	80 96       	adiw	r24, 0x20	; 32
    2046:	de de       	rcall	.-580    	; 0x1e04 <ExtEERead>
    object->addrNextObj = (data[OFF_NEXTOBJ]<<8|data[OFF_NEXTOBJ+1])+L_BOILER;
    2048:	89 81       	ldd	r24, Y+1	; 0x01
    204a:	9a 81       	ldd	r25, Y+2	; 0x02
    204c:	98 27       	eor	r25, r24
    204e:	89 27       	eor	r24, r25
    2050:	98 27       	eor	r25, r24
    2052:	80 96       	adiw	r24, 0x20	; 32
    2054:	f8 01       	movw	r30, r16
    2056:	80 83       	st	Z, r24
    2058:	91 83       	std	Z+1, r25	; 0x01
    object->addrNextLvl = (data[OFF_NEXTLVL]<<8|data[OFF_NEXTLVL+1])+L_BOILER;
    205a:	8b 81       	ldd	r24, Y+3	; 0x03
    205c:	9c 81       	ldd	r25, Y+4	; 0x04
    205e:	98 27       	eor	r25, r24
    2060:	89 27       	eor	r24, r25
    2062:	98 27       	eor	r25, r24
    2064:	80 96       	adiw	r24, 0x20	; 32
    2066:	82 83       	std	Z+2, r24	; 0x02
    2068:	93 83       	std	Z+3, r25	; 0x03
    206a:	de 01       	movw	r26, r28
    206c:	15 96       	adiw	r26, 0x05	; 5
    206e:	34 96       	adiw	r30, 0x04	; 4
    2070:	c8 01       	movw	r24, r16
    2072:	0c 96       	adiw	r24, 0x0c	; 12
    for (uint8_t x=0; x<BYTE_FIELDS_LEN; ++x){
        object->byteField[x]=data[x+OFF_BYTEFLDS];
    2074:	2d 91       	ld	r18, X+
    2076:	21 93       	st	Z+, r18
    //Fill things with fixed distance to offset
    uint8_t data[OFF_STRINGFLDS];
    ExtEERead(offset, OFF_STRINGFLDS, GAME, &data[0]);
    object->addrNextObj = (data[OFF_NEXTOBJ]<<8|data[OFF_NEXTOBJ+1])+L_BOILER;
    object->addrNextLvl = (data[OFF_NEXTLVL]<<8|data[OFF_NEXTLVL+1])+L_BOILER;
    for (uint8_t x=0; x<BYTE_FIELDS_LEN; ++x){
    2078:	e8 17       	cp	r30, r24
    207a:	f9 07       	cpc	r31, r25
    207c:	d9 f7       	brne	.-10     	; 0x2074 <PopulateObject+0x5a>
        object->byteField[x]=data[x+OFF_BYTEFLDS];
    }

    //Find out where all of the strings begin and how long they are
    offset += OFF_STRINGFLDS;
    207e:	fc e2       	ldi	r31, 0x2C	; 44
    2080:	ef 0e       	add	r14, r31
    2082:	f1 1c       	adc	r15, r1
    2084:	58 01       	movw	r10, r16
    for(uint8_t x=0; x<STRING_FIELDS_LEN; ++x){
    2086:	d1 2c       	mov	r13, r1
        
        //Determine length
        ExtEERead(offset, 3, GAME, &data[0]);
    2088:	9e 01       	movw	r18, r28
    208a:	2f 5f       	subi	r18, 0xFF	; 255
    208c:	3f 4f       	sbci	r19, 0xFF	; 255
    208e:	40 e0       	ldi	r20, 0x00	; 0
    2090:	63 e0       	ldi	r22, 0x03	; 3
    2092:	c7 01       	movw	r24, r14
    2094:	b7 de       	rcall	.-658    	; 0x1e04 <ExtEERead>
    2096:	89 81       	ldd	r24, Y+1	; 0x01
    2098:	9a 81       	ldd	r25, Y+2	; 0x02
    209a:	98 27       	eor	r25, r24
    209c:	89 27       	eor	r24, r25
    209e:	98 27       	eor	r25, r24
        parStr = (data[0]<<8|data[1]);
        offset += 2;
    20a0:	97 01       	movw	r18, r14
    20a2:	2e 5f       	subi	r18, 0xFE	; 254
    20a4:	3f 4f       	sbci	r19, 0xFF	; 255
        if (x >= OPEN_ACL_MSG){
    20a6:	43 e0       	ldi	r20, 0x03	; 3
    20a8:	4d 15       	cp	r20, r13
    20aa:	80 f4       	brcc	.+32     	; 0x20cc <PopulateObject+0xb2>
            object->lenStr[x]= parStr-1;
    20ac:	ac 01       	movw	r20, r24
    20ae:	41 50       	subi	r20, 0x01	; 1
    20b0:	51 09       	sbc	r21, r1
    20b2:	f8 01       	movw	r30, r16
    20b4:	42 8f       	std	Z+26, r20	; 0x1a
    20b6:	53 8f       	std	Z+27, r21	; 0x1b
            object->addrStr[x]=offset+1;
    20b8:	f3 e0       	ldi	r31, 0x03	; 3
    20ba:	ef 0e       	add	r14, r31
    20bc:	f1 1c       	adc	r15, r1
    20be:	f8 01       	movw	r30, r16
    20c0:	e4 86       	std	Z+12, r14	; 0x0c
    20c2:	f5 86       	std	Z+13, r15	; 0x0d
            object->effect[x-OPEN_ACL_MSG] = data[2];
    20c4:	4b 81       	ldd	r20, Y+3	; 0x03
    20c6:	f5 01       	movw	r30, r10
    20c8:	44 a3       	std	Z+36, r20	; 0x24
    20ca:	05 c0       	rjmp	.+10     	; 0x20d6 <PopulateObject+0xbc>
        } else {
            object->lenStr[x]= parStr;
    20cc:	f8 01       	movw	r30, r16
    20ce:	82 8f       	std	Z+26, r24	; 0x1a
    20d0:	93 8f       	std	Z+27, r25	; 0x1b
            object->addrStr[x]=offset;
    20d2:	24 87       	std	Z+12, r18	; 0x0c
    20d4:	35 87       	std	Z+13, r19	; 0x0d
        }
        
        //Determine string start location for next field
        offset += parStr;
    20d6:	7c 01       	movw	r14, r24
    20d8:	e2 0e       	add	r14, r18
    20da:	f3 1e       	adc	r15, r19
        object->byteField[x]=data[x+OFF_BYTEFLDS];
    }

    //Find out where all of the strings begin and how long they are
    offset += OFF_STRINGFLDS;
    for(uint8_t x=0; x<STRING_FIELDS_LEN; ++x){
    20dc:	d3 94       	inc	r13
    20de:	0e 5f       	subi	r16, 0xFE	; 254
    20e0:	1f 4f       	sbci	r17, 0xFF	; 255
    20e2:	ff ef       	ldi	r31, 0xFF	; 255
    20e4:	af 1a       	sub	r10, r31
    20e6:	bf 0a       	sbc	r11, r31
    20e8:	47 e0       	ldi	r20, 0x07	; 7
    20ea:	d4 12       	cpse	r13, r20
    20ec:	cd cf       	rjmp	.-102    	; 0x2088 <PopulateObject+0x6e>
        }
        
        //Determine string start location for next field
        offset += parStr;
    }    
}
    20ee:	2c 96       	adiw	r28, 0x0c	; 12
    20f0:	cd bf       	out	0x3d, r28	; 61
    20f2:	de bf       	out	0x3e, r29	; 62
    20f4:	df 91       	pop	r29
    20f6:	cf 91       	pop	r28
    20f8:	1f 91       	pop	r17
    20fa:	0f 91       	pop	r16
    20fc:	ff 90       	pop	r15
    20fe:	ef 90       	pop	r14
    2100:	df 90       	pop	r13
    2102:	bf 90       	pop	r11
    2104:	af 90       	pop	r10
    2106:	08 95       	ret

00002108 <CheckLetter>:

//Check if the entered letter corresponds with a name
uint8_t CheckLetter(uint16_t object, uint8_t letter){
    2108:	cf 92       	push	r12
    210a:	df 92       	push	r13
    210c:	ef 92       	push	r14
    210e:	ff 92       	push	r15
    2110:	0f 93       	push	r16
    2112:	1f 93       	push	r17
    2114:	cf 93       	push	r28
    2116:	df 93       	push	r29
    2118:	cd b7       	in	r28, 0x3d	; 61
    211a:	de b7       	in	r29, 0x3e	; 62
    211c:	a0 97       	sbiw	r28, 0x20	; 32
    211e:	cd bf       	out	0x3d, r28	; 61
    2120:	de bf       	out	0x3e, r29	; 62
    2122:	c6 2e       	mov	r12, r22
    
    uint8_t found = 0;
    uint8_t data[32];

    object += L_BOILER;
    2124:	7c 01       	movw	r14, r24
    2126:	20 e2       	ldi	r18, 0x20	; 32
    2128:	e2 0e       	add	r14, r18
    212a:	f1 1c       	adc	r15, r1
    ExtEERead(object+OFF_STRINGFLDS, 2, GAME, &data[0]);
    212c:	9e 01       	movw	r18, r28
    212e:	2f 5f       	subi	r18, 0xFF	; 255
    2130:	3f 4f       	sbci	r19, 0xFF	; 255
    2132:	40 e0       	ldi	r20, 0x00	; 0
    2134:	62 e0       	ldi	r22, 0x02	; 2
    2136:	8c 96       	adiw	r24, 0x2c	; 44
    2138:	65 de       	rcall	.-822    	; 0x1e04 <ExtEERead>
    uint8_t x = data[1]; //Assuming a name is not longer than 255 characters.
    213a:	1a 81       	ldd	r17, Y+2	; 0x02
}

//Check if the entered letter corresponds with a name
uint8_t CheckLetter(uint16_t object, uint8_t letter){
    
    uint8_t found = 0;
    213c:	d1 2c       	mov	r13, r1

    object += L_BOILER;
    ExtEERead(object+OFF_STRINGFLDS, 2, GAME, &data[0]);
    uint8_t x = data[1]; //Assuming a name is not longer than 255 characters.

    while (x){
    213e:	11 23       	and	r17, r17
    2140:	51 f1       	breq	.+84     	; 0x2196 <CheckLetter+0x8e>
    2142:	01 2f       	mov	r16, r17
    2144:	11 32       	cpi	r17, 0x21	; 33
    2146:	08 f0       	brcs	.+2      	; 0x214a <CheckLetter+0x42>
    2148:	00 e2       	ldi	r16, 0x20	; 32
        uint8_t max;
        if (x>32) max = 32; else max = x;
        ExtEERead(object+OFF_STRINGFLDS+2, max, GAME, &data[0]);
    214a:	9e 01       	movw	r18, r28
    214c:	2f 5f       	subi	r18, 0xFF	; 255
    214e:	3f 4f       	sbci	r19, 0xFF	; 255
    2150:	40 e0       	ldi	r20, 0x00	; 0
    2152:	60 2f       	mov	r22, r16
    2154:	c7 01       	movw	r24, r14
    2156:	0e 96       	adiw	r24, 0x0e	; 14
    2158:	55 de       	rcall	.-854    	; 0x1e04 <ExtEERead>
    215a:	fe 01       	movw	r30, r28
    215c:	31 96       	adiw	r30, 0x01	; 1
        for (uint8_t y=0; y<max; ++y){
    215e:	80 e0       	ldi	r24, 0x00	; 0
            if (found){
    2160:	dd 20       	and	r13, r13
    2162:	61 f0       	breq	.+24     	; 0x217c <CheckLetter+0x74>
                if ((data[y]|0x20) == letter) return 1; else return 0;
    2164:	e1 e0       	ldi	r30, 0x01	; 1
    2166:	f0 e0       	ldi	r31, 0x00	; 0
    2168:	ec 0f       	add	r30, r28
    216a:	fd 1f       	adc	r31, r29
    216c:	e8 0f       	add	r30, r24
    216e:	f1 1d       	adc	r31, r1
    2170:	90 81       	ld	r25, Z
    2172:	90 62       	ori	r25, 0x20	; 32
    2174:	81 e0       	ldi	r24, 0x01	; 1
    2176:	9c 11       	cpse	r25, r12
    2178:	0e c0       	rjmp	.+28     	; 0x2196 <CheckLetter+0x8e>
    217a:	0e c0       	rjmp	.+28     	; 0x2198 <CheckLetter+0x90>
            }
            if (data[y] == '[') found = 1;
    217c:	91 91       	ld	r25, Z+
    217e:	dd 24       	eor	r13, r13
    2180:	d3 94       	inc	r13
    2182:	9b 35       	cpi	r25, 0x5B	; 91
    2184:	09 f0       	breq	.+2      	; 0x2188 <CheckLetter+0x80>
    2186:	d1 2c       	mov	r13, r1

    while (x){
        uint8_t max;
        if (x>32) max = 32; else max = x;
        ExtEERead(object+OFF_STRINGFLDS+2, max, GAME, &data[0]);
        for (uint8_t y=0; y<max; ++y){
    2188:	8f 5f       	subi	r24, 0xFF	; 255
    218a:	80 17       	cp	r24, r16
    218c:	48 f3       	brcs	.-46     	; 0x2160 <CheckLetter+0x58>
            if (found){
                if ((data[y]|0x20) == letter) return 1; else return 0;
            }
            if (data[y] == '[') found = 1;
        }
        object += max;
    218e:	e0 0e       	add	r14, r16
    2190:	f1 1c       	adc	r15, r1
        x -= max;
    2192:	10 1b       	sub	r17, r16
    2194:	d4 cf       	rjmp	.-88     	; 0x213e <CheckLetter+0x36>
    }
    return 0;
    2196:	80 e0       	ldi	r24, 0x00	; 0
}
    2198:	a0 96       	adiw	r28, 0x20	; 32
    219a:	cd bf       	out	0x3d, r28	; 61
    219c:	de bf       	out	0x3e, r29	; 62
    219e:	df 91       	pop	r29
    21a0:	cf 91       	pop	r28
    21a2:	1f 91       	pop	r17
    21a4:	0f 91       	pop	r16
    21a6:	ff 90       	pop	r15
    21a8:	ef 90       	pop	r14
    21aa:	df 90       	pop	r13
    21ac:	cf 90       	pop	r12
    21ae:	08 95       	ret

000021b0 <FindChild>:

//Returns the child's address if the child is visible and the search letter matches
uint16_t FindChild(uint16_t parent, uint8_t letter, uint16_t start){
    21b0:	af 92       	push	r10
    21b2:	bf 92       	push	r11
    21b4:	df 92       	push	r13
    21b6:	ef 92       	push	r14
    21b8:	ff 92       	push	r15
    21ba:	0f 93       	push	r16
    21bc:	1f 93       	push	r17
    21be:	cf 93       	push	r28
    21c0:	df 93       	push	r29
    21c2:	00 d0       	rcall	.+0      	; 0x21c4 <FindChild+0x14>
    21c4:	00 d0       	rcall	.+0      	; 0x21c6 <FindChild+0x16>
    21c6:	cd b7       	in	r28, 0x3d	; 61
    21c8:	de b7       	in	r29, 0x3e	; 62
    21ca:	d6 2e       	mov	r13, r22
    21cc:	5a 01       	movw	r10, r20
    
    uint16_t child = parent;
    uint8_t data[4];

    ExtEERead(child+L_BOILER, 4, GAME, &data[0]);
    21ce:	9e 01       	movw	r18, r28
    21d0:	2f 5f       	subi	r18, 0xFF	; 255
    21d2:	3f 4f       	sbci	r19, 0xFF	; 255
    21d4:	40 e0       	ldi	r20, 0x00	; 0
    21d6:	64 e0       	ldi	r22, 0x04	; 4
    21d8:	80 96       	adiw	r24, 0x20	; 32
    21da:	14 de       	rcall	.-984    	; 0x1e04 <ExtEERead>
    21dc:	e9 80       	ldd	r14, Y+1	; 0x01
    21de:	fa 80       	ldd	r15, Y+2	; 0x02
    21e0:	fe 24       	eor	r15, r14
    21e2:	ef 24       	eor	r14, r15
    21e4:	fe 24       	eor	r15, r14
    21e6:	0b 81       	ldd	r16, Y+3	; 0x03
    21e8:	1c 81       	ldd	r17, Y+4	; 0x04
    21ea:	10 27       	eor	r17, r16
    21ec:	01 27       	eor	r16, r17
    21ee:	10 27       	eor	r17, r16
    parent = (data[0]<<8|data[1]);    //Next object on parent level
    child =  (data[2]<<8|data[3]);    //First object on child level

    //As long as the child is within the parent's range
    while (parent>child){
    21f0:	0e 15       	cp	r16, r14
    21f2:	1f 05       	cpc	r17, r15
    21f4:	30 f5       	brcc	.+76     	; 0x2242 <FindChild+0x92>

        //If child's address is higher than the start address, perform search for letter
        if (child>start){
    21f6:	a0 16       	cp	r10, r16
    21f8:	b1 06       	cpc	r11, r17
    21fa:	58 f0       	brcs	.+22     	; 0x2212 <FindChild+0x62>
                if ((letter == 0)||(CheckLetter(child, letter))) return child;
            }
        }

        //Not visible or name not right
        ExtEERead(child+L_BOILER, 2, GAME, &data[0]);
    21fc:	9e 01       	movw	r18, r28
    21fe:	2f 5f       	subi	r18, 0xFF	; 255
    2200:	3f 4f       	sbci	r19, 0xFF	; 255
    2202:	40 e0       	ldi	r20, 0x00	; 0
    2204:	62 e0       	ldi	r22, 0x02	; 2
    2206:	c8 01       	movw	r24, r16
    2208:	80 96       	adiw	r24, 0x20	; 32
    220a:	fc dd       	rcall	.-1032   	; 0x1e04 <ExtEERead>
    220c:	09 81       	ldd	r16, Y+1	; 0x01
    220e:	1a 81       	ldd	r17, Y+2	; 0x02
    2210:	ec cf       	rjmp	.-40     	; 0x21ea <FindChild+0x3a>
    //As long as the child is within the parent's range
    while (parent>child){

        //If child's address is higher than the start address, perform search for letter
        if (child>start){
            ExtEERead(child+OFF_BYTEFLDS+VISIBLE_ACL+L_BOILER, 1, GAME, &data[0]);
    2212:	9e 01       	movw	r18, r28
    2214:	2f 5f       	subi	r18, 0xFF	; 255
    2216:	3f 4f       	sbci	r19, 0xFF	; 255
    2218:	40 e0       	ldi	r20, 0x00	; 0
    221a:	61 e0       	ldi	r22, 0x01	; 1
    221c:	c8 01       	movw	r24, r16
    221e:	85 96       	adiw	r24, 0x25	; 37
    2220:	f1 dd       	rcall	.-1054   	; 0x1e04 <ExtEERead>
            if ((data[0] == 0)||(CheckState(data[0]))) {
    2222:	89 81       	ldd	r24, Y+1	; 0x01
    2224:	81 11       	cpse	r24, r1
    2226:	03 c0       	rjmp	.+6      	; 0x222e <FindChild+0x7e>
                if ((letter == 0)||(CheckLetter(child, letter))) return child;
    2228:	d1 10       	cpse	r13, r1
    222a:	05 c0       	rjmp	.+10     	; 0x2236 <FindChild+0x86>
    while (parent>child){

        //If child's address is higher than the start address, perform search for letter
        if (child>start){
            ExtEERead(child+OFF_BYTEFLDS+VISIBLE_ACL+L_BOILER, 1, GAME, &data[0]);
            if ((data[0] == 0)||(CheckState(data[0]))) {
    222c:	0d c0       	rjmp	.+26     	; 0x2248 <FindChild+0x98>
    222e:	8f d9       	rcall	.-3298   	; 0x154e <CheckState>
    2230:	81 11       	cpse	r24, r1
    2232:	fa cf       	rjmp	.-12     	; 0x2228 <FindChild+0x78>
                if ((letter == 0)||(CheckLetter(child, letter))) return child;
    2234:	e3 cf       	rjmp	.-58     	; 0x21fc <FindChild+0x4c>
    2236:	6d 2d       	mov	r22, r13
    2238:	c8 01       	movw	r24, r16
    223a:	66 df       	rcall	.-308    	; 0x2108 <CheckLetter>
    223c:	88 23       	and	r24, r24
    223e:	f1 f2       	breq	.-68     	; 0x21fc <FindChild+0x4c>
    2240:	03 c0       	rjmp	.+6      	; 0x2248 <FindChild+0x98>

        //Not visible or name not right
        ExtEERead(child+L_BOILER, 2, GAME, &data[0]);
        child = (data[0]<<8|data[1]);    //Next object on child level
        
    } return 0;
    2242:	80 e0       	ldi	r24, 0x00	; 0
    2244:	90 e0       	ldi	r25, 0x00	; 0
    2246:	01 c0       	rjmp	.+2      	; 0x224a <FindChild+0x9a>
    2248:	c8 01       	movw	r24, r16
}
    224a:	24 96       	adiw	r28, 0x04	; 4
    224c:	cd bf       	out	0x3d, r28	; 61
    224e:	de bf       	out	0x3e, r29	; 62
    2250:	df 91       	pop	r29
    2252:	cf 91       	pop	r28
    2254:	1f 91       	pop	r17
    2256:	0f 91       	pop	r16
    2258:	ff 90       	pop	r15
    225a:	ef 90       	pop	r14
    225c:	df 90       	pop	r13
    225e:	bf 90       	pop	r11
    2260:	af 90       	pop	r10
    2262:	08 95       	ret

00002264 <InpOkChk>:

//Allow only a(A) to z(Z) and 0 to 9 as input
uint8_t InpOkChk(uint8_t test){
    test |= 0x20;
    2264:	80 62       	ori	r24, 0x20	; 32
    if ((test>='a')&&(test<='z')) return 1;
    2266:	9f e9       	ldi	r25, 0x9F	; 159
    2268:	98 0f       	add	r25, r24
    226a:	9a 31       	cpi	r25, 0x1A	; 26
    226c:	38 f0       	brcs	.+14     	; 0x227c <InpOkChk+0x18>
    226e:	90 ed       	ldi	r25, 0xD0	; 208
    2270:	98 0f       	add	r25, r24
    2272:	81 e0       	ldi	r24, 0x01	; 1
    2274:	9a 30       	cpi	r25, 0x0A	; 10
    2276:	18 f0       	brcs	.+6      	; 0x227e <InpOkChk+0x1a>
    2278:	80 e0       	ldi	r24, 0x00	; 0
    227a:	08 95       	ret
    227c:	81 e0       	ldi	r24, 0x01	; 1
    if ((test>='0')&&(test<='9')) return 1;
    return 0;
}
    227e:	08 95       	ret

00002280 <CleanInput>:

//Cleans input of garbage and returns length of cleaned input "o->d2  !\0" becomes "od2\0"
uint8_t CleanInput(uint8_t *data){
    2280:	0f 93       	push	r16
    2282:	1f 93       	push	r17
    2284:	cf 93       	push	r28
    2286:	df 93       	push	r29
    2288:	8c 01       	movw	r16, r24
    uint8_t cnt = 0;
    for (uint8_t x=0; data[x]!=0; ++x){
    228a:	d0 e0       	ldi	r29, 0x00	; 0
    return 0;
}

//Cleans input of garbage and returns length of cleaned input "o->d2  !\0" becomes "od2\0"
uint8_t CleanInput(uint8_t *data){
    uint8_t cnt = 0;
    228c:	c0 e0       	ldi	r28, 0x00	; 0
    for (uint8_t x=0; data[x]!=0; ++x){
    228e:	f8 01       	movw	r30, r16
    2290:	ed 0f       	add	r30, r29
    2292:	f1 1d       	adc	r31, r1
    2294:	20 81       	ld	r18, Z
    2296:	8c 2f       	mov	r24, r28
    2298:	90 e0       	ldi	r25, 0x00	; 0
    229a:	22 23       	and	r18, r18
    229c:	51 f0       	breq	.+20     	; 0x22b2 <CleanInput+0x32>
        data[cnt] = data[x];
    229e:	d8 01       	movw	r26, r16
    22a0:	a8 0f       	add	r26, r24
    22a2:	b9 1f       	adc	r27, r25
    22a4:	2c 93       	st	X, r18
        if (InpOkChk(data[x])) ++cnt;
    22a6:	80 81       	ld	r24, Z
    22a8:	dd df       	rcall	.-70     	; 0x2264 <InpOkChk>
    22aa:	81 11       	cpse	r24, r1
    22ac:	cf 5f       	subi	r28, 0xFF	; 255
}

//Cleans input of garbage and returns length of cleaned input "o->d2  !\0" becomes "od2\0"
uint8_t CleanInput(uint8_t *data){
    uint8_t cnt = 0;
    for (uint8_t x=0; data[x]!=0; ++x){
    22ae:	df 5f       	subi	r29, 0xFF	; 255
    22b0:	ee cf       	rjmp	.-36     	; 0x228e <CleanInput+0xe>
        data[cnt] = data[x];
        if (InpOkChk(data[x])) ++cnt;
    }
    data[cnt] = 0;
    22b2:	f8 01       	movw	r30, r16
    22b4:	e8 0f       	add	r30, r24
    22b6:	f9 1f       	adc	r31, r25
    22b8:	10 82       	st	Z, r1
    return cnt;
}
    22ba:	8c 2f       	mov	r24, r28
    22bc:	df 91       	pop	r29
    22be:	cf 91       	pop	r28
    22c0:	1f 91       	pop	r17
    22c2:	0f 91       	pop	r16
    22c4:	08 95       	ret

000022c6 <CheckSend>:

//Send routine, optimized for low memory usage
uint8_t CheckSend(){
    22c6:	cf 93       	push	r28
    static uint8_t txPart;
    uint8_t EEreadLength=0;

    //Play effects if available and not already playing
    if (effect == 0){
    22c8:	80 91 3a 38 	lds	r24, 0x383A	; 0x80383a <effect>
    22cc:	90 91 3b 38 	lds	r25, 0x383B	; 0x80383b <effect+0x1>
    22d0:	89 2b       	or	r24, r25
    22d2:	99 f4       	brne	.+38     	; 0x22fa <CheckSend+0x34>
        effect = currObj.byteField[EFFECTS];
    22d4:	80 91 1f 3a 	lds	r24, 0x3A1F	; 0x803a1f <currObj+0x4>
    22d8:	90 e0       	ldi	r25, 0x00	; 0
    22da:	80 93 3a 38 	sts	0x383A, r24	; 0x80383a <effect>
    22de:	90 93 3b 38 	sts	0x383B, r25	; 0x80383b <effect+0x1>
        auStart = ((effect&0xE0)>0);
    22e2:	80 91 3a 38 	lds	r24, 0x383A	; 0x80383a <effect>
    22e6:	90 91 3b 38 	lds	r25, 0x383B	; 0x80383b <effect+0x1>
    22ea:	80 7e       	andi	r24, 0xE0	; 224
    22ec:	99 27       	eor	r25, r25
    22ee:	21 e0       	ldi	r18, 0x01	; 1
    22f0:	89 2b       	or	r24, r25
    22f2:	09 f4       	brne	.+2      	; 0x22f6 <CheckSend+0x30>
    22f4:	20 e0       	ldi	r18, 0x00	; 0
    22f6:	20 93 39 38 	sts	0x3839, r18	; 0x803839 <auStart>
    }

    //Check if more string(part)s have to be sent to the serial output if previous send operation is completed
    if ((txAddrNow < TXLISTLEN) && serTxDone){
    22fa:	20 91 47 3a 	lds	r18, 0x3A47	; 0x803a47 <txAddrNow>
    22fe:	28 30       	cpi	r18, 0x08	; 8
    2300:	08 f0       	brcs	.+2      	; 0x2304 <CheckSend+0x3e>
    2302:	48 c0       	rjmp	.+144    	; 0x2394 <CheckSend+0xce>
    2304:	80 91 0a 38 	lds	r24, 0x380A	; 0x80380a <serTxDone>
    2308:	88 23       	and	r24, r24
    230a:	09 f4       	brne	.+2      	; 0x230e <CheckSend+0x48>
    230c:	43 c0       	rjmp	.+134    	; 0x2394 <CheckSend+0xce>
        if (txStrLen[txAddrNow] == 0){
    230e:	82 2f       	mov	r24, r18
    2310:	90 e0       	ldi	r25, 0x00	; 0
    2312:	fc 01       	movw	r30, r24
    2314:	e8 5b       	subi	r30, 0xB8	; 184
    2316:	f5 4c       	sbci	r31, 0xC5	; 197
    2318:	e0 81       	ld	r30, Z
    231a:	e1 11       	cpse	r30, r1
    231c:	06 c0       	rjmp	.+12     	; 0x232a <CheckSend+0x64>
            txPart = 0;
    231e:	10 92 06 39 	sts	0x3906, r1	; 0x803906 <txPart.3945>
            txAddrNow = TXLISTLEN;
    2322:	88 e0       	ldi	r24, 0x08	; 8
    2324:	80 93 47 3a 	sts	0x3A47, r24	; 0x803a47 <txAddrNow>
    2328:	2d c0       	rjmp	.+90     	; 0x2384 <CheckSend+0xbe>
        } else if (txPart < txStrLen[txAddrNow]){
    232a:	50 91 06 39 	lds	r21, 0x3906	; 0x803906 <txPart.3945>
    232e:	5e 17       	cp	r21, r30
    2330:	58 f5       	brcc	.+86     	; 0x2388 <CheckSend+0xc2>
            EEreadLength = txStrLen[txAddrNow]-txPart;
    2332:	ce 2f       	mov	r28, r30
    2334:	c5 1b       	sub	r28, r21
    2336:	c1 32       	cpi	r28, 0x21	; 33
    2338:	08 f0       	brcs	.+2      	; 0x233c <CheckSend+0x76>
    233a:	c0 e2       	ldi	r28, 0x20	; 32
            if (EEreadLength>=TXLEN) EEreadLength = TXLEN-1;
            ExtEERead(txAddrList[txAddrNow]+txPart, EEreadLength, txTypeNow, &txBuffer[0]);
    233c:	88 0f       	add	r24, r24
    233e:	99 1f       	adc	r25, r25
    2340:	fc 01       	movw	r30, r24
    2342:	e0 5b       	subi	r30, 0xB0	; 176
    2344:	f5 4c       	sbci	r31, 0xC5	; 197
    2346:	80 81       	ld	r24, Z
    2348:	91 81       	ldd	r25, Z+1	; 0x01
    234a:	29 ef       	ldi	r18, 0xF9	; 249
    234c:	3a e3       	ldi	r19, 0x3A	; 58
    234e:	40 91 46 3a 	lds	r20, 0x3A46	; 0x803a46 <txTypeNow>
    2352:	6c 2f       	mov	r22, r28
    2354:	85 0f       	add	r24, r21
    2356:	91 1d       	adc	r25, r1
    2358:	55 dd       	rcall	.-1366   	; 0x1e04 <ExtEERead>
            txPart += EEreadLength;
    235a:	80 91 06 39 	lds	r24, 0x3906	; 0x803906 <txPart.3945>
    235e:	8c 0f       	add	r24, r28
    2360:	80 93 06 39 	sts	0x3906, r24	; 0x803906 <txPart.3945>
            txBuffer[EEreadLength] = 0; //Add string terminator after piece to send to plug memory leak
    2364:	ec 2f       	mov	r30, r28
    2366:	f0 e0       	ldi	r31, 0x00	; 0
    2368:	e7 50       	subi	r30, 0x07	; 7
    236a:	f5 4c       	sbci	r31, 0xC5	; 197
    236c:	10 82       	st	Z, r1
            if ((txBuffer[0] == 0) && (EEreadLength)) txBuffer[0] = 0xDB; //Block character when data wrong.
    236e:	80 91 f9 3a 	lds	r24, 0x3AF9	; 0x803af9 <txBuffer>
    2372:	81 11       	cpse	r24, r1
    2374:	03 c0       	rjmp	.+6      	; 0x237c <CheckSend+0xb6>
    2376:	8b ed       	ldi	r24, 0xDB	; 219
    2378:	80 93 f9 3a 	sts	0x3AF9, r24	; 0x803af9 <txBuffer>
            SerSend(&txBuffer[0]);
    237c:	89 ef       	ldi	r24, 0xF9	; 249
    237e:	9a e3       	ldi	r25, 0x3A	; 58
    2380:	0e 94 dd 08 	call	0x11ba	; 0x11ba <SerSend>
        } else {
            txPart = 0;
            ++txAddrNow;
        }
    } else if (serTxDone) return 0; //All is sent!
    return 1; //Still sending, do not change the data in the tx variables
    2384:	81 e0       	ldi	r24, 0x01	; 1
    2386:	0b c0       	rjmp	.+22     	; 0x239e <CheckSend+0xd8>
            txPart += EEreadLength;
            txBuffer[EEreadLength] = 0; //Add string terminator after piece to send to plug memory leak
            if ((txBuffer[0] == 0) && (EEreadLength)) txBuffer[0] = 0xDB; //Block character when data wrong.
            SerSend(&txBuffer[0]);
        } else {
            txPart = 0;
    2388:	10 92 06 39 	sts	0x3906, r1	; 0x803906 <txPart.3945>
            ++txAddrNow;
    238c:	2f 5f       	subi	r18, 0xFF	; 255
    238e:	20 93 47 3a 	sts	0x3A47, r18	; 0x803a47 <txAddrNow>
    2392:	f8 cf       	rjmp	.-16     	; 0x2384 <CheckSend+0xbe>
        }
    } else if (serTxDone) return 0; //All is sent!
    2394:	90 91 0a 38 	lds	r25, 0x380A	; 0x80380a <serTxDone>
    2398:	81 e0       	ldi	r24, 0x01	; 1
    239a:	91 11       	cpse	r25, r1
    239c:	80 e0       	ldi	r24, 0x00	; 0
    return 1; //Still sending, do not change the data in the tx variables
}
    239e:	cf 91       	pop	r28
    23a0:	08 95       	ret

000023a2 <CheckResponse>:

//Send another part of the response and play the effect afterwards
uint8_t CheckResponse(){
    23a2:	cf 93       	push	r28
    23a4:	df 93       	push	r29
    static uint8_t number = 0;
    if (responseList){
    23a6:	c0 91 1a 39 	lds	r28, 0x391A	; 0x80391a <responseList>
    23aa:	cc 23       	and	r28, r28
    23ac:	e9 f1       	breq	.+122    	; 0x2428 <CheckResponse+0x86>
        --responseList;
    23ae:	c1 50       	subi	r28, 0x01	; 1
    23b0:	c0 93 1a 39 	sts	0x391A, r28	; 0x80391a <responseList>
        if (reactStr[0][number] == CURR_LOC) {
    23b4:	d0 91 05 39 	lds	r29, 0x3905	; 0x803905 <number.3949>
    23b8:	2d 2f       	mov	r18, r29
    23ba:	30 e0       	ldi	r19, 0x00	; 0
    23bc:	f9 01       	movw	r30, r18
    23be:	ee 0f       	add	r30, r30
    23c0:	ff 1f       	adc	r31, r31
    23c2:	e5 5e       	subi	r30, 0xE5	; 229
    23c4:	f6 4c       	sbci	r31, 0xC6	; 198
    23c6:	80 81       	ld	r24, Z
    23c8:	91 81       	ldd	r25, Z+1	; 0x01
    23ca:	80 3f       	cpi	r24, 0xF0	; 240
    23cc:	4f ef       	ldi	r20, 0xFF	; 255
    23ce:	94 07       	cpc	r25, r20
    23d0:	51 f4       	brne	.+20     	; 0x23e6 <CheckResponse+0x44>
            PrepareSending(currObj.addrStr[NAME], currObj.lenStr[NAME], GAME);
    23d2:	60 91 35 3a 	lds	r22, 0x3A35	; 0x803a35 <currObj+0x1a>
    23d6:	70 91 36 3a 	lds	r23, 0x3A36	; 0x803a36 <currObj+0x1b>
    23da:	40 e0       	ldi	r20, 0x00	; 0
    23dc:	80 91 27 3a 	lds	r24, 0x3A27	; 0x803a27 <currObj+0xc>
    23e0:	90 91 28 3a 	lds	r25, 0x3A28	; 0x803a28 <currObj+0xd>
    23e4:	0d c0       	rjmp	.+26     	; 0x2400 <CheckResponse+0x5e>
        } else {
            PrepareSending(reactStr[0][number], reactStr[1][number], reactStr[2][number]);
    23e6:	d9 01       	movw	r26, r18
    23e8:	aa 0f       	add	r26, r26
    23ea:	bb 1f       	adc	r27, r27
    23ec:	a5 56       	subi	r26, 0x65	; 101
    23ee:	b6 4c       	sbci	r27, 0xC6	; 198
    23f0:	22 0f       	add	r18, r18
    23f2:	33 1f       	adc	r19, r19
    23f4:	f9 01       	movw	r30, r18
    23f6:	e5 5a       	subi	r30, 0xA5	; 165
    23f8:	f6 4c       	sbci	r31, 0xC6	; 198
    23fa:	60 81       	ld	r22, Z
    23fc:	71 81       	ldd	r23, Z+1	; 0x01
    23fe:	4c 91       	ld	r20, X
    2400:	58 dd       	rcall	.-1360   	; 0x1eb2 <PrepareSending>
        }
        ++number;
    2402:	df 5f       	subi	r29, 0xFF	; 255
    2404:	d0 93 05 39 	sts	0x3905, r29	; 0x803905 <number.3949>

        if (responseList == 0) {
    2408:	c1 11       	cpse	r28, r1
    240a:	0d c0       	rjmp	.+26     	; 0x2426 <CheckResponse+0x84>
            effect = currObj.byteField[EFFECTS];
    240c:	80 91 1f 3a 	lds	r24, 0x3A1F	; 0x803a1f <currObj+0x4>
    2410:	90 e0       	ldi	r25, 0x00	; 0
    2412:	80 93 3a 38 	sts	0x383A, r24	; 0x80383a <effect>
    2416:	90 93 3b 38 	sts	0x383B, r25	; 0x80383b <effect+0x1>
            RXCNT = 0;
    241a:	1d ba       	out	0x1d, r1	; 29
            serRxDone = 0;
    241c:	10 92 44 38 	sts	0x3844, r1	; 0x803844 <serRxDone>
            number = 0;
    2420:	10 92 05 39 	sts	0x3905, r1	; 0x803905 <number.3949>
    2424:	01 c0       	rjmp	.+2      	; 0x2428 <CheckResponse+0x86>
            return 0;
        }
        return 1;
    2426:	c1 e0       	ldi	r28, 0x01	; 1
    }
    return 0;
}
    2428:	8c 2f       	mov	r24, r28
    242a:	df 91       	pop	r29
    242c:	cf 91       	pop	r28
    242e:	08 95       	ret

00002430 <CheckInput>:

//User input check (and validation)
uint8_t CheckInput(uint8_t *data){
    2430:	4f 92       	push	r4
    2432:	5f 92       	push	r5
    2434:	6f 92       	push	r6
    2436:	7f 92       	push	r7
    2438:	8f 92       	push	r8
    243a:	9f 92       	push	r9
    243c:	af 92       	push	r10
    243e:	bf 92       	push	r11
    2440:	cf 92       	push	r12
    2442:	df 92       	push	r13
    2444:	ef 92       	push	r14
    2446:	ff 92       	push	r15
    2448:	0f 93       	push	r16
    244a:	1f 93       	push	r17
    244c:	cf 93       	push	r28
    244e:	df 93       	push	r29
    2450:	cd b7       	in	r28, 0x3d	; 61
    2452:	de b7       	in	r29, 0x3e	; 62
    2454:	a1 97       	sbiw	r28, 0x21	; 33
    2456:	cd bf       	out	0x3d, r28	; 61
    2458:	de bf       	out	0x3e, r29	; 62
    245a:	8c 01       	movw	r16, r24
    
    //Load game data after reboot
    if (currDepth == 0xff) {
    245c:	80 91 2c 38 	lds	r24, 0x382C	; 0x80382c <currDepth>
    2460:	8f 3f       	cpi	r24, 0xFF	; 255
    2462:	49 f4       	brne	.+18     	; 0x2476 <CheckInput+0x46>
        //Start at first location
        PopulateObject(route[0], &currObj);
    2464:	6b e1       	ldi	r22, 0x1B	; 27
    2466:	7a e3       	ldi	r23, 0x3A	; 58
    2468:	80 91 db 39 	lds	r24, 0x39DB	; 0x8039db <route>
    246c:	90 91 dc 39 	lds	r25, 0x39DC	; 0x8039dc <route+0x1>
    2470:	d4 dd       	rcall	.-1112   	; 0x201a <PopulateObject>
        currDepth = 0;
    2472:	10 92 2c 38 	sts	0x382C, r1	; 0x80382c <currDepth>
    }

    if (serRxDone){
    2476:	80 91 44 38 	lds	r24, 0x3844	; 0x803844 <serRxDone>
    247a:	88 23       	and	r24, r24
    247c:	09 f4       	brne	.+2      	; 0x2480 <CheckInput+0x50>
    247e:	64 c2       	rjmp	.+1224   	; 0x2948 <CheckInput+0x518>

        //Special input requested from user by game
        if (specialInput[0]){
    2480:	80 91 0a 39 	lds	r24, 0x390A	; 0x80390a <specialInput>
    2484:	88 23       	and	r24, r24
    2486:	09 f4       	brne	.+2      	; 0x248a <CheckInput+0x5a>
    2488:	57 c0       	rjmp	.+174    	; 0x2538 <CheckInput+0x108>
            specialPassed = 0;
    248a:	10 92 09 39 	sts	0x3909, r1	; 0x803909 <specialPassed>
            data[0] = 'a';
    248e:	81 e6       	ldi	r24, 0x61	; 97
    2490:	f8 01       	movw	r30, r16
    2492:	80 83       	st	Z, r24
            
            //Normal code challenge
            if (StartsWith((uint8_t *)&serRx[0], &specialInput[0])) {
    2494:	6a e0       	ldi	r22, 0x0A	; 10
    2496:	79 e3       	ldi	r23, 0x39	; 57
    2498:	85 e7       	ldi	r24, 0x75	; 117
    249a:	9a e3       	ldi	r25, 0x3A	; 58
    249c:	f0 dc       	rcall	.-1568   	; 0x1e7e <StartsWith>
    249e:	f8 2e       	mov	r15, r24
    24a0:	88 23       	and	r24, r24
    24a2:	21 f0       	breq	.+8      	; 0x24ac <CheckInput+0x7c>
                specialPassed = 1;
    24a4:	81 e0       	ldi	r24, 0x01	; 1
    24a6:	80 93 09 39 	sts	0x3909, r24	; 0x803909 <specialPassed>
    24aa:	04 c0       	rjmp	.+8      	; 0x24b4 <CheckInput+0x84>
                //specialInput[0] = 0;
                //data[1] = 0;

            //Special challenge 1
            } else if ((specialInput[0] == '1')&&(specialInput[2] == 0)) {
    24ac:	80 91 0a 39 	lds	r24, 0x390A	; 0x80390a <specialInput>
    24b0:	81 33       	cpi	r24, 0x31	; 49
    24b2:	11 f0       	breq	.+4      	; 0x24b8 <CheckInput+0x88>
                responseList = 32;
                return 1;
            }
        } 
        //Data received, but not any of the commands above
        return 0;
    24b4:	f1 2c       	mov	r15, r1
    24b6:	4a c2       	rjmp	.+1172   	; 0x294c <CheckInput+0x51c>
                specialPassed = 1;
                //specialInput[0] = 0;
                //data[1] = 0;

            //Special challenge 1
            } else if ((specialInput[0] == '1')&&(specialInput[2] == 0)) {
    24b8:	80 91 0c 39 	lds	r24, 0x390C	; 0x80390c <specialInput+0x2>
    24bc:	81 11       	cpse	r24, r1
    24be:	fa cf       	rjmp	.-12     	; 0x24b4 <CheckInput+0x84>
                uint8_t inputLen = CleanInput((uint8_t *)&serRx[0]);
    24c0:	85 e7       	ldi	r24, 0x75	; 117
    24c2:	9a e3       	ldi	r25, 0x3A	; 58
    24c4:	dd de       	rcall	.-582    	; 0x2280 <CleanInput>
                specialPassed = 2;
    24c6:	92 e0       	ldi	r25, 0x02	; 2
    24c8:	90 93 09 39 	sts	0x3909, r25	; 0x803909 <specialPassed>
                data[1] = 0;
    24cc:	f8 01       	movw	r30, r16
    24ce:	11 82       	std	Z+1, r1	; 0x01

                if (inputLen >= 2) {
    24d0:	82 30       	cpi	r24, 0x02	; 2
    24d2:	80 f3       	brcs	.-32     	; 0x24b4 <CheckInput+0x84>
                    if ((serRx[0] == '1')||(serRx[0] == '2')||(serRx[0] == '3')||(serRx[0] == '4')) {
    24d4:	80 91 75 3a 	lds	r24, 0x3A75	; 0x803a75 <serRx>
    24d8:	81 33       	cpi	r24, 0x31	; 49
    24da:	61 f0       	breq	.+24     	; 0x24f4 <CheckInput+0xc4>
    24dc:	80 91 75 3a 	lds	r24, 0x3A75	; 0x803a75 <serRx>
    24e0:	82 33       	cpi	r24, 0x32	; 50
    24e2:	41 f0       	breq	.+16     	; 0x24f4 <CheckInput+0xc4>
    24e4:	80 91 75 3a 	lds	r24, 0x3A75	; 0x803a75 <serRx>
    24e8:	83 33       	cpi	r24, 0x33	; 51
    24ea:	21 f0       	breq	.+8      	; 0x24f4 <CheckInput+0xc4>
    24ec:	80 91 75 3a 	lds	r24, 0x3A75	; 0x803a75 <serRx>
    24f0:	84 33       	cpi	r24, 0x34	; 52
    24f2:	01 f7       	brne	.-64     	; 0x24b4 <CheckInput+0x84>
                        serRx[1] |= 0x20;
    24f4:	80 91 76 3a 	lds	r24, 0x3A76	; 0x803a76 <serRx+0x1>
    24f8:	80 62       	ori	r24, 0x20	; 32
    24fa:	80 93 76 3a 	sts	0x3A76, r24	; 0x803a76 <serRx+0x1>
                        if ((serRx[1] == 'a')||(serRx[1] == 'e')||(serRx[1] == 'f')||(serRx[1] == 'w')) {
    24fe:	80 91 76 3a 	lds	r24, 0x3A76	; 0x803a76 <serRx+0x1>
    2502:	81 36       	cpi	r24, 0x61	; 97
    2504:	61 f0       	breq	.+24     	; 0x251e <CheckInput+0xee>
    2506:	80 91 76 3a 	lds	r24, 0x3A76	; 0x803a76 <serRx+0x1>
    250a:	85 36       	cpi	r24, 0x65	; 101
    250c:	41 f0       	breq	.+16     	; 0x251e <CheckInput+0xee>
    250e:	80 91 76 3a 	lds	r24, 0x3A76	; 0x803a76 <serRx+0x1>
    2512:	86 36       	cpi	r24, 0x66	; 102
    2514:	21 f0       	breq	.+8      	; 0x251e <CheckInput+0xee>
    2516:	80 91 76 3a 	lds	r24, 0x3A76	; 0x803a76 <serRx+0x1>
    251a:	87 37       	cpi	r24, 0x77	; 119
    251c:	59 f6       	brne	.-106    	; 0x24b4 <CheckInput+0x84>
                            data[1] = specialInput[1]+0x11;
    251e:	80 91 0b 39 	lds	r24, 0x390B	; 0x80390b <specialInput+0x1>
    2522:	8f 5e       	subi	r24, 0xEF	; 239
    2524:	f8 01       	movw	r30, r16
    2526:	81 83       	std	Z+1, r24	; 0x01
                            data[2] = serRx[0];
    2528:	80 91 75 3a 	lds	r24, 0x3A75	; 0x803a75 <serRx>
    252c:	82 83       	std	Z+2, r24	; 0x02
                            data[3] = serRx[1];
    252e:	80 91 76 3a 	lds	r24, 0x3A76	; 0x803a76 <serRx+0x1>
    2532:	83 83       	std	Z+3, r24	; 0x03
                            data[4] = 0;
    2534:	14 82       	std	Z+4, r1	; 0x04
    2536:	0a c2       	rjmp	.+1044   	; 0x294c <CheckInput+0x51c>
        
        //Normal input
        } else {

            //Change status bit
            if ((serRx[0] == '#')&&(RXCNT == 6)){
    2538:	80 91 75 3a 	lds	r24, 0x3A75	; 0x803a75 <serRx>
    253c:	83 32       	cpi	r24, 0x23	; 35
    253e:	89 f5       	brne	.+98     	; 0x25a2 <CheckInput+0x172>
    2540:	8d b3       	in	r24, 0x1d	; 29
    2542:	86 30       	cpi	r24, 0x06	; 6
    2544:	71 f5       	brne	.+92     	; 0x25a2 <CheckInput+0x172>
    2546:	81 e0       	ldi	r24, 0x01	; 1
    2548:	90 e0       	ldi	r25, 0x00	; 0
    254a:	10 e0       	ldi	r17, 0x00	; 0
                uint8_t bitNr = 0;

                for (uint8_t x=1; x<4; ++x) {
                    serRx[x] -= '0';
    254c:	fc 01       	movw	r30, r24
    254e:	eb 58       	subi	r30, 0x8B	; 139
    2550:	f5 4c       	sbci	r31, 0xC5	; 197
    2552:	20 81       	ld	r18, Z
    2554:	20 53       	subi	r18, 0x30	; 48
    2556:	20 83       	st	Z, r18
                    bitNr *= 10;
    2558:	11 0f       	add	r17, r17
    255a:	21 2f       	mov	r18, r17
    255c:	22 0f       	add	r18, r18
    255e:	22 0f       	add	r18, r18
    2560:	12 0f       	add	r17, r18
                    if (serRx[1] > 2) break;
    2562:	20 91 76 3a 	lds	r18, 0x3A76	; 0x803a76 <serRx+0x1>
    2566:	23 30       	cpi	r18, 0x03	; 3
    2568:	48 f4       	brcc	.+18     	; 0x257c <CheckInput+0x14c>
                    if (serRx[x] < 10) {
    256a:	20 81       	ld	r18, Z
    256c:	2a 30       	cpi	r18, 0x0A	; 10
    256e:	b8 f4       	brcc	.+46     	; 0x259e <CheckInput+0x16e>
                        bitNr += serRx[x];
    2570:	20 81       	ld	r18, Z
    2572:	12 0f       	add	r17, r18
    2574:	01 96       	adiw	r24, 0x01	; 1

            //Change status bit
            if ((serRx[0] == '#')&&(RXCNT == 6)){
                uint8_t bitNr = 0;

                for (uint8_t x=1; x<4; ++x) {
    2576:	84 30       	cpi	r24, 0x04	; 4
    2578:	91 05       	cpc	r25, r1
    257a:	41 f7       	brne	.-48     	; 0x254c <CheckInput+0x11c>
                        continue;
                    }
                    bitNr = 0;
                    break;
                }
                if ((bitNr)&&(bitNr!=128)) {
    257c:	81 2f       	mov	r24, r17
    257e:	8f 77       	andi	r24, 0x7F	; 127
    2580:	71 f0       	breq	.+28     	; 0x259e <CheckInput+0x16e>
                    if (Cheat(0xff-bitNr, serRx[4]<<8|serRx[5])) UpdateState(bitNr);
    2582:	80 91 79 3a 	lds	r24, 0x3A79	; 0x803a79 <serRx+0x4>
    2586:	60 91 7a 3a 	lds	r22, 0x3A7A	; 0x803a7a <serRx+0x5>
    258a:	70 e0       	ldi	r23, 0x00	; 0
    258c:	78 2b       	or	r23, r24
    258e:	81 2f       	mov	r24, r17
    2590:	80 95       	com	r24
    2592:	d5 db       	rcall	.-2134   	; 0x1d3e <Cheat>
    2594:	88 23       	and	r24, r24
    2596:	19 f0       	breq	.+6      	; 0x259e <CheckInput+0x16e>
    2598:	81 2f       	mov	r24, r17
    259a:	0e 94 9d 0a 	call	0x153a	; 0x153a <UpdateState>
                }
                responseList = SetStandardResponse(0);
    259e:	80 e0       	ldi	r24, 0x00	; 0
    25a0:	50 c0       	rjmp	.+160    	; 0x2642 <CheckInput+0x212>
    25a2:	d8 01       	movw	r26, r16
    25a4:	80 e0       	ldi	r24, 0x00	; 0
    25a6:	90 e0       	ldi	r25, 0x00	; 0
                return 1;            
            }
            
            //Read up to the \0 character and convert to lower case.
            for (uint8_t x=0; x<RXLEN; ++x){
                if ((serRx[x]<'A')||(serRx[x]>'Z')) data[x]=serRx[x]; else data[x]=serRx[x]|0x20;
    25a8:	fc 01       	movw	r30, r24
    25aa:	eb 58       	subi	r30, 0x8B	; 139
    25ac:	f5 4c       	sbci	r31, 0xC5	; 197
    25ae:	20 81       	ld	r18, Z
    25b0:	21 34       	cpi	r18, 0x41	; 65
    25b2:	18 f0       	brcs	.+6      	; 0x25ba <CheckInput+0x18a>
    25b4:	20 81       	ld	r18, Z
    25b6:	2b 35       	cpi	r18, 0x5B	; 91
    25b8:	10 f0       	brcs	.+4      	; 0x25be <CheckInput+0x18e>
    25ba:	20 81       	ld	r18, Z
    25bc:	02 c0       	rjmp	.+4      	; 0x25c2 <CheckInput+0x192>
    25be:	20 81       	ld	r18, Z
    25c0:	20 62       	ori	r18, 0x20	; 32
    25c2:	2c 93       	st	X, r18
                if (serRx[x] == 0) {
    25c4:	20 81       	ld	r18, Z
    25c6:	21 11       	cpse	r18, r1
    25c8:	05 c0       	rjmp	.+10     	; 0x25d4 <CheckInput+0x1a4>
                    data[x] = 0;
    25ca:	f8 01       	movw	r30, r16
    25cc:	e8 0f       	add	r30, r24
    25ce:	f1 1d       	adc	r31, r1
    25d0:	10 82       	st	Z, r1
                    break;
    25d2:	05 c0       	rjmp	.+10     	; 0x25de <CheckInput+0x1ae>
    25d4:	01 96       	adiw	r24, 0x01	; 1
    25d6:	11 96       	adiw	r26, 0x01	; 1
                responseList = SetStandardResponse(0);
                return 1;            
            }
            
            //Read up to the \0 character and convert to lower case.
            for (uint8_t x=0; x<RXLEN; ++x){
    25d8:	81 34       	cpi	r24, 0x41	; 65
    25da:	91 05       	cpc	r25, r1
    25dc:	29 f7       	brne	.-54     	; 0x25a8 <CheckInput+0x178>
                    break;
                }
            }

            //No text
            if (serRx[0] == 0){
    25de:	80 91 75 3a 	lds	r24, 0x3A75	; 0x803a75 <serRx>
                data[0] = 0;
    25e2:	f8 01       	movw	r30, r16
                    break;
                }
            }

            //No text
            if (serRx[0] == 0){
    25e4:	81 11       	cpse	r24, r1
    25e6:	05 c0       	rjmp	.+10     	; 0x25f2 <CheckInput+0x1c2>
                data[0] = 0;
    25e8:	10 82       	st	Z, r1
                RXCNT = 0;
    25ea:	1d ba       	out	0x1d, r1	; 29
                serRxDone = 0;
    25ec:	10 92 44 38 	sts	0x3844, r1	; 0x803844 <serRxDone>
    25f0:	ab c1       	rjmp	.+854    	; 0x2948 <CheckInput+0x518>
                return 1;
            }

            //Help text
            if ((data[0] == '?')||(data[0] == 'h')){
    25f2:	80 81       	ld	r24, Z
    25f4:	8f 33       	cpi	r24, 0x3F	; 63
    25f6:	11 f0       	breq	.+4      	; 0x25fc <CheckInput+0x1cc>
    25f8:	88 36       	cpi	r24, 0x68	; 104
    25fa:	39 f5       	brne	.+78     	; 0x264a <CheckInput+0x21a>
    return 0;
}

//
void SetResponse(uint8_t number, uint16_t address, uint16_t length, uint8_t type){
    reactStr[0][number]=address;
    25fc:	8b e5       	ldi	r24, 0x5B	; 91
    25fe:	9a e7       	ldi	r25, 0x7A	; 122
    2600:	80 93 1b 39 	sts	0x391B, r24	; 0x80391b <reactStr>
    2604:	90 93 1c 39 	sts	0x391C, r25	; 0x80391c <reactStr+0x1>
    reactStr[1][number]=length;
    2608:	84 e0       	ldi	r24, 0x04	; 4
    260a:	90 e0       	ldi	r25, 0x00	; 0
    260c:	80 93 5b 39 	sts	0x395B, r24	; 0x80395b <reactStr+0x40>
    2610:	90 93 5c 39 	sts	0x395C, r25	; 0x80395c <reactStr+0x41>
    reactStr[2][number]=type;
    2614:	81 e0       	ldi	r24, 0x01	; 1
    2616:	90 e0       	ldi	r25, 0x00	; 0
    2618:	80 93 9b 39 	sts	0x399B, r24	; 0x80399b <reactStr+0x80>
    261c:	90 93 9c 39 	sts	0x399C, r25	; 0x80399c <reactStr+0x81>
    return 0;
}

//
void SetResponse(uint8_t number, uint16_t address, uint16_t length, uint8_t type){
    reactStr[0][number]=address;
    2620:	23 e9       	ldi	r18, 0x93	; 147
    2622:	3b e7       	ldi	r19, 0x7B	; 123
    2624:	20 93 1d 39 	sts	0x391D, r18	; 0x80391d <reactStr+0x2>
    2628:	30 93 1e 39 	sts	0x391E, r19	; 0x80391e <reactStr+0x3>
    reactStr[1][number]=length;
    262c:	2d e6       	ldi	r18, 0x6D	; 109
    262e:	34 e0       	ldi	r19, 0x04	; 4
    2630:	20 93 5d 39 	sts	0x395D, r18	; 0x80395d <reactStr+0x42>
    2634:	30 93 5e 39 	sts	0x395E, r19	; 0x80395e <reactStr+0x43>
    reactStr[2][number]=type;
    2638:	80 93 9d 39 	sts	0x399D, r24	; 0x80399d <reactStr+0x82>
    263c:	90 93 9e 39 	sts	0x399E, r25	; 0x80399e <reactStr+0x83>

            //Help text
            if ((data[0] == '?')||(data[0] == 'h')){
                SetResponse(0, A_LF, 4, TEASER);
                SetResponse(1, A_HELP, L_HELP, TEASER);
                responseList = SetStandardResponse(2);
    2640:	82 e0       	ldi	r24, 0x02	; 2
    2642:	6f dc       	rcall	.-1826   	; 0x1f22 <SetStandardResponse>
    2644:	80 93 1a 39 	sts	0x391A, r24	; 0x80391a <responseList>
    2648:	7f c1       	rjmp	.+766    	; 0x2948 <CheckInput+0x518>
                return 1;
            }        
        
            //Alphabet text
            if (data[0] == 'a'){
    264a:	81 36       	cpi	r24, 0x61	; 97
    264c:	d9 f4       	brne	.+54     	; 0x2684 <CheckInput+0x254>
    return 0;
}

//
void SetResponse(uint8_t number, uint16_t address, uint16_t length, uint8_t type){
    reactStr[0][number]=address;
    264e:	8b e5       	ldi	r24, 0x5B	; 91
    2650:	9a e7       	ldi	r25, 0x7A	; 122
    2652:	80 93 1b 39 	sts	0x391B, r24	; 0x80391b <reactStr>
    2656:	90 93 1c 39 	sts	0x391C, r25	; 0x80391c <reactStr+0x1>
    reactStr[1][number]=length;
    265a:	84 e0       	ldi	r24, 0x04	; 4
    265c:	90 e0       	ldi	r25, 0x00	; 0
    265e:	80 93 5b 39 	sts	0x395B, r24	; 0x80395b <reactStr+0x40>
    2662:	90 93 5c 39 	sts	0x395C, r25	; 0x80395c <reactStr+0x41>
    reactStr[2][number]=type;
    2666:	81 e0       	ldi	r24, 0x01	; 1
    2668:	90 e0       	ldi	r25, 0x00	; 0
    266a:	80 93 9b 39 	sts	0x399B, r24	; 0x80399b <reactStr+0x80>
    266e:	90 93 9c 39 	sts	0x399C, r25	; 0x80399c <reactStr+0x81>
    return 0;
}

//
void SetResponse(uint8_t number, uint16_t address, uint16_t length, uint8_t type){
    reactStr[0][number]=address;
    2672:	2e e6       	ldi	r18, 0x6E	; 110
    2674:	3a e7       	ldi	r19, 0x7A	; 122
    2676:	20 93 1d 39 	sts	0x391D, r18	; 0x80391d <reactStr+0x2>
    267a:	30 93 1e 39 	sts	0x391E, r19	; 0x80391e <reactStr+0x3>
    reactStr[1][number]=length;
    267e:	25 e2       	ldi	r18, 0x25	; 37
    2680:	31 e0       	ldi	r19, 0x01	; 1
    2682:	d6 cf       	rjmp	.-84     	; 0x2630 <CheckInput+0x200>
                responseList = SetStandardResponse(2);
                return 1;
            }

            //Whoami text
            if (data[0] == 'w'){
    2684:	87 37       	cpi	r24, 0x77	; 119
    2686:	09 f0       	breq	.+2      	; 0x268a <CheckInput+0x25a>
    2688:	6e c0       	rjmp	.+220    	; 0x2766 <CheckInput+0x336>
    return 0;
}

//
void SetResponse(uint8_t number, uint16_t address, uint16_t length, uint8_t type){
    reactStr[0][number]=address;
    268a:	8b e5       	ldi	r24, 0x5B	; 91
    268c:	9a e7       	ldi	r25, 0x7A	; 122
    268e:	80 93 1b 39 	sts	0x391B, r24	; 0x80391b <reactStr>
    2692:	90 93 1c 39 	sts	0x391C, r25	; 0x80391c <reactStr+0x1>
    reactStr[1][number]=length;
    2696:	84 e0       	ldi	r24, 0x04	; 4
    2698:	90 e0       	ldi	r25, 0x00	; 0
    269a:	80 93 5b 39 	sts	0x395B, r24	; 0x80395b <reactStr+0x40>
    269e:	90 93 5c 39 	sts	0x395C, r25	; 0x80395c <reactStr+0x41>
    reactStr[2][number]=type;
    26a2:	21 e0       	ldi	r18, 0x01	; 1
    26a4:	30 e0       	ldi	r19, 0x00	; 0
    26a6:	20 93 9b 39 	sts	0x399B, r18	; 0x80399b <reactStr+0x80>
    26aa:	30 93 9c 39 	sts	0x399C, r19	; 0x80399c <reactStr+0x81>
    return 0;
}

//
void SetResponse(uint8_t number, uint16_t address, uint16_t length, uint8_t type){
    reactStr[0][number]=address;
    26ae:	8a ec       	ldi	r24, 0xCA	; 202
    26b0:	96 e7       	ldi	r25, 0x76	; 118
    26b2:	80 93 1d 39 	sts	0x391D, r24	; 0x80391d <reactStr+0x2>
    26b6:	90 93 1e 39 	sts	0x391E, r25	; 0x80391e <reactStr+0x3>
    reactStr[1][number]=length;
    26ba:	82 e1       	ldi	r24, 0x12	; 18
    26bc:	90 e0       	ldi	r25, 0x00	; 0
    26be:	80 93 5d 39 	sts	0x395D, r24	; 0x80395d <reactStr+0x42>
    26c2:	90 93 5e 39 	sts	0x395E, r25	; 0x80395e <reactStr+0x43>
    reactStr[2][number]=type;
    26c6:	20 93 9d 39 	sts	0x399D, r18	; 0x80399d <reactStr+0x82>
    26ca:	30 93 9e 39 	sts	0x399E, r19	; 0x80399e <reactStr+0x83>

            //Whoami text
            if (data[0] == 'w'){
                SetResponse(0, A_LF, 4, TEASER);
                SetResponse(1, A_HELLO, L_HELLO, TEASER);
                if (whoami == 1) {
    26ce:	80 91 3d 38 	lds	r24, 0x383D	; 0x80383d <whoami>
    26d2:	81 30       	cpi	r24, 0x01	; 1
    26d4:	19 f4       	brne	.+6      	; 0x26dc <CheckInput+0x2ac>
    return 0;
}

//
void SetResponse(uint8_t number, uint16_t address, uint16_t length, uint8_t type){
    reactStr[0][number]=address;
    26d6:	84 ec       	ldi	r24, 0xC4	; 196
    26d8:	96 e7       	ldi	r25, 0x76	; 118
    26da:	0f c0       	rjmp	.+30     	; 0x26fa <CheckInput+0x2ca>
            if (data[0] == 'w'){
                SetResponse(0, A_LF, 4, TEASER);
                SetResponse(1, A_HELLO, L_HELLO, TEASER);
                if (whoami == 1) {
                    SetResponse(2, A_ANUBIS, L_ANUBIS, TEASER);
                } else if (whoami == 2) {
    26dc:	82 30       	cpi	r24, 0x02	; 2
    26de:	49 f4       	brne	.+18     	; 0x26f2 <CheckInput+0x2c2>
    return 0;
}

//
void SetResponse(uint8_t number, uint16_t address, uint16_t length, uint8_t type){
    reactStr[0][number]=address;
    26e0:	81 ec       	ldi	r24, 0xC1	; 193
    26e2:	96 e7       	ldi	r25, 0x76	; 118
    26e4:	80 93 1f 39 	sts	0x391F, r24	; 0x80391f <reactStr+0x4>
    26e8:	90 93 20 39 	sts	0x3920, r25	; 0x803920 <reactStr+0x5>
    reactStr[1][number]=length;
    26ec:	83 e0       	ldi	r24, 0x03	; 3
    26ee:	90 e0       	ldi	r25, 0x00	; 0
    26f0:	1e c0       	rjmp	.+60     	; 0x272e <CheckInput+0x2fe>
                SetResponse(1, A_HELLO, L_HELLO, TEASER);
                if (whoami == 1) {
                    SetResponse(2, A_ANUBIS, L_ANUBIS, TEASER);
                } else if (whoami == 2) {
                    SetResponse(2, A_BES, L_BES, TEASER);
                } else if (whoami == 3) {
    26f2:	83 30       	cpi	r24, 0x03	; 3
    26f4:	49 f4       	brne	.+18     	; 0x2708 <CheckInput+0x2d8>
    return 0;
}

//
void SetResponse(uint8_t number, uint16_t address, uint16_t length, uint8_t type){
    reactStr[0][number]=address;
    26f6:	8b eb       	ldi	r24, 0xBB	; 187
    26f8:	96 e7       	ldi	r25, 0x76	; 118
    26fa:	80 93 1f 39 	sts	0x391F, r24	; 0x80391f <reactStr+0x4>
    26fe:	90 93 20 39 	sts	0x3920, r25	; 0x803920 <reactStr+0x5>
    reactStr[1][number]=length;
    2702:	86 e0       	ldi	r24, 0x06	; 6
    2704:	90 e0       	ldi	r25, 0x00	; 0
    2706:	13 c0       	rjmp	.+38     	; 0x272e <CheckInput+0x2fe>
                    SetResponse(2, A_ANUBIS, L_ANUBIS, TEASER);
                } else if (whoami == 2) {
                    SetResponse(2, A_BES, L_BES, TEASER);
                } else if (whoami == 3) {
                    SetResponse(2, A_KHONSU, L_KHONSU, TEASER);
                } else if (whoami == 4) {
    2708:	84 30       	cpi	r24, 0x04	; 4
    270a:	49 f4       	brne	.+18     	; 0x271e <CheckInput+0x2ee>
    return 0;
}

//
void SetResponse(uint8_t number, uint16_t address, uint16_t length, uint8_t type){
    reactStr[0][number]=address;
    270c:	86 eb       	ldi	r24, 0xB6	; 182
    270e:	96 e7       	ldi	r25, 0x76	; 118
    2710:	80 93 1f 39 	sts	0x391F, r24	; 0x80391f <reactStr+0x4>
    2714:	90 93 20 39 	sts	0x3920, r25	; 0x803920 <reactStr+0x5>
    reactStr[1][number]=length;
    2718:	85 e0       	ldi	r24, 0x05	; 5
    271a:	90 e0       	ldi	r25, 0x00	; 0
    271c:	08 c0       	rjmp	.+16     	; 0x272e <CheckInput+0x2fe>
    return 0;
}

//
void SetResponse(uint8_t number, uint16_t address, uint16_t length, uint8_t type){
    reactStr[0][number]=address;
    271e:	8f e3       	ldi	r24, 0x3F	; 63
    2720:	96 e7       	ldi	r25, 0x76	; 118
    2722:	80 93 1f 39 	sts	0x391F, r24	; 0x80391f <reactStr+0x4>
    2726:	90 93 20 39 	sts	0x3920, r25	; 0x803920 <reactStr+0x5>
    reactStr[1][number]=length;
    272a:	82 e4       	ldi	r24, 0x42	; 66
    272c:	90 e0       	ldi	r25, 0x00	; 0
    272e:	80 93 5f 39 	sts	0x395F, r24	; 0x80395f <reactStr+0x44>
    2732:	90 93 60 39 	sts	0x3960, r25	; 0x803960 <reactStr+0x45>
    reactStr[2][number]=type;
    2736:	20 93 9f 39 	sts	0x399F, r18	; 0x80399f <reactStr+0x84>
    273a:	30 93 a0 39 	sts	0x39A0, r19	; 0x8039a0 <reactStr+0x85>
    return 0;
}

//
void SetResponse(uint8_t number, uint16_t address, uint16_t length, uint8_t type){
    reactStr[0][number]=address;
    273e:	8c e9       	ldi	r24, 0x9C	; 156
    2740:	96 e7       	ldi	r25, 0x76	; 118
    2742:	80 93 21 39 	sts	0x3921, r24	; 0x803921 <reactStr+0x6>
    2746:	90 93 22 39 	sts	0x3922, r25	; 0x803922 <reactStr+0x7>
    reactStr[1][number]=length;
    274a:	8a e1       	ldi	r24, 0x1A	; 26
    274c:	90 e0       	ldi	r25, 0x00	; 0
    274e:	80 93 61 39 	sts	0x3961, r24	; 0x803961 <reactStr+0x46>
    2752:	90 93 62 39 	sts	0x3962, r25	; 0x803962 <reactStr+0x47>
    reactStr[2][number]=type;
    2756:	81 e0       	ldi	r24, 0x01	; 1
    2758:	90 e0       	ldi	r25, 0x00	; 0
    275a:	80 93 a1 39 	sts	0x39A1, r24	; 0x8039a1 <reactStr+0x86>
    275e:	90 93 a2 39 	sts	0x39A2, r25	; 0x8039a2 <reactStr+0x87>
                    SetResponse(2, A_THOTH, L_THOTH, TEASER);
                } else {
                    SetResponse(2, A_ERROR, L_ERROR, TEASER);
                }
                SetResponse(3, A_PLEASED, L_PLEASED, TEASER);
                responseList = SetStandardResponse(4);
    2762:	84 e0       	ldi	r24, 0x04	; 4
    2764:	6e cf       	rjmp	.-292    	; 0x2642 <CheckInput+0x212>
                return 1;
            }

            //Quit text
            if (data[0] == 'q'){
    2766:	81 37       	cpi	r24, 0x71	; 113
    2768:	d9 f4       	brne	.+54     	; 0x27a0 <CheckInput+0x370>
    return 0;
}

//
void SetResponse(uint8_t number, uint16_t address, uint16_t length, uint8_t type){
    reactStr[0][number]=address;
    276a:	8b e5       	ldi	r24, 0x5B	; 91
    276c:	9a e7       	ldi	r25, 0x7A	; 122
    276e:	80 93 1b 39 	sts	0x391B, r24	; 0x80391b <reactStr>
    2772:	90 93 1c 39 	sts	0x391C, r25	; 0x80391c <reactStr+0x1>
    reactStr[1][number]=length;
    2776:	84 e0       	ldi	r24, 0x04	; 4
    2778:	90 e0       	ldi	r25, 0x00	; 0
    277a:	80 93 5b 39 	sts	0x395B, r24	; 0x80395b <reactStr+0x40>
    277e:	90 93 5c 39 	sts	0x395C, r25	; 0x80395c <reactStr+0x41>
    reactStr[2][number]=type;
    2782:	81 e0       	ldi	r24, 0x01	; 1
    2784:	90 e0       	ldi	r25, 0x00	; 0
    2786:	80 93 9b 39 	sts	0x399B, r24	; 0x80399b <reactStr+0x80>
    278a:	90 93 9c 39 	sts	0x399C, r25	; 0x80399c <reactStr+0x81>
    return 0;
}

//
void SetResponse(uint8_t number, uint16_t address, uint16_t length, uint8_t type){
    reactStr[0][number]=address;
    278e:	22 e0       	ldi	r18, 0x02	; 2
    2790:	3a e7       	ldi	r19, 0x7A	; 122
    2792:	20 93 1d 39 	sts	0x391D, r18	; 0x80391d <reactStr+0x2>
    2796:	30 93 1e 39 	sts	0x391E, r19	; 0x80391e <reactStr+0x3>
    reactStr[1][number]=length;
    279a:	25 e5       	ldi	r18, 0x55	; 85
    279c:	30 e0       	ldi	r19, 0x00	; 0
                responseList = SetStandardResponse(2);
                return 1;
            }

            //Fake cheat = reset badge!
            if (StartsWith(&data[0], "iddqd")){
    279e:	48 cf       	rjmp	.-368    	; 0x2630 <CheckInput+0x200>
    27a0:	64 e1       	ldi	r22, 0x14	; 20
    27a2:	7e eb       	ldi	r23, 0xBE	; 190
    27a4:	c8 01       	movw	r24, r16
    27a6:	6b db       	rcall	.-2346   	; 0x1e7e <StartsWith>
    27a8:	88 23       	and	r24, r24
    27aa:	f9 f0       	breq	.+62     	; 0x27ea <CheckInput+0x3ba>
    27ac:	1e e6       	ldi	r17, 0x6E	; 110
            
                //Reset game data by wiping the UUID bits
                for (uint8_t x=0; x<4; ++x){
                    WriteStatusBit(110+x, 0);
    27ae:	60 e0       	ldi	r22, 0x00	; 0
    27b0:	81 2f       	mov	r24, r17
    27b2:	0e 94 83 0a 	call	0x1506	; 0x1506 <WriteStatusBit>
    27b6:	1f 5f       	subi	r17, 0xFF	; 255

            //Fake cheat = reset badge!
            if (StartsWith(&data[0], "iddqd")){
            
                //Reset game data by wiping the UUID bits
                for (uint8_t x=0; x<4; ++x){
    27b8:	12 37       	cpi	r17, 0x72	; 114
    27ba:	c9 f7       	brne	.-14     	; 0x27ae <CheckInput+0x37e>
                    WriteStatusBit(110+x, 0);
                }
                SaveGameState();
    27bc:	0e 94 fc 09 	call	0x13f8	; 0x13f8 <SaveGameState>

                uint8_t cheat[] = "Cheater! Contact badge team... ";
    27c0:	80 e2       	ldi	r24, 0x20	; 32
    27c2:	e7 e5       	ldi	r30, 0x57	; 87
    27c4:	fe eb       	ldi	r31, 0xBE	; 190
    27c6:	de 01       	movw	r26, r28
    27c8:	11 96       	adiw	r26, 0x01	; 1
    27ca:	01 90       	ld	r0, Z+
    27cc:	0d 92       	st	X+, r0
    27ce:	8a 95       	dec	r24
    27d0:	e1 f7       	brne	.-8      	; 0x27ca <CheckInput+0x39a>
                SerSpeed(60);
    27d2:	8c e3       	ldi	r24, 0x3C	; 60
    27d4:	0e 94 ee 08 	call	0x11dc	; 0x11dc <SerSpeed>
                while(1){
                    if (serTxDone) SerSend(&cheat[0]);
    27d8:	80 91 0a 38 	lds	r24, 0x380A	; 0x80380a <serTxDone>
    27dc:	88 23       	and	r24, r24
    27de:	e1 f3       	breq	.-8      	; 0x27d8 <CheckInput+0x3a8>
    27e0:	ce 01       	movw	r24, r28
    27e2:	01 96       	adiw	r24, 0x01	; 1
    27e4:	0e 94 dd 08 	call	0x11ba	; 0x11ba <SerSend>
                }
            }
            
            //Cheat reset (Quote from: Donald E. Westlake)
            if (StartsWith(&data[0], "the trouble with real life is, there's no reset button")){
    27e8:	f7 cf       	rjmp	.-18     	; 0x27d8 <CheckInput+0x3a8>
    27ea:	6a e1       	ldi	r22, 0x1A	; 26
    27ec:	7e eb       	ldi	r23, 0xBE	; 190
    27ee:	c8 01       	movw	r24, r16
    27f0:	46 db       	rcall	.-2420   	; 0x1e7e <StartsWith>
    27f2:	68 2e       	mov	r6, r24
    27f4:	88 23       	and	r24, r24
    27f6:	61 f1       	breq	.+88     	; 0x2850 <CheckInput+0x420>
                
                //Reset cheat data by resetting the EEPROM bytes
                uint8_t empty=0xff;
    27f8:	8f ef       	ldi	r24, 0xFF	; 255
    27fa:	89 a3       	std	Y+33, r24	; 0x21
    27fc:	18 e1       	ldi	r17, 0x18	; 24
                for (uint8_t x=0; x<MAX_CHEATS; ++x){
                    EEWrite(CHEATS+x, &empty, 1);
    27fe:	41 e0       	ldi	r20, 0x01	; 1
    2800:	be 01       	movw	r22, r28
    2802:	6f 5d       	subi	r22, 0xDF	; 223
    2804:	7f 4f       	sbci	r23, 0xFF	; 255
    2806:	81 2f       	mov	r24, r17
    2808:	0e 94 b5 08 	call	0x116a	; 0x116a <EEWrite>
    280c:	1f 5f       	subi	r17, 0xFF	; 255
            //Cheat reset (Quote from: Donald E. Westlake)
            if (StartsWith(&data[0], "the trouble with real life is, there's no reset button")){
                
                //Reset cheat data by resetting the EEPROM bytes
                uint8_t empty=0xff;
                for (uint8_t x=0; x<MAX_CHEATS; ++x){
    280e:	10 32       	cpi	r17, 0x20	; 32
    2810:	b1 f7       	brne	.-20     	; 0x27fe <CheckInput+0x3ce>
    2812:	1e e6       	ldi	r17, 0x6E	; 110
                    EEWrite(CHEATS+x, &empty, 1);
                }
                //Reset game data by wiping the UUID bits
                for (uint8_t x=0; x<4; ++x){
                    WriteStatusBit(110+x, 0);
    2814:	60 e0       	ldi	r22, 0x00	; 0
    2816:	81 2f       	mov	r24, r17
    2818:	0e 94 83 0a 	call	0x1506	; 0x1506 <WriteStatusBit>
    281c:	1f 5f       	subi	r17, 0xFF	; 255
                uint8_t empty=0xff;
                for (uint8_t x=0; x<MAX_CHEATS; ++x){
                    EEWrite(CHEATS+x, &empty, 1);
                }
                //Reset game data by wiping the UUID bits
                for (uint8_t x=0; x<4; ++x){
    281e:	12 37       	cpi	r17, 0x72	; 114
    2820:	c9 f7       	brne	.-14     	; 0x2814 <CheckInput+0x3e4>
                    WriteStatusBit(110+x, 0);
                }
                
                SaveGameState();
    2822:	0e 94 fc 09 	call	0x13f8	; 0x13f8 <SaveGameState>

                uint8_t cheat[] = "Reset please! ";
    2826:	8f e0       	ldi	r24, 0x0F	; 15
    2828:	e7 e7       	ldi	r30, 0x77	; 119
    282a:	fe eb       	ldi	r31, 0xBE	; 190
    282c:	de 01       	movw	r26, r28
    282e:	11 96       	adiw	r26, 0x01	; 1
    2830:	01 90       	ld	r0, Z+
    2832:	0d 92       	st	X+, r0
    2834:	8a 95       	dec	r24
    2836:	e1 f7       	brne	.-8      	; 0x2830 <CheckInput+0x400>
                SerSpeed(60);
    2838:	8c e3       	ldi	r24, 0x3C	; 60
    283a:	0e 94 ee 08 	call	0x11dc	; 0x11dc <SerSpeed>
                while(1){
                    if (serTxDone) SerSend(&cheat[0]);
    283e:	80 91 0a 38 	lds	r24, 0x380A	; 0x80380a <serTxDone>
    2842:	88 23       	and	r24, r24
    2844:	e1 f3       	breq	.-8      	; 0x283e <CheckInput+0x40e>
    2846:	ce 01       	movw	r24, r28
    2848:	01 96       	adiw	r24, 0x01	; 1
    284a:	0e 94 dd 08 	call	0x11ba	; 0x11ba <SerSend>
                }
            }
            if (StartsWith(&data[0], "cheat")){
    284e:	f7 cf       	rjmp	.-18     	; 0x283e <CheckInput+0x40e>
    2850:	61 e5       	ldi	r22, 0x51	; 81
    2852:	7e eb       	ldi	r23, 0xBE	; 190
    2854:	c8 01       	movw	r24, r16
    2856:	13 db       	rcall	.-2522   	; 0x1e7e <StartsWith>
    2858:	88 23       	and	r24, r24
    285a:	09 f4       	brne	.+2      	; 0x285e <CheckInput+0x42e>
    285c:	2b ce       	rjmp	.-938    	; 0x24b4 <CheckInput+0x84>
    285e:	0b e1       	ldi	r16, 0x1B	; 27
    2860:	19 e3       	ldi	r17, 0x39	; 57
    2862:	78 e1       	ldi	r23, 0x18	; 24
    2864:	77 2e       	mov	r7, r23
                    
                    //Set up sending out number
                    EERead(CHEATS+x, &bit, 1);
                    bit = 0xff-bit;
                    for (n=2; n>=0; --n) {
                        digit[n] = bit % 10;
    2866:	ea e0       	ldi	r30, 0x0A	; 10
    2868:	5e 2e       	mov	r5, r30
                        bit /= 10;
    286a:	f4 e6       	ldi	r31, 0x64	; 100
    286c:	4f 2e       	mov	r4, r31
}

//
void SetResponse(uint8_t number, uint16_t address, uint16_t length, uint8_t type){
    reactStr[0][number]=address;
    reactStr[1][number]=length;
    286e:	ee 24       	eor	r14, r14
    2870:	e3 94       	inc	r14
    2872:	f1 2c       	mov	r15, r1
    2874:	cc 24       	eor	r12, r12
    2876:	c3 94       	inc	r12
    2878:	d1 2c       	mov	r13, r1
    return 0;
}

//
void SetResponse(uint8_t number, uint16_t address, uint16_t length, uint8_t type){
    reactStr[0][number]=address;
    287a:	89 e5       	ldi	r24, 0x59	; 89
    287c:	88 2e       	mov	r8, r24
    287e:	8a e7       	ldi	r24, 0x7A	; 122
    2880:	98 2e       	mov	r9, r24
    reactStr[1][number]=length;
    2882:	92 e0       	ldi	r25, 0x02	; 2
    2884:	a9 2e       	mov	r10, r25
    2886:	b1 2c       	mov	r11, r1
                uint8_t bit, digit[3];

                for (uint8_t x=0; x<MAX_CHEATS; ++x){
                    
                    //Set up sending out number
                    EERead(CHEATS+x, &bit, 1);
    2888:	41 e0       	ldi	r20, 0x01	; 1
    288a:	be 01       	movw	r22, r28
    288c:	6f 5d       	subi	r22, 0xDF	; 223
    288e:	7f 4f       	sbci	r23, 0xFF	; 255
    2890:	87 2d       	mov	r24, r7
    2892:	0e 94 a5 08 	call	0x114a	; 0x114a <EERead>
                    bit = 0xff-bit;
    2896:	29 a1       	ldd	r18, Y+33	; 0x21
    2898:	20 95       	com	r18
                    for (n=2; n>=0; --n) {
                        digit[n] = bit % 10;
    289a:	82 2f       	mov	r24, r18
    289c:	65 2d       	mov	r22, r5
    289e:	0e 94 73 1e 	call	0x3ce6	; 0x3ce6 <__udivmodqi4>
    28a2:	9b 83       	std	Y+3, r25	; 0x03
    28a4:	0e 94 73 1e 	call	0x3ce6	; 0x3ce6 <__udivmodqi4>
    28a8:	9a 83       	std	Y+2, r25	; 0x02
                        bit /= 10;
    28aa:	82 2f       	mov	r24, r18
    28ac:	64 2d       	mov	r22, r4
    28ae:	0e 94 73 1e 	call	0x3ce6	; 0x3ce6 <__udivmodqi4>
                    
                    //Set up sending out number
                    EERead(CHEATS+x, &bit, 1);
                    bit = 0xff-bit;
                    for (n=2; n>=0; --n) {
                        digit[n] = bit % 10;
    28b2:	89 83       	std	Y+1, r24	; 0x01
    28b4:	19 a2       	std	Y+33, r1	; 0x21
    28b6:	de 01       	movw	r26, r28
    28b8:	11 96       	adiw	r26, 0x01	; 1
    28ba:	40 e0       	ldi	r20, 0x00	; 0
                        bit /= 10;
                    }

                    for (n=0; n<3; ++n) {
                        SetResponse(x*4+n, A_DIGITS+digit[n], 1, TEASER);
    28bc:	2d 91       	ld	r18, X+
    return 0;
}

//
void SetResponse(uint8_t number, uint16_t address, uint16_t length, uint8_t type){
    reactStr[0][number]=address;
    28be:	86 2d       	mov	r24, r6
    28c0:	84 0f       	add	r24, r20
    28c2:	90 e0       	ldi	r25, 0x00	; 0
    28c4:	fc 01       	movw	r30, r24
    28c6:	ee 0f       	add	r30, r30
    28c8:	ff 1f       	adc	r31, r31
    28ca:	e5 5e       	subi	r30, 0xE5	; 229
    28cc:	f6 4c       	sbci	r31, 0xC6	; 198
    28ce:	30 e0       	ldi	r19, 0x00	; 0
    28d0:	2e 52       	subi	r18, 0x2E	; 46
    28d2:	3b 48       	sbci	r19, 0x8B	; 139
    28d4:	20 83       	st	Z, r18
    28d6:	31 83       	std	Z+1, r19	; 0x01
    reactStr[1][number]=length;
    28d8:	fc 01       	movw	r30, r24
    28da:	ee 0f       	add	r30, r30
    28dc:	ff 1f       	adc	r31, r31
    28de:	e5 5a       	subi	r30, 0xA5	; 165
    28e0:	f6 4c       	sbci	r31, 0xC6	; 198
    28e2:	e0 82       	st	Z, r14
    28e4:	f1 82       	std	Z+1, r15	; 0x01
    reactStr[2][number]=type;
    28e6:	88 0f       	add	r24, r24
    28e8:	99 1f       	adc	r25, r25
    28ea:	fc 01       	movw	r30, r24
    28ec:	e5 56       	subi	r30, 0x65	; 101
    28ee:	f6 4c       	sbci	r31, 0xC6	; 198
    28f0:	e0 82       	st	Z, r14
    28f2:	f1 82       	std	Z+1, r15	; 0x01
    28f4:	4f 5f       	subi	r20, 0xFF	; 255
                    for (n=2; n>=0; --n) {
                        digit[n] = bit % 10;
                        bit /= 10;
                    }

                    for (n=0; n<3; ++n) {
    28f6:	43 30       	cpi	r20, 0x03	; 3
    28f8:	09 f7       	brne	.-62     	; 0x28bc <CheckInput+0x48c>
    return 0;
}

//
void SetResponse(uint8_t number, uint16_t address, uint16_t length, uint8_t type){
    reactStr[0][number]=address;
    28fa:	f8 01       	movw	r30, r16
    28fc:	86 82       	std	Z+6, r8	; 0x06
    28fe:	97 82       	std	Z+7, r9	; 0x07
    reactStr[1][number]=length;
    2900:	ea 5b       	subi	r30, 0xBA	; 186
    2902:	ff 4f       	sbci	r31, 0xFF	; 255
    2904:	a0 82       	st	Z, r10
    2906:	b1 82       	std	Z+1, r11	; 0x01
    reactStr[2][number]=type;
    2908:	e0 5c       	subi	r30, 0xC0	; 192
    290a:	ff 4f       	sbci	r31, 0xFF	; 255
    290c:	c0 82       	st	Z, r12
    290e:	d1 82       	std	Z+1, r13	; 0x01
    2910:	73 94       	inc	r7
    2912:	08 5f       	subi	r16, 0xF8	; 248
    2914:	1f 4f       	sbci	r17, 0xFF	; 255
    2916:	f4 e0       	ldi	r31, 0x04	; 4
    2918:	6f 0e       	add	r6, r31
            }
            if (StartsWith(&data[0], "cheat")){
                int8_t n;
                uint8_t bit, digit[3];

                for (uint8_t x=0; x<MAX_CHEATS; ++x){
    291a:	80 e2       	ldi	r24, 0x20	; 32
    291c:	78 12       	cpse	r7, r24
    291e:	b4 cf       	rjmp	.-152    	; 0x2888 <CheckInput+0x458>
    return 0;
}

//
void SetResponse(uint8_t number, uint16_t address, uint16_t length, uint8_t type){
    reactStr[0][number]=address;
    2920:	8b e5       	ldi	r24, 0x5B	; 91
    2922:	9a e7       	ldi	r25, 0x7A	; 122
    2924:	80 93 59 39 	sts	0x3959, r24	; 0x803959 <reactStr+0x3e>
    2928:	90 93 5a 39 	sts	0x395A, r25	; 0x80395a <reactStr+0x3f>
    reactStr[1][number]=length;
    292c:	84 e0       	ldi	r24, 0x04	; 4
    292e:	90 e0       	ldi	r25, 0x00	; 0
    2930:	80 93 99 39 	sts	0x3999, r24	; 0x803999 <reactStr+0x7e>
    2934:	90 93 9a 39 	sts	0x399A, r25	; 0x80399a <reactStr+0x7f>
    reactStr[2][number]=type;
    2938:	81 e0       	ldi	r24, 0x01	; 1
    293a:	90 e0       	ldi	r25, 0x00	; 0
    293c:	80 93 d9 39 	sts	0x39D9, r24	; 0x8039d9 <reactStr+0xbe>
    2940:	90 93 da 39 	sts	0x39DA, r25	; 0x8039da <reactStr+0xbf>
                        SetResponse(x*4+n, A_DIGITS+digit[n], 1, TEASER);
                    }                
                    SetResponse(x*4+3, A_COMMA, L_COMMA, TEASER);
                }
                SetResponse((4*MAX_CHEATS)-1, A_LF, 4, TEASER);
                responseList = 32;
    2944:	70 92 1a 39 	sts	0x391A, r7	; 0x80391a <responseList>
        //Data received, but not any of the commands above
        return 0;
    }

    //Serial input not available yet
    return 1;
    2948:	ff 24       	eor	r15, r15
    294a:	f3 94       	inc	r15
}
    294c:	8f 2d       	mov	r24, r15
    294e:	a1 96       	adiw	r28, 0x21	; 33
    2950:	cd bf       	out	0x3d, r28	; 61
    2952:	de bf       	out	0x3e, r29	; 62
    2954:	df 91       	pop	r29
    2956:	cf 91       	pop	r28
    2958:	1f 91       	pop	r17
    295a:	0f 91       	pop	r16
    295c:	ff 90       	pop	r15
    295e:	ef 90       	pop	r14
    2960:	df 90       	pop	r13
    2962:	cf 90       	pop	r12
    2964:	bf 90       	pop	r11
    2966:	af 90       	pop	r10
    2968:	9f 90       	pop	r9
    296a:	8f 90       	pop	r8
    296c:	7f 90       	pop	r7
    296e:	6f 90       	pop	r6
    2970:	5f 90       	pop	r5
    2972:	4f 90       	pop	r4
    2974:	08 95       	ret

00002976 <ProcessInput>:

//The game logic!
uint8_t ProcessInput(uint8_t *data){
    2976:	4f 92       	push	r4
    2978:	5f 92       	push	r5
    297a:	6f 92       	push	r6
    297c:	7f 92       	push	r7
    297e:	8f 92       	push	r8
    2980:	9f 92       	push	r9
    2982:	af 92       	push	r10
    2984:	bf 92       	push	r11
    2986:	cf 92       	push	r12
    2988:	df 92       	push	r13
    298a:	ef 92       	push	r14
    298c:	ff 92       	push	r15
    298e:	0f 93       	push	r16
    2990:	1f 93       	push	r17
    2992:	cf 93       	push	r28
    2994:	df 93       	push	r29
    2996:	cd b7       	in	r28, 0x3d	; 61
    2998:	de b7       	in	r29, 0x3e	; 62
    299a:	2a 97       	sbiw	r28, 0x0a	; 10
    299c:	cd bf       	out	0x3d, r28	; 61
    299e:	de bf       	out	0x3e, r29	; 62
    29a0:	8c 01       	movw	r16, r24
    static object_model_t actObj1, actObj2;
    uint8_t elements = 1;

    CleanInput(&data[0]);
    29a2:	6e dc       	rcall	.-1828   	; 0x2280 <CleanInput>
    uint8_t inputLen = CleanInput(&data[0]);
    29a4:	c8 01       	movw	r24, r16
    29a6:	6c dc       	rcall	.-1832   	; 0x2280 <CleanInput>
    29a8:	f8 2e       	mov	r15, r24

    if (inputLen) {
    29aa:	88 23       	and	r24, r24
    29ac:	09 f4       	brne	.+2      	; 0x29b0 <ProcessInput+0x3a>
    29ae:	ee c7       	rjmp	.+4060   	; 0x398c <ProcessInput+0x1016>

        //eXit to previous location
        if (data[0] == 'x'){
    29b0:	d8 01       	movw	r26, r16
    29b2:	8c 91       	ld	r24, X
    29b4:	88 37       	cpi	r24, 0x78	; 120
    29b6:	09 f0       	breq	.+2      	; 0x29ba <ProcessInput+0x44>
    29b8:	45 c0       	rjmp	.+138    	; 0x2a44 <ProcessInput+0xce>

            //Standing in the Lobby?
            if ((route[currDepth] == 0)||(currDepth == 0)){
    29ba:	80 91 2c 38 	lds	r24, 0x382C	; 0x80382c <currDepth>
    29be:	e8 2f       	mov	r30, r24
    29c0:	f0 e0       	ldi	r31, 0x00	; 0
    29c2:	ee 0f       	add	r30, r30
    29c4:	ff 1f       	adc	r31, r31
    29c6:	e5 52       	subi	r30, 0x25	; 37
    29c8:	f6 4c       	sbci	r31, 0xC6	; 198
    29ca:	20 81       	ld	r18, Z
    29cc:	31 81       	ldd	r19, Z+1	; 0x01
    29ce:	23 2b       	or	r18, r19
    29d0:	11 f0       	breq	.+4      	; 0x29d6 <ProcessInput+0x60>
    29d2:	81 11       	cpse	r24, r1
    29d4:	03 c0       	rjmp	.+6      	; 0x29dc <ProcessInput+0x66>
    return 0;
}

//
void SetResponse(uint8_t number, uint16_t address, uint16_t length, uint8_t type){
    reactStr[0][number]=address;
    29d6:	81 e8       	ldi	r24, 0x81	; 129
    29d8:	96 e7       	ldi	r25, 0x76	; 118
    29da:	a1 c5       	rjmp	.+2882   	; 0x351e <ProcessInput+0xba8>
            //Standing in the Lobby?
            if ((route[currDepth] == 0)||(currDepth == 0)){
                SetResponse(elements++, A_NOTPOSSIBLE, L_NOTPOSSIBLE, TEASER);
            
            //Is there a way to go back?
            } else if (CheckState(currObj.byteField[OPEN_ACL])){
    29dc:	80 91 21 3a 	lds	r24, 0x3A21	; 0x803a21 <currObj+0x6>
    29e0:	0e 94 a7 0a 	call	0x154e	; 0x154e <CheckState>
    29e4:	88 23       	and	r24, r24
    29e6:	b9 f0       	breq	.+46     	; 0x2a16 <ProcessInput+0xa0>
                --currDepth;
    29e8:	e0 91 2c 38 	lds	r30, 0x382C	; 0x80382c <currDepth>
    29ec:	e1 50       	subi	r30, 0x01	; 1
    29ee:	e0 93 2c 38 	sts	0x382C, r30	; 0x80382c <currDepth>
                PopulateObject(route[currDepth], &currObj);
    29f2:	f0 e0       	ldi	r31, 0x00	; 0
    29f4:	ee 0f       	add	r30, r30
    29f6:	ff 1f       	adc	r31, r31
    29f8:	e5 52       	subi	r30, 0x25	; 37
    29fa:	f6 4c       	sbci	r31, 0xC6	; 198
    29fc:	6b e1       	ldi	r22, 0x1B	; 27
    29fe:	7a e3       	ldi	r23, 0x3A	; 58
    2a00:	80 81       	ld	r24, Z
    2a02:	91 81       	ldd	r25, Z+1	; 0x01
    2a04:	0a db       	rcall	.-2540   	; 0x201a <PopulateObject>
                effect = currObj.byteField[EFFECTS];
    2a06:	80 91 1f 3a 	lds	r24, 0x3A1F	; 0x803a1f <currObj+0x4>
    2a0a:	90 e0       	ldi	r25, 0x00	; 0
    2a0c:	80 93 3a 38 	sts	0x383A, r24	; 0x80383a <effect>
    2a10:	90 93 3b 38 	sts	0x383B, r25	; 0x80383b <effect+0x1>
    2a14:	31 c2       	rjmp	.+1122   	; 0x2e78 <ProcessInput+0x502>
            
            //No way out, print denied message of location
            } else {
                SetResponse(elements++, currObj.addrStr[OPEN_ACL_MSG], currObj.lenStr[OPEN_ACL_MSG], GAME);
    2a16:	80 91 3d 3a 	lds	r24, 0x3A3D	; 0x803a3d <currObj+0x22>
    2a1a:	90 91 3e 3a 	lds	r25, 0x3A3E	; 0x803a3e <currObj+0x23>
    return 0;
}

//
void SetResponse(uint8_t number, uint16_t address, uint16_t length, uint8_t type){
    reactStr[0][number]=address;
    2a1e:	20 91 2f 3a 	lds	r18, 0x3A2F	; 0x803a2f <currObj+0x14>
    2a22:	30 91 30 3a 	lds	r19, 0x3A30	; 0x803a30 <currObj+0x15>
    2a26:	20 93 1d 39 	sts	0x391D, r18	; 0x80391d <reactStr+0x2>
    2a2a:	30 93 1e 39 	sts	0x391E, r19	; 0x80391e <reactStr+0x3>
    reactStr[1][number]=length;
    2a2e:	80 93 5d 39 	sts	0x395D, r24	; 0x80395d <reactStr+0x42>
    2a32:	90 93 5e 39 	sts	0x395E, r25	; 0x80395e <reactStr+0x43>
    reactStr[2][number]=type;
    2a36:	10 92 9d 39 	sts	0x399D, r1	; 0x80399d <reactStr+0x82>
    2a3a:	10 92 9e 39 	sts	0x399E, r1	; 0x80399e <reactStr+0x83>
                effect = currObj.byteField[EFFECTS];
            
            //No way out, print denied message of location
            } else {
                SetResponse(elements++, currObj.addrStr[OPEN_ACL_MSG], currObj.lenStr[OPEN_ACL_MSG], GAME);
                effect = currObj.effect[0];               
    2a3e:	80 91 43 3a 	lds	r24, 0x3A43	; 0x803a43 <currObj+0x28>
    2a42:	3a c6       	rjmp	.+3188   	; 0x36b8 <ProcessInput+0xd42>
            }   
        
        //Enter locations or Open objects    
        } else if ((data[0] == 'e')||(data[0] == 'o')) {
    2a44:	85 36       	cpi	r24, 0x65	; 101
    2a46:	19 f0       	breq	.+6      	; 0x2a4e <ProcessInput+0xd8>
    2a48:	8f 36       	cpi	r24, 0x6F	; 111
    2a4a:	09 f0       	breq	.+2      	; 0x2a4e <ProcessInput+0xd8>
    2a4c:	df c0       	rjmp	.+446    	; 0x2c0c <ProcessInput+0x296>
                
            //Not possible, too many/little characters
            if (inputLen != 2){
    2a4e:	b2 e0       	ldi	r27, 0x02	; 2
    2a50:	fb 12       	cpse	r15, r27
    2a52:	c1 cf       	rjmp	.-126    	; 0x29d6 <ProcessInput+0x60>
                SetResponse(elements++, A_NOTPOSSIBLE, L_NOTPOSSIBLE, TEASER);
            } else {
                uint8_t canDo = 0;
                route[currDepth+1] = FindChild(route[currDepth], data[1], 0);
    2a54:	e0 90 2c 38 	lds	r14, 0x382C	; 0x80382c <currDepth>
    2a58:	f1 2c       	mov	r15, r1
    2a5a:	f7 01       	movw	r30, r14
    2a5c:	ee 0f       	add	r30, r30
    2a5e:	ff 1f       	adc	r31, r31
    2a60:	e5 52       	subi	r30, 0x25	; 37
    2a62:	f6 4c       	sbci	r31, 0xC6	; 198
    2a64:	40 e0       	ldi	r20, 0x00	; 0
    2a66:	50 e0       	ldi	r21, 0x00	; 0
    2a68:	d8 01       	movw	r26, r16
    2a6a:	11 96       	adiw	r26, 0x01	; 1
    2a6c:	6c 91       	ld	r22, X
    2a6e:	80 81       	ld	r24, Z
    2a70:	91 81       	ldd	r25, Z+1	; 0x01
    2a72:	9e db       	rcall	.-2244   	; 0x21b0 <FindChild>
    2a74:	f7 01       	movw	r30, r14
    2a76:	ee 0f       	add	r30, r30
    2a78:	ff 1f       	adc	r31, r31
    2a7a:	e3 52       	subi	r30, 0x23	; 35
    2a7c:	f6 4c       	sbci	r31, 0xC6	; 198
    2a7e:	80 83       	st	Z, r24
    2a80:	91 83       	std	Z+1, r25	; 0x01
                    
                //Child found?
                if (route[currDepth+1]) {
    2a82:	90 91 2c 38 	lds	r25, 0x382C	; 0x80382c <currDepth>
    2a86:	29 2f       	mov	r18, r25
    2a88:	30 e0       	ldi	r19, 0x00	; 0
    2a8a:	f9 01       	movw	r30, r18
    2a8c:	ee 0f       	add	r30, r30
    2a8e:	ff 1f       	adc	r31, r31
    2a90:	e3 52       	subi	r30, 0x23	; 35
    2a92:	f6 4c       	sbci	r31, 0xC6	; 198
    2a94:	40 81       	ld	r20, Z
    2a96:	51 81       	ldd	r21, Z+1	; 0x01
    2a98:	41 15       	cp	r20, r1
    2a9a:	51 05       	cpc	r21, r1
    2a9c:	21 f0       	breq	.+8      	; 0x2aa6 <ProcessInput+0x130>
                    PopulateObject(route[currDepth+1], &actObj1);
    2a9e:	6a ed       	ldi	r22, 0xDA	; 218
    2aa0:	78 e3       	ldi	r23, 0x38	; 56
    2aa2:	ca 01       	movw	r24, r20
    2aa4:	1c c0       	rjmp	.+56     	; 0x2ade <ProcessInput+0x168>
                    canDo = 1;
                //No child, maybe a step back, letter ok?
                } else if (currDepth) {
    2aa6:	99 23       	and	r25, r25
    2aa8:	09 f4       	brne	.+2      	; 0x2aac <ProcessInput+0x136>
    2aaa:	87 c7       	rjmp	.+3854   	; 0x39ba <ProcessInput+0x1044>
                    if (CheckLetter(route[currDepth-1], data[1])) {
    2aac:	22 0f       	add	r18, r18
    2aae:	33 1f       	adc	r19, r19
    2ab0:	f9 01       	movw	r30, r18
    2ab2:	e7 52       	subi	r30, 0x27	; 39
    2ab4:	f6 4c       	sbci	r31, 0xC6	; 198
    2ab6:	d8 01       	movw	r26, r16
    2ab8:	11 96       	adiw	r26, 0x01	; 1
    2aba:	6c 91       	ld	r22, X
    2abc:	80 81       	ld	r24, Z
    2abe:	91 81       	ldd	r25, Z+1	; 0x01
    2ac0:	23 db       	rcall	.-2490   	; 0x2108 <CheckLetter>
    2ac2:	88 23       	and	r24, r24
    2ac4:	09 f4       	brne	.+2      	; 0x2ac8 <ProcessInput+0x152>
    2ac6:	79 c7       	rjmp	.+3826   	; 0x39ba <ProcessInput+0x1044>
                        PopulateObject(route[currDepth-1], &actObj1);
    2ac8:	e0 91 2c 38 	lds	r30, 0x382C	; 0x80382c <currDepth>
    2acc:	f0 e0       	ldi	r31, 0x00	; 0
    2ace:	ee 0f       	add	r30, r30
    2ad0:	ff 1f       	adc	r31, r31
    2ad2:	e7 52       	subi	r30, 0x27	; 39
    2ad4:	f6 4c       	sbci	r31, 0xC6	; 198
    2ad6:	6a ed       	ldi	r22, 0xDA	; 218
    2ad8:	78 e3       	ldi	r23, 0x38	; 56
    2ada:	80 81       	ld	r24, Z
    2adc:	91 81       	ldd	r25, Z+1	; 0x01
    2ade:	9d da       	rcall	.-2758   	; 0x201a <PopulateObject>
                    }
                }

                //The candidate is found! Let's check if the action is legit
                if (canDo) {
                    if ((data[0] == 'e') && ((actObj1.byteField[ACTION_MASK]&ENTER)==0)) {
    2ae0:	f8 01       	movw	r30, r16
    2ae2:	80 81       	ld	r24, Z
    2ae4:	85 36       	cpi	r24, 0x65	; 101
    2ae6:	c9 f4       	brne	.+50     	; 0x2b1a <ProcessInput+0x1a4>
    2ae8:	80 91 e2 38 	lds	r24, 0x38E2	; 0x8038e2 <actObj1.3997+0x8>
    2aec:	80 fd       	sbrc	r24, 0
    2aee:	1e c0       	rjmp	.+60     	; 0x2b2c <ProcessInput+0x1b6>
    return 0;
}

//
void SetResponse(uint8_t number, uint16_t address, uint16_t length, uint8_t type){
    reactStr[0][number]=address;
    2af0:	8f e9       	ldi	r24, 0x9F	; 159
    2af2:	99 e7       	ldi	r25, 0x79	; 121
    2af4:	80 93 1d 39 	sts	0x391D, r24	; 0x80391d <reactStr+0x2>
    2af8:	90 93 1e 39 	sts	0x391E, r25	; 0x80391e <reactStr+0x3>
    reactStr[1][number]=length;
    2afc:	8e e1       	ldi	r24, 0x1E	; 30
    2afe:	90 e0       	ldi	r25, 0x00	; 0
    2b00:	80 93 5d 39 	sts	0x395D, r24	; 0x80395d <reactStr+0x42>
    2b04:	90 93 5e 39 	sts	0x395E, r25	; 0x80395e <reactStr+0x43>
    reactStr[2][number]=type;
    2b08:	81 e0       	ldi	r24, 0x01	; 1
    2b0a:	90 e0       	ldi	r25, 0x00	; 0
    2b0c:	80 93 9d 39 	sts	0x399D, r24	; 0x80399d <reactStr+0x82>
    2b10:	90 93 9e 39 	sts	0x399E, r25	; 0x80399e <reactStr+0x83>
                }

                //The candidate is found! Let's check if the action is legit
                if (canDo) {
                    if ((data[0] == 'e') && ((actObj1.byteField[ACTION_MASK]&ENTER)==0)) {
                        SetResponse(elements++, A_CANTENTER, L_CANTENTER, TEASER);
    2b14:	72 e0       	ldi	r23, 0x02	; 2
    2b16:	77 2e       	mov	r7, r23
    2b18:	1e c7       	rjmp	.+3644   	; 0x3956 <ProcessInput+0xfe0>
                    } else if ((data[0] == 'o') && ((actObj1.byteField[ACTION_MASK]&OPEN)==0)) {
    2b1a:	8f 36       	cpi	r24, 0x6F	; 111
    2b1c:	39 f4       	brne	.+14     	; 0x2b2c <ProcessInput+0x1b6>
    2b1e:	80 91 e2 38 	lds	r24, 0x38E2	; 0x8038e2 <actObj1.3997+0x8>
    2b22:	81 fd       	sbrc	r24, 1
    2b24:	03 c0       	rjmp	.+6      	; 0x2b2c <ProcessInput+0x1b6>
    return 0;
}

//
void SetResponse(uint8_t number, uint16_t address, uint16_t length, uint8_t type){
    reactStr[0][number]=address;
    2b26:	84 e8       	ldi	r24, 0x84	; 132
    2b28:	99 e7       	ldi	r25, 0x79	; 121
    2b2a:	f9 c4       	rjmp	.+2546   	; 0x351e <ProcessInput+0xba8>
                        SetResponse(elements++, A_CANTENTER, L_CANTENTER, TEASER);
                    } else if ((data[0] == 'o') && ((actObj1.byteField[ACTION_MASK]&OPEN)==0)) {
                        SetResponse(elements++, A_CANTOPEN, L_CANTOPEN, TEASER);
                    
                    //Action legit, permission granted?
                    } else if (CheckState(actObj1.byteField[OPEN_ACL])) {
    2b2c:	80 91 e0 38 	lds	r24, 0x38E0	; 0x8038e0 <actObj1.3997+0x6>
    2b30:	0e 94 a7 0a 	call	0x154e	; 0x154e <CheckState>
    2b34:	e0 91 2c 38 	lds	r30, 0x382C	; 0x80382c <currDepth>
    2b38:	88 23       	and	r24, r24
    2b3a:	09 f4       	brne	.+2      	; 0x2b3e <ProcessInput+0x1c8>
    2b3c:	49 c0       	rjmp	.+146    	; 0x2bd0 <ProcessInput+0x25a>
                            
                        //Yes! Check if we must move forward or backwards.
                        if (route[currDepth+1]) ++currDepth; else --currDepth;
    2b3e:	ae 2f       	mov	r26, r30
    2b40:	b0 e0       	ldi	r27, 0x00	; 0
    2b42:	aa 0f       	add	r26, r26
    2b44:	bb 1f       	adc	r27, r27
    2b46:	a3 52       	subi	r26, 0x23	; 35
    2b48:	b6 4c       	sbci	r27, 0xC6	; 198
    2b4a:	8d 91       	ld	r24, X+
    2b4c:	9c 91       	ld	r25, X
    2b4e:	89 2b       	or	r24, r25
    2b50:	11 f0       	breq	.+4      	; 0x2b56 <ProcessInput+0x1e0>
    2b52:	ef 5f       	subi	r30, 0xFF	; 255
    2b54:	01 c0       	rjmp	.+2      	; 0x2b58 <ProcessInput+0x1e2>
    2b56:	e1 50       	subi	r30, 0x01	; 1
    2b58:	e0 93 2c 38 	sts	0x382C, r30	; 0x80382c <currDepth>
                        PopulateObject(route[currDepth], &currObj);
    2b5c:	e0 91 2c 38 	lds	r30, 0x382C	; 0x80382c <currDepth>
    2b60:	f0 e0       	ldi	r31, 0x00	; 0
    2b62:	ee 0f       	add	r30, r30
    2b64:	ff 1f       	adc	r31, r31
    2b66:	e5 52       	subi	r30, 0x25	; 37
    2b68:	f6 4c       	sbci	r31, 0xC6	; 198
    2b6a:	6b e1       	ldi	r22, 0x1B	; 27
    2b6c:	7a e3       	ldi	r23, 0x3A	; 58
    2b6e:	80 81       	ld	r24, Z
    2b70:	91 81       	ldd	r25, Z+1	; 0x01
    2b72:	53 da       	rcall	.-2906   	; 0x201a <PopulateObject>
                        SetResponse(elements++, currObj.addrStr[DESC], currObj.lenStr[DESC],GAME);
    2b74:	80 91 37 3a 	lds	r24, 0x3A37	; 0x803a37 <currObj+0x1c>
    2b78:	90 91 38 3a 	lds	r25, 0x3A38	; 0x803a38 <currObj+0x1d>
    return 0;
}

//
void SetResponse(uint8_t number, uint16_t address, uint16_t length, uint8_t type){
    reactStr[0][number]=address;
    2b7c:	20 91 29 3a 	lds	r18, 0x3A29	; 0x803a29 <currObj+0xe>
    2b80:	30 91 2a 3a 	lds	r19, 0x3A2A	; 0x803a2a <currObj+0xf>
    2b84:	20 93 1d 39 	sts	0x391D, r18	; 0x80391d <reactStr+0x2>
    2b88:	30 93 1e 39 	sts	0x391E, r19	; 0x80391e <reactStr+0x3>
    reactStr[1][number]=length;
    2b8c:	80 93 5d 39 	sts	0x395D, r24	; 0x80395d <reactStr+0x42>
    2b90:	90 93 5e 39 	sts	0x395E, r25	; 0x80395e <reactStr+0x43>
    reactStr[2][number]=type;
    2b94:	10 92 9d 39 	sts	0x399D, r1	; 0x80399d <reactStr+0x82>
    2b98:	10 92 9e 39 	sts	0x399E, r1	; 0x80399e <reactStr+0x83>
    return 0;
}

//
void SetResponse(uint8_t number, uint16_t address, uint16_t length, uint8_t type){
    reactStr[0][number]=address;
    2b9c:	8b e5       	ldi	r24, 0x5B	; 91
    2b9e:	9a e7       	ldi	r25, 0x7A	; 122
    2ba0:	80 93 1f 39 	sts	0x391F, r24	; 0x80391f <reactStr+0x4>
    2ba4:	90 93 20 39 	sts	0x3920, r25	; 0x803920 <reactStr+0x5>
    reactStr[1][number]=length;
    2ba8:	82 e0       	ldi	r24, 0x02	; 2
    2baa:	90 e0       	ldi	r25, 0x00	; 0
    2bac:	80 93 5f 39 	sts	0x395F, r24	; 0x80395f <reactStr+0x44>
    2bb0:	90 93 60 39 	sts	0x3960, r25	; 0x803960 <reactStr+0x45>
    reactStr[2][number]=type;
    2bb4:	81 e0       	ldi	r24, 0x01	; 1
    2bb6:	90 e0       	ldi	r25, 0x00	; 0
    2bb8:	80 93 9f 39 	sts	0x399F, r24	; 0x80399f <reactStr+0x84>
    2bbc:	90 93 a0 39 	sts	0x39A0, r25	; 0x8039a0 <reactStr+0x85>
                        //Yes! Check if we must move forward or backwards.
                        if (route[currDepth+1]) ++currDepth; else --currDepth;
                        PopulateObject(route[currDepth], &currObj);
                        SetResponse(elements++, currObj.addrStr[DESC], currObj.lenStr[DESC],GAME);
                        SetResponse(elements++, A_LF, 2, TEASER);
                        effect = currObj.byteField[EFFECTS];
    2bc0:	80 91 1f 3a 	lds	r24, 0x3A1F	; 0x803a1f <currObj+0x4>
    2bc4:	90 e0       	ldi	r25, 0x00	; 0
    2bc6:	80 93 3a 38 	sts	0x383A, r24	; 0x80383a <effect>
    2bca:	90 93 3b 38 	sts	0x383B, r25	; 0x80383b <effect+0x1>
    2bce:	8d c4       	rjmp	.+2330   	; 0x34ea <ProcessInput+0xb74>
                                                  
                    //Not granted!
                    } else {
                        route[currDepth+1] = 0;
    2bd0:	f0 e0       	ldi	r31, 0x00	; 0
    2bd2:	ee 0f       	add	r30, r30
    2bd4:	ff 1f       	adc	r31, r31
    2bd6:	e3 52       	subi	r30, 0x23	; 35
    2bd8:	f6 4c       	sbci	r31, 0xC6	; 198
    2bda:	10 82       	st	Z, r1
    2bdc:	11 82       	std	Z+1, r1	; 0x01
                        SetResponse(elements++, actObj1.addrStr[OPEN_ACL_MSG], actObj1.lenStr[OPEN_ACL_MSG], GAME);
    2bde:	80 91 fc 38 	lds	r24, 0x38FC	; 0x8038fc <actObj1.3997+0x22>
    2be2:	90 91 fd 38 	lds	r25, 0x38FD	; 0x8038fd <actObj1.3997+0x23>
    return 0;
}

//
void SetResponse(uint8_t number, uint16_t address, uint16_t length, uint8_t type){
    reactStr[0][number]=address;
    2be6:	20 91 ee 38 	lds	r18, 0x38EE	; 0x8038ee <actObj1.3997+0x14>
    2bea:	30 91 ef 38 	lds	r19, 0x38EF	; 0x8038ef <actObj1.3997+0x15>
    2bee:	20 93 1d 39 	sts	0x391D, r18	; 0x80391d <reactStr+0x2>
    2bf2:	30 93 1e 39 	sts	0x391E, r19	; 0x80391e <reactStr+0x3>
    reactStr[1][number]=length;
    2bf6:	80 93 5d 39 	sts	0x395D, r24	; 0x80395d <reactStr+0x42>
    2bfa:	90 93 5e 39 	sts	0x395E, r25	; 0x80395e <reactStr+0x43>
    reactStr[2][number]=type;
    2bfe:	10 92 9d 39 	sts	0x399D, r1	; 0x80399d <reactStr+0x82>
    2c02:	10 92 9e 39 	sts	0x399E, r1	; 0x80399e <reactStr+0x83>
                                                  
                    //Not granted!
                    } else {
                        route[currDepth+1] = 0;
                        SetResponse(elements++, actObj1.addrStr[OPEN_ACL_MSG], actObj1.lenStr[OPEN_ACL_MSG], GAME);
                        effect = actObj1.effect[0];              
    2c06:	80 91 02 39 	lds	r24, 0x3902	; 0x803902 <actObj1.3997+0x28>
    2c0a:	56 c5       	rjmp	.+2732   	; 0x36b8 <ProcessInput+0xd42>
                    SetResponse(elements++, A_DONTSEE, L_DONTSEE, TEASER);                
                }
            }

        //Look around or at objects
        } else if (data[0] == 'l') {
    2c0c:	8c 36       	cpi	r24, 0x6C	; 108
    2c0e:	09 f0       	breq	.+2      	; 0x2c12 <ProcessInput+0x29c>
    2c10:	57 c1       	rjmp	.+686    	; 0x2ec0 <ProcessInput+0x54a>
    2c12:	e0 91 2c 38 	lds	r30, 0x382C	; 0x80382c <currDepth>
            if (inputLen == 1) {
    2c16:	b1 e0       	ldi	r27, 0x01	; 1
    2c18:	fb 12       	cpse	r15, r27
    2c1a:	f6 c0       	rjmp	.+492    	; 0x2e08 <ProcessInput+0x492>

                //Show info about this area first
                SetResponse(elements++, currObj.addrStr[DESC], currObj.lenStr[DESC],GAME);
    2c1c:	80 91 37 3a 	lds	r24, 0x3A37	; 0x803a37 <currObj+0x1c>
    2c20:	90 91 38 3a 	lds	r25, 0x3A38	; 0x803a38 <currObj+0x1d>
    return 0;
}

//
void SetResponse(uint8_t number, uint16_t address, uint16_t length, uint8_t type){
    reactStr[0][number]=address;
    2c24:	20 91 29 3a 	lds	r18, 0x3A29	; 0x803a29 <currObj+0xe>
    2c28:	30 91 2a 3a 	lds	r19, 0x3A2A	; 0x803a2a <currObj+0xf>
    2c2c:	20 93 1d 39 	sts	0x391D, r18	; 0x80391d <reactStr+0x2>
    2c30:	30 93 1e 39 	sts	0x391E, r19	; 0x80391e <reactStr+0x3>
    reactStr[1][number]=length;
    2c34:	80 93 5d 39 	sts	0x395D, r24	; 0x80395d <reactStr+0x42>
    2c38:	90 93 5e 39 	sts	0x395E, r25	; 0x80395e <reactStr+0x43>
    reactStr[2][number]=type;
    2c3c:	10 92 9d 39 	sts	0x399D, r1	; 0x80399d <reactStr+0x82>
    2c40:	10 92 9e 39 	sts	0x399E, r1	; 0x80399e <reactStr+0x83>
    return 0;
}

//
void SetResponse(uint8_t number, uint16_t address, uint16_t length, uint8_t type){
    reactStr[0][number]=address;
    2c44:	8b e5       	ldi	r24, 0x5B	; 91
    2c46:	9a e7       	ldi	r25, 0x7A	; 122
    2c48:	80 93 1f 39 	sts	0x391F, r24	; 0x80391f <reactStr+0x4>
    2c4c:	90 93 20 39 	sts	0x3920, r25	; 0x803920 <reactStr+0x5>
    reactStr[1][number]=length;
    2c50:	82 e0       	ldi	r24, 0x02	; 2
    2c52:	90 e0       	ldi	r25, 0x00	; 0
    2c54:	80 93 5f 39 	sts	0x395F, r24	; 0x80395f <reactStr+0x44>
    2c58:	90 93 60 39 	sts	0x3960, r25	; 0x803960 <reactStr+0x45>
    reactStr[2][number]=type;
    2c5c:	81 e0       	ldi	r24, 0x01	; 1
    2c5e:	90 e0       	ldi	r25, 0x00	; 0
    2c60:	80 93 9f 39 	sts	0x399F, r24	; 0x80399f <reactStr+0x84>
    2c64:	90 93 a0 39 	sts	0x39A0, r25	; 0x8039a0 <reactStr+0x85>
    return 0;
}

//
void SetResponse(uint8_t number, uint16_t address, uint16_t length, uint8_t type){
    reactStr[0][number]=address;
    2c68:	2d ee       	ldi	r18, 0xED	; 237
    2c6a:	39 e7       	ldi	r19, 0x79	; 121
    2c6c:	20 93 21 39 	sts	0x3921, r18	; 0x803921 <reactStr+0x6>
    2c70:	30 93 22 39 	sts	0x3922, r19	; 0x803922 <reactStr+0x7>
    reactStr[1][number]=length;
    2c74:	25 e1       	ldi	r18, 0x15	; 21
    2c76:	30 e0       	ldi	r19, 0x00	; 0
    2c78:	20 93 61 39 	sts	0x3961, r18	; 0x803961 <reactStr+0x46>
    2c7c:	30 93 62 39 	sts	0x3962, r19	; 0x803962 <reactStr+0x47>
    reactStr[2][number]=type;
    2c80:	80 93 a1 39 	sts	0x39A1, r24	; 0x8039a1 <reactStr+0x86>
    2c84:	90 93 a2 39 	sts	0x39A2, r25	; 0x8039a2 <reactStr+0x87>
                SetResponse(elements++, currObj.addrStr[DESC], currObj.lenStr[DESC],GAME);
                SetResponse(elements++, A_LF, 2, TEASER);
                SetResponse(elements++, A_LOOK, L_LOOK, TEASER);

                //Check the visible children first
                route[currDepth+1] = 0;
    2c88:	f0 e0       	ldi	r31, 0x00	; 0
    2c8a:	ee 0f       	add	r30, r30
    2c8c:	ff 1f       	adc	r31, r31
    2c8e:	e3 52       	subi	r30, 0x23	; 35
    2c90:	f6 4c       	sbci	r31, 0xC6	; 198
    2c92:	10 82       	st	Z, r1
    2c94:	11 82       	std	Z+1, r1	; 0x01
            if (inputLen == 1) {

                //Show info about this area first
                SetResponse(elements++, currObj.addrStr[DESC], currObj.lenStr[DESC],GAME);
                SetResponse(elements++, A_LF, 2, TEASER);
                SetResponse(elements++, A_LOOK, L_LOOK, TEASER);
    2c96:	84 e0       	ldi	r24, 0x04	; 4
    2c98:	68 2e       	mov	r6, r24
    return 0;
}

//
void SetResponse(uint8_t number, uint16_t address, uint16_t length, uint8_t type){
    reactStr[0][number]=address;
    2c9a:	99 e5       	ldi	r25, 0x59	; 89
    2c9c:	c9 2e       	mov	r12, r25
    2c9e:	9a e7       	ldi	r25, 0x7A	; 122
    2ca0:	d9 2e       	mov	r13, r25
    reactStr[1][number]=length;
    2ca2:	22 e0       	ldi	r18, 0x02	; 2
    2ca4:	a2 2e       	mov	r10, r18
    2ca6:	b1 2c       	mov	r11, r1
    reactStr[2][number]=type;
    2ca8:	88 24       	eor	r8, r8
    2caa:	83 94       	inc	r8
    2cac:	91 2c       	mov	r9, r1
                SetResponse(elements++, A_LOOK, L_LOOK, TEASER);

                //Check the visible children first
                route[currDepth+1] = 0;
                do{
                    route[currDepth+1] = FindChild(route[currDepth], 0, route[currDepth+1]);
    2cae:	80 91 2c 38 	lds	r24, 0x382C	; 0x80382c <currDepth>
    2cb2:	90 e0       	ldi	r25, 0x00	; 0
    2cb4:	9c 01       	movw	r18, r24
    2cb6:	22 0f       	add	r18, r18
    2cb8:	33 1f       	adc	r19, r19
    2cba:	f9 01       	movw	r30, r18
    2cbc:	e3 52       	subi	r30, 0x23	; 35
    2cbe:	f6 4c       	sbci	r31, 0xC6	; 198
    2cc0:	7f 01       	movw	r14, r30
    2cc2:	40 81       	ld	r20, Z
    2cc4:	51 81       	ldd	r21, Z+1	; 0x01
    2cc6:	f9 01       	movw	r30, r18
    2cc8:	e5 52       	subi	r30, 0x25	; 37
    2cca:	f6 4c       	sbci	r31, 0xC6	; 198
    2ccc:	60 e0       	ldi	r22, 0x00	; 0
    2cce:	80 81       	ld	r24, Z
    2cd0:	91 81       	ldd	r25, Z+1	; 0x01
    2cd2:	6e da       	rcall	.-2852   	; 0x21b0 <FindChild>
    2cd4:	d7 01       	movw	r26, r14
    2cd6:	8d 93       	st	X+, r24
    2cd8:	9c 93       	st	X, r25
                    if (route[currDepth+1]) {
    2cda:	e0 91 2c 38 	lds	r30, 0x382C	; 0x80382c <currDepth>
    2cde:	f0 e0       	ldi	r31, 0x00	; 0
    2ce0:	ee 0f       	add	r30, r30
    2ce2:	ff 1f       	adc	r31, r31
    2ce4:	e3 52       	subi	r30, 0x23	; 35
    2ce6:	f6 4c       	sbci	r31, 0xC6	; 198
    2ce8:	80 81       	ld	r24, Z
    2cea:	91 81       	ldd	r25, Z+1	; 0x01
    2cec:	00 97       	sbiw	r24, 0x00	; 0
    2cee:	09 f4       	brne	.+2      	; 0x2cf2 <ProcessInput+0x37c>
    2cf0:	4a c0       	rjmp	.+148    	; 0x2d86 <ProcessInput+0x410>
                        if ((route[currDepth+1] != inventory[0])&&(route[currDepth+1] != inventory[1])) {
    2cf2:	20 91 3e 38 	lds	r18, 0x383E	; 0x80383e <inventory>
    2cf6:	30 91 3f 38 	lds	r19, 0x383F	; 0x80383f <inventory+0x1>
    2cfa:	82 17       	cp	r24, r18
    2cfc:	93 07       	cpc	r25, r19
    2cfe:	09 f4       	brne	.+2      	; 0x2d02 <ProcessInput+0x38c>
    2d00:	42 c0       	rjmp	.+132    	; 0x2d86 <ProcessInput+0x410>
    2d02:	20 91 40 38 	lds	r18, 0x3840	; 0x803840 <inventory+0x2>
    2d06:	30 91 41 38 	lds	r19, 0x3841	; 0x803841 <inventory+0x3>
    2d0a:	82 17       	cp	r24, r18
    2d0c:	93 07       	cpc	r25, r19
                            PopulateObject(route[currDepth+1], &actObj1);
    2d0e:	d9 f1       	breq	.+118    	; 0x2d86 <ProcessInput+0x410>
    2d10:	6a ed       	ldi	r22, 0xDA	; 218
    2d12:	78 e3       	ldi	r23, 0x38	; 56
    2d14:	82 d9       	rcall	.-3324   	; 0x201a <PopulateObject>
                            SetResponse(elements++, actObj1.addrStr[NAME], actObj1.lenStr[NAME],GAME);
    2d16:	80 91 f4 38 	lds	r24, 0x38F4	; 0x8038f4 <actObj1.3997+0x1a>
    2d1a:	90 91 f5 38 	lds	r25, 0x38F5	; 0x8038f5 <actObj1.3997+0x1b>
    return 0;
}

//
void SetResponse(uint8_t number, uint16_t address, uint16_t length, uint8_t type){
    reactStr[0][number]=address;
    2d1e:	e6 2d       	mov	r30, r6
    2d20:	f0 e0       	ldi	r31, 0x00	; 0
    2d22:	df 01       	movw	r26, r30
    2d24:	aa 0f       	add	r26, r26
    2d26:	bb 1f       	adc	r27, r27
    2d28:	a5 5e       	subi	r26, 0xE5	; 229
    2d2a:	b6 4c       	sbci	r27, 0xC6	; 198
    2d2c:	20 91 e6 38 	lds	r18, 0x38E6	; 0x8038e6 <actObj1.3997+0xc>
    2d30:	30 91 e7 38 	lds	r19, 0x38E7	; 0x8038e7 <actObj1.3997+0xd>
    2d34:	2d 93       	st	X+, r18
    2d36:	3c 93       	st	X, r19
    reactStr[1][number]=length;
    2d38:	df 01       	movw	r26, r30
    2d3a:	aa 0f       	add	r26, r26
    2d3c:	bb 1f       	adc	r27, r27
    2d3e:	a5 5a       	subi	r26, 0xA5	; 165
    2d40:	b6 4c       	sbci	r27, 0xC6	; 198
    2d42:	8d 93       	st	X+, r24
    2d44:	9c 93       	st	X, r25
    reactStr[2][number]=type;
    2d46:	ee 0f       	add	r30, r30
    2d48:	ff 1f       	adc	r31, r31
    2d4a:	e5 56       	subi	r30, 0x65	; 101
    2d4c:	f6 4c       	sbci	r31, 0xC6	; 198
    2d4e:	10 82       	st	Z, r1
    2d50:	11 82       	std	Z+1, r1	; 0x01
    return 0;
}

//
void SetResponse(uint8_t number, uint16_t address, uint16_t length, uint8_t type){
    reactStr[0][number]=address;
    2d52:	81 e0       	ldi	r24, 0x01	; 1
    2d54:	86 0d       	add	r24, r6
    2d56:	90 e0       	ldi	r25, 0x00	; 0
    2d58:	63 94       	inc	r6
    2d5a:	63 94       	inc	r6
    2d5c:	fc 01       	movw	r30, r24
    2d5e:	ee 0f       	add	r30, r30
    2d60:	ff 1f       	adc	r31, r31
    2d62:	e5 5e       	subi	r30, 0xE5	; 229
    2d64:	f6 4c       	sbci	r31, 0xC6	; 198
    2d66:	c0 82       	st	Z, r12
    2d68:	d1 82       	std	Z+1, r13	; 0x01
    reactStr[1][number]=length;
    2d6a:	fc 01       	movw	r30, r24
    2d6c:	ee 0f       	add	r30, r30
    2d6e:	ff 1f       	adc	r31, r31
    2d70:	e5 5a       	subi	r30, 0xA5	; 165
    2d72:	f6 4c       	sbci	r31, 0xC6	; 198
    2d74:	a0 82       	st	Z, r10
    2d76:	b1 82       	std	Z+1, r11	; 0x01
    reactStr[2][number]=type;
    2d78:	88 0f       	add	r24, r24
    2d7a:	99 1f       	adc	r25, r25
    2d7c:	fc 01       	movw	r30, r24
    2d7e:	e5 56       	subi	r30, 0x65	; 101
    2d80:	f6 4c       	sbci	r31, 0xC6	; 198
    2d82:	80 82       	st	Z, r8
    2d84:	91 82       	std	Z+1, r9	; 0x01
                            PopulateObject(route[currDepth+1], &actObj1);
                            SetResponse(elements++, actObj1.addrStr[NAME], actObj1.lenStr[NAME],GAME);
                            SetResponse(elements++, A_COMMA, L_COMMA, TEASER);
                        }
                    }
                }while (route[currDepth+1]);
    2d86:	20 91 2c 38 	lds	r18, 0x382C	; 0x80382c <currDepth>
    2d8a:	82 2f       	mov	r24, r18
    2d8c:	90 e0       	ldi	r25, 0x00	; 0
    2d8e:	fc 01       	movw	r30, r24
    2d90:	ee 0f       	add	r30, r30
    2d92:	ff 1f       	adc	r31, r31
    2d94:	e3 52       	subi	r30, 0x23	; 35
    2d96:	f6 4c       	sbci	r31, 0xC6	; 198
    2d98:	40 81       	ld	r20, Z
    2d9a:	51 81       	ldd	r21, Z+1	; 0x01
    2d9c:	45 2b       	or	r20, r21
    2d9e:	09 f0       	breq	.+2      	; 0x2da2 <ProcessInput+0x42c>
    2da0:	86 cf       	rjmp	.-244    	; 0x2cae <ProcessInput+0x338>

                //Look back if not on level 0
                if (currDepth) {
    2da2:	22 23       	and	r18, r18
                    PopulateObject(route[currDepth-1], &actObj1);
    2da4:	69 f1       	breq	.+90     	; 0x2e00 <ProcessInput+0x48a>
    2da6:	88 0f       	add	r24, r24
    2da8:	99 1f       	adc	r25, r25
    2daa:	fc 01       	movw	r30, r24
    2dac:	e7 52       	subi	r30, 0x27	; 39
    2dae:	f6 4c       	sbci	r31, 0xC6	; 198
    2db0:	6a ed       	ldi	r22, 0xDA	; 218
    2db2:	78 e3       	ldi	r23, 0x38	; 56
    2db4:	80 81       	ld	r24, Z
    2db6:	91 81       	ldd	r25, Z+1	; 0x01
    2db8:	30 d9       	rcall	.-3488   	; 0x201a <PopulateObject>
                    SetResponse(elements++, actObj1.addrStr[NAME], actObj1.lenStr[NAME],GAME);
    2dba:	20 91 f4 38 	lds	r18, 0x38F4	; 0x8038f4 <actObj1.3997+0x1a>
    2dbe:	30 91 f5 38 	lds	r19, 0x38F5	; 0x8038f5 <actObj1.3997+0x1b>
    2dc2:	77 24       	eor	r7, r7
    2dc4:	73 94       	inc	r7
    2dc6:	76 0c       	add	r7, r6
    return 0;
}

//
void SetResponse(uint8_t number, uint16_t address, uint16_t length, uint8_t type){
    reactStr[0][number]=address;
    2dc8:	86 2d       	mov	r24, r6
    2dca:	90 e0       	ldi	r25, 0x00	; 0
    2dcc:	fc 01       	movw	r30, r24
    2dce:	ee 0f       	add	r30, r30
    2dd0:	ff 1f       	adc	r31, r31
    2dd2:	e5 5e       	subi	r30, 0xE5	; 229
    2dd4:	f6 4c       	sbci	r31, 0xC6	; 198
    2dd6:	40 91 e6 38 	lds	r20, 0x38E6	; 0x8038e6 <actObj1.3997+0xc>
    2dda:	50 91 e7 38 	lds	r21, 0x38E7	; 0x8038e7 <actObj1.3997+0xd>
    2dde:	40 83       	st	Z, r20
    2de0:	51 83       	std	Z+1, r21	; 0x01
    reactStr[1][number]=length;
    2de2:	fc 01       	movw	r30, r24
    2de4:	ee 0f       	add	r30, r30
    2de6:	ff 1f       	adc	r31, r31
    2de8:	e5 5a       	subi	r30, 0xA5	; 165
    2dea:	f6 4c       	sbci	r31, 0xC6	; 198
    2dec:	20 83       	st	Z, r18
    2dee:	31 83       	std	Z+1, r19	; 0x01
    reactStr[2][number]=type;
    2df0:	88 0f       	add	r24, r24
    2df2:	99 1f       	adc	r25, r25
    2df4:	fc 01       	movw	r30, r24
    2df6:	e5 56       	subi	r30, 0x65	; 101
    2df8:	f6 4c       	sbci	r31, 0xC6	; 198
    2dfa:	10 82       	st	Z, r1
    2dfc:	11 82       	std	Z+1, r1	; 0x01
    2dfe:	ab c5       	rjmp	.+2902   	; 0x3956 <ProcessInput+0xfe0>

                //Look back if not on level 0
                if (currDepth) {
                    PopulateObject(route[currDepth-1], &actObj1);
                    SetResponse(elements++, actObj1.addrStr[NAME], actObj1.lenStr[NAME],GAME);
                } else elements-=1;
    2e00:	77 24       	eor	r7, r7
    2e02:	7a 94       	dec	r7
    2e04:	76 0c       	add	r7, r6
    2e06:	a7 c5       	rjmp	.+2894   	; 0x3956 <ProcessInput+0xfe0>

            } else {
                route[currDepth+1] = FindChild(route[currDepth], data[1], 0);
    2e08:	ee 2e       	mov	r14, r30
    2e0a:	f1 2c       	mov	r15, r1
    2e0c:	f7 01       	movw	r30, r14
    2e0e:	ee 0f       	add	r30, r30
    2e10:	ff 1f       	adc	r31, r31
    2e12:	e5 52       	subi	r30, 0x25	; 37
    2e14:	f6 4c       	sbci	r31, 0xC6	; 198
    2e16:	40 e0       	ldi	r20, 0x00	; 0
    2e18:	50 e0       	ldi	r21, 0x00	; 0
    2e1a:	d8 01       	movw	r26, r16
    2e1c:	11 96       	adiw	r26, 0x01	; 1
    2e1e:	6c 91       	ld	r22, X
    2e20:	80 81       	ld	r24, Z
    2e22:	91 81       	ldd	r25, Z+1	; 0x01
    2e24:	c5 d9       	rcall	.-3190   	; 0x21b0 <FindChild>
    2e26:	f7 01       	movw	r30, r14
    2e28:	ee 0f       	add	r30, r30
    2e2a:	ff 1f       	adc	r31, r31
    2e2c:	e3 52       	subi	r30, 0x23	; 35
    2e2e:	f6 4c       	sbci	r31, 0xC6	; 198
    2e30:	80 83       	st	Z, r24
    2e32:	91 83       	std	Z+1, r25	; 0x01
                if (route[currDepth+1]) {
    2e34:	90 91 2c 38 	lds	r25, 0x382C	; 0x80382c <currDepth>
    2e38:	29 2f       	mov	r18, r25
    2e3a:	30 e0       	ldi	r19, 0x00	; 0
    2e3c:	f9 01       	movw	r30, r18
    2e3e:	ee 0f       	add	r30, r30
    2e40:	ff 1f       	adc	r31, r31
    2e42:	e3 52       	subi	r30, 0x23	; 35
    2e44:	f6 4c       	sbci	r31, 0xC6	; 198
    2e46:	40 81       	ld	r20, Z
    2e48:	51 81       	ldd	r21, Z+1	; 0x01
    2e4a:	41 15       	cp	r20, r1
    2e4c:	51 05       	cpc	r21, r1
    2e4e:	21 f0       	breq	.+8      	; 0x2e58 <ProcessInput+0x4e2>
                    PopulateObject(route[currDepth+1], &actObj1);
    2e50:	6a ed       	ldi	r22, 0xDA	; 218
    2e52:	78 e3       	ldi	r23, 0x38	; 56
    2e54:	ca 01       	movw	r24, r20
    2e56:	1e c0       	rjmp	.+60     	; 0x2e94 <ProcessInput+0x51e>
//TODO: CHECKSTATE -> A_CANTLOOK item
                    SetResponse(elements++, actObj1.addrStr[DESC], actObj1.lenStr[DESC],GAME);   
                } else if (currDepth) {
    2e58:	99 23       	and	r25, r25
    2e5a:	09 f4       	brne	.+2      	; 0x2e5e <ProcessInput+0x4e8>
                    if (CheckLetter(route[currDepth-1], data[1])) {
    2e5c:	ae c5       	rjmp	.+2908   	; 0x39ba <ProcessInput+0x1044>
    2e5e:	22 0f       	add	r18, r18
    2e60:	33 1f       	adc	r19, r19
    2e62:	f9 01       	movw	r30, r18
    2e64:	e7 52       	subi	r30, 0x27	; 39
    2e66:	f6 4c       	sbci	r31, 0xC6	; 198
    2e68:	d8 01       	movw	r26, r16
    2e6a:	11 96       	adiw	r26, 0x01	; 1
    2e6c:	6c 91       	ld	r22, X
    2e6e:	80 81       	ld	r24, Z
    2e70:	91 81       	ldd	r25, Z+1	; 0x01
    2e72:	4a d9       	rcall	.-3436   	; 0x2108 <CheckLetter>
    2e74:	81 11       	cpse	r24, r1
    2e76:	03 c0       	rjmp	.+6      	; 0x2e7e <ProcessInput+0x508>
}

//The game logic!
uint8_t ProcessInput(uint8_t *data){
    static object_model_t actObj1, actObj2;
    uint8_t elements = 1;
    2e78:	77 24       	eor	r7, r7
    2e7a:	73 94       	inc	r7
                    PopulateObject(route[currDepth+1], &actObj1);
//TODO: CHECKSTATE -> A_CANTLOOK item
                    SetResponse(elements++, actObj1.addrStr[DESC], actObj1.lenStr[DESC],GAME);   
                } else if (currDepth) {
                    if (CheckLetter(route[currDepth-1], data[1])) {
                        PopulateObject(route[currDepth-1], &actObj1);
    2e7c:	6c c5       	rjmp	.+2776   	; 0x3956 <ProcessInput+0xfe0>
    2e7e:	e0 91 2c 38 	lds	r30, 0x382C	; 0x80382c <currDepth>
    2e82:	f0 e0       	ldi	r31, 0x00	; 0
    2e84:	ee 0f       	add	r30, r30
    2e86:	ff 1f       	adc	r31, r31
    2e88:	e7 52       	subi	r30, 0x27	; 39
    2e8a:	f6 4c       	sbci	r31, 0xC6	; 198
    2e8c:	6a ed       	ldi	r22, 0xDA	; 218
    2e8e:	78 e3       	ldi	r23, 0x38	; 56
    2e90:	80 81       	ld	r24, Z
    2e92:	91 81       	ldd	r25, Z+1	; 0x01
    2e94:	c2 d8       	rcall	.-3708   	; 0x201a <PopulateObject>
                        SetResponse(elements++, actObj1.addrStr[DESC], actObj1.lenStr[DESC],GAME);
    2e96:	80 91 f6 38 	lds	r24, 0x38F6	; 0x8038f6 <actObj1.3997+0x1c>
    2e9a:	90 91 f7 38 	lds	r25, 0x38F7	; 0x8038f7 <actObj1.3997+0x1d>
    return 0;
}

//
void SetResponse(uint8_t number, uint16_t address, uint16_t length, uint8_t type){
    reactStr[0][number]=address;
    2e9e:	20 91 e8 38 	lds	r18, 0x38E8	; 0x8038e8 <actObj1.3997+0xe>
    2ea2:	30 91 e9 38 	lds	r19, 0x38E9	; 0x8038e9 <actObj1.3997+0xf>
    2ea6:	20 93 1d 39 	sts	0x391D, r18	; 0x80391d <reactStr+0x2>
    2eaa:	30 93 1e 39 	sts	0x391E, r19	; 0x80391e <reactStr+0x3>
    reactStr[1][number]=length;
    2eae:	80 93 5d 39 	sts	0x395D, r24	; 0x80395d <reactStr+0x42>
    2eb2:	90 93 5e 39 	sts	0x395E, r25	; 0x80395e <reactStr+0x43>
    reactStr[2][number]=type;
    2eb6:	10 92 9d 39 	sts	0x399D, r1	; 0x80399d <reactStr+0x82>
    2eba:	10 92 9e 39 	sts	0x399E, r1	; 0x80399e <reactStr+0x83>
    2ebe:	2a ce       	rjmp	.-940    	; 0x2b14 <ProcessInput+0x19e>
                    SetResponse(elements++, A_DONTSEE, L_DONTSEE, TEASER);
                }
            }
        
        //Pick up an object
        } else if (data[0] == 'p') {
    2ec0:	80 37       	cpi	r24, 0x70	; 112
    2ec2:	09 f0       	breq	.+2      	; 0x2ec6 <ProcessInput+0x550>
    2ec4:	96 c0       	rjmp	.+300    	; 0x2ff2 <ProcessInput+0x67c>
            if (inventory[0]&&inventory[1]) {
    2ec6:	80 91 3e 38 	lds	r24, 0x383E	; 0x80383e <inventory>
    2eca:	90 91 3f 38 	lds	r25, 0x383F	; 0x80383f <inventory+0x1>
    2ece:	89 2b       	or	r24, r25
    2ed0:	79 f0       	breq	.+30     	; 0x2ef0 <ProcessInput+0x57a>
    2ed2:	80 91 40 38 	lds	r24, 0x3840	; 0x803840 <inventory+0x2>
    2ed6:	90 91 41 38 	lds	r25, 0x3841	; 0x803841 <inventory+0x3>
    2eda:	89 2b       	or	r24, r25
    2edc:	49 f0       	breq	.+18     	; 0x2ef0 <ProcessInput+0x57a>
    return 0;
}

//
void SetResponse(uint8_t number, uint16_t address, uint16_t length, uint8_t type){
    reactStr[0][number]=address;
    2ede:	84 e4       	ldi	r24, 0x44	; 68
    2ee0:	98 e7       	ldi	r25, 0x78	; 120
    2ee2:	80 93 1d 39 	sts	0x391D, r24	; 0x80391d <reactStr+0x2>
    2ee6:	90 93 1e 39 	sts	0x391E, r25	; 0x80391e <reactStr+0x3>
    reactStr[1][number]=length;
    2eea:	89 e5       	ldi	r24, 0x59	; 89
    2eec:	90 e0       	ldi	r25, 0x00	; 0
    2eee:	08 ce       	rjmp	.-1008   	; 0x2b00 <ProcessInput+0x18a>
        
        //Pick up an object
        } else if (data[0] == 'p') {
            if (inventory[0]&&inventory[1]) {
                SetResponse(elements++, A_CARRYTWO, L_CARRYTWO, TEASER);
            } else if (inputLen != 2) {
    2ef0:	b2 e0       	ldi	r27, 0x02	; 2
    2ef2:	fb 12       	cpse	r15, r27
    2ef4:	70 cd       	rjmp	.-1312   	; 0x29d6 <ProcessInput+0x60>
                SetResponse(elements++, A_NOTPOSSIBLE, L_NOTPOSSIBLE, TEASER);
            } else {
                route[currDepth+1] = FindChild(route[currDepth], data[1], 0);
    2ef6:	e0 90 2c 38 	lds	r14, 0x382C	; 0x80382c <currDepth>
    2efa:	f1 2c       	mov	r15, r1
    2efc:	f7 01       	movw	r30, r14
    2efe:	ee 0f       	add	r30, r30
    2f00:	ff 1f       	adc	r31, r31
    2f02:	e5 52       	subi	r30, 0x25	; 37
    2f04:	f6 4c       	sbci	r31, 0xC6	; 198
    2f06:	40 e0       	ldi	r20, 0x00	; 0
    2f08:	50 e0       	ldi	r21, 0x00	; 0
    2f0a:	d8 01       	movw	r26, r16
    2f0c:	11 96       	adiw	r26, 0x01	; 1
    2f0e:	6c 91       	ld	r22, X
    2f10:	80 81       	ld	r24, Z
    2f12:	91 81       	ldd	r25, Z+1	; 0x01
    2f14:	4d d9       	rcall	.-3430   	; 0x21b0 <FindChild>
    2f16:	f7 01       	movw	r30, r14
    2f18:	ee 0f       	add	r30, r30
    2f1a:	ff 1f       	adc	r31, r31
    2f1c:	e3 52       	subi	r30, 0x23	; 35
    2f1e:	f6 4c       	sbci	r31, 0xC6	; 198
    2f20:	80 83       	st	Z, r24
    2f22:	91 83       	std	Z+1, r25	; 0x01
                if (route[currDepth+1]) {
    2f24:	20 91 2c 38 	lds	r18, 0x382C	; 0x80382c <currDepth>
    2f28:	30 e0       	ldi	r19, 0x00	; 0
    2f2a:	2f 5f       	subi	r18, 0xFF	; 255
    2f2c:	3f 4f       	sbci	r19, 0xFF	; 255
    2f2e:	22 0f       	add	r18, r18
    2f30:	33 1f       	adc	r19, r19
    2f32:	f9 01       	movw	r30, r18
    2f34:	e5 52       	subi	r30, 0x25	; 37
    2f36:	f6 4c       	sbci	r31, 0xC6	; 198
    2f38:	80 81       	ld	r24, Z
    2f3a:	91 81       	ldd	r25, Z+1	; 0x01
    2f3c:	00 97       	sbiw	r24, 0x00	; 0
    2f3e:	09 f4       	brne	.+2      	; 0x2f42 <ProcessInput+0x5cc>
    2f40:	ca c3       	rjmp	.+1940   	; 0x36d6 <ProcessInput+0xd60>
                    if ((route[currDepth+1] == inventory[0])||(route[currDepth+1] == inventory[1])) {
    2f42:	40 91 3e 38 	lds	r20, 0x383E	; 0x80383e <inventory>
    2f46:	50 91 3f 38 	lds	r21, 0x383F	; 0x80383f <inventory+0x1>
    2f4a:	84 17       	cp	r24, r20
    2f4c:	95 07       	cpc	r25, r21
    2f4e:	39 f0       	breq	.+14     	; 0x2f5e <ProcessInput+0x5e8>
    2f50:	40 91 40 38 	lds	r20, 0x3840	; 0x803840 <inventory+0x2>
    2f54:	50 91 41 38 	lds	r21, 0x3841	; 0x803841 <inventory+0x3>
    2f58:	84 17       	cp	r24, r20
    2f5a:	95 07       	cpc	r25, r21
    2f5c:	c1 f4       	brne	.+48     	; 0x2f8e <ProcessInput+0x618>
    return 0;
}

//
void SetResponse(uint8_t number, uint16_t address, uint16_t length, uint8_t type){
    reactStr[0][number]=address;
    2f5e:	8f e1       	ldi	r24, 0x1F	; 31
    2f60:	98 e7       	ldi	r25, 0x78	; 120
    2f62:	80 93 1d 39 	sts	0x391D, r24	; 0x80391d <reactStr+0x2>
    2f66:	90 93 1e 39 	sts	0x391E, r25	; 0x80391e <reactStr+0x3>
    reactStr[1][number]=length;
    2f6a:	85 e2       	ldi	r24, 0x25	; 37
    2f6c:	90 e0       	ldi	r25, 0x00	; 0
    2f6e:	80 93 5d 39 	sts	0x395D, r24	; 0x80395d <reactStr+0x42>
    2f72:	90 93 5e 39 	sts	0x395E, r25	; 0x80395e <reactStr+0x43>
    reactStr[2][number]=type;
    2f76:	81 e0       	ldi	r24, 0x01	; 1
    2f78:	90 e0       	ldi	r25, 0x00	; 0
    2f7a:	80 93 9d 39 	sts	0x399D, r24	; 0x80399d <reactStr+0x82>
    2f7e:	90 93 9e 39 	sts	0x399E, r25	; 0x80399e <reactStr+0x83>
            } else {
                route[currDepth+1] = FindChild(route[currDepth], data[1], 0);
                if (route[currDepth+1]) {
                    if ((route[currDepth+1] == inventory[0])||(route[currDepth+1] == inventory[1])) {
                        SetResponse(elements++, A_ALREADYCARRYING, L_ALREADYCARRYING, TEASER);
                        route[currDepth+1] = 0;
    2f82:	f9 01       	movw	r30, r18
    2f84:	e5 52       	subi	r30, 0x25	; 37
    2f86:	f6 4c       	sbci	r31, 0xC6	; 198
    2f88:	10 82       	st	Z, r1
    2f8a:	11 82       	std	Z+1, r1	; 0x01
                    } else {
                        //Put item in the inventory if possible
                        PopulateObject(route[currDepth+1], &actObj1);  
    2f8c:	c3 cd       	rjmp	.-1146   	; 0x2b14 <ProcessInput+0x19e>
    2f8e:	6a ed       	ldi	r22, 0xDA	; 218
    2f90:	78 e3       	ldi	r23, 0x38	; 56
    2f92:	43 d8       	rcall	.-3962   	; 0x201a <PopulateObject>
                        if (CheckState(actObj1.byteField[ACTION_ACL])) {
    2f94:	80 91 e1 38 	lds	r24, 0x38E1	; 0x8038e1 <actObj1.3997+0x7>
    2f98:	0e 94 a7 0a 	call	0x154e	; 0x154e <CheckState>
    2f9c:	88 23       	and	r24, r24
    2f9e:	09 f4       	brne	.+2      	; 0x2fa2 <ProcessInput+0x62c>
    2fa0:	75 c3       	rjmp	.+1770   	; 0x368c <ProcessInput+0xd16>
                            if (actObj1.byteField[ITEM_NR]) {
    2fa2:	80 91 e5 38 	lds	r24, 0x38E5	; 0x8038e5 <actObj1.3997+0xb>
    2fa6:	88 23       	and	r24, r24
    2fa8:	09 f4       	brne	.+2      	; 0x2fac <ProcessInput+0x636>
    2faa:	15 cd       	rjmp	.-1494   	; 0x29d6 <ProcessInput+0x60>
                                if (inventory[0]) {
    2fac:	80 91 3e 38 	lds	r24, 0x383E	; 0x80383e <inventory>
    2fb0:	90 91 3f 38 	lds	r25, 0x383F	; 0x80383f <inventory+0x1>
    2fb4:	e0 91 2c 38 	lds	r30, 0x382C	; 0x80382c <currDepth>
                                    inventory[1] = route[currDepth+1];
    2fb8:	f0 e0       	ldi	r31, 0x00	; 0
    2fba:	ee 0f       	add	r30, r30
    2fbc:	ff 1f       	adc	r31, r31
    2fbe:	e3 52       	subi	r30, 0x23	; 35
    2fc0:	f6 4c       	sbci	r31, 0xC6	; 198
                    } else {
                        //Put item in the inventory if possible
                        PopulateObject(route[currDepth+1], &actObj1);  
                        if (CheckState(actObj1.byteField[ACTION_ACL])) {
                            if (actObj1.byteField[ITEM_NR]) {
                                if (inventory[0]) {
    2fc2:	89 2b       	or	r24, r25
    2fc4:	39 f0       	breq	.+14     	; 0x2fd4 <ProcessInput+0x65e>
                                    inventory[1] = route[currDepth+1];
    2fc6:	80 81       	ld	r24, Z
    2fc8:	91 81       	ldd	r25, Z+1	; 0x01
    2fca:	80 93 40 38 	sts	0x3840, r24	; 0x803840 <inventory+0x2>
    2fce:	90 93 41 38 	sts	0x3841, r25	; 0x803841 <inventory+0x3>
    2fd2:	06 c0       	rjmp	.+12     	; 0x2fe0 <ProcessInput+0x66a>
                                } else {
                                    inventory[0] = route[currDepth+1];
    2fd4:	80 81       	ld	r24, Z
    2fd6:	91 81       	ldd	r25, Z+1	; 0x01
    2fd8:	80 93 3e 38 	sts	0x383E, r24	; 0x80383e <inventory>
    2fdc:	90 93 3f 38 	sts	0x383F, r25	; 0x80383f <inventory+0x1>
    return 0;
}

//
void SetResponse(uint8_t number, uint16_t address, uint16_t length, uint8_t type){
    reactStr[0][number]=address;
    2fe0:	89 e0       	ldi	r24, 0x09	; 9
    2fe2:	98 e7       	ldi	r25, 0x78	; 120
    2fe4:	80 93 1d 39 	sts	0x391D, r24	; 0x80391d <reactStr+0x2>
    2fe8:	90 93 1e 39 	sts	0x391E, r25	; 0x80391e <reactStr+0x3>
    reactStr[1][number]=length;
    2fec:	86 e1       	ldi	r24, 0x16	; 22
    2fee:	90 e0       	ldi	r25, 0x00	; 0
    2ff0:	5e c2       	rjmp	.+1212   	; 0x34ae <ProcessInput+0xb38>
                } else SetResponse(elements++, A_NOSUCHOBJECT, L_NOSUCHOBJECT, TEASER);
            }
        } else

        //Drop item if in inventory
        if (data[0] == 'd') {
    2ff2:	84 36       	cpi	r24, 0x64	; 100
    2ff4:	d9 f4       	brne	.+54     	; 0x302c <ProcessInput+0x6b6>
            if ((inventory[0] == 0)&&(inventory[1] == 0)){
    2ff6:	80 91 3e 38 	lds	r24, 0x383E	; 0x80383e <inventory>
    2ffa:	90 91 3f 38 	lds	r25, 0x383F	; 0x80383f <inventory+0x1>
    2ffe:	00 97       	sbiw	r24, 0x00	; 0
    3000:	09 f0       	breq	.+2      	; 0x3004 <ProcessInput+0x68e>
    3002:	de c4       	rjmp	.+2492   	; 0x39c0 <ProcessInput+0x104a>
    3004:	80 91 40 38 	lds	r24, 0x3840	; 0x803840 <inventory+0x2>
    3008:	90 91 41 38 	lds	r25, 0x3841	; 0x803841 <inventory+0x3>
    300c:	89 2b       	or	r24, r25
    300e:	49 f4       	brne	.+18     	; 0x3022 <ProcessInput+0x6ac>
    return 0;
}

//
void SetResponse(uint8_t number, uint16_t address, uint16_t length, uint8_t type){
    reactStr[0][number]=address;
    3010:	83 ee       	ldi	r24, 0xE3	; 227
    3012:	97 e7       	ldi	r25, 0x77	; 119
    3014:	80 93 1d 39 	sts	0x391D, r24	; 0x80391d <reactStr+0x2>
    3018:	90 93 1e 39 	sts	0x391E, r25	; 0x80391e <reactStr+0x3>
    reactStr[1][number]=length;
    301c:	86 e2       	ldi	r24, 0x26	; 38
    301e:	90 e0       	ldi	r25, 0x00	; 0
    3020:	6f cd       	rjmp	.-1314   	; 0x2b00 <ProcessInput+0x18a>

        //Drop item if in inventory
        if (data[0] == 'd') {
            if ((inventory[0] == 0)&&(inventory[1] == 0)){
                SetResponse(elements++, A_EMPTYHANDS, L_EMPTYHANDS, TEASER);
            } else if (inputLen != 2) {
    3022:	b2 e0       	ldi	r27, 0x02	; 2
    3024:	fb 16       	cp	r15, r27
    3026:	09 f4       	brne	.+2      	; 0x302a <ProcessInput+0x6b4>
    3028:	31 c5       	rjmp	.+2658   	; 0x3a8c <ProcessInput+0x1116>
    302a:	d5 cc       	rjmp	.-1622   	; 0x29d6 <ProcessInput+0x60>
                    if (x) SetResponse(elements++, A_NOTCARRYING, L_NOTCARRYING, TEASER);
                }
            }

        //Inventory list
        } else if (data[0] == 'i') {
    302c:	89 36       	cpi	r24, 0x69	; 105
    302e:	09 f0       	breq	.+2      	; 0x3032 <ProcessInput+0x6bc>
    3030:	7b c0       	rjmp	.+246    	; 0x3128 <ProcessInput+0x7b2>
            if ((inventory[0] == 0)&&(inventory[1] == 0)){
    3032:	80 91 3e 38 	lds	r24, 0x383E	; 0x80383e <inventory>
    3036:	90 91 3f 38 	lds	r25, 0x383F	; 0x80383f <inventory+0x1>
    303a:	89 2b       	or	r24, r25
    303c:	31 f4       	brne	.+12     	; 0x304a <ProcessInput+0x6d4>
    303e:	80 91 40 38 	lds	r24, 0x3840	; 0x803840 <inventory+0x2>
    3042:	90 91 41 38 	lds	r25, 0x3841	; 0x803841 <inventory+0x3>
    3046:	89 2b       	or	r24, r25
    3048:	19 f3       	breq	.-58     	; 0x3010 <ProcessInput+0x69a>
    return 0;
}

//
void SetResponse(uint8_t number, uint16_t address, uint16_t length, uint8_t type){
    reactStr[0][number]=address;
    304a:	89 e0       	ldi	r24, 0x09	; 9
    304c:	98 e7       	ldi	r25, 0x78	; 120
    304e:	80 93 1d 39 	sts	0x391D, r24	; 0x80391d <reactStr+0x2>
    3052:	90 93 1e 39 	sts	0x391E, r25	; 0x80391e <reactStr+0x3>
    reactStr[1][number]=length;
    3056:	86 e1       	ldi	r24, 0x16	; 22
    3058:	90 e0       	ldi	r25, 0x00	; 0
    305a:	80 93 5d 39 	sts	0x395D, r24	; 0x80395d <reactStr+0x42>
    305e:	90 93 5e 39 	sts	0x395E, r25	; 0x80395e <reactStr+0x43>
    reactStr[2][number]=type;
    3062:	81 e0       	ldi	r24, 0x01	; 1
    3064:	90 e0       	ldi	r25, 0x00	; 0
    3066:	80 93 9d 39 	sts	0x399D, r24	; 0x80399d <reactStr+0x82>
    306a:	90 93 9e 39 	sts	0x399E, r25	; 0x80399e <reactStr+0x83>
    306e:	2e e3       	ldi	r18, 0x3E	; 62
    3070:	e2 2e       	mov	r14, r18
    3072:	28 e3       	ldi	r18, 0x38	; 56
    3074:	f2 2e       	mov	r15, r18
    3076:	32 e4       	ldi	r19, 0x42	; 66
    3078:	63 2e       	mov	r6, r19
    307a:	38 e3       	ldi	r19, 0x38	; 56
    307c:	73 2e       	mov	r7, r19
        //Inventory list
        } else if (data[0] == 'i') {
            if ((inventory[0] == 0)&&(inventory[1] == 0)){
                SetResponse(elements++, A_EMPTYHANDS, L_EMPTYHANDS, TEASER);
            } else {
                SetResponse(elements++, A_NOWCARRING, L_NOWCARRING, TEASER);
    307e:	42 e0       	ldi	r20, 0x02	; 2
    3080:	54 2e       	mov	r5, r20
    return 0;
}

//
void SetResponse(uint8_t number, uint16_t address, uint16_t length, uint8_t type){
    reactStr[0][number]=address;
    3082:	59 e5       	ldi	r21, 0x59	; 89
    3084:	c5 2e       	mov	r12, r21
    3086:	5a e7       	ldi	r21, 0x7A	; 122
    3088:	d5 2e       	mov	r13, r21
    reactStr[1][number]=length;
    308a:	62 e0       	ldi	r22, 0x02	; 2
    308c:	a6 2e       	mov	r10, r22
    308e:	b1 2c       	mov	r11, r1
    reactStr[2][number]=type;
    3090:	88 24       	eor	r8, r8
    3092:	83 94       	inc	r8
    3094:	91 2c       	mov	r9, r1
            } else {
                SetResponse(elements++, A_NOWCARRING, L_NOWCARRING, TEASER);
                //SetResponse(elements++, A_SPACE, L_SPACE, TEASER);
                
                for (uint8_t x=0; x<2; ++x) {
                    if (inventory[x]) {
    3096:	d7 01       	movw	r26, r14
    3098:	8d 91       	ld	r24, X+
    309a:	9d 91       	ld	r25, X+
    309c:	7d 01       	movw	r14, r26
    309e:	00 97       	sbiw	r24, 0x00	; 0
    30a0:	d9 f1       	breq	.+118    	; 0x3118 <ProcessInput+0x7a2>
                        PopulateObject(inventory[x], &actObj1);
    30a2:	6a ed       	ldi	r22, 0xDA	; 218
    30a4:	78 e3       	ldi	r23, 0x38	; 56
    30a6:	0e 94 0d 10 	call	0x201a	; 0x201a <PopulateObject>
                        SetResponse(elements++, actObj1.addrStr[NAME], actObj1.lenStr[NAME], GAME);
    30aa:	80 91 f4 38 	lds	r24, 0x38F4	; 0x8038f4 <actObj1.3997+0x1a>
    30ae:	90 91 f5 38 	lds	r25, 0x38F5	; 0x8038f5 <actObj1.3997+0x1b>
    return 0;
}

//
void SetResponse(uint8_t number, uint16_t address, uint16_t length, uint8_t type){
    reactStr[0][number]=address;
    30b2:	e5 2d       	mov	r30, r5
    30b4:	f0 e0       	ldi	r31, 0x00	; 0
    30b6:	df 01       	movw	r26, r30
    30b8:	aa 0f       	add	r26, r26
    30ba:	bb 1f       	adc	r27, r27
    30bc:	a5 5e       	subi	r26, 0xE5	; 229
    30be:	b6 4c       	sbci	r27, 0xC6	; 198
    30c0:	20 91 e6 38 	lds	r18, 0x38E6	; 0x8038e6 <actObj1.3997+0xc>
    30c4:	30 91 e7 38 	lds	r19, 0x38E7	; 0x8038e7 <actObj1.3997+0xd>
    30c8:	2d 93       	st	X+, r18
    30ca:	3c 93       	st	X, r19
    reactStr[1][number]=length;
    30cc:	df 01       	movw	r26, r30
    30ce:	aa 0f       	add	r26, r26
    30d0:	bb 1f       	adc	r27, r27
    30d2:	a5 5a       	subi	r26, 0xA5	; 165
    30d4:	b6 4c       	sbci	r27, 0xC6	; 198
    30d6:	8d 93       	st	X+, r24
    30d8:	9c 93       	st	X, r25
    reactStr[2][number]=type;
    30da:	ee 0f       	add	r30, r30
    30dc:	ff 1f       	adc	r31, r31
    30de:	e5 56       	subi	r30, 0x65	; 101
    30e0:	f6 4c       	sbci	r31, 0xC6	; 198
    30e2:	10 82       	st	Z, r1
    30e4:	11 82       	std	Z+1, r1	; 0x01
    return 0;
}

//
void SetResponse(uint8_t number, uint16_t address, uint16_t length, uint8_t type){
    reactStr[0][number]=address;
    30e6:	e1 e0       	ldi	r30, 0x01	; 1
    30e8:	e5 0d       	add	r30, r5
    30ea:	f0 e0       	ldi	r31, 0x00	; 0
    30ec:	53 94       	inc	r5
    30ee:	53 94       	inc	r5
    30f0:	df 01       	movw	r26, r30
    30f2:	aa 0f       	add	r26, r26
    30f4:	bb 1f       	adc	r27, r27
    30f6:	a5 5e       	subi	r26, 0xE5	; 229
    30f8:	b6 4c       	sbci	r27, 0xC6	; 198
    30fa:	cd 92       	st	X+, r12
    30fc:	dc 92       	st	X, r13
    reactStr[1][number]=length;
    30fe:	df 01       	movw	r26, r30
    3100:	aa 0f       	add	r26, r26
    3102:	bb 1f       	adc	r27, r27
    3104:	a5 5a       	subi	r26, 0xA5	; 165
    3106:	b6 4c       	sbci	r27, 0xC6	; 198
    3108:	ad 92       	st	X+, r10
    310a:	bc 92       	st	X, r11
    reactStr[2][number]=type;
    310c:	ee 0f       	add	r30, r30
    310e:	ff 1f       	adc	r31, r31
    3110:	e5 56       	subi	r30, 0x65	; 101
    3112:	f6 4c       	sbci	r31, 0xC6	; 198
    3114:	80 82       	st	Z, r8
    3116:	91 82       	std	Z+1, r9	; 0x01
                SetResponse(elements++, A_EMPTYHANDS, L_EMPTYHANDS, TEASER);
            } else {
                SetResponse(elements++, A_NOWCARRING, L_NOWCARRING, TEASER);
                //SetResponse(elements++, A_SPACE, L_SPACE, TEASER);
                
                for (uint8_t x=0; x<2; ++x) {
    3118:	6e 14       	cp	r6, r14
    311a:	7f 04       	cpc	r7, r15
    311c:	09 f0       	breq	.+2      	; 0x3120 <ProcessInput+0x7aa>
    311e:	bb cf       	rjmp	.-138    	; 0x3096 <ProcessInput+0x720>
                        SetResponse(elements++, actObj1.addrStr[NAME], actObj1.lenStr[NAME], GAME);
                        SetResponse(elements++, A_COMMA, L_COMMA, TEASER);
                        //SetResponse(elements++, A_SPACE, L_SPACE, TEASER);
                    }
                }
                elements -= 1;
    3120:	77 24       	eor	r7, r7
    3122:	7a 94       	dec	r7
    3124:	75 0c       	add	r7, r5
    3126:	17 c4       	rjmp	.+2094   	; 0x3956 <ProcessInput+0xfe0>
            }            
        
        //Talk, use, give, read
        } else if ((data[0] == 't')||(data[0] == 'u')||(data[0] == 'g')||(data[0] == 'r')) {
    3128:	9c e8       	ldi	r25, 0x8C	; 140
    312a:	98 0f       	add	r25, r24
    312c:	92 30       	cpi	r25, 0x02	; 2
    312e:	28 f0       	brcs	.+10     	; 0x313a <ProcessInput+0x7c4>
    3130:	87 36       	cpi	r24, 0x67	; 103
    3132:	19 f0       	breq	.+6      	; 0x313a <ProcessInput+0x7c4>
    3134:	82 37       	cpi	r24, 0x72	; 114
    3136:	09 f0       	breq	.+2      	; 0x313a <ProcessInput+0x7c4>
    3138:	d7 c2       	rjmp	.+1454   	; 0x36e8 <ProcessInput+0xd72>
            if ((inputLen<2)||(inputLen>3)) {
    313a:	8e ef       	ldi	r24, 0xFE	; 254
    313c:	8f 0d       	add	r24, r15
    313e:	82 30       	cpi	r24, 0x02	; 2
    3140:	08 f0       	brcs	.+2      	; 0x3144 <ProcessInput+0x7ce>
    3142:	49 cc       	rjmp	.-1902   	; 0x29d6 <ProcessInput+0x60>
                SetResponse(elements++, A_NOTPOSSIBLE, L_NOTPOSSIBLE, TEASER);                
            
            //Check for visible person or object first
            } else {
                route[currDepth+1] = FindChild(route[currDepth], data[inputLen-1], 0);
    3144:	e0 91 2c 38 	lds	r30, 0x382C	; 0x80382c <currDepth>
    3148:	ce 2e       	mov	r12, r30
    314a:	d1 2c       	mov	r13, r1
    314c:	d8 01       	movw	r26, r16
    314e:	af 0d       	add	r26, r15
    3150:	b1 1d       	adc	r27, r1
    3152:	11 97       	sbiw	r26, 0x01	; 1
    3154:	f6 01       	movw	r30, r12
    3156:	ee 0f       	add	r30, r30
    3158:	ff 1f       	adc	r31, r31
    315a:	e5 52       	subi	r30, 0x25	; 37
    315c:	f6 4c       	sbci	r31, 0xC6	; 198
    315e:	40 e0       	ldi	r20, 0x00	; 0
    3160:	50 e0       	ldi	r21, 0x00	; 0
    3162:	6c 91       	ld	r22, X
    3164:	80 81       	ld	r24, Z
    3166:	91 81       	ldd	r25, Z+1	; 0x01
    3168:	23 d8       	rcall	.-4026   	; 0x21b0 <FindChild>
    316a:	f6 01       	movw	r30, r12
    316c:	ee 0f       	add	r30, r30
    316e:	ff 1f       	adc	r31, r31
    3170:	e3 52       	subi	r30, 0x23	; 35
    3172:	f6 4c       	sbci	r31, 0xC6	; 198
    3174:	80 83       	st	Z, r24
    3176:	91 83       	std	Z+1, r25	; 0x01
                if (route[currDepth+1]) {
    3178:	e0 91 2c 38 	lds	r30, 0x382C	; 0x80382c <currDepth>
    317c:	f0 e0       	ldi	r31, 0x00	; 0
    317e:	ee 0f       	add	r30, r30
    3180:	ff 1f       	adc	r31, r31
    3182:	e3 52       	subi	r30, 0x23	; 35
    3184:	f6 4c       	sbci	r31, 0xC6	; 198
    3186:	80 81       	ld	r24, Z
    3188:	91 81       	ldd	r25, Z+1	; 0x01
    318a:	00 97       	sbiw	r24, 0x00	; 0
    318c:	09 f4       	brne	.+2      	; 0x3190 <ProcessInput+0x81a>
    318e:	9a c2       	rjmp	.+1332   	; 0x36c4 <ProcessInput+0xd4e>
                    
                    //Give item to person / use item on object 
                    if ((inputLen == 3)&&((data[0] == 'u')||(data[0] == 'g'))) {
    3190:	b3 e0       	ldi	r27, 0x03	; 3
    3192:	fb 12       	cpse	r15, r27
    3194:	78 c1       	rjmp	.+752    	; 0x3486 <ProcessInput+0xb10>
    3196:	f8 01       	movw	r30, r16
    3198:	20 81       	ld	r18, Z
    319a:	25 37       	cpi	r18, 0x75	; 117
    319c:	19 f0       	breq	.+6      	; 0x31a4 <ProcessInput+0x82e>
    319e:	27 36       	cpi	r18, 0x67	; 103
    31a0:	09 f0       	breq	.+2      	; 0x31a4 <ProcessInput+0x82e>
    31a2:	71 c1       	rjmp	.+738    	; 0x3486 <ProcessInput+0xb10>
    31a4:	61 2c       	mov	r6, r1
    31a6:	77 24       	eor	r7, r7
    31a8:	73 94       	inc	r7
    return 0;
}

//
void SetResponse(uint8_t number, uint16_t address, uint16_t length, uint8_t type){
    reactStr[0][number]=address;
    31aa:	53 e6       	ldi	r21, 0x63	; 99
    31ac:	c5 2e       	mov	r12, r21
    31ae:	59 e7       	ldi	r21, 0x79	; 121
    31b0:	d5 2e       	mov	r13, r21
    reactStr[1][number]=length;
    31b2:	61 e2       	ldi	r22, 0x21	; 33
    31b4:	a6 2e       	mov	r10, r22
    31b6:	b1 2c       	mov	r11, r1
    reactStr[2][number]=type;
    31b8:	88 24       	eor	r8, r8
    31ba:	83 94       	inc	r8
    31bc:	91 2c       	mov	r9, r1
                if (route[currDepth+1]) {
                    
                    //Give item to person / use item on object 
                    if ((inputLen == 3)&&((data[0] == 'u')||(data[0] == 'g'))) {
                        for (uint8_t x=0; x<2; x++) {
                            if (inventory[x]) { 
    31be:	e6 2c       	mov	r14, r6
    31c0:	f1 2c       	mov	r15, r1
    31c2:	c7 01       	movw	r24, r14
    31c4:	88 0f       	add	r24, r24
    31c6:	99 1f       	adc	r25, r25
    31c8:	9c 01       	movw	r18, r24
    31ca:	22 5c       	subi	r18, 0xC2	; 194
    31cc:	37 4c       	sbci	r19, 0xC7	; 199
    31ce:	79 01       	movw	r14, r18
    31d0:	d9 01       	movw	r26, r18
    31d2:	8d 91       	ld	r24, X+
    31d4:	9c 91       	ld	r25, X
    31d6:	00 97       	sbiw	r24, 0x00	; 0
    31d8:	81 f0       	breq	.+32     	; 0x31fa <ProcessInput+0x884>
                                if (CheckLetter(inventory[x], data[1])) {
    31da:	f8 01       	movw	r30, r16
    31dc:	61 81       	ldd	r22, Z+1	; 0x01
    31de:	0e 94 84 10 	call	0x2108	; 0x2108 <CheckLetter>
    31e2:	88 23       	and	r24, r24
    31e4:	51 f0       	breq	.+20     	; 0x31fa <ProcessInput+0x884>
                                    PopulateObject(inventory[x], &actObj2);
    31e6:	6f ea       	ldi	r22, 0xAF	; 175
    31e8:	78 e3       	ldi	r23, 0x38	; 56
    31ea:	d7 01       	movw	r26, r14
    31ec:	8d 91       	ld	r24, X+
    31ee:	9c 91       	ld	r25, X
    31f0:	0e 94 0d 10 	call	0x201a	; 0x201a <PopulateObject>
                                    x = 2;
    31f4:	32 e0       	ldi	r19, 0x02	; 2
    31f6:	63 2e       	mov	r6, r19
    31f8:	1e c0       	rjmp	.+60     	; 0x3236 <ProcessInput+0x8c0>
                                }
                            }
                            if (x == 1) { 
    31fa:	b1 e0       	ldi	r27, 0x01	; 1
    31fc:	6b 12       	cpse	r6, r27
    31fe:	1a c0       	rjmp	.+52     	; 0x3234 <ProcessInput+0x8be>
    return 0;
}

//
void SetResponse(uint8_t number, uint16_t address, uint16_t length, uint8_t type){
    reactStr[0][number]=address;
    3200:	e7 2d       	mov	r30, r7
    3202:	f0 e0       	ldi	r31, 0x00	; 0
    3204:	df 01       	movw	r26, r30
    3206:	aa 0f       	add	r26, r26
    3208:	bb 1f       	adc	r27, r27
    320a:	a5 5e       	subi	r26, 0xE5	; 229
    320c:	b6 4c       	sbci	r27, 0xC6	; 198
    320e:	cd 92       	st	X+, r12
    3210:	dc 92       	st	X, r13
    reactStr[1][number]=length;
    3212:	df 01       	movw	r26, r30
    3214:	aa 0f       	add	r26, r26
    3216:	bb 1f       	adc	r27, r27
    3218:	a5 5a       	subi	r26, 0xA5	; 165
    321a:	b6 4c       	sbci	r27, 0xC6	; 198
    321c:	ad 92       	st	X+, r10
    321e:	bc 92       	st	X, r11
    reactStr[2][number]=type;
    3220:	ee 0f       	add	r30, r30
    3222:	ff 1f       	adc	r31, r31
    3224:	e5 56       	subi	r30, 0x65	; 101
    3226:	f6 4c       	sbci	r31, 0xC6	; 198
    3228:	80 82       	st	Z, r8
    322a:	91 82       	std	Z+1, r9	; 0x01
                                    x = 2;
                                }
                            }
                            if (x == 1) { 
                                SetResponse(elements++, A_NOTCARRYING, L_NOTCARRYING, TEASER);
                                data[0] = 0;
    322c:	f8 01       	movw	r30, r16
    322e:	10 82       	st	Z, r1
                                    PopulateObject(inventory[x], &actObj2);
                                    x = 2;
                                }
                            }
                            if (x == 1) { 
                                SetResponse(elements++, A_NOTCARRYING, L_NOTCARRYING, TEASER);
    3230:	73 94       	inc	r7
    3232:	01 c0       	rjmp	.+2      	; 0x3236 <ProcessInput+0x8c0>
    3234:	61 2c       	mov	r6, r1
                route[currDepth+1] = FindChild(route[currDepth], data[inputLen-1], 0);
                if (route[currDepth+1]) {
                    
                    //Give item to person / use item on object 
                    if ((inputLen == 3)&&((data[0] == 'u')||(data[0] == 'g'))) {
                        for (uint8_t x=0; x<2; x++) {
    3236:	63 94       	inc	r6
    3238:	f1 e0       	ldi	r31, 0x01	; 1
    323a:	6f 16       	cp	r6, r31
    323c:	09 f4       	brne	.+2      	; 0x3240 <ProcessInput+0x8ca>
    323e:	bf cf       	rjmp	.-130    	; 0x31be <ProcessInput+0x848>
                                data[0] = 0;
                            }
                        }

                        //Both the item and person/object are found, check if action is legit
                        if (data[0]){
    3240:	d8 01       	movw	r26, r16
    3242:	8c 91       	ld	r24, X
    3244:	88 23       	and	r24, r24
    3246:	09 f4       	brne	.+2      	; 0x324a <ProcessInput+0x8d4>
    3248:	86 c3       	rjmp	.+1804   	; 0x3956 <ProcessInput+0xfe0>
                            PopulateObject(route[currDepth+1], &actObj1);
    324a:	e0 91 2c 38 	lds	r30, 0x382C	; 0x80382c <currDepth>
    324e:	f0 e0       	ldi	r31, 0x00	; 0
    3250:	ee 0f       	add	r30, r30
    3252:	ff 1f       	adc	r31, r31
    3254:	e3 52       	subi	r30, 0x23	; 35
    3256:	f6 4c       	sbci	r31, 0xC6	; 198
    3258:	6a ed       	ldi	r22, 0xDA	; 218
    325a:	78 e3       	ldi	r23, 0x38	; 56
    325c:	80 81       	ld	r24, Z
    325e:	91 81       	ldd	r25, Z+1	; 0x01
    3260:	0e 94 0d 10 	call	0x201a	; 0x201a <PopulateObject>

                            //Special game
                            if (actObj1.lenStr[ACTION_STR1] == 1) {
    3264:	e0 90 f8 38 	lds	r14, 0x38F8	; 0x8038f8 <actObj1.3997+0x1e>
    3268:	f0 90 f9 38 	lds	r15, 0x38F9	; 0x8038f9 <actObj1.3997+0x1f>
    326c:	b1 e0       	ldi	r27, 0x01	; 1
    326e:	eb 16       	cp	r14, r27
    3270:	f1 04       	cpc	r15, r1
    3272:	09 f0       	breq	.+2      	; 0x3276 <ProcessInput+0x900>
    3274:	9a c0       	rjmp	.+308    	; 0x33aa <ProcessInput+0xa34>
                                ExtEERead(actObj1.addrStr[ACTION_STR1], 1, GAME, &data[2]);
    3276:	98 01       	movw	r18, r16
    3278:	2e 5f       	subi	r18, 0xFE	; 254
    327a:	3f 4f       	sbci	r19, 0xFF	; 255
    327c:	40 e0       	ldi	r20, 0x00	; 0
    327e:	61 e0       	ldi	r22, 0x01	; 1
    3280:	80 91 ea 38 	lds	r24, 0x38EA	; 0x8038ea <actObj1.3997+0x10>
    3284:	90 91 eb 38 	lds	r25, 0x38EB	; 0x8038eb <actObj1.3997+0x11>
    3288:	0e 94 02 0f 	call	0x1e04	; 0x1e04 <ExtEERead>
                                if (data[2] == '1') {
    328c:	f8 01       	movw	r30, r16
    328e:	42 81       	ldd	r20, Z+2	; 0x02
    3290:	21 e0       	ldi	r18, 0x01	; 1
    3292:	27 0d       	add	r18, r7
    3294:	87 2d       	mov	r24, r7
    3296:	90 e0       	ldi	r25, 0x00	; 0
    3298:	41 33       	cpi	r20, 0x31	; 49
    329a:	09 f0       	breq	.+2      	; 0x329e <ProcessInput+0x928>
    329c:	6b c0       	rjmp	.+214    	; 0x3374 <ProcessInput+0x9fe>
                                    uint8_t item = actObj2.byteField[ITEM_NR];
    329e:	30 91 ba 38 	lds	r19, 0x38BA	; 0x8038ba <actObj2.3998+0xb>
                                    if ((item < 31)||(item > 34)) {
    32a2:	51 ee       	ldi	r21, 0xE1	; 225
    32a4:	53 0f       	add	r21, r19
    return 0;
}

//
void SetResponse(uint8_t number, uint16_t address, uint16_t length, uint8_t type){
    reactStr[0][number]=address;
    32a6:	fc 01       	movw	r30, r24
    32a8:	ee 0f       	add	r30, r30
    32aa:	ff 1f       	adc	r31, r31
    32ac:	e5 5e       	subi	r30, 0xE5	; 229
    32ae:	f6 4c       	sbci	r31, 0xC6	; 198
                            //Special game
                            if (actObj1.lenStr[ACTION_STR1] == 1) {
                                ExtEERead(actObj1.addrStr[ACTION_STR1], 1, GAME, &data[2]);
                                if (data[2] == '1') {
                                    uint8_t item = actObj2.byteField[ITEM_NR];
                                    if ((item < 31)||(item > 34)) {
    32b0:	54 30       	cpi	r21, 0x04	; 4
    32b2:	60 f0       	brcs	.+24     	; 0x32cc <ProcessInput+0x956>
    return 0;
}

//
void SetResponse(uint8_t number, uint16_t address, uint16_t length, uint8_t type){
    reactStr[0][number]=address;
    32b4:	43 e0       	ldi	r20, 0x03	; 3
    32b6:	59 e7       	ldi	r21, 0x79	; 121
    32b8:	40 83       	st	Z, r20
    32ba:	51 83       	std	Z+1, r21	; 0x01
    reactStr[1][number]=length;
    32bc:	fc 01       	movw	r30, r24
    32be:	ee 0f       	add	r30, r30
    32c0:	ff 1f       	adc	r31, r31
    32c2:	e5 5a       	subi	r30, 0xA5	; 165
    32c4:	f6 4c       	sbci	r31, 0xC6	; 198
    32c6:	4a e1       	ldi	r20, 0x1A	; 26
    32c8:	50 e0       	ldi	r21, 0x00	; 0
    32ca:	64 c0       	rjmp	.+200    	; 0x3394 <ProcessInput+0xa1e>
    return 0;
}

//
void SetResponse(uint8_t number, uint16_t address, uint16_t length, uint8_t type){
    reactStr[0][number]=address;
    32cc:	6d e8       	ldi	r22, 0x8D	; 141
    32ce:	75 e7       	ldi	r23, 0x75	; 117
    32d0:	60 83       	st	Z, r22
    32d2:	71 83       	std	Z+1, r23	; 0x01
    reactStr[1][number]=length;
    32d4:	fc 01       	movw	r30, r24
    32d6:	ee 0f       	add	r30, r30
    32d8:	ff 1f       	adc	r31, r31
    32da:	e5 5a       	subi	r30, 0xA5	; 165
    32dc:	f6 4c       	sbci	r31, 0xC6	; 198
    32de:	62 eb       	ldi	r22, 0xB2	; 178
    32e0:	70 e0       	ldi	r23, 0x00	; 0
    32e2:	60 83       	st	Z, r22
    32e4:	71 83       	std	Z+1, r23	; 0x01
    reactStr[2][number]=type;
    32e6:	88 0f       	add	r24, r24
    32e8:	99 1f       	adc	r25, r25
    32ea:	fc 01       	movw	r30, r24
    32ec:	e5 56       	subi	r30, 0x65	; 101
    32ee:	f6 4c       	sbci	r31, 0xC6	; 198
    32f0:	e0 82       	st	Z, r14
    32f2:	f1 82       	std	Z+1, r15	; 0x01
    return 0;
}

//
void SetResponse(uint8_t number, uint16_t address, uint16_t length, uint8_t type){
    reactStr[0][number]=address;
    32f4:	82 2f       	mov	r24, r18
    32f6:	90 e0       	ldi	r25, 0x00	; 0
    32f8:	fc 01       	movw	r30, r24
    32fa:	ee 0f       	add	r30, r30
    32fc:	ff 1f       	adc	r31, r31
    32fe:	e5 5e       	subi	r30, 0xE5	; 229
    3300:	f6 4c       	sbci	r31, 0xC6	; 198
    3302:	6b e5       	ldi	r22, 0x5B	; 91
    3304:	7a e7       	ldi	r23, 0x7A	; 122
    3306:	60 83       	st	Z, r22
    3308:	71 83       	std	Z+1, r23	; 0x01
    reactStr[1][number]=length;
    330a:	fc 01       	movw	r30, r24
    330c:	ee 0f       	add	r30, r30
    330e:	ff 1f       	adc	r31, r31
    3310:	e5 5a       	subi	r30, 0xA5	; 165
    3312:	f6 4c       	sbci	r31, 0xC6	; 198
    3314:	62 e0       	ldi	r22, 0x02	; 2
    3316:	70 e0       	ldi	r23, 0x00	; 0
    3318:	60 83       	st	Z, r22
    331a:	71 83       	std	Z+1, r23	; 0x01
    reactStr[2][number]=type;
    331c:	88 0f       	add	r24, r24
    331e:	99 1f       	adc	r25, r25
    3320:	fc 01       	movw	r30, r24
    3322:	e5 56       	subi	r30, 0x65	; 101
    3324:	f6 4c       	sbci	r31, 0xC6	; 198
    3326:	e0 82       	st	Z, r14
    3328:	f1 82       	std	Z+1, r15	; 0x01
    return 0;
}

//
void SetResponse(uint8_t number, uint16_t address, uint16_t length, uint8_t type){
    reactStr[0][number]=address;
    332a:	82 e0       	ldi	r24, 0x02	; 2
    332c:	87 0d       	add	r24, r7
    332e:	90 e0       	ldi	r25, 0x00	; 0
    3330:	f3 e0       	ldi	r31, 0x03	; 3
    3332:	7f 0e       	add	r7, r31
    3334:	fc 01       	movw	r30, r24
    3336:	ee 0f       	add	r30, r30
    3338:	ff 1f       	adc	r31, r31
    333a:	e5 5e       	subi	r30, 0xE5	; 229
    333c:	f6 4c       	sbci	r31, 0xC6	; 198
    333e:	6f ea       	ldi	r22, 0xAF	; 175
    3340:	78 e7       	ldi	r23, 0x78	; 120
    3342:	60 83       	st	Z, r22
    3344:	71 83       	std	Z+1, r23	; 0x01
    reactStr[1][number]=length;
    3346:	fc 01       	movw	r30, r24
    3348:	ee 0f       	add	r30, r30
    334a:	ff 1f       	adc	r31, r31
    334c:	e5 5a       	subi	r30, 0xA5	; 165
    334e:	f6 4c       	sbci	r31, 0xC6	; 198
    3350:	62 e1       	ldi	r22, 0x12	; 18
    3352:	70 e0       	ldi	r23, 0x00	; 0
    3354:	60 83       	st	Z, r22
    3356:	71 83       	std	Z+1, r23	; 0x01
    reactStr[2][number]=type;
    3358:	88 0f       	add	r24, r24
    335a:	99 1f       	adc	r25, r25
    335c:	fc 01       	movw	r30, r24
    335e:	e5 56       	subi	r30, 0x65	; 101
    3360:	f6 4c       	sbci	r31, 0xC6	; 198
    3362:	e0 82       	st	Z, r14
    3364:	f1 82       	std	Z+1, r15	; 0x01
                                        SetResponse(elements++, A_CANTUSE, L_CANTUSE, TEASER);
                                    } else {
                                        SetResponse(elements++, A_PRIEST, L_PRIEST, TEASER);
                                        SetResponse(elements++, A_LF, 2, TEASER);
                                        SetResponse(elements++, A_RESPONSE, L_RESPONSE, TEASER);
                                        specialInput[0] = '1';
    3366:	40 93 0a 39 	sts	0x390A, r20	; 0x80390a <specialInput>
                                        specialInput[1] = item;
    336a:	30 93 0b 39 	sts	0x390B, r19	; 0x80390b <specialInput+0x1>
                                        specialInput[2] = 0;
    336e:	10 92 0c 39 	sts	0x390C, r1	; 0x80390c <specialInput+0x2>
    3372:	f1 c2       	rjmp	.+1506   	; 0x3956 <ProcessInput+0xfe0>
    return 0;
}

//
void SetResponse(uint8_t number, uint16_t address, uint16_t length, uint8_t type){
    reactStr[0][number]=address;
    3374:	fc 01       	movw	r30, r24
    3376:	ee 0f       	add	r30, r30
    3378:	ff 1f       	adc	r31, r31
    337a:	e5 5e       	subi	r30, 0xE5	; 229
    337c:	f6 4c       	sbci	r31, 0xC6	; 198
    337e:	4f e3       	ldi	r20, 0x3F	; 63
    3380:	56 e7       	ldi	r21, 0x76	; 118
    3382:	40 83       	st	Z, r20
    3384:	51 83       	std	Z+1, r21	; 0x01
    reactStr[1][number]=length;
    3386:	fc 01       	movw	r30, r24
    3388:	ee 0f       	add	r30, r30
    338a:	ff 1f       	adc	r31, r31
    338c:	e5 5a       	subi	r30, 0xA5	; 165
    338e:	f6 4c       	sbci	r31, 0xC6	; 198
    3390:	42 e4       	ldi	r20, 0x42	; 66
    3392:	50 e0       	ldi	r21, 0x00	; 0
    3394:	40 83       	st	Z, r20
    3396:	51 83       	std	Z+1, r21	; 0x01
    reactStr[2][number]=type;
    3398:	88 0f       	add	r24, r24
    339a:	99 1f       	adc	r25, r25
    339c:	fc 01       	movw	r30, r24
    339e:	e5 56       	subi	r30, 0x65	; 101
    33a0:	f6 4c       	sbci	r31, 0xC6	; 198
    33a2:	e0 82       	st	Z, r14
    33a4:	f1 82       	std	Z+1, r15	; 0x01
                                        specialInput[2] = 0;
                                    }

                                //There should not be another special
                                } else {
                                    SetResponse(elements++, A_ERROR, L_ERROR, TEASER);
    33a6:	72 2e       	mov	r7, r18
    33a8:	d6 c2       	rjmp	.+1452   	; 0x3956 <ProcessInput+0xfe0>
                                }

                            //Normal "use ... on ..." or "give ... to ..." action
                            } else if (actObj1.byteField[ACTION_ITEM] == actObj2.byteField[ITEM_NR]) {
    33aa:	90 91 e3 38 	lds	r25, 0x38E3	; 0x8038e3 <actObj1.3997+0x9>
    33ae:	80 91 ba 38 	lds	r24, 0x38BA	; 0x8038ba <actObj2.3998+0xb>
    33b2:	98 13       	cpse	r25, r24
    33b4:	2f c0       	rjmp	.+94     	; 0x3414 <ProcessInput+0xa9e>
                                SetResponse(elements++, actObj1.addrStr[ACTION_MSG], actObj1.lenStr[ACTION_MSG], GAME);
    33b6:	20 91 00 39 	lds	r18, 0x3900	; 0x803900 <actObj1.3997+0x26>
    33ba:	30 91 01 39 	lds	r19, 0x3901	; 0x803901 <actObj1.3997+0x27>
    33be:	ff 24       	eor	r15, r15
    33c0:	f3 94       	inc	r15
    33c2:	f7 0c       	add	r15, r7
    return 0;
}

//
void SetResponse(uint8_t number, uint16_t address, uint16_t length, uint8_t type){
    reactStr[0][number]=address;
    33c4:	87 2d       	mov	r24, r7
    33c6:	90 e0       	ldi	r25, 0x00	; 0
    33c8:	fc 01       	movw	r30, r24
    33ca:	ee 0f       	add	r30, r30
    33cc:	ff 1f       	adc	r31, r31
    33ce:	e5 5e       	subi	r30, 0xE5	; 229
    33d0:	f6 4c       	sbci	r31, 0xC6	; 198
    33d2:	40 91 f2 38 	lds	r20, 0x38F2	; 0x8038f2 <actObj1.3997+0x18>
    33d6:	50 91 f3 38 	lds	r21, 0x38F3	; 0x8038f3 <actObj1.3997+0x19>
    33da:	40 83       	st	Z, r20
    33dc:	51 83       	std	Z+1, r21	; 0x01
    reactStr[1][number]=length;
    33de:	fc 01       	movw	r30, r24
    33e0:	ee 0f       	add	r30, r30
    33e2:	ff 1f       	adc	r31, r31
    33e4:	e5 5a       	subi	r30, 0xA5	; 165
    33e6:	f6 4c       	sbci	r31, 0xC6	; 198
    33e8:	20 83       	st	Z, r18
    33ea:	31 83       	std	Z+1, r19	; 0x01
    reactStr[2][number]=type;
    33ec:	88 0f       	add	r24, r24
    33ee:	99 1f       	adc	r25, r25
    33f0:	fc 01       	movw	r30, r24
    33f2:	e5 56       	subi	r30, 0x65	; 101
    33f4:	f6 4c       	sbci	r31, 0xC6	; 198
    33f6:	10 82       	st	Z, r1
    33f8:	11 82       	std	Z+1, r1	; 0x01
                                }

                            //Normal "use ... on ..." or "give ... to ..." action
                            } else if (actObj1.byteField[ACTION_ITEM] == actObj2.byteField[ITEM_NR]) {
                                SetResponse(elements++, actObj1.addrStr[ACTION_MSG], actObj1.lenStr[ACTION_MSG], GAME);
                                effect = actObj1.effect[2];
    33fa:	80 91 04 39 	lds	r24, 0x3904	; 0x803904 <actObj1.3997+0x2a>
    33fe:	90 e0       	ldi	r25, 0x00	; 0
    3400:	80 93 3a 38 	sts	0x383A, r24	; 0x80383a <effect>
    3404:	90 93 3b 38 	sts	0x383B, r25	; 0x80383b <effect+0x1>
                                UpdateState(actObj1.byteField[ACTION_STATE]);
    3408:	80 91 e4 38 	lds	r24, 0x38E4	; 0x8038e4 <actObj1.3997+0xa>
    340c:	0e 94 9d 0a 	call	0x153a	; 0x153a <UpdateState>
                                    SetResponse(elements++, A_ERROR, L_ERROR, TEASER);
                                }

                            //Normal "use ... on ..." or "give ... to ..." action
                            } else if (actObj1.byteField[ACTION_ITEM] == actObj2.byteField[ITEM_NR]) {
                                SetResponse(elements++, actObj1.addrStr[ACTION_MSG], actObj1.lenStr[ACTION_MSG], GAME);
    3410:	7f 2c       	mov	r7, r15
    3412:	a1 c2       	rjmp	.+1346   	; 0x3956 <ProcessInput+0xfe0>
                                effect = actObj1.effect[2];
                                UpdateState(actObj1.byteField[ACTION_STATE]);
                                
                            } else {
                                if (data[0] == 'u') {
    3414:	d8 01       	movw	r26, r16
    3416:	8c 91       	ld	r24, X
    3418:	85 37       	cpi	r24, 0x75	; 117
    341a:	99 f4       	brne	.+38     	; 0x3442 <ProcessInput+0xacc>
    return 0;
}

//
void SetResponse(uint8_t number, uint16_t address, uint16_t length, uint8_t type){
    reactStr[0][number]=address;
    341c:	87 2d       	mov	r24, r7
    341e:	90 e0       	ldi	r25, 0x00	; 0
    3420:	fc 01       	movw	r30, r24
    3422:	ee 0f       	add	r30, r30
    3424:	ff 1f       	adc	r31, r31
    3426:	e5 5e       	subi	r30, 0xE5	; 229
    3428:	f6 4c       	sbci	r31, 0xC6	; 198
    342a:	23 e0       	ldi	r18, 0x03	; 3
    342c:	39 e7       	ldi	r19, 0x79	; 121
    342e:	20 83       	st	Z, r18
    3430:	31 83       	std	Z+1, r19	; 0x01
    reactStr[1][number]=length;
    3432:	fc 01       	movw	r30, r24
    3434:	ee 0f       	add	r30, r30
    3436:	ff 1f       	adc	r31, r31
    3438:	e5 5a       	subi	r30, 0xA5	; 165
    343a:	f6 4c       	sbci	r31, 0xC6	; 198
    343c:	2a e1       	ldi	r18, 0x1A	; 26
    343e:	30 e0       	ldi	r19, 0x00	; 0
    3440:	15 c0       	rjmp	.+42     	; 0x346c <ProcessInput+0xaf6>
                                UpdateState(actObj1.byteField[ACTION_STATE]);
                                
                            } else {
                                if (data[0] == 'u') {
                                    SetResponse(elements++, A_CANTUSE, L_CANTUSE, TEASER);
                                } else if (data[0] == 'g') {
    3442:	87 36       	cpi	r24, 0x67	; 103
    3444:	09 f0       	breq	.+2      	; 0x3448 <ProcessInput+0xad2>
    3446:	87 c2       	rjmp	.+1294   	; 0x3956 <ProcessInput+0xfe0>
    return 0;
}

//
void SetResponse(uint8_t number, uint16_t address, uint16_t length, uint8_t type){
    reactStr[0][number]=address;
    3448:	87 2d       	mov	r24, r7
    344a:	90 e0       	ldi	r25, 0x00	; 0
    344c:	fc 01       	movw	r30, r24
    344e:	ee 0f       	add	r30, r30
    3450:	ff 1f       	adc	r31, r31
    3452:	e5 5e       	subi	r30, 0xE5	; 229
    3454:	f6 4c       	sbci	r31, 0xC6	; 198
    3456:	2c ed       	ldi	r18, 0xDC	; 220
    3458:	36 e7       	ldi	r19, 0x76	; 118
    345a:	20 83       	st	Z, r18
    345c:	31 83       	std	Z+1, r19	; 0x01
    reactStr[1][number]=length;
    345e:	fc 01       	movw	r30, r24
    3460:	ee 0f       	add	r30, r30
    3462:	ff 1f       	adc	r31, r31
    3464:	e5 5a       	subi	r30, 0xA5	; 165
    3466:	f6 4c       	sbci	r31, 0xC6	; 198
    3468:	28 e2       	ldi	r18, 0x28	; 40
    346a:	30 e0       	ldi	r19, 0x00	; 0
    346c:	20 83       	st	Z, r18
    346e:	31 83       	std	Z+1, r19	; 0x01
    reactStr[2][number]=type;
    3470:	88 0f       	add	r24, r24
    3472:	99 1f       	adc	r25, r25
    3474:	fc 01       	movw	r30, r24
    3476:	e5 56       	subi	r30, 0x65	; 101
    3478:	f6 4c       	sbci	r31, 0xC6	; 198
    347a:	81 e0       	ldi	r24, 0x01	; 1
    347c:	90 e0       	ldi	r25, 0x00	; 0
    347e:	80 83       	st	Z, r24
    3480:	91 83       	std	Z+1, r25	; 0x01
                                
                            } else {
                                if (data[0] == 'u') {
                                    SetResponse(elements++, A_CANTUSE, L_CANTUSE, TEASER);
                                } else if (data[0] == 'g') {
                                    SetResponse(elements++, A_CANTGIVE, L_CANTGIVE, TEASER);                                    
    3482:	73 94       	inc	r7
    3484:	68 c2       	rjmp	.+1232   	; 0x3956 <ProcessInput+0xfe0>
                            }
                        }
                    
                    //Talk to person, read or use object (without item)                          
                    } else {
                        PopulateObject(route[currDepth+1], &actObj1);
    3486:	6a ed       	ldi	r22, 0xDA	; 218
    3488:	78 e3       	ldi	r23, 0x38	; 56
    348a:	0e 94 0d 10 	call	0x201a	; 0x201a <PopulateObject>
                        if ((data[0] == 't')&&((actObj1.byteField[ACTION_MASK]&TALK) == 0)) {
    348e:	f8 01       	movw	r30, r16
    3490:	80 81       	ld	r24, Z
    3492:	84 37       	cpi	r24, 0x74	; 116
    3494:	69 f5       	brne	.+90     	; 0x34f0 <ProcessInput+0xb7a>
    3496:	80 91 e2 38 	lds	r24, 0x38E2	; 0x8038e2 <actObj1.3997+0x8>
    349a:	83 fd       	sbrc	r24, 3
    349c:	4a c0       	rjmp	.+148    	; 0x3532 <ProcessInput+0xbbc>
    return 0;
}

//
void SetResponse(uint8_t number, uint16_t address, uint16_t length, uint8_t type){
    reactStr[0][number]=address;
    349e:	8d e1       	ldi	r24, 0x1D	; 29
    34a0:	99 e7       	ldi	r25, 0x79	; 121
    34a2:	80 93 1d 39 	sts	0x391D, r24	; 0x80391d <reactStr+0x2>
    34a6:	90 93 1e 39 	sts	0x391E, r25	; 0x80391e <reactStr+0x3>
    reactStr[1][number]=length;
    34aa:	8e e1       	ldi	r24, 0x1E	; 30
    34ac:	90 e0       	ldi	r25, 0x00	; 0
    34ae:	80 93 5d 39 	sts	0x395D, r24	; 0x80395d <reactStr+0x42>
    34b2:	90 93 5e 39 	sts	0x395E, r25	; 0x80395e <reactStr+0x43>
    reactStr[2][number]=type;
    34b6:	81 e0       	ldi	r24, 0x01	; 1
    34b8:	90 e0       	ldi	r25, 0x00	; 0
    34ba:	80 93 9d 39 	sts	0x399D, r24	; 0x80399d <reactStr+0x82>
    34be:	90 93 9e 39 	sts	0x399E, r25	; 0x80399e <reactStr+0x83>
                    //Talk to person, read or use object (without item)                          
                    } else {
                        PopulateObject(route[currDepth+1], &actObj1);
                        if ((data[0] == 't')&&((actObj1.byteField[ACTION_MASK]&TALK) == 0)) {
                            SetResponse(elements++, A_WHYTALK, L_WHYTALK, TEASER);
                            SetResponse(elements++, actObj1.addrStr[NAME], actObj1.lenStr[NAME], GAME);
    34c2:	80 91 f4 38 	lds	r24, 0x38F4	; 0x8038f4 <actObj1.3997+0x1a>
    34c6:	90 91 f5 38 	lds	r25, 0x38F5	; 0x8038f5 <actObj1.3997+0x1b>
    return 0;
}

//
void SetResponse(uint8_t number, uint16_t address, uint16_t length, uint8_t type){
    reactStr[0][number]=address;
    34ca:	20 91 e6 38 	lds	r18, 0x38E6	; 0x8038e6 <actObj1.3997+0xc>
    34ce:	30 91 e7 38 	lds	r19, 0x38E7	; 0x8038e7 <actObj1.3997+0xd>
    34d2:	20 93 1f 39 	sts	0x391F, r18	; 0x80391f <reactStr+0x4>
    34d6:	30 93 20 39 	sts	0x3920, r19	; 0x803920 <reactStr+0x5>
    reactStr[1][number]=length;
    34da:	80 93 5f 39 	sts	0x395F, r24	; 0x80395f <reactStr+0x44>
    34de:	90 93 60 39 	sts	0x3960, r25	; 0x803960 <reactStr+0x45>
    reactStr[2][number]=type;
    34e2:	10 92 9f 39 	sts	0x399F, r1	; 0x80399f <reactStr+0x84>
    34e6:	10 92 a0 39 	sts	0x39A0, r1	; 0x8039a0 <reactStr+0x85>
                    //Talk to person, read or use object (without item)                          
                    } else {
                        PopulateObject(route[currDepth+1], &actObj1);
                        if ((data[0] == 't')&&((actObj1.byteField[ACTION_MASK]&TALK) == 0)) {
                            SetResponse(elements++, A_WHYTALK, L_WHYTALK, TEASER);
                            SetResponse(elements++, actObj1.addrStr[NAME], actObj1.lenStr[NAME], GAME);
    34ea:	a3 e0       	ldi	r26, 0x03	; 3
    34ec:	7a 2e       	mov	r7, r26
    34ee:	33 c2       	rjmp	.+1126   	; 0x3956 <ProcessInput+0xfe0>
                        } else if ((data[0] == 'u')&&((actObj1.byteField[ACTION_MASK]&USE) == 0)) {
    34f0:	85 37       	cpi	r24, 0x75	; 117
    34f2:	69 f4       	brne	.+26     	; 0x350e <ProcessInput+0xb98>
    34f4:	80 91 e2 38 	lds	r24, 0x38E2	; 0x8038e2 <actObj1.3997+0x8>
    34f8:	84 fd       	sbrc	r24, 4
    34fa:	1b c0       	rjmp	.+54     	; 0x3532 <ProcessInput+0xbbc>
    return 0;
}

//
void SetResponse(uint8_t number, uint16_t address, uint16_t length, uint8_t type){
    reactStr[0][number]=address;
    34fc:	83 e0       	ldi	r24, 0x03	; 3
    34fe:	99 e7       	ldi	r25, 0x79	; 121
    3500:	80 93 1d 39 	sts	0x391D, r24	; 0x80391d <reactStr+0x2>
    3504:	90 93 1e 39 	sts	0x391E, r25	; 0x80391e <reactStr+0x3>
    reactStr[1][number]=length;
    3508:	8a e1       	ldi	r24, 0x1A	; 26
    350a:	90 e0       	ldi	r25, 0x00	; 0
    350c:	f9 ca       	rjmp	.-2574   	; 0x2b00 <ProcessInput+0x18a>
                        if ((data[0] == 't')&&((actObj1.byteField[ACTION_MASK]&TALK) == 0)) {
                            SetResponse(elements++, A_WHYTALK, L_WHYTALK, TEASER);
                            SetResponse(elements++, actObj1.addrStr[NAME], actObj1.lenStr[NAME], GAME);
                        } else if ((data[0] == 'u')&&((actObj1.byteField[ACTION_MASK]&USE) == 0)) {
                            SetResponse(elements++, A_CANTUSE, L_CANTUSE, TEASER);
                        } else if ((data[0] == 'r')&&((actObj1.byteField[ACTION_MASK]&READ) == 0)) {
    350e:	82 37       	cpi	r24, 0x72	; 114
    3510:	69 f4       	brne	.+26     	; 0x352c <ProcessInput+0xbb6>
    3512:	80 91 e2 38 	lds	r24, 0x38E2	; 0x8038e2 <actObj1.3997+0x8>
    3516:	85 fd       	sbrc	r24, 5
    3518:	0c c0       	rjmp	.+24     	; 0x3532 <ProcessInput+0xbbc>
    return 0;
}

//
void SetResponse(uint8_t number, uint16_t address, uint16_t length, uint8_t type){
    reactStr[0][number]=address;
    351a:	88 ee       	ldi	r24, 0xE8	; 232
    351c:	98 e7       	ldi	r25, 0x78	; 120
    351e:	80 93 1d 39 	sts	0x391D, r24	; 0x80391d <reactStr+0x2>
    3522:	90 93 1e 39 	sts	0x391E, r25	; 0x80391e <reactStr+0x3>
    reactStr[1][number]=length;
    3526:	8b e1       	ldi	r24, 0x1B	; 27
    3528:	90 e0       	ldi	r25, 0x00	; 0
    352a:	ea ca       	rjmp	.-2604   	; 0x2b00 <ProcessInput+0x18a>
                            SetResponse(elements++, actObj1.addrStr[NAME], actObj1.lenStr[NAME], GAME);
                        } else if ((data[0] == 'u')&&((actObj1.byteField[ACTION_MASK]&USE) == 0)) {
                            SetResponse(elements++, A_CANTUSE, L_CANTUSE, TEASER);
                        } else if ((data[0] == 'r')&&((actObj1.byteField[ACTION_MASK]&READ) == 0)) {
                            SetResponse(elements++, A_CANTREAD, L_CANTREAD, TEASER);
                        } else if (data[0] == 'g'){ 
    352c:	87 36       	cpi	r24, 0x67	; 103
    352e:	09 f4       	brne	.+2      	; 0x3532 <ProcessInput+0xbbc>
    3530:	52 ca       	rjmp	.-2908   	; 0x29d6 <ProcessInput+0x60>
                            SetResponse(elements++, A_NOTPOSSIBLE, L_NOTPOSSIBLE, TEASER);  
                        } else {

                            //Special game, not enough characters
                            if (actObj1.lenStr[ACTION_STR1] == 1) {
    3532:	e0 90 f8 38 	lds	r14, 0x38F8	; 0x8038f8 <actObj1.3997+0x1e>
    3536:	f0 90 f9 38 	lds	r15, 0x38F9	; 0x8038f9 <actObj1.3997+0x1f>
    353a:	f1 e0       	ldi	r31, 0x01	; 1
    353c:	ef 16       	cp	r14, r31
    353e:	f1 04       	cpc	r15, r1
    3540:	11 f5       	brne	.+68     	; 0x3586 <ProcessInput+0xc10>
                                ExtEERead(actObj1.addrStr[ACTION_STR1], 1, GAME, &data[2]);
    3542:	98 01       	movw	r18, r16
    3544:	2e 5f       	subi	r18, 0xFE	; 254
    3546:	3f 4f       	sbci	r19, 0xFF	; 255
    3548:	40 e0       	ldi	r20, 0x00	; 0
    354a:	61 e0       	ldi	r22, 0x01	; 1
    354c:	80 91 ea 38 	lds	r24, 0x38EA	; 0x8038ea <actObj1.3997+0x10>
    3550:	90 91 eb 38 	lds	r25, 0x38EB	; 0x8038eb <actObj1.3997+0x11>
    3554:	0e 94 02 0f 	call	0x1e04	; 0x1e04 <ExtEERead>
                                if (data[2] == '1') {
    3558:	d8 01       	movw	r26, r16
    355a:	12 96       	adiw	r26, 0x02	; 2
    355c:	8c 91       	ld	r24, X
    355e:	81 33       	cpi	r24, 0x31	; 49
    3560:	09 f0       	breq	.+2      	; 0x3564 <ProcessInput+0xbee>
    3562:	8a cc       	rjmp	.-1772   	; 0x2e78 <ProcessInput+0x502>
    return 0;
}

//
void SetResponse(uint8_t number, uint16_t address, uint16_t length, uint8_t type){
    reactStr[0][number]=address;
    3564:	82 e6       	ldi	r24, 0x62	; 98
    3566:	95 e7       	ldi	r25, 0x75	; 117
    3568:	80 93 1d 39 	sts	0x391D, r24	; 0x80391d <reactStr+0x2>
    356c:	90 93 1e 39 	sts	0x391E, r25	; 0x80391e <reactStr+0x3>
    reactStr[1][number]=length;
    3570:	8b e2       	ldi	r24, 0x2B	; 43
    3572:	90 e0       	ldi	r25, 0x00	; 0
    3574:	80 93 5d 39 	sts	0x395D, r24	; 0x80395d <reactStr+0x42>
    3578:	90 93 5e 39 	sts	0x395E, r25	; 0x80395e <reactStr+0x43>
    reactStr[2][number]=type;
    357c:	e0 92 9d 39 	sts	0x399D, r14	; 0x80399d <reactStr+0x82>
    3580:	f0 92 9e 39 	sts	0x399E, r15	; 0x80399e <reactStr+0x83>
    3584:	c7 ca       	rjmp	.-2674   	; 0x2b14 <ProcessInput+0x19e>
                                if (data[2] == '1') {
                                    SetResponse(elements++, A_PLEASEOFFER, L_PLEASEOFFER, TEASER);
                                }

                            //General request
                            } else if (actObj1.lenStr[ACTION_STR1]) {
    3586:	e1 14       	cp	r14, r1
    3588:	f1 04       	cpc	r15, r1
    358a:	09 f4       	brne	.+2      	; 0x358e <ProcessInput+0xc18>
    358c:	59 c0       	rjmp	.+178    	; 0x3640 <ProcessInput+0xcca>
    return 0;
}

//
void SetResponse(uint8_t number, uint16_t address, uint16_t length, uint8_t type){
    reactStr[0][number]=address;
    358e:	80 91 ea 38 	lds	r24, 0x38EA	; 0x8038ea <actObj1.3997+0x10>
    3592:	90 91 eb 38 	lds	r25, 0x38EB	; 0x8038eb <actObj1.3997+0x11>
    3596:	80 93 1d 39 	sts	0x391D, r24	; 0x80391d <reactStr+0x2>
    359a:	90 93 1e 39 	sts	0x391E, r25	; 0x80391e <reactStr+0x3>
    reactStr[1][number]=length;
    359e:	e0 92 5d 39 	sts	0x395D, r14	; 0x80395d <reactStr+0x42>
    35a2:	f0 92 5e 39 	sts	0x395E, r15	; 0x80395e <reactStr+0x43>
    reactStr[2][number]=type;
    35a6:	10 92 9d 39 	sts	0x399D, r1	; 0x80399d <reactStr+0x82>
    35aa:	10 92 9e 39 	sts	0x399E, r1	; 0x80399e <reactStr+0x83>
    return 0;
}

//
void SetResponse(uint8_t number, uint16_t address, uint16_t length, uint8_t type){
    reactStr[0][number]=address;
    35ae:	8b e5       	ldi	r24, 0x5B	; 91
    35b0:	9a e7       	ldi	r25, 0x7A	; 122
    35b2:	80 93 1f 39 	sts	0x391F, r24	; 0x80391f <reactStr+0x4>
    35b6:	90 93 20 39 	sts	0x3920, r25	; 0x803920 <reactStr+0x5>
    reactStr[1][number]=length;
    35ba:	82 e0       	ldi	r24, 0x02	; 2
    35bc:	90 e0       	ldi	r25, 0x00	; 0
    35be:	80 93 5f 39 	sts	0x395F, r24	; 0x80395f <reactStr+0x44>
    35c2:	90 93 60 39 	sts	0x3960, r25	; 0x803960 <reactStr+0x45>
    reactStr[2][number]=type;
    35c6:	81 e0       	ldi	r24, 0x01	; 1
    35c8:	90 e0       	ldi	r25, 0x00	; 0
    35ca:	80 93 9f 39 	sts	0x399F, r24	; 0x80399f <reactStr+0x84>
    35ce:	90 93 a0 39 	sts	0x39A0, r25	; 0x8039a0 <reactStr+0x85>
    return 0;
}

//
void SetResponse(uint8_t number, uint16_t address, uint16_t length, uint8_t type){
    reactStr[0][number]=address;
    35d2:	2f ea       	ldi	r18, 0xAF	; 175
    35d4:	38 e7       	ldi	r19, 0x78	; 120
    35d6:	20 93 21 39 	sts	0x3921, r18	; 0x803921 <reactStr+0x6>
    35da:	30 93 22 39 	sts	0x3922, r19	; 0x803922 <reactStr+0x7>
    reactStr[1][number]=length;
    35de:	22 e1       	ldi	r18, 0x12	; 18
    35e0:	30 e0       	ldi	r19, 0x00	; 0
    35e2:	20 93 61 39 	sts	0x3961, r18	; 0x803961 <reactStr+0x46>
    35e6:	30 93 62 39 	sts	0x3962, r19	; 0x803962 <reactStr+0x47>
    reactStr[2][number]=type;
    35ea:	80 93 a1 39 	sts	0x39A1, r24	; 0x8039a1 <reactStr+0x86>
    35ee:	90 93 a2 39 	sts	0x39A2, r25	; 0x8039a2 <reactStr+0x87>
                            //General request
                            } else if (actObj1.lenStr[ACTION_STR1]) {
                                SetResponse(elements++, actObj1.addrStr[ACTION_STR1], actObj1.lenStr[ACTION_STR1], GAME);
                                SetResponse(elements++, A_LF, 2, TEASER);
                                SetResponse(elements++, A_RESPONSE, L_RESPONSE, TEASER);
                                if (actObj1.lenStr[ACTION_STR2]>(INP_LENGTH-1)) actObj1.lenStr[ACTION_STR2] = (INP_LENGTH-1);
    35f2:	80 91 fa 38 	lds	r24, 0x38FA	; 0x8038fa <actObj1.3997+0x20>
    35f6:	90 91 fb 38 	lds	r25, 0x38FB	; 0x8038fb <actObj1.3997+0x21>
    35fa:	40 97       	sbiw	r24, 0x10	; 16
    35fc:	30 f0       	brcs	.+12     	; 0x360a <ProcessInput+0xc94>
    35fe:	8f e0       	ldi	r24, 0x0F	; 15
    3600:	90 e0       	ldi	r25, 0x00	; 0
    3602:	80 93 fa 38 	sts	0x38FA, r24	; 0x8038fa <actObj1.3997+0x20>
    3606:	90 93 fb 38 	sts	0x38FB, r25	; 0x8038fb <actObj1.3997+0x21>
                                ExtEERead(actObj1.addrStr[ACTION_STR2], actObj1.lenStr[ACTION_STR2], GAME, (uint8_t *)&specialInput[0]);
    360a:	2a e0       	ldi	r18, 0x0A	; 10
    360c:	39 e3       	ldi	r19, 0x39	; 57
    360e:	40 e0       	ldi	r20, 0x00	; 0
    3610:	60 91 fa 38 	lds	r22, 0x38FA	; 0x8038fa <actObj1.3997+0x20>
    3614:	80 91 ec 38 	lds	r24, 0x38EC	; 0x8038ec <actObj1.3997+0x12>
    3618:	90 91 ed 38 	lds	r25, 0x38ED	; 0x8038ed <actObj1.3997+0x13>
    361c:	0e 94 02 0f 	call	0x1e04	; 0x1e04 <ExtEERead>
                                UnflipData(actObj1.lenStr[ACTION_STR2], (uint8_t *)&specialInput[0]);
    3620:	6a e0       	ldi	r22, 0x0A	; 10
    3622:	79 e3       	ldi	r23, 0x39	; 57
    3624:	80 91 fa 38 	lds	r24, 0x38FA	; 0x8038fa <actObj1.3997+0x20>
    3628:	0e 94 f5 0e 	call	0x1dea	; 0x1dea <UnflipData>
                                specialInput[actObj1.lenStr[ACTION_STR2]] = 0;
    362c:	e0 91 fa 38 	lds	r30, 0x38FA	; 0x8038fa <actObj1.3997+0x20>
    3630:	f0 91 fb 38 	lds	r31, 0x38FB	; 0x8038fb <actObj1.3997+0x21>
    3634:	e6 5f       	subi	r30, 0xF6	; 246
    3636:	f6 4c       	sbci	r31, 0xC6	; 198
    3638:	10 82       	st	Z, r1

                            //General request
                            } else if (actObj1.lenStr[ACTION_STR1]) {
                                SetResponse(elements++, actObj1.addrStr[ACTION_STR1], actObj1.lenStr[ACTION_STR1], GAME);
                                SetResponse(elements++, A_LF, 2, TEASER);
                                SetResponse(elements++, A_RESPONSE, L_RESPONSE, TEASER);
    363a:	f4 e0       	ldi	r31, 0x04	; 4
    363c:	7f 2e       	mov	r7, r31
    363e:	8b c1       	rjmp	.+790    	; 0x3956 <ProcessInput+0xfe0>
                                ExtEERead(actObj1.addrStr[ACTION_STR2], actObj1.lenStr[ACTION_STR2], GAME, (uint8_t *)&specialInput[0]);
                                UnflipData(actObj1.lenStr[ACTION_STR2], (uint8_t *)&specialInput[0]);
                                specialInput[actObj1.lenStr[ACTION_STR2]] = 0;
                            
                            //Normal action    
                            } else if (CheckState(actObj1.byteField[ACTION_ACL])){
    3640:	80 91 e1 38 	lds	r24, 0x38E1	; 0x8038e1 <actObj1.3997+0x7>
    3644:	0e 94 a7 0a 	call	0x154e	; 0x154e <CheckState>
    3648:	88 23       	and	r24, r24
    364a:	01 f1       	breq	.+64     	; 0x368c <ProcessInput+0xd16>
                                SetResponse(elements++, actObj1.addrStr[ACTION_MSG], actObj1.lenStr[ACTION_MSG], GAME);
    364c:	80 91 00 39 	lds	r24, 0x3900	; 0x803900 <actObj1.3997+0x26>
    3650:	90 91 01 39 	lds	r25, 0x3901	; 0x803901 <actObj1.3997+0x27>
    return 0;
}

//
void SetResponse(uint8_t number, uint16_t address, uint16_t length, uint8_t type){
    reactStr[0][number]=address;
    3654:	20 91 f2 38 	lds	r18, 0x38F2	; 0x8038f2 <actObj1.3997+0x18>
    3658:	30 91 f3 38 	lds	r19, 0x38F3	; 0x8038f3 <actObj1.3997+0x19>
    365c:	20 93 1d 39 	sts	0x391D, r18	; 0x80391d <reactStr+0x2>
    3660:	30 93 1e 39 	sts	0x391E, r19	; 0x80391e <reactStr+0x3>
    reactStr[1][number]=length;
    3664:	80 93 5d 39 	sts	0x395D, r24	; 0x80395d <reactStr+0x42>
    3668:	90 93 5e 39 	sts	0x395E, r25	; 0x80395e <reactStr+0x43>
    reactStr[2][number]=type;
    366c:	10 92 9d 39 	sts	0x399D, r1	; 0x80399d <reactStr+0x82>
    3670:	10 92 9e 39 	sts	0x399E, r1	; 0x80399e <reactStr+0x83>
                                specialInput[actObj1.lenStr[ACTION_STR2]] = 0;
                            
                            //Normal action    
                            } else if (CheckState(actObj1.byteField[ACTION_ACL])){
                                SetResponse(elements++, actObj1.addrStr[ACTION_MSG], actObj1.lenStr[ACTION_MSG], GAME);
                                effect = actObj1.effect[2];
    3674:	80 91 04 39 	lds	r24, 0x3904	; 0x803904 <actObj1.3997+0x2a>
    3678:	90 e0       	ldi	r25, 0x00	; 0
    367a:	80 93 3a 38 	sts	0x383A, r24	; 0x80383a <effect>
    367e:	90 93 3b 38 	sts	0x383B, r25	; 0x80383b <effect+0x1>
                                UpdateState(actObj1.byteField[ACTION_STATE]);
    3682:	80 91 e4 38 	lds	r24, 0x38E4	; 0x8038e4 <actObj1.3997+0xa>
    3686:	0e 94 9d 0a 	call	0x153a	; 0x153a <UpdateState>
    368a:	44 ca       	rjmp	.-2936   	; 0x2b14 <ProcessInput+0x19e>
                            } else {
                                SetResponse(elements++, actObj1.addrStr[ACTION_ACL_MSG], actObj1.lenStr[ACTION_ACL_MSG], GAME);
    368c:	80 91 fe 38 	lds	r24, 0x38FE	; 0x8038fe <actObj1.3997+0x24>
    3690:	90 91 ff 38 	lds	r25, 0x38FF	; 0x8038ff <actObj1.3997+0x25>
    return 0;
}

//
void SetResponse(uint8_t number, uint16_t address, uint16_t length, uint8_t type){
    reactStr[0][number]=address;
    3694:	20 91 f0 38 	lds	r18, 0x38F0	; 0x8038f0 <actObj1.3997+0x16>
    3698:	30 91 f1 38 	lds	r19, 0x38F1	; 0x8038f1 <actObj1.3997+0x17>
    369c:	20 93 1d 39 	sts	0x391D, r18	; 0x80391d <reactStr+0x2>
    36a0:	30 93 1e 39 	sts	0x391E, r19	; 0x80391e <reactStr+0x3>
    reactStr[1][number]=length;
    36a4:	80 93 5d 39 	sts	0x395D, r24	; 0x80395d <reactStr+0x42>
    36a8:	90 93 5e 39 	sts	0x395E, r25	; 0x80395e <reactStr+0x43>
    reactStr[2][number]=type;
    36ac:	10 92 9d 39 	sts	0x399D, r1	; 0x80399d <reactStr+0x82>
    36b0:	10 92 9e 39 	sts	0x399E, r1	; 0x80399e <reactStr+0x83>
                                SetResponse(elements++, actObj1.addrStr[ACTION_MSG], actObj1.lenStr[ACTION_MSG], GAME);
                                effect = actObj1.effect[2];
                                UpdateState(actObj1.byteField[ACTION_STATE]);
                            } else {
                                SetResponse(elements++, actObj1.addrStr[ACTION_ACL_MSG], actObj1.lenStr[ACTION_ACL_MSG], GAME);
                                effect = actObj1.effect[1];
    36b4:	80 91 03 39 	lds	r24, 0x3903	; 0x803903 <actObj1.3997+0x29>
    36b8:	90 e0       	ldi	r25, 0x00	; 0
    36ba:	80 93 3a 38 	sts	0x383A, r24	; 0x80383a <effect>
    36be:	90 93 3b 38 	sts	0x383B, r25	; 0x80383b <effect+0x1>
    36c2:	28 ca       	rjmp	.-2992   	; 0x2b14 <ProcessInput+0x19e>
                        }
                    }

                //Person or object not found
                } else {
                    if ((data[0] == 't')||(data[0] == 'g')){
    36c4:	f8 01       	movw	r30, r16
    36c6:	80 81       	ld	r24, Z
    36c8:	84 37       	cpi	r24, 0x74	; 116
    36ca:	11 f0       	breq	.+4      	; 0x36d0 <ProcessInput+0xd5a>
    36cc:	87 36       	cpi	r24, 0x67	; 103
    36ce:	19 f4       	brne	.+6      	; 0x36d6 <ProcessInput+0xd60>
    return 0;
}

//
void SetResponse(uint8_t number, uint16_t address, uint16_t length, uint8_t type){
    reactStr[0][number]=address;
    36d0:	8b e3       	ldi	r24, 0x3B	; 59
    36d2:	99 e7       	ldi	r25, 0x79	; 121
    36d4:	02 c0       	rjmp	.+4      	; 0x36da <ProcessInput+0xd64>
    36d6:	8f e4       	ldi	r24, 0x4F	; 79
    36d8:	99 e7       	ldi	r25, 0x79	; 121
    36da:	80 93 1d 39 	sts	0x391D, r24	; 0x80391d <reactStr+0x2>
    36de:	90 93 1e 39 	sts	0x391E, r25	; 0x80391e <reactStr+0x3>
    reactStr[1][number]=length;
    36e2:	84 e1       	ldi	r24, 0x14	; 20
    36e4:	90 e0       	ldi	r25, 0x00	; 0
    36e6:	0c ca       	rjmp	.-3048   	; 0x2b00 <ProcessInput+0x18a>
                    }
                }
            }
        
        //Special answer given
        } else if (data[0] == 'a'){
    36e8:	81 36       	cpi	r24, 0x61	; 97
    36ea:	09 f0       	breq	.+2      	; 0x36ee <ProcessInput+0xd78>
    36ec:	c5 cb       	rjmp	.-2166   	; 0x2e78 <ProcessInput+0x502>
            
            //Priest offerings
            if (specialPassed >= 2) {
    36ee:	80 91 09 39 	lds	r24, 0x3909	; 0x803909 <specialPassed>
    36f2:	82 30       	cpi	r24, 0x02	; 2
    36f4:	08 f4       	brcc	.+2      	; 0x36f8 <ProcessInput+0xd82>
    36f6:	bd c0       	rjmp	.+378    	; 0x3872 <ProcessInput+0xefc>
                if (data[1] > 0) {
    36f8:	d8 01       	movw	r26, r16
    36fa:	11 96       	adiw	r26, 0x01	; 1
    36fc:	2c 91       	ld	r18, X
    36fe:	22 23       	and	r18, r18
    3700:	09 f4       	brne	.+2      	; 0x3704 <ProcessInput+0xd8e>
    3702:	a4 c0       	rjmp	.+328    	; 0x384c <ProcessInput+0xed6>

                    uint8_t  digit[10] = {0, 0, 0, 0, 0, 0, 0, 0, 0, 0};
    3704:	fe 01       	movw	r30, r28
    3706:	31 96       	adiw	r30, 0x01	; 1
    3708:	7f 01       	movw	r14, r30
    370a:	8a e0       	ldi	r24, 0x0A	; 10
    370c:	df 01       	movw	r26, r30
    370e:	1d 92       	st	X+, r1
    3710:	8a 95       	dec	r24
    3712:	e9 f7       	brne	.-6      	; 0x370e <ProcessInput+0xd98>
                        answer = ((offering  & 2) << 19) + ((offering  & 1) << 8) + \
                        ((element   & 2) << 15) + ((element   & 1) << 4) + \
                        ((kneelings & 2) << 11) + ((kneelings & 1))
                        answer = answer << (3-person)
                    */
                    data[1]-='1';
    3714:	21 53       	subi	r18, 0x31	; 49
    3716:	f8 01       	movw	r30, r16
    3718:	21 83       	std	Z+1, r18	; 0x01
                    data[2]-='1';
    371a:	32 81       	ldd	r19, Z+2	; 0x02
    371c:	31 53       	subi	r19, 0x31	; 49
    371e:	32 83       	std	Z+2, r19	; 0x02
                    if (data[3] == 'a') data[3] = 1;
    3720:	83 81       	ldd	r24, Z+3	; 0x03
    3722:	81 36       	cpi	r24, 0x61	; 97
    3724:	11 f4       	brne	.+4      	; 0x372a <ProcessInput+0xdb4>
    3726:	81 e0       	ldi	r24, 0x01	; 1
    3728:	08 c0       	rjmp	.+16     	; 0x373a <ProcessInput+0xdc4>
                    else if (data[3] == 'e') data[3] = 0;
    372a:	85 36       	cpi	r24, 0x65	; 101
    372c:	11 f4       	brne	.+4      	; 0x3732 <ProcessInput+0xdbc>
    372e:	13 82       	std	Z+3, r1	; 0x03
    3730:	08 c0       	rjmp	.+16     	; 0x3742 <ProcessInput+0xdcc>
                    else if (data[3] == 'f') data[3] = 3;
    3732:	86 36       	cpi	r24, 0x66	; 102
    3734:	21 f4       	brne	.+8      	; 0x373e <ProcessInput+0xdc8>
    3736:	83 e0       	ldi	r24, 0x03	; 3
    3738:	f8 01       	movw	r30, r16
    373a:	83 83       	std	Z+3, r24	; 0x03
    373c:	02 c0       	rjmp	.+4      	; 0x3742 <ProcessInput+0xdcc>
                    else data[3] = 2;
    373e:	82 e0       	ldi	r24, 0x02	; 2
    3740:	83 83       	std	Z+3, r24	; 0x03

                    if (data[1] & 2) answer += (1UL << 20);
    3742:	21 fd       	sbrc	r18, 1
    3744:	04 c0       	rjmp	.+8      	; 0x374e <ProcessInput+0xdd8>
            //Priest offerings
            if (specialPassed >= 2) {
                if (data[1] > 0) {

                    uint8_t  digit[10] = {0, 0, 0, 0, 0, 0, 0, 0, 0, 0};
                    uint32_t answer = 0;
    3746:	80 e0       	ldi	r24, 0x00	; 0
    3748:	90 e0       	ldi	r25, 0x00	; 0
    374a:	dc 01       	movw	r26, r24
    374c:	04 c0       	rjmp	.+8      	; 0x3756 <ProcessInput+0xde0>
                    if (data[3] == 'a') data[3] = 1;
                    else if (data[3] == 'e') data[3] = 0;
                    else if (data[3] == 'f') data[3] = 3;
                    else data[3] = 2;

                    if (data[1] & 2) answer += (1UL << 20);
    374e:	80 e0       	ldi	r24, 0x00	; 0
    3750:	90 e0       	ldi	r25, 0x00	; 0
    3752:	a0 e1       	ldi	r26, 0x10	; 16
    3754:	b0 e0       	ldi	r27, 0x00	; 0
                    if (data[1] & 1) answer += (1 << 8);
    3756:	20 ff       	sbrs	r18, 0
    3758:	03 c0       	rjmp	.+6      	; 0x3760 <ProcessInput+0xdea>
    375a:	9f 5f       	subi	r25, 0xFF	; 255
    375c:	af 4f       	sbci	r26, 0xFF	; 255
    375e:	bf 4f       	sbci	r27, 0xFF	; 255
                    if (data[3] & 2) answer += (1UL << 16);
    3760:	f8 01       	movw	r30, r16
    3762:	23 81       	ldd	r18, Z+3	; 0x03
    3764:	21 fd       	sbrc	r18, 1
    3766:	11 96       	adiw	r26, 0x01	; 1
                    if (data[3] & 1) answer += (1 << 4);
    3768:	20 ff       	sbrs	r18, 0
    376a:	03 c0       	rjmp	.+6      	; 0x3772 <ProcessInput+0xdfc>
    376c:	40 96       	adiw	r24, 0x10	; 16
    376e:	a1 1d       	adc	r26, r1
    3770:	b1 1d       	adc	r27, r1
                    if (data[2] & 2) answer += (1 << 12);
    3772:	31 ff       	sbrs	r19, 1
    3774:	03 c0       	rjmp	.+6      	; 0x377c <ProcessInput+0xe06>
    3776:	90 5f       	subi	r25, 0xF0	; 240
    3778:	af 4f       	sbci	r26, 0xFF	; 255
    377a:	bf 4f       	sbci	r27, 0xFF	; 255
                    if (data[2] & 1) answer += 1;
    377c:	30 ff       	sbrs	r19, 0
    377e:	03 c0       	rjmp	.+6      	; 0x3786 <ProcessInput+0xe10>
    3780:	01 96       	adiw	r24, 0x01	; 1
    3782:	a1 1d       	adc	r26, r1
    3784:	b1 1d       	adc	r27, r1
                    answer <<= (4 - whoami);            
    3786:	40 91 3d 38 	lds	r20, 0x383D	; 0x80383d <whoami>
    378a:	24 e0       	ldi	r18, 0x04	; 4
    378c:	30 e0       	ldi	r19, 0x00	; 0
    378e:	24 1b       	sub	r18, r20
    3790:	31 09       	sbc	r19, r1
    3792:	bc 01       	movw	r22, r24
    3794:	cd 01       	movw	r24, r26
    3796:	04 c0       	rjmp	.+8      	; 0x37a0 <ProcessInput+0xe2a>
    3798:	66 0f       	add	r22, r22
    379a:	77 1f       	adc	r23, r23
    379c:	88 1f       	adc	r24, r24
    379e:	99 1f       	adc	r25, r25
    37a0:	2a 95       	dec	r18
    37a2:	d2 f7       	brpl	.-12     	; 0x3798 <ProcessInput+0xe22>
    return 0;
}

//
void SetResponse(uint8_t number, uint16_t address, uint16_t length, uint8_t type){
    reactStr[0][number]=address;
    37a4:	25 e0       	ldi	r18, 0x05	; 5
    37a6:	35 e7       	ldi	r19, 0x75	; 117
    37a8:	20 93 1d 39 	sts	0x391D, r18	; 0x80391d <reactStr+0x2>
    37ac:	30 93 1e 39 	sts	0x391E, r19	; 0x80391e <reactStr+0x3>
    reactStr[1][number]=length;
    37b0:	20 e2       	ldi	r18, 0x20	; 32
    37b2:	30 e0       	ldi	r19, 0x00	; 0
    37b4:	20 93 5d 39 	sts	0x395D, r18	; 0x80395d <reactStr+0x42>
    37b8:	30 93 5e 39 	sts	0x395E, r19	; 0x80395e <reactStr+0x43>
    reactStr[2][number]=type;
    37bc:	21 e0       	ldi	r18, 0x01	; 1
    37be:	30 e0       	ldi	r19, 0x00	; 0
    37c0:	20 93 9d 39 	sts	0x399D, r18	; 0x80399d <reactStr+0x82>
    37c4:	30 93 9e 39 	sts	0x399E, r19	; 0x80399e <reactStr+0x83>
                    answer <<= (4 - whoami);            

                    SetResponse(elements++, A_YOURPART, L_YOURPART, TEASER);
                    
                    //Set up sending out number
                    for (n=9; n>=0; --n) {
    37c8:	59 e0       	ldi	r21, 0x09	; 9
                        digit[n] = answer % 10;
    37ca:	b5 2e       	mov	r11, r21
    37cc:	ea e0       	ldi	r30, 0x0A	; 10
    37ce:	4e 2e       	mov	r4, r30
    37d0:	51 2c       	mov	r5, r1
    37d2:	61 2c       	mov	r6, r1
    37d4:	71 2c       	mov	r7, r1
    37d6:	67 01       	movw	r12, r14
    37d8:	cb 0c       	add	r12, r11
    37da:	d1 1c       	adc	r13, r1
    37dc:	a3 01       	movw	r20, r6
    37de:	92 01       	movw	r18, r4
    37e0:	b5 d2       	rcall	.+1386   	; 0x3d4c <__udivmodsi4>
    37e2:	d6 01       	movw	r26, r12
    37e4:	6c 93       	st	X, r22
                        answer /= 10;
    37e6:	b9 01       	movw	r22, r18
    37e8:	ca 01       	movw	r24, r20
                        if (answer == 0) break;
    37ea:	61 15       	cp	r22, r1
    37ec:	71 05       	cpc	r23, r1
    37ee:	81 05       	cpc	r24, r1
    37f0:	91 05       	cpc	r25, r1
    37f2:	51 f4       	brne	.+20     	; 0x3808 <ProcessInput+0xe92>
    37f4:	2b e1       	ldi	r18, 0x1B	; 27
    37f6:	c2 2e       	mov	r12, r18
    37f8:	29 e3       	ldi	r18, 0x39	; 57
    37fa:	d2 2e       	mov	r13, r18
    37fc:	32 e0       	ldi	r19, 0x02	; 2
    37fe:	73 2e       	mov	r7, r19
}

//
void SetResponse(uint8_t number, uint16_t address, uint16_t length, uint8_t type){
    reactStr[0][number]=address;
    reactStr[1][number]=length;
    3800:	88 24       	eor	r8, r8
    3802:	83 94       	inc	r8
    3804:	91 2c       	mov	r9, r1
    3806:	02 c0       	rjmp	.+4      	; 0x380c <ProcessInput+0xe96>
                    answer <<= (4 - whoami);            

                    SetResponse(elements++, A_YOURPART, L_YOURPART, TEASER);
                    
                    //Set up sending out number
                    for (n=9; n>=0; --n) {
    3808:	ba 94       	dec	r11
                        digit[n] = answer % 10;
                        answer /= 10;
                        if (answer == 0) break;
                    }
    380a:	e5 cf       	rjmp	.-54     	; 0x37d6 <ProcessInput+0xe60>
    380c:	f2 e0       	ldi	r31, 0x02	; 2
    380e:	cf 0e       	add	r12, r31
    3810:	d1 1c       	adc	r13, r1
                    for (; n<10; ++n) {
    3812:	29 e0       	ldi	r18, 0x09	; 9
    3814:	2b 15       	cp	r18, r11
    3816:	08 f4       	brcc	.+2      	; 0x381a <ProcessInput+0xea4>
    3818:	9c c0       	rjmp	.+312    	; 0x3952 <ProcessInput+0xfdc>
                        SetResponse(elements++, A_DIGITS+digit[n], 1, TEASER);
    381a:	73 94       	inc	r7
    381c:	f7 01       	movw	r30, r14
    381e:	eb 0d       	add	r30, r11
    3820:	f1 1d       	adc	r31, r1
    return 0;
}

//
void SetResponse(uint8_t number, uint16_t address, uint16_t length, uint8_t type){
    reactStr[0][number]=address;
    3822:	80 81       	ld	r24, Z
    3824:	90 e0       	ldi	r25, 0x00	; 0
    3826:	8e 52       	subi	r24, 0x2E	; 46
    3828:	9b 48       	sbci	r25, 0x8B	; 139
    382a:	f6 01       	movw	r30, r12
    382c:	82 83       	std	Z+2, r24	; 0x02
    382e:	93 83       	std	Z+3, r25	; 0x03
    reactStr[1][number]=length;
    3830:	ee 5b       	subi	r30, 0xBE	; 190
    3832:	ff 4f       	sbci	r31, 0xFF	; 255
    3834:	80 82       	st	Z, r8
    3836:	91 82       	std	Z+1, r9	; 0x01
    reactStr[2][number]=type;
    3838:	e0 5c       	subi	r30, 0xC0	; 192
    383a:	ff 4f       	sbci	r31, 0xFF	; 255
    383c:	80 82       	st	Z, r8
    383e:	91 82       	std	Z+1, r9	; 0x01
                        answer /= 10;
                        if (answer == 0) break;
                    }
                    for (; n<10; ++n) {
                        SetResponse(elements++, A_DIGITS+digit[n], 1, TEASER);
                        UpdateState(actObj1.byteField[ACTION_STATE]);
    3840:	80 91 e4 38 	lds	r24, 0x38E4	; 0x8038e4 <actObj1.3997+0xa>
    3844:	0e 94 9d 0a 	call	0x153a	; 0x153a <UpdateState>
                    for (n=9; n>=0; --n) {
                        digit[n] = answer % 10;
                        answer /= 10;
                        if (answer == 0) break;
                    }
                    for (; n<10; ++n) {
    3848:	b3 94       	inc	r11
    384a:	e0 cf       	rjmp	.-64     	; 0x380c <ProcessInput+0xe96>
    return 0;
}

//
void SetResponse(uint8_t number, uint16_t address, uint16_t length, uint8_t type){
    reactStr[0][number]=address;
    384c:	85 e2       	ldi	r24, 0x25	; 37
    384e:	95 e7       	ldi	r25, 0x75	; 117
    3850:	80 93 1d 39 	sts	0x391D, r24	; 0x80391d <reactStr+0x2>
    3854:	90 93 1e 39 	sts	0x391E, r25	; 0x80391e <reactStr+0x3>
    reactStr[1][number]=length;
    3858:	8d e3       	ldi	r24, 0x3D	; 61
    385a:	90 e0       	ldi	r25, 0x00	; 0
    385c:	80 93 5d 39 	sts	0x395D, r24	; 0x80395d <reactStr+0x42>
    3860:	90 93 5e 39 	sts	0x395E, r25	; 0x80395e <reactStr+0x43>
    reactStr[2][number]=type;
    3864:	81 e0       	ldi	r24, 0x01	; 1
    3866:	90 e0       	ldi	r25, 0x00	; 0
    3868:	80 93 9d 39 	sts	0x399D, r24	; 0x80399d <reactStr+0x82>
    386c:	90 93 9e 39 	sts	0x399E, r25	; 0x80399e <reactStr+0x83>
    3870:	6e c0       	rjmp	.+220    	; 0x394e <ProcessInput+0xfd8>
    3872:	e0 91 2c 38 	lds	r30, 0x382C	; 0x80382c <currDepth>
                    SetResponse(elements++, A_BADOFFERING, L_BADOFFERING, TEASER);
                }
            
            //Other questions    
            } else if (specialPassed == 1) {
                PopulateObject(route[currDepth+1], &actObj1);
    3876:	f0 e0       	ldi	r31, 0x00	; 0
    3878:	ee 0f       	add	r30, r30
    387a:	ff 1f       	adc	r31, r31
    387c:	e3 52       	subi	r30, 0x23	; 35
    387e:	f6 4c       	sbci	r31, 0xC6	; 198
    3880:	6a ed       	ldi	r22, 0xDA	; 218
    3882:	78 e3       	ldi	r23, 0x38	; 56
                } else {
                    SetResponse(elements++, A_BADOFFERING, L_BADOFFERING, TEASER);
                }
            
            //Other questions    
            } else if (specialPassed == 1) {
    3884:	81 30       	cpi	r24, 0x01	; 1
    3886:	09 f0       	breq	.+2      	; 0x388a <ProcessInput+0xf14>
    3888:	46 c0       	rjmp	.+140    	; 0x3916 <ProcessInput+0xfa0>
                PopulateObject(route[currDepth+1], &actObj1);
    388a:	80 81       	ld	r24, Z
    388c:	91 81       	ldd	r25, Z+1	; 0x01
    388e:	0e 94 0d 10 	call	0x201a	; 0x201a <PopulateObject>
                if (CheckState(actObj1.byteField[ACTION_ACL])){
    3892:	80 91 e1 38 	lds	r24, 0x38E1	; 0x8038e1 <actObj1.3997+0x7>
    3896:	0e 94 a7 0a 	call	0x154e	; 0x154e <CheckState>
    389a:	88 23       	and	r24, r24
    389c:	01 f1       	breq	.+64     	; 0x38de <ProcessInput+0xf68>
                    SetResponse(elements++, actObj1.addrStr[ACTION_MSG], actObj1.lenStr[ACTION_MSG], GAME);
    389e:	80 91 00 39 	lds	r24, 0x3900	; 0x803900 <actObj1.3997+0x26>
    38a2:	90 91 01 39 	lds	r25, 0x3901	; 0x803901 <actObj1.3997+0x27>
    return 0;
}

//
void SetResponse(uint8_t number, uint16_t address, uint16_t length, uint8_t type){
    reactStr[0][number]=address;
    38a6:	20 91 f2 38 	lds	r18, 0x38F2	; 0x8038f2 <actObj1.3997+0x18>
    38aa:	30 91 f3 38 	lds	r19, 0x38F3	; 0x8038f3 <actObj1.3997+0x19>
    38ae:	20 93 1d 39 	sts	0x391D, r18	; 0x80391d <reactStr+0x2>
    38b2:	30 93 1e 39 	sts	0x391E, r19	; 0x80391e <reactStr+0x3>
    reactStr[1][number]=length;
    38b6:	80 93 5d 39 	sts	0x395D, r24	; 0x80395d <reactStr+0x42>
    38ba:	90 93 5e 39 	sts	0x395E, r25	; 0x80395e <reactStr+0x43>
    reactStr[2][number]=type;
    38be:	10 92 9d 39 	sts	0x399D, r1	; 0x80399d <reactStr+0x82>
    38c2:	10 92 9e 39 	sts	0x399E, r1	; 0x80399e <reactStr+0x83>
            //Other questions    
            } else if (specialPassed == 1) {
                PopulateObject(route[currDepth+1], &actObj1);
                if (CheckState(actObj1.byteField[ACTION_ACL])){
                    SetResponse(elements++, actObj1.addrStr[ACTION_MSG], actObj1.lenStr[ACTION_MSG], GAME);
                    effect = actObj1.effect[2];
    38c6:	80 91 04 39 	lds	r24, 0x3904	; 0x803904 <actObj1.3997+0x2a>
    38ca:	90 e0       	ldi	r25, 0x00	; 0
    38cc:	80 93 3a 38 	sts	0x383A, r24	; 0x80383a <effect>
    38d0:	90 93 3b 38 	sts	0x383B, r25	; 0x80383b <effect+0x1>
                    UpdateState(actObj1.byteField[ACTION_STATE]);
    38d4:	80 91 e4 38 	lds	r24, 0x38E4	; 0x8038e4 <actObj1.3997+0xa>
    38d8:	0e 94 9d 0a 	call	0x153a	; 0x153a <UpdateState>
    38dc:	38 c0       	rjmp	.+112    	; 0x394e <ProcessInput+0xfd8>
                } else {
                    SetResponse(elements++, actObj1.addrStr[ACTION_ACL_MSG], actObj1.lenStr[ACTION_ACL_MSG], GAME);
    38de:	80 91 fe 38 	lds	r24, 0x38FE	; 0x8038fe <actObj1.3997+0x24>
    38e2:	90 91 ff 38 	lds	r25, 0x38FF	; 0x8038ff <actObj1.3997+0x25>
    return 0;
}

//
void SetResponse(uint8_t number, uint16_t address, uint16_t length, uint8_t type){
    reactStr[0][number]=address;
    38e6:	20 91 f0 38 	lds	r18, 0x38F0	; 0x8038f0 <actObj1.3997+0x16>
    38ea:	30 91 f1 38 	lds	r19, 0x38F1	; 0x8038f1 <actObj1.3997+0x17>
    38ee:	20 93 1d 39 	sts	0x391D, r18	; 0x80391d <reactStr+0x2>
    38f2:	30 93 1e 39 	sts	0x391E, r19	; 0x80391e <reactStr+0x3>
    reactStr[1][number]=length;
    38f6:	80 93 5d 39 	sts	0x395D, r24	; 0x80395d <reactStr+0x42>
    38fa:	90 93 5e 39 	sts	0x395E, r25	; 0x80395e <reactStr+0x43>
    reactStr[2][number]=type;
    38fe:	10 92 9d 39 	sts	0x399D, r1	; 0x80399d <reactStr+0x82>
    3902:	10 92 9e 39 	sts	0x399E, r1	; 0x80399e <reactStr+0x83>
                    SetResponse(elements++, actObj1.addrStr[ACTION_MSG], actObj1.lenStr[ACTION_MSG], GAME);
                    effect = actObj1.effect[2];
                    UpdateState(actObj1.byteField[ACTION_STATE]);
                } else {
                    SetResponse(elements++, actObj1.addrStr[ACTION_ACL_MSG], actObj1.lenStr[ACTION_ACL_MSG], GAME);
                    effect = actObj1.effect[1];
    3906:	80 91 03 39 	lds	r24, 0x3903	; 0x803903 <actObj1.3997+0x29>
    390a:	90 e0       	ldi	r25, 0x00	; 0
    390c:	80 93 3a 38 	sts	0x383A, r24	; 0x80383a <effect>
    3910:	90 93 3b 38 	sts	0x383B, r25	; 0x80383b <effect+0x1>
    3914:	1c c0       	rjmp	.+56     	; 0x394e <ProcessInput+0xfd8>
                }

            } else {
                PopulateObject(route[currDepth+1], &actObj1);
    3916:	80 81       	ld	r24, Z
    3918:	91 81       	ldd	r25, Z+1	; 0x01
    391a:	0e 94 0d 10 	call	0x201a	; 0x201a <PopulateObject>
    return 0;
}

//
void SetResponse(uint8_t number, uint16_t address, uint16_t length, uint8_t type){
    reactStr[0][number]=address;
    391e:	8d e9       	ldi	r24, 0x9D	; 157
    3920:	98 e7       	ldi	r25, 0x78	; 120
    3922:	80 93 1d 39 	sts	0x391D, r24	; 0x80391d <reactStr+0x2>
    3926:	90 93 1e 39 	sts	0x391E, r25	; 0x80391e <reactStr+0x3>
    reactStr[1][number]=length;
    392a:	82 e1       	ldi	r24, 0x12	; 18
    392c:	90 e0       	ldi	r25, 0x00	; 0
    392e:	80 93 5d 39 	sts	0x395D, r24	; 0x80395d <reactStr+0x42>
    3932:	90 93 5e 39 	sts	0x395E, r25	; 0x80395e <reactStr+0x43>
    reactStr[2][number]=type;
    3936:	81 e0       	ldi	r24, 0x01	; 1
    3938:	90 e0       	ldi	r25, 0x00	; 0
    393a:	80 93 9d 39 	sts	0x399D, r24	; 0x80399d <reactStr+0x82>
    393e:	90 93 9e 39 	sts	0x399E, r25	; 0x80399e <reactStr+0x83>
                }

            } else {
                PopulateObject(route[currDepth+1], &actObj1);
                SetResponse(elements++, A_INCORRECT, L_INCORRECT, TEASER);
                PunishmentTime = getClock();
    3942:	0e 94 56 0d 	call	0x1aac	; 0x1aac <getClock>
    3946:	80 93 07 39 	sts	0x3907, r24	; 0x803907 <PunishmentTime>
    394a:	90 93 08 39 	sts	0x3908, r25	; 0x803908 <PunishmentTime+0x1>
                    effect = actObj1.effect[1];
                }

            } else {
                PopulateObject(route[currDepth+1], &actObj1);
                SetResponse(elements++, A_INCORRECT, L_INCORRECT, TEASER);
    394e:	82 e0       	ldi	r24, 0x02	; 2
    3950:	78 2e       	mov	r7, r24
                PunishmentTime = getClock();
            }
            specialInput[0] = 0;
    3952:	10 92 0a 39 	sts	0x390A, r1	; 0x80390a <specialInput>
    return 0;
}

//
void SetResponse(uint8_t number, uint16_t address, uint16_t length, uint8_t type){
    reactStr[0][number]=address;
    3956:	8b e5       	ldi	r24, 0x5B	; 91
    3958:	9a e7       	ldi	r25, 0x7A	; 122
    395a:	80 93 1b 39 	sts	0x391B, r24	; 0x80391b <reactStr>
    395e:	90 93 1c 39 	sts	0x391C, r25	; 0x80391c <reactStr+0x1>
    reactStr[1][number]=length;
    3962:	82 e0       	ldi	r24, 0x02	; 2
    3964:	90 e0       	ldi	r25, 0x00	; 0
    3966:	80 93 5b 39 	sts	0x395B, r24	; 0x80395b <reactStr+0x40>
    396a:	90 93 5c 39 	sts	0x395C, r25	; 0x80395c <reactStr+0x41>
    reactStr[2][number]=type;
    396e:	81 e0       	ldi	r24, 0x01	; 1
    3970:	90 e0       	ldi	r25, 0x00	; 0
    3972:	80 93 9b 39 	sts	0x399B, r24	; 0x80399b <reactStr+0x80>
    3976:	90 93 9c 39 	sts	0x399C, r25	; 0x80399c <reactStr+0x81>
               
        }
            
        //Input handled
        SetResponse(0, A_LF, 2, TEASER);
        if (specialInput[0]) responseList = elements; else responseList = SetStandardResponse(elements);
    397a:	80 91 0a 39 	lds	r24, 0x390A	; 0x80390a <specialInput>
    397e:	88 23       	and	r24, r24
    3980:	19 f0       	breq	.+6      	; 0x3988 <ProcessInput+0x1012>
    3982:	70 92 1a 39 	sts	0x391A, r7	; 0x80391a <responseList>
    3986:	9a c0       	rjmp	.+308    	; 0x3abc <ProcessInput+0x1146>
    3988:	87 2d       	mov	r24, r7
    398a:	12 c0       	rjmp	.+36     	; 0x39b0 <ProcessInput+0x103a>
    return 0;
}

//
void SetResponse(uint8_t number, uint16_t address, uint16_t length, uint8_t type){
    reactStr[0][number]=address;
    398c:	8b e5       	ldi	r24, 0x5B	; 91
    398e:	9a e7       	ldi	r25, 0x7A	; 122
    3990:	80 93 1b 39 	sts	0x391B, r24	; 0x80391b <reactStr>
    3994:	90 93 1c 39 	sts	0x391C, r25	; 0x80391c <reactStr+0x1>
    reactStr[1][number]=length;
    3998:	82 e0       	ldi	r24, 0x02	; 2
    399a:	90 e0       	ldi	r25, 0x00	; 0
    399c:	80 93 5b 39 	sts	0x395B, r24	; 0x80395b <reactStr+0x40>
    39a0:	90 93 5c 39 	sts	0x395C, r25	; 0x80395c <reactStr+0x41>
    reactStr[2][number]=type;
    39a4:	81 e0       	ldi	r24, 0x01	; 1
    39a6:	90 e0       	ldi	r25, 0x00	; 0
    39a8:	80 93 9b 39 	sts	0x399B, r24	; 0x80399b <reactStr+0x80>
    39ac:	90 93 9c 39 	sts	0x399C, r25	; 0x80399c <reactStr+0x81>
        SetResponse(0, A_LF, 2, TEASER);
        if (specialInput[0]) responseList = elements; else responseList = SetStandardResponse(elements);

    } else {
        SetResponse(0, A_LF, 2, TEASER);
        responseList = SetStandardResponse(1);
    39b0:	0e 94 91 0f 	call	0x1f22	; 0x1f22 <SetStandardResponse>
    39b4:	80 93 1a 39 	sts	0x391A, r24	; 0x80391a <responseList>
    return 0;
}

//
void SetResponse(uint8_t number, uint16_t address, uint16_t length, uint8_t type){
    reactStr[0][number]=address;
    39b8:	81 c0       	rjmp	.+258    	; 0x3abc <ProcessInput+0x1146>
    39ba:	83 ed       	ldi	r24, 0xD3	; 211
    39bc:	99 e7       	ldi	r25, 0x79	; 121

        //Drop item if in inventory
        if (data[0] == 'd') {
            if ((inventory[0] == 0)&&(inventory[1] == 0)){
                SetResponse(elements++, A_EMPTYHANDS, L_EMPTYHANDS, TEASER);
            } else if (inputLen != 2) {
    39be:	a0 cd       	rjmp	.-1216   	; 0x3500 <ProcessInput+0xb8a>
    39c0:	b2 e0       	ldi	r27, 0x02	; 2
    39c2:	fb 12       	cpse	r15, r27
    39c4:	08 c8       	rjmp	.-4080   	; 0x29d6 <ProcessInput+0x60>
                SetResponse(elements++, A_NOTPOSSIBLE, L_NOTPOSSIBLE, TEASER);
            } else {
                for (uint8_t x=0; x<2; ++x) {
                    if (inventory[x]) {
                        if (CheckLetter(inventory[x], data[1])) {
    39c6:	d8 01       	movw	r26, r16
    39c8:	11 96       	adiw	r26, 0x01	; 1
    39ca:	6c 91       	ld	r22, X
    39cc:	0e 94 84 10 	call	0x2108	; 0x2108 <CheckLetter>
    39d0:	88 23       	and	r24, r24
    39d2:	09 f4       	brne	.+2      	; 0x39d6 <ProcessInput+0x1060>
    39d4:	5b c0       	rjmp	.+182    	; 0x3a8c <ProcessInput+0x1116>
                SetResponse(elements++, A_EMPTYHANDS, L_EMPTYHANDS, TEASER);
            } else if (inputLen != 2) {
                SetResponse(elements++, A_NOTPOSSIBLE, L_NOTPOSSIBLE, TEASER);
            } else {
                for (uint8_t x=0; x<2; ++x) {
                    if (inventory[x]) {
    39d6:	80 e0       	ldi	r24, 0x00	; 0
    39d8:	90 e0       	ldi	r25, 0x00	; 0
                        if (CheckLetter(inventory[x], data[1])) {
                            PopulateObject(inventory[x], &actObj1);
    39da:	88 0f       	add	r24, r24
    39dc:	99 1f       	adc	r25, r25
    39de:	9c 01       	movw	r18, r24
    39e0:	22 5c       	subi	r18, 0xC2	; 194
    39e2:	37 4c       	sbci	r19, 0xC7	; 199
    39e4:	79 01       	movw	r14, r18
    39e6:	6a ed       	ldi	r22, 0xDA	; 218
    39e8:	78 e3       	ldi	r23, 0x38	; 56
    39ea:	d9 01       	movw	r26, r18
    39ec:	8d 91       	ld	r24, X+
    39ee:	9c 91       	ld	r25, X
    39f0:	0e 94 0d 10 	call	0x201a	; 0x201a <PopulateObject>
    return 0;
}

//
void SetResponse(uint8_t number, uint16_t address, uint16_t length, uint8_t type){
    reactStr[0][number]=address;
    39f4:	83 ed       	ldi	r24, 0xD3	; 211
    39f6:	97 e7       	ldi	r25, 0x77	; 119
    39f8:	80 93 1d 39 	sts	0x391D, r24	; 0x80391d <reactStr+0x2>
    39fc:	90 93 1e 39 	sts	0x391E, r25	; 0x80391e <reactStr+0x3>
    reactStr[1][number]=length;
    3a00:	80 e1       	ldi	r24, 0x10	; 16
    3a02:	90 e0       	ldi	r25, 0x00	; 0
    3a04:	80 93 5d 39 	sts	0x395D, r24	; 0x80395d <reactStr+0x42>
    3a08:	90 93 5e 39 	sts	0x395E, r25	; 0x80395e <reactStr+0x43>
    reactStr[2][number]=type;
    3a0c:	81 e0       	ldi	r24, 0x01	; 1
    3a0e:	90 e0       	ldi	r25, 0x00	; 0
    3a10:	80 93 9d 39 	sts	0x399D, r24	; 0x80399d <reactStr+0x82>
    3a14:	90 93 9e 39 	sts	0x399E, r25	; 0x80399e <reactStr+0x83>
                for (uint8_t x=0; x<2; ++x) {
                    if (inventory[x]) {
                        if (CheckLetter(inventory[x], data[1])) {
                            PopulateObject(inventory[x], &actObj1);
                            SetResponse(elements++, A_DROPPING, L_DROPPING, TEASER);
                            SetResponse(elements++, actObj1.addrStr[NAME], actObj1.lenStr[NAME], GAME);
    3a18:	20 91 f4 38 	lds	r18, 0x38F4	; 0x8038f4 <actObj1.3997+0x1a>
    3a1c:	30 91 f5 38 	lds	r19, 0x38F5	; 0x8038f5 <actObj1.3997+0x1b>
    return 0;
}

//
void SetResponse(uint8_t number, uint16_t address, uint16_t length, uint8_t type){
    reactStr[0][number]=address;
    3a20:	40 91 e6 38 	lds	r20, 0x38E6	; 0x8038e6 <actObj1.3997+0xc>
    3a24:	50 91 e7 38 	lds	r21, 0x38E7	; 0x8038e7 <actObj1.3997+0xd>
    3a28:	40 93 1f 39 	sts	0x391F, r20	; 0x80391f <reactStr+0x4>
    3a2c:	50 93 20 39 	sts	0x3920, r21	; 0x803920 <reactStr+0x5>
    reactStr[1][number]=length;
    3a30:	20 93 5f 39 	sts	0x395F, r18	; 0x80395f <reactStr+0x44>
    3a34:	30 93 60 39 	sts	0x3960, r19	; 0x803960 <reactStr+0x45>
    reactStr[2][number]=type;
    3a38:	10 92 9f 39 	sts	0x399F, r1	; 0x80399f <reactStr+0x84>
    3a3c:	10 92 a0 39 	sts	0x39A0, r1	; 0x8039a0 <reactStr+0x85>
    return 0;
}

//
void SetResponse(uint8_t number, uint16_t address, uint16_t length, uint8_t type){
    reactStr[0][number]=address;
    3a40:	2b e5       	ldi	r18, 0x5B	; 91
    3a42:	3a e7       	ldi	r19, 0x7A	; 122
    3a44:	20 93 21 39 	sts	0x3921, r18	; 0x803921 <reactStr+0x6>
    3a48:	30 93 22 39 	sts	0x3922, r19	; 0x803922 <reactStr+0x7>
    reactStr[1][number]=length;
    3a4c:	22 e0       	ldi	r18, 0x02	; 2
    3a4e:	30 e0       	ldi	r19, 0x00	; 0
    3a50:	20 93 61 39 	sts	0x3961, r18	; 0x803961 <reactStr+0x46>
    3a54:	30 93 62 39 	sts	0x3962, r19	; 0x803962 <reactStr+0x47>
    reactStr[2][number]=type;
    3a58:	80 93 a1 39 	sts	0x39A1, r24	; 0x8039a1 <reactStr+0x86>
    3a5c:	90 93 a2 39 	sts	0x39A2, r25	; 0x8039a2 <reactStr+0x87>
    return 0;
}

//
void SetResponse(uint8_t number, uint16_t address, uint16_t length, uint8_t type){
    reactStr[0][number]=address;
    3a60:	26 e9       	ldi	r18, 0x96	; 150
    3a62:	37 e7       	ldi	r19, 0x77	; 119
    3a64:	20 93 23 39 	sts	0x3923, r18	; 0x803923 <reactStr+0x8>
    3a68:	30 93 24 39 	sts	0x3924, r19	; 0x803924 <reactStr+0x9>
    reactStr[1][number]=length;
    3a6c:	2d e3       	ldi	r18, 0x3D	; 61
    3a6e:	30 e0       	ldi	r19, 0x00	; 0
    3a70:	20 93 63 39 	sts	0x3963, r18	; 0x803963 <reactStr+0x48>
    3a74:	30 93 64 39 	sts	0x3964, r19	; 0x803964 <reactStr+0x49>
    reactStr[2][number]=type;
    3a78:	80 93 a3 39 	sts	0x39A3, r24	; 0x8039a3 <reactStr+0x88>
    3a7c:	90 93 a4 39 	sts	0x39A4, r25	; 0x8039a4 <reactStr+0x89>
                            PopulateObject(inventory[x], &actObj1);
                            SetResponse(elements++, A_DROPPING, L_DROPPING, TEASER);
                            SetResponse(elements++, actObj1.addrStr[NAME], actObj1.lenStr[NAME], GAME);
                            SetResponse(elements++, A_LF, 2, TEASER);
                            SetResponse(elements++, A_RETURNING, L_RETURNING, TEASER);
                            inventory[x] = 0;
    3a80:	f7 01       	movw	r30, r14
    3a82:	10 82       	st	Z, r1
    3a84:	11 82       	std	Z+1, r1	; 0x01
                        if (CheckLetter(inventory[x], data[1])) {
                            PopulateObject(inventory[x], &actObj1);
                            SetResponse(elements++, A_DROPPING, L_DROPPING, TEASER);
                            SetResponse(elements++, actObj1.addrStr[NAME], actObj1.lenStr[NAME], GAME);
                            SetResponse(elements++, A_LF, 2, TEASER);
                            SetResponse(elements++, A_RETURNING, L_RETURNING, TEASER);
    3a86:	f5 e0       	ldi	r31, 0x05	; 5
    3a88:	7f 2e       	mov	r7, r31
                            inventory[x] = 0;
                            break;
    3a8a:	65 cf       	rjmp	.-310    	; 0x3956 <ProcessInput+0xfe0>
                SetResponse(elements++, A_EMPTYHANDS, L_EMPTYHANDS, TEASER);
            } else if (inputLen != 2) {
                SetResponse(elements++, A_NOTPOSSIBLE, L_NOTPOSSIBLE, TEASER);
            } else {
                for (uint8_t x=0; x<2; ++x) {
                    if (inventory[x]) {
    3a8c:	80 91 40 38 	lds	r24, 0x3840	; 0x803840 <inventory+0x2>
    3a90:	90 91 41 38 	lds	r25, 0x3841	; 0x803841 <inventory+0x3>
    3a94:	00 97       	sbiw	r24, 0x00	; 0
    3a96:	49 f0       	breq	.+18     	; 0x3aaa <ProcessInput+0x1134>
                        if (CheckLetter(inventory[x], data[1])) {
    3a98:	f8 01       	movw	r30, r16
    3a9a:	61 81       	ldd	r22, Z+1	; 0x01
    3a9c:	0e 94 84 10 	call	0x2108	; 0x2108 <CheckLetter>
    3aa0:	88 23       	and	r24, r24
    3aa2:	19 f0       	breq	.+6      	; 0x3aaa <ProcessInput+0x1134>
                SetResponse(elements++, A_EMPTYHANDS, L_EMPTYHANDS, TEASER);
            } else if (inputLen != 2) {
                SetResponse(elements++, A_NOTPOSSIBLE, L_NOTPOSSIBLE, TEASER);
            } else {
                for (uint8_t x=0; x<2; ++x) {
                    if (inventory[x]) {
    3aa4:	81 e0       	ldi	r24, 0x01	; 1
    3aa6:	90 e0       	ldi	r25, 0x00	; 0
    3aa8:	98 cf       	rjmp	.-208    	; 0x39da <ProcessInput+0x1064>
    return 0;
}

//
void SetResponse(uint8_t number, uint16_t address, uint16_t length, uint8_t type){
    reactStr[0][number]=address;
    3aaa:	83 e6       	ldi	r24, 0x63	; 99
    3aac:	99 e7       	ldi	r25, 0x79	; 121
    3aae:	80 93 1d 39 	sts	0x391D, r24	; 0x80391d <reactStr+0x2>
    3ab2:	90 93 1e 39 	sts	0x391E, r25	; 0x80391e <reactStr+0x3>
    reactStr[1][number]=length;
    3ab6:	81 e2       	ldi	r24, 0x21	; 33
    3ab8:	90 e0       	ldi	r25, 0x00	; 0
    3aba:	22 c8       	rjmp	.-4028   	; 0x2b00 <ProcessInput+0x18a>
    } else {
        SetResponse(0, A_LF, 2, TEASER);
        responseList = SetStandardResponse(1);
    }

    data[0] = 0;
    3abc:	d8 01       	movw	r26, r16
    3abe:	1c 92       	st	X, r1
    serRxDone = 0;
    3ac0:	10 92 44 38 	sts	0x3844, r1	; 0x803844 <serRxDone>
    RXCNT = 0;    
    3ac4:	1d ba       	out	0x1d, r1	; 29
    return 0;
}
    3ac6:	80 e0       	ldi	r24, 0x00	; 0
    3ac8:	2a 96       	adiw	r28, 0x0a	; 10
    3aca:	cd bf       	out	0x3d, r28	; 61
    3acc:	de bf       	out	0x3e, r29	; 62
    3ace:	df 91       	pop	r29
    3ad0:	cf 91       	pop	r28
    3ad2:	1f 91       	pop	r17
    3ad4:	0f 91       	pop	r16
    3ad6:	ff 90       	pop	r15
    3ad8:	ef 90       	pop	r14
    3ada:	df 90       	pop	r13
    3adc:	cf 90       	pop	r12
    3ade:	bf 90       	pop	r11
    3ae0:	af 90       	pop	r10
    3ae2:	9f 90       	pop	r9
    3ae4:	8f 90       	pop	r8
    3ae6:	7f 90       	pop	r7
    3ae8:	6f 90       	pop	r6
    3aea:	5f 90       	pop	r5
    3aec:	4f 90       	pop	r4
    3aee:	08 95       	ret

00003af0 <TextAdventure>:


//MAIN GAME STRUCTURE
uint8_t TextAdventure(){
    3af0:	cf 93       	push	r28
    static uint8_t serInput[RXLEN];
    uint16_t PunishmentCount;
    
    /* Count down PunishmentTime on WING LEDs */
    if (PunishmentTime != 0) {
    3af2:	80 91 07 39 	lds	r24, 0x3907	; 0x803907 <PunishmentTime>
    3af6:	90 91 08 39 	lds	r25, 0x3908	; 0x803908 <PunishmentTime+0x1>
    3afa:	89 2b       	or	r24, r25
    3afc:	09 f1       	breq	.+66     	; 0x3b40 <TextAdventure+0x50>
        PunishmentCount = getClock();
    3afe:	0e 94 56 0d 	call	0x1aac	; 0x1aac <getClock>
        if (PunishmentCount < PunishmentTime)
    3b02:	20 91 07 39 	lds	r18, 0x3907	; 0x803907 <PunishmentTime>
    3b06:	30 91 08 39 	lds	r19, 0x3908	; 0x803908 <PunishmentTime+0x1>
    3b0a:	82 17       	cp	r24, r18
    3b0c:	93 07       	cpc	r25, r19
    3b0e:	08 f4       	brcc	.+2      	; 0x3b12 <TextAdventure+0x22>
            PunishmentCount += 256 * 60;
    3b10:	94 5c       	subi	r25, 0xC4	; 196
        PunishmentCount -= PunishmentTime;
    3b12:	ac 01       	movw	r20, r24
    3b14:	42 1b       	sub	r20, r18
    3b16:	53 0b       	sbc	r21, r19
    3b18:	9a 01       	movw	r18, r20
        if (PunishmentCount > 10) {
    3b1a:	4b 30       	cpi	r20, 0x0B	; 11
    3b1c:	51 05       	cpc	r21, r1
    3b1e:	30 f0       	brcs	.+12     	; 0x3b2c <TextAdventure+0x3c>
            PunishmentTime = 0;
    3b20:	10 92 07 39 	sts	0x3907, r1	; 0x803907 <PunishmentTime>
    3b24:	10 92 08 39 	sts	0x3908, r1	; 0x803908 <PunishmentTime+0x1>
            PunishmentCount = 10;
    3b28:	2a e0       	ldi	r18, 0x0A	; 10
    3b2a:	30 e0       	ldi	r19, 0x00	; 0
        }
        if (gameNow == TEXT ) {
    3b2c:	80 91 3c 38 	lds	r24, 0x383C	; 0x80383c <gameNow>
    3b30:	81 11       	cpse	r24, r1
    3b32:	06 c0       	rjmp	.+12     	; 0x3b40 <TextAdventure+0x50>
            WingBar(10-PunishmentCount,5-PunishmentCount);
    3b34:	65 e0       	ldi	r22, 0x05	; 5
    3b36:	62 1b       	sub	r22, r18
    3b38:	8a e0       	ldi	r24, 0x0A	; 10
    3b3a:	82 1b       	sub	r24, r18
    3b3c:	0e 94 80 0b 	call	0x1700	; 0x1700 <WingBar>
        }
    }

    //Still sending data to serial?
    if (CheckSend()) return 1;
    3b40:	0e 94 63 11 	call	0x22c6	; 0x22c6 <CheckSend>
    3b44:	88 23       	and	r24, r24
    3b46:	11 f0       	breq	.+4      	; 0x3b4c <TextAdventure+0x5c>
    3b48:	c1 e0       	ldi	r28, 0x01	; 1
    3b4a:	18 c0       	rjmp	.+48     	; 0x3b7c <TextAdventure+0x8c>

    //Not sending? Process next response part to send, if any.
    if (CheckResponse()) return 1;        
    3b4c:	0e 94 d1 11 	call	0x23a2	; 0x23a2 <CheckResponse>
    3b50:	c8 2f       	mov	r28, r24
    3b52:	81 11       	cpse	r24, r1
    3b54:	f9 cf       	rjmp	.-14     	; 0x3b48 <TextAdventure+0x58>

    if (PunishmentTime == 0) {
    3b56:	80 91 07 39 	lds	r24, 0x3907	; 0x803907 <PunishmentTime>
    3b5a:	90 91 08 39 	lds	r25, 0x3908	; 0x803908 <PunishmentTime+0x1>
    3b5e:	89 2b       	or	r24, r25
    3b60:	69 f4       	brne	.+26     	; 0x3b7c <TextAdventure+0x8c>
        //No responses to send, check if there is user input.
        if (CheckInput(&serInput[0])) return 2; 
    3b62:	8e e6       	ldi	r24, 0x6E	; 110
    3b64:	98 e3       	ldi	r25, 0x38	; 56
    3b66:	0e 94 18 12 	call	0x2430	; 0x2430 <CheckInput>
    3b6a:	c8 2f       	mov	r28, r24
    3b6c:	81 11       	cpse	r24, r1
    3b6e:	05 c0       	rjmp	.+10     	; 0x3b7a <TextAdventure+0x8a>

        //Input found, process and save (changes only)
        ProcessInput(&serInput[0]);
    3b70:	8e e6       	ldi	r24, 0x6E	; 110
    3b72:	98 e3       	ldi	r25, 0x38	; 56
    3b74:	0e 94 bb 14 	call	0x2976	; 0x2976 <ProcessInput>
    3b78:	01 c0       	rjmp	.+2      	; 0x3b7c <TextAdventure+0x8c>
    //Not sending? Process next response part to send, if any.
    if (CheckResponse()) return 1;        

    if (PunishmentTime == 0) {
        //No responses to send, check if there is user input.
        if (CheckInput(&serInput[0])) return 2; 
    3b7a:	c2 e0       	ldi	r28, 0x02	; 2
        //Input found, process and save (changes only)
        ProcessInput(&serInput[0]);
    }

    return 0;
}
    3b7c:	8c 2f       	mov	r24, r28
    3b7e:	cf 91       	pop	r28
    3b80:	08 95       	ret

00003b82 <main>:


//This is where it begins, inits first and main program in while(1) loop.
int main(void)
{
    Setup();
    3b82:	0e 94 7e 05 	call	0xafc	; 0xafc <Setup>

    SerSpeed(0xff);
    3b86:	8f ef       	ldi	r24, 0xFF	; 255
    3b88:	0e 94 ee 08 	call	0x11dc	; 0x11dc <SerSpeed>
    3b8c:	ae ec       	ldi	r26, 0xCE	; 206
    3b8e:	bd eb       	ldi	r27, 0xBD	; 189
    ////Turn on LEDs on low setting to check for interrupt glitches

    //"Hacker"
    for (uint8_t n=0; n<6; n++){
        iLED[HCKR[R][n]] = 1;
    3b90:	81 e0       	ldi	r24, 0x01	; 1
    3b92:	ed 91       	ld	r30, X+
    3b94:	f0 e0       	ldi	r31, 0x00	; 0
    3b96:	e6 53       	subi	r30, 0x36	; 54
    3b98:	f5 4c       	sbci	r31, 0xC5	; 197
    3b9a:	80 83       	st	Z, r24
        iLED[HCKR[G][n]] = 1;
    3b9c:	15 96       	adiw	r26, 0x05	; 5
    3b9e:	ec 91       	ld	r30, X
    3ba0:	15 97       	sbiw	r26, 0x05	; 5
    3ba2:	f0 e0       	ldi	r31, 0x00	; 0
    3ba4:	e6 53       	subi	r30, 0x36	; 54
    3ba6:	f5 4c       	sbci	r31, 0xC5	; 197
    3ba8:	80 83       	st	Z, r24

    SerSpeed(0xff);
    ////Turn on LEDs on low setting to check for interrupt glitches

    //"Hacker"
    for (uint8_t n=0; n<6; n++){
    3baa:	2d eb       	ldi	r18, 0xBD	; 189
    3bac:	a4 3d       	cpi	r26, 0xD4	; 212
    3bae:	b2 07       	cpc	r27, r18
    3bb0:	81 f7       	brne	.-32     	; 0x3b92 <main+0x10>
    3bb2:	e0 ec       	ldi	r30, 0xC0	; 192
    3bb4:	fd eb       	ldi	r31, 0xBD	; 189
        iLED[HCKR[G][n]] = 1;
    }

    //"Wings"
    for (uint8_t n=0; n<5; n++){
        iLED[WING[L][n]] = 1;
    3bb6:	91 e0       	ldi	r25, 0x01	; 1
    3bb8:	ef 01       	movw	r28, r30
    3bba:	a5 81       	ldd	r26, Z+5	; 0x05
    3bbc:	b0 e0       	ldi	r27, 0x00	; 0
    3bbe:	a6 53       	subi	r26, 0x36	; 54
    3bc0:	b5 4c       	sbci	r27, 0xC5	; 197
    3bc2:	81 e0       	ldi	r24, 0x01	; 1
    3bc4:	9c 93       	st	X, r25
    3bc6:	31 96       	adiw	r30, 0x01	; 1
        iLED[WING[R][n]] = 1;
    3bc8:	a8 81       	ld	r26, Y
    3bca:	b0 e0       	ldi	r27, 0x00	; 0
    3bcc:	a6 53       	subi	r26, 0x36	; 54
    3bce:	b5 4c       	sbci	r27, 0xC5	; 197
    3bd0:	9c 93       	st	X, r25
        iLED[HCKR[R][n]] = 1;
        iLED[HCKR[G][n]] = 1;
    }

    //"Wings"
    for (uint8_t n=0; n<5; n++){
    3bd2:	2d eb       	ldi	r18, 0xBD	; 189
    3bd4:	e5 3c       	cpi	r30, 0xC5	; 197
    3bd6:	f2 07       	cpc	r31, r18
    3bd8:	79 f7       	brne	.-34     	; 0x3bb8 <main+0x36>
        iLED[WING[L][n]] = 1;
        iLED[WING[R][n]] = 1;
    }

    //"Others"
    iLED[EYE[G][R]] = 1;
    3bda:	e0 91 cc bd 	lds	r30, 0xBDCC	; 0x80bdcc <__bss_end+0x82b2>
    3bde:	f0 e0       	ldi	r31, 0x00	; 0
    3be0:	e6 53       	subi	r30, 0x36	; 54
    3be2:	f5 4c       	sbci	r31, 0xC5	; 197
    3be4:	80 83       	st	Z, r24
    iLED[EYE[G][L]] = 1;
    3be6:	e0 91 cd bd 	lds	r30, 0xBDCD	; 0x80bdcd <__bss_end+0x82b3>
    3bea:	f0 e0       	ldi	r31, 0x00	; 0
    3bec:	e6 53       	subi	r30, 0x36	; 54
    3bee:	f5 4c       	sbci	r31, 0xC5	; 197
    3bf0:	80 83       	st	Z, r24
    iLED[EYE[R][R]] = 1;
    3bf2:	e0 91 ca bd 	lds	r30, 0xBDCA	; 0x80bdca <__bss_end+0x82b0>
    3bf6:	f0 e0       	ldi	r31, 0x00	; 0
    3bf8:	e6 53       	subi	r30, 0x36	; 54
    3bfa:	f5 4c       	sbci	r31, 0xC5	; 197
    3bfc:	80 83       	st	Z, r24
    iLED[EYE[R][L]] = 1;
    3bfe:	e0 91 cb bd 	lds	r30, 0xBDCB	; 0x80bdcb <__bss_end+0x82b1>
    3c02:	f0 e0       	ldi	r31, 0x00	; 0
    3c04:	e6 53       	subi	r30, 0x36	; 54
    3c06:	f5 4c       	sbci	r31, 0xC5	; 197
    3c08:	80 83       	st	Z, r24
    iLED[SCARAB[R]] = 1;
    3c0a:	e0 91 be bd 	lds	r30, 0xBDBE	; 0x80bdbe <__bss_end+0x82a4>
    3c0e:	f0 e0       	ldi	r31, 0x00	; 0
    3c10:	e6 53       	subi	r30, 0x36	; 54
    3c12:	f5 4c       	sbci	r31, 0xC5	; 197
    3c14:	80 83       	st	Z, r24
    iLED[SCARAB[G]] = 1;
    3c16:	e0 91 bf bd 	lds	r30, 0xBDBF	; 0x80bdbf <__bss_end+0x82a5>
    3c1a:	f0 e0       	ldi	r31, 0x00	; 0
    3c1c:	e6 53       	subi	r30, 0x36	; 54
    3c1e:	f5 4c       	sbci	r31, 0xC5	; 197
    3c20:	80 83       	st	Z, r24
    iLED[BADGER] = 1;
    3c22:	e0 91 bd bd 	lds	r30, 0xBDBD	; 0x80bdbd <__bss_end+0x82a3>
    3c26:	f0 e0       	ldi	r31, 0x00	; 0
    3c28:	e6 53       	subi	r30, 0x36	; 54
    3c2a:	f5 4c       	sbci	r31, 0xC5	; 197
    3c2c:	80 83       	st	Z, r24
    iLED[CAT] = 1;
    3c2e:	e0 91 bc bd 	lds	r30, 0xBDBC	; 0x80bdbc <__bss_end+0x82a2>
    3c32:	f0 e0       	ldi	r31, 0x00	; 0
    3c34:	e6 53       	subi	r30, 0x36	; 54
    3c36:	f5 4c       	sbci	r31, 0xC5	; 197
    3c38:	80 83       	st	Z, r24

    LoadGameState();
    3c3a:	0e 94 ee 0a 	call	0x15dc	; 0x15dc <LoadGameState>
    effect = 0x013f;
    3c3e:	8f e3       	ldi	r24, 0x3F	; 63
    3c40:	91 e0       	ldi	r25, 0x01	; 1
    3c42:	80 93 3a 38 	sts	0x383A, r24	; 0x80383a <effect>
    3c46:	90 93 3b 38 	sts	0x383B, r25	; 0x80383b <effect+0x1>
            SaveGameState();

            //Check light sensor status (added hysteresis to preserve writing cycles to internal EEPROM)
            if (adcPhot < 10) WriteStatusBit(116, 1);
            if (adcPhot > 100) WriteStatusBit(116, 0);
            dimValue = 0 - QSINE[31-(adcPhot>>7)];
    3c4a:	cf e1       	ldi	r28, 0x1F	; 31
    3c4c:	d0 e0       	ldi	r29, 0x00	; 0

    LoadGameState();
    effect = 0x013f;

    while (TRUE) {
        if (GenerateAudio()) {
    3c4e:	0e 94 11 0c 	call	0x1822	; 0x1822 <GenerateAudio>
    3c52:	88 23       	and	r24, r24
    3c54:	e1 f3       	breq	.-8      	; 0x3c4e <main+0xcc>
            buttonState = CheckButtons(buttonState);
    3c56:	80 91 09 38 	lds	r24, 0x3809	; 0x803809 <buttonState>
    3c5a:	0e 94 1d 09 	call	0x123a	; 0x123a <CheckButtons>
    3c5e:	80 93 09 38 	sts	0x3809, r24	; 0x803809 <buttonState>
            buttonMark = 0;
    3c62:	10 92 42 38 	sts	0x3842, r1	; 0x803842 <buttonMark>

            if (VREF_CTRLA == 0x12) SelectAuIn(); else SelectTSens();
    3c66:	80 91 a0 00 	lds	r24, 0x00A0	; 0x8000a0 <__TEXT_REGION_LENGTH__+0x7000a0>
    3c6a:	82 31       	cpi	r24, 0x12	; 18
    3c6c:	19 f4       	brne	.+6      	; 0x3c74 <main+0xf2>
    3c6e:	0e 94 0e 09 	call	0x121c	; 0x121c <SelectAuIn>
    3c72:	02 c0       	rjmp	.+4      	; 0x3c78 <main+0xf6>
    3c74:	0e 94 ff 08 	call	0x11fe	; 0x11fe <SelectTSens>

            GenerateBlinks();
    3c78:	0e 94 a2 0b 	call	0x1744	; 0x1744 <GenerateBlinks>

            //Main game, to complete: Finish sub-game MagnetMaze and MakeFriends too.
            TextAdventure();
    3c7c:	39 df       	rcall	.-398    	; 0x3af0 <TextAdventure>

            //Other games & user interaction checks
            MagnetMaze();
    3c7e:	0e 94 72 04 	call	0x8e4	; 0x8e4 <MagnetMaze>
            LanyardCode();
    3c82:	0e 94 33 03 	call	0x666	; 0x666 <LanyardCode>
            BastetDictates();
    3c86:	0e 94 dd 0d 	call	0x1bba	; 0x1bba <BastetDictates>
            MakeFriends();
    3c8a:	0e 94 7c 00 	call	0xf8	; 0xf8 <MakeFriends>

            //Save progress
            SaveGameState();
    3c8e:	0e 94 fc 09 	call	0x13f8	; 0x13f8 <SaveGameState>

            //Check light sensor status (added hysteresis to preserve writing cycles to internal EEPROM)
            if (adcPhot < 10) WriteStatusBit(116, 1);
    3c92:	80 91 bd 3a 	lds	r24, 0x3ABD	; 0x803abd <adcPhot>
    3c96:	90 91 be 3a 	lds	r25, 0x3ABE	; 0x803abe <adcPhot+0x1>
    3c9a:	0a 97       	sbiw	r24, 0x0a	; 10
    3c9c:	20 f4       	brcc	.+8      	; 0x3ca6 <main+0x124>
    3c9e:	61 e0       	ldi	r22, 0x01	; 1
    3ca0:	84 e7       	ldi	r24, 0x74	; 116
    3ca2:	0e 94 83 0a 	call	0x1506	; 0x1506 <WriteStatusBit>
            if (adcPhot > 100) WriteStatusBit(116, 0);
    3ca6:	80 91 bd 3a 	lds	r24, 0x3ABD	; 0x803abd <adcPhot>
    3caa:	90 91 be 3a 	lds	r25, 0x3ABE	; 0x803abe <adcPhot+0x1>
    3cae:	85 36       	cpi	r24, 0x65	; 101
    3cb0:	91 05       	cpc	r25, r1
    3cb2:	20 f0       	brcs	.+8      	; 0x3cbc <main+0x13a>
    3cb4:	60 e0       	ldi	r22, 0x00	; 0
    3cb6:	84 e7       	ldi	r24, 0x74	; 116
    3cb8:	0e 94 83 0a 	call	0x1506	; 0x1506 <WriteStatusBit>
            dimValue = 0 - QSINE[31-(adcPhot>>7)];
    3cbc:	80 91 bd 3a 	lds	r24, 0x3ABD	; 0x803abd <adcPhot>
    3cc0:	90 91 be 3a 	lds	r25, 0x3ABE	; 0x803abe <adcPhot+0x1>
    3cc4:	88 0f       	add	r24, r24
    3cc6:	89 2f       	mov	r24, r25
    3cc8:	88 1f       	adc	r24, r24
    3cca:	99 0b       	sbc	r25, r25
    3ccc:	91 95       	neg	r25
    3cce:	fe 01       	movw	r30, r28
    3cd0:	e8 1b       	sub	r30, r24
    3cd2:	f9 0b       	sbc	r31, r25
    3cd4:	e6 52       	subi	r30, 0x26	; 38
    3cd6:	f2 44       	sbci	r31, 0x42	; 66
    3cd8:	80 81       	ld	r24, Z
    3cda:	81 95       	neg	r24
    3cdc:	80 93 0b 38 	sts	0x380B, r24	; 0x80380b <dimValue>

            //Check temperature
            HotSummer();
    3ce0:	0e 94 1b 0b 	call	0x1636	; 0x1636 <HotSummer>
    3ce4:	b4 cf       	rjmp	.-152    	; 0x3c4e <main+0xcc>

00003ce6 <__udivmodqi4>:
    3ce6:	99 1b       	sub	r25, r25
    3ce8:	79 e0       	ldi	r23, 0x09	; 9
    3cea:	04 c0       	rjmp	.+8      	; 0x3cf4 <__udivmodqi4_ep>

00003cec <__udivmodqi4_loop>:
    3cec:	99 1f       	adc	r25, r25
    3cee:	96 17       	cp	r25, r22
    3cf0:	08 f0       	brcs	.+2      	; 0x3cf4 <__udivmodqi4_ep>
    3cf2:	96 1b       	sub	r25, r22

00003cf4 <__udivmodqi4_ep>:
    3cf4:	88 1f       	adc	r24, r24
    3cf6:	7a 95       	dec	r23
    3cf8:	c9 f7       	brne	.-14     	; 0x3cec <__udivmodqi4_loop>
    3cfa:	80 95       	com	r24
    3cfc:	08 95       	ret

00003cfe <__udivmodhi4>:
    3cfe:	aa 1b       	sub	r26, r26
    3d00:	bb 1b       	sub	r27, r27
    3d02:	51 e1       	ldi	r21, 0x11	; 17
    3d04:	07 c0       	rjmp	.+14     	; 0x3d14 <__udivmodhi4_ep>

00003d06 <__udivmodhi4_loop>:
    3d06:	aa 1f       	adc	r26, r26
    3d08:	bb 1f       	adc	r27, r27
    3d0a:	a6 17       	cp	r26, r22
    3d0c:	b7 07       	cpc	r27, r23
    3d0e:	10 f0       	brcs	.+4      	; 0x3d14 <__udivmodhi4_ep>
    3d10:	a6 1b       	sub	r26, r22
    3d12:	b7 0b       	sbc	r27, r23

00003d14 <__udivmodhi4_ep>:
    3d14:	88 1f       	adc	r24, r24
    3d16:	99 1f       	adc	r25, r25
    3d18:	5a 95       	dec	r21
    3d1a:	a9 f7       	brne	.-22     	; 0x3d06 <__udivmodhi4_loop>
    3d1c:	80 95       	com	r24
    3d1e:	90 95       	com	r25
    3d20:	bc 01       	movw	r22, r24
    3d22:	cd 01       	movw	r24, r26
    3d24:	08 95       	ret

00003d26 <__divmodhi4>:
    3d26:	97 fb       	bst	r25, 7
    3d28:	07 2e       	mov	r0, r23
    3d2a:	16 f4       	brtc	.+4      	; 0x3d30 <__divmodhi4+0xa>
    3d2c:	00 94       	com	r0
    3d2e:	06 d0       	rcall	.+12     	; 0x3d3c <__divmodhi4_neg1>
    3d30:	77 fd       	sbrc	r23, 7
    3d32:	08 d0       	rcall	.+16     	; 0x3d44 <__divmodhi4_neg2>
    3d34:	e4 df       	rcall	.-56     	; 0x3cfe <__udivmodhi4>
    3d36:	07 fc       	sbrc	r0, 7
    3d38:	05 d0       	rcall	.+10     	; 0x3d44 <__divmodhi4_neg2>
    3d3a:	3e f4       	brtc	.+14     	; 0x3d4a <__divmodhi4_exit>

00003d3c <__divmodhi4_neg1>:
    3d3c:	90 95       	com	r25
    3d3e:	81 95       	neg	r24
    3d40:	9f 4f       	sbci	r25, 0xFF	; 255
    3d42:	08 95       	ret

00003d44 <__divmodhi4_neg2>:
    3d44:	70 95       	com	r23
    3d46:	61 95       	neg	r22
    3d48:	7f 4f       	sbci	r23, 0xFF	; 255

00003d4a <__divmodhi4_exit>:
    3d4a:	08 95       	ret

00003d4c <__udivmodsi4>:
    3d4c:	a1 e2       	ldi	r26, 0x21	; 33
    3d4e:	1a 2e       	mov	r1, r26
    3d50:	aa 1b       	sub	r26, r26
    3d52:	bb 1b       	sub	r27, r27
    3d54:	fd 01       	movw	r30, r26
    3d56:	0d c0       	rjmp	.+26     	; 0x3d72 <__udivmodsi4_ep>

00003d58 <__udivmodsi4_loop>:
    3d58:	aa 1f       	adc	r26, r26
    3d5a:	bb 1f       	adc	r27, r27
    3d5c:	ee 1f       	adc	r30, r30
    3d5e:	ff 1f       	adc	r31, r31
    3d60:	a2 17       	cp	r26, r18
    3d62:	b3 07       	cpc	r27, r19
    3d64:	e4 07       	cpc	r30, r20
    3d66:	f5 07       	cpc	r31, r21
    3d68:	20 f0       	brcs	.+8      	; 0x3d72 <__udivmodsi4_ep>
    3d6a:	a2 1b       	sub	r26, r18
    3d6c:	b3 0b       	sbc	r27, r19
    3d6e:	e4 0b       	sbc	r30, r20
    3d70:	f5 0b       	sbc	r31, r21

00003d72 <__udivmodsi4_ep>:
    3d72:	66 1f       	adc	r22, r22
    3d74:	77 1f       	adc	r23, r23
    3d76:	88 1f       	adc	r24, r24
    3d78:	99 1f       	adc	r25, r25
    3d7a:	1a 94       	dec	r1
    3d7c:	69 f7       	brne	.-38     	; 0x3d58 <__udivmodsi4_loop>
    3d7e:	60 95       	com	r22
    3d80:	70 95       	com	r23
    3d82:	80 95       	com	r24
    3d84:	90 95       	com	r25
    3d86:	9b 01       	movw	r18, r22
    3d88:	ac 01       	movw	r20, r24
    3d8a:	bd 01       	movw	r22, r26
    3d8c:	cf 01       	movw	r24, r30
    3d8e:	08 95       	ret

00003d90 <_exit>:
    3d90:	f8 94       	cli

00003d92 <__stop_program>:
    3d92:	ff cf       	rjmp	.-2      	; 0x3d92 <__stop_program>
