
ISR_IO.elf:     file format elf32-avr

Sections:
Idx Name          Size      VMA       LMA       File off  Algn
  0 .data         00000030  00803800  00003ef8  00003fac  2**0
                  CONTENTS, ALLOC, LOAD, DATA
  1 .text         00003dfe  00000000  00000000  000000b4  2**1
                  CONTENTS, ALLOC, LOAD, READONLY, CODE
  2 .rodata       000000fa  0000bdfe  00003dfe  00003eb2  2**0
                  CONTENTS, ALLOC, LOAD, READONLY, DATA
  3 .bss          000002ec  00803830  00803830  00003fdc  2**0
                  ALLOC
  4 .comment      00000030  00000000  00000000  00003fdc  2**0
                  CONTENTS, READONLY
  5 .note.gnu.avr.deviceinfo 00000040  00000000  00000000  0000400c  2**2
                  CONTENTS, READONLY
  6 .debug_aranges 00000328  00000000  00000000  0000404c  2**0
                  CONTENTS, READONLY, DEBUGGING
  7 .debug_info   00006e1f  00000000  00000000  00004374  2**0
                  CONTENTS, READONLY, DEBUGGING
  8 .debug_abbrev 000028a3  00000000  00000000  0000b193  2**0
                  CONTENTS, READONLY, DEBUGGING
  9 .debug_line   00003c9a  00000000  00000000  0000da36  2**0
                  CONTENTS, READONLY, DEBUGGING
 10 .debug_frame  00000984  00000000  00000000  000116d0  2**2
                  CONTENTS, READONLY, DEBUGGING
 11 .debug_str    00001a77  00000000  00000000  00012054  2**0
                  CONTENTS, READONLY, DEBUGGING
 12 .debug_loc    000044bb  00000000  00000000  00013acb  2**0
                  CONTENTS, READONLY, DEBUGGING
 13 .debug_ranges 000003b0  00000000  00000000  00017f86  2**0
                  CONTENTS, READONLY, DEBUGGING

Disassembly of section .text:

00000000 <__vectors>:
       0:	3d c0       	rjmp	.+122    	; 0x7c <__ctors_end>
       2:	00 00       	nop
       4:	58 c0       	rjmp	.+176    	; 0xb6 <__bad_interrupt>
       6:	00 00       	nop
       8:	56 c0       	rjmp	.+172    	; 0xb6 <__bad_interrupt>
       a:	00 00       	nop
       c:	54 c0       	rjmp	.+168    	; 0xb6 <__bad_interrupt>
       e:	00 00       	nop
      10:	52 c0       	rjmp	.+164    	; 0xb6 <__bad_interrupt>
      12:	00 00       	nop
      14:	50 c0       	rjmp	.+160    	; 0xb6 <__bad_interrupt>
      16:	00 00       	nop
      18:	ce c7       	rjmp	.+3996   	; 0xfb6 <__vector_6>
      1a:	00 00       	nop
      1c:	0c 94 32 08 	jmp	0x1064	; 0x1064 <__vector_7>
      20:	fd c5       	rjmp	.+3066   	; 0xc1c <__vector_8>
      22:	00 00       	nop
      24:	48 c0       	rjmp	.+144    	; 0xb6 <__bad_interrupt>
      26:	00 00       	nop
      28:	46 c0       	rjmp	.+140    	; 0xb6 <__bad_interrupt>
      2a:	00 00       	nop
      2c:	44 c0       	rjmp	.+136    	; 0xb6 <__bad_interrupt>
      2e:	00 00       	nop
      30:	42 c0       	rjmp	.+132    	; 0xb6 <__bad_interrupt>
      32:	00 00       	nop
      34:	44 c6       	rjmp	.+3208   	; 0xcbe <__vector_13>
      36:	00 00       	nop
      38:	75 c6       	rjmp	.+3306   	; 0xd24 <__vector_14>
      3a:	00 00       	nop
      3c:	3c c0       	rjmp	.+120    	; 0xb6 <__bad_interrupt>
      3e:	00 00       	nop
      40:	3a c0       	rjmp	.+116    	; 0xb6 <__bad_interrupt>
      42:	00 00       	nop
      44:	38 c0       	rjmp	.+112    	; 0xb6 <__bad_interrupt>
      46:	00 00       	nop
      48:	36 c0       	rjmp	.+108    	; 0xb6 <__bad_interrupt>
      4a:	00 00       	nop
      4c:	34 c0       	rjmp	.+104    	; 0xb6 <__bad_interrupt>
      4e:	00 00       	nop
      50:	33 c7       	rjmp	.+3686   	; 0xeb8 <__vector_20>
      52:	00 00       	nop
      54:	30 c0       	rjmp	.+96     	; 0xb6 <__bad_interrupt>
      56:	00 00       	nop
      58:	66 c7       	rjmp	.+3788   	; 0xf26 <__vector_22>
      5a:	00 00       	nop
      5c:	2c c0       	rjmp	.+88     	; 0xb6 <__bad_interrupt>
      5e:	00 00       	nop
      60:	2a c0       	rjmp	.+84     	; 0xb6 <__bad_interrupt>
      62:	00 00       	nop
      64:	28 c0       	rjmp	.+80     	; 0xb6 <__bad_interrupt>
      66:	00 00       	nop
      68:	26 c0       	rjmp	.+76     	; 0xb6 <__bad_interrupt>
      6a:	00 00       	nop
      6c:	ae c6       	rjmp	.+3420   	; 0xdca <__vector_27>
      6e:	00 00       	nop
      70:	07 c7       	rjmp	.+3598   	; 0xe80 <__vector_28>
      72:	00 00       	nop
      74:	20 c0       	rjmp	.+64     	; 0xb6 <__bad_interrupt>
      76:	00 00       	nop
      78:	1e c0       	rjmp	.+60     	; 0xb6 <__bad_interrupt>
	...

0000007c <__ctors_end>:
      7c:	11 24       	eor	r1, r1
      7e:	1f be       	out	0x3f, r1	; 63
      80:	cf ef       	ldi	r28, 0xFF	; 255
      82:	cd bf       	out	0x3d, r28	; 61
      84:	df e3       	ldi	r29, 0x3F	; 63
      86:	de bf       	out	0x3e, r29	; 62

00000088 <__do_copy_data>:
      88:	18 e3       	ldi	r17, 0x38	; 56
      8a:	a0 e0       	ldi	r26, 0x00	; 0
      8c:	b8 e3       	ldi	r27, 0x38	; 56
      8e:	e8 ef       	ldi	r30, 0xF8	; 248
      90:	fe e3       	ldi	r31, 0x3E	; 62
      92:	02 c0       	rjmp	.+4      	; 0x98 <__do_copy_data+0x10>
      94:	05 90       	lpm	r0, Z+
      96:	0d 92       	st	X+, r0
      98:	a0 33       	cpi	r26, 0x30	; 48
      9a:	b1 07       	cpc	r27, r17
      9c:	d9 f7       	brne	.-10     	; 0x94 <__do_copy_data+0xc>

0000009e <__do_clear_bss>:
      9e:	2b e3       	ldi	r18, 0x3B	; 59
      a0:	a0 e3       	ldi	r26, 0x30	; 48
      a2:	b8 e3       	ldi	r27, 0x38	; 56
      a4:	01 c0       	rjmp	.+2      	; 0xa8 <.do_clear_bss_start>

000000a6 <.do_clear_bss_loop>:
      a6:	1d 92       	st	X+, r1

000000a8 <.do_clear_bss_start>:
      a8:	ac 31       	cpi	r26, 0x1C	; 28
      aa:	b2 07       	cpc	r27, r18
      ac:	e1 f7       	brne	.-8      	; 0xa6 <.do_clear_bss_loop>
      ae:	0e 94 83 1e 	call	0x3d06	; 0x3d06 <main>
      b2:	0c 94 fd 1e 	jmp	0x3dfa	; 0x3dfa <_exit>

000000b6 <__bad_interrupt>:
      b6:	a4 cf       	rjmp	.-184    	; 0x0 <__vectors>

000000b8 <chkVolt250>:
#include <main_def.h>
#include <resources.h>
#include <I2C.h>

//Returns measured voltage * 4 (2V returns 8) if it is in the expected range (DELTA)
uint8_t chkVolt250(){
      b8:	20 91 34 38 	lds	r18, 0x3834	; 0x803834 <avgVolt.3777>
      bc:	85 e1       	ldi	r24, 0x15	; 21
      be:	90 e0       	ldi	r25, 0x00	; 0
    static uint8_t avgVolt = 0;
        
    for (uint8_t x=25; x<226; x+=25) {
        if ((auIn[0] > (x-DELTA)) && (auIn[0] < (x+DELTA))) {
      c0:	40 91 c4 3a 	lds	r20, 0x3AC4	; 0x803ac4 <auIn>
      c4:	50 e0       	ldi	r21, 0x00	; 0
      c6:	48 17       	cp	r20, r24
      c8:	59 07       	cpc	r21, r25
      ca:	74 f0       	brlt	.+28     	; 0xe8 <chkVolt250+0x30>
      cc:	40 91 c4 3a 	lds	r20, 0x3AC4	; 0x803ac4 <auIn>
      d0:	50 e0       	ldi	r21, 0x00	; 0
      d2:	bc 01       	movw	r22, r24
      d4:	68 5f       	subi	r22, 0xF8	; 248
      d6:	7f 4f       	sbci	r23, 0xFF	; 255
      d8:	64 17       	cp	r22, r20
      da:	75 07       	cpc	r23, r21
      dc:	2c f0       	brlt	.+10     	; 0xe8 <chkVolt250+0x30>
      de:	20 93 34 38 	sts	0x3834, r18	; 0x803834 <avgVolt.3777>
            break;
        }
        ++avgVolt;
    }
    return avgVolt;
      e2:	80 91 34 38 	lds	r24, 0x3834	; 0x803834 <avgVolt.3777>
      e6:	08 95       	ret
        
    for (uint8_t x=25; x<226; x+=25) {
        if ((auIn[0] > (x-DELTA)) && (auIn[0] < (x+DELTA))) {
            break;
        }
        ++avgVolt;
      e8:	2f 5f       	subi	r18, 0xFF	; 255
      ea:	49 96       	adiw	r24, 0x19	; 25

//Returns measured voltage * 4 (2V returns 8) if it is in the expected range (DELTA)
uint8_t chkVolt250(){
    static uint8_t avgVolt = 0;
        
    for (uint8_t x=25; x<226; x+=25) {
      ec:	86 3f       	cpi	r24, 0xF6	; 246
      ee:	91 05       	cpc	r25, r1
      f0:	39 f7       	brne	.-50     	; 0xc0 <chkVolt250+0x8>
      f2:	f5 cf       	rjmp	.-22     	; 0xde <chkVolt250+0x26>

000000f4 <MakeFriends>:
    }
    return avgVolt;
}

// Main game loop
uint8_t MakeFriends(){
      f4:	ef 92       	push	r14
      f6:	ff 92       	push	r15
      f8:	0f 93       	push	r16
      fa:	1f 93       	push	r17
      fc:	cf 93       	push	r28
      fe:	df 93       	push	r29
     100:	c4 e6       	ldi	r28, 0x64	; 100
    static uint8_t chkTmr = 0;
    static uint8_t jackIn = 0;
    static uint8_t candidate = 0;

    //Check if badge has found 3 friends
    uint8_t foundAll = 1;
     102:	d1 e0       	ldi	r29, 0x01	; 1
    for (uint8_t x=0; x<4; x++){
        if (CheckState(100+x) == 0) foundAll = 0;
     104:	8c 2f       	mov	r24, r28
     106:	0e 94 17 0a 	call	0x142e	; 0x142e <CheckState>
     10a:	81 11       	cpse	r24, r1
     10c:	01 c0       	rjmp	.+2      	; 0x110 <MakeFriends+0x1c>
     10e:	d0 e0       	ldi	r29, 0x00	; 0
     110:	cf 5f       	subi	r28, 0xFF	; 255
    static uint8_t jackIn = 0;
    static uint8_t candidate = 0;

    //Check if badge has found 3 friends
    uint8_t foundAll = 1;
    for (uint8_t x=0; x<4; x++){
     112:	c8 36       	cpi	r28, 0x68	; 104
     114:	b9 f7       	brne	.-18     	; 0x104 <MakeFriends+0x10>
        if (CheckState(100+x) == 0) foundAll = 0;
    }
    if (foundAll) UpdateState(124);
     116:	dd 23       	and	r29, r29
     118:	19 f0       	breq	.+6      	; 0x120 <MakeFriends+0x2c>
     11a:	8c e7       	ldi	r24, 0x7C	; 124
     11c:	0e 94 0d 0a 	call	0x141a	; 0x141a <UpdateState>


    //Checking for headphones
    if (detHdPh) return 0;
     120:	80 91 c1 3a 	lds	r24, 0x3AC1	; 0x803ac1 <detHdPh>
     124:	81 11       	cpse	r24, r1
     126:	1c c1       	rjmp	.+568    	; 0x360 <MakeFriends+0x26c>

    //Audio off, set voltage level (setDAC[0]*10mV)
    if (progress == NO_OTHER) {
     128:	80 91 33 38 	lds	r24, 0x3833	; 0x803833 <progress.3784>
     12c:	81 11       	cpse	r24, r1
     12e:	11 c0       	rjmp	.+34     	; 0x152 <MakeFriends+0x5e>
        setDAC[0] = whoami * 50;
     130:	90 91 3f 38 	lds	r25, 0x383F	; 0x80383f <whoami>
     134:	22 e3       	ldi	r18, 0x32	; 50
     136:	92 9f       	mul	r25, r18
     138:	90 2d       	mov	r25, r0
     13a:	11 24       	eor	r1, r1
     13c:	90 93 00 38 	sts	0x3800, r25	; 0x803800 <__data_start>
        auRepAddr = &setDAC[0];
     140:	20 e0       	ldi	r18, 0x00	; 0
     142:	38 e3       	ldi	r19, 0x38	; 56
     144:	20 93 03 38 	sts	0x3803, r18	; 0x803803 <auRepAddr>
     148:	30 93 04 38 	sts	0x3804, r19	; 0x803804 <auRepAddr+0x1>
        auVolume = 255;
     14c:	9f ef       	ldi	r25, 0xFF	; 255
     14e:	90 93 b8 3a 	sts	0x3AB8, r25	; 0x803ab8 <auVolume>
    }

    //Check for other badges
    if ((auIn[0] < (setDAC[0] - DELTA)) || (auIn[0] > (setDAC[0] + DELTA)) ||((progress > FIRST_CONTACT))) {
     152:	40 91 c4 3a 	lds	r20, 0x3AC4	; 0x803ac4 <auIn>
     156:	20 91 00 38 	lds	r18, 0x3800	; 0x803800 <__data_start>
     15a:	30 e0       	ldi	r19, 0x00	; 0
     15c:	50 e0       	ldi	r21, 0x00	; 0
     15e:	b9 01       	movw	r22, r18
     160:	65 50       	subi	r22, 0x05	; 5
     162:	71 09       	sbc	r23, r1
     164:	46 17       	cp	r20, r22
     166:	57 07       	cpc	r21, r23
     168:	64 f0       	brlt	.+24     	; 0x182 <MakeFriends+0x8e>
     16a:	40 91 c4 3a 	lds	r20, 0x3AC4	; 0x803ac4 <auIn>
     16e:	50 e0       	ldi	r21, 0x00	; 0
     170:	2b 5f       	subi	r18, 0xFB	; 251
     172:	3f 4f       	sbci	r19, 0xFF	; 255
     174:	24 17       	cp	r18, r20
     176:	35 07       	cpc	r19, r21
     178:	24 f0       	brlt	.+8      	; 0x182 <MakeFriends+0x8e>
     17a:	82 30       	cpi	r24, 0x02	; 2
     17c:	08 f0       	brcs	.+2      	; 0x180 <MakeFriends+0x8c>
     17e:	40 c0       	rjmp	.+128    	; 0x200 <MakeFriends+0x10c>
     180:	ed c0       	rjmp	.+474    	; 0x35c <MakeFriends+0x268>
        if (progress == NO_OTHER) {
     182:	81 11       	cpse	r24, r1
     184:	0a c0       	rjmp	.+20     	; 0x19a <MakeFriends+0xa6>
            ++chkTmr;
     186:	80 91 32 38 	lds	r24, 0x3832	; 0x803832 <chkTmr.3786>
     18a:	8f 5f       	subi	r24, 0xFF	; 255
     18c:	80 93 32 38 	sts	0x3832, r24	; 0x803832 <chkTmr.3786>
            if (chkTmr >= 8) {
     190:	88 30       	cpi	r24, 0x08	; 8
     192:	08 f4       	brcc	.+2      	; 0x196 <MakeFriends+0xa2>
     194:	e5 c0       	rjmp	.+458    	; 0x360 <MakeFriends+0x26c>
                progress = FIRST_CONTACT;
     196:	81 e0       	ldi	r24, 0x01	; 1
     198:	7f c0       	rjmp	.+254    	; 0x298 <MakeFriends+0x1a4>
                chkTmr = 0;
            }
        }

        //Candidate found, check ranges
        else if (progress == FIRST_CONTACT) {
     19a:	81 30       	cpi	r24, 0x01	; 1
     19c:	89 f5       	brne	.+98     	; 0x200 <MakeFriends+0x10c>
            jackIn = chkVolt250();
     19e:	8c df       	rcall	.-232    	; 0xb8 <chkVolt250>
     1a0:	80 93 31 38 	sts	0x3831, r24	; 0x803831 <jackIn.3787>
            if (jackIn) {
     1a4:	88 23       	and	r24, r24
     1a6:	49 f1       	breq	.+82     	; 0x1fa <MakeFriends+0x106>
                ++chkTmr;
     1a8:	90 91 32 38 	lds	r25, 0x3832	; 0x803832 <chkTmr.3786>
     1ac:	9f 5f       	subi	r25, 0xFF	; 255
     1ae:	90 93 32 38 	sts	0x3832, r25	; 0x803832 <chkTmr.3786>
                if (chkTmr >= SHORT_WAIT){
     1b2:	98 30       	cpi	r25, 0x08	; 8
     1b4:	08 f4       	brcc	.+2      	; 0x1b8 <MakeFriends+0xc4>
     1b6:	d4 c0       	rjmp	.+424    	; 0x360 <MakeFriends+0x26c>
                    if ((whoami == 1)&&((jackIn == 3)||(jackIn == 4)||(jackIn == 5))) {
     1b8:	90 91 3f 38 	lds	r25, 0x383F	; 0x80383f <whoami>
     1bc:	91 30       	cpi	r25, 0x01	; 1
     1be:	29 f4       	brne	.+10     	; 0x1ca <MakeFriends+0xd6>
     1c0:	83 50       	subi	r24, 0x03	; 3
     1c2:	83 30       	cpi	r24, 0x03	; 3
     1c4:	b8 f4       	brcc	.+46     	; 0x1f4 <MakeFriends+0x100>
                        progress = SECOND_LOVE; 
     1c6:	82 e0       	ldi	r24, 0x02	; 2
     1c8:	67 c0       	rjmp	.+206    	; 0x298 <MakeFriends+0x1a4>
                    } else if ((whoami == 2)&&((jackIn == 3)||(jackIn == 5)||(jackIn == 6))) {
     1ca:	92 30       	cpi	r25, 0x02	; 2
     1cc:	31 f4       	brne	.+12     	; 0x1da <MakeFriends+0xe6>
     1ce:	83 30       	cpi	r24, 0x03	; 3
     1d0:	d1 f3       	breq	.-12     	; 0x1c6 <MakeFriends+0xd2>
     1d2:	85 50       	subi	r24, 0x05	; 5
     1d4:	82 30       	cpi	r24, 0x02	; 2
     1d6:	70 f4       	brcc	.+28     	; 0x1f4 <MakeFriends+0x100>
     1d8:	f6 cf       	rjmp	.-20     	; 0x1c6 <MakeFriends+0xd2>
                        progress = SECOND_LOVE;
                    } else  if ((whoami == 3)&&((jackIn == 4)||(jackIn == 5)||(jackIn == 7))) {
     1da:	93 30       	cpi	r25, 0x03	; 3
     1dc:	39 f4       	brne	.+14     	; 0x1ec <MakeFriends+0xf8>
     1de:	9c ef       	ldi	r25, 0xFC	; 252
     1e0:	98 0f       	add	r25, r24
     1e2:	92 30       	cpi	r25, 0x02	; 2
     1e4:	80 f3       	brcs	.-32     	; 0x1c6 <MakeFriends+0xd2>
     1e6:	87 30       	cpi	r24, 0x07	; 7
     1e8:	29 f4       	brne	.+10     	; 0x1f4 <MakeFriends+0x100>
     1ea:	ed cf       	rjmp	.-38     	; 0x1c6 <MakeFriends+0xd2>
                        progress = SECOND_LOVE;
                    } else if ((whoami == 4)&&((jackIn == 5)||(jackIn == 6)||(jackIn == 7))) {
     1ec:	94 30       	cpi	r25, 0x04	; 4
     1ee:	11 f4       	brne	.+4      	; 0x1f4 <MakeFriends+0x100>
     1f0:	85 50       	subi	r24, 0x05	; 5
     1f2:	e7 cf       	rjmp	.-50     	; 0x1c2 <MakeFriends+0xce>
                        progress = SECOND_LOVE;
                    } else progress = NO_OTHER;
     1f4:	10 92 33 38 	sts	0x3833, r1	; 0x803833 <progress.3784>
     1f8:	51 c0       	rjmp	.+162    	; 0x29c <MakeFriends+0x1a8>
                    chkTmr = 0;
                }
            } else {
                chkTmr = 0;
     1fa:	10 92 32 38 	sts	0x3832, r1	; 0x803832 <chkTmr.3786>
     1fe:	ae c0       	rjmp	.+348    	; 0x35c <MakeFriends+0x268>
                progress = NO_OTHER;
            }
        }

        //Wait for the other badge (and a bit longer)
        else if (progress == SECOND_LOVE){
     200:	82 30       	cpi	r24, 0x02	; 2
     202:	09 f0       	breq	.+2      	; 0x206 <MakeFriends+0x112>
     204:	4e c0       	rjmp	.+156    	; 0x2a2 <MakeFriends+0x1ae>
            ++chkTmr;
     206:	80 91 32 38 	lds	r24, 0x3832	; 0x803832 <chkTmr.3786>
     20a:	8f 5f       	subi	r24, 0xFF	; 255
     20c:	80 93 32 38 	sts	0x3832, r24	; 0x803832 <chkTmr.3786>
     210:	ca e2       	ldi	r28, 0x2A	; 42
     212:	de eb       	ldi	r29, 0xBE	; 190
     214:	7e 01       	movw	r14, r28
            for (uint8_t x=0; x<5; ++x){
                iLED[WING[L][x]] = (lfsr() > 127)?dimValue:0;
     216:	0d 81       	ldd	r16, Y+5	; 0x05
     218:	10 e0       	ldi	r17, 0x00	; 0
     21a:	db d7       	rcall	.+4022   	; 0x11d2 <lfsr>
     21c:	87 ff       	sbrs	r24, 7
     21e:	03 c0       	rjmp	.+6      	; 0x226 <MakeFriends+0x132>
     220:	80 91 0c 38 	lds	r24, 0x380C	; 0x80380c <dimValue>
     224:	01 c0       	rjmp	.+2      	; 0x228 <MakeFriends+0x134>
     226:	80 e0       	ldi	r24, 0x00	; 0
     228:	f8 01       	movw	r30, r16
     22a:	e4 53       	subi	r30, 0x34	; 52
     22c:	f5 4c       	sbci	r31, 0xC5	; 197
     22e:	80 83       	st	Z, r24
     230:	21 96       	adiw	r28, 0x01	; 1
                iLED[WING[R][x]] = (lfsr() > 127)?dimValue:0;
     232:	f7 01       	movw	r30, r14
     234:	00 81       	ld	r16, Z
     236:	10 e0       	ldi	r17, 0x00	; 0
     238:	cc d7       	rcall	.+3992   	; 0x11d2 <lfsr>
     23a:	87 ff       	sbrs	r24, 7
     23c:	03 c0       	rjmp	.+6      	; 0x244 <MakeFriends+0x150>
     23e:	80 91 0c 38 	lds	r24, 0x380C	; 0x80380c <dimValue>
     242:	01 c0       	rjmp	.+2      	; 0x246 <MakeFriends+0x152>
     244:	80 e0       	ldi	r24, 0x00	; 0
     246:	f8 01       	movw	r30, r16
     248:	e4 53       	subi	r30, 0x34	; 52
     24a:	f5 4c       	sbci	r31, 0xC5	; 197
     24c:	80 83       	st	Z, r24
        }

        //Wait for the other badge (and a bit longer)
        else if (progress == SECOND_LOVE){
            ++chkTmr;
            for (uint8_t x=0; x<5; ++x){
     24e:	fe eb       	ldi	r31, 0xBE	; 190
     250:	cf 32       	cpi	r28, 0x2F	; 47
     252:	df 07       	cpc	r29, r31
     254:	f9 f6       	brne	.-66     	; 0x214 <MakeFriends+0x120>
                iLED[WING[L][x]] = (lfsr() > 127)?dimValue:0;
                iLED[WING[R][x]] = (lfsr() > 127)?dimValue:0;
            }
            if (chkTmr >= SHORT_WAIT) {
     256:	80 91 32 38 	lds	r24, 0x3832	; 0x803832 <chkTmr.3786>
     25a:	88 30       	cpi	r24, 0x08	; 8
     25c:	40 f0       	brcs	.+16     	; 0x26e <MakeFriends+0x17a>
                setDAC[0] = floatAround(0x80, 8, 100, 255); 
     25e:	2f ef       	ldi	r18, 0xFF	; 255
     260:	44 e6       	ldi	r20, 0x64	; 100
     262:	68 e0       	ldi	r22, 0x08	; 8
     264:	80 e8       	ldi	r24, 0x80	; 128
     266:	0e 94 3a 09 	call	0x1274	; 0x1274 <floatAround>
     26a:	80 93 00 38 	sts	0x3800, r24	; 0x803800 <__data_start>
            }
            //The badge with the lowest voltage will now go to 2.5V (impedance check, for people tricking the things with a power supply)
            if (chkTmr >= LONG_WAIT){
     26e:	80 91 32 38 	lds	r24, 0x3832	; 0x803832 <chkTmr.3786>
     272:	8a 3f       	cpi	r24, 0xFA	; 250
     274:	08 f4       	brcc	.+2      	; 0x278 <MakeFriends+0x184>
     276:	74 c0       	rjmp	.+232    	; 0x360 <MakeFriends+0x26c>
                candidate = jackIn-whoami;
     278:	90 91 3f 38 	lds	r25, 0x383F	; 0x80383f <whoami>
     27c:	80 91 31 38 	lds	r24, 0x3831	; 0x803831 <jackIn.3787>
     280:	89 1b       	sub	r24, r25
     282:	80 93 30 38 	sts	0x3830, r24	; 0x803830 <__data_end>
                if (candidate > whoami) setDAC[0] = 250; else setDAC[0] = 0;
     286:	98 17       	cp	r25, r24
     288:	20 f4       	brcc	.+8      	; 0x292 <MakeFriends+0x19e>
     28a:	8a ef       	ldi	r24, 0xFA	; 250
     28c:	80 93 00 38 	sts	0x3800, r24	; 0x803800 <__data_start>
     290:	02 c0       	rjmp	.+4      	; 0x296 <MakeFriends+0x1a2>
     292:	10 92 00 38 	sts	0x3800, r1	; 0x803800 <__data_start>
                progress = THIRD_KISS;
     296:	83 e0       	ldi	r24, 0x03	; 3
     298:	80 93 33 38 	sts	0x3833, r24	; 0x803833 <progress.3784>
                chkTmr = 0;
     29c:	10 92 32 38 	sts	0x3832, r1	; 0x803832 <chkTmr.3786>
     2a0:	5f c0       	rjmp	.+190    	; 0x360 <MakeFriends+0x26c>
            }
        } 
        
        //Wait a bit, check Voltage again, if ok show who you connected with and your own number, save, exit
        else if (progress == THIRD_KISS) {
     2a2:	83 30       	cpi	r24, 0x03	; 3
     2a4:	e1 f5       	brne	.+120    	; 0x31e <MakeFriends+0x22a>
            chkTmr++;
     2a6:	80 91 32 38 	lds	r24, 0x3832	; 0x803832 <chkTmr.3786>
     2aa:	8f 5f       	subi	r24, 0xFF	; 255
     2ac:	80 93 32 38 	sts	0x3832, r24	; 0x803832 <chkTmr.3786>
            if (chkTmr >= SHORT_WAIT) {
     2b0:	88 30       	cpi	r24, 0x08	; 8
     2b2:	08 f4       	brcc	.+2      	; 0x2b6 <MakeFriends+0x1c2>
                if (chkVolt250() == 5) {
     2b4:	55 c0       	rjmp	.+170    	; 0x360 <MakeFriends+0x26c>
     2b6:	00 df       	rcall	.-512    	; 0xb8 <chkVolt250>
     2b8:	85 30       	cpi	r24, 0x05	; 5
     2ba:	09 f0       	breq	.+2      	; 0x2be <MakeFriends+0x1ca>
     2bc:	9b cf       	rjmp	.-202    	; 0x1f4 <MakeFriends+0x100>
                    UpdateState(99+candidate);
     2be:	80 91 30 38 	lds	r24, 0x3830	; 0x803830 <__data_end>
     2c2:	8d 59       	subi	r24, 0x9D	; 157
     2c4:	0e 94 0d 0a 	call	0x141a	; 0x141a <UpdateState>
                    UpdateState(99+whoami);
     2c8:	80 91 3f 38 	lds	r24, 0x383F	; 0x80383f <whoami>
     2cc:	8d 59       	subi	r24, 0x9D	; 157
     2ce:	0e 94 0d 0a 	call	0x141a	; 0x141a <UpdateState>
                    for (uint8_t x=0; x<5; ++x){
                        iLED[WING[L][x]] = (x<candidate)?dimValue:0;
     2d2:	20 91 30 38 	lds	r18, 0x3830	; 0x803830 <__data_end>
                        iLED[WING[R][x]] = (x<whoami)?dimValue:00;
     2d6:	30 91 3f 38 	lds	r19, 0x383F	; 0x80383f <whoami>
     2da:	aa e2       	ldi	r26, 0x2A	; 42
     2dc:	be eb       	ldi	r27, 0xBE	; 190
            chkTmr++;
            if (chkTmr >= SHORT_WAIT) {
                if (chkVolt250() == 5) {
                    UpdateState(99+candidate);
                    UpdateState(99+whoami);
                    for (uint8_t x=0; x<5; ++x){
     2de:	80 e0       	ldi	r24, 0x00	; 0
     2e0:	ed 01       	movw	r28, r26
                        iLED[WING[L][x]] = (x<candidate)?dimValue:0;
     2e2:	15 96       	adiw	r26, 0x05	; 5
     2e4:	ec 91       	ld	r30, X
     2e6:	15 97       	sbiw	r26, 0x05	; 5
     2e8:	f0 e0       	ldi	r31, 0x00	; 0
     2ea:	82 17       	cp	r24, r18
     2ec:	18 f4       	brcc	.+6      	; 0x2f4 <MakeFriends+0x200>
     2ee:	90 91 0c 38 	lds	r25, 0x380C	; 0x80380c <dimValue>
     2f2:	01 c0       	rjmp	.+2      	; 0x2f6 <MakeFriends+0x202>
     2f4:	90 e0       	ldi	r25, 0x00	; 0
     2f6:	e4 53       	subi	r30, 0x34	; 52
     2f8:	f5 4c       	sbci	r31, 0xC5	; 197
     2fa:	90 83       	st	Z, r25
     2fc:	11 96       	adiw	r26, 0x01	; 1
                        iLED[WING[R][x]] = (x<whoami)?dimValue:00;
     2fe:	e8 81       	ld	r30, Y
     300:	f0 e0       	ldi	r31, 0x00	; 0
     302:	83 17       	cp	r24, r19
     304:	18 f4       	brcc	.+6      	; 0x30c <MakeFriends+0x218>
     306:	90 91 0c 38 	lds	r25, 0x380C	; 0x80380c <dimValue>
     30a:	01 c0       	rjmp	.+2      	; 0x30e <MakeFriends+0x21a>
     30c:	90 e0       	ldi	r25, 0x00	; 0
     30e:	e4 53       	subi	r30, 0x34	; 52
     310:	f5 4c       	sbci	r31, 0xC5	; 197
     312:	90 83       	st	Z, r25
            chkTmr++;
            if (chkTmr >= SHORT_WAIT) {
                if (chkVolt250() == 5) {
                    UpdateState(99+candidate);
                    UpdateState(99+whoami);
                    for (uint8_t x=0; x<5; ++x){
     314:	8f 5f       	subi	r24, 0xFF	; 255
     316:	85 30       	cpi	r24, 0x05	; 5
     318:	19 f7       	brne	.-58     	; 0x2e0 <MakeFriends+0x1ec>
                        iLED[WING[L][x]] = (x<candidate)?dimValue:0;
                        iLED[WING[R][x]] = (x<whoami)?dimValue:00;
                    }   
                    progress = FOURTH_BASE;
     31a:	84 e0       	ldi	r24, 0x04	; 4
                } else progress = NO_OTHER;                
                chkTmr = 0;
            }

        //Wait for divorce of force quit
        } else if (progress == FOURTH_BASE) {
     31c:	bd cf       	rjmp	.-134    	; 0x298 <MakeFriends+0x1a4>
     31e:	84 30       	cpi	r24, 0x04	; 4
            if (chkVolt250() == 5) {
     320:	f9 f4       	brne	.+62     	; 0x360 <MakeFriends+0x26c>
     322:	ca de       	rcall	.-620    	; 0xb8 <chkVolt250>
     324:	85 30       	cpi	r24, 0x05	; 5
     326:	e1 f4       	brne	.+56     	; 0x360 <MakeFriends+0x26c>
                chkTmr++;
     328:	80 91 32 38 	lds	r24, 0x3832	; 0x803832 <chkTmr.3786>
     32c:	8f 5f       	subi	r24, 0xFF	; 255
     32e:	80 93 32 38 	sts	0x3832, r24	; 0x803832 <chkTmr.3786>
                if (chkTmr >= LONG_WAIT) {
     332:	8a 3f       	cpi	r24, 0xFA	; 250
     334:	a8 f0       	brcs	.+42     	; 0x360 <MakeFriends+0x26c>
     336:	ea e2       	ldi	r30, 0x2A	; 42
     338:	fe eb       	ldi	r31, 0xBE	; 190
     33a:	8f e2       	ldi	r24, 0x2F	; 47
     33c:	9e eb       	ldi	r25, 0xBE	; 190
     33e:	ef 01       	movw	r28, r30
                    for (uint8_t x=0; x<5; ++x){
                        iLED[WING[L][x]] = 0;
     340:	a5 81       	ldd	r26, Z+5	; 0x05
     342:	b0 e0       	ldi	r27, 0x00	; 0
     344:	a4 53       	subi	r26, 0x34	; 52
     346:	b5 4c       	sbci	r27, 0xC5	; 197
     348:	1c 92       	st	X, r1
     34a:	31 96       	adiw	r30, 0x01	; 1
                        iLED[WING[R][x]] = 0;
     34c:	a8 81       	ld	r26, Y
     34e:	b0 e0       	ldi	r27, 0x00	; 0
     350:	a4 53       	subi	r26, 0x34	; 52
     352:	b5 4c       	sbci	r27, 0xC5	; 197
     354:	1c 92       	st	X, r1
        //Wait for divorce of force quit
        } else if (progress == FOURTH_BASE) {
            if (chkVolt250() == 5) {
                chkTmr++;
                if (chkTmr >= LONG_WAIT) {
                    for (uint8_t x=0; x<5; ++x){
     356:	8e 17       	cp	r24, r30
     358:	9f 07       	cpc	r25, r31
     35a:	89 f7       	brne	.-30     	; 0x33e <MakeFriends+0x24a>
                    }                    
                }
            }
        }

    } else progress = NO_OTHER;
     35c:	10 92 33 38 	sts	0x3833, r1	; 0x803833 <progress.3784>
      
    return 0;
}
     360:	80 e0       	ldi	r24, 0x00	; 0
     362:	df 91       	pop	r29
     364:	cf 91       	pop	r28
     366:	1f 91       	pop	r17
     368:	0f 91       	pop	r16
     36a:	ff 90       	pop	r15
     36c:	ef 90       	pop	r14
     36e:	08 95       	ret

00000370 <I2C_init>:
// the Atmel device documentation mentions a special command for repeated start TWI_MCMD_REPSTART_gc,
// but this is not used in Atmel's demo code, so we don't use it either

void I2C_rep_start(uint8_t shifted_addr)						    // send repeated start, device_addr + LSB set if READ
{
	TWI0.MADDR = shifted_addr;	
     370:	81 e0       	ldi	r24, 0x01	; 1
     372:	80 93 22 04 	sts	0x0422, r24	; 0x800422 <__TEXT_REGION_LENGTH__+0x700422>
     376:	e6 e2       	ldi	r30, 0x26	; 38
     378:	f4 e0       	ldi	r31, 0x04	; 4
     37a:	80 83       	st	Z, r24
     37c:	10 92 30 04 	sts	0x0430, r1	; 0x800430 <__TEXT_REGION_LENGTH__+0x700430>
     380:	a1 e2       	ldi	r26, 0x21	; 33
     382:	b4 e0       	ldi	r27, 0x04	; 4
     384:	92 e0       	ldi	r25, 0x02	; 2
     386:	9c 93       	st	X, r25
     388:	90 83       	st	Z, r25
     38a:	10 92 31 04 	sts	0x0431, r1	; 0x800431 <__TEXT_REGION_LENGTH__+0x700431>
     38e:	e0 e1       	ldi	r30, 0x10	; 16
     390:	f8 e0       	ldi	r31, 0x08	; 8
     392:	97 e0       	ldi	r25, 0x07	; 7
     394:	96 83       	std	Z+6, r25	; 0x06
     396:	98 e0       	ldi	r25, 0x08	; 8
     398:	94 83       	std	Z+4, r25	; 0x04
     39a:	83 83       	std	Z+3, r24	; 0x03
     39c:	8c 93       	st	X, r24
     39e:	85 81       	ldd	r24, Z+5	; 0x05
     3a0:	81 60       	ori	r24, 0x01	; 1
     3a2:	85 83       	std	Z+5, r24	; 0x05
     3a4:	85 81       	ldd	r24, Z+5	; 0x05
     3a6:	84 6c       	ori	r24, 0xC4	; 196
     3a8:	85 83       	std	Z+5, r24	; 0x05
     3aa:	08 95       	ret

000003ac <I2C_recover>:
     3ac:	80 91 14 08 	lds	r24, 0x0814	; 0x800814 <__TEXT_REGION_LENGTH__+0x700814>
     3b0:	88 60       	ori	r24, 0x08	; 8
     3b2:	80 93 14 08 	sts	0x0814, r24	; 0x800814 <__TEXT_REGION_LENGTH__+0x700814>
     3b6:	10 92 13 08 	sts	0x0813, r1	; 0x800813 <__TEXT_REGION_LENGTH__+0x700813>
     3ba:	82 e0       	ldi	r24, 0x02	; 2
     3bc:	80 93 22 04 	sts	0x0422, r24	; 0x800422 <__TEXT_REGION_LENGTH__+0x700422>
     3c0:	99 e0       	ldi	r25, 0x09	; 9
     3c2:	21 e0       	ldi	r18, 0x01	; 1
     3c4:	81 e0       	ldi	r24, 0x01	; 1
     3c6:	20 93 21 04 	sts	0x0421, r18	; 0x800421 <__TEXT_REGION_LENGTH__+0x700421>
     3ca:	30 e1       	ldi	r19, 0x10	; 16
     3cc:	3a 95       	dec	r19
     3ce:	f1 f7       	brne	.-4      	; 0x3cc <I2C_recover+0x20>
     3d0:	00 c0       	rjmp	.+0      	; 0x3d2 <I2C_recover+0x26>
     3d2:	20 93 22 04 	sts	0x0422, r18	; 0x800422 <__TEXT_REGION_LENGTH__+0x700422>
     3d6:	30 e1       	ldi	r19, 0x10	; 16
     3d8:	3a 95       	dec	r19
     3da:	f1 f7       	brne	.-4      	; 0x3d8 <I2C_recover+0x2c>
     3dc:	00 c0       	rjmp	.+0      	; 0x3de <I2C_recover+0x32>
     3de:	91 50       	subi	r25, 0x01	; 1
     3e0:	89 f7       	brne	.-30     	; 0x3c4 <I2C_recover+0x18>
     3e2:	28 e0       	ldi	r18, 0x08	; 8
     3e4:	20 93 14 08 	sts	0x0814, r18	; 0x800814 <__TEXT_REGION_LENGTH__+0x700814>
     3e8:	80 93 13 08 	sts	0x0813, r24	; 0x800813 <__TEXT_REGION_LENGTH__+0x700813>
     3ec:	92 e0       	ldi	r25, 0x02	; 2
     3ee:	90 93 21 04 	sts	0x0421, r25	; 0x800421 <__TEXT_REGION_LENGTH__+0x700421>
     3f2:	90 91 15 08 	lds	r25, 0x0815	; 0x800815 <__TEXT_REGION_LENGTH__+0x700815>
     3f6:	91 60       	ori	r25, 0x01	; 1
     3f8:	90 93 15 08 	sts	0x0815, r25	; 0x800815 <__TEXT_REGION_LENGTH__+0x700815>
     3fc:	90 91 15 08 	lds	r25, 0x0815	; 0x800815 <__TEXT_REGION_LENGTH__+0x700815>
     400:	94 6c       	ori	r25, 0xC4	; 196
     402:	90 93 15 08 	sts	0x0815, r25	; 0x800815 <__TEXT_REGION_LENGTH__+0x700815>
     406:	20 93 14 08 	sts	0x0814, r18	; 0x800814 <__TEXT_REGION_LENGTH__+0x700814>
     40a:	80 93 13 08 	sts	0x0813, r24	; 0x800813 <__TEXT_REGION_LENGTH__+0x700813>
     40e:	80 93 21 04 	sts	0x0421, r24	; 0x800421 <__TEXT_REGION_LENGTH__+0x700421>
     412:	80 91 15 08 	lds	r24, 0x0815	; 0x800815 <__TEXT_REGION_LENGTH__+0x700815>
     416:	81 60       	ori	r24, 0x01	; 1
     418:	80 93 15 08 	sts	0x0815, r24	; 0x800815 <__TEXT_REGION_LENGTH__+0x700815>
     41c:	80 91 15 08 	lds	r24, 0x0815	; 0x800815 <__TEXT_REGION_LENGTH__+0x700815>
     420:	84 6c       	ori	r24, 0xC4	; 196
     422:	80 93 15 08 	sts	0x0815, r24	; 0x800815 <__TEXT_REGION_LENGTH__+0x700815>
     426:	08 95       	ret

00000428 <I2C_start>:
     428:	28 2f       	mov	r18, r24
     42a:	90 91 15 08 	lds	r25, 0x0815	; 0x800815 <__TEXT_REGION_LENGTH__+0x700815>
     42e:	90 6c       	ori	r25, 0xC0	; 192
     430:	90 93 15 08 	sts	0x0815, r25	; 0x800815 <__TEXT_REGION_LENGTH__+0x700815>
     434:	90 91 15 08 	lds	r25, 0x0815	; 0x800815 <__TEXT_REGION_LENGTH__+0x700815>
     438:	89 2f       	mov	r24, r25
     43a:	84 70       	andi	r24, 0x04	; 4
     43c:	92 fd       	sbrc	r25, 2
     43e:	03 c0       	rjmp	.+6      	; 0x446 <I2C_start+0x1e>
     440:	20 93 17 08 	sts	0x0817, r18	; 0x800817 <__TEXT_REGION_LENGTH__+0x700817>
     444:	08 95       	ret
     446:	84 e0       	ldi	r24, 0x04	; 4
     448:	08 95       	ret

0000044a <I2C_wait_ACK>:
     44a:	8c e0       	ldi	r24, 0x0C	; 12
     44c:	80 93 62 3a 	sts	0x3A62, r24	; 0x803a62 <timeout_I2C>
     450:	80 91 15 08 	lds	r24, 0x0815	; 0x800815 <__TEXT_REGION_LENGTH__+0x700815>
     454:	87 fd       	sbrc	r24, 7
     456:	0a c0       	rjmp	.+20     	; 0x46c <I2C_wait_ACK+0x22>
     458:	80 91 15 08 	lds	r24, 0x0815	; 0x800815 <__TEXT_REGION_LENGTH__+0x700815>
     45c:	86 fd       	sbrc	r24, 6
     45e:	06 c0       	rjmp	.+12     	; 0x46c <I2C_wait_ACK+0x22>
     460:	80 91 62 3a 	lds	r24, 0x3A62	; 0x803a62 <timeout_I2C>
     464:	81 11       	cpse	r24, r1
     466:	f4 cf       	rjmp	.-24     	; 0x450 <I2C_wait_ACK+0x6>
     468:	8f ef       	ldi	r24, 0xFF	; 255
     46a:	08 95       	ret
     46c:	80 91 15 08 	lds	r24, 0x0815	; 0x800815 <__TEXT_REGION_LENGTH__+0x700815>
     470:	80 6c       	ori	r24, 0xC0	; 192
     472:	80 93 15 08 	sts	0x0815, r24	; 0x800815 <__TEXT_REGION_LENGTH__+0x700815>
     476:	80 91 15 08 	lds	r24, 0x0815	; 0x800815 <__TEXT_REGION_LENGTH__+0x700815>
     47a:	82 fd       	sbrc	r24, 2
     47c:	09 c0       	rjmp	.+18     	; 0x490 <I2C_wait_ACK+0x46>
     47e:	80 91 15 08 	lds	r24, 0x0815	; 0x800815 <__TEXT_REGION_LENGTH__+0x700815>
     482:	83 fd       	sbrc	r24, 3
     484:	07 c0       	rjmp	.+14     	; 0x494 <I2C_wait_ACK+0x4a>
     486:	80 91 15 08 	lds	r24, 0x0815	; 0x800815 <__TEXT_REGION_LENGTH__+0x700815>
     48a:	82 95       	swap	r24
     48c:	81 70       	andi	r24, 0x01	; 1
     48e:	08 95       	ret
     490:	84 e0       	ldi	r24, 0x04	; 4
     492:	08 95       	ret
     494:	82 e0       	ldi	r24, 0x02	; 2
     496:	08 95       	ret

00000498 <I2C_read>:
}

uint8_t	I2C_read(uint8_t *data, uint8_t ack_flag)					// read data, ack_flag 0: send ACK, 1: send NACK, returns status
{
     498:	fc 01       	movw	r30, r24
	timeout_I2C = READ_TIMEOUT;										// reset timeout counter, will be decremented by LED matrix interrupt
     49a:	8c e0       	ldi	r24, 0x0C	; 12
     49c:	80 93 62 3a 	sts	0x3A62, r24	; 0x803a62 <timeout_I2C>
	if ((TWI0.MSTATUS & TWI_BUSSTATE_gm) == TWI_BUSSTATE_OWNER_gc)	// if master controls bus
     4a0:	90 91 15 08 	lds	r25, 0x0815	; 0x800815 <__TEXT_REGION_LENGTH__+0x700815>
     4a4:	89 2f       	mov	r24, r25
     4a6:	83 70       	andi	r24, 0x03	; 3
     4a8:	82 30       	cpi	r24, 0x02	; 2
     4aa:	11 f0       	breq	.+4      	; 0x4b0 <I2C_read+0x18>
		else		TWI0.MCTRLB |= TWI_ACKACT_NACK_gc;				// setup NACK (last byte read)
		*data = TWI0.MDATA;
		if (ack_flag == 0) TWI0.MCTRLB |= TWI_MCMD_RECVTRANS_gc;	// send ACK, more bytes to follow					
		return 0;
	}
	else return 8;													// master does not control bus
     4ac:	88 e0       	ldi	r24, 0x08	; 8
     4ae:	08 95       	ret
uint8_t	I2C_read(uint8_t *data, uint8_t ack_flag)					// read data, ack_flag 0: send ACK, 1: send NACK, returns status
{
	timeout_I2C = READ_TIMEOUT;										// reset timeout counter, will be decremented by LED matrix interrupt
	if ((TWI0.MSTATUS & TWI_BUSSTATE_gm) == TWI_BUSSTATE_OWNER_gc)	// if master controls bus
	{		
		while (!(TWI0.MSTATUS & TWI_RIF_bm))						// wait for RIF set (data byte received)
     4b0:	90 91 15 08 	lds	r25, 0x0815	; 0x800815 <__TEXT_REGION_LENGTH__+0x700815>
     4b4:	97 fd       	sbrc	r25, 7
     4b6:	06 c0       	rjmp	.+12     	; 0x4c4 <I2C_read+0x2c>
		{
			if (!(timeout_I2C)) return 0xff;			            // return timeout error
     4b8:	90 91 62 3a 	lds	r25, 0x3A62	; 0x803a62 <timeout_I2C>
     4bc:	91 11       	cpse	r25, r1
     4be:	f8 cf       	rjmp	.-16     	; 0x4b0 <I2C_read+0x18>
     4c0:	8f ef       	ldi	r24, 0xFF	; 255
     4c2:	08 95       	ret
		}
		TWI0.MSTATUS |= (TWI_RIF_bm | TWI_WIF_bm);					// clear Read and Write interrupt flags	
     4c4:	90 91 15 08 	lds	r25, 0x0815	; 0x800815 <__TEXT_REGION_LENGTH__+0x700815>
     4c8:	90 6c       	ori	r25, 0xC0	; 192
     4ca:	90 93 15 08 	sts	0x0815, r25	; 0x800815 <__TEXT_REGION_LENGTH__+0x700815>
		if (TWI0.MSTATUS & TWI_BUSERR_bm) return 4;					// Bus Error, abort
     4ce:	90 91 15 08 	lds	r25, 0x0815	; 0x800815 <__TEXT_REGION_LENGTH__+0x700815>
     4d2:	92 fd       	sbrc	r25, 2
     4d4:	1e c0       	rjmp	.+60     	; 0x512 <I2C_read+0x7a>
		if (TWI0.MSTATUS & TWI_ARBLOST_bm) return 2;				// Arbitration Lost, abort
     4d6:	90 91 15 08 	lds	r25, 0x0815	; 0x800815 <__TEXT_REGION_LENGTH__+0x700815>
     4da:	93 fd       	sbrc	r25, 3
     4dc:	1d c0       	rjmp	.+58     	; 0x518 <I2C_read+0x80>
		if (TWI0.MSTATUS & TWI_RXACK_bm) return 1;					// Slave replied with NACK, abort				
     4de:	90 91 15 08 	lds	r25, 0x0815	; 0x800815 <__TEXT_REGION_LENGTH__+0x700815>
     4e2:	89 2f       	mov	r24, r25
     4e4:	80 71       	andi	r24, 0x10	; 16
     4e6:	94 fd       	sbrc	r25, 4
     4e8:	16 c0       	rjmp	.+44     	; 0x516 <I2C_read+0x7e>
		if (ack_flag == 0) TWI0.MCTRLB &= ~(1 << TWI_ACKACT_bp);	// setup ACK
     4ea:	90 91 14 08 	lds	r25, 0x0814	; 0x800814 <__TEXT_REGION_LENGTH__+0x700814>
     4ee:	61 11       	cpse	r22, r1
     4f0:	02 c0       	rjmp	.+4      	; 0x4f6 <I2C_read+0x5e>
     4f2:	9b 7f       	andi	r25, 0xFB	; 251
     4f4:	01 c0       	rjmp	.+2      	; 0x4f8 <I2C_read+0x60>
		else		TWI0.MCTRLB |= TWI_ACKACT_NACK_gc;				// setup NACK (last byte read)
     4f6:	94 60       	ori	r25, 0x04	; 4
     4f8:	90 93 14 08 	sts	0x0814, r25	; 0x800814 <__TEXT_REGION_LENGTH__+0x700814>
		*data = TWI0.MDATA;
     4fc:	90 91 18 08 	lds	r25, 0x0818	; 0x800818 <__TEXT_REGION_LENGTH__+0x700818>
     500:	90 83       	st	Z, r25
		if (ack_flag == 0) TWI0.MCTRLB |= TWI_MCMD_RECVTRANS_gc;	// send ACK, more bytes to follow					
     502:	61 11       	cpse	r22, r1
     504:	09 c0       	rjmp	.+18     	; 0x518 <I2C_read+0x80>
     506:	90 91 14 08 	lds	r25, 0x0814	; 0x800814 <__TEXT_REGION_LENGTH__+0x700814>
     50a:	92 60       	ori	r25, 0x02	; 2
     50c:	90 93 14 08 	sts	0x0814, r25	; 0x800814 <__TEXT_REGION_LENGTH__+0x700814>
     510:	08 95       	ret
		while (!(TWI0.MSTATUS & TWI_RIF_bm))						// wait for RIF set (data byte received)
		{
			if (!(timeout_I2C)) return 0xff;			            // return timeout error
		}
		TWI0.MSTATUS |= (TWI_RIF_bm | TWI_WIF_bm);					// clear Read and Write interrupt flags	
		if (TWI0.MSTATUS & TWI_BUSERR_bm) return 4;					// Bus Error, abort
     512:	84 e0       	ldi	r24, 0x04	; 4
     514:	08 95       	ret
		if (TWI0.MSTATUS & TWI_ARBLOST_bm) return 2;				// Arbitration Lost, abort
		if (TWI0.MSTATUS & TWI_RXACK_bm) return 1;					// Slave replied with NACK, abort				
     516:	81 e0       	ldi	r24, 0x01	; 1
		*data = TWI0.MDATA;
		if (ack_flag == 0) TWI0.MCTRLB |= TWI_MCMD_RECVTRANS_gc;	// send ACK, more bytes to follow					
		return 0;
	}
	else return 8;													// master does not control bus
}
     518:	08 95       	ret

0000051a <I2C_write>:

uint8_t I2C_write(uint8_t *data)									// write data, return status
{
     51a:	fc 01       	movw	r30, r24
	timeout_I2C = WRITE_TIMEOUT;									// reset timeout counter, will be decremented by LED matrix interrupt
     51c:	8c e0       	ldi	r24, 0x0C	; 12
     51e:	80 93 62 3a 	sts	0x3A62, r24	; 0x803a62 <timeout_I2C>
	if ((TWI0.MSTATUS & TWI_BUSSTATE_gm) == TWI_BUSSTATE_OWNER_gc)	// if master controls bus
     522:	90 91 15 08 	lds	r25, 0x0815	; 0x800815 <__TEXT_REGION_LENGTH__+0x700815>
     526:	93 70       	andi	r25, 0x03	; 3
     528:	92 30       	cpi	r25, 0x02	; 2
     52a:	b1 f4       	brne	.+44     	; 0x558 <I2C_write+0x3e>
	{
		TWI0.MDATA = *data;		
     52c:	80 81       	ld	r24, Z
     52e:	80 93 18 08 	sts	0x0818, r24	; 0x800818 <__TEXT_REGION_LENGTH__+0x700818>
		while (!(TWI0.MSTATUS & TWI_WIF_bm))						// wait until WIF set, status register contains ACK/NACK bit
     532:	80 91 15 08 	lds	r24, 0x0815	; 0x800815 <__TEXT_REGION_LENGTH__+0x700815>
     536:	86 fd       	sbrc	r24, 6
     538:	06 c0       	rjmp	.+12     	; 0x546 <I2C_write+0x2c>
		{
			if (!(timeout_I2C)) return 0xff;			            // return timeout error
     53a:	80 91 62 3a 	lds	r24, 0x3A62	; 0x803a62 <timeout_I2C>
     53e:	81 11       	cpse	r24, r1
     540:	f8 cf       	rjmp	.-16     	; 0x532 <I2C_write+0x18>
     542:	8f ef       	ldi	r24, 0xFF	; 255
     544:	08 95       	ret
		}
		if (TWI0.MSTATUS & TWI_BUSERR_bm) return 4;					// Bus Error, abort
     546:	80 91 15 08 	lds	r24, 0x0815	; 0x800815 <__TEXT_REGION_LENGTH__+0x700815>
     54a:	82 fd       	sbrc	r24, 2
     54c:	07 c0       	rjmp	.+14     	; 0x55c <I2C_write+0x42>
		if (TWI0.MSTATUS & TWI_RXACK_bm) return 1;					// Slave replied with NACK, abort
     54e:	80 91 15 08 	lds	r24, 0x0815	; 0x800815 <__TEXT_REGION_LENGTH__+0x700815>
	if ((TWI0.MSTATUS & TWI_BUSSTATE_gm) == TWI_BUSSTATE_OWNER_gc)	// if master controls bus
	{
		TWI0.MDATA = *data;		
		while (!(TWI0.MSTATUS & TWI_WIF_bm))						// wait until WIF set, status register contains ACK/NACK bit
		{
			if (!(timeout_I2C)) return 0xff;			            // return timeout error
     552:	82 95       	swap	r24
     554:	81 70       	andi	r24, 0x01	; 1
     556:	08 95       	ret
		}
		if (TWI0.MSTATUS & TWI_BUSERR_bm) return 4;					// Bus Error, abort
		if (TWI0.MSTATUS & TWI_RXACK_bm) return 1;					// Slave replied with NACK, abort
		return 0;													// no error	
	}
	else return 8;													// master does not control bus
     558:	88 e0       	ldi	r24, 0x08	; 8
     55a:	08 95       	ret
		TWI0.MDATA = *data;		
		while (!(TWI0.MSTATUS & TWI_WIF_bm))						// wait until WIF set, status register contains ACK/NACK bit
		{
			if (!(timeout_I2C)) return 0xff;			            // return timeout error
		}
		if (TWI0.MSTATUS & TWI_BUSERR_bm) return 4;					// Bus Error, abort
     55c:	84 e0       	ldi	r24, 0x04	; 4
		if (TWI0.MSTATUS & TWI_RXACK_bm) return 1;					// Slave replied with NACK, abort
		return 0;													// no error	
	}
	else return 8;													// master does not control bus
}
     55e:	08 95       	ret

00000560 <I2C_stop>:

void I2C_stop()
{
	TWI0.MCTRLB |= TWI_MCMD_STOP_gc;
     560:	e0 e1       	ldi	r30, 0x10	; 16
     562:	f8 e0       	ldi	r31, 0x08	; 8
     564:	84 81       	ldd	r24, Z+4	; 0x04
     566:	83 60       	ori	r24, 0x03	; 3
     568:	84 83       	std	Z+4, r24	; 0x04
     56a:	08 95       	ret

0000056c <I2C_read_bytes>:
// addr_ptr		address of first array element to transfer
// slave reg	starting slave register
// num_bytes	number of bytes to transfer

uint8_t	I2C_read_bytes(uint8_t slave_addr, uint8_t *reg_ptr, uint8_t reg_len, uint8_t *dat_ptr, uint8_t dat_len)
{
     56c:	cf 92       	push	r12
     56e:	df 92       	push	r13
     570:	ff 92       	push	r15
     572:	0f 93       	push	r16
     574:	1f 93       	push	r17
     576:	cf 93       	push	r28
     578:	df 93       	push	r29
     57a:	6b 01       	movw	r12, r22
     57c:	f4 2e       	mov	r15, r20
     57e:	e9 01       	movw	r28, r18
	uint8_t status;
	if (dat_len > MAX_LEN) dat_len = MAX_LEN;
	status = I2C_start(slave_addr << 1);							// slave write address, LSB 0
     580:	18 2f       	mov	r17, r24
     582:	11 0f       	add	r17, r17
     584:	81 2f       	mov	r24, r17
     586:	50 df       	rcall	.-352    	; 0x428 <I2C_start>
	if (status != 0) goto error;
     588:	81 11       	cpse	r24, r1
	status = I2C_wait_ACK();										// wait for slave ACK
     58a:	2b c0       	rjmp	.+86     	; 0x5e2 <I2C_read_bytes+0x76>
     58c:	5e df       	rcall	.-324    	; 0x44a <I2C_wait_ACK>
	if (status == 1) {
     58e:	81 30       	cpi	r24, 0x01	; 1
		I2C_stop();													// NACK, abort
     590:	19 f4       	brne	.+6      	; 0x598 <I2C_read_bytes+0x2c>
     592:	e6 df       	rcall	.-52     	; 0x560 <I2C_stop>
		return 1;
     594:	81 e0       	ldi	r24, 0x01	; 1
     596:	27 c0       	rjmp	.+78     	; 0x5e6 <I2C_read_bytes+0x7a>
	}
	if (status != 0) goto error;
     598:	81 11       	cpse	r24, r1
     59a:	23 c0       	rjmp	.+70     	; 0x5e2 <I2C_read_bytes+0x76>
    while(reg_len > 0){
     59c:	ff 20       	and	r15, r15
	    status = I2C_write(reg_ptr);    							// send slave start register
     59e:	49 f0       	breq	.+18     	; 0x5b2 <I2C_read_bytes+0x46>
     5a0:	c6 01       	movw	r24, r12
     5a2:	bb df       	rcall	.-138    	; 0x51a <I2C_write>
	    if (status != 0) goto error;
     5a4:	81 11       	cpse	r24, r1
     5a6:	1d c0       	rjmp	.+58     	; 0x5e2 <I2C_read_bytes+0x76>
        ++reg_ptr;
     5a8:	8f ef       	ldi	r24, 0xFF	; 255
     5aa:	c8 1a       	sub	r12, r24
     5ac:	d8 0a       	sbc	r13, r24
        --reg_len;
     5ae:	fa 94       	dec	r15
     5b0:	f5 cf       	rjmp	.-22     	; 0x59c <I2C_read_bytes+0x30>
     5b2:	01 34       	cpi	r16, 0x41	; 65
     5b4:	08 f0       	brcs	.+2      	; 0x5b8 <I2C_read_bytes+0x4c>
     5b6:	00 e4       	ldi	r16, 0x40	; 64
    }
	I2C_rep_start((slave_addr << 1) + 1);							// slave read address, LSB 1
     5b8:	1f 5f       	subi	r17, 0xFF	; 255
// the Atmel device documentation mentions a special command for repeated start TWI_MCMD_REPSTART_gc,
// but this is not used in Atmel's demo code, so we don't use it either

void I2C_rep_start(uint8_t shifted_addr)						    // send repeated start, device_addr + LSB set if READ
{
	TWI0.MADDR = shifted_addr;	
     5ba:	10 93 17 08 	sts	0x0817, r17	; 0x800817 <__TEXT_REGION_LENGTH__+0x700817>
	    if (status != 0) goto error;
        ++reg_ptr;
        --reg_len;
    }
	I2C_rep_start((slave_addr << 1) + 1);							// slave read address, LSB 1
	while (dat_len > 1) {
     5be:	02 30       	cpi	r16, 0x02	; 2
		status = I2C_read(dat_ptr, 0);								// first bytes, send ACK
     5c0:	40 f0       	brcs	.+16     	; 0x5d2 <I2C_read_bytes+0x66>
     5c2:	60 e0       	ldi	r22, 0x00	; 0
     5c4:	ce 01       	movw	r24, r28
     5c6:	68 df       	rcall	.-304    	; 0x498 <I2C_read>
		if (status != 0) goto error;
     5c8:	81 11       	cpse	r24, r1
     5ca:	0b c0       	rjmp	.+22     	; 0x5e2 <I2C_read_bytes+0x76>
		++dat_ptr;
		--dat_len;
     5cc:	21 96       	adiw	r28, 0x01	; 1
     5ce:	01 50       	subi	r16, 0x01	; 1
	}
	status = I2C_read(dat_ptr, 1);									// single or last byte, send NACK
     5d0:	f6 cf       	rjmp	.-20     	; 0x5be <I2C_read_bytes+0x52>
     5d2:	61 e0       	ldi	r22, 0x01	; 1
     5d4:	ce 01       	movw	r24, r28
	if (status != 0) goto error;
     5d6:	60 df       	rcall	.-320    	; 0x498 <I2C_read>
     5d8:	81 11       	cpse	r24, r1
	I2C_stop();
     5da:	03 c0       	rjmp	.+6      	; 0x5e2 <I2C_read_bytes+0x76>
     5dc:	c1 df       	rcall	.-126    	; 0x560 <I2C_stop>
	return 0;
     5de:	80 e0       	ldi	r24, 0x00	; 0
     5e0:	02 c0       	rjmp	.+4      	; 0x5e6 <I2C_read_bytes+0x7a>
	
error:
	I2C_recover();													// clock out possibly stuck slave, reset master
     5e2:	e4 de       	rcall	.-568    	; 0x3ac <I2C_recover>
     5e4:	8f ef       	ldi	r24, 0xFF	; 255
	return 0xff;													// flag error
     5e6:	df 91       	pop	r29
}
     5e8:	cf 91       	pop	r28
     5ea:	1f 91       	pop	r17
     5ec:	0f 91       	pop	r16
     5ee:	ff 90       	pop	r15
     5f0:	df 90       	pop	r13
     5f2:	cf 90       	pop	r12
     5f4:	08 95       	ret

000005f6 <initLanyard>:
uint8_t         lanyardCnt = 0;
uint8_t         lanyardState = TRUE;
uint16_t        lanyardLastActive = 0;

void initLanyard() {
    lanyardPos      = 0;
     5f6:	10 92 38 38 	sts	0x3838, r1	; 0x803838 <lanyardPos>
    lanyardCnt      = 0;
     5fa:	10 92 37 38 	sts	0x3837, r1	; 0x803837 <lanyardCnt>
    lanyardState    = TRUE;
     5fe:	81 e0       	ldi	r24, 0x01	; 1
     600:	80 93 02 38 	sts	0x3802, r24	; 0x803802 <lanyardState>
    effect = 0;
     604:	10 92 3c 38 	sts	0x383C, r1	; 0x80383c <effect>
     608:	10 92 3d 38 	sts	0x383D, r1	; 0x80383d <effect+0x1>
     60c:	08 95       	ret

0000060e <LanyardCode>:
}

// Main game loop
uint8_t LanyardCode(){
     60e:	cf 93       	push	r28
    if (gameNow == LANYARD && idleTimeout(lanyardLastActive,LANYARD_MAX_IDLE)) {
     610:	80 91 3e 38 	lds	r24, 0x383E	; 0x80383e <gameNow>
     614:	83 30       	cpi	r24, 0x03	; 3
     616:	71 f4       	brne	.+28     	; 0x634 <LanyardCode+0x26>
     618:	6a e0       	ldi	r22, 0x0A	; 10
     61a:	70 e0       	ldi	r23, 0x00	; 0
     61c:	80 91 35 38 	lds	r24, 0x3835	; 0x803835 <lanyardLastActive>
     620:	90 91 36 38 	lds	r25, 0x3836	; 0x803836 <lanyardLastActive+0x1>
     624:	0e 94 2d 0d 	call	0x1a5a	; 0x1a5a <idleTimeout>
     628:	88 23       	and	r24, r24
     62a:	21 f0       	breq	.+8      	; 0x634 <LanyardCode+0x26>
        /* clean up maze game and go back to text game */
        initLanyard();
     62c:	e4 df       	rcall	.-56     	; 0x5f6 <initLanyard>
        gameNow = TEXT;
     62e:	10 92 3e 38 	sts	0x383E, r1	; 0x80383e <gameNow>
        return 0;
     632:	9b c0       	rjmp	.+310    	; 0x76a <LanyardCode+0x15c>
    }

    if (CheckState(LANYARD_COMPLETED))
     634:	8b e7       	ldi	r24, 0x7B	; 123
     636:	fb d6       	rcall	.+3574   	; 0x142e <CheckState>
     638:	81 11       	cpse	r24, r1
     63a:	97 c0       	rjmp	.+302    	; 0x76a <LanyardCode+0x15c>
        return 0;

    if ( gameNow != TEXT && gameNow != LANYARD )
     63c:	80 91 3e 38 	lds	r24, 0x383E	; 0x80383e <gameNow>
     640:	88 23       	and	r24, r24
     642:	19 f0       	breq	.+6      	; 0x64a <LanyardCode+0x3c>
     644:	83 30       	cpi	r24, 0x03	; 3
     646:	09 f0       	breq	.+2      	; 0x64a <LanyardCode+0x3c>
     648:	90 c0       	rjmp	.+288    	; 0x76a <LanyardCode+0x15c>
        return 0;

    /* activate led for buttonstate */
    iLED[CAT] = (buttonState==0xff ? 0 : dimValue);
     64a:	c0 91 26 be 	lds	r28, 0xBE26	; 0x80be26 <__bss_end+0x830a>
     64e:	ec 2f       	mov	r30, r28
     650:	f0 e0       	ldi	r31, 0x00	; 0
     652:	80 91 08 38 	lds	r24, 0x3808	; 0x803808 <buttonState>
     656:	8f 3f       	cpi	r24, 0xFF	; 255
     658:	19 f0       	breq	.+6      	; 0x660 <LanyardCode+0x52>
     65a:	90 91 0c 38 	lds	r25, 0x380C	; 0x80380c <dimValue>
     65e:	01 c0       	rjmp	.+2      	; 0x662 <LanyardCode+0x54>
     660:	90 e0       	ldi	r25, 0x00	; 0
     662:	e4 53       	subi	r30, 0x34	; 52
     664:	f5 4c       	sbci	r31, 0xC5	; 197
     666:	90 83       	st	Z, r25

    if (buttonState == 0xff)
     668:	8f 3f       	cpi	r24, 0xFF	; 255
     66a:	09 f4       	brne	.+2      	; 0x66e <LanyardCode+0x60>
     66c:	7e c0       	rjmp	.+252    	; 0x76a <LanyardCode+0x15c>
        return 0;

    if (buttonState == lastButtonState)
     66e:	90 91 07 38 	lds	r25, 0x3807	; 0x803807 <lastButtonState>
     672:	89 17       	cp	r24, r25
     674:	09 f4       	brne	.+2      	; 0x678 <LanyardCode+0x6a>
     676:	79 c0       	rjmp	.+242    	; 0x76a <LanyardCode+0x15c>
        return 0;

    lanyardLastActive = getClock();
     678:	0e 94 1e 0d 	call	0x1a3c	; 0x1a3c <getClock>
     67c:	80 93 35 38 	sts	0x3835, r24	; 0x803835 <lanyardLastActive>
     680:	90 93 36 38 	sts	0x3836, r25	; 0x803836 <lanyardLastActive+0x1>

    if (lastButtonState == 0xff){
     684:	80 91 07 38 	lds	r24, 0x3807	; 0x803807 <lastButtonState>
     688:	8f 3f       	cpi	r24, 0xFF	; 255
     68a:	09 f0       	breq	.+2      	; 0x68e <LanyardCode+0x80>
     68c:	6e c0       	rjmp	.+220    	; 0x76a <LanyardCode+0x15c>
        effect = 0x13f + (buttonState << 5);
     68e:	80 91 08 38 	lds	r24, 0x3808	; 0x803808 <buttonState>
     692:	20 e2       	ldi	r18, 0x20	; 32
     694:	82 9f       	mul	r24, r18
     696:	c0 01       	movw	r24, r0
     698:	11 24       	eor	r1, r1
     69a:	81 5c       	subi	r24, 0xC1	; 193
     69c:	9e 4f       	sbci	r25, 0xFE	; 254
     69e:	80 93 3c 38 	sts	0x383C, r24	; 0x80383c <effect>
     6a2:	90 93 3d 38 	sts	0x383D, r25	; 0x80383d <effect+0x1>

        if (gameNow != LANYARD)
     6a6:	80 91 3e 38 	lds	r24, 0x383E	; 0x80383e <gameNow>
     6aa:	83 30       	cpi	r24, 0x03	; 3
            initLanyard();
     6ac:	09 f0       	breq	.+2      	; 0x6b0 <LanyardCode+0xa2>
     6ae:	a3 df       	rcall	.-186    	; 0x5f6 <initLanyard>
        gameNow = LANYARD;
     6b0:	83 e0       	ldi	r24, 0x03	; 3
     6b2:	80 93 3e 38 	sts	0x383E, r24	; 0x80383e <gameNow>

        if (buttonState == lanyardCode[lanyardPos]) {
     6b6:	80 91 38 38 	lds	r24, 0x3838	; 0x803838 <lanyardPos>
     6ba:	e8 2f       	mov	r30, r24
     6bc:	f0 e0       	ldi	r31, 0x00	; 0
     6be:	e2 5f       	subi	r30, 0xF2	; 242
     6c0:	f1 44       	sbci	r31, 0x41	; 65
     6c2:	20 81       	ld	r18, Z
     6c4:	90 91 08 38 	lds	r25, 0x3808	; 0x803808 <buttonState>
     6c8:	29 13       	cpse	r18, r25
     6ca:	12 c0       	rjmp	.+36     	; 0x6f0 <LanyardCode+0xe2>
            lanyardState &= TRUE;
     6cc:	90 91 02 38 	lds	r25, 0x3802	; 0x803802 <lanyardState>
     6d0:	91 70       	andi	r25, 0x01	; 1
     6d2:	90 93 02 38 	sts	0x3802, r25	; 0x803802 <lanyardState>
            iLED[EYE[R][L]] = 0;
     6d6:	e0 91 35 be 	lds	r30, 0xBE35	; 0x80be35 <__bss_end+0x8319>
     6da:	f0 e0       	ldi	r31, 0x00	; 0
     6dc:	e4 53       	subi	r30, 0x34	; 52
     6de:	f5 4c       	sbci	r31, 0xC5	; 197
     6e0:	10 82       	st	Z, r1
            iLED[EYE[R][R]] = 0;
     6e2:	e0 91 34 be 	lds	r30, 0xBE34	; 0x80be34 <__bss_end+0x8318>
     6e6:	f0 e0       	ldi	r31, 0x00	; 0
     6e8:	e4 53       	subi	r30, 0x34	; 52
     6ea:	f5 4c       	sbci	r31, 0xC5	; 197
     6ec:	10 82       	st	Z, r1
     6ee:	09 c0       	rjmp	.+18     	; 0x702 <LanyardCode+0xf4>
        } else {
            lanyardState = FALSE;
     6f0:	10 92 02 38 	sts	0x3802, r1	; 0x803802 <lanyardState>
            if (lanyardPos < 4 ) {
     6f4:	84 30       	cpi	r24, 0x04	; 4
                initLanyard();
     6f6:	28 f4       	brcc	.+10     	; 0x702 <LanyardCode+0xf4>
     6f8:	7e df       	rcall	.-260    	; 0x5f6 <initLanyard>
                gameNow         = BASTET;
     6fa:	82 e0       	ldi	r24, 0x02	; 2
     6fc:	80 93 3e 38 	sts	0x383E, r24	; 0x80383e <gameNow>
                return 0;
     700:	34 c0       	rjmp	.+104    	; 0x76a <LanyardCode+0x15c>
            }
        }
        lanyardPos++;
     702:	8f 5f       	subi	r24, 0xFF	; 255
     704:	80 93 38 38 	sts	0x3838, r24	; 0x803838 <lanyardPos>
        lanyardCnt++;            
     708:	90 91 37 38 	lds	r25, 0x3837	; 0x803837 <lanyardCnt>
     70c:	9f 5f       	subi	r25, 0xFF	; 255
        if (lanyardCnt >= 4) {
     70e:	94 30       	cpi	r25, 0x04	; 4
     710:	18 f4       	brcc	.+6      	; 0x718 <LanyardCode+0x10a>
                gameNow         = BASTET;
                return 0;
            }
        }
        lanyardPos++;
        lanyardCnt++;            
     712:	90 93 37 38 	sts	0x3837, r25	; 0x803837 <lanyardCnt>
     716:	29 c0       	rjmp	.+82     	; 0x76a <LanyardCode+0x15c>
        if (lanyardCnt >= 4) {
            lanyardCnt = 0;
     718:	10 92 37 38 	sts	0x3837, r1	; 0x803837 <lanyardCnt>
            if (lanyardState == TRUE) {
     71c:	90 91 02 38 	lds	r25, 0x3802	; 0x803802 <lanyardState>
     720:	91 30       	cpi	r25, 0x01	; 1
     722:	e1 f4       	brne	.+56     	; 0x75c <LanyardCode+0x14e>
                if ((lanyardPos % 4) == 0) {
     724:	98 2f       	mov	r25, r24
     726:	93 70       	andi	r25, 0x03	; 3
     728:	69 f4       	brne	.+26     	; 0x744 <LanyardCode+0x136>
                    iLED[HCKR[G][(lanyardPos>>2)-1]] = dimValue;
     72a:	e8 2f       	mov	r30, r24
     72c:	e6 95       	lsr	r30
     72e:	e6 95       	lsr	r30
     730:	f0 e0       	ldi	r31, 0x00	; 0
     732:	e8 5c       	subi	r30, 0xC8	; 200
     734:	f1 44       	sbci	r31, 0x41	; 65
     736:	e5 81       	ldd	r30, Z+5	; 0x05
     738:	f0 e0       	ldi	r31, 0x00	; 0
     73a:	90 91 0c 38 	lds	r25, 0x380C	; 0x80380c <dimValue>
     73e:	e4 53       	subi	r30, 0x34	; 52
     740:	f5 4c       	sbci	r31, 0xC5	; 197
                }
                if (lanyardPos == sizeof(lanyardCode)) {
     742:	90 83       	st	Z, r25
     744:	88 31       	cpi	r24, 0x18	; 24
                    UpdateState(LANYARD_COMPLETED);
     746:	89 f4       	brne	.+34     	; 0x76a <LanyardCode+0x15c>
     748:	8b e7       	ldi	r24, 0x7B	; 123
     74a:	67 d6       	rcall	.+3278   	; 0x141a <UpdateState>
                    iLED[CAT]       = 0;
     74c:	ec 2f       	mov	r30, r28
     74e:	f0 e0       	ldi	r31, 0x00	; 0
     750:	e4 53       	subi	r30, 0x34	; 52
     752:	f5 4c       	sbci	r31, 0xC5	; 197
                    effect = 0x42;
     754:	10 82       	st	Z, r1
     756:	82 e4       	ldi	r24, 0x42	; 66
     758:	90 e0       	ldi	r25, 0x00	; 0
                    /*TODO state = STATE_MUSIC;*/
                }
            } else {
                initLanyard();
     75a:	03 c0       	rjmp	.+6      	; 0x762 <LanyardCode+0x154>
     75c:	4c df       	rcall	.-360    	; 0x5f6 <initLanyard>
                effect = 0x21;
     75e:	81 e2       	ldi	r24, 0x21	; 33
     760:	90 e0       	ldi	r25, 0x00	; 0
     762:	80 93 3c 38 	sts	0x383C, r24	; 0x80383c <effect>
     766:	90 93 3d 38 	sts	0x383D, r25	; 0x80383d <effect+0x1>
            }
        }
    }

    return 0;
}
     76a:	80 e0       	ldi	r24, 0x00	; 0
     76c:	cf 91       	pop	r28
     76e:	08 95       	ret

00000770 <initMaze>:
uint8_t         mazeState = TRUE;
uint8_t         inverted  = FALSE;
uint16_t        mazeLastActive = 0;

void initMaze() {
    mazeHckrPos = 0;
     770:	10 92 4b 38 	sts	0x384B, r1	; 0x80384b <mazeHckrPos>
    mazePos = 0;
     774:	10 92 4c 38 	sts	0x384C, r1	; 0x80384c <mazePos>
    mazeCnt = 0;
     778:	10 92 4a 38 	sts	0x384A, r1	; 0x80384a <mazeCnt>
    mazeState = TRUE;
     77c:	81 e0       	ldi	r24, 0x01	; 1
     77e:	80 93 0d 38 	sts	0x380D, r24	; 0x80380d <mazeState>
    inverted  = FALSE;
     782:	10 92 49 38 	sts	0x3849, r1	; 0x803849 <inverted>
    effect = 0;
     786:	10 92 3c 38 	sts	0x383C, r1	; 0x80383c <effect>
     78a:	10 92 3d 38 	sts	0x383D, r1	; 0x80383d <effect+0x1>
     78e:	08 95       	ret

00000790 <showFieldStrength>:
}

void showFieldStrength(int16_t val) {
    int16_t tmp;

    tmp = abs(val);
     790:	97 ff       	sbrs	r25, 7
     792:	03 c0       	rjmp	.+6      	; 0x79a <showFieldStrength+0xa>
     794:	91 95       	neg	r25
     796:	81 95       	neg	r24
     798:	91 09       	sbc	r25, r1

    if ( tmp*2 > HALL_LOW )
     79a:	9c 01       	movw	r18, r24
     79c:	22 0f       	add	r18, r18
     79e:	33 1f       	adc	r19, r19
     7a0:	29 37       	cpi	r18, 0x79	; 121
     7a2:	31 05       	cpc	r19, r1
     7a4:	1c f0       	brlt	.+6      	; 0x7ac <showFieldStrength+0x1c>
        gameNow = MAZE;
     7a6:	41 e0       	ldi	r20, 0x01	; 1
     7a8:	40 93 3e 38 	sts	0x383E, r20	; 0x80383e <gameNow>

    if (gameNow == MAZE) {
     7ac:	40 91 3e 38 	lds	r20, 0x383E	; 0x80383e <gameNow>
     7b0:	41 30       	cpi	r20, 0x01	; 1
     7b2:	21 f5       	brne	.+72     	; 0x7fc <showFieldStrength+0x6c>
        if ( tmp*2 < HALL_LOW )
     7b4:	28 37       	cpi	r18, 0x78	; 120
     7b6:	31 05       	cpc	r19, r1
     7b8:	1c f4       	brge	.+6      	; 0x7c0 <showFieldStrength+0x30>
            WingBar(0,0);
     7ba:	60 e0       	ldi	r22, 0x00	; 0
     7bc:	80 e0       	ldi	r24, 0x00	; 0
     7be:	1d c0       	rjmp	.+58     	; 0x7fa <showFieldStrength+0x6a>
        else if ( tmp   < HALL_LOW )
     7c0:	88 37       	cpi	r24, 0x78	; 120
     7c2:	91 05       	cpc	r25, r1
     7c4:	1c f4       	brge	.+6      	; 0x7cc <showFieldStrength+0x3c>
            WingBar(1,1);
     7c6:	61 e0       	ldi	r22, 0x01	; 1
     7c8:	81 e0       	ldi	r24, 0x01	; 1
     7ca:	17 c0       	rjmp	.+46     	; 0x7fa <showFieldStrength+0x6a>
        else if ( tmp*2 < HALL_HIGH )
     7cc:	2c 32       	cpi	r18, 0x2C	; 44
     7ce:	41 e0       	ldi	r20, 0x01	; 1
     7d0:	34 07       	cpc	r19, r20
     7d2:	1c f4       	brge	.+6      	; 0x7da <showFieldStrength+0x4a>
            WingBar(2,2);
     7d4:	62 e0       	ldi	r22, 0x02	; 2
     7d6:	82 e0       	ldi	r24, 0x02	; 2
     7d8:	10 c0       	rjmp	.+32     	; 0x7fa <showFieldStrength+0x6a>
        else if ( tmp*3 < HALL_HIGH*2 )
     7da:	28 0f       	add	r18, r24
     7dc:	39 1f       	adc	r19, r25
     7de:	28 35       	cpi	r18, 0x58	; 88
     7e0:	32 40       	sbci	r19, 0x02	; 2
     7e2:	1c f4       	brge	.+6      	; 0x7ea <showFieldStrength+0x5a>
            WingBar(3,3);
     7e4:	63 e0       	ldi	r22, 0x03	; 3
     7e6:	83 e0       	ldi	r24, 0x03	; 3
     7e8:	08 c0       	rjmp	.+16     	; 0x7fa <showFieldStrength+0x6a>
        else if ( tmp   < HALL_HIGH )
     7ea:	8c 32       	cpi	r24, 0x2C	; 44
     7ec:	91 40       	sbci	r25, 0x01	; 1
     7ee:	1c f4       	brge	.+6      	; 0x7f6 <showFieldStrength+0x66>
            WingBar(4,4);
     7f0:	64 e0       	ldi	r22, 0x04	; 4
     7f2:	84 e0       	ldi	r24, 0x04	; 4
     7f4:	02 c0       	rjmp	.+4      	; 0x7fa <showFieldStrength+0x6a>
        else
            WingBar(5,5);
     7f6:	65 e0       	ldi	r22, 0x05	; 5
     7f8:	85 e0       	ldi	r24, 0x05	; 5
     7fa:	f2 c6       	rjmp	.+3556   	; 0x15e0 <WingBar>
     7fc:	08 95       	ret

000007fe <MagnetMaze>:
    }
}

// Main game loop
uint8_t MagnetMaze(){
     7fe:	cf 93       	push	r28
     800:	df 93       	push	r29
    if (gameNow == MAZE && idleTimeout(mazeLastActive,MAZE_MAX_IDLE)) {
     802:	80 91 3e 38 	lds	r24, 0x383E	; 0x80383e <gameNow>
     806:	81 30       	cpi	r24, 0x01	; 1
     808:	71 f4       	brne	.+28     	; 0x826 <MagnetMaze+0x28>
     80a:	6a e0       	ldi	r22, 0x0A	; 10
     80c:	70 e0       	ldi	r23, 0x00	; 0
     80e:	80 91 47 38 	lds	r24, 0x3847	; 0x803847 <mazeLastActive>
     812:	90 91 48 38 	lds	r25, 0x3848	; 0x803848 <mazeLastActive+0x1>
     816:	0e 94 2d 0d 	call	0x1a5a	; 0x1a5a <idleTimeout>
     81a:	88 23       	and	r24, r24
     81c:	21 f0       	breq	.+8      	; 0x826 <MagnetMaze+0x28>
        /* clean up maze game and go back to text game */
        initMaze();
     81e:	a8 df       	rcall	.-176    	; 0x770 <initMaze>
        gameNow = TEXT;
     820:	10 92 3e 38 	sts	0x383E, r1	; 0x80383e <gameNow>
        return 0;
     824:	e5 c0       	rjmp	.+458    	; 0x9f0 <MagnetMaze+0x1f2>
    }
        
    if (CheckState(MAZE_INACTIVE))
     826:	87 ef       	ldi	r24, 0xF7	; 247
     828:	02 d6       	rcall	.+3076   	; 0x142e <CheckState>
     82a:	81 11       	cpse	r24, r1
     82c:	e1 c0       	rjmp	.+450    	; 0x9f0 <MagnetMaze+0x1f2>
        return 0;

    if (CheckState(MAZE_COMPLETED))
     82e:	8d e7       	ldi	r24, 0x7D	; 125
     830:	fe d5       	rcall	.+3068   	; 0x142e <CheckState>
     832:	81 11       	cpse	r24, r1
     834:	dd c0       	rjmp	.+442    	; 0x9f0 <MagnetMaze+0x1f2>
     836:	80 91 3e 38 	lds	r24, 0x383E	; 0x80383e <gameNow>
        return 0;

    if ( (gameNow != TEXT) && (gameNow != MAZE) )
     83a:	82 30       	cpi	r24, 0x02	; 2
     83c:	08 f0       	brcs	.+2      	; 0x840 <MagnetMaze+0x42>
     83e:	d8 c0       	rjmp	.+432    	; 0x9f0 <MagnetMaze+0x1f2>
     840:	80 91 f5 3a 	lds	r24, 0x3AF5	; 0x803af5 <calHall>
        return 0;

    if (calHall == 0)
     844:	90 91 f6 3a 	lds	r25, 0x3AF6	; 0x803af6 <calHall+0x1>
     848:	89 2b       	or	r24, r25
     84a:	41 f4       	brne	.+16     	; 0x85c <MagnetMaze+0x5e>
     84c:	80 91 bd 3a 	lds	r24, 0x3ABD	; 0x803abd <adcHall>
        calHall = adcHall;
     850:	90 91 be 3a 	lds	r25, 0x3ABE	; 0x803abe <adcHall+0x1>
     854:	80 93 f5 3a 	sts	0x3AF5, r24	; 0x803af5 <calHall>
     858:	90 93 f6 3a 	sts	0x3AF6, r25	; 0x803af6 <calHall+0x1>
     85c:	c0 91 bd 3a 	lds	r28, 0x3ABD	; 0x803abd <adcHall>

    int16_t valHall = adcHall - calHall;
     860:	d0 91 be 3a 	lds	r29, 0x3ABE	; 0x803abe <adcHall+0x1>
     864:	80 91 f5 3a 	lds	r24, 0x3AF5	; 0x803af5 <calHall>
     868:	90 91 f6 3a 	lds	r25, 0x3AF6	; 0x803af6 <calHall+0x1>
     86c:	c8 1b       	sub	r28, r24
     86e:	d9 0b       	sbc	r29, r25
    showFieldStrength(valHall);
     870:	ce 01       	movw	r24, r28
     872:	8e df       	rcall	.-228    	; 0x790 <showFieldStrength>
     874:	80 91 4e 38 	lds	r24, 0x384E	; 0x80384e <curHallState>

    switch (curHallState) {
     878:	81 30       	cpi	r24, 0x01	; 1
     87a:	89 f0       	breq	.+34     	; 0x89e <MagnetMaze+0xa0>
     87c:	18 f0       	brcs	.+6      	; 0x884 <MagnetMaze+0x86>
     87e:	82 30       	cpi	r24, 0x02	; 2
     880:	c1 f0       	breq	.+48     	; 0x8b2 <MagnetMaze+0xb4>
     882:	1f c0       	rjmp	.+62     	; 0x8c2 <MagnetMaze+0xc4>
     884:	c4 3d       	cpi	r28, 0xD4	; 212
        case 0:
            if ( valHall + HALL_HIGH < 0 ) {
     886:	9e ef       	ldi	r25, 0xFE	; 254
     888:	d9 07       	cpc	r29, r25
     88a:	14 f4       	brge	.+4      	; 0x890 <MagnetMaze+0x92>
     88c:	91 e0       	ldi	r25, 0x01	; 1
                newHallState = 1;
     88e:	04 c0       	rjmp	.+8      	; 0x898 <MagnetMaze+0x9a>
     890:	cd 32       	cpi	r28, 0x2D	; 45
            } else if ( valHall - HALL_HIGH > 0 ) {
     892:	d1 40       	sbci	r29, 0x01	; 1
     894:	5c f0       	brlt	.+22     	; 0x8ac <MagnetMaze+0xae>
     896:	92 e0       	ldi	r25, 0x02	; 2
                newHallState = 2;
     898:	90 93 4d 38 	sts	0x384D, r25	; 0x80384d <newHallState>
     89c:	12 c0       	rjmp	.+36     	; 0x8c2 <MagnetMaze+0xc4>
     89e:	cd 32       	cpi	r28, 0x2D	; 45
                newHallState = 0;
            }
            break;
        
        case 1:
            if ( valHall - HALL_HIGH > 0 ) {
     8a0:	91 e0       	ldi	r25, 0x01	; 1
     8a2:	d9 07       	cpc	r29, r25
     8a4:	c4 f7       	brge	.-16     	; 0x896 <MagnetMaze+0x98>
     8a6:	c9 38       	cpi	r28, 0x89	; 137
                newHallState = 2;
            } else if ( valHall + HALL_LOW > 0 ) {
     8a8:	df 4f       	sbci	r29, 0xFF	; 255
     8aa:	84 f3       	brlt	.-32     	; 0x88c <MagnetMaze+0x8e>
     8ac:	10 92 4d 38 	sts	0x384D, r1	; 0x80384d <newHallState>
            if ( valHall + HALL_HIGH < 0 ) {
                newHallState = 1;
            } else if ( valHall - HALL_HIGH > 0 ) {
                newHallState = 2;
            } else {
                newHallState = 0;
     8b0:	08 c0       	rjmp	.+16     	; 0x8c2 <MagnetMaze+0xc4>
     8b2:	c4 3d       	cpi	r28, 0xD4	; 212
                newHallState = 1;
            }
            break;
        
        case 2:
            if ( valHall + HALL_HIGH < 0 ) {
     8b4:	9e ef       	ldi	r25, 0xFE	; 254
     8b6:	d9 07       	cpc	r29, r25
     8b8:	4c f3       	brlt	.-46     	; 0x88c <MagnetMaze+0x8e>
     8ba:	c8 37       	cpi	r28, 0x78	; 120
                newHallState = 1;
            } else if ( valHall - HALL_LOW < 0 ) {
     8bc:	d1 05       	cpc	r29, r1
     8be:	b4 f3       	brlt	.-20     	; 0x8ac <MagnetMaze+0xae>
     8c0:	ea cf       	rjmp	.-44     	; 0x896 <MagnetMaze+0x98>
     8c2:	c0 91 26 be 	lds	r28, 0xBE26	; 0x80be26 <__bss_end+0x830a>
            }
            break;
    }

    /* Indicate that the magnet was read succesfully */
    iLED[CAT] = (newHallState ? dimValue : 0);
     8c6:	ec 2f       	mov	r30, r28
     8c8:	f0 e0       	ldi	r31, 0x00	; 0
     8ca:	90 91 4d 38 	lds	r25, 0x384D	; 0x80384d <newHallState>
     8ce:	99 23       	and	r25, r25
     8d0:	19 f0       	breq	.+6      	; 0x8d8 <MagnetMaze+0xda>
     8d2:	20 91 0c 38 	lds	r18, 0x380C	; 0x80380c <dimValue>
     8d6:	01 c0       	rjmp	.+2      	; 0x8da <MagnetMaze+0xdc>
     8d8:	20 e0       	ldi	r18, 0x00	; 0
     8da:	e4 53       	subi	r30, 0x34	; 52
     8dc:	f5 4c       	sbci	r31, 0xC5	; 197
     8de:	20 83       	st	Z, r18
     8e0:	2f e9       	ldi	r18, 0x9F	; 159
    effect = 0x19f;
     8e2:	31 e0       	ldi	r19, 0x01	; 1
     8e4:	20 93 3c 38 	sts	0x383C, r18	; 0x80383c <effect>
     8e8:	30 93 3d 38 	sts	0x383D, r19	; 0x80383d <effect+0x1>
     8ec:	89 17       	cp	r24, r25

    if (newHallState != curHallState) {
     8ee:	09 f4       	brne	.+2      	; 0x8f2 <MagnetMaze+0xf4>
     8f0:	7f c0       	rjmp	.+254    	; 0x9f0 <MagnetMaze+0x1f2>
     8f2:	0e 94 1e 0d 	call	0x1a3c	; 0x1a3c <getClock>
        /* keep track of time to enable an idle timeout to exit the game */
        mazeLastActive = getClock();
     8f6:	80 93 47 38 	sts	0x3847, r24	; 0x803847 <mazeLastActive>
     8fa:	90 93 48 38 	sts	0x3848, r25	; 0x803848 <mazeLastActive+0x1>
     8fe:	90 91 4c 38 	lds	r25, 0x384C	; 0x80384c <mazePos>

        /* Make the maze work regardless of badge orientation */
        if ((mazePos == 0) && (newHallState != 0))
     902:	80 91 4d 38 	lds	r24, 0x384D	; 0x80384d <newHallState>
     906:	91 11       	cpse	r25, r1
     908:	08 c0       	rjmp	.+16     	; 0x91a <MagnetMaze+0x11c>
     90a:	88 23       	and	r24, r24
     90c:	31 f0       	breq	.+12     	; 0x91a <MagnetMaze+0x11c>
     90e:	91 e0       	ldi	r25, 0x01	; 1
            inverted = (newHallState != mazeCode[0]) ? TRUE : FALSE;
     910:	81 30       	cpi	r24, 0x01	; 1
     912:	09 f4       	brne	.+2      	; 0x916 <MagnetMaze+0x118>
     914:	90 e0       	ldi	r25, 0x00	; 0
     916:	90 93 49 38 	sts	0x3849, r25	; 0x803849 <inverted>
     91a:	80 93 4e 38 	sts	0x384E, r24	; 0x80384e <curHallState>

        curHallState = newHallState;
     91e:	88 23       	and	r24, r24
        
        if (curHallState != 0) {
     920:	09 f4       	brne	.+2      	; 0x924 <MagnetMaze+0x126>
     922:	66 c0       	rjmp	.+204    	; 0x9f0 <MagnetMaze+0x1f2>
     924:	80 91 3e 38 	lds	r24, 0x383E	; 0x80383e <gameNow>
            if (gameNow == TEXT)
     928:	81 11       	cpse	r24, r1
     92a:	01 c0       	rjmp	.+2      	; 0x92e <MagnetMaze+0x130>
                initMaze();
     92c:	21 df       	rcall	.-446    	; 0x770 <initMaze>
     92e:	81 e0       	ldi	r24, 0x01	; 1
            gameNow = MAZE;
     930:	80 93 3e 38 	sts	0x383E, r24	; 0x80383e <gameNow>
     934:	80 91 49 38 	lds	r24, 0x3849	; 0x803849 <inverted>

            if ( (inverted ? curHallState^3 : curHallState) == mazeCode[mazePos]) {
     938:	20 91 4e 38 	lds	r18, 0x384E	; 0x80384e <curHallState>
     93c:	88 23       	and	r24, r24
     93e:	11 f0       	breq	.+4      	; 0x944 <MagnetMaze+0x146>
     940:	83 e0       	ldi	r24, 0x03	; 3
     942:	28 27       	eor	r18, r24
     944:	30 e0       	ldi	r19, 0x00	; 0
     946:	80 91 4c 38 	lds	r24, 0x384C	; 0x80384c <mazePos>
     94a:	e8 2f       	mov	r30, r24
     94c:	f0 e0       	ldi	r31, 0x00	; 0
     94e:	ec 59       	subi	r30, 0x9C	; 156
     950:	f1 44       	sbci	r31, 0x41	; 65
     952:	40 81       	ld	r20, Z
     954:	50 e0       	ldi	r21, 0x00	; 0
     956:	24 17       	cp	r18, r20
     958:	35 07       	cpc	r19, r21
     95a:	91 f4       	brne	.+36     	; 0x980 <MagnetMaze+0x182>
     95c:	90 91 0d 38 	lds	r25, 0x380D	; 0x80380d <mazeState>
                mazeState &= TRUE;
     960:	91 70       	andi	r25, 0x01	; 1
     962:	90 93 0d 38 	sts	0x380D, r25	; 0x80380d <mazeState>
     966:	e0 91 35 be 	lds	r30, 0xBE35	; 0x80be35 <__bss_end+0x8319>
                iLED[EYE[R][L]] = 0;
     96a:	f0 e0       	ldi	r31, 0x00	; 0
     96c:	e4 53       	subi	r30, 0x34	; 52
     96e:	f5 4c       	sbci	r31, 0xC5	; 197
     970:	10 82       	st	Z, r1
     972:	e0 91 34 be 	lds	r30, 0xBE34	; 0x80be34 <__bss_end+0x8318>
                iLED[EYE[R][R]] = 0;
     976:	f0 e0       	ldi	r31, 0x00	; 0
     978:	e4 53       	subi	r30, 0x34	; 52
     97a:	f5 4c       	sbci	r31, 0xC5	; 197
     97c:	10 82       	st	Z, r1
     97e:	02 c0       	rjmp	.+4      	; 0x984 <MagnetMaze+0x186>
     980:	10 92 0d 38 	sts	0x380D, r1	; 0x80380d <mazeState>
            } else {
                mazeState = FALSE;
     984:	8f 5f       	subi	r24, 0xFF	; 255
            }
            mazePos++;
     986:	80 93 4c 38 	sts	0x384C, r24	; 0x80384c <mazePos>
     98a:	90 91 4a 38 	lds	r25, 0x384A	; 0x80384a <mazeCnt>
            mazeCnt++;            
     98e:	9f 5f       	subi	r25, 0xFF	; 255
     990:	93 30       	cpi	r25, 0x03	; 3
            if (mazeCnt >= 3) {
     992:	18 f4       	brcc	.+6      	; 0x99a <MagnetMaze+0x19c>
     994:	90 93 4a 38 	sts	0x384A, r25	; 0x80384a <mazeCnt>
                iLED[EYE[R][R]] = 0;
            } else {
                mazeState = FALSE;
            }
            mazePos++;
            mazeCnt++;            
     998:	2b c0       	rjmp	.+86     	; 0x9f0 <MagnetMaze+0x1f2>
     99a:	10 92 4a 38 	sts	0x384A, r1	; 0x80384a <mazeCnt>
            if (mazeCnt >= 3) {
                mazeCnt = 0;
     99e:	90 91 0d 38 	lds	r25, 0x380D	; 0x80380d <mazeState>
                if (mazeState == TRUE) {
     9a2:	91 30       	cpi	r25, 0x01	; 1
     9a4:	e1 f4       	brne	.+56     	; 0x9de <MagnetMaze+0x1e0>
     9a6:	90 91 4b 38 	lds	r25, 0x384B	; 0x80384b <mazeHckrPos>
                    iLED[HCKR[G][mazeHckrPos]] = dimValue;
     9aa:	e9 2f       	mov	r30, r25
     9ac:	f0 e0       	ldi	r31, 0x00	; 0
     9ae:	e8 5c       	subi	r30, 0xC8	; 200
     9b0:	f1 44       	sbci	r31, 0x41	; 65
     9b2:	e6 81       	ldd	r30, Z+6	; 0x06
     9b4:	f0 e0       	ldi	r31, 0x00	; 0
     9b6:	20 91 0c 38 	lds	r18, 0x380C	; 0x80380c <dimValue>
     9ba:	e4 53       	subi	r30, 0x34	; 52
     9bc:	f5 4c       	sbci	r31, 0xC5	; 197
     9be:	20 83       	st	Z, r18
     9c0:	9f 5f       	subi	r25, 0xFF	; 255
                    mazeHckrPos++;
     9c2:	90 93 4b 38 	sts	0x384B, r25	; 0x80384b <mazeHckrPos>
                    if (mazePos == sizeof(mazeCode)) {
     9c6:	82 31       	cpi	r24, 0x12	; 18
     9c8:	99 f4       	brne	.+38     	; 0x9f0 <MagnetMaze+0x1f2>
                        UpdateState(MAZE_COMPLETED);
     9ca:	8d e7       	ldi	r24, 0x7D	; 125
     9cc:	26 d5       	rcall	.+2636   	; 0x141a <UpdateState>
     9ce:	ec 2f       	mov	r30, r28
                        iLED[CAT]       = 0;
     9d0:	f0 e0       	ldi	r31, 0x00	; 0
     9d2:	e4 53       	subi	r30, 0x34	; 52
     9d4:	f5 4c       	sbci	r31, 0xC5	; 197
     9d6:	10 82       	st	Z, r1
                        effect = 0x42;
     9d8:	82 e4       	ldi	r24, 0x42	; 66
     9da:	90 e0       	ldi	r25, 0x00	; 0
     9dc:	05 c0       	rjmp	.+10     	; 0x9e8 <MagnetMaze+0x1ea>
                        /*TODO state = STATE_MUSIC;*/
                    }
                } else {
                    initMaze();
     9de:	c8 de       	rcall	.-624    	; 0x770 <initMaze>
     9e0:	10 92 3e 38 	sts	0x383E, r1	; 0x80383e <gameNow>
                    gameNow   = TEXT;
     9e4:	81 e2       	ldi	r24, 0x21	; 33
                    effect = 0x21;
     9e6:	90 e0       	ldi	r25, 0x00	; 0
     9e8:	80 93 3c 38 	sts	0x383C, r24	; 0x80383c <effect>
     9ec:	90 93 3d 38 	sts	0x383D, r25	; 0x80383d <effect+0x1>
     9f0:	80 e0       	ldi	r24, 0x00	; 0
                }
            }
        }
    }
    return 0;
}
     9f2:	df 91       	pop	r29
     9f4:	cf 91       	pop	r28
     9f6:	08 95       	ret

000009f8 <Setup>:
     9f8:	cf 93       	push	r28
volatile uint16_t tmp16bit;    
volatile uint8_t mask[8] = {0x01, 0x03, 0x07, 0x0f, 0x1f, 0x3f, 0x7f, 0xff};
uint8_t HeartCount = 0;
uint8_t LedCount = 0;

void Setup(){
     9fa:	df 93       	push	r29
    cli();
     9fc:	f8 94       	cli

    //Set up clock at 10MHz
    CCP = CCP_IOREG_gc;
     9fe:	88 ed       	ldi	r24, 0xD8	; 216
     a00:	84 bf       	out	0x34, r24	; 52
    CLKCTRL_MCLKCTRLB = 0x01;
     a02:	c1 e0       	ldi	r28, 0x01	; 1
     a04:	c0 93 61 00 	sts	0x0061, r28	; 0x800061 <__TEXT_REGION_LENGTH__+0x700061>

    //Set I/O direction registers
    PORTA_DIR = 0b01001010;
     a08:	8a e4       	ldi	r24, 0x4A	; 74
     a0a:	80 93 00 04 	sts	0x0400, r24	; 0x800400 <__TEXT_REGION_LENGTH__+0x700400>
    PORTB_DIR = 0b01111100;
     a0e:	8c e7       	ldi	r24, 0x7C	; 124
     a10:	80 93 20 04 	sts	0x0420, r24	; 0x800420 <__TEXT_REGION_LENGTH__+0x700420>
    PORTC_DIR = 0b00111111;
     a14:	9f e3       	ldi	r25, 0x3F	; 63
     a16:	90 93 40 04 	sts	0x0440, r25	; 0x800440 <__TEXT_REGION_LENGTH__+0x700440>

    //Invert some pins for correcting LED reversal error
    PORTC_PIN3CTRL |= 0x80;
     a1a:	80 91 53 04 	lds	r24, 0x0453	; 0x800453 <__TEXT_REGION_LENGTH__+0x700453>
     a1e:	80 68       	ori	r24, 0x80	; 128
     a20:	80 93 53 04 	sts	0x0453, r24	; 0x800453 <__TEXT_REGION_LENGTH__+0x700453>
    PORTC_PIN4CTRL |= 0x80;
     a24:	80 91 54 04 	lds	r24, 0x0454	; 0x800454 <__TEXT_REGION_LENGTH__+0x700454>
     a28:	80 68       	ori	r24, 0x80	; 128
     a2a:	80 93 54 04 	sts	0x0454, r24	; 0x800454 <__TEXT_REGION_LENGTH__+0x700454>
    PORTC_PIN5CTRL |= 0x80;
     a2e:	80 91 55 04 	lds	r24, 0x0455	; 0x800455 <__TEXT_REGION_LENGTH__+0x700455>
     a32:	80 68       	ori	r24, 0x80	; 128
     a34:	80 93 55 04 	sts	0x0455, r24	; 0x800455 <__TEXT_REGION_LENGTH__+0x700455>
    PORTB_PIN3CTRL |= 0x80;
     a38:	80 91 33 04 	lds	r24, 0x0433	; 0x800433 <__TEXT_REGION_LENGTH__+0x700433>
     a3c:	80 68       	ori	r24, 0x80	; 128
     a3e:	80 93 33 04 	sts	0x0433, r24	; 0x800433 <__TEXT_REGION_LENGTH__+0x700433>
    PORTB_PIN4CTRL |= 0x80;
     a42:	80 91 34 04 	lds	r24, 0x0434	; 0x800434 <__TEXT_REGION_LENGTH__+0x700434>
     a46:	80 68       	ori	r24, 0x80	; 128
     a48:	80 93 34 04 	sts	0x0434, r24	; 0x800434 <__TEXT_REGION_LENGTH__+0x700434>
    PORTB_PIN5CTRL |= 0x80;
     a4c:	80 91 35 04 	lds	r24, 0x0435	; 0x800435 <__TEXT_REGION_LENGTH__+0x700435>
     a50:	80 68       	ori	r24, 0x80	; 128
     a52:	80 93 35 04 	sts	0x0435, r24	; 0x800435 <__TEXT_REGION_LENGTH__+0x700435>
    PORTB_PIN2CTRL |= 0x80;
    PORTB_PIN6CTRL |= 0x80;
    */

    //UART (Alternative pins PA1=TxD, PA2=RxD, baudrate 9600, 8n1, RX and Buffer empty interrupts on)
    PORTMUX_CTRLB = 0x01;
     a56:	c0 93 01 02 	sts	0x0201, r28	; 0x800201 <__TEXT_REGION_LENGTH__+0x700201>
    PORTA_OUTSET = 0x02;
     a5a:	d2 e0       	ldi	r29, 0x02	; 2
     a5c:	d0 93 05 04 	sts	0x0405, r29	; 0x800405 <__TEXT_REGION_LENGTH__+0x700405>
    USART0_BAUD = (uint16_t)USART0_BAUD_RATE(115200);
     a60:	2b e5       	ldi	r18, 0x5B	; 91
     a62:	31 e0       	ldi	r19, 0x01	; 1
     a64:	20 93 08 08 	sts	0x0808, r18	; 0x800808 <__TEXT_REGION_LENGTH__+0x700808>
     a68:	30 93 09 08 	sts	0x0809, r19	; 0x800809 <__TEXT_REGION_LENGTH__+0x700809>
    USART0_CTRLA = 0xA0; //Interrupts on
     a6c:	80 ea       	ldi	r24, 0xA0	; 160
     a6e:	80 93 05 08 	sts	0x0805, r24	; 0x800805 <__TEXT_REGION_LENGTH__+0x700805>
    USART0_CTRLB = 0xC0; //RX and TX on
     a72:	80 ec       	ldi	r24, 0xC0	; 192
     a74:	80 93 06 08 	sts	0x0806, r24	; 0x800806 <__TEXT_REGION_LENGTH__+0x700806>
    USART0_CTRLC = 0x03; //8 bits data, no parity, 1 stop bit
     a78:	83 e0       	ldi	r24, 0x03	; 3
     a7a:	80 93 07 08 	sts	0x0807, r24	; 0x800807 <__TEXT_REGION_LENGTH__+0x700807>
     
    //GPIO registers 0..3 can be used for global variables used in ISR routines (ASM capability: IN, OUT, SBI, CBI, SBIS, SBIC)
    L_COL = 0;     //Used in LED array to hold currently driven column value
     a7e:	1c ba       	out	0x1c, r1	; 28
    RXCNT = 0;     //Used as UART receive counter
     a80:	1d ba       	out	0x1d, r1	; 29
    AUPOS = 0;     //Used as audio input/output buffer counter
     a82:	1e ba       	out	0x1e, r1	; 30
    GPIOR3 = 0;    //
     a84:	1f ba       	out	0x1f, r1	; 31

    //Init TCA (split mode, f_CLK/16, PWM on 6 alternative pins, underflow int enabled, synced and started)
    TCA0_SPLIT_CTRLD = 1;
     a86:	c0 93 03 0a 	sts	0x0A03, r28	; 0x800a03 <__TEXT_REGION_LENGTH__+0x700a03>
    TCA0_SPLIT_CTRLA = (0x4)<<1;
     a8a:	88 e0       	ldi	r24, 0x08	; 8
     a8c:	80 93 00 0a 	sts	0x0A00, r24	; 0x800a00 <__TEXT_REGION_LENGTH__+0x700a00>
    PORTMUX_CTRLC = 0x3F;
     a90:	90 93 02 02 	sts	0x0202, r25	; 0x800202 <__TEXT_REGION_LENGTH__+0x700202>
    TCA0_SPLIT_CTRLB = 0x77;
     a94:	87 e7       	ldi	r24, 0x77	; 119
     a96:	80 93 01 0a 	sts	0x0A01, r24	; 0x800a01 <__TEXT_REGION_LENGTH__+0x700a01>
    TCA0_SPLIT_INTCTRL = 0x1;
     a9a:	c0 93 0a 0a 	sts	0x0A0A, r28	; 0x800a0a <__TEXT_REGION_LENGTH__+0x700a0a>
    TCA0_SPLIT_CTRLESET = ((0x2)<<2)|0x3;
     a9e:	8b e0       	ldi	r24, 0x0B	; 11
     aa0:	80 93 05 0a 	sts	0x0A05, r24	; 0x800a05 <__TEXT_REGION_LENGTH__+0x700a05>
    TCA0_SPLIT_CTRLA |= 1;
     aa4:	80 91 00 0a 	lds	r24, 0x0A00	; 0x800a00 <__TEXT_REGION_LENGTH__+0x700a00>
     aa8:	81 60       	ori	r24, 0x01	; 1
     aaa:	80 93 00 0a 	sts	0x0A00, r24	; 0x800a00 <__TEXT_REGION_LENGTH__+0x700a00>
     
    //Init TCB0 (compare value sets serial Tx pause between characters, uses TCA0 prescaler, enabled, interrupt disabled)
    TCB0_CTRLA = ((0x02)<<1)|0x01;
     aae:	85 e0       	ldi	r24, 0x05	; 5
     ab0:	80 93 40 0a 	sts	0x0A40, r24	; 0x800a40 <__TEXT_REGION_LENGTH__+0x700a40>
    TCB0_CTRLB = 0;
     ab4:	10 92 41 0a 	sts	0x0A41, r1	; 0x800a41 <__TEXT_REGION_LENGTH__+0x700a41>
    TCB0_CCMP = 0x01FF;
     ab8:	8f ef       	ldi	r24, 0xFF	; 255
     aba:	91 e0       	ldi	r25, 0x01	; 1
     abc:	80 93 4c 0a 	sts	0x0A4C, r24	; 0x800a4c <__TEXT_REGION_LENGTH__+0x700a4c>
     ac0:	90 93 4d 0a 	sts	0x0A4D, r25	; 0x800a4d <__TEXT_REGION_LENGTH__+0x700a4d>
    TCB0_INTCTRL = 0x00;     
     ac4:	10 92 45 0a 	sts	0x0A45, r1	; 0x800a45 <__TEXT_REGION_LENGTH__+0x700a45>
     
    //Init TCB1 (compare value sets audio sample rate (0x038B = 11025sps), enabled, interrupt enabled)
    TCB1_CTRLA = 0x01;
     ac8:	c0 93 50 0a 	sts	0x0A50, r28	; 0x800a50 <__TEXT_REGION_LENGTH__+0x700a50>
    TCB1_CTRLB = 0;
     acc:	10 92 51 0a 	sts	0x0A51, r1	; 0x800a51 <__TEXT_REGION_LENGTH__+0x700a51>
    TCB1_CCMP = 0x038B;
     ad0:	8b e8       	ldi	r24, 0x8B	; 139
     ad2:	93 e0       	ldi	r25, 0x03	; 3
     ad4:	80 93 5c 0a 	sts	0x0A5C, r24	; 0x800a5c <__TEXT_REGION_LENGTH__+0x700a5c>
     ad8:	90 93 5d 0a 	sts	0x0A5D, r25	; 0x800a5d <__TEXT_REGION_LENGTH__+0x700a5d>
    TCB1_INTCTRL = 0x01;
     adc:	c0 93 55 0a 	sts	0x0A55, r28	; 0x800a55 <__TEXT_REGION_LENGTH__+0x700a55>

    //Init I2C (100kHz)
    I2C_init();
     ae0:	47 dc       	rcall	.-1906   	; 0x370 <I2C_init>

    //VREF (DAC, ADC's)
    VREF_CTRLA   = 0x12;    //0x22 for audio in/out (2.5V), 0x12 for temperature in, audio out (1.1V/2.5V)
     ae2:	82 e1       	ldi	r24, 0x12	; 18
     ae4:	80 93 a0 00 	sts	0x00A0, r24	; 0x8000a0 <__TEXT_REGION_LENGTH__+0x7000a0>
    VREF_CTRLC   = 0x20;    //ADC1 reference at 2.5V
     ae8:	80 e2       	ldi	r24, 0x20	; 32
     aea:	80 93 a2 00 	sts	0x00A2, r24	; 0x8000a2 <__TEXT_REGION_LENGTH__+0x7000a2>
    VREF_CTRLB   = 0x01;    //DAC0 ref forced enabled
     aee:	c0 93 a1 00 	sts	0x00A1, r28	; 0x8000a1 <__TEXT_REGION_LENGTH__+0x7000a1>

    //Init ADC0 (audio in, also controls DAC output rate, internal temperature?)
    ADC0_CTRLA   = 0x02;    //10 bit resolution, free running
     af2:	d0 93 00 06 	sts	0x0600, r29	; 0x800600 <__TEXT_REGION_LENGTH__+0x700600>
    ADC0_CTRLC   = 0x44;    //Reduced sample capacitor, internal reference, clock/32 => 24038sps
     af6:	84 e4       	ldi	r24, 0x44	; 68
     af8:	80 93 02 06 	sts	0x0602, r24	; 0x800602 <__TEXT_REGION_LENGTH__+0x700602>
    ADC0_MUXPOS  = 0x1E;    //Audio in: AIN7 at (0x07), Temperature: Internal sensor at (0x1E)
     afc:	8e e1       	ldi	r24, 0x1E	; 30
     afe:	80 93 06 06 	sts	0x0606, r24	; 0x800606 <__TEXT_REGION_LENGTH__+0x700606>
    ADC0_INTCTRL = 0x01;    //Result ready interrupt enabled
     b02:	c0 93 0a 06 	sts	0x060A, r28	; 0x80060a <__TEXT_REGION_LENGTH__+0x70060a>
    ADC0_CTRLA  |= 0x01;    //ADC0 enabled
     b06:	80 91 00 06 	lds	r24, 0x0600	; 0x800600 <__TEXT_REGION_LENGTH__+0x700600>
     b0a:	81 60       	ori	r24, 0x01	; 1
     b0c:	80 93 00 06 	sts	0x0600, r24	; 0x800600 <__TEXT_REGION_LENGTH__+0x700600>
    ADC0_COMMAND = 0x01;    //Start first conversion, after that it will run periodically.
     b10:	c0 93 08 06 	sts	0x0608, r28	; 0x800608 <__TEXT_REGION_LENGTH__+0x700608>

    //Init ADC1 (buttons and sensors: CH0=Photo transistor, CH1=Hall, CH4=Buttons)
    ADC1_CTRLA   = 0;
     b14:	10 92 40 06 	sts	0x0640, r1	; 0x800640 <__TEXT_REGION_LENGTH__+0x700640>
    ADC1_CTRLB   = 0x02;    //4 results automatically accumulated
     b18:	d0 93 41 06 	sts	0x0641, r29	; 0x800641 <__TEXT_REGION_LENGTH__+0x700641>
    ADC1_CTRLC   = 0x52;    //Reduced sample capacitor, VDD as reference, clock/8
     b1c:	82 e5       	ldi	r24, 0x52	; 82
     b1e:	80 93 42 06 	sts	0x0642, r24	; 0x800642 <__TEXT_REGION_LENGTH__+0x700642>
    ADC1_SAMPCTRL= 0x04;    //Extend sampling time with 4 cycles (6 total)
     b22:	84 e0       	ldi	r24, 0x04	; 4
     b24:	80 93 45 06 	sts	0x0645, r24	; 0x800645 <__TEXT_REGION_LENGTH__+0x700645>
    ADC1_MUXPOS  = 0x04;    //Start with Buttons, for sensors, activate sensor power first.
     b28:	80 93 46 06 	sts	0x0646, r24	; 0x800646 <__TEXT_REGION_LENGTH__+0x700646>
    ADC1_INTCTRL = 0x01;    //Result ready interrupt enabled
     b2c:	c0 93 4a 06 	sts	0x064A, r28	; 0x80064a <__TEXT_REGION_LENGTH__+0x70064a>
    ADC1_CTRLA  |= 0x01;    //ADC0 enabled
     b30:	80 91 40 06 	lds	r24, 0x0640	; 0x800640 <__TEXT_REGION_LENGTH__+0x700640>
     b34:	81 60       	ori	r24, 0x01	; 1
     b36:	80 93 40 06 	sts	0x0640, r24	; 0x800640 <__TEXT_REGION_LENGTH__+0x700640>
    ADC1_COMMAND = 0x01;    //Start single conversion
     b3a:	c0 93 48 06 	sts	0x0648, r28	; 0x800648 <__TEXT_REGION_LENGTH__+0x700648>

    //Init DAC0
    DAC0_CTRLA = 0x40;     //Enable output buffer (connect to pin)
     b3e:	80 e4       	ldi	r24, 0x40	; 64
     b40:	80 93 a0 06 	sts	0x06A0, r24	; 0x8006a0 <__TEXT_REGION_LENGTH__+0x7006a0>
    DAC0_DATA = 0x80;      //Data value at half point (about 1.25V)
     b44:	80 e8       	ldi	r24, 0x80	; 128
     b46:	80 93 a1 06 	sts	0x06A1, r24	; 0x8006a1 <__TEXT_REGION_LENGTH__+0x7006a1>
    DAC0_CTRLA |= 0x01;    //Enable DAC
     b4a:	80 91 a0 06 	lds	r24, 0x06A0	; 0x8006a0 <__TEXT_REGION_LENGTH__+0x7006a0>
     b4e:	81 60       	ori	r24, 0x01	; 1
     b50:	80 93 a0 06 	sts	0x06A0, r24	; 0x8006a0 <__TEXT_REGION_LENGTH__+0x7006a0>
     
    //PIT and RTC interrupts
    while(RTC_STATUS & RTC_CTRLABUSY_bm);
     b54:	80 91 41 01 	lds	r24, 0x0141	; 0x800141 <__TEXT_REGION_LENGTH__+0x700141>
     b58:	80 fd       	sbrc	r24, 0
     b5a:	fc cf       	rjmp	.-8      	; 0xb54 <Setup+0x15c>
    RTC_CTRLA          = (0x6)<<3;                         //Prescaler: /64
     b5c:	80 e3       	ldi	r24, 0x30	; 48
     b5e:	80 93 40 01 	sts	0x0140, r24	; 0x800140 <__TEXT_REGION_LENGTH__+0x700140>
    RTC_CLKSEL         = 0;                                //Clock source: internal 32768Hz clock
     b62:	10 92 47 01 	sts	0x0147, r1	; 0x800147 <__TEXT_REGION_LENGTH__+0x700147>
    while(RTC_STATUS & RTC_PERBUSY_bm);
     b66:	80 91 41 01 	lds	r24, 0x0141	; 0x800141 <__TEXT_REGION_LENGTH__+0x700141>
     b6a:	82 fd       	sbrc	r24, 2
     b6c:	fc cf       	rjmp	.-8      	; 0xb66 <Setup+0x16e>
    RTC_PER            = 512*60;                           //60 second period (for clocking how long the device has been running?)
     b6e:	80 e0       	ldi	r24, 0x00	; 0
     b70:	98 e7       	ldi	r25, 0x78	; 120
     b72:	80 93 4a 01 	sts	0x014A, r24	; 0x80014a <__TEXT_REGION_LENGTH__+0x70014a>
     b76:	90 93 4b 01 	sts	0x014B, r25	; 0x80014b <__TEXT_REGION_LENGTH__+0x70014b>
    tmp16bit = (RTC_CNT + BTN_TMR);
     b7a:	80 91 48 01 	lds	r24, 0x0148	; 0x800148 <__TEXT_REGION_LENGTH__+0x700148>
     b7e:	90 91 49 01 	lds	r25, 0x0149	; 0x800149 <__TEXT_REGION_LENGTH__+0x700149>
     b82:	82 96       	adiw	r24, 0x22	; 34
     b84:	80 93 f9 3a 	sts	0x3AF9, r24	; 0x803af9 <tmp16bit>
     b88:	90 93 fa 3a 	sts	0x3AFA, r25	; 0x803afa <tmp16bit+0x1>
    if (tmp16bit > RTC_PER) tmp16bit -= RTC_PER;
     b8c:	20 91 4a 01 	lds	r18, 0x014A	; 0x80014a <__TEXT_REGION_LENGTH__+0x70014a>
     b90:	30 91 4b 01 	lds	r19, 0x014B	; 0x80014b <__TEXT_REGION_LENGTH__+0x70014b>
     b94:	80 91 f9 3a 	lds	r24, 0x3AF9	; 0x803af9 <tmp16bit>
     b98:	90 91 fa 3a 	lds	r25, 0x3AFA	; 0x803afa <tmp16bit+0x1>
     b9c:	28 17       	cp	r18, r24
     b9e:	39 07       	cpc	r19, r25
     ba0:	70 f4       	brcc	.+28     	; 0xbbe <Setup+0x1c6>
     ba2:	20 91 4a 01 	lds	r18, 0x014A	; 0x80014a <__TEXT_REGION_LENGTH__+0x70014a>
     ba6:	30 91 4b 01 	lds	r19, 0x014B	; 0x80014b <__TEXT_REGION_LENGTH__+0x70014b>
     baa:	80 91 f9 3a 	lds	r24, 0x3AF9	; 0x803af9 <tmp16bit>
     bae:	90 91 fa 3a 	lds	r25, 0x3AFA	; 0x803afa <tmp16bit+0x1>
     bb2:	82 1b       	sub	r24, r18
     bb4:	93 0b       	sbc	r25, r19
     bb6:	80 93 f9 3a 	sts	0x3AF9, r24	; 0x803af9 <tmp16bit>
     bba:	90 93 fa 3a 	sts	0x3AFA, r25	; 0x803afa <tmp16bit+0x1>
    while(RTC_STATUS & RTC_CMPBUSY_bm);
     bbe:	80 91 41 01 	lds	r24, 0x0141	; 0x800141 <__TEXT_REGION_LENGTH__+0x700141>
     bc2:	83 fd       	sbrc	r24, 3
     bc4:	fc cf       	rjmp	.-8      	; 0xbbe <Setup+0x1c6>
    RTC_CMP            = tmp16bit;                         //Button timing
     bc6:	80 91 f9 3a 	lds	r24, 0x3AF9	; 0x803af9 <tmp16bit>
     bca:	90 91 fa 3a 	lds	r25, 0x3AFA	; 0x803afa <tmp16bit+0x1>
     bce:	80 93 4c 01 	sts	0x014C, r24	; 0x80014c <__TEXT_REGION_LENGTH__+0x70014c>
     bd2:	90 93 4d 01 	sts	0x014D, r25	; 0x80014d <__TEXT_REGION_LENGTH__+0x70014d>
    RTC_INTCTRL        = 0x03;                             //RTC overflow interrupt enabled
     bd6:	83 e0       	ldi	r24, 0x03	; 3
     bd8:	80 93 42 01 	sts	0x0142, r24	; 0x800142 <__TEXT_REGION_LENGTH__+0x700142>
    RTC_PITINTCTRL     = 0x01;                             //PIT interrupt enabled
     bdc:	81 e0       	ldi	r24, 0x01	; 1
     bde:	80 93 52 01 	sts	0x0152, r24	; 0x800152 <__TEXT_REGION_LENGTH__+0x700152>
    RTC_PITCTRLA       = (0x1)<<3;                         //Interrupt fires after 4 RTC clock cycles Rate=(RTCCLK/(PRESC*PERIOD)) 32768/256=128Hz
     be2:	88 e0       	ldi	r24, 0x08	; 8
     be4:	80 93 50 01 	sts	0x0150, r24	; 0x800150 <__TEXT_REGION_LENGTH__+0x700150>
    while(RTC_STATUS & RTC_CTRLABUSY_bm);      
     be8:	80 91 41 01 	lds	r24, 0x0141	; 0x800141 <__TEXT_REGION_LENGTH__+0x700141>
     bec:	80 fd       	sbrc	r24, 0
     bee:	fc cf       	rjmp	.-8      	; 0xbe8 <Setup+0x1f0>
    RTC_CTRLA          |= 0x01;                            //Enable RTC
     bf0:	80 91 40 01 	lds	r24, 0x0140	; 0x800140 <__TEXT_REGION_LENGTH__+0x700140>
     bf4:	81 60       	ori	r24, 0x01	; 1
     bf6:	80 93 40 01 	sts	0x0140, r24	; 0x800140 <__TEXT_REGION_LENGTH__+0x700140>
    RTC_PITCTRLA       |= 0x01;                            //Enable PIT
     bfa:	80 91 50 01 	lds	r24, 0x0150	; 0x800150 <__TEXT_REGION_LENGTH__+0x700150>
     bfe:	81 60       	ori	r24, 0x01	; 1
     c00:	80 93 50 01 	sts	0x0150, r24	; 0x800150 <__TEXT_REGION_LENGTH__+0x700150>
     
    //Other inits
    serRx[0] = 0;           // Empty Rx buffer (first char is enough)
     c04:	10 92 77 3a 	sts	0x3A77, r1	; 0x803a77 <serRx>
    serTxAddr = &serRx[0];  // Point to first address of the Rx buffer
     c08:	87 e7       	ldi	r24, 0x77	; 119
     c0a:	9a e3       	ldi	r25, 0x3A	; 58
     c0c:	80 93 bb 3a 	sts	0x3ABB, r24	; 0x803abb <serTxAddr>
     c10:	90 93 bc 3a 	sts	0x3ABC, r25	; 0x803abc <serTxAddr+0x1>

    sei();
     c14:	78 94       	sei
}
     c16:	df 91       	pop	r29
     c18:	cf 91       	pop	r28
     c1a:	08 95       	ret

00000c1c <__vector_8>:

// TCA0 is used for driving the LED matrix at 488Hz (* 5 columns = 2440Hz). The lower 8 bit underflow interrupt is used to load new values and shift between columns.
ISR(TCA0_LUNF_vect){
     c1c:	1f 92       	push	r1
     c1e:	0f 92       	push	r0
     c20:	0f b6       	in	r0, 0x3f	; 63
     c22:	0f 92       	push	r0
     c24:	11 24       	eor	r1, r1
     c26:	8f 93       	push	r24
     c28:	9f 93       	push	r25
     c2a:	af 93       	push	r26
     c2c:	bf 93       	push	r27
     c2e:	ef 93       	push	r30
     c30:	ff 93       	push	r31
    //Turn off all columns
    PORTC_OUTCLR = 0x07;
     c32:	87 e0       	ldi	r24, 0x07	; 7
     c34:	80 93 46 04 	sts	0x0446, r24	; 0x800446 <__TEXT_REGION_LENGTH__+0x700446>
    PORTB_OUTCLR = 0x44;
     c38:	84 e4       	ldi	r24, 0x44	; 68
     c3a:	80 93 26 04 	sts	0x0426, r24	; 0x800426 <__TEXT_REGION_LENGTH__+0x700426>
    "ldi r25, 6        \n"
    "ld r24, %a[arr]+  \n"
    "st %a[wo]+, r24   \n"
    "dec r25           \n"
    "brne .-8          \n"
    :: [wo] "e" (&TCA0_SPLIT_LCMP0), [arr] "e" (&iLED[(L_COL<<3)]) : "r25", "r24", "cc", "memory");
     c3e:	ec b3       	in	r30, 0x1c	; 28
     c40:	88 e0       	ldi	r24, 0x08	; 8
     c42:	e8 9f       	mul	r30, r24
     c44:	f0 01       	movw	r30, r0
     c46:	11 24       	eor	r1, r1
     c48:	e4 53       	subi	r30, 0x34	; 52
     c4a:	f5 4c       	sbci	r31, 0xC5	; 197
    //Turn off all columns
    PORTC_OUTCLR = 0x07;
    PORTB_OUTCLR = 0x44;

    //Write all of the compare registers of TCA0 with PWM values in array (rows)
    asm(
     c4c:	a8 e2       	ldi	r26, 0x28	; 40
     c4e:	ba e0       	ldi	r27, 0x0A	; 10
     c50:	96 e0       	ldi	r25, 0x06	; 6
     c52:	81 91       	ld	r24, Z+
     c54:	8d 93       	st	X+, r24
     c56:	9a 95       	dec	r25
     c58:	e1 f7       	brne	.-8      	; 0xc52 <__vector_8+0x36>
    "st %a[wo]+, r24   \n"
    "dec r25           \n"
    "brne .-8          \n"
    :: [wo] "e" (&TCA0_SPLIT_LCMP0), [arr] "e" (&iLED[(L_COL<<3)]) : "r25", "r24", "cc", "memory");

    TCA0_SPLIT_CTRLESET = ((0x2)<<2)|0x3; //Sync timers: Moved this below the PWM value loading to fix the data shifting in asm above.
     c5a:	8b e0       	ldi	r24, 0x0B	; 11
     c5c:	80 93 05 0a 	sts	0x0A05, r24	; 0x800a05 <__TEXT_REGION_LENGTH__+0x700a05>

    //Turn on the right column
    if (L_COL<3) {
     c60:	8c b3       	in	r24, 0x1c	; 28
     c62:	83 30       	cpi	r24, 0x03	; 3
     c64:	58 f4       	brcc	.+22     	; 0xc7c <__vector_8+0x60>
        asm(
     c66:	8c b3       	in	r24, 0x1c	; 28
     c68:	91 e0       	ldi	r25, 0x01	; 1
     c6a:	01 c0       	rjmp	.+2      	; 0xc6e <__vector_8+0x52>
     c6c:	99 0f       	add	r25, r25
     c6e:	8a 95       	dec	r24
     c70:	ea f7       	brpl	.-6      	; 0xc6c <__vector_8+0x50>
     c72:	99 b9       	out	0x09, r25	; 9
     c74:	8c b3       	in	r24, 0x1c	; 28
     c76:	83 95       	inc	r24
     c78:	8c bb       	out	0x1c, r24	; 28
     c7a:	0a c0       	rjmp	.+20     	; 0xc90 <__vector_8+0x74>
        "in r24, %[io0]  \n"
        "inc r24         \n"
        "out %[io0], r24 \n"
        :: [io0] "I" (&L_COL), [vpc] "I" (&VPORTC_OUT) : "r24", "r25", "cc");
        } else {
        asm(
     c7c:	8c b3       	in	r24, 0x1c	; 28
     c7e:	83 30       	cpi	r24, 0x03	; 3
     c80:	21 f4       	brne	.+8      	; 0xc8a <__vector_8+0x6e>
     c82:	2a 9a       	sbi	0x05, 2	; 5
     c84:	83 95       	inc	r24
     c86:	8c bb       	out	0x1c, r24	; 28
     c88:	03 c0       	rjmp	.+6      	; 0xc90 <__vector_8+0x74>
     c8a:	2e 9a       	sbi	0x05, 6	; 5
     c8c:	88 27       	eor	r24, r24
     c8e:	8c bb       	out	0x1c, r24	; 28
        "clr r24         \n"
        "out %[io0], r24 \n"
        :: [io0] "I" (&L_COL), [vpb] "I" (&VPORTB_OUT) : "r24", "cc");
    }
    
    if(timeout_I2C) --timeout_I2C;
     c90:	80 91 62 3a 	lds	r24, 0x3A62	; 0x803a62 <timeout_I2C>
     c94:	88 23       	and	r24, r24
     c96:	29 f0       	breq	.+10     	; 0xca2 <__vector_8+0x86>
     c98:	80 91 62 3a 	lds	r24, 0x3A62	; 0x803a62 <timeout_I2C>
     c9c:	81 50       	subi	r24, 0x01	; 1
     c9e:	80 93 62 3a 	sts	0x3A62, r24	; 0x803a62 <timeout_I2C>
    TCA0_SPLIT_INTFLAGS = 0xFF;
     ca2:	8f ef       	ldi	r24, 0xFF	; 255
     ca4:	80 93 0b 0a 	sts	0x0A0B, r24	; 0x800a0b <__TEXT_REGION_LENGTH__+0x700a0b>
}
     ca8:	ff 91       	pop	r31
     caa:	ef 91       	pop	r30
     cac:	bf 91       	pop	r27
     cae:	af 91       	pop	r26
     cb0:	9f 91       	pop	r25
     cb2:	8f 91       	pop	r24
     cb4:	0f 90       	pop	r0
     cb6:	0f be       	out	0x3f, r0	; 63
     cb8:	0f 90       	pop	r0
     cba:	1f 90       	pop	r1
     cbc:	18 95       	reti

00000cbe <__vector_13>:

// TCB0 is used for (slowly) sending serial characters. A 0x00 character code is needed to terminate sending or it will leak memory to serial. It's a feature, honest! 
ISR(TCB0_INT_vect){
     cbe:	1f 92       	push	r1
     cc0:	0f 92       	push	r0
     cc2:	0f b6       	in	r0, 0x3f	; 63
     cc4:	0f 92       	push	r0
     cc6:	11 24       	eor	r1, r1
     cc8:	8f 93       	push	r24
     cca:	9f 93       	push	r25
     ccc:	ef 93       	push	r30
     cce:	ff 93       	push	r31
    if (*serTxAddr) {
     cd0:	e0 91 bb 3a 	lds	r30, 0x3ABB	; 0x803abb <serTxAddr>
     cd4:	f0 91 bc 3a 	lds	r31, 0x3ABC	; 0x803abc <serTxAddr+0x1>
     cd8:	80 81       	ld	r24, Z
     cda:	88 23       	and	r24, r24
     cdc:	91 f0       	breq	.+36     	; 0xd02 <__vector_13+0x44>
        USART0_TXDATAL = *serTxAddr;
     cde:	80 81       	ld	r24, Z
     ce0:	80 93 02 08 	sts	0x0802, r24	; 0x800802 <__TEXT_REGION_LENGTH__+0x700802>
        serTxAddr++;
     ce4:	80 91 bb 3a 	lds	r24, 0x3ABB	; 0x803abb <serTxAddr>
     ce8:	90 91 bc 3a 	lds	r25, 0x3ABC	; 0x803abc <serTxAddr+0x1>
     cec:	01 96       	adiw	r24, 0x01	; 1
     cee:	80 93 bb 3a 	sts	0x3ABB, r24	; 0x803abb <serTxAddr>
     cf2:	90 93 bc 3a 	sts	0x3ABC, r25	; 0x803abc <serTxAddr+0x1>
        USART0_CTRLA |= USART_DREIE_bm;
     cf6:	80 91 05 08 	lds	r24, 0x0805	; 0x800805 <__TEXT_REGION_LENGTH__+0x700805>
     cfa:	80 62       	ori	r24, 0x20	; 32
     cfc:	80 93 05 08 	sts	0x0805, r24	; 0x800805 <__TEXT_REGION_LENGTH__+0x700805>
     d00:	05 c0       	rjmp	.+10     	; 0xd0c <__vector_13+0x4e>
    } else {
        serTxDone = 1;
     d02:	81 e0       	ldi	r24, 0x01	; 1
     d04:	80 93 09 38 	sts	0x3809, r24	; 0x803809 <serTxDone>
        TCB0_INTCTRL = 0x00;
     d08:	10 92 45 0a 	sts	0x0A45, r1	; 0x800a45 <__TEXT_REGION_LENGTH__+0x700a45>
    }
    TCB0_INTFLAGS = TCB_CAPT_bm;
     d0c:	81 e0       	ldi	r24, 0x01	; 1
     d0e:	80 93 46 0a 	sts	0x0A46, r24	; 0x800a46 <__TEXT_REGION_LENGTH__+0x700a46>
}
     d12:	ff 91       	pop	r31
     d14:	ef 91       	pop	r30
     d16:	9f 91       	pop	r25
     d18:	8f 91       	pop	r24
     d1a:	0f 90       	pop	r0
     d1c:	0f be       	out	0x3f, r0	; 63
     d1e:	0f 90       	pop	r0
     d20:	1f 90       	pop	r1
     d22:	18 95       	reti

00000d24 <__vector_14>:

// TCB1 is used for audio generation. Keeps playing "data" until 0 is reached. Audio sample data can contain 0x01 to 0xFF, centered around 0x80
ISR(TCB1_INT_vect){
     d24:	1f 92       	push	r1
     d26:	0f 92       	push	r0
     d28:	0f b6       	in	r0, 0x3f	; 63
     d2a:	0f 92       	push	r0
     d2c:	11 24       	eor	r1, r1
     d2e:	2f 93       	push	r18
     d30:	3f 93       	push	r19
     d32:	4f 93       	push	r20
     d34:	8f 93       	push	r24
     d36:	9f 93       	push	r25
     d38:	ef 93       	push	r30
     d3a:	ff 93       	push	r31
    int16_t volCtrl;
    if (*auSmpAddr == 0) auSmpAddr = auRepAddr;
     d3c:	e0 91 05 38 	lds	r30, 0x3805	; 0x803805 <auSmpAddr>
     d40:	f0 91 06 38 	lds	r31, 0x3806	; 0x803806 <auSmpAddr+0x1>
     d44:	80 81       	ld	r24, Z
     d46:	81 11       	cpse	r24, r1
     d48:	08 c0       	rjmp	.+16     	; 0xd5a <__vector_14+0x36>
     d4a:	80 91 03 38 	lds	r24, 0x3803	; 0x803803 <auRepAddr>
     d4e:	90 91 04 38 	lds	r25, 0x3804	; 0x803804 <auRepAddr+0x1>
     d52:	80 93 05 38 	sts	0x3805, r24	; 0x803805 <auSmpAddr>
     d56:	90 93 06 38 	sts	0x3806, r25	; 0x803806 <auSmpAddr+0x1>
    if (*auSmpAddr) {
     d5a:	e0 91 05 38 	lds	r30, 0x3805	; 0x803805 <auSmpAddr>
     d5e:	f0 91 06 38 	lds	r31, 0x3806	; 0x803806 <auSmpAddr+0x1>
     d62:	80 81       	ld	r24, Z
     d64:	88 23       	and	r24, r24
     d66:	e1 f0       	breq	.+56     	; 0xda0 <__vector_14+0x7c>
        volCtrl = ((((int16_t)(*auSmpAddr) - 0x7f) * auVolume) >> 8) + 0x80;
     d68:	20 81       	ld	r18, Z
     d6a:	40 91 b8 3a 	lds	r20, 0x3AB8	; 0x803ab8 <auVolume>
        DAC0_DATA = (uint8_t)(volCtrl);
     d6e:	30 e0       	ldi	r19, 0x00	; 0
     d70:	2f 57       	subi	r18, 0x7F	; 127
     d72:	31 09       	sbc	r19, r1
     d74:	42 9f       	mul	r20, r18
     d76:	c0 01       	movw	r24, r0
     d78:	43 9f       	mul	r20, r19
     d7a:	90 0d       	add	r25, r0
     d7c:	11 24       	eor	r1, r1
     d7e:	89 2f       	mov	r24, r25
     d80:	99 0f       	add	r25, r25
     d82:	99 0b       	sbc	r25, r25
     d84:	80 58       	subi	r24, 0x80	; 128
     d86:	9f 4f       	sbci	r25, 0xFF	; 255
     d88:	80 93 a1 06 	sts	0x06A1, r24	; 0x8006a1 <__TEXT_REGION_LENGTH__+0x7006a1>
        ++auSmpAddr;
     d8c:	80 91 05 38 	lds	r24, 0x3805	; 0x803805 <auSmpAddr>
     d90:	90 91 06 38 	lds	r25, 0x3806	; 0x803806 <auSmpAddr+0x1>
     d94:	01 96       	adiw	r24, 0x01	; 1
     d96:	80 93 05 38 	sts	0x3805, r24	; 0x803805 <auSmpAddr>
     d9a:	90 93 06 38 	sts	0x3806, r25	; 0x803806 <auSmpAddr+0x1>
     d9e:	06 c0       	rjmp	.+12     	; 0xdac <__vector_14+0x88>
    } else {
        DAC0_DATA = 0x80;
     da0:	80 e8       	ldi	r24, 0x80	; 128
     da2:	80 93 a1 06 	sts	0x06A1, r24	; 0x8006a1 <__TEXT_REGION_LENGTH__+0x7006a1>
        auPlayDone = 1;
     da6:	81 e0       	ldi	r24, 0x01	; 1
     da8:	80 93 f4 3a 	sts	0x3AF4, r24	; 0x803af4 <auPlayDone>
    }
    TCB1_INTFLAGS = TCB_CAPT_bm;
     dac:	81 e0       	ldi	r24, 0x01	; 1
     dae:	80 93 56 0a 	sts	0x0A56, r24	; 0x800a56 <__TEXT_REGION_LENGTH__+0x700a56>
}
     db2:	ff 91       	pop	r31
     db4:	ef 91       	pop	r30
     db6:	9f 91       	pop	r25
     db8:	8f 91       	pop	r24
     dba:	4f 91       	pop	r20
     dbc:	3f 91       	pop	r19
     dbe:	2f 91       	pop	r18
     dc0:	0f 90       	pop	r0
     dc2:	0f be       	out	0x3f, r0	; 63
     dc4:	0f 90       	pop	r0
     dc6:	1f 90       	pop	r1
     dc8:	18 95       	reti

00000dca <__vector_27>:

// Reads up to RXLEN characters until LF is found, LF sets the serRxDone flag and writes 0 instead of LF.
ISR(USART0_RXC_vect){
     dca:	1f 92       	push	r1
     dcc:	0f 92       	push	r0
     dce:	0f b6       	in	r0, 0x3f	; 63
     dd0:	0f 92       	push	r0
     dd2:	11 24       	eor	r1, r1
     dd4:	8f 93       	push	r24
     dd6:	ef 93       	push	r30
     dd8:	ff 93       	push	r31
    if (serRxDone == 0){
     dda:	80 91 46 38 	lds	r24, 0x3846	; 0x803846 <serRxDone>
     dde:	81 11       	cpse	r24, r1
     de0:	44 c0       	rjmp	.+136    	; 0xe6a <__vector_27+0xa0>
        serRx[RXCNT] = USART0.RXDATAL;
     de2:	ed b3       	in	r30, 0x1d	; 29
     de4:	f0 e0       	ldi	r31, 0x00	; 0
     de6:	80 91 00 08 	lds	r24, 0x0800	; 0x800800 <__TEXT_REGION_LENGTH__+0x700800>
     dea:	e9 58       	subi	r30, 0x89	; 137
     dec:	f5 4c       	sbci	r31, 0xC5	; 197
     dee:	80 83       	st	Z, r24
        USART0_TXDATAL = serRx[RXCNT];
     df0:	ed b3       	in	r30, 0x1d	; 29
     df2:	f0 e0       	ldi	r31, 0x00	; 0
     df4:	e9 58       	subi	r30, 0x89	; 137
     df6:	f5 4c       	sbci	r31, 0xC5	; 197
     df8:	80 81       	ld	r24, Z
     dfa:	80 93 02 08 	sts	0x0802, r24	; 0x800802 <__TEXT_REGION_LENGTH__+0x700802>
        if ((serRx[RXCNT] == 0x0A)||(serRx[RXCNT] == 0x0D)){
     dfe:	ed b3       	in	r30, 0x1d	; 29
     e00:	f0 e0       	ldi	r31, 0x00	; 0
     e02:	e9 58       	subi	r30, 0x89	; 137
     e04:	f5 4c       	sbci	r31, 0xC5	; 197
     e06:	80 81       	ld	r24, Z
     e08:	8a 30       	cpi	r24, 0x0A	; 10
     e0a:	39 f0       	breq	.+14     	; 0xe1a <__vector_27+0x50>
     e0c:	ed b3       	in	r30, 0x1d	; 29
     e0e:	f0 e0       	ldi	r31, 0x00	; 0
     e10:	e9 58       	subi	r30, 0x89	; 137
     e12:	f5 4c       	sbci	r31, 0xC5	; 197
     e14:	80 81       	ld	r24, Z
     e16:	8d 30       	cpi	r24, 0x0D	; 13
     e18:	49 f4       	brne	.+18     	; 0xe2c <__vector_27+0x62>
            serRx[RXCNT] = 0;
     e1a:	ed b3       	in	r30, 0x1d	; 29
     e1c:	f0 e0       	ldi	r31, 0x00	; 0
     e1e:	e9 58       	subi	r30, 0x89	; 137
     e20:	f5 4c       	sbci	r31, 0xC5	; 197
     e22:	10 82       	st	Z, r1
            serRxDone = 1;
     e24:	81 e0       	ldi	r24, 0x01	; 1
     e26:	80 93 46 38 	sts	0x3846, r24	; 0x803846 <serRxDone>
     e2a:	1f c0       	rjmp	.+62     	; 0xe6a <__vector_27+0xa0>
        } else if (((serRx[RXCNT] == 0x08)||(serRx[RXCNT] == 0x7F))&&(RXCNT > 0)) {
     e2c:	ed b3       	in	r30, 0x1d	; 29
     e2e:	f0 e0       	ldi	r31, 0x00	; 0
     e30:	e9 58       	subi	r30, 0x89	; 137
     e32:	f5 4c       	sbci	r31, 0xC5	; 197
     e34:	80 81       	ld	r24, Z
     e36:	88 30       	cpi	r24, 0x08	; 8
     e38:	39 f0       	breq	.+14     	; 0xe48 <__vector_27+0x7e>
     e3a:	ed b3       	in	r30, 0x1d	; 29
     e3c:	f0 e0       	ldi	r31, 0x00	; 0
     e3e:	e9 58       	subi	r30, 0x89	; 137
     e40:	f5 4c       	sbci	r31, 0xC5	; 197
     e42:	80 81       	ld	r24, Z
     e44:	8f 37       	cpi	r24, 0x7F	; 127
     e46:	59 f4       	brne	.+22     	; 0xe5e <__vector_27+0x94>
     e48:	8d b3       	in	r24, 0x1d	; 29
     e4a:	88 23       	and	r24, r24
     e4c:	41 f0       	breq	.+16     	; 0xe5e <__vector_27+0x94>
            serRx[RXCNT] = 0;
     e4e:	ed b3       	in	r30, 0x1d	; 29
     e50:	f0 e0       	ldi	r31, 0x00	; 0
     e52:	e9 58       	subi	r30, 0x89	; 137
     e54:	f5 4c       	sbci	r31, 0xC5	; 197
     e56:	10 82       	st	Z, r1
            --RXCNT;
     e58:	8d b3       	in	r24, 0x1d	; 29
     e5a:	81 50       	subi	r24, 0x01	; 1
     e5c:	05 c0       	rjmp	.+10     	; 0xe68 <__vector_27+0x9e>
        } else if (RXCNT < (RXLEN-1)) ++RXCNT;
     e5e:	8d b3       	in	r24, 0x1d	; 29
     e60:	80 34       	cpi	r24, 0x40	; 64
     e62:	18 f4       	brcc	.+6      	; 0xe6a <__vector_27+0xa0>
     e64:	8d b3       	in	r24, 0x1d	; 29
     e66:	8f 5f       	subi	r24, 0xFF	; 255
     e68:	8d bb       	out	0x1d, r24	; 29
    }
    USART0_STATUS = USART_RXCIF_bm;
     e6a:	80 e8       	ldi	r24, 0x80	; 128
     e6c:	80 93 04 08 	sts	0x0804, r24	; 0x800804 <__TEXT_REGION_LENGTH__+0x700804>
};
     e70:	ff 91       	pop	r31
     e72:	ef 91       	pop	r30
     e74:	8f 91       	pop	r24
     e76:	0f 90       	pop	r0
     e78:	0f be       	out	0x3f, r0	; 63
     e7a:	0f 90       	pop	r0
     e7c:	1f 90       	pop	r1
     e7e:	18 95       	reti

00000e80 <__vector_28>:

// Trigger new data write and turn off DRE interrupt.
ISR(USART0_DRE_vect){
     e80:	1f 92       	push	r1
     e82:	0f 92       	push	r0
     e84:	0f b6       	in	r0, 0x3f	; 63
     e86:	0f 92       	push	r0
     e88:	11 24       	eor	r1, r1
     e8a:	8f 93       	push	r24
     e8c:	ef 93       	push	r30
     e8e:	ff 93       	push	r31
    TCB0_CNT = 0;
     e90:	10 92 4a 0a 	sts	0x0A4A, r1	; 0x800a4a <__TEXT_REGION_LENGTH__+0x700a4a>
     e94:	10 92 4b 0a 	sts	0x0A4B, r1	; 0x800a4b <__TEXT_REGION_LENGTH__+0x700a4b>
    TCB0_INTCTRL = 0x01;
     e98:	81 e0       	ldi	r24, 0x01	; 1
     e9a:	80 93 45 0a 	sts	0x0A45, r24	; 0x800a45 <__TEXT_REGION_LENGTH__+0x700a45>
    USART0_CTRLA &= ~(USART_DREIE_bm);
     e9e:	e5 e0       	ldi	r30, 0x05	; 5
     ea0:	f8 e0       	ldi	r31, 0x08	; 8
     ea2:	80 81       	ld	r24, Z
     ea4:	8f 7d       	andi	r24, 0xDF	; 223
     ea6:	80 83       	st	Z, r24
};
     ea8:	ff 91       	pop	r31
     eaa:	ef 91       	pop	r30
     eac:	8f 91       	pop	r24
     eae:	0f 90       	pop	r0
     eb0:	0f be       	out	0x3f, r0	; 63
     eb2:	0f 90       	pop	r0
     eb4:	1f 90       	pop	r1
     eb6:	18 95       	reti

00000eb8 <__vector_20>:

// ADC used for audio input and temperature sensor.
ISR(ADC0_RESRDY_vect){
     eb8:	1f 92       	push	r1
     eba:	0f 92       	push	r0
     ebc:	0f b6       	in	r0, 0x3f	; 63
     ebe:	0f 92       	push	r0
     ec0:	11 24       	eor	r1, r1
     ec2:	8f 93       	push	r24
     ec4:	9f 93       	push	r25
     ec6:	ef 93       	push	r30
     ec8:	ff 93       	push	r31
    //If just switched reference, discard first few samples
    if (adc0Chg == 0){
     eca:	80 91 39 38 	lds	r24, 0x3839	; 0x803839 <adc0Chg>
     ece:	81 11       	cpse	r24, r1
     ed0:	19 c0       	rjmp	.+50     	; 0xf04 <__vector_20+0x4c>
        AUPOS = (AUPOS+1)&(AULEN-1);
     ed2:	8e b3       	in	r24, 0x1e	; 30
     ed4:	8f 5f       	subi	r24, 0xFF	; 255
     ed6:	87 70       	andi	r24, 0x07	; 7
     ed8:	8e bb       	out	0x1e, r24	; 30
        if (ADC0_MUXPOS == 0x1E) adcTemp = ADC0_RES; else auIn[AUPOS]=ADC0_RESL;
     eda:	80 91 06 06 	lds	r24, 0x0606	; 0x800606 <__TEXT_REGION_LENGTH__+0x700606>
     ede:	8e 31       	cpi	r24, 0x1E	; 30
     ee0:	49 f4       	brne	.+18     	; 0xef4 <__vector_20+0x3c>
     ee2:	80 91 10 06 	lds	r24, 0x0610	; 0x800610 <__TEXT_REGION_LENGTH__+0x700610>
     ee6:	90 91 11 06 	lds	r25, 0x0611	; 0x800611 <__TEXT_REGION_LENGTH__+0x700611>
     eea:	80 93 f7 3a 	sts	0x3AF7, r24	; 0x803af7 <adcTemp>
     eee:	90 93 f8 3a 	sts	0x3AF8, r25	; 0x803af8 <adcTemp+0x1>
     ef2:	0d c0       	rjmp	.+26     	; 0xf0e <__vector_20+0x56>
     ef4:	ee b3       	in	r30, 0x1e	; 30
     ef6:	f0 e0       	ldi	r31, 0x00	; 0
     ef8:	80 91 10 06 	lds	r24, 0x0610	; 0x800610 <__TEXT_REGION_LENGTH__+0x700610>
     efc:	ec 53       	subi	r30, 0x3C	; 60
     efe:	f5 4c       	sbci	r31, 0xC5	; 197
     f00:	80 83       	st	Z, r24
     f02:	05 c0       	rjmp	.+10     	; 0xf0e <__vector_20+0x56>
    } else --adc0Chg;
     f04:	80 91 39 38 	lds	r24, 0x3839	; 0x803839 <adc0Chg>
     f08:	81 50       	subi	r24, 0x01	; 1
     f0a:	80 93 39 38 	sts	0x3839, r24	; 0x803839 <adc0Chg>
    ADC0_INTFLAGS = ADC_RESRDY_bm;
     f0e:	81 e0       	ldi	r24, 0x01	; 1
     f10:	80 93 0b 06 	sts	0x060B, r24	; 0x80060b <__TEXT_REGION_LENGTH__+0x70060b>
}
     f14:	ff 91       	pop	r31
     f16:	ef 91       	pop	r30
     f18:	9f 91       	pop	r25
     f1a:	8f 91       	pop	r24
     f1c:	0f 90       	pop	r0
     f1e:	0f be       	out	0x3f, r0	; 63
     f20:	0f 90       	pop	r0
     f22:	1f 90       	pop	r1
     f24:	18 95       	reti

00000f26 <__vector_22>:

// Reads out sensors at 8Hz and buttons at 42Hz (timed by PIT), power for the sensors is on 1/8th of the time to save power.
ISR(ADC1_RESRDY_vect){
     f26:	1f 92       	push	r1
     f28:	0f 92       	push	r0
     f2a:	0f b6       	in	r0, 0x3f	; 63
     f2c:	0f 92       	push	r0
     f2e:	11 24       	eor	r1, r1
     f30:	8f 93       	push	r24
     f32:	9f 93       	push	r25
    if (ADC1_MUXPOS == 0) {
     f34:	80 91 46 06 	lds	r24, 0x0646	; 0x800646 <__TEXT_REGION_LENGTH__+0x700646>
     f38:	81 11       	cpse	r24, r1
     f3a:	0a c0       	rjmp	.+20     	; 0xf50 <__vector_22+0x2a>
        adcPhot = ADC1_RES;
     f3c:	80 91 50 06 	lds	r24, 0x0650	; 0x800650 <__TEXT_REGION_LENGTH__+0x700650>
     f40:	90 91 51 06 	lds	r25, 0x0651	; 0x800651 <__TEXT_REGION_LENGTH__+0x700651>
     f44:	80 93 bf 3a 	sts	0x3ABF, r24	; 0x803abf <adcPhot>
     f48:	90 93 c0 3a 	sts	0x3AC0, r25	; 0x803ac0 <adcPhot+0x1>
        ADC1_MUXPOS = 0x01;             //Select Hall sensor
     f4c:	81 e0       	ldi	r24, 0x01	; 1
     f4e:	10 c0       	rjmp	.+32     	; 0xf70 <__vector_22+0x4a>
    } else if (ADC1_MUXPOS == 1){
     f50:	80 91 46 06 	lds	r24, 0x0646	; 0x800646 <__TEXT_REGION_LENGTH__+0x700646>
     f54:	81 30       	cpi	r24, 0x01	; 1
     f56:	79 f4       	brne	.+30     	; 0xf76 <__vector_22+0x50>
        PORTA_OUTCLR = 0b00001000;      //Turn off sensor power
     f58:	88 e0       	ldi	r24, 0x08	; 8
     f5a:	80 93 06 04 	sts	0x0406, r24	; 0x800406 <__TEXT_REGION_LENGTH__+0x700406>
        adcHall = ADC1_RES;
     f5e:	80 91 50 06 	lds	r24, 0x0650	; 0x800650 <__TEXT_REGION_LENGTH__+0x700650>
     f62:	90 91 51 06 	lds	r25, 0x0651	; 0x800651 <__TEXT_REGION_LENGTH__+0x700651>
     f66:	80 93 bd 3a 	sts	0x3ABD, r24	; 0x803abd <adcHall>
     f6a:	90 93 be 3a 	sts	0x3ABE, r25	; 0x803abe <adcHall+0x1>
        ADC1_MUXPOS = 0x04;             //select buttons
     f6e:	84 e0       	ldi	r24, 0x04	; 4
     f70:	80 93 46 06 	sts	0x0646, r24	; 0x800646 <__TEXT_REGION_LENGTH__+0x700646>
     f74:	10 c0       	rjmp	.+32     	; 0xf96 <__vector_22+0x70>
    } else {
        adcBtns = ADC1_RES;
     f76:	80 91 50 06 	lds	r24, 0x0650	; 0x800650 <__TEXT_REGION_LENGTH__+0x700650>
     f7a:	90 91 51 06 	lds	r25, 0x0651	; 0x800651 <__TEXT_REGION_LENGTH__+0x700651>
     f7e:	80 93 b9 3a 	sts	0x3AB9, r24	; 0x803ab9 <adcBtns>
     f82:	90 93 ba 3a 	sts	0x3ABA, r25	; 0x803aba <adcBtns+0x1>
        if (A1CNT == 15){
     f86:	8f b3       	in	r24, 0x1f	; 31
     f88:	8f 30       	cpi	r24, 0x0F	; 15
     f8a:	29 f4       	brne	.+10     	; 0xf96 <__vector_22+0x70>
            ADC1_MUXPOS = 0x00;         //Select photo transistor
     f8c:	10 92 46 06 	sts	0x0646, r1	; 0x800646 <__TEXT_REGION_LENGTH__+0x700646>
            PORTA_OUTSET = 0b00001000;  //Turn on sensor power
     f90:	88 e0       	ldi	r24, 0x08	; 8
     f92:	80 93 05 04 	sts	0x0405, r24	; 0x800405 <__TEXT_REGION_LENGTH__+0x700405>
        }
    }

    A1CNT=(A1CNT+1)%16;        
     f96:	8f b3       	in	r24, 0x1f	; 31
     f98:	90 e0       	ldi	r25, 0x00	; 0
     f9a:	01 96       	adiw	r24, 0x01	; 1
     f9c:	8f 70       	andi	r24, 0x0F	; 15
     f9e:	99 27       	eor	r25, r25
     fa0:	8f bb       	out	0x1f, r24	; 31
    ADC1_INTFLAGS = ADC_RESRDY_bm;
     fa2:	81 e0       	ldi	r24, 0x01	; 1
     fa4:	80 93 4b 06 	sts	0x064B, r24	; 0x80064b <__TEXT_REGION_LENGTH__+0x70064b>
}
     fa8:	9f 91       	pop	r25
     faa:	8f 91       	pop	r24
     fac:	0f 90       	pop	r0
     fae:	0f be       	out	0x3f, r0	; 63
     fb0:	0f 90       	pop	r0
     fb2:	1f 90       	pop	r1
     fb4:	18 95       	reti

00000fb6 <__vector_6>:

// RTC compare interrupt, triggers at 512/BTN_TMR rate, also RTC overflow interrupt, triggers once a minute
ISR(RTC_CNT_vect) {
     fb6:	1f 92       	push	r1
     fb8:	0f 92       	push	r0
     fba:	0f b6       	in	r0, 0x3f	; 63
     fbc:	0f 92       	push	r0
     fbe:	11 24       	eor	r1, r1
     fc0:	2f 93       	push	r18
     fc2:	3f 93       	push	r19
     fc4:	8f 93       	push	r24
     fc6:	9f 93       	push	r25
    if (RTC_INTFLAGS & RTC_CMP_bm){
     fc8:	80 91 43 01 	lds	r24, 0x0143	; 0x800143 <__TEXT_REGION_LENGTH__+0x700143>
     fcc:	81 ff       	sbrs	r24, 1
     fce:	39 c0       	rjmp	.+114    	; 0x1042 <__vector_6+0x8c>
        if (buttonMark<0xff) buttonMark++;   // For button timing purposes
     fd0:	80 91 44 38 	lds	r24, 0x3844	; 0x803844 <buttonMark>
     fd4:	8f 3f       	cpi	r24, 0xFF	; 255
     fd6:	29 f0       	breq	.+10     	; 0xfe2 <__vector_6+0x2c>
     fd8:	80 91 44 38 	lds	r24, 0x3844	; 0x803844 <buttonMark>
     fdc:	8f 5f       	subi	r24, 0xFF	; 255
     fde:	80 93 44 38 	sts	0x3844, r24	; 0x803844 <buttonMark>
        //tmp16bit = (RTC_CNT + BTN_TMR)%RTC_PER;
        tmp16bit = (RTC_CNT + BTN_TMR);
     fe2:	80 91 48 01 	lds	r24, 0x0148	; 0x800148 <__TEXT_REGION_LENGTH__+0x700148>
     fe6:	90 91 49 01 	lds	r25, 0x0149	; 0x800149 <__TEXT_REGION_LENGTH__+0x700149>
     fea:	82 96       	adiw	r24, 0x22	; 34
     fec:	80 93 f9 3a 	sts	0x3AF9, r24	; 0x803af9 <tmp16bit>
     ff0:	90 93 fa 3a 	sts	0x3AFA, r25	; 0x803afa <tmp16bit+0x1>
        if (tmp16bit > RTC_PER) tmp16bit -= RTC_PER;
     ff4:	20 91 4a 01 	lds	r18, 0x014A	; 0x80014a <__TEXT_REGION_LENGTH__+0x70014a>
     ff8:	30 91 4b 01 	lds	r19, 0x014B	; 0x80014b <__TEXT_REGION_LENGTH__+0x70014b>
     ffc:	80 91 f9 3a 	lds	r24, 0x3AF9	; 0x803af9 <tmp16bit>
    1000:	90 91 fa 3a 	lds	r25, 0x3AFA	; 0x803afa <tmp16bit+0x1>
    1004:	28 17       	cp	r18, r24
    1006:	39 07       	cpc	r19, r25
    1008:	70 f4       	brcc	.+28     	; 0x1026 <__vector_6+0x70>
    100a:	20 91 4a 01 	lds	r18, 0x014A	; 0x80014a <__TEXT_REGION_LENGTH__+0x70014a>
    100e:	30 91 4b 01 	lds	r19, 0x014B	; 0x80014b <__TEXT_REGION_LENGTH__+0x70014b>
    1012:	80 91 f9 3a 	lds	r24, 0x3AF9	; 0x803af9 <tmp16bit>
    1016:	90 91 fa 3a 	lds	r25, 0x3AFA	; 0x803afa <tmp16bit+0x1>
    101a:	82 1b       	sub	r24, r18
    101c:	93 0b       	sbc	r25, r19
    101e:	80 93 f9 3a 	sts	0x3AF9, r24	; 0x803af9 <tmp16bit>
    1022:	90 93 fa 3a 	sts	0x3AFA, r25	; 0x803afa <tmp16bit+0x1>
        while(RTC_STATUS & RTC_CMPBUSY_bm);
    1026:	80 91 41 01 	lds	r24, 0x0141	; 0x800141 <__TEXT_REGION_LENGTH__+0x700141>
    102a:	83 fd       	sbrc	r24, 3
    102c:	fc cf       	rjmp	.-8      	; 0x1026 <__vector_6+0x70>
        RTC_CMP = tmp16bit;                 // Button timing: next interrupt set
    102e:	80 91 f9 3a 	lds	r24, 0x3AF9	; 0x803af9 <tmp16bit>
    1032:	90 91 fa 3a 	lds	r25, 0x3AFA	; 0x803afa <tmp16bit+0x1>
    1036:	80 93 4c 01 	sts	0x014C, r24	; 0x80014c <__TEXT_REGION_LENGTH__+0x70014c>
    103a:	90 93 4d 01 	sts	0x014D, r25	; 0x80014d <__TEXT_REGION_LENGTH__+0x70014d>
        RTC_INTFLAGS = RTC_CMP_bm;		    // clear interrupt flag
    103e:	82 e0       	ldi	r24, 0x02	; 2
    1040:	06 c0       	rjmp	.+12     	; 0x104e <__vector_6+0x98>
    } else {
        minuteMark++;                       // For very slow timing purposes, overflows to 0
    1042:	80 91 45 38 	lds	r24, 0x3845	; 0x803845 <minuteMark>
    1046:	8f 5f       	subi	r24, 0xFF	; 255
    1048:	80 93 45 38 	sts	0x3845, r24	; 0x803845 <minuteMark>
        RTC_INTFLAGS = RTC_OVF_bm;		    // clear interrupt flag
    104c:	81 e0       	ldi	r24, 0x01	; 1
    104e:	80 93 43 01 	sts	0x0143, r24	; 0x800143 <__TEXT_REGION_LENGTH__+0x700143>
    }
}
    1052:	9f 91       	pop	r25
    1054:	8f 91       	pop	r24
    1056:	3f 91       	pop	r19
    1058:	2f 91       	pop	r18
    105a:	0f 90       	pop	r0
    105c:	0f be       	out	0x3f, r0	; 63
    105e:	0f 90       	pop	r0
    1060:	1f 90       	pop	r1
    1062:	18 95       	reti

00001064 <__vector_7>:

// PIT interrupt (timing of ADC1: sensor values)
ISR(RTC_PIT_vect) {						// PIT interrupt handling code
    1064:	1f 92       	push	r1
    1066:	0f 92       	push	r0
    1068:	0f b6       	in	r0, 0x3f	; 63
    106a:	0f 92       	push	r0
    106c:	11 24       	eor	r1, r1
    106e:	8f 93       	push	r24
    ADC1_COMMAND = 0x01;
    1070:	81 e0       	ldi	r24, 0x01	; 1
    1072:	80 93 48 06 	sts	0x0648, r24	; 0x800648 <__TEXT_REGION_LENGTH__+0x700648>
    RTC_PITINTFLAGS = RTC_PI_bm;		// clear interrupt flag
    1076:	80 93 53 01 	sts	0x0153, r24	; 0x800153 <__TEXT_REGION_LENGTH__+0x700153>
}
    107a:	8f 91       	pop	r24
    107c:	0f 90       	pop	r0
    107e:	0f be       	out	0x3f, r0	; 63
    1080:	0f 90       	pop	r0
    1082:	1f 90       	pop	r1
    1084:	18 95       	reti

00001086 <EERead>:

// Read bytes from EEPROM
void EERead(uint8_t eeAddr, uint8_t *eeValues, uint8_t size)
{
    while(NVMCTRL_STATUS & NVMCTRL_EEBUSY_bm);              // Wait until any write operation has finished
    1086:	90 91 02 10 	lds	r25, 0x1002	; 0x801002 <__TEXT_REGION_LENGTH__+0x701002>
    108a:	91 fd       	sbrc	r25, 1
    108c:	fc cf       	rjmp	.-8      	; 0x1086 <EERead>
    108e:	fb 01       	movw	r30, r22
    1090:	48 0f       	add	r20, r24

    while(size){
    1092:	84 17       	cp	r24, r20
    1094:	39 f0       	breq	.+14     	; 0x10a4 <EERead+0x1e>
        *eeValues++ = *(uint8_t *)(EEPROM_START+eeAddr++);  // Read data from buffer
    1096:	a8 2f       	mov	r26, r24
    1098:	b0 e0       	ldi	r27, 0x00	; 0
    109a:	bc 5e       	subi	r27, 0xEC	; 236
    109c:	9c 91       	ld	r25, X
    109e:	91 93       	st	Z+, r25
    10a0:	8f 5f       	subi	r24, 0xFF	; 255
    10a2:	f7 cf       	rjmp	.-18     	; 0x1092 <EERead+0xc>
        --size;
    }
}
    10a4:	08 95       	ret

000010a6 <EEWrite>:
{
    uint8_t lastByteOfPage;
    while(size){
        lastByteOfPage = 0;
        while(NVMCTRL_STATUS & NVMCTRL_EEBUSY_bm);              // Wait until any write operation has finished
        CCP = CCP_SPM_gc;                                       // Gain access to NVMCTRL_CTRLA
    10a6:	9d e9       	ldi	r25, 0x9D	; 157
        NVMCTRL_CTRLA = NVMCTRL_CMD_PAGEBUFCLR_gc;              // Clear page buffer
    10a8:	24 e0       	ldi	r18, 0x04	; 4
            if ((eeAddr % EEPROM_PAGE_SIZE) == (EEPROM_PAGE_SIZE-1)) lastByteOfPage = 1;
            *(uint8_t *)(EEPROM_START+eeAddr++) = *eeValues++;  // Write data to buffer
            --size;
        }
        CCP = CCP_SPM_gc;
        NVMCTRL_CTRLA = NVMCTRL_CMD_PAGEERASEWRITE_gc;          // Erase old data and write new data to EEPROM
    10aa:	33 e0       	ldi	r19, 0x03	; 3

// Write bytes to the EEPROM, if address exceeds EEPROM space data wraps around
uint8_t EEWrite(uint8_t eeAddr, uint8_t *eeValues, uint8_t size)
{
    uint8_t lastByteOfPage;
    while(size){
    10ac:	44 23       	and	r20, r20
    10ae:	09 f1       	breq	.+66     	; 0x10f2 <EEWrite+0x4c>
        lastByteOfPage = 0;
        while(NVMCTRL_STATUS & NVMCTRL_EEBUSY_bm);              // Wait until any write operation has finished
    10b0:	50 91 02 10 	lds	r21, 0x1002	; 0x801002 <__TEXT_REGION_LENGTH__+0x701002>
    10b4:	51 fd       	sbrc	r21, 1
    10b6:	fc cf       	rjmp	.-8      	; 0x10b0 <EEWrite+0xa>
        CCP = CCP_SPM_gc;                                       // Gain access to NVMCTRL_CTRLA
    10b8:	94 bf       	out	0x34, r25	; 52
        NVMCTRL_CTRLA = NVMCTRL_CMD_PAGEBUFCLR_gc;              // Clear page buffer
    10ba:	20 93 00 10 	sts	0x1000, r18	; 0x801000 <__TEXT_REGION_LENGTH__+0x701000>
    10be:	e8 2f       	mov	r30, r24
        while((size) && (lastByteOfPage == 0)){
            if ((eeAddr % EEPROM_PAGE_SIZE) == (EEPROM_PAGE_SIZE-1)) lastByteOfPage = 1;
    10c0:	58 2f       	mov	r21, r24
    10c2:	5f 71       	andi	r21, 0x1F	; 31
            *(uint8_t *)(EEPROM_START+eeAddr++) = *eeValues++;  // Write data to buffer
    10c4:	8f 5f       	subi	r24, 0xFF	; 255
    10c6:	6f 5f       	subi	r22, 0xFF	; 255
    10c8:	7f 4f       	sbci	r23, 0xFF	; 255
    10ca:	db 01       	movw	r26, r22
    10cc:	11 97       	sbiw	r26, 0x01	; 1
    10ce:	ac 91       	ld	r26, X
    10d0:	f0 e0       	ldi	r31, 0x00	; 0
    10d2:	fc 5e       	subi	r31, 0xEC	; 236
    10d4:	a0 83       	st	Z, r26
            --size;
    10d6:	41 50       	subi	r20, 0x01	; 1
    while(size){
        lastByteOfPage = 0;
        while(NVMCTRL_STATUS & NVMCTRL_EEBUSY_bm);              // Wait until any write operation has finished
        CCP = CCP_SPM_gc;                                       // Gain access to NVMCTRL_CTRLA
        NVMCTRL_CTRLA = NVMCTRL_CMD_PAGEBUFCLR_gc;              // Clear page buffer
        while((size) && (lastByteOfPage == 0)){
    10d8:	19 f0       	breq	.+6      	; 0x10e0 <EEWrite+0x3a>
            if ((eeAddr % EEPROM_PAGE_SIZE) == (EEPROM_PAGE_SIZE-1)) lastByteOfPage = 1;
            *(uint8_t *)(EEPROM_START+eeAddr++) = *eeValues++;  // Write data to buffer
    10da:	e8 2f       	mov	r30, r24
    while(size){
        lastByteOfPage = 0;
        while(NVMCTRL_STATUS & NVMCTRL_EEBUSY_bm);              // Wait until any write operation has finished
        CCP = CCP_SPM_gc;                                       // Gain access to NVMCTRL_CTRLA
        NVMCTRL_CTRLA = NVMCTRL_CMD_PAGEBUFCLR_gc;              // Clear page buffer
        while((size) && (lastByteOfPage == 0)){
    10dc:	5f 31       	cpi	r21, 0x1F	; 31
    10de:	81 f7       	brne	.-32     	; 0x10c0 <EEWrite+0x1a>
            if ((eeAddr % EEPROM_PAGE_SIZE) == (EEPROM_PAGE_SIZE-1)) lastByteOfPage = 1;
            *(uint8_t *)(EEPROM_START+eeAddr++) = *eeValues++;  // Write data to buffer
            --size;
        }
        CCP = CCP_SPM_gc;
    10e0:	94 bf       	out	0x34, r25	; 52
        NVMCTRL_CTRLA = NVMCTRL_CMD_PAGEERASEWRITE_gc;          // Erase old data and write new data to EEPROM
    10e2:	30 93 00 10 	sts	0x1000, r19	; 0x801000 <__TEXT_REGION_LENGTH__+0x701000>
        if (NVMCTRL_STATUS & NVMCTRL_WRERROR_bm) return 1;
    10e6:	50 91 02 10 	lds	r21, 0x1002	; 0x801002 <__TEXT_REGION_LENGTH__+0x701002>
    10ea:	52 ff       	sbrs	r21, 2
    10ec:	df cf       	rjmp	.-66     	; 0x10ac <EEWrite+0x6>
    10ee:	81 e0       	ldi	r24, 0x01	; 1
    }
    return 0;
}
    10f0:	08 95       	ret
        }
        CCP = CCP_SPM_gc;
        NVMCTRL_CTRLA = NVMCTRL_CMD_PAGEERASEWRITE_gc;          // Erase old data and write new data to EEPROM
        if (NVMCTRL_STATUS & NVMCTRL_WRERROR_bm) return 1;
    }
    return 0;
    10f2:	80 e0       	ldi	r24, 0x00	; 0
    10f4:	08 95       	ret

000010f6 <SerSend>:
}

// Sends a set of characters to the serial port, stops only when character value 0 is reached.
uint8_t SerSend(unsigned char *addr){
    if (serTxDone){
    10f6:	20 91 09 38 	lds	r18, 0x3809	; 0x803809 <serTxDone>
    10fa:	22 23       	and	r18, r18
    10fc:	59 f0       	breq	.+22     	; 0x1114 <SerSend+0x1e>
        serTxAddr = addr;
    10fe:	80 93 bb 3a 	sts	0x3ABB, r24	; 0x803abb <serTxAddr>
    1102:	90 93 bc 3a 	sts	0x3ABC, r25	; 0x803abc <serTxAddr+0x1>
        serTxDone = 0;
    1106:	10 92 09 38 	sts	0x3809, r1	; 0x803809 <serTxDone>
        TCB0_INTCTRL = 0x01;
    110a:	81 e0       	ldi	r24, 0x01	; 1
    110c:	80 93 45 0a 	sts	0x0A45, r24	; 0x800a45 <__TEXT_REGION_LENGTH__+0x700a45>
        return 0;
    1110:	80 e0       	ldi	r24, 0x00	; 0
    1112:	08 95       	ret
    } else return 1;    //Error: Still sending data
    1114:	81 e0       	ldi	r24, 0x01	; 1
};
    1116:	08 95       	ret

00001118 <SerSpeed>:

// Set serial character output speed, 255-0 (0.8 to 100ms delay between characters)
void SerSpeed(uint8_t serSpd){
    1118:	28 2f       	mov	r18, r24
    if (serSpd<1) serSpd = 1;
    111a:	81 11       	cpse	r24, r1
    111c:	01 c0       	rjmp	.+2      	; 0x1120 <SerSpeed+0x8>
    111e:	21 e0       	ldi	r18, 0x01	; 1
    TCB0_CCMP = ((uint16_t)(0xFF-serSpd)<<8) + 0xFF;
    1120:	8f ef       	ldi	r24, 0xFF	; 255
    1122:	90 e0       	ldi	r25, 0x00	; 0
    1124:	82 1b       	sub	r24, r18
    1126:	91 09       	sbc	r25, r1
    1128:	98 2f       	mov	r25, r24
    112a:	88 27       	eor	r24, r24
    112c:	81 50       	subi	r24, 0x01	; 1
    112e:	9f 4f       	sbci	r25, 0xFF	; 255
    1130:	80 93 4c 0a 	sts	0x0A4C, r24	; 0x800a4c <__TEXT_REGION_LENGTH__+0x700a4c>
    1134:	90 93 4d 0a 	sts	0x0A4D, r25	; 0x800a4d <__TEXT_REGION_LENGTH__+0x700a4d>
    1138:	08 95       	ret

0000113a <SelectTSens>:
};

// Select temperature sensor
void SelectTSens(){
     VREF_CTRLA   = 0x12;    //0x22 for audio in/out (2.5V), 0x12 for temperature in, audio out (1.1V/2.5V)
    113a:	82 e1       	ldi	r24, 0x12	; 18
    113c:	80 93 a0 00 	sts	0x00A0, r24	; 0x8000a0 <__TEXT_REGION_LENGTH__+0x7000a0>
     ADC0_CTRLA   &= ~(ADC_RESSEL_bm);
    1140:	e0 e0       	ldi	r30, 0x00	; 0
    1142:	f6 e0       	ldi	r31, 0x06	; 6
    1144:	80 81       	ld	r24, Z
    1146:	8b 7f       	andi	r24, 0xFB	; 251
    1148:	80 83       	st	Z, r24
     ADC0_MUXPOS  = 0x1E;    //Audio in: AIN7 at (0x07), Temperature: Internal sensor at (0x1E)
    114a:	8e e1       	ldi	r24, 0x1E	; 30
    114c:	80 93 06 06 	sts	0x0606, r24	; 0x800606 <__TEXT_REGION_LENGTH__+0x700606>
     adc0Chg = 3;
    1150:	83 e0       	ldi	r24, 0x03	; 3
    1152:	80 93 39 38 	sts	0x3839, r24	; 0x803839 <adc0Chg>
    1156:	08 95       	ret

00001158 <SelectAuIn>:
};

// Select "audio" input (0-2.5V)
void SelectAuIn(){
     VREF_CTRLA   = 0x22;    //0x22 for audio in/out (2.5V), 0x12 for temperature in, audio out (1.1V/2.5V)
    1158:	82 e2       	ldi	r24, 0x22	; 34
    115a:	80 93 a0 00 	sts	0x00A0, r24	; 0x8000a0 <__TEXT_REGION_LENGTH__+0x7000a0>
     ADC0_CTRLA   |= ADC_RESSEL_bm;
    115e:	e0 e0       	ldi	r30, 0x00	; 0
    1160:	f6 e0       	ldi	r31, 0x06	; 6
    1162:	80 81       	ld	r24, Z
    1164:	84 60       	ori	r24, 0x04	; 4
    1166:	80 83       	st	Z, r24
     ADC0_MUXPOS  = 0x07;    //Audio in: AIN7 at (0x07), Temperature: Internal sensor at (0x1E)
    1168:	87 e0       	ldi	r24, 0x07	; 7
    116a:	80 93 06 06 	sts	0x0606, r24	; 0x800606 <__TEXT_REGION_LENGTH__+0x700606>
     adc0Chg = 3;
    116e:	83 e0       	ldi	r24, 0x03	; 3
    1170:	80 93 39 38 	sts	0x3839, r24	; 0x803839 <adc0Chg>
    1174:	08 95       	ret

00001176 <CheckButtons>:
};

// Returns button combination (4LSB) and number of consecutive times this combination is detected. First read should always be ignored! 
uint8_t CheckButtons(){
    static uint8_t previousValue = 0xFF;
    uint8_t bADC = (uint8_t)(adcBtns>>4);
    1176:	80 91 b9 3a 	lds	r24, 0x3AB9	; 0x803ab9 <adcBtns>
    117a:	90 91 ba 3a 	lds	r25, 0x3ABA	; 0x803aba <adcBtns+0x1>
    uint8_t button = 0xFF;     //FF = released or error

        switch(bADC){
    117e:	24 e0       	ldi	r18, 0x04	; 4
    1180:	96 95       	lsr	r25
    1182:	87 95       	ror	r24
    1184:	2a 95       	dec	r18
    1186:	e1 f7       	brne	.-8      	; 0x1180 <CheckButtons+0xa>
    1188:	99 27       	eor	r25, r25
    118a:	80 36       	cpi	r24, 0x60	; 96
    118c:	91 05       	cpc	r25, r1
    118e:	40 f4       	brcc	.+16     	; 0x11a0 <CheckButtons+0x2a>
    1190:	8f 34       	cpi	r24, 0x4F	; 79
    1192:	91 05       	cpc	r25, r1
    1194:	88 f4       	brcc	.+34     	; 0x11b8 <CheckButtons+0x42>
    1196:	c0 97       	sbiw	r24, 0x30	; 48
    1198:	09 97       	sbiw	r24, 0x09	; 9
    119a:	90 f4       	brcc	.+36     	; 0x11c0 <CheckButtons+0x4a>

            case 48 ... 56:          //52: Bottom left (+/-4)
            button = 2;
    119c:	92 e0       	ldi	r25, 0x02	; 2
    119e:	11 c0       	rjmp	.+34     	; 0x11c2 <CheckButtons+0x4c>
uint8_t CheckButtons(){
    static uint8_t previousValue = 0xFF;
    uint8_t bADC = (uint8_t)(adcBtns>>4);
    uint8_t button = 0xFF;     //FF = released or error

        switch(bADC){
    11a0:	85 37       	cpi	r24, 0x75	; 117
    11a2:	91 05       	cpc	r25, r1
    11a4:	68 f0       	brcs	.+26     	; 0x11c0 <CheckButtons+0x4a>
    11a6:	8e 38       	cpi	r24, 0x8E	; 142
    11a8:	91 05       	cpc	r25, r1
    11aa:	40 f0       	brcs	.+16     	; 0x11bc <CheckButtons+0x46>
    11ac:	8e 59       	subi	r24, 0x9E	; 158
    11ae:	91 09       	sbc	r25, r1
    11b0:	81 97       	sbiw	r24, 0x21	; 33
    11b2:	30 f4       	brcc	.+12     	; 0x11c0 <CheckButtons+0x4a>
            case 117 ... 141:        //129: Top right (+/- 12)
            button = 1;
            break;

            case 158 ... 190:        //174: Bottom right (+/- 16)
            button = 0;
    11b4:	90 e0       	ldi	r25, 0x00	; 0
            break;
    11b6:	05 c0       	rjmp	.+10     	; 0x11c2 <CheckButtons+0x4c>
            case 48 ... 56:          //52: Bottom left (+/-4)
            button = 2;
            break;

            case 79 ... 95:          //87: Top left (+/-8)
            button = 3;
    11b8:	93 e0       	ldi	r25, 0x03	; 3
            break;
    11ba:	03 c0       	rjmp	.+6      	; 0x11c2 <CheckButtons+0x4c>

            case 117 ... 141:        //129: Top right (+/- 12)
            button = 1;
    11bc:	91 e0       	ldi	r25, 0x01	; 1
            break;
    11be:	01 c0       	rjmp	.+2      	; 0x11c2 <CheckButtons+0x4c>

// Returns button combination (4LSB) and number of consecutive times this combination is detected. First read should always be ignored! 
uint8_t CheckButtons(){
    static uint8_t previousValue = 0xFF;
    uint8_t bADC = (uint8_t)(adcBtns>>4);
    uint8_t button = 0xFF;     //FF = released or error
    11c0:	9f ef       	ldi	r25, 0xFF	; 255
            case 158 ... 190:        //174: Bottom right (+/- 16)
            button = 0;
            break;
        }

        if (((previousValue+1)== 0) || (button != previousValue)) {
    11c2:	80 91 24 38 	lds	r24, 0x3824	; 0x803824 <previousValue.3879>
    11c6:	98 17       	cp	r25, r24
    11c8:	19 f0       	breq	.+6      	; 0x11d0 <CheckButtons+0x5a>
            previousValue = button;
    11ca:	90 93 24 38 	sts	0x3824, r25	; 0x803824 <previousValue.3879>
            return 0xFF;
    11ce:	8f ef       	ldi	r24, 0xFF	; 255
        } else return button;

}
    11d0:	08 95       	ret

000011d2 <lfsr>:

uint8_t lfsr(){
    static uint16_t state = 0xd401;
    state ^= (state << 13);
    11d2:	80 91 22 38 	lds	r24, 0x3822	; 0x803822 <state.3889>
    11d6:	90 91 23 38 	lds	r25, 0x3823	; 0x803823 <state.3889+0x1>
    11da:	9c 01       	movw	r18, r24
    11dc:	32 2f       	mov	r19, r18
    11de:	22 27       	eor	r18, r18
    11e0:	32 95       	swap	r19
    11e2:	33 0f       	add	r19, r19
    11e4:	30 7e       	andi	r19, 0xE0	; 224
    11e6:	82 27       	eor	r24, r18
    11e8:	93 27       	eor	r25, r19
    state ^= (state >> 9);
    11ea:	9c 01       	movw	r18, r24
    11ec:	23 2f       	mov	r18, r19
    11ee:	33 27       	eor	r19, r19
    11f0:	26 95       	lsr	r18
    11f2:	82 27       	eor	r24, r18
    11f4:	93 27       	eor	r25, r19
    state ^= (state << 7);
    11f6:	9c 01       	movw	r18, r24
    11f8:	36 95       	lsr	r19
    11fa:	32 2f       	mov	r19, r18
    11fc:	22 27       	eor	r18, r18
    11fe:	37 95       	ror	r19
    1200:	27 95       	ror	r18
    1202:	82 27       	eor	r24, r18
    1204:	93 27       	eor	r25, r19
    1206:	80 93 22 38 	sts	0x3822, r24	; 0x803822 <state.3889>
    120a:	90 93 23 38 	sts	0x3823, r25	; 0x803823 <state.3889+0x1>
    return (state & 0xff);
}
    120e:	08 95       	ret

00001210 <floatSpeed>:

void floatSpeed(uint8_t bits, uint16_t min, uint16_t max){
    1210:	df 92       	push	r13
    1212:	ef 92       	push	r14
    1214:	ff 92       	push	r15
    1216:	0f 93       	push	r16
    1218:	1f 93       	push	r17
    121a:	cf 93       	push	r28
    121c:	df 93       	push	r29
    121e:	7b 01       	movw	r14, r22
    1220:	8a 01       	movw	r16, r20
    uint16_t val = TCB1_CCMP;
    1222:	c0 91 5c 0a 	lds	r28, 0x0A5C	; 0x800a5c <__TEXT_REGION_LENGTH__+0x700a5c>
    1226:	d0 91 5d 0a 	lds	r29, 0x0A5D	; 0x800a5d <__TEXT_REGION_LENGTH__+0x700a5d>
    bits = mask[(bits-1)&0x07];
    122a:	e8 2f       	mov	r30, r24
    122c:	f0 e0       	ldi	r31, 0x00	; 0
    122e:	31 97       	sbiw	r30, 0x01	; 1
    1230:	e7 70       	andi	r30, 0x07	; 7
    1232:	ff 27       	eor	r31, r31
    1234:	eb 5d       	subi	r30, 0xDB	; 219
    1236:	f7 4c       	sbci	r31, 0xC7	; 199
    1238:	d0 80       	ld	r13, Z
    val += (lfsr()&bits);
    123a:	cb df       	rcall	.-106    	; 0x11d2 <lfsr>
    123c:	8d 21       	and	r24, r13
    123e:	c8 0f       	add	r28, r24
    1240:	d1 1d       	adc	r29, r1
    val -= (lfsr()&bits);
    1242:	c7 df       	rcall	.-114    	; 0x11d2 <lfsr>
    1244:	8d 21       	and	r24, r13
    1246:	c8 1b       	sub	r28, r24
    1248:	d1 09       	sbc	r29, r1
    124a:	0c 17       	cp	r16, r28
    124c:	1d 07       	cpc	r17, r29
    124e:	08 f4       	brcc	.+2      	; 0x1252 <floatSpeed+0x42>
    1250:	e8 01       	movw	r28, r16
    1252:	c7 01       	movw	r24, r14
    1254:	ec 16       	cp	r14, r28
    1256:	fd 06       	cpc	r15, r29
    1258:	08 f4       	brcc	.+2      	; 0x125c <floatSpeed+0x4c>
    125a:	ce 01       	movw	r24, r28
    125c:	80 93 5c 0a 	sts	0x0A5C, r24	; 0x800a5c <__TEXT_REGION_LENGTH__+0x700a5c>
    if (val > max) val = max;    
    if (val < min) val = min;  
    TCB1_CCMP = val;
    1260:	90 93 5d 0a 	sts	0x0A5D, r25	; 0x800a5d <__TEXT_REGION_LENGTH__+0x700a5d>
    1264:	df 91       	pop	r29
}
    1266:	cf 91       	pop	r28
    1268:	1f 91       	pop	r17
    126a:	0f 91       	pop	r16
    126c:	ff 90       	pop	r15
    126e:	ef 90       	pop	r14
    1270:	df 90       	pop	r13
    1272:	08 95       	ret

00001274 <floatAround>:
    1274:	0f 93       	push	r16

uint8_t floatAround(uint8_t sample, uint8_t bits, uint8_t min, uint8_t max){
    1276:	1f 93       	push	r17
    1278:	cf 93       	push	r28
    127a:	df 93       	push	r29
    127c:	c8 2f       	mov	r28, r24
    127e:	d4 2f       	mov	r29, r20
    1280:	02 2f       	mov	r16, r18
    bits = mask[(bits-1)&0x07];
    1282:	e6 2f       	mov	r30, r22
    1284:	f0 e0       	ldi	r31, 0x00	; 0
    1286:	31 97       	sbiw	r30, 0x01	; 1
    1288:	e7 70       	andi	r30, 0x07	; 7
    128a:	ff 27       	eor	r31, r31
    128c:	eb 5d       	subi	r30, 0xDB	; 219
    128e:	f7 4c       	sbci	r31, 0xC7	; 199
    1290:	10 81       	ld	r17, Z
    sample += lfsr()&bits;
    1292:	9f df       	rcall	.-194    	; 0x11d2 <lfsr>
    1294:	81 23       	and	r24, r17
    1296:	c8 0f       	add	r28, r24
    sample -= lfsr()&bits;
    1298:	9c df       	rcall	.-200    	; 0x11d2 <lfsr>
    129a:	81 23       	and	r24, r17
    129c:	c8 1b       	sub	r28, r24
    129e:	8c 2f       	mov	r24, r28
    12a0:	00 23       	and	r16, r16
    if (max){
    12a2:	41 f0       	breq	.+16     	; 0x12b4 <floatAround+0x40>
    12a4:	9c 2f       	mov	r25, r28
    12a6:	0c 17       	cp	r16, r28
    12a8:	08 f4       	brcc	.+2      	; 0x12ac <floatAround+0x38>
    12aa:	90 2f       	mov	r25, r16
    12ac:	8d 2f       	mov	r24, r29
    12ae:	d9 17       	cp	r29, r25
    12b0:	08 f4       	brcc	.+2      	; 0x12b4 <floatAround+0x40>
    12b2:	89 2f       	mov	r24, r25
    12b4:	41 e0       	ldi	r20, 0x01	; 1
        if (sample > max) sample = max;
        if (sample < min) sample = min;
    }
    if (min & (sample < min)) sample = min;
    12b6:	50 e0       	ldi	r21, 0x00	; 0
    12b8:	8d 17       	cp	r24, r29
    12ba:	10 f0       	brcs	.+4      	; 0x12c0 <floatAround+0x4c>
    12bc:	40 e0       	ldi	r20, 0x00	; 0
    12be:	50 e0       	ldi	r21, 0x00	; 0
    12c0:	2d 2f       	mov	r18, r29
    12c2:	30 e0       	ldi	r19, 0x00	; 0
    12c4:	24 23       	and	r18, r20
    12c6:	35 23       	and	r19, r21
    12c8:	23 2b       	or	r18, r19
    12ca:	09 f0       	breq	.+2      	; 0x12ce <floatAround+0x5a>
    12cc:	8d 2f       	mov	r24, r29
    12ce:	df 91       	pop	r29

    return sample;
}
    12d0:	cf 91       	pop	r28
    12d2:	1f 91       	pop	r17
    12d4:	0f 91       	pop	r16
    12d6:	08 95       	ret

000012d8 <SaveGameState>:
    12d8:	cf 92       	push	r12
    inventory[0] = (gameState[INVADDR]<<8|gameState[INVADDR+1]);
    inventory[1] = (gameState[INVADDR+2]<<8|gameState[INVADDR+3]);
}

//Save changed data to EEPROM
uint8_t SaveGameState(){
    12da:	df 92       	push	r13
    12dc:	ff 92       	push	r15
    12de:	0f 93       	push	r16
    12e0:	1f 93       	push	r17
    12e2:	cf 93       	push	r28
    12e4:	df 93       	push	r29
    12e6:	cd b7       	in	r28, 0x3d	; 61
    12e8:	de b7       	in	r29, 0x3e	; 62
    12ea:	64 97       	sbiw	r28, 0x14	; 20
    12ec:	cd bf       	out	0x3d, r28	; 61
    12ee:	de bf       	out	0x3e, r29	; 62
    uint8_t gameCheck[BOOTCHK];

    //Read all data up to the boot/check result address from EEPROM
    EERead(0, &gameCheck[0], BOOTCHK);
    12f0:	44 e1       	ldi	r20, 0x14	; 20
    12f2:	be 01       	movw	r22, r28
    12f4:	6f 5f       	subi	r22, 0xFF	; 255
    12f6:	7f 4f       	sbci	r23, 0xFF	; 255
    12f8:	80 e0       	ldi	r24, 0x00	; 0
    12fa:	c5 de       	rcall	.-630    	; 0x1086 <EERead>
    12fc:	83 e6       	ldi	r24, 0x63	; 99
    12fe:	c8 2e       	mov	r12, r24
    1300:	8a e3       	ldi	r24, 0x3A	; 58
    1302:	d8 2e       	mov	r13, r24
    1304:	8e 01       	movw	r16, r28
    1306:	0f 5f       	subi	r16, 0xFF	; 255
    1308:	1f 4f       	sbci	r17, 0xFF	; 255

    //Check game status bits
    for (uint8_t x=0; x<STATLEN; ++x){
    130a:	f1 2c       	mov	r15, r1
        if (gameState[x] != gameCheck[x]){
    130c:	f8 01       	movw	r30, r16
    130e:	81 91       	ld	r24, Z+
    1310:	8f 01       	movw	r16, r30
    1312:	f6 01       	movw	r30, r12
    1314:	90 81       	ld	r25, Z
    1316:	98 13       	cpse	r25, r24
    1318:	08 c0       	rjmp	.+16     	; 0x132a <SaveGameState+0x52>

    //Read all data up to the boot/check result address from EEPROM
    EERead(0, &gameCheck[0], BOOTCHK);

    //Check game status bits
    for (uint8_t x=0; x<STATLEN; ++x){
    131a:	f3 94       	inc	r15
    131c:	ff ef       	ldi	r31, 0xFF	; 255
    131e:	cf 1a       	sub	r12, r31
    1320:	df 0a       	sbc	r13, r31
    1322:	80 e1       	ldi	r24, 0x10	; 16
    1324:	f8 12       	cpse	r15, r24
    1326:	f2 cf       	rjmp	.-28     	; 0x130c <SaveGameState+0x34>
    1328:	08 c0       	rjmp	.+16     	; 0x133a <SaveGameState+0x62>
        if (gameState[x] != gameCheck[x]){
            if (EEWrite(x, &gameState[x], 1)) return 1;
    132a:	41 e0       	ldi	r20, 0x01	; 1
    132c:	b6 01       	movw	r22, r12
    132e:	8f 2d       	mov	r24, r15
    1330:	ba de       	rcall	.-652    	; 0x10a6 <EEWrite>
    1332:	88 23       	and	r24, r24
    1334:	91 f3       	breq	.-28     	; 0x131a <SaveGameState+0x42>
    1336:	91 e0       	ldi	r25, 0x01	; 1
    1338:	36 c0       	rjmp	.+108    	; 0x13a6 <SaveGameState+0xce>
        }
    }

    //Check the inventory too
    gameState[INVADDR] = (uint8_t)(inventory[0]>>8);
    133a:	20 91 40 38 	lds	r18, 0x3840	; 0x803840 <inventory>
    133e:	30 91 41 38 	lds	r19, 0x3841	; 0x803841 <inventory+0x1>
    1342:	30 93 73 3a 	sts	0x3A73, r19	; 0x803a73 <gameState+0x10>
    gameState[INVADDR+1] = (uint8_t)(inventory[0]&0xff);
    1346:	20 93 74 3a 	sts	0x3A74, r18	; 0x803a74 <gameState+0x11>
    gameState[INVADDR+2] = (uint8_t)(inventory[1]>>8);
    134a:	80 91 42 38 	lds	r24, 0x3842	; 0x803842 <inventory+0x2>
    134e:	90 91 43 38 	lds	r25, 0x3843	; 0x803843 <inventory+0x3>
    1352:	90 93 75 3a 	sts	0x3A75, r25	; 0x803a75 <gameState+0x12>
    gameState[INVADDR+3] = (uint8_t)(inventory[1]&0xff);
    1356:	80 93 76 3a 	sts	0x3A76, r24	; 0x803a76 <gameState+0x13>
    if (inventory[0] != (gameCheck[INVADDR]<<8|gameCheck[INVADDR+1])) {
    135a:	89 89       	ldd	r24, Y+17	; 0x11
    135c:	9a 89       	ldd	r25, Y+18	; 0x12
    135e:	98 27       	eor	r25, r24
    1360:	89 27       	eor	r24, r25
    1362:	98 27       	eor	r25, r24
    1364:	28 17       	cp	r18, r24
    1366:	39 07       	cpc	r19, r25
    1368:	69 f4       	brne	.+26     	; 0x1384 <SaveGameState+0xac>
        if (EEWrite(INVADDR, &gameState[INVADDR], 2)) return 1;
    }
    if (inventory[1] != (gameCheck[INVADDR+2]<<8|gameCheck[INVADDR+3])) {
    136a:	8b 89       	ldd	r24, Y+19	; 0x13
    136c:	9c 89       	ldd	r25, Y+20	; 0x14
    136e:	98 27       	eor	r25, r24
    1370:	89 27       	eor	r24, r25
    1372:	98 27       	eor	r25, r24
    1374:	20 91 42 38 	lds	r18, 0x3842	; 0x803842 <inventory+0x2>
    1378:	30 91 43 38 	lds	r19, 0x3843	; 0x803843 <inventory+0x3>
    137c:	28 17       	cp	r18, r24
    137e:	39 07       	cpc	r19, r25
    1380:	49 f4       	brne	.+18     	; 0x1394 <SaveGameState+0xbc>
    1382:	10 c0       	rjmp	.+32     	; 0x13a4 <SaveGameState+0xcc>
    gameState[INVADDR] = (uint8_t)(inventory[0]>>8);
    gameState[INVADDR+1] = (uint8_t)(inventory[0]&0xff);
    gameState[INVADDR+2] = (uint8_t)(inventory[1]>>8);
    gameState[INVADDR+3] = (uint8_t)(inventory[1]&0xff);
    if (inventory[0] != (gameCheck[INVADDR]<<8|gameCheck[INVADDR+1])) {
        if (EEWrite(INVADDR, &gameState[INVADDR], 2)) return 1;
    1384:	42 e0       	ldi	r20, 0x02	; 2
    1386:	63 e7       	ldi	r22, 0x73	; 115
    1388:	7a e3       	ldi	r23, 0x3A	; 58
    138a:	80 e1       	ldi	r24, 0x10	; 16
    138c:	8c de       	rcall	.-744    	; 0x10a6 <EEWrite>
    138e:	88 23       	and	r24, r24
    1390:	61 f3       	breq	.-40     	; 0x136a <SaveGameState+0x92>
    1392:	d1 cf       	rjmp	.-94     	; 0x1336 <SaveGameState+0x5e>
    }
    if (inventory[1] != (gameCheck[INVADDR+2]<<8|gameCheck[INVADDR+3])) {
        if (EEWrite(INVADDR+2, &gameState[INVADDR+2], 2)) return 1;
    1394:	42 e0       	ldi	r20, 0x02	; 2
    1396:	65 e7       	ldi	r22, 0x75	; 117
    1398:	7a e3       	ldi	r23, 0x3A	; 58
    139a:	82 e1       	ldi	r24, 0x12	; 18
    139c:	84 de       	rcall	.-760    	; 0x10a6 <EEWrite>
    EERead(0, &gameCheck[0], BOOTCHK);

    //Check game status bits
    for (uint8_t x=0; x<STATLEN; ++x){
        if (gameState[x] != gameCheck[x]){
            if (EEWrite(x, &gameState[x], 1)) return 1;
    139e:	91 e0       	ldi	r25, 0x01	; 1
    13a0:	81 11       	cpse	r24, r1
    13a2:	01 c0       	rjmp	.+2      	; 0x13a6 <SaveGameState+0xce>
    13a4:	90 e0       	ldi	r25, 0x00	; 0
    if (inventory[1] != (gameCheck[INVADDR+2]<<8|gameCheck[INVADDR+3])) {
        if (EEWrite(INVADDR+2, &gameState[INVADDR+2], 2)) return 1;
    }

    return 0;
}
    13a6:	89 2f       	mov	r24, r25
    13a8:	64 96       	adiw	r28, 0x14	; 20
    13aa:	cd bf       	out	0x3d, r28	; 61
    13ac:	de bf       	out	0x3e, r29	; 62
    13ae:	df 91       	pop	r29
    13b0:	cf 91       	pop	r28
    13b2:	1f 91       	pop	r17
    13b4:	0f 91       	pop	r16
    13b6:	ff 90       	pop	r15
    13b8:	df 90       	pop	r13
    13ba:	cf 90       	pop	r12
    13bc:	08 95       	ret

000013be <ReadStatusBit>:

uint8_t ReadStatusBit(uint8_t number){
    number &= 0x7f;
    if (gameState[number>>3] & (1<<(number&7))) return 1; else return 0;
    13be:	e8 2f       	mov	r30, r24
    13c0:	ef 77       	andi	r30, 0x7F	; 127
    13c2:	e6 95       	lsr	r30
    13c4:	e6 95       	lsr	r30
    13c6:	e6 95       	lsr	r30
    13c8:	f0 e0       	ldi	r31, 0x00	; 0
    13ca:	ed 59       	subi	r30, 0x9D	; 157
    13cc:	f5 4c       	sbci	r31, 0xC5	; 197
    13ce:	20 81       	ld	r18, Z
    13d0:	30 e0       	ldi	r19, 0x00	; 0
    13d2:	87 70       	andi	r24, 0x07	; 7
    13d4:	a9 01       	movw	r20, r18
    13d6:	02 c0       	rjmp	.+4      	; 0x13dc <ReadStatusBit+0x1e>
    13d8:	55 95       	asr	r21
    13da:	47 95       	ror	r20
    13dc:	8a 95       	dec	r24
    13de:	e2 f7       	brpl	.-8      	; 0x13d8 <ReadStatusBit+0x1a>
    13e0:	ca 01       	movw	r24, r20
}
    13e2:	81 70       	andi	r24, 0x01	; 1
    13e4:	08 95       	ret

000013e6 <WriteStatusBit>:

void WriteStatusBit(uint8_t number, uint8_t state){
    number &= 0x7f;
    13e6:	e8 2f       	mov	r30, r24
    13e8:	ef 77       	andi	r30, 0x7F	; 127
    13ea:	e6 95       	lsr	r30
    13ec:	e6 95       	lsr	r30
    13ee:	e6 95       	lsr	r30
    13f0:	28 2f       	mov	r18, r24
    13f2:	27 70       	andi	r18, 0x07	; 7
    if (state) gameState[number>>3] |= 1<<(number&7);
    13f4:	f0 e0       	ldi	r31, 0x00	; 0
    13f6:	ed 59       	subi	r30, 0x9D	; 157
    13f8:	f5 4c       	sbci	r31, 0xC5	; 197
    13fa:	81 e0       	ldi	r24, 0x01	; 1
    13fc:	90 e0       	ldi	r25, 0x00	; 0
    13fe:	01 c0       	rjmp	.+2      	; 0x1402 <WriteStatusBit+0x1c>
    1400:	88 0f       	add	r24, r24
    1402:	2a 95       	dec	r18
    1404:	ea f7       	brpl	.-6      	; 0x1400 <WriteStatusBit+0x1a>
    1406:	66 23       	and	r22, r22
    1408:	19 f0       	breq	.+6      	; 0x1410 <WriteStatusBit+0x2a>
    140a:	90 81       	ld	r25, Z
    140c:	89 2b       	or	r24, r25
    140e:	03 c0       	rjmp	.+6      	; 0x1416 <WriteStatusBit+0x30>
    else gameState[number>>3] &= ~(1<<(number&7));
    1410:	80 95       	com	r24
    1412:	90 81       	ld	r25, Z
    1414:	89 23       	and	r24, r25
    1416:	80 83       	st	Z, r24
    1418:	08 95       	ret

0000141a <UpdateState>:
}

//Update game state: num -> vBBBBbbb v=value(0 is set!), BBBB=Byte number, bbb=bit number
void UpdateState(uint8_t num){
    141a:	98 2f       	mov	r25, r24
    uint8_t clearBit = num & 0x80;
    num &= 0x7f;
    141c:	8f 77       	andi	r24, 0x7F	; 127
    if (num) {
    141e:	31 f0       	breq	.+12     	; 0x142c <UpdateState+0x12>
        if (clearBit) {
    1420:	97 ff       	sbrs	r25, 7
    1422:	02 c0       	rjmp	.+4      	; 0x1428 <UpdateState+0xe>
            WriteStatusBit(num, 0);
    1424:	60 e0       	ldi	r22, 0x00	; 0
    1426:	01 c0       	rjmp	.+2      	; 0x142a <UpdateState+0x10>
        } else {
            WriteStatusBit(num, 1);
    1428:	61 e0       	ldi	r22, 0x01	; 1
    142a:	dd cf       	rjmp	.-70     	; 0x13e6 <WriteStatusBit>
    142c:	08 95       	ret

0000142e <CheckState>:
        }
    }
}

//Checks if state of bit BBBBbbb matches with v (inverted) bit
uint8_t CheckState(uint8_t num){
    142e:	cf 93       	push	r28
    1430:	c8 2f       	mov	r28, r24
    uint8_t bitSet = 0;
    if (ReadStatusBit(num & 0x7f)){
    1432:	8f 77       	andi	r24, 0x7F	; 127
    1434:	c4 df       	rcall	.-120    	; 0x13be <ReadStatusBit>
    1436:	2c 2f       	mov	r18, r28
    1438:	22 1f       	adc	r18, r18
    143a:	22 27       	eor	r18, r18
    143c:	22 1f       	adc	r18, r18
    143e:	91 e0       	ldi	r25, 0x01	; 1
    1440:	81 11       	cpse	r24, r1
    1442:	01 c0       	rjmp	.+2      	; 0x1446 <CheckState+0x18>
    1444:	90 e0       	ldi	r25, 0x00	; 0
    }
    if (((num & 0x80)>0)^(bitSet>0)){
        return 1;
    }
    return 0;
}
    1446:	82 2f       	mov	r24, r18
    1448:	89 27       	eor	r24, r25
    144a:	cf 91       	pop	r28
    144c:	08 95       	ret

0000144e <getID>:

//Give out a number 0..3, calculated using serial number fields
uint8_t getID(){
    uint8_t id = 0;
    uint8_t *serNum;
    serNum = (uint8_t*)&SIGROW_SERNUM0;
    144e:	e3 e0       	ldi	r30, 0x03	; 3
    1450:	f1 e1       	ldi	r31, 0x11	; 17
    return 0;
}

//Give out a number 0..3, calculated using serial number fields
uint8_t getID(){
    uint8_t id = 0;
    1452:	80 e0       	ldi	r24, 0x00	; 0
    uint8_t *serNum;
    serNum = (uint8_t*)&SIGROW_SERNUM0;

    for (uint8_t x=0; x<10; ++x){
        id += *serNum;
    1454:	91 91       	ld	r25, Z+
    1456:	89 0f       	add	r24, r25
uint8_t getID(){
    uint8_t id = 0;
    uint8_t *serNum;
    serNum = (uint8_t*)&SIGROW_SERNUM0;

    for (uint8_t x=0; x<10; ++x){
    1458:	ed 30       	cpi	r30, 0x0D	; 13
    145a:	91 e1       	ldi	r25, 0x11	; 17
    145c:	f9 07       	cpc	r31, r25
    145e:	d1 f7       	brne	.-12     	; 0x1454 <getID+0x6>
        id += *serNum;
        ++serNum;
    }
    id %= 4;
    whoami = id+1;
    1460:	83 70       	andi	r24, 0x03	; 3
    1462:	8f 5f       	subi	r24, 0xFF	; 255
    1464:	80 93 3f 38 	sts	0x383F, r24	; 0x80383f <whoami>
    return whoami;
}
    1468:	08 95       	ret

0000146a <Reset>:

void Reset(){
    146a:	e3 e6       	ldi	r30, 0x63	; 99
    146c:	fa e3       	ldi	r31, 0x3A	; 58
    //# 110   set to 1 by FW if badge UUID mod 4 == 0
    //# 111   set to 1 by FW if badge UUID mod 4 == 1
    //# 112   set to 1 by FW if badge UUID mod 4 == 2
    //# 113   set to 1 by FW if badge UUID mod 4 == 3
    for (uint8_t x=0; x<sizeof(gameState); ++x){
        gameState[x] = 0;
    146e:	11 92       	st	Z+, r1
    //Reset game progress (all zeroes) and load some bits:
    //# 110   set to 1 by FW if badge UUID mod 4 == 0
    //# 111   set to 1 by FW if badge UUID mod 4 == 1
    //# 112   set to 1 by FW if badge UUID mod 4 == 2
    //# 113   set to 1 by FW if badge UUID mod 4 == 3
    for (uint8_t x=0; x<sizeof(gameState); ++x){
    1470:	8a e3       	ldi	r24, 0x3A	; 58
    1472:	e7 37       	cpi	r30, 0x77	; 119
    1474:	f8 07       	cpc	r31, r24
    1476:	d9 f7       	brne	.-10     	; 0x146e <Reset+0x4>
        gameState[x] = 0;
    }

    uint8_t id = getID();
    1478:	ea df       	rcall	.-44     	; 0x144e <getID>

    //Write bit in gameState location 110..113
    if (id == 0) WriteStatusBit(110, 1);
    147a:	81 11       	cpse	r24, r1
    147c:	04 c0       	rjmp	.+8      	; 0x1486 <Reset+0x1c>
    if (gameState[number>>3] & (1<<(number&7))) return 1; else return 0;
}

void WriteStatusBit(uint8_t number, uint8_t state){
    number &= 0x7f;
    if (state) gameState[number>>3] |= 1<<(number&7);
    147e:	80 91 70 3a 	lds	r24, 0x3A70	; 0x803a70 <gameState+0xd>
    1482:	80 64       	ori	r24, 0x40	; 64
    1484:	05 c0       	rjmp	.+10     	; 0x1490 <Reset+0x26>

    uint8_t id = getID();

    //Write bit in gameState location 110..113
    if (id == 0) WriteStatusBit(110, 1);
    else if (id == 1) WriteStatusBit(111, 1);
    1486:	81 30       	cpi	r24, 0x01	; 1
    1488:	31 f4       	brne	.+12     	; 0x1496 <Reset+0x2c>
    if (gameState[number>>3] & (1<<(number&7))) return 1; else return 0;
}

void WriteStatusBit(uint8_t number, uint8_t state){
    number &= 0x7f;
    if (state) gameState[number>>3] |= 1<<(number&7);
    148a:	80 91 70 3a 	lds	r24, 0x3A70	; 0x803a70 <gameState+0xd>
    148e:	80 68       	ori	r24, 0x80	; 128
    1490:	80 93 70 3a 	sts	0x3A70, r24	; 0x803a70 <gameState+0xd>
    1494:	0d c0       	rjmp	.+26     	; 0x14b0 <Reset+0x46>
    uint8_t id = getID();

    //Write bit in gameState location 110..113
    if (id == 0) WriteStatusBit(110, 1);
    else if (id == 1) WriteStatusBit(111, 1);
    else if (id == 2) WriteStatusBit(112, 1);
    1496:	82 30       	cpi	r24, 0x02	; 2
    1498:	21 f4       	brne	.+8      	; 0x14a2 <Reset+0x38>
    if (gameState[number>>3] & (1<<(number&7))) return 1; else return 0;
}

void WriteStatusBit(uint8_t number, uint8_t state){
    number &= 0x7f;
    if (state) gameState[number>>3] |= 1<<(number&7);
    149a:	80 91 71 3a 	lds	r24, 0x3A71	; 0x803a71 <gameState+0xe>
    149e:	81 60       	ori	r24, 0x01	; 1
    14a0:	05 c0       	rjmp	.+10     	; 0x14ac <Reset+0x42>

    //Write bit in gameState location 110..113
    if (id == 0) WriteStatusBit(110, 1);
    else if (id == 1) WriteStatusBit(111, 1);
    else if (id == 2) WriteStatusBit(112, 1);
    else if (id == 3) WriteStatusBit(113, 1);
    14a2:	83 30       	cpi	r24, 0x03	; 3
    14a4:	29 f4       	brne	.+10     	; 0x14b0 <Reset+0x46>
    if (gameState[number>>3] & (1<<(number&7))) return 1; else return 0;
}

void WriteStatusBit(uint8_t number, uint8_t state){
    number &= 0x7f;
    if (state) gameState[number>>3] |= 1<<(number&7);
    14a6:	80 91 71 3a 	lds	r24, 0x3A71	; 0x803a71 <gameState+0xe>
    14aa:	82 60       	ori	r24, 0x02	; 2
    14ac:	80 93 71 3a 	sts	0x3A71, r24	; 0x803a71 <gameState+0xe>
    14b0:	80 91 63 3a 	lds	r24, 0x3A63	; 0x803a63 <gameState>
    14b4:	81 60       	ori	r24, 0x01	; 1
    14b6:	80 93 63 3a 	sts	0x3A63, r24	; 0x803a63 <gameState>
    14ba:	08 95       	ret

000014bc <LoadGameState>:

    return sample;
}

//Load game status
void LoadGameState(){
    14bc:	cf 93       	push	r28
    14be:	df 93       	push	r29
    EERead(0, &gameState[0], BOOTCHK);   //Load game status bits from EEPROM
    14c0:	44 e1       	ldi	r20, 0x14	; 20
    14c2:	63 e6       	ldi	r22, 0x63	; 99
    14c4:	7a e3       	ldi	r23, 0x3A	; 58
    14c6:	80 e0       	ldi	r24, 0x00	; 0
    14c8:	de dd       	rcall	.-1092   	; 0x1086 <EERead>
    14ca:	ce e6       	ldi	r28, 0x6E	; 110

    uint8_t idSet = 0;
    14cc:	d0 e0       	ldi	r29, 0x00	; 0
    for (uint8_t x=0; x<4; ++x){
        idSet += ReadStatusBit(110+x);
    14ce:	8c 2f       	mov	r24, r28
    14d0:	76 df       	rcall	.-276    	; 0x13be <ReadStatusBit>
    14d2:	d8 0f       	add	r29, r24
    14d4:	cf 5f       	subi	r28, 0xFF	; 255
//Load game status
void LoadGameState(){
    EERead(0, &gameState[0], BOOTCHK);   //Load game status bits from EEPROM

    uint8_t idSet = 0;
    for (uint8_t x=0; x<4; ++x){
    14d6:	c2 37       	cpi	r28, 0x72	; 114
    14d8:	d1 f7       	brne	.-12     	; 0x14ce <LoadGameState+0x12>
        idSet += ReadStatusBit(110+x);
    }

    //Check if badge is reset(0 = cheated!) or new(3) or error(2)
    if (idSet != 1) {
    14da:	d1 30       	cpi	r29, 0x01	; 1
        Reset();
    14dc:	11 f0       	breq	.+4      	; 0x14e2 <LoadGameState+0x26>
    14de:	c5 df       	rcall	.-118    	; 0x146a <Reset>
    } else getID();
    14e0:	01 c0       	rjmp	.+2      	; 0x14e4 <LoadGameState+0x28>
    14e2:	b5 df       	rcall	.-150    	; 0x144e <getID>

    inventory[0] = (gameState[INVADDR]<<8|gameState[INVADDR+1]);
    14e4:	80 91 73 3a 	lds	r24, 0x3A73	; 0x803a73 <gameState+0x10>
    14e8:	90 91 74 3a 	lds	r25, 0x3A74	; 0x803a74 <gameState+0x11>
    14ec:	98 27       	eor	r25, r24
    14ee:	89 27       	eor	r24, r25
    14f0:	98 27       	eor	r25, r24
    14f2:	80 93 40 38 	sts	0x3840, r24	; 0x803840 <inventory>
    14f6:	90 93 41 38 	sts	0x3841, r25	; 0x803841 <inventory+0x1>
    inventory[1] = (gameState[INVADDR+2]<<8|gameState[INVADDR+3]);
    14fa:	80 91 75 3a 	lds	r24, 0x3A75	; 0x803a75 <gameState+0x12>
    14fe:	90 91 76 3a 	lds	r25, 0x3A76	; 0x803a76 <gameState+0x13>
    1502:	98 27       	eor	r25, r24
    1504:	89 27       	eor	r24, r25
    1506:	98 27       	eor	r25, r24
    1508:	80 93 42 38 	sts	0x3842, r24	; 0x803842 <inventory+0x2>
    150c:	90 93 43 38 	sts	0x3843, r25	; 0x803843 <inventory+0x3>
}
    1510:	df 91       	pop	r29
    1512:	cf 91       	pop	r28
    1514:	08 95       	ret

00001516 <HotSummer>:
    //Write bit 0, must always be 1!
    WriteStatusBit(0, 1);
}

//Sets specific game bits after the badge is heated for one and two times.
uint8_t HotSummer(){
    1516:	cf 93       	push	r28
    static uint8_t cooledDown = 0;

    if (CheckState(SUMMERS_COMPLETED)){
    1518:	86 e7       	ldi	r24, 0x76	; 118
    151a:	89 df       	rcall	.-238    	; 0x142e <CheckState>
    151c:	c8 2f       	mov	r28, r24
    151e:	88 23       	and	r24, r24
    1520:	81 f0       	breq	.+32     	; 0x1542 <HotSummer+0x2c>
        iLED[SCARAB[R]] = 0;
    1522:	e0 91 28 be 	lds	r30, 0xBE28	; 0x80be28 <__bss_end+0x830c>
    1526:	f0 e0       	ldi	r31, 0x00	; 0
    1528:	e4 53       	subi	r30, 0x34	; 52
    152a:	f5 4c       	sbci	r31, 0xC5	; 197
    152c:	10 82       	st	Z, r1
        iLED[SCARAB[G]] = dimValue;
    152e:	e0 91 29 be 	lds	r30, 0xBE29	; 0x80be29 <__bss_end+0x830d>
    1532:	f0 e0       	ldi	r31, 0x00	; 0
    1534:	80 91 0c 38 	lds	r24, 0x380C	; 0x80380c <dimValue>
    1538:	e4 53       	subi	r30, 0x34	; 52
    153a:	f5 4c       	sbci	r31, 0xC5	; 197
    153c:	80 83       	st	Z, r24
        return 1;
    153e:	c1 e0       	ldi	r28, 0x01	; 1
    1540:	4c c0       	rjmp	.+152    	; 0x15da <HotSummer+0xc4>
    }

    if (CheckState(FIRST_SUMMER)) {
    1542:	85 e7       	ldi	r24, 0x75	; 117
    1544:	74 df       	rcall	.-280    	; 0x142e <CheckState>
    1546:	88 23       	and	r24, r24
    1548:	59 f1       	breq	.+86     	; 0x15a0 <HotSummer+0x8a>
        iLED[SCARAB[R]] = dimValue;
    154a:	e0 91 28 be 	lds	r30, 0xBE28	; 0x80be28 <__bss_end+0x830c>
    154e:	f0 e0       	ldi	r31, 0x00	; 0
    1550:	80 91 0c 38 	lds	r24, 0x380C	; 0x80380c <dimValue>
    1554:	e4 53       	subi	r30, 0x34	; 52
    1556:	f5 4c       	sbci	r31, 0xC5	; 197
    1558:	80 83       	st	Z, r24
        if ((cooledDown) && (adcTemp >= (calTemp + 32))) {
    155a:	80 91 5b 38 	lds	r24, 0x385B	; 0x80385b <cooledDown.3948>
    155e:	88 23       	and	r24, r24
    1560:	79 f0       	breq	.+30     	; 0x1580 <HotSummer+0x6a>
    1562:	80 91 c2 3a 	lds	r24, 0x3AC2	; 0x803ac2 <calTemp>
    1566:	90 91 c3 3a 	lds	r25, 0x3AC3	; 0x803ac3 <calTemp+0x1>
    156a:	20 91 f7 3a 	lds	r18, 0x3AF7	; 0x803af7 <adcTemp>
    156e:	30 91 f8 3a 	lds	r19, 0x3AF8	; 0x803af8 <adcTemp+0x1>
    1572:	80 96       	adiw	r24, 0x20	; 32
    1574:	28 17       	cp	r18, r24
    1576:	39 07       	cpc	r19, r25
            UpdateState(SUMMERS_COMPLETED);
    1578:	18 f0       	brcs	.+6      	; 0x1580 <HotSummer+0x6a>
    157a:	86 e7       	ldi	r24, 0x76	; 118
    157c:	4e df       	rcall	.-356    	; 0x141a <UpdateState>
            return 0;
    157e:	2d c0       	rjmp	.+90     	; 0x15da <HotSummer+0xc4>
        }
        if (adcTemp <= (calTemp + 8)) cooledDown = 1;
    1580:	80 91 c2 3a 	lds	r24, 0x3AC2	; 0x803ac2 <calTemp>
    1584:	90 91 c3 3a 	lds	r25, 0x3AC3	; 0x803ac3 <calTemp+0x1>
    1588:	20 91 f7 3a 	lds	r18, 0x3AF7	; 0x803af7 <adcTemp>
    158c:	30 91 f8 3a 	lds	r19, 0x3AF8	; 0x803af8 <adcTemp+0x1>
    1590:	08 96       	adiw	r24, 0x08	; 8
    1592:	82 17       	cp	r24, r18
    1594:	93 07       	cpc	r25, r19
    1596:	08 f1       	brcs	.+66     	; 0x15da <HotSummer+0xc4>
    1598:	81 e0       	ldi	r24, 0x01	; 1
    159a:	80 93 5b 38 	sts	0x385B, r24	; 0x80385b <cooledDown.3948>
    159e:	1d c0       	rjmp	.+58     	; 0x15da <HotSummer+0xc4>
                   
    } else {
        if (calTemp == 0) calTemp = adcTemp;
    15a0:	80 91 c2 3a 	lds	r24, 0x3AC2	; 0x803ac2 <calTemp>
    15a4:	90 91 c3 3a 	lds	r25, 0x3AC3	; 0x803ac3 <calTemp+0x1>
    15a8:	89 2b       	or	r24, r25
    15aa:	41 f4       	brne	.+16     	; 0x15bc <HotSummer+0xa6>
    15ac:	80 91 f7 3a 	lds	r24, 0x3AF7	; 0x803af7 <adcTemp>
    15b0:	90 91 f8 3a 	lds	r25, 0x3AF8	; 0x803af8 <adcTemp+0x1>
    15b4:	80 93 c2 3a 	sts	0x3AC2, r24	; 0x803ac2 <calTemp>
    15b8:	90 93 c3 3a 	sts	0x3AC3, r25	; 0x803ac3 <calTemp+0x1>
        if (adcTemp >= (calTemp + 32)) {
    15bc:	80 91 c2 3a 	lds	r24, 0x3AC2	; 0x803ac2 <calTemp>
    15c0:	90 91 c3 3a 	lds	r25, 0x3AC3	; 0x803ac3 <calTemp+0x1>
    15c4:	20 91 f7 3a 	lds	r18, 0x3AF7	; 0x803af7 <adcTemp>
    15c8:	30 91 f8 3a 	lds	r19, 0x3AF8	; 0x803af8 <adcTemp+0x1>
    15cc:	80 96       	adiw	r24, 0x20	; 32
    15ce:	28 17       	cp	r18, r24
    15d0:	39 07       	cpc	r19, r25
            UpdateState(FIRST_SUMMER);
    15d2:	18 f0       	brcs	.+6      	; 0x15da <HotSummer+0xc4>
    15d4:	85 e7       	ldi	r24, 0x75	; 117
    15d6:	21 df       	rcall	.-446    	; 0x141a <UpdateState>
        }
    }
    return 0;
    15d8:	c0 e0       	ldi	r28, 0x00	; 0
}
    15da:	8c 2f       	mov	r24, r28
    15dc:	cf 91       	pop	r28
    15de:	08 95       	ret

000015e0 <WingBar>:

void WingBar(int8_t l, int8_t r) {
    15e0:	ea e2       	ldi	r30, 0x2A	; 42
    15e2:	fe eb       	ldi	r31, 0xBE	; 190
    for (int8_t i=0; i<5; i++) {
    15e4:	90 e0       	ldi	r25, 0x00	; 0
        if (i<l)
            iLED[WING[L][i]] = dimValue;
    15e6:	a5 81       	ldd	r26, Z+5	; 0x05
    15e8:	b0 e0       	ldi	r27, 0x00	; 0
    return 0;
}

void WingBar(int8_t l, int8_t r) {
    for (int8_t i=0; i<5; i++) {
        if (i<l)
    15ea:	98 17       	cp	r25, r24
    15ec:	34 f4       	brge	.+12     	; 0x15fa <WingBar+0x1a>
            iLED[WING[L][i]] = dimValue;
    15ee:	20 91 0c 38 	lds	r18, 0x380C	; 0x80380c <dimValue>
    15f2:	a4 53       	subi	r26, 0x34	; 52
    15f4:	b5 4c       	sbci	r27, 0xC5	; 197
    15f6:	2c 93       	st	X, r18
    15f8:	03 c0       	rjmp	.+6      	; 0x1600 <WingBar+0x20>
        else
            iLED[WING[L][i]] = 0;
    15fa:	a4 53       	subi	r26, 0x34	; 52
    15fc:	b5 4c       	sbci	r27, 0xC5	; 197
    15fe:	1c 92       	st	X, r1
        if (i<r)
            iLED[WING[R][i]] = dimValue;
    1600:	a0 81       	ld	r26, Z
    1602:	b0 e0       	ldi	r27, 0x00	; 0
    for (int8_t i=0; i<5; i++) {
        if (i<l)
            iLED[WING[L][i]] = dimValue;
        else
            iLED[WING[L][i]] = 0;
        if (i<r)
    1604:	96 17       	cp	r25, r22
    1606:	34 f4       	brge	.+12     	; 0x1614 <WingBar+0x34>
            iLED[WING[R][i]] = dimValue;
    1608:	20 91 0c 38 	lds	r18, 0x380C	; 0x80380c <dimValue>
    160c:	a4 53       	subi	r26, 0x34	; 52
    160e:	b5 4c       	sbci	r27, 0xC5	; 197
    1610:	2c 93       	st	X, r18
    1612:	03 c0       	rjmp	.+6      	; 0x161a <WingBar+0x3a>
        else
            iLED[WING[R][i]] = 0;
    1614:	a4 53       	subi	r26, 0x34	; 52
    1616:	b5 4c       	sbci	r27, 0xC5	; 197
    1618:	1c 92       	st	X, r1
    161a:	9f 5f       	subi	r25, 0xFF	; 255
    161c:	31 96       	adiw	r30, 0x01	; 1
    }
    return 0;
}

void WingBar(int8_t l, int8_t r) {
    for (int8_t i=0; i<5; i++) {
    161e:	95 30       	cpi	r25, 0x05	; 5
    1620:	11 f7       	brne	.-60     	; 0x15e6 <WingBar+0x6>
        if (i<r)
            iLED[WING[R][i]] = dimValue;
        else
            iLED[WING[R][i]] = 0;
    }
}
    1622:	08 95       	ret

00001624 <SetBothEyes>:

void SetBothEyes(uint8_t r, uint8_t g) {
    for (uint8_t i=0; i<2; i++) {
        iLED[EYE[R][i]] = r;
    1624:	a4 e3       	ldi	r26, 0x34	; 52
    1626:	be eb       	ldi	r27, 0xBE	; 190
    1628:	ec 91       	ld	r30, X
    162a:	f0 e0       	ldi	r31, 0x00	; 0
    162c:	e4 53       	subi	r30, 0x34	; 52
    162e:	f5 4c       	sbci	r31, 0xC5	; 197
    1630:	80 83       	st	Z, r24
        iLED[EYE[G][i]] = g;
    1632:	12 96       	adiw	r26, 0x02	; 2
    1634:	ec 91       	ld	r30, X
    1636:	12 97       	sbiw	r26, 0x02	; 2
    1638:	f0 e0       	ldi	r31, 0x00	; 0
    163a:	e4 53       	subi	r30, 0x34	; 52
    163c:	f5 4c       	sbci	r31, 0xC5	; 197
    163e:	60 83       	st	Z, r22
    }
}

void SetBothEyes(uint8_t r, uint8_t g) {
    for (uint8_t i=0; i<2; i++) {
        iLED[EYE[R][i]] = r;
    1640:	11 96       	adiw	r26, 0x01	; 1
    1642:	ec 91       	ld	r30, X
    1644:	11 97       	sbiw	r26, 0x01	; 1
    1646:	f0 e0       	ldi	r31, 0x00	; 0
    1648:	e4 53       	subi	r30, 0x34	; 52
    164a:	f5 4c       	sbci	r31, 0xC5	; 197
    164c:	80 83       	st	Z, r24
        iLED[EYE[G][i]] = g;
    164e:	13 96       	adiw	r26, 0x03	; 3
    1650:	ec 91       	ld	r30, X
    1652:	f0 e0       	ldi	r31, 0x00	; 0
    1654:	e4 53       	subi	r30, 0x34	; 52
    1656:	f5 4c       	sbci	r31, 0xC5	; 197
    1658:	60 83       	st	Z, r22
    165a:	08 95       	ret

0000165c <GenerateBlinks>:
    }
}

void GenerateBlinks(){
    165c:	1f 93       	push	r17
    165e:	cf 93       	push	r28
    1660:	df 93       	push	r29
    used by the games, the other LEDs can be used by setting 
    effect (or be set directly)
    */

    //Activate HCKR & BADGER leds based on the state-bits
    if (gameNow == TEXT) {
    1662:	80 91 3e 38 	lds	r24, 0x383E	; 0x80383e <gameNow>
    1666:	88 23       	and	r24, r24
    1668:	29 f0       	breq	.+10     	; 0x1674 <GenerateBlinks+0x18>
                iLED[HCKR[R][i]] = dimValue;
            }
        }
    }

    if (CheckState(GEM_STATE)) {
    166a:	80 e4       	ldi	r24, 0x40	; 64
    166c:	e0 de       	rcall	.-576    	; 0x142e <CheckState>
    166e:	81 11       	cpse	r24, r1
    1670:	24 c0       	rjmp	.+72     	; 0x16ba <GenerateBlinks+0x5e>
    1672:	50 c0       	rjmp	.+160    	; 0x1714 <GenerateBlinks+0xb8>
    1674:	c8 e3       	ldi	r28, 0x38	; 56
    1676:	de eb       	ldi	r29, 0xBE	; 190
    used by the games, the other LEDs can be used by setting 
    effect (or be set directly)
    */

    //Activate HCKR & BADGER leds based on the state-bits
    if (gameNow == TEXT) {
    1678:	1a e7       	ldi	r17, 0x7A	; 122
        for (uint8_t i=0;i<6;i++) {
            if(CheckState(HACKER_STATES + i)) {
    167a:	81 2f       	mov	r24, r17
    167c:	d8 de       	rcall	.-592    	; 0x142e <CheckState>
                iLED[HCKR[G][i]] = dimValue;
    167e:	ee 81       	ldd	r30, Y+6	; 0x06
    1680:	f0 e0       	ldi	r31, 0x00	; 0
    */

    //Activate HCKR & BADGER leds based on the state-bits
    if (gameNow == TEXT) {
        for (uint8_t i=0;i<6;i++) {
            if(CheckState(HACKER_STATES + i)) {
    1682:	88 23       	and	r24, r24
    1684:	59 f0       	breq	.+22     	; 0x169c <GenerateBlinks+0x40>
                iLED[HCKR[G][i]] = dimValue;
    1686:	80 91 0c 38 	lds	r24, 0x380C	; 0x80380c <dimValue>
    168a:	e4 53       	subi	r30, 0x34	; 52
    168c:	f5 4c       	sbci	r31, 0xC5	; 197
    168e:	80 83       	st	Z, r24
                iLED[HCKR[R][i]] = 0;
    1690:	e8 81       	ld	r30, Y
    1692:	f0 e0       	ldi	r31, 0x00	; 0
    1694:	e4 53       	subi	r30, 0x34	; 52
    1696:	f5 4c       	sbci	r31, 0xC5	; 197
    1698:	10 82       	st	Z, r1
    169a:	0a c0       	rjmp	.+20     	; 0x16b0 <GenerateBlinks+0x54>
            } else {
                iLED[HCKR[G][i]] = 0;
    169c:	e4 53       	subi	r30, 0x34	; 52
    169e:	f5 4c       	sbci	r31, 0xC5	; 197
    16a0:	10 82       	st	Z, r1
                iLED[HCKR[R][i]] = dimValue;
    16a2:	e8 81       	ld	r30, Y
    16a4:	f0 e0       	ldi	r31, 0x00	; 0
    16a6:	80 91 0c 38 	lds	r24, 0x380C	; 0x80380c <dimValue>
    16aa:	e4 53       	subi	r30, 0x34	; 52
    16ac:	f5 4c       	sbci	r31, 0xC5	; 197
    16ae:	80 83       	st	Z, r24
    16b0:	1f 5f       	subi	r17, 0xFF	; 255
    16b2:	21 96       	adiw	r28, 0x01	; 1
    effect (or be set directly)
    */

    //Activate HCKR & BADGER leds based on the state-bits
    if (gameNow == TEXT) {
        for (uint8_t i=0;i<6;i++) {
    16b4:	10 38       	cpi	r17, 0x80	; 128
    16b6:	09 f7       	brne	.-62     	; 0x167a <GenerateBlinks+0x1e>
    16b8:	d8 cf       	rjmp	.-80     	; 0x166a <GenerateBlinks+0xe>
            }
        }
    }

    if (CheckState(GEM_STATE)) {
        if ( HeartCount == 1 || HeartCount == 3 || HeartCount == 5 )
    16ba:	80 91 5d 38 	lds	r24, 0x385D	; 0x80385d <HeartCount>
    16be:	98 2f       	mov	r25, r24
    16c0:	9d 7f       	andi	r25, 0xFD	; 253
    16c2:	e0 91 27 be 	lds	r30, 0xBE27	; 0x80be27 <__bss_end+0x830b>
            iLED[BADGER] = dimValue>>1 ;
    16c6:	f0 e0       	ldi	r31, 0x00	; 0
            }
        }
    }

    if (CheckState(GEM_STATE)) {
        if ( HeartCount == 1 || HeartCount == 3 || HeartCount == 5 )
    16c8:	91 30       	cpi	r25, 0x01	; 1
    16ca:	11 f0       	breq	.+4      	; 0x16d0 <GenerateBlinks+0x74>
    16cc:	85 30       	cpi	r24, 0x05	; 5
    16ce:	21 f4       	brne	.+8      	; 0x16d8 <GenerateBlinks+0x7c>
            iLED[BADGER] = dimValue>>1 ;
    16d0:	90 91 0c 38 	lds	r25, 0x380C	; 0x80380c <dimValue>
    16d4:	96 95       	lsr	r25
    16d6:	06 c0       	rjmp	.+12     	; 0x16e4 <GenerateBlinks+0x88>
        else if ( HeartCount == 2 || HeartCount == 4 )
    16d8:	82 30       	cpi	r24, 0x02	; 2
    16da:	11 f0       	breq	.+4      	; 0x16e0 <GenerateBlinks+0x84>
    16dc:	84 30       	cpi	r24, 0x04	; 4
    16de:	31 f4       	brne	.+12     	; 0x16ec <GenerateBlinks+0x90>
            iLED[BADGER] = dimValue;
    16e0:	90 91 0c 38 	lds	r25, 0x380C	; 0x80380c <dimValue>
    16e4:	e4 53       	subi	r30, 0x34	; 52
    16e6:	f5 4c       	sbci	r31, 0xC5	; 197
    16e8:	90 83       	st	Z, r25
    16ea:	0c c0       	rjmp	.+24     	; 0x1704 <GenerateBlinks+0xa8>
        else if ( HeartCount == 0 || HeartCount == 6 )
    16ec:	88 23       	and	r24, r24
    16ee:	11 f0       	breq	.+4      	; 0x16f4 <GenerateBlinks+0x98>
    16f0:	86 30       	cpi	r24, 0x06	; 6
    16f2:	29 f4       	brne	.+10     	; 0x16fe <GenerateBlinks+0xa2>
            iLED[BADGER] = dimValue>>2;
    16f4:	90 91 0c 38 	lds	r25, 0x380C	; 0x80380c <dimValue>
    16f8:	96 95       	lsr	r25
    16fa:	96 95       	lsr	r25
    16fc:	f3 cf       	rjmp	.-26     	; 0x16e4 <GenerateBlinks+0x88>
        else
            iLED[BADGER] = 0;
    16fe:	e4 53       	subi	r30, 0x34	; 52
    1700:	f5 4c       	sbci	r31, 0xC5	; 197
    1702:	10 82       	st	Z, r1
        if (HeartCount<32)
    1704:	80 32       	cpi	r24, 0x20	; 32
    1706:	20 f4       	brcc	.+8      	; 0x1710 <GenerateBlinks+0xb4>
            HeartCount++;
    1708:	8f 5f       	subi	r24, 0xFF	; 255
    170a:	80 93 5d 38 	sts	0x385D, r24	; 0x80385d <HeartCount>
    170e:	02 c0       	rjmp	.+4      	; 0x1714 <GenerateBlinks+0xb8>
        else
            HeartCount = 0;
    1710:	10 92 5d 38 	sts	0x385D, r1	; 0x80385d <HeartCount>
    }

    //LEDs effects for all games
    // Keep a counter for dynamic effects
    LedCount++;
    1714:	90 91 5c 38 	lds	r25, 0x385C	; 0x80385c <LedCount>
    1718:	9f 5f       	subi	r25, 0xFF	; 255
    171a:	90 93 5c 38 	sts	0x385C, r25	; 0x80385c <LedCount>

    switch (effect&0x1f) {
    171e:	20 91 3c 38 	lds	r18, 0x383C	; 0x80383c <effect>
    1722:	30 91 3d 38 	lds	r19, 0x383D	; 0x80383d <effect+0x1>
    1726:	2f 71       	andi	r18, 0x1F	; 31
    1728:	33 27       	eor	r19, r19
    172a:	21 30       	cpi	r18, 0x01	; 1
    172c:	31 05       	cpc	r19, r1
    172e:	99 f1       	breq	.+102    	; 0x1796 <GenerateBlinks+0x13a>
    1730:	20 f0       	brcs	.+8      	; 0x173a <GenerateBlinks+0xde>
    1732:	22 30       	cpi	r18, 0x02	; 2
    1734:	31 05       	cpc	r19, r1
    1736:	b1 f1       	breq	.+108    	; 0x17a4 <GenerateBlinks+0x148>
    1738:	46 c0       	rjmp	.+140    	; 0x17c6 <GenerateBlinks+0x16a>
        // All LEDs off
        case 0:
            WingBar(0,0);
    173a:	60 e0       	ldi	r22, 0x00	; 0
    173c:	80 e0       	ldi	r24, 0x00	; 0
    173e:	50 df       	rcall	.-352    	; 0x15e0 <WingBar>
            for (uint8_t i=0; i<2; i++) {
                iLED[EYE[R][i]] = 0;
    1740:	e0 91 34 be 	lds	r30, 0xBE34	; 0x80be34 <__bss_end+0x8318>
    1744:	f0 e0       	ldi	r31, 0x00	; 0
    1746:	e4 53       	subi	r30, 0x34	; 52
    1748:	f5 4c       	sbci	r31, 0xC5	; 197
    174a:	10 82       	st	Z, r1
                iLED[EYE[G][i]] = 0;
    174c:	e0 91 36 be 	lds	r30, 0xBE36	; 0x80be36 <__bss_end+0x831a>
    1750:	f0 e0       	ldi	r31, 0x00	; 0
    1752:	e4 53       	subi	r30, 0x34	; 52
    1754:	f5 4c       	sbci	r31, 0xC5	; 197
    1756:	10 82       	st	Z, r1
                iLED[SCARAB[i]] = 0;
    1758:	e0 91 28 be 	lds	r30, 0xBE28	; 0x80be28 <__bss_end+0x830c>
    175c:	f0 e0       	ldi	r31, 0x00	; 0
    175e:	e4 53       	subi	r30, 0x34	; 52
    1760:	f5 4c       	sbci	r31, 0xC5	; 197
    1762:	10 82       	st	Z, r1
    switch (effect&0x1f) {
        // All LEDs off
        case 0:
            WingBar(0,0);
            for (uint8_t i=0; i<2; i++) {
                iLED[EYE[R][i]] = 0;
    1764:	e0 91 35 be 	lds	r30, 0xBE35	; 0x80be35 <__bss_end+0x8319>
    1768:	f0 e0       	ldi	r31, 0x00	; 0
    176a:	e4 53       	subi	r30, 0x34	; 52
    176c:	f5 4c       	sbci	r31, 0xC5	; 197
    176e:	10 82       	st	Z, r1
                iLED[EYE[G][i]] = 0;
    1770:	e0 91 37 be 	lds	r30, 0xBE37	; 0x80be37 <__bss_end+0x831b>
    1774:	f0 e0       	ldi	r31, 0x00	; 0
    1776:	e4 53       	subi	r30, 0x34	; 52
    1778:	f5 4c       	sbci	r31, 0xC5	; 197
    177a:	10 82       	st	Z, r1
                iLED[SCARAB[i]] = 0;
    177c:	e0 91 29 be 	lds	r30, 0xBE29	; 0x80be29 <__bss_end+0x830d>
    1780:	f0 e0       	ldi	r31, 0x00	; 0
    1782:	e4 53       	subi	r30, 0x34	; 52
    1784:	f5 4c       	sbci	r31, 0xC5	; 197
    1786:	10 82       	st	Z, r1
            }
            iLED[CAT] = 0;
    1788:	e0 91 26 be 	lds	r30, 0xBE26	; 0x80be26 <__bss_end+0x830a>
    178c:	f0 e0       	ldi	r31, 0x00	; 0
    178e:	e4 53       	subi	r30, 0x34	; 52
    1790:	f5 4c       	sbci	r31, 0xC5	; 197
    1792:	10 82       	st	Z, r1
            break;
    1794:	18 c0       	rjmp	.+48     	; 0x17c6 <GenerateBlinks+0x16a>

        //'flashing red eyes',       # 1 can be used when a bad answer is given
        case 1:
            SetBothEyes((LedCount & 1 ? dimValue : 0),0);
    1796:	89 2f       	mov	r24, r25
    1798:	81 70       	andi	r24, 0x01	; 1
    179a:	90 fd       	sbrc	r25, 0
    179c:	80 91 0c 38 	lds	r24, 0x380C	; 0x80380c <dimValue>
    17a0:	60 e0       	ldi	r22, 0x00	; 0
    17a2:	0d c0       	rjmp	.+26     	; 0x17be <GenerateBlinks+0x162>
    17a4:	69 2f       	mov	r22, r25
    17a6:	70 e0       	ldi	r23, 0x00	; 0
            break;

        //'flashing green eyes',     # 2 can be used when a good answer is given
        case 2:
            SetBothEyes(0, 0x1f + (((LedCount & 0x08) ? ((LedCount&0x07)^0x07) : (LedCount&0x07))<<5));
    17a8:	93 ff       	sbrs	r25, 3
    17aa:	02 c0       	rjmp	.+4      	; 0x17b0 <GenerateBlinks+0x154>
    17ac:	60 95       	com	r22
    17ae:	70 95       	com	r23
    17b0:	85 e0       	ldi	r24, 0x05	; 5
    17b2:	66 0f       	add	r22, r22
    17b4:	77 1f       	adc	r23, r23
    17b6:	8a 95       	dec	r24
    17b8:	e1 f7       	brne	.-8      	; 0x17b2 <GenerateBlinks+0x156>
    17ba:	61 5e       	subi	r22, 0xE1	; 225
    17bc:	80 e0       	ldi	r24, 0x00	; 0
        // No LED action, game will do it's own LED magic
        case 31:
        default:
            break;
    }
}
    17be:	df 91       	pop	r29
    17c0:	cf 91       	pop	r28
            SetBothEyes((LedCount & 1 ? dimValue : 0),0);
            break;

        //'flashing green eyes',     # 2 can be used when a good answer is given
        case 2:
            SetBothEyes(0, 0x1f + (((LedCount & 0x08) ? ((LedCount&0x07)^0x07) : (LedCount&0x07))<<5));
    17c2:	1f 91       	pop	r17
    17c4:	2f cf       	rjmp	.-418    	; 0x1624 <SetBothEyes>
        // No LED action, game will do it's own LED magic
        case 31:
        default:
            break;
    }
}
    17c6:	df 91       	pop	r29
    17c8:	cf 91       	pop	r28
    17ca:	1f 91       	pop	r17
    17cc:	08 95       	ret

000017ce <GenerateAudio>:


uint8_t GenerateAudio(){
    17ce:	0f 93       	push	r16
    17d0:	1f 93       	push	r17
    17d2:	cf 93       	push	r28

    if (auIn[AULEN>>1] < HPLVL) {
    17d4:	80 91 c8 3a 	lds	r24, 0x3AC8	; 0x803ac8 <auIn+0x4>
    17d8:	89 31       	cpi	r24, 0x19	; 25
    17da:	08 f0       	brcs	.+2      	; 0x17de <GenerateAudio+0x10>
    17dc:	27 c1       	rjmp	.+590    	; 0x1a2c <GenerateAudio+0x25e>

        detHdPh = 1;
    17de:	c1 e0       	ldi	r28, 0x01	; 1
    17e0:	c0 93 c1 3a 	sts	0x3AC1, r28	; 0x803ac1 <detHdPh>

        //Audio for text adventure
        if ((effect&0xff00)==0) {
    17e4:	80 91 3c 38 	lds	r24, 0x383C	; 0x80383c <effect>
    17e8:	90 91 3d 38 	lds	r25, 0x383D	; 0x80383d <effect+0x1>
    17ec:	88 27       	eor	r24, r24
    17ee:	89 2b       	or	r24, r25
    17f0:	09 f0       	breq	.+2      	; 0x17f4 <GenerateAudio+0x26>
    17f2:	bf c0       	rjmp	.+382    	; 0x1972 <GenerateAudio+0x1a4>

            //Silence
            if ((effect&0xE0)==0){
    17f4:	80 91 3c 38 	lds	r24, 0x383C	; 0x80383c <effect>
    17f8:	90 91 3d 38 	lds	r25, 0x383D	; 0x80383d <effect+0x1>
    17fc:	80 7e       	andi	r24, 0xE0	; 224
    17fe:	99 27       	eor	r25, r25
    1800:	89 2b       	or	r24, r25
    1802:	31 f4       	brne	.+12     	; 0x1810 <GenerateAudio+0x42>
                auRepAddr = &zero;
    1804:	8a e3       	ldi	r24, 0x3A	; 58
    1806:	98 e3       	ldi	r25, 0x38	; 56
    1808:	80 93 03 38 	sts	0x3803, r24	; 0x803803 <auRepAddr>
    180c:	90 93 04 38 	sts	0x3804, r25	; 0x803804 <auRepAddr+0x1>
            }

            //Bad (buzzer)
            if ((effect&0xE0)==32){
    1810:	80 91 3c 38 	lds	r24, 0x383C	; 0x80383c <effect>
    1814:	90 91 3d 38 	lds	r25, 0x383D	; 0x80383d <effect+0x1>
    1818:	80 7e       	andi	r24, 0xE0	; 224
    181a:	99 27       	eor	r25, r25
    181c:	80 97       	sbiw	r24, 0x20	; 32
    181e:	09 f0       	breq	.+2      	; 0x1822 <GenerateAudio+0x54>
    1820:	59 c0       	rjmp	.+178    	; 0x18d4 <GenerateAudio+0x106>
                static uint8_t auBuffer[17] = {1, 255, 128, 128, 192, 255, 64, 255, 192, 128, 64, 1, 192, 1, 64, 128, 0}; 
                static uint8_t loudness, duration, start;
                floatSpeed(1, 0x2000, 0x2200);
    1822:	40 e0       	ldi	r20, 0x00	; 0
    1824:	52 e2       	ldi	r21, 0x22	; 34
    1826:	60 e0       	ldi	r22, 0x00	; 0
    1828:	70 e2       	ldi	r23, 0x20	; 32
    182a:	81 e0       	ldi	r24, 0x01	; 1
    182c:	f1 dc       	rcall	.-1566   	; 0x1210 <floatSpeed>
                auBuffer[2] = floatAround(0x80, 5, 0x01, 0x00);
    182e:	20 e0       	ldi	r18, 0x00	; 0
    1830:	41 e0       	ldi	r20, 0x01	; 1
    1832:	65 e0       	ldi	r22, 0x05	; 5
    1834:	80 e8       	ldi	r24, 0x80	; 128
    1836:	1e dd       	rcall	.-1476   	; 0x1274 <floatAround>
    1838:	80 93 13 38 	sts	0x3813, r24	; 0x803813 <auBuffer.3983+0x2>

                if (buttonMark) {
    183c:	80 91 44 38 	lds	r24, 0x3844	; 0x803844 <buttonMark>
    1840:	88 23       	and	r24, r24
    1842:	09 f4       	brne	.+2      	; 0x1846 <GenerateAudio+0x78>
    1844:	47 c0       	rjmp	.+142    	; 0x18d4 <GenerateAudio+0x106>
                    if (start == 0) {
    1846:	80 91 5a 38 	lds	r24, 0x385A	; 0x80385a <start.3986>
    184a:	81 11       	cpse	r24, r1
    184c:	15 c0       	rjmp	.+42     	; 0x1878 <GenerateAudio+0xaa>
                        duration = 4;
    184e:	84 e0       	ldi	r24, 0x04	; 4
    1850:	80 93 59 38 	sts	0x3859, r24	; 0x803859 <duration.3985>
                        loudness = 0xff;
    1854:	8f ef       	ldi	r24, 0xFF	; 255
    1856:	80 93 58 38 	sts	0x3858, r24	; 0x803858 <loudness.3984>
                        TCB1_CCMP = 0x2000;
    185a:	80 e0       	ldi	r24, 0x00	; 0
    185c:	90 e2       	ldi	r25, 0x20	; 32
    185e:	80 93 5c 0a 	sts	0x0A5C, r24	; 0x800a5c <__TEXT_REGION_LENGTH__+0x700a5c>
    1862:	90 93 5d 0a 	sts	0x0A5D, r25	; 0x800a5d <__TEXT_REGION_LENGTH__+0x700a5d>
                        auRepAddr = &auBuffer[0];
    1866:	81 e1       	ldi	r24, 0x11	; 17
    1868:	98 e3       	ldi	r25, 0x38	; 56
    186a:	80 93 03 38 	sts	0x3803, r24	; 0x803803 <auRepAddr>
    186e:	90 93 04 38 	sts	0x3804, r25	; 0x803804 <auRepAddr+0x1>
                        start = 1;
    1872:	81 e0       	ldi	r24, 0x01	; 1
    1874:	80 93 5a 38 	sts	0x385A, r24	; 0x80385a <start.3986>
                    }

                    if (loudness) {
    1878:	80 91 58 38 	lds	r24, 0x3858	; 0x803858 <loudness.3984>
    187c:	88 23       	and	r24, r24
    187e:	69 f0       	breq	.+26     	; 0x189a <GenerateAudio+0xcc>
                        auVolume = loudness;
    1880:	80 93 b8 3a 	sts	0x3AB8, r24	; 0x803ab8 <auVolume>
                        if (duration) duration--; else loudness >>= 1;
    1884:	90 91 59 38 	lds	r25, 0x3859	; 0x803859 <duration.3985>
    1888:	99 23       	and	r25, r25
    188a:	21 f0       	breq	.+8      	; 0x1894 <GenerateAudio+0xc6>
    188c:	91 50       	subi	r25, 0x01	; 1
    188e:	90 93 59 38 	sts	0x3859, r25	; 0x803859 <duration.3985>
    1892:	03 c0       	rjmp	.+6      	; 0x189a <GenerateAudio+0xcc>
    1894:	86 95       	lsr	r24
    1896:	80 93 58 38 	sts	0x3858, r24	; 0x803858 <loudness.3984>
                    } 

                    if (loudness == 0) {
    189a:	80 91 58 38 	lds	r24, 0x3858	; 0x803858 <loudness.3984>
    189e:	81 11       	cpse	r24, r1
    18a0:	19 c0       	rjmp	.+50     	; 0x18d4 <GenerateAudio+0x106>
                        effect &= 0x1f;
    18a2:	80 91 3c 38 	lds	r24, 0x383C	; 0x80383c <effect>
    18a6:	90 91 3d 38 	lds	r25, 0x383D	; 0x80383d <effect+0x1>
    18aa:	8f 71       	andi	r24, 0x1F	; 31
    18ac:	99 27       	eor	r25, r25
    18ae:	80 93 3c 38 	sts	0x383C, r24	; 0x80383c <effect>
    18b2:	90 93 3d 38 	sts	0x383D, r25	; 0x80383d <effect+0x1>
                        auRepAddr = &zero;
    18b6:	8a e3       	ldi	r24, 0x3A	; 58
    18b8:	98 e3       	ldi	r25, 0x38	; 56
    18ba:	80 93 03 38 	sts	0x3803, r24	; 0x803803 <auRepAddr>
    18be:	90 93 04 38 	sts	0x3804, r25	; 0x803804 <auRepAddr+0x1>
                        auSmpAddr = &zero;
    18c2:	80 93 05 38 	sts	0x3805, r24	; 0x803805 <auSmpAddr>
    18c6:	90 93 06 38 	sts	0x3806, r25	; 0x803806 <auSmpAddr+0x1>
                        auVolume = 0xff;
    18ca:	8f ef       	ldi	r24, 0xFF	; 255
    18cc:	80 93 b8 3a 	sts	0x3AB8, r24	; 0x803ab8 <auVolume>
                        start = 0;
    18d0:	10 92 5a 38 	sts	0x385A, r1	; 0x80385a <start.3986>
                    }
                }
            }

            //Good (bell)
            if ((effect&0xE0)==64){
    18d4:	80 91 3c 38 	lds	r24, 0x383C	; 0x80383c <effect>
    18d8:	90 91 3d 38 	lds	r25, 0x383D	; 0x80383d <effect+0x1>
                //auBuffer = 
            }

            //Rain storm with whistling wind
            if ((effect&0xE0)==96){
    18dc:	80 91 3c 38 	lds	r24, 0x383C	; 0x80383c <effect>
    18e0:	90 91 3d 38 	lds	r25, 0x383D	; 0x80383d <effect+0x1>
    18e4:	80 7e       	andi	r24, 0xE0	; 224
    18e6:	99 27       	eor	r25, r25
    18e8:	80 36       	cpi	r24, 0x60	; 96
    18ea:	91 05       	cpc	r25, r1
    18ec:	a9 f5       	brne	.+106    	; 0x1958 <GenerateAudio+0x18a>
                static uint8_t auBuffer[7];
                auBuffer[6]= 0;        
    18ee:	10 92 57 38 	sts	0x3857, r1	; 0x803857 <auBuffer.3987+0x6>
                auRepAddr = &auBuffer[0];
    18f2:	81 e5       	ldi	r24, 0x51	; 81
    18f4:	98 e3       	ldi	r25, 0x38	; 56
    18f6:	80 93 03 38 	sts	0x3803, r24	; 0x803803 <auRepAddr>
    18fa:	90 93 04 38 	sts	0x3804, r25	; 0x803804 <auRepAddr+0x1>
    18fe:	8c 01       	movw	r16, r24

                //Noise is to be generated fast, outside of buttonMark loop
                for (uint8_t x=1; x<6; ++x){
    1900:	c1 e0       	ldi	r28, 0x01	; 1
                    if ((x>0) && (x!=3)) auBuffer[x] = floatAround(0x80, 5, 0x01, 0x00);
    1902:	c3 30       	cpi	r28, 0x03	; 3
    1904:	39 f0       	breq	.+14     	; 0x1914 <GenerateAudio+0x146>
    1906:	20 e0       	ldi	r18, 0x00	; 0
    1908:	41 e0       	ldi	r20, 0x01	; 1
    190a:	65 e0       	ldi	r22, 0x05	; 5
    190c:	80 e8       	ldi	r24, 0x80	; 128
    190e:	b2 dc       	rcall	.-1692   	; 0x1274 <floatAround>
    1910:	f8 01       	movw	r30, r16
    1912:	81 83       	std	Z+1, r24	; 0x01
                static uint8_t auBuffer[7];
                auBuffer[6]= 0;        
                auRepAddr = &auBuffer[0];

                //Noise is to be generated fast, outside of buttonMark loop
                for (uint8_t x=1; x<6; ++x){
    1914:	cf 5f       	subi	r28, 0xFF	; 255
    1916:	0f 5f       	subi	r16, 0xFF	; 255
    1918:	1f 4f       	sbci	r17, 0xFF	; 255
    191a:	c6 30       	cpi	r28, 0x06	; 6
    191c:	91 f7       	brne	.-28     	; 0x1902 <GenerateAudio+0x134>
                    if ((x>0) && (x!=3)) auBuffer[x] = floatAround(0x80, 5, 0x01, 0x00);
                }

                if (buttonMark){
    191e:	80 91 44 38 	lds	r24, 0x3844	; 0x803844 <buttonMark>
    1922:	88 23       	and	r24, r24
    1924:	c9 f0       	breq	.+50     	; 0x1958 <GenerateAudio+0x18a>
                    //"Floating" speed for howl (and noise, but that's hardly audible)
                    floatSpeed(5, 0x0280, 0x0400);
    1926:	40 e0       	ldi	r20, 0x00	; 0
    1928:	54 e0       	ldi	r21, 0x04	; 4
    192a:	60 e8       	ldi	r22, 0x80	; 128
    192c:	72 e0       	ldi	r23, 0x02	; 2
    192e:	85 e0       	ldi	r24, 0x05	; 5
    1930:	6f dc       	rcall	.-1826   	; 0x1210 <floatSpeed>
            
                    //"Floating" volume and wind howl during 8 bit rainstorm needs some randomness
                    auVolume = floatAround(auVolume, 2, 0x10, 0xA0);
    1932:	80 91 b8 3a 	lds	r24, 0x3AB8	; 0x803ab8 <auVolume>
    1936:	20 ea       	ldi	r18, 0xA0	; 160
    1938:	40 e1       	ldi	r20, 0x10	; 16
    193a:	62 e0       	ldi	r22, 0x02	; 2
    193c:	9b dc       	rcall	.-1738   	; 0x1274 <floatAround>
    193e:	80 93 b8 3a 	sts	0x3AB8, r24	; 0x803ab8 <auVolume>
                    auBuffer[0] = floatAround(auBuffer[0], 2, 0x70, 0x90);
    1942:	20 e9       	ldi	r18, 0x90	; 144
    1944:	40 e7       	ldi	r20, 0x70	; 112
    1946:	62 e0       	ldi	r22, 0x02	; 2
    1948:	80 91 51 38 	lds	r24, 0x3851	; 0x803851 <auBuffer.3987>
    194c:	93 dc       	rcall	.-1754   	; 0x1274 <floatAround>
    194e:	80 93 51 38 	sts	0x3851, r24	; 0x803851 <auBuffer.3987>
                    auBuffer[3] = 0xFF-auBuffer[0];  //Inverse value of wind[0] produces a whistle
    1952:	80 95       	com	r24
    1954:	80 93 54 38 	sts	0x3854, r24	; 0x803854 <auBuffer.3987+0x3>
                }
            }

            //Footsteps
            if ((effect&0xE0)==128){
    1958:	80 91 3c 38 	lds	r24, 0x383C	; 0x80383c <effect>
    195c:	90 91 3d 38 	lds	r25, 0x383D	; 0x80383d <effect+0x1>

            }

            //
            if ((effect&0xE0)==160){
    1960:	80 91 3c 38 	lds	r24, 0x383C	; 0x80383c <effect>
    1964:	90 91 3d 38 	lds	r25, 0x383D	; 0x80383d <effect+0x1>

            }

            //
            if ((effect&0xE0)==192){
    1968:	80 91 3c 38 	lds	r24, 0x383C	; 0x80383c <effect>
    196c:	90 91 3d 38 	lds	r25, 0x383D	; 0x80383d <effect+0x1>
    1970:	5f c0       	rjmp	.+190    	; 0x1a30 <GenerateAudio+0x262>
            }

            //
            else {
            }
        } else if ((effect&0xff00)==0x0100) {
    1972:	80 91 3c 38 	lds	r24, 0x383C	; 0x80383c <effect>
    1976:	90 91 3d 38 	lds	r25, 0x383D	; 0x80383d <effect+0x1>
    197a:	88 27       	eor	r24, r24
    197c:	81 15       	cp	r24, r1
    197e:	91 40       	sbci	r25, 0x01	; 1
    1980:	09 f0       	breq	.+2      	; 0x1984 <GenerateAudio+0x1b6>
    1982:	56 c0       	rjmp	.+172    	; 0x1a30 <GenerateAudio+0x262>
            if ((effect&0xE0) <= 0x90) {
    1984:	80 91 3c 38 	lds	r24, 0x383C	; 0x80383c <effect>
    1988:	90 91 3d 38 	lds	r25, 0x383D	; 0x80383d <effect+0x1>
    198c:	80 7e       	andi	r24, 0xE0	; 224
    198e:	99 27       	eor	r25, r25
    1990:	81 39       	cpi	r24, 0x91	; 145
    1992:	91 05       	cpc	r25, r1
    1994:	08 f0       	brcs	.+2      	; 0x1998 <GenerateAudio+0x1ca>
    1996:	4c c0       	rjmp	.+152    	; 0x1a30 <GenerateAudio+0x262>
                
                static uint8_t auBuffer[3] = {255, 1, 0};
                static uint8_t duration, start;
                uint16_t freq = ((effect&0xE0)+1)<<6;
    1998:	60 91 3c 38 	lds	r22, 0x383C	; 0x80383c <effect>
    199c:	70 91 3d 38 	lds	r23, 0x383D	; 0x80383d <effect+0x1>
    19a0:	60 7e       	andi	r22, 0xE0	; 224
    19a2:	77 27       	eor	r23, r23
    19a4:	6f 5f       	subi	r22, 0xFF	; 255
    19a6:	7f 4f       	sbci	r23, 0xFF	; 255
    19a8:	86 e0       	ldi	r24, 0x06	; 6
    19aa:	66 0f       	add	r22, r22
    19ac:	77 1f       	adc	r23, r23
    19ae:	8a 95       	dec	r24
                floatSpeed(1, freq+0x0200, freq+0x0300);
    19b0:	e1 f7       	brne	.-8      	; 0x19aa <GenerateAudio+0x1dc>
    19b2:	ab 01       	movw	r20, r22
    19b4:	5d 5f       	subi	r21, 0xFD	; 253
    19b6:	7e 5f       	subi	r23, 0xFE	; 254
    19b8:	81 e0       	ldi	r24, 0x01	; 1
    19ba:	2a dc       	rcall	.-1964   	; 0x1210 <floatSpeed>
                //auBuffer[] = floatAround(0x80, 5, 0x01, 0x00);

                if (buttonMark) {
    19bc:	80 91 44 38 	lds	r24, 0x3844	; 0x803844 <buttonMark>
    19c0:	88 23       	and	r24, r24
    19c2:	b1 f1       	breq	.+108    	; 0x1a30 <GenerateAudio+0x262>
                    if (start == 0) {
    19c4:	80 91 50 38 	lds	r24, 0x3850	; 0x803850 <start.3994>
    19c8:	81 11       	cpse	r24, r1
    19ca:	0e c0       	rjmp	.+28     	; 0x19e8 <GenerateAudio+0x21a>
                        duration = 3;
    19cc:	83 e0       	ldi	r24, 0x03	; 3
    19ce:	80 93 4f 38 	sts	0x384F, r24	; 0x80384f <duration.3993>
                        auRepAddr = &auBuffer[0];
    19d2:	8e e0       	ldi	r24, 0x0E	; 14
    19d4:	98 e3       	ldi	r25, 0x38	; 56
    19d6:	80 93 03 38 	sts	0x3803, r24	; 0x803803 <auRepAddr>
    19da:	90 93 04 38 	sts	0x3804, r25	; 0x803804 <auRepAddr+0x1>
                        auVolume = 255;
    19de:	8f ef       	ldi	r24, 0xFF	; 255
    19e0:	80 93 b8 3a 	sts	0x3AB8, r24	; 0x803ab8 <auVolume>
                        start = 1;
    19e4:	c0 93 50 38 	sts	0x3850, r28	; 0x803850 <start.3994>
                    }   if (duration == 0) {
    19e8:	80 91 4f 38 	lds	r24, 0x384F	; 0x80384f <duration.3993>
    19ec:	81 11       	cpse	r24, r1
    19ee:	1a c0       	rjmp	.+52     	; 0x1a24 <GenerateAudio+0x256>
                        effect &= 0x1f;
    19f0:	80 91 3c 38 	lds	r24, 0x383C	; 0x80383c <effect>
    19f4:	90 91 3d 38 	lds	r25, 0x383D	; 0x80383d <effect+0x1>
    19f8:	8f 71       	andi	r24, 0x1F	; 31
    19fa:	99 27       	eor	r25, r25
    19fc:	80 93 3c 38 	sts	0x383C, r24	; 0x80383c <effect>
    1a00:	90 93 3d 38 	sts	0x383D, r25	; 0x80383d <effect+0x1>
                        auRepAddr = &zero;
    1a04:	8a e3       	ldi	r24, 0x3A	; 58
    1a06:	98 e3       	ldi	r25, 0x38	; 56
    1a08:	80 93 03 38 	sts	0x3803, r24	; 0x803803 <auRepAddr>
    1a0c:	90 93 04 38 	sts	0x3804, r25	; 0x803804 <auRepAddr+0x1>
                        auSmpAddr = &zero;
    1a10:	80 93 05 38 	sts	0x3805, r24	; 0x803805 <auSmpAddr>
    1a14:	90 93 06 38 	sts	0x3806, r25	; 0x803806 <auSmpAddr+0x1>
                        auVolume = 0xff;
    1a18:	8f ef       	ldi	r24, 0xFF	; 255
    1a1a:	80 93 b8 3a 	sts	0x3AB8, r24	; 0x803ab8 <auVolume>
                        start = 0;
    1a1e:	10 92 50 38 	sts	0x3850, r1	; 0x803850 <start.3994>
    1a22:	06 c0       	rjmp	.+12     	; 0x1a30 <GenerateAudio+0x262>
                    } else duration--;
    1a24:	81 50       	subi	r24, 0x01	; 1
    1a26:	80 93 4f 38 	sts	0x384F, r24	; 0x80384f <duration.3993>
    1a2a:	02 c0       	rjmp	.+4      	; 0x1a30 <GenerateAudio+0x262>
                }
            }
        }
    } else {
        detHdPh = 0;
    1a2c:	10 92 c1 3a 	sts	0x3AC1, r1	; 0x803ac1 <detHdPh>
    }
    return buttonMark;
    1a30:	80 91 44 38 	lds	r24, 0x3844	; 0x803844 <buttonMark>
}
    1a34:	cf 91       	pop	r28
    1a36:	1f 91       	pop	r17
    1a38:	0f 91       	pop	r16
    1a3a:	08 95       	ret

00001a3c <getClock>:

uint16_t getClock() {
    return 60 * minuteMark + (RTC_CNT>>9);
    1a3c:	20 91 45 38 	lds	r18, 0x3845	; 0x803845 <minuteMark>
    1a40:	80 91 48 01 	lds	r24, 0x0148	; 0x800148 <__TEXT_REGION_LENGTH__+0x700148>
    1a44:	90 91 49 01 	lds	r25, 0x0149	; 0x800149 <__TEXT_REGION_LENGTH__+0x700149>
    1a48:	89 2f       	mov	r24, r25
    1a4a:	99 27       	eor	r25, r25
    1a4c:	86 95       	lsr	r24
}
    1a4e:	3c e3       	ldi	r19, 0x3C	; 60
    1a50:	23 9f       	mul	r18, r19
    1a52:	80 0d       	add	r24, r0
    1a54:	91 1d       	adc	r25, r1
    1a56:	11 24       	eor	r1, r1
    1a58:	08 95       	ret

00001a5a <idleTimeout>:

uint8_t idleTimeout(uint16_t lastActive, uint16_t maxIdle) {
    1a5a:	0f 93       	push	r16
    1a5c:	1f 93       	push	r17
    1a5e:	cf 93       	push	r28
    1a60:	df 93       	push	r29
    1a62:	8c 01       	movw	r16, r24
    1a64:	eb 01       	movw	r28, r22
    uint16_t curClock;

    curClock = getClock();
    1a66:	ea df       	rcall	.-44     	; 0x1a3c <getClock>
    1a68:	9c 01       	movw	r18, r24
    if (curClock < lastActive)
    1a6a:	80 17       	cp	r24, r16
    1a6c:	91 07       	cpc	r25, r17
    1a6e:	08 f4       	brcc	.+2      	; 0x1a72 <idleTimeout+0x18>
        curClock += 256 * 60;
    1a70:	34 5c       	subi	r19, 0xC4	; 196

    return (curClock > (lastActive + maxIdle));
    1a72:	c0 0f       	add	r28, r16
    1a74:	d1 1f       	adc	r29, r17
    1a76:	81 e0       	ldi	r24, 0x01	; 1
    1a78:	c2 17       	cp	r28, r18
    1a7a:	d3 07       	cpc	r29, r19
    1a7c:	08 f0       	brcs	.+2      	; 0x1a80 <idleTimeout+0x26>
    1a7e:	80 e0       	ldi	r24, 0x00	; 0
}
    1a80:	df 91       	pop	r29
    1a82:	cf 91       	pop	r28
    1a84:	1f 91       	pop	r17
    1a86:	0f 91       	pop	r16
    1a88:	08 95       	ret

00001a8a <simonLed>:

/**
 * Set the wing LED blocks to selected option
 * @param val
 */
void simonLed(uint8_t val) {
    1a8a:	cf 93       	push	r28
    1a8c:	df 93       	push	r29
    1a8e:	ea e2       	ldi	r30, 0x2A	; 42
    1a90:	fe eb       	ldi	r31, 0xBE	; 190
    1a92:	ef 01       	movw	r28, r30
    for (uint8_t n = 0; n < 5; n++) {
        iLED[WING[L][n]] = 0;
    1a94:	a5 81       	ldd	r26, Z+5	; 0x05
    1a96:	b0 e0       	ldi	r27, 0x00	; 0
    1a98:	a4 53       	subi	r26, 0x34	; 52
    1a9a:	b5 4c       	sbci	r27, 0xC5	; 197
    1a9c:	1c 92       	st	X, r1
    1a9e:	31 96       	adiw	r30, 0x01	; 1
        iLED[WING[R][n]] = 0;
    1aa0:	a8 81       	ld	r26, Y
    1aa2:	b0 e0       	ldi	r27, 0x00	; 0
    1aa4:	a4 53       	subi	r26, 0x34	; 52
    1aa6:	b5 4c       	sbci	r27, 0xC5	; 197
    1aa8:	1c 92       	st	X, r1
/**
 * Set the wing LED blocks to selected option
 * @param val
 */
void simonLed(uint8_t val) {
    for (uint8_t n = 0; n < 5; n++) {
    1aaa:	9e eb       	ldi	r25, 0xBE	; 190
    1aac:	ef 32       	cpi	r30, 0x2F	; 47
    1aae:	f9 07       	cpc	r31, r25
    1ab0:	81 f7       	brne	.-32     	; 0x1a92 <simonLed+0x8>
        iLED[WING[L][n]] = 0;
        iLED[WING[R][n]] = 0;
    }
    if (val == 3) {         // II
    1ab2:	83 30       	cpi	r24, 0x03	; 3
    1ab4:	d9 f4       	brne	.+54     	; 0x1aec <simonLed+0x62>
        iLED[WING[L][0]] = dimValue;
    1ab6:	e0 91 2f be 	lds	r30, 0xBE2F	; 0x80be2f <__bss_end+0x8313>
    1aba:	f0 e0       	ldi	r31, 0x00	; 0
    1abc:	80 91 0c 38 	lds	r24, 0x380C	; 0x80380c <dimValue>
    1ac0:	e4 53       	subi	r30, 0x34	; 52
    1ac2:	f5 4c       	sbci	r31, 0xC5	; 197
    1ac4:	80 83       	st	Z, r24
        iLED[WING[L][1]] = dimValue;
    1ac6:	e0 91 30 be 	lds	r30, 0xBE30	; 0x80be30 <__bss_end+0x8314>
    1aca:	f0 e0       	ldi	r31, 0x00	; 0
    1acc:	80 91 0c 38 	lds	r24, 0x380C	; 0x80380c <dimValue>
    1ad0:	e4 53       	subi	r30, 0x34	; 52
    1ad2:	f5 4c       	sbci	r31, 0xC5	; 197
    1ad4:	80 83       	st	Z, r24
        iLED[WING[L][2]] = dimValue;
    1ad6:	e0 91 31 be 	lds	r30, 0xBE31	; 0x80be31 <__bss_end+0x8315>
    1ada:	f0 e0       	ldi	r31, 0x00	; 0
    1adc:	80 91 0c 38 	lds	r24, 0x380C	; 0x80380c <dimValue>
    1ae0:	e4 53       	subi	r30, 0x34	; 52
    1ae2:	f5 4c       	sbci	r31, 0xC5	; 197
    1ae4:	80 83       	st	Z, r24
        effect = 0x013f;
    1ae6:	8f e3       	ldi	r24, 0x3F	; 63
    1ae8:	91 e0       	ldi	r25, 0x01	; 1
    1aea:	46 c0       	rjmp	.+140    	; 0x1b78 <simonLed+0xee>
    } else if (val == 1) {  //
    1aec:	81 30       	cpi	r24, 0x01	; 1
    1aee:	99 f4       	brne	.+38     	; 0x1b16 <simonLed+0x8c>
        iLED[WING[L][3]] = dimValue;
    1af0:	e0 91 32 be 	lds	r30, 0xBE32	; 0x80be32 <__bss_end+0x8316>
    1af4:	f0 e0       	ldi	r31, 0x00	; 0
    1af6:	80 91 0c 38 	lds	r24, 0x380C	; 0x80380c <dimValue>
    1afa:	e4 53       	subi	r30, 0x34	; 52
    1afc:	f5 4c       	sbci	r31, 0xC5	; 197
    1afe:	80 83       	st	Z, r24
        iLED[WING[L][4]] = dimValue;
    1b00:	e0 91 33 be 	lds	r30, 0xBE33	; 0x80be33 <__bss_end+0x8317>
    1b04:	f0 e0       	ldi	r31, 0x00	; 0
    1b06:	80 91 0c 38 	lds	r24, 0x380C	; 0x80380c <dimValue>
    1b0a:	e4 53       	subi	r30, 0x34	; 52
    1b0c:	f5 4c       	sbci	r31, 0xC5	; 197
    1b0e:	80 83       	st	Z, r24
        effect = 0x015f;
    1b10:	8f e5       	ldi	r24, 0x5F	; 95
    1b12:	91 e0       	ldi	r25, 0x01	; 1
    1b14:	31 c0       	rjmp	.+98     	; 0x1b78 <simonLed+0xee>
    } else if (val == 4) {  // III
    1b16:	84 30       	cpi	r24, 0x04	; 4
    1b18:	d9 f4       	brne	.+54     	; 0x1b50 <simonLed+0xc6>
        iLED[WING[R][0]] = dimValue;
    1b1a:	e0 91 2a be 	lds	r30, 0xBE2A	; 0x80be2a <__bss_end+0x830e>
    1b1e:	f0 e0       	ldi	r31, 0x00	; 0
    1b20:	80 91 0c 38 	lds	r24, 0x380C	; 0x80380c <dimValue>
    1b24:	e4 53       	subi	r30, 0x34	; 52
    1b26:	f5 4c       	sbci	r31, 0xC5	; 197
    1b28:	80 83       	st	Z, r24
        iLED[WING[R][1]] = dimValue;
    1b2a:	e0 91 2b be 	lds	r30, 0xBE2B	; 0x80be2b <__bss_end+0x830f>
    1b2e:	f0 e0       	ldi	r31, 0x00	; 0
    1b30:	80 91 0c 38 	lds	r24, 0x380C	; 0x80380c <dimValue>
    1b34:	e4 53       	subi	r30, 0x34	; 52
    1b36:	f5 4c       	sbci	r31, 0xC5	; 197
    1b38:	80 83       	st	Z, r24
        iLED[WING[R][2]] = dimValue;
    1b3a:	e0 91 2c be 	lds	r30, 0xBE2C	; 0x80be2c <__bss_end+0x8310>
    1b3e:	f0 e0       	ldi	r31, 0x00	; 0
    1b40:	80 91 0c 38 	lds	r24, 0x380C	; 0x80380c <dimValue>
    1b44:	e4 53       	subi	r30, 0x34	; 52
    1b46:	f5 4c       	sbci	r31, 0xC5	; 197
    1b48:	80 83       	st	Z, r24
        effect = 0x017f;
    1b4a:	8f e7       	ldi	r24, 0x7F	; 127
    1b4c:	91 e0       	ldi	r25, 0x01	; 1
    1b4e:	14 c0       	rjmp	.+40     	; 0x1b78 <simonLed+0xee>
    } else if (val == 2) {  // I
    1b50:	82 30       	cpi	r24, 0x02	; 2
    1b52:	b1 f4       	brne	.+44     	; 0x1b80 <simonLed+0xf6>
        iLED[WING[R][3]] = dimValue;
    1b54:	e0 91 2d be 	lds	r30, 0xBE2D	; 0x80be2d <__bss_end+0x8311>
    1b58:	f0 e0       	ldi	r31, 0x00	; 0
    1b5a:	80 91 0c 38 	lds	r24, 0x380C	; 0x80380c <dimValue>
    1b5e:	e4 53       	subi	r30, 0x34	; 52
    1b60:	f5 4c       	sbci	r31, 0xC5	; 197
    1b62:	80 83       	st	Z, r24
        iLED[WING[R][4]] = dimValue;
    1b64:	e0 91 2e be 	lds	r30, 0xBE2E	; 0x80be2e <__bss_end+0x8312>
    1b68:	f0 e0       	ldi	r31, 0x00	; 0
    1b6a:	80 91 0c 38 	lds	r24, 0x380C	; 0x80380c <dimValue>
    1b6e:	e4 53       	subi	r30, 0x34	; 52
    1b70:	f5 4c       	sbci	r31, 0xC5	; 197
    1b72:	80 83       	st	Z, r24
        effect = 0x019f;
    1b74:	8f e9       	ldi	r24, 0x9F	; 159
    1b76:	91 e0       	ldi	r25, 0x01	; 1
    1b78:	80 93 3c 38 	sts	0x383C, r24	; 0x80383c <effect>
    1b7c:	90 93 3d 38 	sts	0x383D, r25	; 0x80383d <effect+0x1>
    }
}
    1b80:	df 91       	pop	r29
    1b82:	cf 91       	pop	r28
    1b84:	08 95       	ret

00001b86 <BastetDictates>:

/**
 * Main game loop
 * @return 0
 */
uint8_t BastetDictates() {
    1b86:	cf 93       	push	r28
    1b88:	df 93       	push	r29
    if (CheckState(BASTET_COMPLETED))
    1b8a:	8a e7       	ldi	r24, 0x7A	; 122
    1b8c:	50 dc       	rcall	.-1888   	; 0x142e <CheckState>
    1b8e:	81 11       	cpse	r24, r1
    1b90:	73 c1       	rjmp	.+742    	; 0x1e78 <BastetDictates+0x2f2>
        return 0;

    if ((TEXT != gameNow) && (BASTET != gameNow))
    1b92:	80 91 3e 38 	lds	r24, 0x383E	; 0x80383e <gameNow>
    1b96:	8d 7f       	andi	r24, 0xFD	; 253
    1b98:	09 f0       	breq	.+2      	; 0x1b9c <BastetDictates+0x16>
    1b9a:	6e c1       	rjmp	.+732    	; 0x1e78 <BastetDictates+0x2f2>
        return 0;

    if (BASTET_BOOT == simonGameState) {
    1b9c:	80 91 5e 38 	lds	r24, 0x385E	; 0x80385e <simonGameState>
    1ba0:	81 11       	cpse	r24, r1
    1ba2:	20 c0       	rjmp	.+64     	; 0x1be4 <BastetDictates+0x5e>
        simonPos = ((adcPhot+adcTemp)&0x3f);
    1ba4:	20 91 bf 3a 	lds	r18, 0x3ABF	; 0x803abf <adcPhot>
    1ba8:	30 91 c0 3a 	lds	r19, 0x3AC0	; 0x803ac0 <adcPhot+0x1>
    1bac:	80 91 f7 3a 	lds	r24, 0x3AF7	; 0x803af7 <adcTemp>
    1bb0:	90 91 f8 3a 	lds	r25, 0x3AF8	; 0x803af8 <adcTemp+0x1>
    1bb4:	82 0f       	add	r24, r18
    1bb6:	8f 73       	andi	r24, 0x3F	; 63
    1bb8:	80 93 63 38 	sts	0x3863, r24	; 0x803863 <simonPos>
        for(uint8_t x=0; x<simonPos; ++x) lfsr();
    1bbc:	c0 e0       	ldi	r28, 0x00	; 0
    1bbe:	80 91 63 38 	lds	r24, 0x3863	; 0x803863 <simonPos>
    1bc2:	c8 17       	cp	r28, r24
    1bc4:	18 f4       	brcc	.+6      	; 0x1bcc <BastetDictates+0x46>
    1bc6:	05 db       	rcall	.-2550   	; 0x11d2 <lfsr>
    1bc8:	cf 5f       	subi	r28, 0xFF	; 255
    1bca:	f9 cf       	rjmp	.-14     	; 0x1bbe <BastetDictates+0x38>
    1bcc:	c4 e6       	ldi	r28, 0x64	; 100

        for (uint8_t i = 0; i < BASTET_LENGTH; i++) {
            simonState[i] = (lfsr() % 4);
    1bce:	d8 e3       	ldi	r29, 0x38	; 56
    1bd0:	00 db       	rcall	.-2560   	; 0x11d2 <lfsr>
    1bd2:	83 70       	andi	r24, 0x03	; 3
    1bd4:	89 93       	st	Y+, r24

    if (BASTET_BOOT == simonGameState) {
        simonPos = ((adcPhot+adcTemp)&0x3f);
        for(uint8_t x=0; x<simonPos; ++x) lfsr();

        for (uint8_t i = 0; i < BASTET_LENGTH; i++) {
    1bd6:	88 e3       	ldi	r24, 0x38	; 56
    1bd8:	c0 37       	cpi	r28, 0x70	; 112
    1bda:	d8 07       	cpc	r29, r24
    1bdc:	c9 f7       	brne	.-14     	; 0x1bd0 <BastetDictates+0x4a>
            simonState[i] = (lfsr() % 4);
        }
        simonGameState = BASTET_GAME_START;
    1bde:	81 e0       	ldi	r24, 0x01	; 1
    1be0:	80 93 5e 38 	sts	0x385E, r24	; 0x80385e <simonGameState>
    }

    if (BASTET_GAME_START == simonGameState && BASTET == gameNow) {
    1be4:	80 91 5e 38 	lds	r24, 0x385E	; 0x80385e <simonGameState>
    1be8:	81 30       	cpi	r24, 0x01	; 1
    1bea:	71 f4       	brne	.+28     	; 0x1c08 <BastetDictates+0x82>
    1bec:	80 91 3e 38 	lds	r24, 0x383E	; 0x80383e <gameNow>
    1bf0:	82 30       	cpi	r24, 0x02	; 2
    1bf2:	51 f4       	brne	.+20     	; 0x1c08 <BastetDictates+0x82>
        simonGameState = BASTET_GAME_INTRO;
    1bf4:	80 93 5e 38 	sts	0x385E, r24	; 0x80385e <simonGameState>
        simonPos = 0;
    1bf8:	10 92 63 38 	sts	0x3863, r1	; 0x803863 <simonPos>
        simonInputPos = 0;
    1bfc:	10 92 62 38 	sts	0x3862, r1	; 0x803862 <simonInputPos>
        simonTimer = 0;
    1c00:	10 92 61 38 	sts	0x3861, r1	; 0x803861 <simonTimer>
        simonCounter = 0;
    1c04:	10 92 5f 38 	sts	0x385F, r1	; 0x80385f <simonCounter>
    }

    if (BASTET_GAME_INTRO == simonGameState) {
    1c08:	80 91 5e 38 	lds	r24, 0x385E	; 0x80385e <simonGameState>
    1c0c:	82 30       	cpi	r24, 0x02	; 2
    1c0e:	79 f5       	brne	.+94     	; 0x1c6e <BastetDictates+0xe8>
        if (simonTimer > 5) {   // .33 seconds
    1c10:	80 91 61 38 	lds	r24, 0x3861	; 0x803861 <simonTimer>
    1c14:	86 30       	cpi	r24, 0x06	; 6
    1c16:	38 f0       	brcs	.+14     	; 0x1c26 <BastetDictates+0xa0>
            simonCounter++;
    1c18:	80 91 5f 38 	lds	r24, 0x385F	; 0x80385f <simonCounter>
    1c1c:	8f 5f       	subi	r24, 0xFF	; 255
    1c1e:	80 93 5f 38 	sts	0x385F, r24	; 0x80385f <simonCounter>
            simonTimer = 0;
    1c22:	10 92 61 38 	sts	0x3861, r1	; 0x803861 <simonTimer>
        }
        if (simonCounter > 5) {
    1c26:	e0 91 5f 38 	lds	r30, 0x385F	; 0x80385f <simonCounter>
    1c2a:	e6 30       	cpi	r30, 0x06	; 6
    1c2c:	a8 f0       	brcs	.+42     	; 0x1c58 <BastetDictates+0xd2>
            simonGameState = BASTET_GAME_SHOW_PATTERN;
    1c2e:	83 e0       	ldi	r24, 0x03	; 3
    1c30:	80 93 5e 38 	sts	0x385E, r24	; 0x80385e <simonGameState>
            simonTimer = 0;
    1c34:	10 92 61 38 	sts	0x3861, r1	; 0x803861 <simonTimer>
            simonCounter = 0;
    1c38:	10 92 5f 38 	sts	0x385F, r1	; 0x80385f <simonCounter>
    1c3c:	ae e3       	ldi	r26, 0x3E	; 62
    1c3e:	be eb       	ldi	r27, 0xBE	; 190
    1c40:	84 e4       	ldi	r24, 0x44	; 68
    1c42:	9e eb       	ldi	r25, 0xBE	; 190
            for (uint8_t n=0; n<6; n++){
                iLED[HCKR[G][n]] = 1;
    1c44:	21 e0       	ldi	r18, 0x01	; 1
    1c46:	ed 91       	ld	r30, X+
    1c48:	f0 e0       	ldi	r31, 0x00	; 0
    1c4a:	e4 53       	subi	r30, 0x34	; 52
    1c4c:	f5 4c       	sbci	r31, 0xC5	; 197
    1c4e:	20 83       	st	Z, r18
        }
        if (simonCounter > 5) {
            simonGameState = BASTET_GAME_SHOW_PATTERN;
            simonTimer = 0;
            simonCounter = 0;
            for (uint8_t n=0; n<6; n++){
    1c50:	8a 17       	cp	r24, r26
    1c52:	9b 07       	cpc	r25, r27
    1c54:	c1 f7       	brne	.-16     	; 0x1c46 <BastetDictates+0xc0>
    1c56:	10 c1       	rjmp	.+544    	; 0x1e78 <BastetDictates+0x2f2>
                iLED[HCKR[G][n]] = 1;
            }
            return 0;
        }
        iLED[HCKR[R][simonCounter]] = dimValue;
    1c58:	f0 e0       	ldi	r31, 0x00	; 0
    1c5a:	e8 5c       	subi	r30, 0xC8	; 200
    1c5c:	f1 44       	sbci	r31, 0x41	; 65
    1c5e:	e0 81       	ld	r30, Z
    1c60:	f0 e0       	ldi	r31, 0x00	; 0
    1c62:	80 91 0c 38 	lds	r24, 0x380C	; 0x80380c <dimValue>
    1c66:	e4 53       	subi	r30, 0x34	; 52
    1c68:	f5 4c       	sbci	r31, 0xC5	; 197
    1c6a:	80 83       	st	Z, r24
    1c6c:	23 c0       	rjmp	.+70     	; 0x1cb4 <BastetDictates+0x12e>
    }

    if (BASTET_GAME_SHOW_PATTERN == simonGameState) {
    1c6e:	83 30       	cpi	r24, 0x03	; 3
    1c70:	09 f5       	brne	.+66     	; 0x1cb4 <BastetDictates+0x12e>

        if (simonTimer > 7) {   // .5 second
    1c72:	80 91 61 38 	lds	r24, 0x3861	; 0x803861 <simonTimer>
    1c76:	88 30       	cpi	r24, 0x08	; 8
    1c78:	38 f0       	brcs	.+14     	; 0x1c88 <BastetDictates+0x102>
            simonCounter++;
    1c7a:	80 91 5f 38 	lds	r24, 0x385F	; 0x80385f <simonCounter>
    1c7e:	8f 5f       	subi	r24, 0xFF	; 255
    1c80:	80 93 5f 38 	sts	0x385F, r24	; 0x80385f <simonCounter>
            simonTimer = 0;
    1c84:	10 92 61 38 	sts	0x3861, r1	; 0x803861 <simonTimer>
        }
        if (simonCounter > simonPos) {
    1c88:	e0 91 5f 38 	lds	r30, 0x385F	; 0x80385f <simonCounter>
    1c8c:	80 91 63 38 	lds	r24, 0x3863	; 0x803863 <simonPos>
    1c90:	8e 17       	cp	r24, r30
    1c92:	50 f4       	brcc	.+20     	; 0x1ca8 <BastetDictates+0x122>
            simonInputPos = 0;
    1c94:	10 92 62 38 	sts	0x3862, r1	; 0x803862 <simonInputPos>
            simonGameState = BASTET_GAME_INPUT;
    1c98:	85 e0       	ldi	r24, 0x05	; 5
    1c9a:	80 93 5e 38 	sts	0x385E, r24	; 0x80385e <simonGameState>
            simonLed(0);
    1c9e:	80 e0       	ldi	r24, 0x00	; 0
    1ca0:	f4 de       	rcall	.-536    	; 0x1a8a <simonLed>
            simonTimer = 0;
    1ca2:	10 92 61 38 	sts	0x3861, r1	; 0x803861 <simonTimer>
            return 0;
    1ca6:	e8 c0       	rjmp	.+464    	; 0x1e78 <BastetDictates+0x2f2>
        }
        simonLed(simonState[simonCounter]+1);
    1ca8:	f0 e0       	ldi	r31, 0x00	; 0
    1caa:	ec 59       	subi	r30, 0x9C	; 156
    1cac:	f7 4c       	sbci	r31, 0xC7	; 199
    1cae:	80 81       	ld	r24, Z
    1cb0:	8f 5f       	subi	r24, 0xFF	; 255
    1cb2:	eb de       	rcall	.-554    	; 0x1a8a <simonLed>
    }

    if (BASTET_GAME_INPUT == simonGameState) {
    1cb4:	c0 91 5e 38 	lds	r28, 0x385E	; 0x80385e <simonGameState>
    1cb8:	c5 30       	cpi	r28, 0x05	; 5
    1cba:	09 f0       	breq	.+2      	; 0x1cbe <BastetDictates+0x138>
    1cbc:	7e c0       	rjmp	.+252    	; 0x1dba <BastetDictates+0x234>
        //Button pressed
        if (lastButtonState != buttonState && (buttonState+1) > 0) {
    1cbe:	80 91 08 38 	lds	r24, 0x3808	; 0x803808 <buttonState>
    1cc2:	90 91 07 38 	lds	r25, 0x3807	; 0x803807 <lastButtonState>
    1cc6:	98 17       	cp	r25, r24
    1cc8:	09 f4       	brne	.+2      	; 0x1ccc <BastetDictates+0x146>
    1cca:	75 c0       	rjmp	.+234    	; 0x1db6 <BastetDictates+0x230>
            if (simonWait == 0) {
    1ccc:	90 91 60 38 	lds	r25, 0x3860	; 0x803860 <simonWait>
    1cd0:	91 11       	cpse	r25, r1
    1cd2:	87 c0       	rjmp	.+270    	; 0x1de2 <BastetDictates+0x25c>
                simonWait = 1;
    1cd4:	91 e0       	ldi	r25, 0x01	; 1
    1cd6:	90 93 60 38 	sts	0x3860, r25	; 0x803860 <simonWait>
                simonTimer = 0;
    1cda:	10 92 61 38 	sts	0x3861, r1	; 0x803861 <simonTimer>
                simonLed(buttonState+1);
    1cde:	8f 5f       	subi	r24, 0xFF	; 255
    1ce0:	d4 de       	rcall	.-600    	; 0x1a8a <simonLed>
                simonGameState = BASTET_GAME_WAIT_LEDS;
    1ce2:	84 e0       	ldi	r24, 0x04	; 4
    1ce4:	80 93 5e 38 	sts	0x385E, r24	; 0x80385e <simonGameState>
                simonNextGameState = BASTET_GAME_INPUT;
    1ce8:	c0 93 2d 38 	sts	0x382D, r28	; 0x80382d <simonNextGameState>

                if (simonState[simonInputPos] == buttonState) {
    1cec:	80 91 62 38 	lds	r24, 0x3862	; 0x803862 <simonInputPos>
    1cf0:	e8 2f       	mov	r30, r24
    1cf2:	f0 e0       	ldi	r31, 0x00	; 0
    1cf4:	ec 59       	subi	r30, 0x9C	; 156
    1cf6:	f7 4c       	sbci	r31, 0xC7	; 199
    1cf8:	20 81       	ld	r18, Z
    1cfa:	90 91 08 38 	lds	r25, 0x3808	; 0x803808 <buttonState>
    1cfe:	29 13       	cpse	r18, r25
    1d00:	23 c0       	rjmp	.+70     	; 0x1d48 <BastetDictates+0x1c2>
                    simonInputPos++;
    1d02:	8f 5f       	subi	r24, 0xFF	; 255
    1d04:	80 93 62 38 	sts	0x3862, r24	; 0x803862 <simonInputPos>
                    if (simonInputPos > simonPos) {
    1d08:	e0 91 63 38 	lds	r30, 0x3863	; 0x803863 <simonPos>
    1d0c:	e8 17       	cp	r30, r24
    1d0e:	d8 f5       	brcc	.+118    	; 0x1d86 <BastetDictates+0x200>
                        effect = 0x42;
    1d10:	82 e4       	ldi	r24, 0x42	; 66
    1d12:	90 e0       	ldi	r25, 0x00	; 0
    1d14:	80 93 3c 38 	sts	0x383C, r24	; 0x80383c <effect>
    1d18:	90 93 3d 38 	sts	0x383D, r25	; 0x80383d <effect+0x1>
                        simonPos++;
    1d1c:	ef 5f       	subi	r30, 0xFF	; 255
    1d1e:	e0 93 63 38 	sts	0x3863, r30	; 0x803863 <simonPos>
                        simonTimer = 0;
    1d22:	10 92 61 38 	sts	0x3861, r1	; 0x803861 <simonTimer>
                        simonCounter = 0;
    1d26:	10 92 5f 38 	sts	0x385F, r1	; 0x80385f <simonCounter>
                        if (simonPos > 1) { // BASTET_LENGTH = 12
    1d2a:	e1 30       	cpi	r30, 0x01	; 1
    1d2c:	59 f0       	breq	.+22     	; 0x1d44 <BastetDictates+0x1be>
                            iLED[HCKR[G][(simonPos / 2) - 1]] = dimValue;
    1d2e:	e6 95       	lsr	r30
    1d30:	f0 e0       	ldi	r31, 0x00	; 0
    1d32:	e8 5c       	subi	r30, 0xC8	; 200
    1d34:	f1 44       	sbci	r31, 0x41	; 65
    1d36:	e5 81       	ldd	r30, Z+5	; 0x05
    1d38:	f0 e0       	ldi	r31, 0x00	; 0
    1d3a:	80 91 0c 38 	lds	r24, 0x380C	; 0x80380c <dimValue>
    1d3e:	e4 53       	subi	r30, 0x34	; 52
    1d40:	f5 4c       	sbci	r31, 0xC5	; 197
    1d42:	80 83       	st	Z, r24
                        }
                        simonNextGameState = BASTET_GAME_SHOW_PATTERN;
    1d44:	83 e0       	ldi	r24, 0x03	; 3
    1d46:	1d c0       	rjmp	.+58     	; 0x1d82 <BastetDictates+0x1fc>
                    }
                } else {
                    effect = 0x0105;    // TODO fail sound
    1d48:	85 e0       	ldi	r24, 0x05	; 5
    1d4a:	91 e0       	ldi	r25, 0x01	; 1
    1d4c:	80 93 3c 38 	sts	0x383C, r24	; 0x80383c <effect>
    1d50:	90 93 3d 38 	sts	0x383D, r25	; 0x80383d <effect+0x1>
    1d54:	a8 e3       	ldi	r26, 0x38	; 56
    1d56:	be eb       	ldi	r27, 0xBE	; 190
    1d58:	8e e3       	ldi	r24, 0x3E	; 62
    1d5a:	9e eb       	ldi	r25, 0xBE	; 190
                    for (uint8_t n=0; n<6; n++){
                        iLED[HCKR[R][n]] = dimValue;
    1d5c:	ed 91       	ld	r30, X+
    1d5e:	f0 e0       	ldi	r31, 0x00	; 0
    1d60:	20 91 0c 38 	lds	r18, 0x380C	; 0x80380c <dimValue>
    1d64:	e4 53       	subi	r30, 0x34	; 52
    1d66:	f5 4c       	sbci	r31, 0xC5	; 197
    1d68:	20 83       	st	Z, r18
                        }
                        simonNextGameState = BASTET_GAME_SHOW_PATTERN;
                    }
                } else {
                    effect = 0x0105;    // TODO fail sound
                    for (uint8_t n=0; n<6; n++){
    1d6a:	8a 17       	cp	r24, r26
    1d6c:	9b 07       	cpc	r25, r27
    1d6e:	b1 f7       	brne	.-20     	; 0x1d5c <BastetDictates+0x1d6>
                        iLED[HCKR[R][n]] = dimValue;
                    }
                    simonInputPos = 0;
    1d70:	10 92 62 38 	sts	0x3862, r1	; 0x803862 <simonInputPos>
                    simonPos = 0;
    1d74:	10 92 63 38 	sts	0x3863, r1	; 0x803863 <simonPos>
                    simonTimer = 0;
    1d78:	10 92 61 38 	sts	0x3861, r1	; 0x803861 <simonTimer>
                    simonCounter = 0;
    1d7c:	10 92 5f 38 	sts	0x385F, r1	; 0x80385f <simonCounter>
                    simonNextGameState = BASTET_GAME_OUTRO;
    1d80:	86 e0       	ldi	r24, 0x06	; 6
    1d82:	80 93 2d 38 	sts	0x382D, r24	; 0x80382d <simonNextGameState>
                }

                if (simonInputPos >= BASTET_LENGTH || simonPos >= BASTET_LENGTH) { // beetje dubbel
    1d86:	80 91 62 38 	lds	r24, 0x3862	; 0x803862 <simonInputPos>
    1d8a:	8c 30       	cpi	r24, 0x0C	; 12
    1d8c:	20 f4       	brcc	.+8      	; 0x1d96 <BastetDictates+0x210>
    1d8e:	80 91 63 38 	lds	r24, 0x3863	; 0x803863 <simonPos>
    1d92:	8c 30       	cpi	r24, 0x0C	; 12
    1d94:	90 f0       	brcs	.+36     	; 0x1dba <BastetDictates+0x234>
                    // TODO win animu ?!
                    effect = 0x0106;    // TODO win sound ?!
    1d96:	86 e0       	ldi	r24, 0x06	; 6
    1d98:	91 e0       	ldi	r25, 0x01	; 1
    1d9a:	80 93 3c 38 	sts	0x383C, r24	; 0x80383c <effect>
    1d9e:	90 93 3d 38 	sts	0x383D, r25	; 0x80383d <effect+0x1>
                    UpdateState(BASTET_COMPLETED);
    1da2:	8a e7       	ldi	r24, 0x7A	; 122
    1da4:	3a db       	rcall	.-2444   	; 0x141a <UpdateState>
                    simonTimer = 0;
    1da6:	10 92 61 38 	sts	0x3861, r1	; 0x803861 <simonTimer>
                    simonCounter = 0;
    1daa:	10 92 5f 38 	sts	0x385F, r1	; 0x80385f <simonCounter>
                    simonNextGameState = BASTET_GAME_OVER;
    1dae:	87 e0       	ldi	r24, 0x07	; 7
    1db0:	80 93 2d 38 	sts	0x382D, r24	; 0x80382d <simonNextGameState>
    1db4:	02 c0       	rjmp	.+4      	; 0x1dba <BastetDictates+0x234>
                }
            }
        
        //Button released, next or reset!
        } else {
            simonWait = 0;
    1db6:	10 92 60 38 	sts	0x3860, r1	; 0x803860 <simonWait>
        }
    }

    if (BASTET_GAME_WAIT_LEDS == simonGameState) {
    1dba:	80 91 5e 38 	lds	r24, 0x385E	; 0x80385e <simonGameState>
    1dbe:	84 30       	cpi	r24, 0x04	; 4
        if (simonTimer >= 7) {
    1dc0:	81 f4       	brne	.+32     	; 0x1de2 <BastetDictates+0x25c>
    1dc2:	80 91 61 38 	lds	r24, 0x3861	; 0x803861 <simonTimer>
    1dc6:	87 30       	cpi	r24, 0x07	; 7
            // on to next state after .5 second
            simonLed(0);  // LEDs off
    1dc8:	60 f0       	brcs	.+24     	; 0x1de2 <BastetDictates+0x25c>
    1dca:	80 e0       	ldi	r24, 0x00	; 0
    1dcc:	5e de       	rcall	.-836    	; 0x1a8a <simonLed>
            simonWait = 0;
    1dce:	10 92 60 38 	sts	0x3860, r1	; 0x803860 <simonWait>
            simonTimer = 0;
    1dd2:	10 92 61 38 	sts	0x3861, r1	; 0x803861 <simonTimer>
            simonCounter = 0;
    1dd6:	10 92 5f 38 	sts	0x385F, r1	; 0x80385f <simonCounter>
            simonGameState = simonNextGameState;
    1dda:	80 91 2d 38 	lds	r24, 0x382D	; 0x80382d <simonNextGameState>
    1dde:	80 93 5e 38 	sts	0x385E, r24	; 0x80385e <simonGameState>
        }
    }

    if (BASTET_GAME_OUTRO == simonGameState) {
    1de2:	80 91 5e 38 	lds	r24, 0x385E	; 0x80385e <simonGameState>
    1de6:	86 30       	cpi	r24, 0x06	; 6
    1de8:	21 f5       	brne	.+72     	; 0x1e32 <BastetDictates+0x2ac>
        if (simonTimer > 5) {   // .33 second
    1dea:	80 91 61 38 	lds	r24, 0x3861	; 0x803861 <simonTimer>
    1dee:	86 30       	cpi	r24, 0x06	; 6
    1df0:	38 f0       	brcs	.+14     	; 0x1e00 <BastetDictates+0x27a>
            simonCounter++;
    1df2:	80 91 5f 38 	lds	r24, 0x385F	; 0x80385f <simonCounter>
    1df6:	8f 5f       	subi	r24, 0xFF	; 255
    1df8:	80 93 5f 38 	sts	0x385F, r24	; 0x80385f <simonCounter>
            simonTimer = 0;
    1dfc:	10 92 61 38 	sts	0x3861, r1	; 0x803861 <simonTimer>
        }
        if (simonCounter > 6) {
    1e00:	80 91 5f 38 	lds	r24, 0x385F	; 0x80385f <simonCounter>
    1e04:	87 30       	cpi	r24, 0x07	; 7
    1e06:	40 f0       	brcs	.+16     	; 0x1e18 <BastetDictates+0x292>
            simonTimer = 0;
    1e08:	10 92 61 38 	sts	0x3861, r1	; 0x803861 <simonTimer>
            simonCounter = 0;
    1e0c:	10 92 5f 38 	sts	0x385F, r1	; 0x80385f <simonCounter>
            simonGameState = BASTET_GAME_OVER;
    1e10:	87 e0       	ldi	r24, 0x07	; 7
    1e12:	80 93 5e 38 	sts	0x385E, r24	; 0x80385e <simonGameState>
            return 0;
    1e16:	30 c0       	rjmp	.+96     	; 0x1e78 <BastetDictates+0x2f2>
        }
        iLED[HCKR[R][5-simonCounter]] = 1;
    1e18:	e5 e0       	ldi	r30, 0x05	; 5
    1e1a:	f0 e0       	ldi	r31, 0x00	; 0
    1e1c:	e8 1b       	sub	r30, r24
    1e1e:	f1 09       	sbc	r31, r1
    1e20:	e8 5c       	subi	r30, 0xC8	; 200
    1e22:	f1 44       	sbci	r31, 0x41	; 65
    1e24:	e0 81       	ld	r30, Z
    1e26:	f0 e0       	ldi	r31, 0x00	; 0
    1e28:	e4 53       	subi	r30, 0x34	; 52
    1e2a:	f5 4c       	sbci	r31, 0xC5	; 197
    1e2c:	81 e0       	ldi	r24, 0x01	; 1
    1e2e:	80 83       	st	Z, r24
    1e30:	1e c0       	rjmp	.+60     	; 0x1e6e <BastetDictates+0x2e8>
    }

    if (BASTET_GAME_OVER == simonGameState) {
    1e32:	87 30       	cpi	r24, 0x07	; 7
    1e34:	e1 f4       	brne	.+56     	; 0x1e6e <BastetDictates+0x2e8>
        simonInputPos = 0;
    1e36:	10 92 62 38 	sts	0x3862, r1	; 0x803862 <simonInputPos>
        simonPos = 0;
    1e3a:	10 92 63 38 	sts	0x3863, r1	; 0x803863 <simonPos>
        simonGameState = BASTET_GAME_START; // BASTET_BOOT for fresh "field" ??
    1e3e:	81 e0       	ldi	r24, 0x01	; 1
    1e40:	80 93 5e 38 	sts	0x385E, r24	; 0x80385e <simonGameState>
        gameNow = TEXT;
    1e44:	10 92 3e 38 	sts	0x383E, r1	; 0x80383e <gameNow>
    1e48:	ea e2       	ldi	r30, 0x2A	; 42
    1e4a:	fe eb       	ldi	r31, 0xBE	; 190
    1e4c:	2f e2       	ldi	r18, 0x2F	; 47
    1e4e:	3e eb       	ldi	r19, 0xBE	; 190
    1e50:	ef 01       	movw	r28, r30
        for (uint8_t n=0; n<5; n++){
            iLED[WING[L][n]] = 1;
    1e52:	a5 81       	ldd	r26, Z+5	; 0x05
    1e54:	b0 e0       	ldi	r27, 0x00	; 0
    1e56:	a4 53       	subi	r26, 0x34	; 52
    1e58:	b5 4c       	sbci	r27, 0xC5	; 197
    1e5a:	8c 93       	st	X, r24
    1e5c:	31 96       	adiw	r30, 0x01	; 1
            iLED[WING[R][n]] = 1;
    1e5e:	a8 81       	ld	r26, Y
    1e60:	b0 e0       	ldi	r27, 0x00	; 0
    1e62:	a4 53       	subi	r26, 0x34	; 52
    1e64:	b5 4c       	sbci	r27, 0xC5	; 197
    1e66:	8c 93       	st	X, r24
    if (BASTET_GAME_OVER == simonGameState) {
        simonInputPos = 0;
        simonPos = 0;
        simonGameState = BASTET_GAME_START; // BASTET_BOOT for fresh "field" ??
        gameNow = TEXT;
        for (uint8_t n=0; n<5; n++){
    1e68:	2e 17       	cp	r18, r30
    1e6a:	3f 07       	cpc	r19, r31
    1e6c:	89 f7       	brne	.-30     	; 0x1e50 <BastetDictates+0x2ca>
            iLED[WING[L][n]] = 1;
            iLED[WING[R][n]] = 1;
        }
    }

    ++simonTimer;
    1e6e:	80 91 61 38 	lds	r24, 0x3861	; 0x803861 <simonTimer>
    1e72:	8f 5f       	subi	r24, 0xFF	; 255
    1e74:	80 93 61 38 	sts	0x3861, r24	; 0x803861 <simonTimer>
    return 0;
}
    1e78:	80 e0       	ldi	r24, 0x00	; 0
    1e7a:	df 91       	pop	r29
    1e7c:	cf 91       	pop	r28
    1e7e:	08 95       	ret

00001e80 <Cheat>:

//
void SetResponse(uint8_t number, uint16_t address, uint16_t length, uint8_t type){
    reactStr[0][number]=address;
    reactStr[1][number]=length;
    reactStr[2][number]=type;
    1e80:	1f 93       	push	r17
    1e82:	cf 93       	push	r28
    1e84:	df 93       	push	r29
    1e86:	cd b7       	in	r28, 0x3d	; 61
    1e88:	de b7       	in	r29, 0x3e	; 62
    1e8a:	62 97       	sbiw	r28, 0x12	; 18
    1e8c:	cd bf       	out	0x3d, r28	; 61
    1e8e:	de bf       	out	0x3e, r29	; 62
    1e90:	8a 8b       	std	Y+18, r24	; 0x12
    1e92:	80 e1       	ldi	r24, 0x10	; 16
    1e94:	ee ef       	ldi	r30, 0xFE	; 254
    1e96:	fd eb       	ldi	r31, 0xBD	; 189
    1e98:	de 01       	movw	r26, r28
    1e9a:	11 96       	adiw	r26, 0x01	; 1
    1e9c:	01 90       	ld	r0, Z+
    1e9e:	0d 92       	st	X+, r0
    1ea0:	8a 95       	dec	r24
    1ea2:	e1 f7       	brne	.-8      	; 0x1e9c <Cheat+0x1c>
    1ea4:	fe 01       	movw	r30, r28
    1ea6:	31 96       	adiw	r30, 0x01	; 1
    1ea8:	90 e0       	ldi	r25, 0x00	; 0
    1eaa:	8f ef       	ldi	r24, 0xFF	; 255
    1eac:	21 91       	ld	r18, Z+
    1eae:	31 91       	ld	r19, Z+
    1eb0:	26 17       	cp	r18, r22
    1eb2:	37 07       	cpc	r19, r23
    1eb4:	09 f4       	brne	.+2      	; 0x1eb8 <Cheat+0x38>
    1eb6:	89 2f       	mov	r24, r25
    1eb8:	9f 5f       	subi	r25, 0xFF	; 255
    1eba:	98 30       	cpi	r25, 0x08	; 8
    1ebc:	b9 f7       	brne	.-18     	; 0x1eac <Cheat+0x2c>
    1ebe:	88 30       	cpi	r24, 0x08	; 8
    1ec0:	10 f0       	brcs	.+4      	; 0x1ec6 <Cheat+0x46>
    1ec2:	80 e0       	ldi	r24, 0x00	; 0
    1ec4:	12 c0       	rjmp	.+36     	; 0x1eea <Cheat+0x6a>
    1ec6:	18 e1       	ldi	r17, 0x18	; 24
    1ec8:	18 0f       	add	r17, r24
    1eca:	41 e0       	ldi	r20, 0x01	; 1
    1ecc:	be 01       	movw	r22, r28
    1ece:	6f 5e       	subi	r22, 0xEF	; 239
    1ed0:	7f 4f       	sbci	r23, 0xFF	; 255
    1ed2:	81 2f       	mov	r24, r17
    1ed4:	d8 d8       	rcall	.-3664   	; 0x1086 <EERead>
    1ed6:	89 89       	ldd	r24, Y+17	; 0x11
    1ed8:	8f 3f       	cpi	r24, 0xFF	; 255
    1eda:	99 f7       	brne	.-26     	; 0x1ec2 <Cheat+0x42>
    1edc:	41 e0       	ldi	r20, 0x01	; 1
    1ede:	be 01       	movw	r22, r28
    1ee0:	6e 5e       	subi	r22, 0xEE	; 238
    1ee2:	7f 4f       	sbci	r23, 0xFF	; 255
    1ee4:	81 2f       	mov	r24, r17
    1ee6:	df d8       	rcall	.-3650   	; 0x10a6 <EEWrite>
    1ee8:	81 e0       	ldi	r24, 0x01	; 1
    1eea:	62 96       	adiw	r28, 0x12	; 18
    1eec:	cd bf       	out	0x3d, r28	; 61
    1eee:	de bf       	out	0x3e, r29	; 62
    1ef0:	df 91       	pop	r29
    1ef2:	cf 91       	pop	r28
    1ef4:	1f 91       	pop	r17
    1ef6:	08 95       	ret

00001ef8 <DecryptData>:
    1ef8:	f9 01       	movw	r30, r18
    1efa:	9c 01       	movw	r18, r24
    1efc:	2e 1b       	sub	r18, r30
    1efe:	3f 0b       	sbc	r19, r31
    1f00:	88 e0       	ldi	r24, 0x08	; 8
    1f02:	48 9f       	mul	r20, r24
    1f04:	a0 01       	movw	r20, r0
    1f06:	11 24       	eor	r1, r1
    1f08:	48 51       	subi	r20, 0x18	; 24
    1f0a:	51 44       	sbci	r21, 0x41	; 65
    1f0c:	66 23       	and	r22, r22
    1f0e:	69 f0       	breq	.+26     	; 0x1f2a <DecryptData+0x32>
    1f10:	df 01       	movw	r26, r30
    1f12:	a2 0f       	add	r26, r18
    1f14:	b3 1f       	adc	r27, r19
    1f16:	a7 70       	andi	r26, 0x07	; 7
    1f18:	bb 27       	eor	r27, r27
    1f1a:	a4 0f       	add	r26, r20
    1f1c:	b5 1f       	adc	r27, r21
    1f1e:	80 81       	ld	r24, Z
    1f20:	9c 91       	ld	r25, X
    1f22:	98 27       	eor	r25, r24
    1f24:	91 93       	st	Z+, r25
    1f26:	61 50       	subi	r22, 0x01	; 1
    1f28:	f1 cf       	rjmp	.-30     	; 0x1f0c <DecryptData+0x14>
    1f2a:	08 95       	ret

00001f2c <UnflipData>:
    1f2c:	26 2f       	mov	r18, r22
    1f2e:	fb 01       	movw	r30, r22
    1f30:	35 e5       	ldi	r19, 0x55	; 85
    1f32:	9e 2f       	mov	r25, r30
    1f34:	92 1b       	sub	r25, r18
    1f36:	98 17       	cp	r25, r24
    1f38:	28 f4       	brcc	.+10     	; 0x1f44 <UnflipData+0x18>
    1f3a:	90 81       	ld	r25, Z
    1f3c:	92 95       	swap	r25
    1f3e:	93 27       	eor	r25, r19
    1f40:	91 93       	st	Z+, r25
    1f42:	f7 cf       	rjmp	.-18     	; 0x1f32 <UnflipData+0x6>
    1f44:	08 95       	ret

00001f46 <ExtEERead>:
    1f46:	af 92       	push	r10
    1f48:	bf 92       	push	r11
    1f4a:	cf 92       	push	r12
    1f4c:	df 92       	push	r13
    1f4e:	ef 92       	push	r14
    1f50:	ff 92       	push	r15
    1f52:	0f 93       	push	r16
    1f54:	1f 93       	push	r17
    1f56:	cf 93       	push	r28
    1f58:	df 93       	push	r29
    1f5a:	00 d0       	rcall	.+0      	; 0x1f5c <ExtEERead+0x16>
    1f5c:	cd b7       	in	r28, 0x3d	; 61
    1f5e:	de b7       	in	r29, 0x3e	; 62
    1f60:	d6 2e       	mov	r13, r22
    1f62:	c4 2e       	mov	r12, r20
    1f64:	59 01       	movw	r10, r18
    1f66:	7c 01       	movw	r14, r24
    1f68:	e8 94       	clt
    1f6a:	f7 f8       	bld	r15, 7
    1f6c:	f9 82       	std	Y+1, r15	; 0x01
    1f6e:	ea 82       	std	Y+2, r14	; 0x02
    1f70:	06 2f       	mov	r16, r22
    1f72:	42 e0       	ldi	r20, 0x02	; 2
    1f74:	be 01       	movw	r22, r28
    1f76:	6f 5f       	subi	r22, 0xFF	; 255
    1f78:	7f 4f       	sbci	r23, 0xFF	; 255
    1f7a:	80 e5       	ldi	r24, 0x50	; 80
    1f7c:	0e 94 b6 02 	call	0x56c	; 0x56c <I2C_read_bytes>
    1f80:	18 2f       	mov	r17, r24
    1f82:	81 11       	cpse	r24, r1
    1f84:	05 c0       	rjmp	.+10     	; 0x1f90 <ExtEERead+0x4a>
    1f86:	95 01       	movw	r18, r10
    1f88:	4c 2d       	mov	r20, r12
    1f8a:	6d 2d       	mov	r22, r13
    1f8c:	c7 01       	movw	r24, r14
    1f8e:	b4 df       	rcall	.-152    	; 0x1ef8 <DecryptData>
    1f90:	81 2f       	mov	r24, r17
    1f92:	0f 90       	pop	r0
    1f94:	0f 90       	pop	r0
    1f96:	df 91       	pop	r29
    1f98:	cf 91       	pop	r28
    1f9a:	1f 91       	pop	r17
    1f9c:	0f 91       	pop	r16
    1f9e:	ff 90       	pop	r15
    1fa0:	ef 90       	pop	r14
    1fa2:	df 90       	pop	r13
    1fa4:	cf 90       	pop	r12
    1fa6:	bf 90       	pop	r11
    1fa8:	af 90       	pop	r10
    1faa:	08 95       	ret

00001fac <ClearTxAfter>:
    1fac:	8f 5f       	subi	r24, 0xFF	; 255
    1fae:	88 30       	cpi	r24, 0x08	; 8
    1fb0:	30 f4       	brcc	.+12     	; 0x1fbe <ClearTxAfter+0x12>
    1fb2:	e8 2f       	mov	r30, r24
    1fb4:	f0 e0       	ldi	r31, 0x00	; 0
    1fb6:	e6 5b       	subi	r30, 0xB6	; 182
    1fb8:	f5 4c       	sbci	r31, 0xC5	; 197
    1fba:	10 82       	st	Z, r1
    1fbc:	f7 cf       	rjmp	.-18     	; 0x1fac <ClearTxAfter>
    1fbe:	08 95       	ret

00001fc0 <StartsWith>:
    1fc0:	ac 01       	movw	r20, r24
    1fc2:	90 e0       	ldi	r25, 0x00	; 0
    1fc4:	e9 2f       	mov	r30, r25
    1fc6:	f0 e0       	ldi	r31, 0x00	; 0
    1fc8:	da 01       	movw	r26, r20
    1fca:	ae 0f       	add	r26, r30
    1fcc:	bf 1f       	adc	r27, r31
    1fce:	3c 91       	ld	r19, X
    1fd0:	e6 0f       	add	r30, r22
    1fd2:	f7 1f       	adc	r31, r23
    1fd4:	31 11       	cpse	r19, r1
    1fd6:	05 c0       	rjmp	.+10     	; 0x1fe2 <StartsWith+0x22>
    1fd8:	81 e0       	ldi	r24, 0x01	; 1
    1fda:	90 81       	ld	r25, Z
    1fdc:	99 23       	and	r25, r25
    1fde:	49 f0       	breq	.+18     	; 0x1ff2 <StartsWith+0x32>
    1fe0:	07 c0       	rjmp	.+14     	; 0x1ff0 <StartsWith+0x30>
    1fe2:	20 81       	ld	r18, Z
    1fe4:	22 23       	and	r18, r18
    1fe6:	c1 f3       	breq	.-16     	; 0x1fd8 <StartsWith+0x18>
    1fe8:	32 13       	cpse	r19, r18
    1fea:	02 c0       	rjmp	.+4      	; 0x1ff0 <StartsWith+0x30>
    1fec:	9f 5f       	subi	r25, 0xFF	; 255
    1fee:	ea cf       	rjmp	.-44     	; 0x1fc4 <StartsWith+0x4>
    1ff0:	80 e0       	ldi	r24, 0x00	; 0
    1ff2:	08 95       	ret

00001ff4 <PrepareSending>:
    1ff4:	cf 93       	push	r28
    1ff6:	df 93       	push	r29
    1ff8:	fc 01       	movw	r30, r24
    1ffa:	61 15       	cp	r22, r1
    1ffc:	71 05       	cpc	r23, r1
    1ffe:	59 f1       	breq	.+86     	; 0x2056 <PrepareSending+0x62>
    2000:	a2 e5       	ldi	r26, 0x52	; 82
    2002:	ba e3       	ldi	r27, 0x3A	; 58
    2004:	ca e4       	ldi	r28, 0x4A	; 74
    2006:	da e3       	ldi	r29, 0x3A	; 58
    2008:	80 e0       	ldi	r24, 0x00	; 0
    200a:	9f ef       	ldi	r25, 0xFF	; 255
    200c:	6f 3f       	cpi	r22, 0xFF	; 255
    200e:	71 05       	cpc	r23, r1
    2010:	69 f0       	breq	.+26     	; 0x202c <PrepareSending+0x38>
    2012:	60 f0       	brcs	.+24     	; 0x202c <PrepareSending+0x38>
    2014:	ed 93       	st	X+, r30
    2016:	fd 93       	st	X+, r31
    2018:	99 93       	st	Y+, r25
    201a:	e1 50       	subi	r30, 0x01	; 1
    201c:	ff 4f       	sbci	r31, 0xFF	; 255
    201e:	6f 5f       	subi	r22, 0xFF	; 255
    2020:	71 09       	sbc	r23, r1
    2022:	8f 5f       	subi	r24, 0xFF	; 255
    2024:	87 30       	cpi	r24, 0x07	; 7
    2026:	91 f7       	brne	.-28     	; 0x200c <PrepareSending+0x18>
    2028:	81 e0       	ldi	r24, 0x01	; 1
    202a:	1e c0       	rjmp	.+60     	; 0x2068 <PrepareSending+0x74>
    202c:	28 2f       	mov	r18, r24
    202e:	30 e0       	ldi	r19, 0x00	; 0
    2030:	d9 01       	movw	r26, r18
    2032:	aa 0f       	add	r26, r26
    2034:	bb 1f       	adc	r27, r27
    2036:	ae 5a       	subi	r26, 0xAE	; 174
    2038:	b5 4c       	sbci	r27, 0xC5	; 197
    203a:	ed 93       	st	X+, r30
    203c:	fc 93       	st	X, r31
    203e:	6f 3f       	cpi	r22, 0xFF	; 255
    2040:	71 05       	cpc	r23, r1
    2042:	11 f4       	brne	.+4      	; 0x2048 <PrepareSending+0x54>
    2044:	6e ef       	ldi	r22, 0xFE	; 254
    2046:	70 e0       	ldi	r23, 0x00	; 0
    2048:	f9 01       	movw	r30, r18
    204a:	e6 5b       	subi	r30, 0xB6	; 182
    204c:	f5 4c       	sbci	r31, 0xC5	; 197
    204e:	60 83       	st	Z, r22
    2050:	40 93 48 3a 	sts	0x3A48, r20	; 0x803a48 <txTypeNow>
    2054:	05 c0       	rjmp	.+10     	; 0x2060 <PrepareSending+0x6c>
    2056:	10 92 52 3a 	sts	0x3A52, r1	; 0x803a52 <txAddrList>
    205a:	10 92 53 3a 	sts	0x3A53, r1	; 0x803a53 <txAddrList+0x1>
    205e:	80 e0       	ldi	r24, 0x00	; 0
    2060:	a5 df       	rcall	.-182    	; 0x1fac <ClearTxAfter>
    2062:	10 92 49 3a 	sts	0x3A49, r1	; 0x803a49 <txAddrNow>
    2066:	80 e0       	ldi	r24, 0x00	; 0
    2068:	df 91       	pop	r29
    206a:	cf 91       	pop	r28
    206c:	08 95       	ret

0000206e <SetStandardResponse>:
}

//
uint8_t SetStandardResponse(uint8_t custStrEnd){
    206e:	cf 93       	push	r28
    2070:	df 93       	push	r29
    return 0;
}

//
void SetResponse(uint8_t number, uint16_t address, uint16_t length, uint8_t type){
    reactStr[0][number]=address;
    2072:	28 2f       	mov	r18, r24
    2074:	30 e0       	ldi	r19, 0x00	; 0
    2076:	f9 01       	movw	r30, r18
    2078:	ee 0f       	add	r30, r30
    207a:	ff 1f       	adc	r31, r31
    207c:	e3 5e       	subi	r30, 0xE3	; 227
    207e:	f6 4c       	sbci	r31, 0xC6	; 198
    2080:	a9 e5       	ldi	r26, 0x59	; 89
    2082:	ba e7       	ldi	r27, 0x7A	; 122
    2084:	a0 83       	st	Z, r26
    2086:	b1 83       	std	Z+1, r27	; 0x01
    reactStr[1][number]=length;
    2088:	f9 01       	movw	r30, r18
    208a:	ee 0f       	add	r30, r30
    208c:	ff 1f       	adc	r31, r31
    208e:	e3 5a       	subi	r30, 0xA3	; 163
    2090:	f6 4c       	sbci	r31, 0xC6	; 198
    2092:	62 e0       	ldi	r22, 0x02	; 2
    2094:	70 e0       	ldi	r23, 0x00	; 0
    2096:	60 83       	st	Z, r22
    2098:	71 83       	std	Z+1, r23	; 0x01
    reactStr[2][number]=type;
    209a:	22 0f       	add	r18, r18
    209c:	33 1f       	adc	r19, r19
    209e:	f9 01       	movw	r30, r18
    20a0:	e3 56       	subi	r30, 0x63	; 99
    20a2:	f6 4c       	sbci	r31, 0xC6	; 198
    20a4:	41 e0       	ldi	r20, 0x01	; 1
    20a6:	50 e0       	ldi	r21, 0x00	; 0
    20a8:	40 83       	st	Z, r20
    20aa:	51 83       	std	Z+1, r21	; 0x01
    return 0;
}

//
void SetResponse(uint8_t number, uint16_t address, uint16_t length, uint8_t type){
    reactStr[0][number]=address;
    20ac:	21 e0       	ldi	r18, 0x01	; 1
    20ae:	28 0f       	add	r18, r24
    20b0:	30 e0       	ldi	r19, 0x00	; 0
    20b2:	f9 01       	movw	r30, r18
    20b4:	ee 0f       	add	r30, r30
    20b6:	ff 1f       	adc	r31, r31
    20b8:	e3 5e       	subi	r30, 0xE3	; 227
    20ba:	f6 4c       	sbci	r31, 0xC6	; 198
    20bc:	c2 e6       	ldi	r28, 0x62	; 98
    20be:	da e7       	ldi	r29, 0x7A	; 122
    20c0:	c0 83       	st	Z, r28
    20c2:	d1 83       	std	Z+1, r29	; 0x01
    reactStr[1][number]=length;
    20c4:	f9 01       	movw	r30, r18
    20c6:	ee 0f       	add	r30, r30
    20c8:	ff 1f       	adc	r31, r31
    20ca:	e3 5a       	subi	r30, 0xA3	; 163
    20cc:	f6 4c       	sbci	r31, 0xC6	; 198
    20ce:	cc e0       	ldi	r28, 0x0C	; 12
    20d0:	d0 e0       	ldi	r29, 0x00	; 0
    20d2:	c0 83       	st	Z, r28
    20d4:	d1 83       	std	Z+1, r29	; 0x01
    reactStr[2][number]=type;
    20d6:	22 0f       	add	r18, r18
    20d8:	33 1f       	adc	r19, r19
    20da:	f9 01       	movw	r30, r18
    20dc:	e3 56       	subi	r30, 0x63	; 99
    20de:	f6 4c       	sbci	r31, 0xC6	; 198
    20e0:	40 83       	st	Z, r20
    20e2:	51 83       	std	Z+1, r21	; 0x01
uint8_t SetStandardResponse(uint8_t custStrEnd){

    SetResponse(custStrEnd++, A_LF, 2, TEASER);
    SetResponse(custStrEnd++, A_LOCATION, L_LOCATION, TEASER);
    //SetResponse(custStrEnd++, A_SPACE, L_SPACE, TEASER);
    reactStr[0][custStrEnd++] = CURR_LOC;
    20e4:	e2 e0       	ldi	r30, 0x02	; 2
    20e6:	e8 0f       	add	r30, r24
    20e8:	f0 e0       	ldi	r31, 0x00	; 0
    20ea:	ee 0f       	add	r30, r30
    20ec:	ff 1f       	adc	r31, r31
    20ee:	e3 5e       	subi	r30, 0xE3	; 227
    20f0:	f6 4c       	sbci	r31, 0xC6	; 198
    20f2:	20 ef       	ldi	r18, 0xF0	; 240
    20f4:	3f ef       	ldi	r19, 0xFF	; 255
    20f6:	20 83       	st	Z, r18
    20f8:	31 83       	std	Z+1, r19	; 0x01
    return 0;
}

//
void SetResponse(uint8_t number, uint16_t address, uint16_t length, uint8_t type){
    reactStr[0][number]=address;
    20fa:	23 e0       	ldi	r18, 0x03	; 3
    20fc:	28 0f       	add	r18, r24
    20fe:	30 e0       	ldi	r19, 0x00	; 0
    2100:	f9 01       	movw	r30, r18
    2102:	ee 0f       	add	r30, r30
    2104:	ff 1f       	adc	r31, r31
    2106:	e3 5e       	subi	r30, 0xE3	; 227
    2108:	f6 4c       	sbci	r31, 0xC6	; 198
    210a:	a0 83       	st	Z, r26
    210c:	b1 83       	std	Z+1, r27	; 0x01
    reactStr[1][number]=length;
    210e:	f9 01       	movw	r30, r18
    2110:	ee 0f       	add	r30, r30
    2112:	ff 1f       	adc	r31, r31
    2114:	e3 5a       	subi	r30, 0xA3	; 163
    2116:	f6 4c       	sbci	r31, 0xC6	; 198
    2118:	60 83       	st	Z, r22
    211a:	71 83       	std	Z+1, r23	; 0x01
    reactStr[2][number]=type;
    211c:	22 0f       	add	r18, r18
    211e:	33 1f       	adc	r19, r19
    2120:	f9 01       	movw	r30, r18
    2122:	e3 56       	subi	r30, 0x63	; 99
    2124:	f6 4c       	sbci	r31, 0xC6	; 198
    2126:	40 83       	st	Z, r20
    2128:	51 83       	std	Z+1, r21	; 0x01
    return 0;
}

//
void SetResponse(uint8_t number, uint16_t address, uint16_t length, uint8_t type){
    reactStr[0][number]=address;
    212a:	24 e0       	ldi	r18, 0x04	; 4
    212c:	28 0f       	add	r18, r24
    212e:	30 e0       	ldi	r19, 0x00	; 0
    2130:	f9 01       	movw	r30, r18
    2132:	ee 0f       	add	r30, r30
    2134:	ff 1f       	adc	r31, r31
    2136:	e3 5e       	subi	r30, 0xE3	; 227
    2138:	f6 4c       	sbci	r31, 0xC6	; 198
    213a:	a5 e5       	ldi	r26, 0x55	; 85
    213c:	ba e7       	ldi	r27, 0x7A	; 122
    213e:	a0 83       	st	Z, r26
    2140:	b1 83       	std	Z+1, r27	; 0x01
    reactStr[1][number]=length;
    2142:	f9 01       	movw	r30, r18
    2144:	ee 0f       	add	r30, r30
    2146:	ff 1f       	adc	r31, r31
    2148:	e3 5a       	subi	r30, 0xA3	; 163
    214a:	f6 4c       	sbci	r31, 0xC6	; 198
    214c:	60 83       	st	Z, r22
    214e:	71 83       	std	Z+1, r23	; 0x01
    reactStr[2][number]=type;
    2150:	22 0f       	add	r18, r18
    2152:	33 1f       	adc	r19, r19
    2154:	f9 01       	movw	r30, r18
    2156:	e3 56       	subi	r30, 0x63	; 99
    2158:	f6 4c       	sbci	r31, 0xC6	; 198
    215a:	40 83       	st	Z, r20
    215c:	51 83       	std	Z+1, r21	; 0x01
    SetResponse(custStrEnd++, A_LF, 2, TEASER);
    SetResponse(custStrEnd++, A_PROMPT, L_PROMPT, TEASER);
    //SetResponse(custStrEnd++, A_SPACE, L_SPACE, TEASER);

    return custStrEnd;
}
    215e:	8b 5f       	subi	r24, 0xFB	; 251
    2160:	df 91       	pop	r29
    2162:	cf 91       	pop	r28
    2164:	08 95       	ret

00002166 <PopulateObject>:

//Get all the relevant data and string addresses of an object
void PopulateObject(uint16_t offset, object_model_t *object){
    2166:	af 92       	push	r10
    2168:	bf 92       	push	r11
    216a:	df 92       	push	r13
    216c:	ef 92       	push	r14
    216e:	ff 92       	push	r15
    2170:	0f 93       	push	r16
    2172:	1f 93       	push	r17
    2174:	cf 93       	push	r28
    2176:	df 93       	push	r29
    2178:	cd b7       	in	r28, 0x3d	; 61
    217a:	de b7       	in	r29, 0x3e	; 62
    217c:	2c 97       	sbiw	r28, 0x0c	; 12
    217e:	cd bf       	out	0x3d, r28	; 61
    2180:	de bf       	out	0x3e, r29	; 62
    2182:	7c 01       	movw	r14, r24
    2184:	8b 01       	movw	r16, r22
    uint16_t parStr;
    offset += L_BOILER;

    //Fill things with fixed distance to offset
    uint8_t data[OFF_STRINGFLDS];
    ExtEERead(offset, OFF_STRINGFLDS, GAME, &data[0]);
    2186:	9e 01       	movw	r18, r28
    2188:	2f 5f       	subi	r18, 0xFF	; 255
    218a:	3f 4f       	sbci	r19, 0xFF	; 255
    218c:	40 e0       	ldi	r20, 0x00	; 0
    218e:	6c e0       	ldi	r22, 0x0C	; 12
    2190:	80 96       	adiw	r24, 0x20	; 32
    2192:	d9 de       	rcall	.-590    	; 0x1f46 <ExtEERead>
    object->addrNextObj = (data[OFF_NEXTOBJ]<<8|data[OFF_NEXTOBJ+1])+L_BOILER;
    2194:	89 81       	ldd	r24, Y+1	; 0x01
    2196:	9a 81       	ldd	r25, Y+2	; 0x02
    2198:	98 27       	eor	r25, r24
    219a:	89 27       	eor	r24, r25
    219c:	98 27       	eor	r25, r24
    219e:	80 96       	adiw	r24, 0x20	; 32
    21a0:	f8 01       	movw	r30, r16
    21a2:	80 83       	st	Z, r24
    21a4:	91 83       	std	Z+1, r25	; 0x01
    object->addrNextLvl = (data[OFF_NEXTLVL]<<8|data[OFF_NEXTLVL+1])+L_BOILER;
    21a6:	8b 81       	ldd	r24, Y+3	; 0x03
    21a8:	9c 81       	ldd	r25, Y+4	; 0x04
    21aa:	98 27       	eor	r25, r24
    21ac:	89 27       	eor	r24, r25
    21ae:	98 27       	eor	r25, r24
    21b0:	80 96       	adiw	r24, 0x20	; 32
    21b2:	82 83       	std	Z+2, r24	; 0x02
    21b4:	93 83       	std	Z+3, r25	; 0x03
    21b6:	de 01       	movw	r26, r28
    21b8:	15 96       	adiw	r26, 0x05	; 5
    21ba:	34 96       	adiw	r30, 0x04	; 4
    21bc:	c8 01       	movw	r24, r16
    21be:	0c 96       	adiw	r24, 0x0c	; 12
    for (uint8_t x=0; x<BYTE_FIELDS_LEN; ++x){
        object->byteField[x]=data[x+OFF_BYTEFLDS];
    21c0:	2d 91       	ld	r18, X+
    21c2:	21 93       	st	Z+, r18
    //Fill things with fixed distance to offset
    uint8_t data[OFF_STRINGFLDS];
    ExtEERead(offset, OFF_STRINGFLDS, GAME, &data[0]);
    object->addrNextObj = (data[OFF_NEXTOBJ]<<8|data[OFF_NEXTOBJ+1])+L_BOILER;
    object->addrNextLvl = (data[OFF_NEXTLVL]<<8|data[OFF_NEXTLVL+1])+L_BOILER;
    for (uint8_t x=0; x<BYTE_FIELDS_LEN; ++x){
    21c4:	e8 17       	cp	r30, r24
    21c6:	f9 07       	cpc	r31, r25
    21c8:	d9 f7       	brne	.-10     	; 0x21c0 <PopulateObject+0x5a>
        object->byteField[x]=data[x+OFF_BYTEFLDS];
    }

    //Find out where all of the strings begin and how long they are
    offset += OFF_STRINGFLDS;
    21ca:	fc e2       	ldi	r31, 0x2C	; 44
    21cc:	ef 0e       	add	r14, r31
    21ce:	f1 1c       	adc	r15, r1
    21d0:	58 01       	movw	r10, r16
    for(uint8_t x=0; x<STRING_FIELDS_LEN; ++x){
    21d2:	d1 2c       	mov	r13, r1
        
        //Determine length
        ExtEERead(offset, 3, GAME, &data[0]);
    21d4:	9e 01       	movw	r18, r28
    21d6:	2f 5f       	subi	r18, 0xFF	; 255
    21d8:	3f 4f       	sbci	r19, 0xFF	; 255
    21da:	40 e0       	ldi	r20, 0x00	; 0
    21dc:	63 e0       	ldi	r22, 0x03	; 3
    21de:	c7 01       	movw	r24, r14
    21e0:	b2 de       	rcall	.-668    	; 0x1f46 <ExtEERead>
    21e2:	89 81       	ldd	r24, Y+1	; 0x01
    21e4:	9a 81       	ldd	r25, Y+2	; 0x02
    21e6:	98 27       	eor	r25, r24
    21e8:	89 27       	eor	r24, r25
    21ea:	98 27       	eor	r25, r24
        parStr = (data[0]<<8|data[1]);
        offset += 2;
    21ec:	97 01       	movw	r18, r14
    21ee:	2e 5f       	subi	r18, 0xFE	; 254
    21f0:	3f 4f       	sbci	r19, 0xFF	; 255
        if (x >= OPEN_ACL_MSG){
    21f2:	43 e0       	ldi	r20, 0x03	; 3
    21f4:	4d 15       	cp	r20, r13
    21f6:	80 f4       	brcc	.+32     	; 0x2218 <PopulateObject+0xb2>
            object->lenStr[x]= parStr-1;
    21f8:	ac 01       	movw	r20, r24
    21fa:	41 50       	subi	r20, 0x01	; 1
    21fc:	51 09       	sbc	r21, r1
    21fe:	f8 01       	movw	r30, r16
    2200:	42 8f       	std	Z+26, r20	; 0x1a
    2202:	53 8f       	std	Z+27, r21	; 0x1b
            object->addrStr[x]=offset+1;
    2204:	f3 e0       	ldi	r31, 0x03	; 3
    2206:	ef 0e       	add	r14, r31
    2208:	f1 1c       	adc	r15, r1
    220a:	f8 01       	movw	r30, r16
    220c:	e4 86       	std	Z+12, r14	; 0x0c
    220e:	f5 86       	std	Z+13, r15	; 0x0d
            object->effect[x-OPEN_ACL_MSG] = data[2];
    2210:	4b 81       	ldd	r20, Y+3	; 0x03
    2212:	f5 01       	movw	r30, r10
    2214:	44 a3       	std	Z+36, r20	; 0x24
    2216:	05 c0       	rjmp	.+10     	; 0x2222 <PopulateObject+0xbc>
        } else {
            object->lenStr[x]= parStr;
    2218:	f8 01       	movw	r30, r16
    221a:	82 8f       	std	Z+26, r24	; 0x1a
    221c:	93 8f       	std	Z+27, r25	; 0x1b
            object->addrStr[x]=offset;
    221e:	24 87       	std	Z+12, r18	; 0x0c
    2220:	35 87       	std	Z+13, r19	; 0x0d
        }
        
        //Determine string start location for next field
        offset += parStr;
    2222:	7c 01       	movw	r14, r24
    2224:	e2 0e       	add	r14, r18
    2226:	f3 1e       	adc	r15, r19
        object->byteField[x]=data[x+OFF_BYTEFLDS];
    }

    //Find out where all of the strings begin and how long they are
    offset += OFF_STRINGFLDS;
    for(uint8_t x=0; x<STRING_FIELDS_LEN; ++x){
    2228:	d3 94       	inc	r13
    222a:	0e 5f       	subi	r16, 0xFE	; 254
    222c:	1f 4f       	sbci	r17, 0xFF	; 255
    222e:	ff ef       	ldi	r31, 0xFF	; 255
    2230:	af 1a       	sub	r10, r31
    2232:	bf 0a       	sbc	r11, r31
    2234:	47 e0       	ldi	r20, 0x07	; 7
    2236:	d4 12       	cpse	r13, r20
    2238:	cd cf       	rjmp	.-102    	; 0x21d4 <PopulateObject+0x6e>
        }
        
        //Determine string start location for next field
        offset += parStr;
    }    
}
    223a:	2c 96       	adiw	r28, 0x0c	; 12
    223c:	cd bf       	out	0x3d, r28	; 61
    223e:	de bf       	out	0x3e, r29	; 62
    2240:	df 91       	pop	r29
    2242:	cf 91       	pop	r28
    2244:	1f 91       	pop	r17
    2246:	0f 91       	pop	r16
    2248:	ff 90       	pop	r15
    224a:	ef 90       	pop	r14
    224c:	df 90       	pop	r13
    224e:	bf 90       	pop	r11
    2250:	af 90       	pop	r10
    2252:	08 95       	ret

00002254 <CheckLetter>:

//Check if the entered letter corresponds with a name
uint8_t CheckLetter(uint16_t object, uint8_t letter){
    2254:	cf 92       	push	r12
    2256:	df 92       	push	r13
    2258:	ef 92       	push	r14
    225a:	ff 92       	push	r15
    225c:	0f 93       	push	r16
    225e:	1f 93       	push	r17
    2260:	cf 93       	push	r28
    2262:	df 93       	push	r29
    2264:	cd b7       	in	r28, 0x3d	; 61
    2266:	de b7       	in	r29, 0x3e	; 62
    2268:	a0 97       	sbiw	r28, 0x20	; 32
    226a:	cd bf       	out	0x3d, r28	; 61
    226c:	de bf       	out	0x3e, r29	; 62
    226e:	c6 2e       	mov	r12, r22
    
    uint8_t found = 0;
    uint8_t data[32];

    object += L_BOILER;
    2270:	7c 01       	movw	r14, r24
    2272:	20 e2       	ldi	r18, 0x20	; 32
    2274:	e2 0e       	add	r14, r18
    2276:	f1 1c       	adc	r15, r1
    ExtEERead(object+OFF_STRINGFLDS, 2, GAME, &data[0]);
    2278:	9e 01       	movw	r18, r28
    227a:	2f 5f       	subi	r18, 0xFF	; 255
    227c:	3f 4f       	sbci	r19, 0xFF	; 255
    227e:	40 e0       	ldi	r20, 0x00	; 0
    2280:	62 e0       	ldi	r22, 0x02	; 2
    2282:	8c 96       	adiw	r24, 0x2c	; 44
    2284:	60 de       	rcall	.-832    	; 0x1f46 <ExtEERead>
    uint8_t x = data[1]; //Assuming a name is not longer than 255 characters.
    2286:	1a 81       	ldd	r17, Y+2	; 0x02
}

//Check if the entered letter corresponds with a name
uint8_t CheckLetter(uint16_t object, uint8_t letter){
    
    uint8_t found = 0;
    2288:	d1 2c       	mov	r13, r1

    object += L_BOILER;
    ExtEERead(object+OFF_STRINGFLDS, 2, GAME, &data[0]);
    uint8_t x = data[1]; //Assuming a name is not longer than 255 characters.

    while (x){
    228a:	11 23       	and	r17, r17
    228c:	51 f1       	breq	.+84     	; 0x22e2 <CheckLetter+0x8e>
    228e:	01 2f       	mov	r16, r17
    2290:	11 32       	cpi	r17, 0x21	; 33
    2292:	08 f0       	brcs	.+2      	; 0x2296 <CheckLetter+0x42>
    2294:	00 e2       	ldi	r16, 0x20	; 32
        uint8_t max;
        if (x>32) max = 32; else max = x;
        ExtEERead(object+OFF_STRINGFLDS+2, max, GAME, &data[0]);
    2296:	9e 01       	movw	r18, r28
    2298:	2f 5f       	subi	r18, 0xFF	; 255
    229a:	3f 4f       	sbci	r19, 0xFF	; 255
    229c:	40 e0       	ldi	r20, 0x00	; 0
    229e:	60 2f       	mov	r22, r16
    22a0:	c7 01       	movw	r24, r14
    22a2:	0e 96       	adiw	r24, 0x0e	; 14
    22a4:	50 de       	rcall	.-864    	; 0x1f46 <ExtEERead>
    22a6:	fe 01       	movw	r30, r28
    22a8:	31 96       	adiw	r30, 0x01	; 1
        for (uint8_t y=0; y<max; ++y){
    22aa:	80 e0       	ldi	r24, 0x00	; 0
            if (found){
    22ac:	dd 20       	and	r13, r13
    22ae:	61 f0       	breq	.+24     	; 0x22c8 <CheckLetter+0x74>
                if ((data[y]|0x20) == letter) return 1; else return 0;
    22b0:	e1 e0       	ldi	r30, 0x01	; 1
    22b2:	f0 e0       	ldi	r31, 0x00	; 0
    22b4:	ec 0f       	add	r30, r28
    22b6:	fd 1f       	adc	r31, r29
    22b8:	e8 0f       	add	r30, r24
    22ba:	f1 1d       	adc	r31, r1
    22bc:	90 81       	ld	r25, Z
    22be:	90 62       	ori	r25, 0x20	; 32
    22c0:	81 e0       	ldi	r24, 0x01	; 1
    22c2:	9c 11       	cpse	r25, r12
    22c4:	0e c0       	rjmp	.+28     	; 0x22e2 <CheckLetter+0x8e>
    22c6:	0e c0       	rjmp	.+28     	; 0x22e4 <CheckLetter+0x90>
            }
            if (data[y] == '[') found = 1;
    22c8:	91 91       	ld	r25, Z+
    22ca:	dd 24       	eor	r13, r13
    22cc:	d3 94       	inc	r13
    22ce:	9b 35       	cpi	r25, 0x5B	; 91
    22d0:	09 f0       	breq	.+2      	; 0x22d4 <CheckLetter+0x80>
    22d2:	d1 2c       	mov	r13, r1

    while (x){
        uint8_t max;
        if (x>32) max = 32; else max = x;
        ExtEERead(object+OFF_STRINGFLDS+2, max, GAME, &data[0]);
        for (uint8_t y=0; y<max; ++y){
    22d4:	8f 5f       	subi	r24, 0xFF	; 255
    22d6:	80 17       	cp	r24, r16
    22d8:	48 f3       	brcs	.-46     	; 0x22ac <CheckLetter+0x58>
            if (found){
                if ((data[y]|0x20) == letter) return 1; else return 0;
            }
            if (data[y] == '[') found = 1;
        }
        object += max;
    22da:	e0 0e       	add	r14, r16
    22dc:	f1 1c       	adc	r15, r1
        x -= max;
    22de:	10 1b       	sub	r17, r16
    22e0:	d4 cf       	rjmp	.-88     	; 0x228a <CheckLetter+0x36>
    }
    return 0;
    22e2:	80 e0       	ldi	r24, 0x00	; 0
}
    22e4:	a0 96       	adiw	r28, 0x20	; 32
    22e6:	cd bf       	out	0x3d, r28	; 61
    22e8:	de bf       	out	0x3e, r29	; 62
    22ea:	df 91       	pop	r29
    22ec:	cf 91       	pop	r28
    22ee:	1f 91       	pop	r17
    22f0:	0f 91       	pop	r16
    22f2:	ff 90       	pop	r15
    22f4:	ef 90       	pop	r14
    22f6:	df 90       	pop	r13
    22f8:	cf 90       	pop	r12
    22fa:	08 95       	ret

000022fc <FindChild>:

//Returns the child's address if the child is visible and the search letter matches
uint16_t FindChild(uint16_t parent, uint8_t letter, uint16_t start){
    22fc:	af 92       	push	r10
    22fe:	bf 92       	push	r11
    2300:	df 92       	push	r13
    2302:	ef 92       	push	r14
    2304:	ff 92       	push	r15
    2306:	0f 93       	push	r16
    2308:	1f 93       	push	r17
    230a:	cf 93       	push	r28
    230c:	df 93       	push	r29
    230e:	00 d0       	rcall	.+0      	; 0x2310 <FindChild+0x14>
    2310:	00 d0       	rcall	.+0      	; 0x2312 <FindChild+0x16>
    2312:	cd b7       	in	r28, 0x3d	; 61
    2314:	de b7       	in	r29, 0x3e	; 62
    2316:	d6 2e       	mov	r13, r22
    2318:	5a 01       	movw	r10, r20
    
    uint16_t child = parent;
    uint8_t data[4];

    ExtEERead(child+L_BOILER, 4, GAME, &data[0]);
    231a:	9e 01       	movw	r18, r28
    231c:	2f 5f       	subi	r18, 0xFF	; 255
    231e:	3f 4f       	sbci	r19, 0xFF	; 255
    2320:	40 e0       	ldi	r20, 0x00	; 0
    2322:	64 e0       	ldi	r22, 0x04	; 4
    2324:	80 96       	adiw	r24, 0x20	; 32
    2326:	0f de       	rcall	.-994    	; 0x1f46 <ExtEERead>
    2328:	e9 80       	ldd	r14, Y+1	; 0x01
    232a:	fa 80       	ldd	r15, Y+2	; 0x02
    232c:	fe 24       	eor	r15, r14
    232e:	ef 24       	eor	r14, r15
    2330:	fe 24       	eor	r15, r14
    2332:	0b 81       	ldd	r16, Y+3	; 0x03
    2334:	1c 81       	ldd	r17, Y+4	; 0x04
    2336:	10 27       	eor	r17, r16
    2338:	01 27       	eor	r16, r17
    233a:	10 27       	eor	r17, r16
    parent = (data[0]<<8|data[1]);    //Next object on parent level
    child =  (data[2]<<8|data[3]);    //First object on child level

    //As long as the child is within the parent's range
    while (parent>child){
    233c:	0e 15       	cp	r16, r14
    233e:	1f 05       	cpc	r17, r15
    2340:	30 f5       	brcc	.+76     	; 0x238e <FindChild+0x92>

        //If child's address is higher than the start address, perform search for letter
        if (child>start){
    2342:	a0 16       	cp	r10, r16
    2344:	b1 06       	cpc	r11, r17
    2346:	58 f0       	brcs	.+22     	; 0x235e <FindChild+0x62>
                if ((letter == 0)||(CheckLetter(child, letter))) return child;
            }
        }

        //Not visible or name not right
        ExtEERead(child+L_BOILER, 2, GAME, &data[0]);
    2348:	9e 01       	movw	r18, r28
    234a:	2f 5f       	subi	r18, 0xFF	; 255
    234c:	3f 4f       	sbci	r19, 0xFF	; 255
    234e:	40 e0       	ldi	r20, 0x00	; 0
    2350:	62 e0       	ldi	r22, 0x02	; 2
    2352:	c8 01       	movw	r24, r16
    2354:	80 96       	adiw	r24, 0x20	; 32
    2356:	f7 dd       	rcall	.-1042   	; 0x1f46 <ExtEERead>
    2358:	09 81       	ldd	r16, Y+1	; 0x01
    235a:	1a 81       	ldd	r17, Y+2	; 0x02
    235c:	ec cf       	rjmp	.-40     	; 0x2336 <FindChild+0x3a>
    //As long as the child is within the parent's range
    while (parent>child){

        //If child's address is higher than the start address, perform search for letter
        if (child>start){
            ExtEERead(child+OFF_BYTEFLDS+VISIBLE_ACL+L_BOILER, 1, GAME, &data[0]);
    235e:	9e 01       	movw	r18, r28
    2360:	2f 5f       	subi	r18, 0xFF	; 255
    2362:	3f 4f       	sbci	r19, 0xFF	; 255
    2364:	40 e0       	ldi	r20, 0x00	; 0
    2366:	61 e0       	ldi	r22, 0x01	; 1
    2368:	c8 01       	movw	r24, r16
    236a:	85 96       	adiw	r24, 0x25	; 37
    236c:	ec dd       	rcall	.-1064   	; 0x1f46 <ExtEERead>
            if ((data[0] == 0)||(CheckState(data[0]))) {
    236e:	89 81       	ldd	r24, Y+1	; 0x01
    2370:	81 11       	cpse	r24, r1
    2372:	03 c0       	rjmp	.+6      	; 0x237a <FindChild+0x7e>
                if ((letter == 0)||(CheckLetter(child, letter))) return child;
    2374:	d1 10       	cpse	r13, r1
    2376:	05 c0       	rjmp	.+10     	; 0x2382 <FindChild+0x86>
    while (parent>child){

        //If child's address is higher than the start address, perform search for letter
        if (child>start){
            ExtEERead(child+OFF_BYTEFLDS+VISIBLE_ACL+L_BOILER, 1, GAME, &data[0]);
            if ((data[0] == 0)||(CheckState(data[0]))) {
    2378:	0d c0       	rjmp	.+26     	; 0x2394 <FindChild+0x98>
    237a:	59 d8       	rcall	.-3918   	; 0x142e <CheckState>
    237c:	81 11       	cpse	r24, r1
    237e:	fa cf       	rjmp	.-12     	; 0x2374 <FindChild+0x78>
                if ((letter == 0)||(CheckLetter(child, letter))) return child;
    2380:	e3 cf       	rjmp	.-58     	; 0x2348 <FindChild+0x4c>
    2382:	6d 2d       	mov	r22, r13
    2384:	c8 01       	movw	r24, r16
    2386:	66 df       	rcall	.-308    	; 0x2254 <CheckLetter>
    2388:	88 23       	and	r24, r24
    238a:	f1 f2       	breq	.-68     	; 0x2348 <FindChild+0x4c>
    238c:	03 c0       	rjmp	.+6      	; 0x2394 <FindChild+0x98>

        //Not visible or name not right
        ExtEERead(child+L_BOILER, 2, GAME, &data[0]);
        child = (data[0]<<8|data[1]);    //Next object on child level
        
    } return 0;
    238e:	80 e0       	ldi	r24, 0x00	; 0
    2390:	90 e0       	ldi	r25, 0x00	; 0
    2392:	01 c0       	rjmp	.+2      	; 0x2396 <FindChild+0x9a>
    2394:	c8 01       	movw	r24, r16
}
    2396:	24 96       	adiw	r28, 0x04	; 4
    2398:	cd bf       	out	0x3d, r28	; 61
    239a:	de bf       	out	0x3e, r29	; 62
    239c:	df 91       	pop	r29
    239e:	cf 91       	pop	r28
    23a0:	1f 91       	pop	r17
    23a2:	0f 91       	pop	r16
    23a4:	ff 90       	pop	r15
    23a6:	ef 90       	pop	r14
    23a8:	df 90       	pop	r13
    23aa:	bf 90       	pop	r11
    23ac:	af 90       	pop	r10
    23ae:	08 95       	ret

000023b0 <InpOkChk>:

//Allow only a(A) to z(Z) and 0 to 9 as input
uint8_t InpOkChk(uint8_t test){
    test |= 0x20;
    23b0:	80 62       	ori	r24, 0x20	; 32
    if ((test>='a')&&(test<='z')) return 1;
    23b2:	9f e9       	ldi	r25, 0x9F	; 159
    23b4:	98 0f       	add	r25, r24
    23b6:	9a 31       	cpi	r25, 0x1A	; 26
    23b8:	38 f0       	brcs	.+14     	; 0x23c8 <InpOkChk+0x18>
    23ba:	90 ed       	ldi	r25, 0xD0	; 208
    23bc:	98 0f       	add	r25, r24
    23be:	81 e0       	ldi	r24, 0x01	; 1
    23c0:	9a 30       	cpi	r25, 0x0A	; 10
    23c2:	18 f0       	brcs	.+6      	; 0x23ca <InpOkChk+0x1a>
    23c4:	80 e0       	ldi	r24, 0x00	; 0
    23c6:	08 95       	ret
    23c8:	81 e0       	ldi	r24, 0x01	; 1
    if ((test>='0')&&(test<='9')) return 1;
    return 0;
}
    23ca:	08 95       	ret

000023cc <CleanInput>:

//Cleans input of garbage and returns length of cleaned input "o->d2  !\0" becomes "od2\0"
uint8_t CleanInput(uint8_t *data){
    23cc:	0f 93       	push	r16
    23ce:	1f 93       	push	r17
    23d0:	cf 93       	push	r28
    23d2:	df 93       	push	r29
    23d4:	8c 01       	movw	r16, r24
    uint8_t cnt = 0;
    for (uint8_t x=0; data[x]!=0; ++x){
    23d6:	d0 e0       	ldi	r29, 0x00	; 0
    return 0;
}

//Cleans input of garbage and returns length of cleaned input "o->d2  !\0" becomes "od2\0"
uint8_t CleanInput(uint8_t *data){
    uint8_t cnt = 0;
    23d8:	c0 e0       	ldi	r28, 0x00	; 0
    for (uint8_t x=0; data[x]!=0; ++x){
    23da:	f8 01       	movw	r30, r16
    23dc:	ed 0f       	add	r30, r29
    23de:	f1 1d       	adc	r31, r1
    23e0:	20 81       	ld	r18, Z
    23e2:	8c 2f       	mov	r24, r28
    23e4:	90 e0       	ldi	r25, 0x00	; 0
    23e6:	22 23       	and	r18, r18
    23e8:	51 f0       	breq	.+20     	; 0x23fe <CleanInput+0x32>
        data[cnt] = data[x];
    23ea:	d8 01       	movw	r26, r16
    23ec:	a8 0f       	add	r26, r24
    23ee:	b9 1f       	adc	r27, r25
    23f0:	2c 93       	st	X, r18
        if (InpOkChk(data[x])) ++cnt;
    23f2:	80 81       	ld	r24, Z
    23f4:	dd df       	rcall	.-70     	; 0x23b0 <InpOkChk>
    23f6:	81 11       	cpse	r24, r1
    23f8:	cf 5f       	subi	r28, 0xFF	; 255
}

//Cleans input of garbage and returns length of cleaned input "o->d2  !\0" becomes "od2\0"
uint8_t CleanInput(uint8_t *data){
    uint8_t cnt = 0;
    for (uint8_t x=0; data[x]!=0; ++x){
    23fa:	df 5f       	subi	r29, 0xFF	; 255
    23fc:	ee cf       	rjmp	.-36     	; 0x23da <CleanInput+0xe>
        data[cnt] = data[x];
        if (InpOkChk(data[x])) ++cnt;
    }
    data[cnt] = 0;
    23fe:	f8 01       	movw	r30, r16
    2400:	e8 0f       	add	r30, r24
    2402:	f9 1f       	adc	r31, r25
    2404:	10 82       	st	Z, r1
    return cnt;
}
    2406:	8c 2f       	mov	r24, r28
    2408:	df 91       	pop	r29
    240a:	cf 91       	pop	r28
    240c:	1f 91       	pop	r17
    240e:	0f 91       	pop	r16
    2410:	08 95       	ret

00002412 <CheckSend>:

//Send routine, optimized for low memory usage
uint8_t CheckSend(){
    2412:	cf 93       	push	r28
    static uint8_t txPart;
    uint8_t EEreadLength=0;

    //Play effects if available and not already playing
    if (effect == 0){
    2414:	80 91 3c 38 	lds	r24, 0x383C	; 0x80383c <effect>
    2418:	90 91 3d 38 	lds	r25, 0x383D	; 0x80383d <effect+0x1>
    241c:	89 2b       	or	r24, r25
    241e:	99 f4       	brne	.+38     	; 0x2446 <CheckSend+0x34>
        effect = currObj.byteField[EFFECTS];
    2420:	80 91 21 3a 	lds	r24, 0x3A21	; 0x803a21 <currObj+0x4>
    2424:	90 e0       	ldi	r25, 0x00	; 0
    2426:	80 93 3c 38 	sts	0x383C, r24	; 0x80383c <effect>
    242a:	90 93 3d 38 	sts	0x383D, r25	; 0x80383d <effect+0x1>
        auStart = ((effect&0xE0)>0);
    242e:	80 91 3c 38 	lds	r24, 0x383C	; 0x80383c <effect>
    2432:	90 91 3d 38 	lds	r25, 0x383D	; 0x80383d <effect+0x1>
    2436:	80 7e       	andi	r24, 0xE0	; 224
    2438:	99 27       	eor	r25, r25
    243a:	21 e0       	ldi	r18, 0x01	; 1
    243c:	89 2b       	or	r24, r25
    243e:	09 f4       	brne	.+2      	; 0x2442 <CheckSend+0x30>
    2440:	20 e0       	ldi	r18, 0x00	; 0
    2442:	20 93 3b 38 	sts	0x383B, r18	; 0x80383b <auStart>
    }

    //Check if more string(part)s have to be sent to the serial output if previous send operation is completed
    if ((txAddrNow < TXLISTLEN) && serTxDone){
    2446:	20 91 49 3a 	lds	r18, 0x3A49	; 0x803a49 <txAddrNow>
    244a:	28 30       	cpi	r18, 0x08	; 8
    244c:	08 f0       	brcs	.+2      	; 0x2450 <CheckSend+0x3e>
    244e:	48 c0       	rjmp	.+144    	; 0x24e0 <CheckSend+0xce>
    2450:	80 91 09 38 	lds	r24, 0x3809	; 0x803809 <serTxDone>
    2454:	88 23       	and	r24, r24
    2456:	09 f4       	brne	.+2      	; 0x245a <CheckSend+0x48>
    2458:	43 c0       	rjmp	.+134    	; 0x24e0 <CheckSend+0xce>
        if (txStrLen[txAddrNow] == 0){
    245a:	82 2f       	mov	r24, r18
    245c:	90 e0       	ldi	r25, 0x00	; 0
    245e:	fc 01       	movw	r30, r24
    2460:	e6 5b       	subi	r30, 0xB6	; 182
    2462:	f5 4c       	sbci	r31, 0xC5	; 197
    2464:	e0 81       	ld	r30, Z
    2466:	e1 11       	cpse	r30, r1
    2468:	06 c0       	rjmp	.+12     	; 0x2476 <CheckSend+0x64>
            txPart = 0;
    246a:	10 92 08 39 	sts	0x3908, r1	; 0x803908 <txPart.3951>
            txAddrNow = TXLISTLEN;
    246e:	88 e0       	ldi	r24, 0x08	; 8
    2470:	80 93 49 3a 	sts	0x3A49, r24	; 0x803a49 <txAddrNow>
    2474:	2d c0       	rjmp	.+90     	; 0x24d0 <CheckSend+0xbe>
        } else if (txPart < txStrLen[txAddrNow]){
    2476:	50 91 08 39 	lds	r21, 0x3908	; 0x803908 <txPart.3951>
    247a:	5e 17       	cp	r21, r30
    247c:	58 f5       	brcc	.+86     	; 0x24d4 <CheckSend+0xc2>
            EEreadLength = txStrLen[txAddrNow]-txPart;
    247e:	ce 2f       	mov	r28, r30
    2480:	c5 1b       	sub	r28, r21
    2482:	c1 32       	cpi	r28, 0x21	; 33
    2484:	08 f0       	brcs	.+2      	; 0x2488 <CheckSend+0x76>
    2486:	c0 e2       	ldi	r28, 0x20	; 32
            if (EEreadLength>=TXLEN) EEreadLength = TXLEN-1;
            ExtEERead(txAddrList[txAddrNow]+txPart, EEreadLength, txTypeNow, &txBuffer[0]);
    2488:	88 0f       	add	r24, r24
    248a:	99 1f       	adc	r25, r25
    248c:	fc 01       	movw	r30, r24
    248e:	ee 5a       	subi	r30, 0xAE	; 174
    2490:	f5 4c       	sbci	r31, 0xC5	; 197
    2492:	80 81       	ld	r24, Z
    2494:	91 81       	ldd	r25, Z+1	; 0x01
    2496:	2b ef       	ldi	r18, 0xFB	; 251
    2498:	3a e3       	ldi	r19, 0x3A	; 58
    249a:	40 91 48 3a 	lds	r20, 0x3A48	; 0x803a48 <txTypeNow>
    249e:	6c 2f       	mov	r22, r28
    24a0:	85 0f       	add	r24, r21
    24a2:	91 1d       	adc	r25, r1
    24a4:	50 dd       	rcall	.-1376   	; 0x1f46 <ExtEERead>
            txPart += EEreadLength;
    24a6:	80 91 08 39 	lds	r24, 0x3908	; 0x803908 <txPart.3951>
    24aa:	8c 0f       	add	r24, r28
    24ac:	80 93 08 39 	sts	0x3908, r24	; 0x803908 <txPart.3951>
            txBuffer[EEreadLength] = 0; //Add string terminator after piece to send to plug memory leak
    24b0:	ec 2f       	mov	r30, r28
    24b2:	f0 e0       	ldi	r31, 0x00	; 0
    24b4:	e5 50       	subi	r30, 0x05	; 5
    24b6:	f5 4c       	sbci	r31, 0xC5	; 197
    24b8:	10 82       	st	Z, r1
            if ((txBuffer[0] == 0) && (EEreadLength)) txBuffer[0] = 0xDB; //Block character when data wrong.
    24ba:	80 91 fb 3a 	lds	r24, 0x3AFB	; 0x803afb <txBuffer>
    24be:	81 11       	cpse	r24, r1
    24c0:	03 c0       	rjmp	.+6      	; 0x24c8 <CheckSend+0xb6>
    24c2:	8b ed       	ldi	r24, 0xDB	; 219
    24c4:	80 93 fb 3a 	sts	0x3AFB, r24	; 0x803afb <txBuffer>
            SerSend(&txBuffer[0]);
    24c8:	8b ef       	ldi	r24, 0xFB	; 251
    24ca:	9a e3       	ldi	r25, 0x3A	; 58
    24cc:	0e 94 7b 08 	call	0x10f6	; 0x10f6 <SerSend>
        } else {
            txPart = 0;
            ++txAddrNow;
        }
    } else if (serTxDone) return 0; //All is sent!
    return 1; //Still sending, do not change the data in the tx variables
    24d0:	81 e0       	ldi	r24, 0x01	; 1
    24d2:	0b c0       	rjmp	.+22     	; 0x24ea <CheckSend+0xd8>
            txPart += EEreadLength;
            txBuffer[EEreadLength] = 0; //Add string terminator after piece to send to plug memory leak
            if ((txBuffer[0] == 0) && (EEreadLength)) txBuffer[0] = 0xDB; //Block character when data wrong.
            SerSend(&txBuffer[0]);
        } else {
            txPart = 0;
    24d4:	10 92 08 39 	sts	0x3908, r1	; 0x803908 <txPart.3951>
            ++txAddrNow;
    24d8:	2f 5f       	subi	r18, 0xFF	; 255
    24da:	20 93 49 3a 	sts	0x3A49, r18	; 0x803a49 <txAddrNow>
    24de:	f8 cf       	rjmp	.-16     	; 0x24d0 <CheckSend+0xbe>
        }
    } else if (serTxDone) return 0; //All is sent!
    24e0:	90 91 09 38 	lds	r25, 0x3809	; 0x803809 <serTxDone>
    24e4:	81 e0       	ldi	r24, 0x01	; 1
    24e6:	91 11       	cpse	r25, r1
    24e8:	80 e0       	ldi	r24, 0x00	; 0
    return 1; //Still sending, do not change the data in the tx variables
}
    24ea:	cf 91       	pop	r28
    24ec:	08 95       	ret

000024ee <CheckResponse>:

//Send another part of the response and play the effect afterwards
uint8_t CheckResponse(){
    24ee:	cf 93       	push	r28
    24f0:	df 93       	push	r29
    static uint8_t number = 0;
    if (responseList){
    24f2:	c0 91 1c 39 	lds	r28, 0x391C	; 0x80391c <responseList>
    24f6:	cc 23       	and	r28, r28
    24f8:	e9 f1       	breq	.+122    	; 0x2574 <CheckResponse+0x86>
        --responseList;
    24fa:	c1 50       	subi	r28, 0x01	; 1
    24fc:	c0 93 1c 39 	sts	0x391C, r28	; 0x80391c <responseList>
        if (reactStr[0][number] == CURR_LOC) {
    2500:	d0 91 07 39 	lds	r29, 0x3907	; 0x803907 <number.3955>
    2504:	2d 2f       	mov	r18, r29
    2506:	30 e0       	ldi	r19, 0x00	; 0
    2508:	f9 01       	movw	r30, r18
    250a:	ee 0f       	add	r30, r30
    250c:	ff 1f       	adc	r31, r31
    250e:	e3 5e       	subi	r30, 0xE3	; 227
    2510:	f6 4c       	sbci	r31, 0xC6	; 198
    2512:	80 81       	ld	r24, Z
    2514:	91 81       	ldd	r25, Z+1	; 0x01
    2516:	80 3f       	cpi	r24, 0xF0	; 240
    2518:	4f ef       	ldi	r20, 0xFF	; 255
    251a:	94 07       	cpc	r25, r20
    251c:	51 f4       	brne	.+20     	; 0x2532 <CheckResponse+0x44>
            PrepareSending(currObj.addrStr[NAME], currObj.lenStr[NAME], GAME);
    251e:	60 91 37 3a 	lds	r22, 0x3A37	; 0x803a37 <currObj+0x1a>
    2522:	70 91 38 3a 	lds	r23, 0x3A38	; 0x803a38 <currObj+0x1b>
    2526:	40 e0       	ldi	r20, 0x00	; 0
    2528:	80 91 29 3a 	lds	r24, 0x3A29	; 0x803a29 <currObj+0xc>
    252c:	90 91 2a 3a 	lds	r25, 0x3A2A	; 0x803a2a <currObj+0xd>
    2530:	0d c0       	rjmp	.+26     	; 0x254c <CheckResponse+0x5e>
        } else {
            PrepareSending(reactStr[0][number], reactStr[1][number], reactStr[2][number]);
    2532:	d9 01       	movw	r26, r18
    2534:	aa 0f       	add	r26, r26
    2536:	bb 1f       	adc	r27, r27
    2538:	a3 56       	subi	r26, 0x63	; 99
    253a:	b6 4c       	sbci	r27, 0xC6	; 198
    253c:	22 0f       	add	r18, r18
    253e:	33 1f       	adc	r19, r19
    2540:	f9 01       	movw	r30, r18
    2542:	e3 5a       	subi	r30, 0xA3	; 163
    2544:	f6 4c       	sbci	r31, 0xC6	; 198
    2546:	60 81       	ld	r22, Z
    2548:	71 81       	ldd	r23, Z+1	; 0x01
    254a:	4c 91       	ld	r20, X
    254c:	53 dd       	rcall	.-1370   	; 0x1ff4 <PrepareSending>
        }
        ++number;
    254e:	df 5f       	subi	r29, 0xFF	; 255
    2550:	d0 93 07 39 	sts	0x3907, r29	; 0x803907 <number.3955>

        if (responseList == 0) {
    2554:	c1 11       	cpse	r28, r1
    2556:	0d c0       	rjmp	.+26     	; 0x2572 <CheckResponse+0x84>
            effect = currObj.byteField[EFFECTS];
    2558:	80 91 21 3a 	lds	r24, 0x3A21	; 0x803a21 <currObj+0x4>
    255c:	90 e0       	ldi	r25, 0x00	; 0
    255e:	80 93 3c 38 	sts	0x383C, r24	; 0x80383c <effect>
    2562:	90 93 3d 38 	sts	0x383D, r25	; 0x80383d <effect+0x1>
            RXCNT = 0;
    2566:	1d ba       	out	0x1d, r1	; 29
            serRxDone = 0;
    2568:	10 92 46 38 	sts	0x3846, r1	; 0x803846 <serRxDone>
            number = 0;
    256c:	10 92 07 39 	sts	0x3907, r1	; 0x803907 <number.3955>
    2570:	01 c0       	rjmp	.+2      	; 0x2574 <CheckResponse+0x86>
            return 0;
        }
        return 1;
    2572:	c1 e0       	ldi	r28, 0x01	; 1
    }
    return 0;
}
    2574:	8c 2f       	mov	r24, r28
    2576:	df 91       	pop	r29
    2578:	cf 91       	pop	r28
    257a:	08 95       	ret

0000257c <CheckInput>:

//User input check (and validation)
uint8_t CheckInput(uint8_t *data){
    257c:	3f 92       	push	r3
    257e:	4f 92       	push	r4
    2580:	5f 92       	push	r5
    2582:	6f 92       	push	r6
    2584:	7f 92       	push	r7
    2586:	8f 92       	push	r8
    2588:	9f 92       	push	r9
    258a:	af 92       	push	r10
    258c:	bf 92       	push	r11
    258e:	cf 92       	push	r12
    2590:	df 92       	push	r13
    2592:	ef 92       	push	r14
    2594:	ff 92       	push	r15
    2596:	0f 93       	push	r16
    2598:	1f 93       	push	r17
    259a:	cf 93       	push	r28
    259c:	df 93       	push	r29
    259e:	cd b7       	in	r28, 0x3d	; 61
    25a0:	de b7       	in	r29, 0x3e	; 62
    25a2:	a1 97       	sbiw	r28, 0x21	; 33
    25a4:	cd bf       	out	0x3d, r28	; 61
    25a6:	de bf       	out	0x3e, r29	; 62
    25a8:	8c 01       	movw	r16, r24
    
    //Load game data after reboot
    if (currDepth == 0xff) {
    25aa:	80 91 2e 38 	lds	r24, 0x382E	; 0x80382e <currDepth>
    25ae:	8f 3f       	cpi	r24, 0xFF	; 255
    25b0:	49 f4       	brne	.+18     	; 0x25c4 <CheckInput+0x48>
        //Start at first location
        PopulateObject(route[0], &currObj);
    25b2:	6d e1       	ldi	r22, 0x1D	; 29
    25b4:	7a e3       	ldi	r23, 0x3A	; 58
    25b6:	80 91 dd 39 	lds	r24, 0x39DD	; 0x8039dd <route>
    25ba:	90 91 de 39 	lds	r25, 0x39DE	; 0x8039de <route+0x1>
    25be:	d3 dd       	rcall	.-1114   	; 0x2166 <PopulateObject>
        currDepth = 0;
    25c0:	10 92 2e 38 	sts	0x382E, r1	; 0x80382e <currDepth>
    }

    if (serRxDone){
    25c4:	80 91 46 38 	lds	r24, 0x3846	; 0x803846 <serRxDone>
    25c8:	88 23       	and	r24, r24
    25ca:	09 f4       	brne	.+2      	; 0x25ce <CheckInput+0x52>
    25cc:	71 c2       	rjmp	.+1250   	; 0x2ab0 <CheckInput+0x534>

        //Special input requested from user by game
        if (specialInput[0]){
    25ce:	80 91 0c 39 	lds	r24, 0x390C	; 0x80390c <specialInput>
    25d2:	88 23       	and	r24, r24
    25d4:	09 f4       	brne	.+2      	; 0x25d8 <CheckInput+0x5c>
    25d6:	57 c0       	rjmp	.+174    	; 0x2686 <CheckInput+0x10a>
            specialPassed = 0;
    25d8:	10 92 0b 39 	sts	0x390B, r1	; 0x80390b <specialPassed>
            data[0] = 'a';
    25dc:	81 e6       	ldi	r24, 0x61	; 97
    25de:	f8 01       	movw	r30, r16
    25e0:	80 83       	st	Z, r24
            
            //Normal code challenge
            if (StartsWith((uint8_t *)&serRx[0], &specialInput[0])) {
    25e2:	6c e0       	ldi	r22, 0x0C	; 12
    25e4:	79 e3       	ldi	r23, 0x39	; 57
    25e6:	87 e7       	ldi	r24, 0x77	; 119
    25e8:	9a e3       	ldi	r25, 0x3A	; 58
    25ea:	ea dc       	rcall	.-1580   	; 0x1fc0 <StartsWith>
    25ec:	f8 2e       	mov	r15, r24
    25ee:	88 23       	and	r24, r24
    25f0:	21 f0       	breq	.+8      	; 0x25fa <CheckInput+0x7e>
                specialPassed = 1;
    25f2:	81 e0       	ldi	r24, 0x01	; 1
    25f4:	80 93 0b 39 	sts	0x390B, r24	; 0x80390b <specialPassed>
    25f8:	04 c0       	rjmp	.+8      	; 0x2602 <CheckInput+0x86>
                //specialInput[0] = 0;
                //data[1] = 0;

            //Special challenge 1
            } else if ((specialInput[0] == '1')&&(specialInput[2] == 0)) {
    25fa:	80 91 0c 39 	lds	r24, 0x390C	; 0x80390c <specialInput>
    25fe:	81 33       	cpi	r24, 0x31	; 49
    2600:	11 f0       	breq	.+4      	; 0x2606 <CheckInput+0x8a>
                responseList = 32;
                return 1;
            }
        } 
        //Data received, but not any of the commands above
        return 0;
    2602:	f1 2c       	mov	r15, r1
    2604:	57 c2       	rjmp	.+1198   	; 0x2ab4 <CheckInput+0x538>
                specialPassed = 1;
                //specialInput[0] = 0;
                //data[1] = 0;

            //Special challenge 1
            } else if ((specialInput[0] == '1')&&(specialInput[2] == 0)) {
    2606:	80 91 0e 39 	lds	r24, 0x390E	; 0x80390e <specialInput+0x2>
    260a:	81 11       	cpse	r24, r1
    260c:	fa cf       	rjmp	.-12     	; 0x2602 <CheckInput+0x86>
                uint8_t inputLen = CleanInput((uint8_t *)&serRx[0]);
    260e:	87 e7       	ldi	r24, 0x77	; 119
    2610:	9a e3       	ldi	r25, 0x3A	; 58
    2612:	dc de       	rcall	.-584    	; 0x23cc <CleanInput>
                specialPassed = 2;
    2614:	92 e0       	ldi	r25, 0x02	; 2
    2616:	90 93 0b 39 	sts	0x390B, r25	; 0x80390b <specialPassed>
                data[1] = 0;
    261a:	f8 01       	movw	r30, r16
    261c:	11 82       	std	Z+1, r1	; 0x01

                if (inputLen >= 2) {
    261e:	82 30       	cpi	r24, 0x02	; 2
    2620:	80 f3       	brcs	.-32     	; 0x2602 <CheckInput+0x86>
                    if ((serRx[0] == '1')||(serRx[0] == '2')||(serRx[0] == '3')||(serRx[0] == '4')) {
    2622:	80 91 77 3a 	lds	r24, 0x3A77	; 0x803a77 <serRx>
    2626:	81 33       	cpi	r24, 0x31	; 49
    2628:	61 f0       	breq	.+24     	; 0x2642 <CheckInput+0xc6>
    262a:	80 91 77 3a 	lds	r24, 0x3A77	; 0x803a77 <serRx>
    262e:	82 33       	cpi	r24, 0x32	; 50
    2630:	41 f0       	breq	.+16     	; 0x2642 <CheckInput+0xc6>
    2632:	80 91 77 3a 	lds	r24, 0x3A77	; 0x803a77 <serRx>
    2636:	83 33       	cpi	r24, 0x33	; 51
    2638:	21 f0       	breq	.+8      	; 0x2642 <CheckInput+0xc6>
    263a:	80 91 77 3a 	lds	r24, 0x3A77	; 0x803a77 <serRx>
    263e:	84 33       	cpi	r24, 0x34	; 52
    2640:	01 f7       	brne	.-64     	; 0x2602 <CheckInput+0x86>
                        serRx[1] |= 0x20;
    2642:	80 91 78 3a 	lds	r24, 0x3A78	; 0x803a78 <serRx+0x1>
    2646:	80 62       	ori	r24, 0x20	; 32
    2648:	80 93 78 3a 	sts	0x3A78, r24	; 0x803a78 <serRx+0x1>
                        if ((serRx[1] == 'a')||(serRx[1] == 'e')||(serRx[1] == 'f')||(serRx[1] == 'w')) {
    264c:	80 91 78 3a 	lds	r24, 0x3A78	; 0x803a78 <serRx+0x1>
    2650:	81 36       	cpi	r24, 0x61	; 97
    2652:	61 f0       	breq	.+24     	; 0x266c <CheckInput+0xf0>
    2654:	80 91 78 3a 	lds	r24, 0x3A78	; 0x803a78 <serRx+0x1>
    2658:	85 36       	cpi	r24, 0x65	; 101
    265a:	41 f0       	breq	.+16     	; 0x266c <CheckInput+0xf0>
    265c:	80 91 78 3a 	lds	r24, 0x3A78	; 0x803a78 <serRx+0x1>
    2660:	86 36       	cpi	r24, 0x66	; 102
    2662:	21 f0       	breq	.+8      	; 0x266c <CheckInput+0xf0>
    2664:	80 91 78 3a 	lds	r24, 0x3A78	; 0x803a78 <serRx+0x1>
    2668:	87 37       	cpi	r24, 0x77	; 119
    266a:	59 f6       	brne	.-106    	; 0x2602 <CheckInput+0x86>
                            data[1] = specialInput[1]+0x11;
    266c:	80 91 0d 39 	lds	r24, 0x390D	; 0x80390d <specialInput+0x1>
    2670:	8f 5e       	subi	r24, 0xEF	; 239
    2672:	f8 01       	movw	r30, r16
    2674:	81 83       	std	Z+1, r24	; 0x01
                            data[2] = serRx[0];
    2676:	80 91 77 3a 	lds	r24, 0x3A77	; 0x803a77 <serRx>
    267a:	82 83       	std	Z+2, r24	; 0x02
                            data[3] = serRx[1];
    267c:	80 91 78 3a 	lds	r24, 0x3A78	; 0x803a78 <serRx+0x1>
    2680:	83 83       	std	Z+3, r24	; 0x03
                            data[4] = 0;
    2682:	14 82       	std	Z+4, r1	; 0x04
    2684:	17 c2       	rjmp	.+1070   	; 0x2ab4 <CheckInput+0x538>
        
        //Normal input
        } else {

            //Change status bit
            if ((serRx[0] == '#')&&(RXCNT == 6)){
    2686:	80 91 77 3a 	lds	r24, 0x3A77	; 0x803a77 <serRx>
    268a:	83 32       	cpi	r24, 0x23	; 35
    268c:	89 f5       	brne	.+98     	; 0x26f0 <CheckInput+0x174>
    268e:	8d b3       	in	r24, 0x1d	; 29
    2690:	86 30       	cpi	r24, 0x06	; 6
    2692:	71 f5       	brne	.+92     	; 0x26f0 <CheckInput+0x174>
    2694:	81 e0       	ldi	r24, 0x01	; 1
    2696:	90 e0       	ldi	r25, 0x00	; 0
    2698:	10 e0       	ldi	r17, 0x00	; 0
                uint8_t bitNr = 0;

                for (uint8_t x=1; x<4; ++x) {
                    serRx[x] -= '0';
    269a:	fc 01       	movw	r30, r24
    269c:	e9 58       	subi	r30, 0x89	; 137
    269e:	f5 4c       	sbci	r31, 0xC5	; 197
    26a0:	20 81       	ld	r18, Z
    26a2:	20 53       	subi	r18, 0x30	; 48
    26a4:	20 83       	st	Z, r18
                    bitNr *= 10;
    26a6:	11 0f       	add	r17, r17
    26a8:	21 2f       	mov	r18, r17
    26aa:	22 0f       	add	r18, r18
    26ac:	22 0f       	add	r18, r18
    26ae:	12 0f       	add	r17, r18
                    if (serRx[1] > 2) break;
    26b0:	20 91 78 3a 	lds	r18, 0x3A78	; 0x803a78 <serRx+0x1>
    26b4:	23 30       	cpi	r18, 0x03	; 3
    26b6:	48 f4       	brcc	.+18     	; 0x26ca <CheckInput+0x14e>
                    if (serRx[x] < 10) {
    26b8:	20 81       	ld	r18, Z
    26ba:	2a 30       	cpi	r18, 0x0A	; 10
    26bc:	b8 f4       	brcc	.+46     	; 0x26ec <CheckInput+0x170>
                        bitNr += serRx[x];
    26be:	20 81       	ld	r18, Z
    26c0:	12 0f       	add	r17, r18
    26c2:	01 96       	adiw	r24, 0x01	; 1

            //Change status bit
            if ((serRx[0] == '#')&&(RXCNT == 6)){
                uint8_t bitNr = 0;

                for (uint8_t x=1; x<4; ++x) {
    26c4:	84 30       	cpi	r24, 0x04	; 4
    26c6:	91 05       	cpc	r25, r1
    26c8:	41 f7       	brne	.-48     	; 0x269a <CheckInput+0x11e>
                        continue;
                    }
                    bitNr = 0;
                    break;
                }
                if ((bitNr)&&(bitNr!=128)) {
    26ca:	81 2f       	mov	r24, r17
    26cc:	8f 77       	andi	r24, 0x7F	; 127
    26ce:	71 f0       	breq	.+28     	; 0x26ec <CheckInput+0x170>
                    if (Cheat(0xff-bitNr, serRx[4]<<8|serRx[5])) UpdateState(bitNr);
    26d0:	80 91 7b 3a 	lds	r24, 0x3A7B	; 0x803a7b <serRx+0x4>
    26d4:	60 91 7c 3a 	lds	r22, 0x3A7C	; 0x803a7c <serRx+0x5>
    26d8:	70 e0       	ldi	r23, 0x00	; 0
    26da:	78 2b       	or	r23, r24
    26dc:	81 2f       	mov	r24, r17
    26de:	80 95       	com	r24
    26e0:	cf db       	rcall	.-2146   	; 0x1e80 <Cheat>
    26e2:	88 23       	and	r24, r24
    26e4:	19 f0       	breq	.+6      	; 0x26ec <CheckInput+0x170>
    26e6:	81 2f       	mov	r24, r17
    26e8:	0e 94 0d 0a 	call	0x141a	; 0x141a <UpdateState>
                }
                responseList = SetStandardResponse(0);
    26ec:	80 e0       	ldi	r24, 0x00	; 0
    26ee:	50 c0       	rjmp	.+160    	; 0x2790 <CheckInput+0x214>
    26f0:	d8 01       	movw	r26, r16
    26f2:	80 e0       	ldi	r24, 0x00	; 0
    26f4:	90 e0       	ldi	r25, 0x00	; 0
                return 1;            
            }
            
            //Read up to the \0 character and convert to lower case.
            for (uint8_t x=0; x<RXLEN; ++x){
                if ((serRx[x]<'A')||(serRx[x]>'Z')) data[x]=serRx[x]; else data[x]=serRx[x]|0x20;
    26f6:	fc 01       	movw	r30, r24
    26f8:	e9 58       	subi	r30, 0x89	; 137
    26fa:	f5 4c       	sbci	r31, 0xC5	; 197
    26fc:	20 81       	ld	r18, Z
    26fe:	21 34       	cpi	r18, 0x41	; 65
    2700:	18 f0       	brcs	.+6      	; 0x2708 <CheckInput+0x18c>
    2702:	20 81       	ld	r18, Z
    2704:	2b 35       	cpi	r18, 0x5B	; 91
    2706:	10 f0       	brcs	.+4      	; 0x270c <CheckInput+0x190>
    2708:	20 81       	ld	r18, Z
    270a:	02 c0       	rjmp	.+4      	; 0x2710 <CheckInput+0x194>
    270c:	20 81       	ld	r18, Z
    270e:	20 62       	ori	r18, 0x20	; 32
    2710:	2c 93       	st	X, r18
                if (serRx[x] == 0) {
    2712:	20 81       	ld	r18, Z
    2714:	21 11       	cpse	r18, r1
    2716:	05 c0       	rjmp	.+10     	; 0x2722 <CheckInput+0x1a6>
                    data[x] = 0;
    2718:	f8 01       	movw	r30, r16
    271a:	e8 0f       	add	r30, r24
    271c:	f1 1d       	adc	r31, r1
    271e:	10 82       	st	Z, r1
                    break;
    2720:	05 c0       	rjmp	.+10     	; 0x272c <CheckInput+0x1b0>
    2722:	01 96       	adiw	r24, 0x01	; 1
    2724:	11 96       	adiw	r26, 0x01	; 1
                responseList = SetStandardResponse(0);
                return 1;            
            }
            
            //Read up to the \0 character and convert to lower case.
            for (uint8_t x=0; x<RXLEN; ++x){
    2726:	81 34       	cpi	r24, 0x41	; 65
    2728:	91 05       	cpc	r25, r1
    272a:	29 f7       	brne	.-54     	; 0x26f6 <CheckInput+0x17a>
                    break;
                }
            }

            //No text
            if (serRx[0] == 0){
    272c:	80 91 77 3a 	lds	r24, 0x3A77	; 0x803a77 <serRx>
                data[0] = 0;
    2730:	f8 01       	movw	r30, r16
                    break;
                }
            }

            //No text
            if (serRx[0] == 0){
    2732:	81 11       	cpse	r24, r1
    2734:	05 c0       	rjmp	.+10     	; 0x2740 <CheckInput+0x1c4>
                data[0] = 0;
    2736:	10 82       	st	Z, r1
                RXCNT = 0;
    2738:	1d ba       	out	0x1d, r1	; 29
                serRxDone = 0;
    273a:	10 92 46 38 	sts	0x3846, r1	; 0x803846 <serRxDone>
    273e:	b8 c1       	rjmp	.+880    	; 0x2ab0 <CheckInput+0x534>
                return 1;
            }

            //Help text
            if ((data[0] == '?')||(data[0] == 'h')){
    2740:	80 81       	ld	r24, Z
    2742:	8f 33       	cpi	r24, 0x3F	; 63
    2744:	11 f0       	breq	.+4      	; 0x274a <CheckInput+0x1ce>
    2746:	88 36       	cpi	r24, 0x68	; 104
    2748:	39 f5       	brne	.+78     	; 0x2798 <CheckInput+0x21c>
    return 0;
}

//
void SetResponse(uint8_t number, uint16_t address, uint16_t length, uint8_t type){
    reactStr[0][number]=address;
    274a:	89 e5       	ldi	r24, 0x59	; 89
    274c:	9a e7       	ldi	r25, 0x7A	; 122
    274e:	80 93 1d 39 	sts	0x391D, r24	; 0x80391d <reactStr>
    2752:	90 93 1e 39 	sts	0x391E, r25	; 0x80391e <reactStr+0x1>
    reactStr[1][number]=length;
    2756:	84 e0       	ldi	r24, 0x04	; 4
    2758:	90 e0       	ldi	r25, 0x00	; 0
    275a:	80 93 5d 39 	sts	0x395D, r24	; 0x80395d <reactStr+0x40>
    275e:	90 93 5e 39 	sts	0x395E, r25	; 0x80395e <reactStr+0x41>
    reactStr[2][number]=type;
    2762:	81 e0       	ldi	r24, 0x01	; 1
    2764:	90 e0       	ldi	r25, 0x00	; 0
    2766:	80 93 9d 39 	sts	0x399D, r24	; 0x80399d <reactStr+0x80>
    276a:	90 93 9e 39 	sts	0x399E, r25	; 0x80399e <reactStr+0x81>
    return 0;
}

//
void SetResponse(uint8_t number, uint16_t address, uint16_t length, uint8_t type){
    reactStr[0][number]=address;
    276e:	23 e9       	ldi	r18, 0x93	; 147
    2770:	3b e7       	ldi	r19, 0x7B	; 123
    2772:	20 93 1f 39 	sts	0x391F, r18	; 0x80391f <reactStr+0x2>
    2776:	30 93 20 39 	sts	0x3920, r19	; 0x803920 <reactStr+0x3>
    reactStr[1][number]=length;
    277a:	2d e6       	ldi	r18, 0x6D	; 109
    277c:	34 e0       	ldi	r19, 0x04	; 4
    277e:	20 93 5f 39 	sts	0x395F, r18	; 0x80395f <reactStr+0x42>
    2782:	30 93 60 39 	sts	0x3960, r19	; 0x803960 <reactStr+0x43>
    reactStr[2][number]=type;
    2786:	80 93 9f 39 	sts	0x399F, r24	; 0x80399f <reactStr+0x82>
    278a:	90 93 a0 39 	sts	0x39A0, r25	; 0x8039a0 <reactStr+0x83>

            //Help text
            if ((data[0] == '?')||(data[0] == 'h')){
                SetResponse(0, A_LF, 4, TEASER);
                SetResponse(1, A_HELP, L_HELP, TEASER);
                responseList = SetStandardResponse(2);
    278e:	82 e0       	ldi	r24, 0x02	; 2
    2790:	6e dc       	rcall	.-1828   	; 0x206e <SetStandardResponse>
    2792:	80 93 1c 39 	sts	0x391C, r24	; 0x80391c <responseList>
    2796:	8c c1       	rjmp	.+792    	; 0x2ab0 <CheckInput+0x534>
                return 1;
            }        
        
            //Alphabet text
            if (data[0] == 'a'){
    2798:	81 36       	cpi	r24, 0x61	; 97
    279a:	d9 f4       	brne	.+54     	; 0x27d2 <CheckInput+0x256>
    return 0;
}

//
void SetResponse(uint8_t number, uint16_t address, uint16_t length, uint8_t type){
    reactStr[0][number]=address;
    279c:	89 e5       	ldi	r24, 0x59	; 89
    279e:	9a e7       	ldi	r25, 0x7A	; 122
    27a0:	80 93 1d 39 	sts	0x391D, r24	; 0x80391d <reactStr>
    27a4:	90 93 1e 39 	sts	0x391E, r25	; 0x80391e <reactStr+0x1>
    reactStr[1][number]=length;
    27a8:	84 e0       	ldi	r24, 0x04	; 4
    27aa:	90 e0       	ldi	r25, 0x00	; 0
    27ac:	80 93 5d 39 	sts	0x395D, r24	; 0x80395d <reactStr+0x40>
    27b0:	90 93 5e 39 	sts	0x395E, r25	; 0x80395e <reactStr+0x41>
    reactStr[2][number]=type;
    27b4:	81 e0       	ldi	r24, 0x01	; 1
    27b6:	90 e0       	ldi	r25, 0x00	; 0
    27b8:	80 93 9d 39 	sts	0x399D, r24	; 0x80399d <reactStr+0x80>
    27bc:	90 93 9e 39 	sts	0x399E, r25	; 0x80399e <reactStr+0x81>
    return 0;
}

//
void SetResponse(uint8_t number, uint16_t address, uint16_t length, uint8_t type){
    reactStr[0][number]=address;
    27c0:	2e e6       	ldi	r18, 0x6E	; 110
    27c2:	3a e7       	ldi	r19, 0x7A	; 122
    27c4:	20 93 1f 39 	sts	0x391F, r18	; 0x80391f <reactStr+0x2>
    27c8:	30 93 20 39 	sts	0x3920, r19	; 0x803920 <reactStr+0x3>
    reactStr[1][number]=length;
    27cc:	25 e2       	ldi	r18, 0x25	; 37
    27ce:	31 e0       	ldi	r19, 0x01	; 1
    27d0:	d6 cf       	rjmp	.-84     	; 0x277e <CheckInput+0x202>
                responseList = SetStandardResponse(2);
                return 1;
            }

            //Whoami text
            if (data[0] == 'w'){
    27d2:	87 37       	cpi	r24, 0x77	; 119
    27d4:	09 f0       	breq	.+2      	; 0x27d8 <CheckInput+0x25c>
    27d6:	6e c0       	rjmp	.+220    	; 0x28b4 <CheckInput+0x338>
    return 0;
}

//
void SetResponse(uint8_t number, uint16_t address, uint16_t length, uint8_t type){
    reactStr[0][number]=address;
    27d8:	89 e5       	ldi	r24, 0x59	; 89
    27da:	9a e7       	ldi	r25, 0x7A	; 122
    27dc:	80 93 1d 39 	sts	0x391D, r24	; 0x80391d <reactStr>
    27e0:	90 93 1e 39 	sts	0x391E, r25	; 0x80391e <reactStr+0x1>
    reactStr[1][number]=length;
    27e4:	84 e0       	ldi	r24, 0x04	; 4
    27e6:	90 e0       	ldi	r25, 0x00	; 0
    27e8:	80 93 5d 39 	sts	0x395D, r24	; 0x80395d <reactStr+0x40>
    27ec:	90 93 5e 39 	sts	0x395E, r25	; 0x80395e <reactStr+0x41>
    reactStr[2][number]=type;
    27f0:	21 e0       	ldi	r18, 0x01	; 1
    27f2:	30 e0       	ldi	r19, 0x00	; 0
    27f4:	20 93 9d 39 	sts	0x399D, r18	; 0x80399d <reactStr+0x80>
    27f8:	30 93 9e 39 	sts	0x399E, r19	; 0x80399e <reactStr+0x81>
    return 0;
}

//
void SetResponse(uint8_t number, uint16_t address, uint16_t length, uint8_t type){
    reactStr[0][number]=address;
    27fc:	8d e8       	ldi	r24, 0x8D	; 141
    27fe:	96 e7       	ldi	r25, 0x76	; 118
    2800:	80 93 1f 39 	sts	0x391F, r24	; 0x80391f <reactStr+0x2>
    2804:	90 93 20 39 	sts	0x3920, r25	; 0x803920 <reactStr+0x3>
    reactStr[1][number]=length;
    2808:	82 e1       	ldi	r24, 0x12	; 18
    280a:	90 e0       	ldi	r25, 0x00	; 0
    280c:	80 93 5f 39 	sts	0x395F, r24	; 0x80395f <reactStr+0x42>
    2810:	90 93 60 39 	sts	0x3960, r25	; 0x803960 <reactStr+0x43>
    reactStr[2][number]=type;
    2814:	20 93 9f 39 	sts	0x399F, r18	; 0x80399f <reactStr+0x82>
    2818:	30 93 a0 39 	sts	0x39A0, r19	; 0x8039a0 <reactStr+0x83>

            //Whoami text
            if (data[0] == 'w'){
                SetResponse(0, A_LF, 4, TEASER);
                SetResponse(1, A_HELLO, L_HELLO, TEASER);
                if (whoami == 1) {
    281c:	80 91 3f 38 	lds	r24, 0x383F	; 0x80383f <whoami>
    2820:	81 30       	cpi	r24, 0x01	; 1
    2822:	19 f4       	brne	.+6      	; 0x282a <CheckInput+0x2ae>
    return 0;
}

//
void SetResponse(uint8_t number, uint16_t address, uint16_t length, uint8_t type){
    reactStr[0][number]=address;
    2824:	87 e8       	ldi	r24, 0x87	; 135
    2826:	96 e7       	ldi	r25, 0x76	; 118
    2828:	0f c0       	rjmp	.+30     	; 0x2848 <CheckInput+0x2cc>
            if (data[0] == 'w'){
                SetResponse(0, A_LF, 4, TEASER);
                SetResponse(1, A_HELLO, L_HELLO, TEASER);
                if (whoami == 1) {
                    SetResponse(2, A_ANUBIS, L_ANUBIS, TEASER);
                } else if (whoami == 2) {
    282a:	82 30       	cpi	r24, 0x02	; 2
    282c:	49 f4       	brne	.+18     	; 0x2840 <CheckInput+0x2c4>
    return 0;
}

//
void SetResponse(uint8_t number, uint16_t address, uint16_t length, uint8_t type){
    reactStr[0][number]=address;
    282e:	84 e8       	ldi	r24, 0x84	; 132
    2830:	96 e7       	ldi	r25, 0x76	; 118
    2832:	80 93 21 39 	sts	0x3921, r24	; 0x803921 <reactStr+0x4>
    2836:	90 93 22 39 	sts	0x3922, r25	; 0x803922 <reactStr+0x5>
    reactStr[1][number]=length;
    283a:	83 e0       	ldi	r24, 0x03	; 3
    283c:	90 e0       	ldi	r25, 0x00	; 0
    283e:	1e c0       	rjmp	.+60     	; 0x287c <CheckInput+0x300>
                SetResponse(1, A_HELLO, L_HELLO, TEASER);
                if (whoami == 1) {
                    SetResponse(2, A_ANUBIS, L_ANUBIS, TEASER);
                } else if (whoami == 2) {
                    SetResponse(2, A_BES, L_BES, TEASER);
                } else if (whoami == 3) {
    2840:	83 30       	cpi	r24, 0x03	; 3
    2842:	49 f4       	brne	.+18     	; 0x2856 <CheckInput+0x2da>
    return 0;
}

//
void SetResponse(uint8_t number, uint16_t address, uint16_t length, uint8_t type){
    reactStr[0][number]=address;
    2844:	8e e7       	ldi	r24, 0x7E	; 126
    2846:	96 e7       	ldi	r25, 0x76	; 118
    2848:	80 93 21 39 	sts	0x3921, r24	; 0x803921 <reactStr+0x4>
    284c:	90 93 22 39 	sts	0x3922, r25	; 0x803922 <reactStr+0x5>
    reactStr[1][number]=length;
    2850:	86 e0       	ldi	r24, 0x06	; 6
    2852:	90 e0       	ldi	r25, 0x00	; 0
    2854:	13 c0       	rjmp	.+38     	; 0x287c <CheckInput+0x300>
                    SetResponse(2, A_ANUBIS, L_ANUBIS, TEASER);
                } else if (whoami == 2) {
                    SetResponse(2, A_BES, L_BES, TEASER);
                } else if (whoami == 3) {
                    SetResponse(2, A_KHONSU, L_KHONSU, TEASER);
                } else if (whoami == 4) {
    2856:	84 30       	cpi	r24, 0x04	; 4
    2858:	49 f4       	brne	.+18     	; 0x286c <CheckInput+0x2f0>
    return 0;
}

//
void SetResponse(uint8_t number, uint16_t address, uint16_t length, uint8_t type){
    reactStr[0][number]=address;
    285a:	89 e7       	ldi	r24, 0x79	; 121
    285c:	96 e7       	ldi	r25, 0x76	; 118
    285e:	80 93 21 39 	sts	0x3921, r24	; 0x803921 <reactStr+0x4>
    2862:	90 93 22 39 	sts	0x3922, r25	; 0x803922 <reactStr+0x5>
    reactStr[1][number]=length;
    2866:	85 e0       	ldi	r24, 0x05	; 5
    2868:	90 e0       	ldi	r25, 0x00	; 0
    286a:	08 c0       	rjmp	.+16     	; 0x287c <CheckInput+0x300>
    return 0;
}

//
void SetResponse(uint8_t number, uint16_t address, uint16_t length, uint8_t type){
    reactStr[0][number]=address;
    286c:	82 e0       	ldi	r24, 0x02	; 2
    286e:	96 e7       	ldi	r25, 0x76	; 118
    2870:	80 93 21 39 	sts	0x3921, r24	; 0x803921 <reactStr+0x4>
    2874:	90 93 22 39 	sts	0x3922, r25	; 0x803922 <reactStr+0x5>
    reactStr[1][number]=length;
    2878:	82 e4       	ldi	r24, 0x42	; 66
    287a:	90 e0       	ldi	r25, 0x00	; 0
    287c:	80 93 61 39 	sts	0x3961, r24	; 0x803961 <reactStr+0x44>
    2880:	90 93 62 39 	sts	0x3962, r25	; 0x803962 <reactStr+0x45>
    reactStr[2][number]=type;
    2884:	20 93 a1 39 	sts	0x39A1, r18	; 0x8039a1 <reactStr+0x84>
    2888:	30 93 a2 39 	sts	0x39A2, r19	; 0x8039a2 <reactStr+0x85>
    return 0;
}

//
void SetResponse(uint8_t number, uint16_t address, uint16_t length, uint8_t type){
    reactStr[0][number]=address;
    288c:	8f e5       	ldi	r24, 0x5F	; 95
    288e:	96 e7       	ldi	r25, 0x76	; 118
    2890:	80 93 23 39 	sts	0x3923, r24	; 0x803923 <reactStr+0x6>
    2894:	90 93 24 39 	sts	0x3924, r25	; 0x803924 <reactStr+0x7>
    reactStr[1][number]=length;
    2898:	8a e1       	ldi	r24, 0x1A	; 26
    289a:	90 e0       	ldi	r25, 0x00	; 0
    289c:	80 93 63 39 	sts	0x3963, r24	; 0x803963 <reactStr+0x46>
    28a0:	90 93 64 39 	sts	0x3964, r25	; 0x803964 <reactStr+0x47>
    reactStr[2][number]=type;
    28a4:	81 e0       	ldi	r24, 0x01	; 1
    28a6:	90 e0       	ldi	r25, 0x00	; 0
    28a8:	80 93 a3 39 	sts	0x39A3, r24	; 0x8039a3 <reactStr+0x86>
    28ac:	90 93 a4 39 	sts	0x39A4, r25	; 0x8039a4 <reactStr+0x87>
                    SetResponse(2, A_THOTH, L_THOTH, TEASER);
                } else {
                    SetResponse(2, A_ERROR, L_ERROR, TEASER);
                }
                SetResponse(3, A_PLEASED, L_PLEASED, TEASER);
                responseList = SetStandardResponse(4);
    28b0:	84 e0       	ldi	r24, 0x04	; 4
    28b2:	6e cf       	rjmp	.-292    	; 0x2790 <CheckInput+0x214>
                return 1;
            }

            //Quit text
            if (data[0] == 'q'){
    28b4:	81 37       	cpi	r24, 0x71	; 113
    28b6:	d9 f4       	brne	.+54     	; 0x28ee <CheckInput+0x372>
    return 0;
}

//
void SetResponse(uint8_t number, uint16_t address, uint16_t length, uint8_t type){
    reactStr[0][number]=address;
    28b8:	89 e5       	ldi	r24, 0x59	; 89
    28ba:	9a e7       	ldi	r25, 0x7A	; 122
    28bc:	80 93 1d 39 	sts	0x391D, r24	; 0x80391d <reactStr>
    28c0:	90 93 1e 39 	sts	0x391E, r25	; 0x80391e <reactStr+0x1>
    reactStr[1][number]=length;
    28c4:	84 e0       	ldi	r24, 0x04	; 4
    28c6:	90 e0       	ldi	r25, 0x00	; 0
    28c8:	80 93 5d 39 	sts	0x395D, r24	; 0x80395d <reactStr+0x40>
    28cc:	90 93 5e 39 	sts	0x395E, r25	; 0x80395e <reactStr+0x41>
    reactStr[2][number]=type;
    28d0:	81 e0       	ldi	r24, 0x01	; 1
    28d2:	90 e0       	ldi	r25, 0x00	; 0
    28d4:	80 93 9d 39 	sts	0x399D, r24	; 0x80399d <reactStr+0x80>
    28d8:	90 93 9e 39 	sts	0x399E, r25	; 0x80399e <reactStr+0x81>
    return 0;
}

//
void SetResponse(uint8_t number, uint16_t address, uint16_t length, uint8_t type){
    reactStr[0][number]=address;
    28dc:	20 e0       	ldi	r18, 0x00	; 0
    28de:	3a e7       	ldi	r19, 0x7A	; 122
    28e0:	20 93 1f 39 	sts	0x391F, r18	; 0x80391f <reactStr+0x2>
    28e4:	30 93 20 39 	sts	0x3920, r19	; 0x803920 <reactStr+0x3>
    reactStr[1][number]=length;
    28e8:	25 e5       	ldi	r18, 0x55	; 85
    28ea:	30 e0       	ldi	r19, 0x00	; 0
                responseList = SetStandardResponse(2);
                return 1;
            }

            //Fake cheat = reset badge!
            if (StartsWith(&data[0], "iddqd")){
    28ec:	48 cf       	rjmp	.-368    	; 0x277e <CheckInput+0x202>
    28ee:	66 e7       	ldi	r22, 0x76	; 118
    28f0:	7e eb       	ldi	r23, 0xBE	; 190
    28f2:	c8 01       	movw	r24, r16
    28f4:	65 db       	rcall	.-2358   	; 0x1fc0 <StartsWith>
    28f6:	88 23       	and	r24, r24
    28f8:	f9 f0       	breq	.+62     	; 0x2938 <CheckInput+0x3bc>
    28fa:	1e e6       	ldi	r17, 0x6E	; 110
            
                //Reset game data by wiping the UUID bits
                for (uint8_t x=0; x<4; ++x){
                    WriteStatusBit(110+x, 0);
    28fc:	60 e0       	ldi	r22, 0x00	; 0
    28fe:	81 2f       	mov	r24, r17
    2900:	0e 94 f3 09 	call	0x13e6	; 0x13e6 <WriteStatusBit>
    2904:	1f 5f       	subi	r17, 0xFF	; 255

            //Fake cheat = reset badge!
            if (StartsWith(&data[0], "iddqd")){
            
                //Reset game data by wiping the UUID bits
                for (uint8_t x=0; x<4; ++x){
    2906:	12 37       	cpi	r17, 0x72	; 114
    2908:	c9 f7       	brne	.-14     	; 0x28fc <CheckInput+0x380>
                    WriteStatusBit(110+x, 0);
                }
                SaveGameState();
    290a:	0e 94 6c 09 	call	0x12d8	; 0x12d8 <SaveGameState>

                uint8_t cheat[] = "Cheater! Contact badge team... ";
    290e:	80 e2       	ldi	r24, 0x20	; 32
    2910:	e9 eb       	ldi	r30, 0xB9	; 185
    2912:	fe eb       	ldi	r31, 0xBE	; 190
    2914:	de 01       	movw	r26, r28
    2916:	11 96       	adiw	r26, 0x01	; 1
    2918:	01 90       	ld	r0, Z+
    291a:	0d 92       	st	X+, r0
    291c:	8a 95       	dec	r24
    291e:	e1 f7       	brne	.-8      	; 0x2918 <CheckInput+0x39c>
                SerSpeed(60);
    2920:	8c e3       	ldi	r24, 0x3C	; 60
    2922:	0e 94 8c 08 	call	0x1118	; 0x1118 <SerSpeed>
                while(1){
                    if (serTxDone) SerSend(&cheat[0]);
    2926:	80 91 09 38 	lds	r24, 0x3809	; 0x803809 <serTxDone>
    292a:	88 23       	and	r24, r24
    292c:	e1 f3       	breq	.-8      	; 0x2926 <CheckInput+0x3aa>
    292e:	ce 01       	movw	r24, r28
    2930:	01 96       	adiw	r24, 0x01	; 1
    2932:	0e 94 7b 08 	call	0x10f6	; 0x10f6 <SerSend>
                }
            }
            
            //Cheat reset (Quote from: Donald E. Westlake)
            if (StartsWith(&data[0], "the trouble with real life is, there's no reset button")){
    2936:	f7 cf       	rjmp	.-18     	; 0x2926 <CheckInput+0x3aa>
    2938:	6c e7       	ldi	r22, 0x7C	; 124
    293a:	7e eb       	ldi	r23, 0xBE	; 190
    293c:	c8 01       	movw	r24, r16
    293e:	40 db       	rcall	.-2432   	; 0x1fc0 <StartsWith>
    2940:	88 23       	and	r24, r24
    2942:	61 f1       	breq	.+88     	; 0x299c <CheckInput+0x420>
                
                //Reset cheat data by resetting the EEPROM bytes
                uint8_t empty=0xff;
    2944:	8f ef       	ldi	r24, 0xFF	; 255
    2946:	89 a3       	std	Y+33, r24	; 0x21
    2948:	18 e1       	ldi	r17, 0x18	; 24
                for (uint8_t x=0; x<MAX_CHEATS; ++x){
                    EEWrite(CHEATS+x, &empty, 1);
    294a:	41 e0       	ldi	r20, 0x01	; 1
    294c:	be 01       	movw	r22, r28
    294e:	6f 5d       	subi	r22, 0xDF	; 223
    2950:	7f 4f       	sbci	r23, 0xFF	; 255
    2952:	81 2f       	mov	r24, r17
    2954:	0e 94 53 08 	call	0x10a6	; 0x10a6 <EEWrite>
    2958:	1f 5f       	subi	r17, 0xFF	; 255
            //Cheat reset (Quote from: Donald E. Westlake)
            if (StartsWith(&data[0], "the trouble with real life is, there's no reset button")){
                
                //Reset cheat data by resetting the EEPROM bytes
                uint8_t empty=0xff;
                for (uint8_t x=0; x<MAX_CHEATS; ++x){
    295a:	10 32       	cpi	r17, 0x20	; 32
    295c:	b1 f7       	brne	.-20     	; 0x294a <CheckInput+0x3ce>
    295e:	1e e6       	ldi	r17, 0x6E	; 110
                    EEWrite(CHEATS+x, &empty, 1);
                }
                //Reset game data by wiping the UUID bits
                for (uint8_t x=0; x<4; ++x){
                    WriteStatusBit(110+x, 0);
    2960:	60 e0       	ldi	r22, 0x00	; 0
    2962:	81 2f       	mov	r24, r17
    2964:	0e 94 f3 09 	call	0x13e6	; 0x13e6 <WriteStatusBit>
    2968:	1f 5f       	subi	r17, 0xFF	; 255
                uint8_t empty=0xff;
                for (uint8_t x=0; x<MAX_CHEATS; ++x){
                    EEWrite(CHEATS+x, &empty, 1);
                }
                //Reset game data by wiping the UUID bits
                for (uint8_t x=0; x<4; ++x){
    296a:	12 37       	cpi	r17, 0x72	; 114
    296c:	c9 f7       	brne	.-14     	; 0x2960 <CheckInput+0x3e4>
                    WriteStatusBit(110+x, 0);
                }
                
                SaveGameState();
    296e:	0e 94 6c 09 	call	0x12d8	; 0x12d8 <SaveGameState>

                uint8_t cheat[] = "Reset please! ";
    2972:	8f e0       	ldi	r24, 0x0F	; 15
    2974:	e9 ed       	ldi	r30, 0xD9	; 217
    2976:	fe eb       	ldi	r31, 0xBE	; 190
    2978:	de 01       	movw	r26, r28
    297a:	11 96       	adiw	r26, 0x01	; 1
    297c:	01 90       	ld	r0, Z+
    297e:	0d 92       	st	X+, r0
    2980:	8a 95       	dec	r24
    2982:	e1 f7       	brne	.-8      	; 0x297c <CheckInput+0x400>
                SerSpeed(60);
    2984:	8c e3       	ldi	r24, 0x3C	; 60
    2986:	0e 94 8c 08 	call	0x1118	; 0x1118 <SerSpeed>
                while(1){
                    if (serTxDone) SerSend(&cheat[0]);
    298a:	80 91 09 38 	lds	r24, 0x3809	; 0x803809 <serTxDone>
    298e:	88 23       	and	r24, r24
    2990:	e1 f3       	breq	.-8      	; 0x298a <CheckInput+0x40e>
    2992:	ce 01       	movw	r24, r28
    2994:	01 96       	adiw	r24, 0x01	; 1
    2996:	0e 94 7b 08 	call	0x10f6	; 0x10f6 <SerSend>
                }
            }
            if (StartsWith(&data[0], "cheat")){
    299a:	f7 cf       	rjmp	.-18     	; 0x298a <CheckInput+0x40e>
    299c:	63 eb       	ldi	r22, 0xB3	; 179
    299e:	7e eb       	ldi	r23, 0xBE	; 190
    29a0:	c8 01       	movw	r24, r16
    29a2:	0e db       	rcall	.-2532   	; 0x1fc0 <StartsWith>
    29a4:	88 23       	and	r24, r24
    29a6:	09 f4       	brne	.+2      	; 0x29aa <CheckInput+0x42e>
    29a8:	2c ce       	rjmp	.-936    	; 0x2602 <CheckInput+0x86>
                //int8_t n;
                uint8_t bit, digit[3] = {0,0,0};
    29aa:	19 82       	std	Y+1, r1	; 0x01
    29ac:	1a 82       	std	Y+2, r1	; 0x02
    29ae:	1b 82       	std	Y+3, r1	; 0x03
    29b0:	8d e1       	ldi	r24, 0x1D	; 29
    29b2:	c8 2e       	mov	r12, r24
    29b4:	89 e3       	ldi	r24, 0x39	; 57
    29b6:	d8 2e       	mov	r13, r24
    29b8:	9d e5       	ldi	r25, 0x5D	; 93
    29ba:	e9 2e       	mov	r14, r25
    29bc:	99 e3       	ldi	r25, 0x39	; 57
    29be:	f9 2e       	mov	r15, r25
    29c0:	0d e9       	ldi	r16, 0x9D	; 157
    29c2:	19 e3       	ldi	r17, 0x39	; 57
    29c4:	28 e1       	ldi	r18, 0x18	; 24
    29c6:	32 2e       	mov	r3, r18
    return 0;
}

//
void SetResponse(uint8_t number, uint16_t address, uint16_t length, uint8_t type){
    reactStr[0][number]=address;
    29c8:	3d e9       	ldi	r19, 0x9D	; 157
    29ca:	63 2e       	mov	r6, r19
    29cc:	34 e7       	ldi	r19, 0x74	; 116
    29ce:	73 2e       	mov	r7, r19
    reactStr[1][number]=length;
    29d0:	42 e0       	ldi	r20, 0x02	; 2
    29d2:	84 2e       	mov	r8, r20
    29d4:	91 2c       	mov	r9, r1
    reactStr[2][number]=type;
    29d6:	aa 24       	eor	r10, r10
    29d8:	a3 94       	inc	r10
    29da:	b1 2c       	mov	r11, r1
    return 0;
}

//
void SetResponse(uint8_t number, uint16_t address, uint16_t length, uint8_t type){
    reactStr[0][number]=address;
    29dc:	67 e5       	ldi	r22, 0x57	; 87
    29de:	46 2e       	mov	r4, r22
    29e0:	6a e7       	ldi	r22, 0x7A	; 122
    29e2:	56 2e       	mov	r5, r22
                uint8_t bit, digit[3] = {0,0,0};

                for (uint8_t x=0; x<MAX_CHEATS; ++x){
                    
                    //Set up sending out number
                    EERead(CHEATS+x, &bit, 1);
    29e4:	41 e0       	ldi	r20, 0x01	; 1
    29e6:	be 01       	movw	r22, r28
    29e8:	6f 5d       	subi	r22, 0xDF	; 223
    29ea:	7f 4f       	sbci	r23, 0xFF	; 255
    29ec:	83 2d       	mov	r24, r3
    29ee:	0e 94 43 08 	call	0x1086	; 0x1086 <EERead>
                    bit = 0xff-bit;
    29f2:	89 a1       	ldd	r24, Y+33	; 0x21
    29f4:	80 95       	com	r24
    29f6:	89 a3       	std	Y+33, r24	; 0x21
    return 0;
}

//
void SetResponse(uint8_t number, uint16_t address, uint16_t length, uint8_t type){
    reactStr[0][number]=address;
    29f8:	f6 01       	movw	r30, r12
    29fa:	60 82       	st	Z, r6
    29fc:	71 82       	std	Z+1, r7	; 0x01
    reactStr[1][number]=length;
    29fe:	f7 01       	movw	r30, r14
    2a00:	80 82       	st	Z, r8
    2a02:	91 82       	std	Z+1, r9	; 0x01
    reactStr[2][number]=type;
    2a04:	f8 01       	movw	r30, r16
    2a06:	a0 82       	st	Z, r10
    2a08:	b1 82       	std	Z+1, r11	; 0x01
                    for (n=0; n<3; ++n) {
                        SetResponse(x*4+n, A_DIGITS+digit[n], 1, TEASER);
                    } 
                    */
                    SetResponse(x*4, A_HEXPREFIX, L_HEXPREFIX, TEASER);
                    SetResponse(x*4+1, A_DIGITS+digit[bit>>4], 1, TEASER);               
    2a0a:	98 2f       	mov	r25, r24
    2a0c:	92 95       	swap	r25
    2a0e:	9f 70       	andi	r25, 0x0F	; 15
    2a10:	e1 e0       	ldi	r30, 0x01	; 1
    2a12:	f0 e0       	ldi	r31, 0x00	; 0
    2a14:	ec 0f       	add	r30, r28
    2a16:	fd 1f       	adc	r31, r29
    2a18:	e9 0f       	add	r30, r25
    2a1a:	f1 1d       	adc	r31, r1
    return 0;
}

//
void SetResponse(uint8_t number, uint16_t address, uint16_t length, uint8_t type){
    reactStr[0][number]=address;
    2a1c:	20 81       	ld	r18, Z
    2a1e:	30 e0       	ldi	r19, 0x00	; 0
    2a20:	23 57       	subi	r18, 0x73	; 115
    2a22:	3b 48       	sbci	r19, 0x8B	; 139
    2a24:	f6 01       	movw	r30, r12
    2a26:	22 83       	std	Z+2, r18	; 0x02
    2a28:	33 83       	std	Z+3, r19	; 0x03
    reactStr[1][number]=length;
    2a2a:	f7 01       	movw	r30, r14
    2a2c:	a2 82       	std	Z+2, r10	; 0x02
    2a2e:	b3 82       	std	Z+3, r11	; 0x03
    reactStr[2][number]=type;
    2a30:	f8 01       	movw	r30, r16
    2a32:	a2 82       	std	Z+2, r10	; 0x02
    2a34:	b3 82       	std	Z+3, r11	; 0x03
                        SetResponse(x*4+n, A_DIGITS+digit[n], 1, TEASER);
                    } 
                    */
                    SetResponse(x*4, A_HEXPREFIX, L_HEXPREFIX, TEASER);
                    SetResponse(x*4+1, A_DIGITS+digit[bit>>4], 1, TEASER);               
                    SetResponse(x*4+2, A_DIGITS+digit[bit%16], 1, TEASER);
    2a36:	8f 70       	andi	r24, 0x0F	; 15
    2a38:	e1 e0       	ldi	r30, 0x01	; 1
    2a3a:	f0 e0       	ldi	r31, 0x00	; 0
    2a3c:	ec 0f       	add	r30, r28
    2a3e:	fd 1f       	adc	r31, r29
    2a40:	e8 0f       	add	r30, r24
    2a42:	f1 1d       	adc	r31, r1
    return 0;
}

//
void SetResponse(uint8_t number, uint16_t address, uint16_t length, uint8_t type){
    reactStr[0][number]=address;
    2a44:	80 81       	ld	r24, Z
    2a46:	90 e0       	ldi	r25, 0x00	; 0
    2a48:	83 57       	subi	r24, 0x73	; 115
    2a4a:	9b 48       	sbci	r25, 0x8B	; 139
    2a4c:	f6 01       	movw	r30, r12
    2a4e:	84 83       	std	Z+4, r24	; 0x04
    2a50:	95 83       	std	Z+5, r25	; 0x05
    reactStr[1][number]=length;
    2a52:	f7 01       	movw	r30, r14
    2a54:	a4 82       	std	Z+4, r10	; 0x04
    2a56:	b5 82       	std	Z+5, r11	; 0x05
    reactStr[2][number]=type;
    2a58:	f8 01       	movw	r30, r16
    2a5a:	a4 82       	std	Z+4, r10	; 0x04
    2a5c:	b5 82       	std	Z+5, r11	; 0x05
    return 0;
}

//
void SetResponse(uint8_t number, uint16_t address, uint16_t length, uint8_t type){
    reactStr[0][number]=address;
    2a5e:	f6 01       	movw	r30, r12
    2a60:	46 82       	std	Z+6, r4	; 0x06
    2a62:	57 82       	std	Z+7, r5	; 0x07
    reactStr[1][number]=length;
    2a64:	f7 01       	movw	r30, r14
    2a66:	86 82       	std	Z+6, r8	; 0x06
    2a68:	97 82       	std	Z+7, r9	; 0x07
    reactStr[2][number]=type;
    2a6a:	f8 01       	movw	r30, r16
    2a6c:	a6 82       	std	Z+6, r10	; 0x06
    2a6e:	b7 82       	std	Z+7, r11	; 0x07
    2a70:	33 94       	inc	r3
    2a72:	f8 e0       	ldi	r31, 0x08	; 8
    2a74:	cf 0e       	add	r12, r31
    2a76:	d1 1c       	adc	r13, r1
    2a78:	88 e0       	ldi	r24, 0x08	; 8
    2a7a:	e8 0e       	add	r14, r24
    2a7c:	f1 1c       	adc	r15, r1
    2a7e:	08 5f       	subi	r16, 0xF8	; 248
    2a80:	1f 4f       	sbci	r17, 0xFF	; 255
            }
            if (StartsWith(&data[0], "cheat")){
                //int8_t n;
                uint8_t bit, digit[3] = {0,0,0};

                for (uint8_t x=0; x<MAX_CHEATS; ++x){
    2a82:	e0 e2       	ldi	r30, 0x20	; 32
    2a84:	3e 12       	cpse	r3, r30
    2a86:	ae cf       	rjmp	.-164    	; 0x29e4 <CheckInput+0x468>
    return 0;
}

//
void SetResponse(uint8_t number, uint16_t address, uint16_t length, uint8_t type){
    reactStr[0][number]=address;
    2a88:	89 e5       	ldi	r24, 0x59	; 89
    2a8a:	9a e7       	ldi	r25, 0x7A	; 122
    2a8c:	80 93 5b 39 	sts	0x395B, r24	; 0x80395b <reactStr+0x3e>
    2a90:	90 93 5c 39 	sts	0x395C, r25	; 0x80395c <reactStr+0x3f>
    reactStr[1][number]=length;
    2a94:	84 e0       	ldi	r24, 0x04	; 4
    2a96:	90 e0       	ldi	r25, 0x00	; 0
    2a98:	80 93 9b 39 	sts	0x399B, r24	; 0x80399b <reactStr+0x7e>
    2a9c:	90 93 9c 39 	sts	0x399C, r25	; 0x80399c <reactStr+0x7f>
    reactStr[2][number]=type;
    2aa0:	81 e0       	ldi	r24, 0x01	; 1
    2aa2:	90 e0       	ldi	r25, 0x00	; 0
    2aa4:	80 93 db 39 	sts	0x39DB, r24	; 0x8039db <reactStr+0xbe>
    2aa8:	90 93 dc 39 	sts	0x39DC, r25	; 0x8039dc <reactStr+0xbf>
                    SetResponse(x*4+1, A_DIGITS+digit[bit>>4], 1, TEASER);               
                    SetResponse(x*4+2, A_DIGITS+digit[bit%16], 1, TEASER);
                    SetResponse(x*4+3, A_COMMA, L_COMMA, TEASER);
                }
                SetResponse((4*MAX_CHEATS)-1, A_LF, 4, TEASER);
                responseList = 32;
    2aac:	30 92 1c 39 	sts	0x391C, r3	; 0x80391c <responseList>
        //Data received, but not any of the commands above
        return 0;
    }

    //Serial input not available yet
    return 1;
    2ab0:	ff 24       	eor	r15, r15
    2ab2:	f3 94       	inc	r15
}
    2ab4:	8f 2d       	mov	r24, r15
    2ab6:	a1 96       	adiw	r28, 0x21	; 33
    2ab8:	cd bf       	out	0x3d, r28	; 61
    2aba:	de bf       	out	0x3e, r29	; 62
    2abc:	df 91       	pop	r29
    2abe:	cf 91       	pop	r28
    2ac0:	1f 91       	pop	r17
    2ac2:	0f 91       	pop	r16
    2ac4:	ff 90       	pop	r15
    2ac6:	ef 90       	pop	r14
    2ac8:	df 90       	pop	r13
    2aca:	cf 90       	pop	r12
    2acc:	bf 90       	pop	r11
    2ace:	af 90       	pop	r10
    2ad0:	9f 90       	pop	r9
    2ad2:	8f 90       	pop	r8
    2ad4:	7f 90       	pop	r7
    2ad6:	6f 90       	pop	r6
    2ad8:	5f 90       	pop	r5
    2ada:	4f 90       	pop	r4
    2adc:	3f 90       	pop	r3
    2ade:	08 95       	ret

00002ae0 <ProcessInput>:

//The game logic!
uint8_t ProcessInput(uint8_t *data){
    2ae0:	5f 92       	push	r5
    2ae2:	6f 92       	push	r6
    2ae4:	7f 92       	push	r7
    2ae6:	8f 92       	push	r8
    2ae8:	9f 92       	push	r9
    2aea:	af 92       	push	r10
    2aec:	bf 92       	push	r11
    2aee:	cf 92       	push	r12
    2af0:	df 92       	push	r13
    2af2:	ef 92       	push	r14
    2af4:	ff 92       	push	r15
    2af6:	0f 93       	push	r16
    2af8:	1f 93       	push	r17
    2afa:	cf 93       	push	r28
    2afc:	df 93       	push	r29
    2afe:	cd b7       	in	r28, 0x3d	; 61
    2b00:	de b7       	in	r29, 0x3e	; 62
    2b02:	28 97       	sbiw	r28, 0x08	; 8
    2b04:	cd bf       	out	0x3d, r28	; 61
    2b06:	de bf       	out	0x3e, r29	; 62
    2b08:	8c 01       	movw	r16, r24
    static object_model_t actObj1, actObj2;
    uint8_t elements = 1;

    CleanInput(&data[0]);
    2b0a:	60 dc       	rcall	.-1856   	; 0x23cc <CleanInput>
    uint8_t inputLen = CleanInput(&data[0]);
    2b0c:	c8 01       	movw	r24, r16
    2b0e:	5e dc       	rcall	.-1860   	; 0x23cc <CleanInput>
    2b10:	f8 2e       	mov	r15, r24

    if (inputLen) {
    2b12:	88 23       	and	r24, r24
    2b14:	09 f4       	brne	.+2      	; 0x2b18 <ProcessInput+0x38>
    2b16:	fc c7       	rjmp	.+4088   	; 0x3b10 <ProcessInput+0x1030>

        //eXit to previous location
        if (data[0] == 'x'){
    2b18:	d8 01       	movw	r26, r16
    2b1a:	8c 91       	ld	r24, X
    2b1c:	88 37       	cpi	r24, 0x78	; 120
    2b1e:	09 f0       	breq	.+2      	; 0x2b22 <ProcessInput+0x42>
    2b20:	45 c0       	rjmp	.+138    	; 0x2bac <ProcessInput+0xcc>

            //Standing in the Lobby?
            if ((route[currDepth] == 0)||(currDepth == 0)){
    2b22:	80 91 2e 38 	lds	r24, 0x382E	; 0x80382e <currDepth>
    2b26:	e8 2f       	mov	r30, r24
    2b28:	f0 e0       	ldi	r31, 0x00	; 0
    2b2a:	ee 0f       	add	r30, r30
    2b2c:	ff 1f       	adc	r31, r31
    2b2e:	e3 52       	subi	r30, 0x23	; 35
    2b30:	f6 4c       	sbci	r31, 0xC6	; 198
    2b32:	20 81       	ld	r18, Z
    2b34:	31 81       	ldd	r19, Z+1	; 0x01
    2b36:	23 2b       	or	r18, r19
    2b38:	11 f0       	breq	.+4      	; 0x2b3e <ProcessInput+0x5e>
    2b3a:	81 11       	cpse	r24, r1
    2b3c:	03 c0       	rjmp	.+6      	; 0x2b44 <ProcessInput+0x64>
    return 0;
}

//
void SetResponse(uint8_t number, uint16_t address, uint16_t length, uint8_t type){
    reactStr[0][number]=address;
    2b3e:	84 e4       	ldi	r24, 0x44	; 68
    2b40:	96 e7       	ldi	r25, 0x76	; 118
    2b42:	a1 c5       	rjmp	.+2882   	; 0x3686 <ProcessInput+0xba6>
            //Standing in the Lobby?
            if ((route[currDepth] == 0)||(currDepth == 0)){
                SetResponse(elements++, A_NOTPOSSIBLE, L_NOTPOSSIBLE, TEASER);
            
            //Is there a way to go back?
            } else if (CheckState(currObj.byteField[OPEN_ACL])){
    2b44:	80 91 23 3a 	lds	r24, 0x3A23	; 0x803a23 <currObj+0x6>
    2b48:	0e 94 17 0a 	call	0x142e	; 0x142e <CheckState>
    2b4c:	88 23       	and	r24, r24
    2b4e:	b9 f0       	breq	.+46     	; 0x2b7e <ProcessInput+0x9e>
                --currDepth;
    2b50:	e0 91 2e 38 	lds	r30, 0x382E	; 0x80382e <currDepth>
    2b54:	e1 50       	subi	r30, 0x01	; 1
    2b56:	e0 93 2e 38 	sts	0x382E, r30	; 0x80382e <currDepth>
                PopulateObject(route[currDepth], &currObj);
    2b5a:	f0 e0       	ldi	r31, 0x00	; 0
    2b5c:	ee 0f       	add	r30, r30
    2b5e:	ff 1f       	adc	r31, r31
    2b60:	e3 52       	subi	r30, 0x23	; 35
    2b62:	f6 4c       	sbci	r31, 0xC6	; 198
    2b64:	6d e1       	ldi	r22, 0x1D	; 29
    2b66:	7a e3       	ldi	r23, 0x3A	; 58
    2b68:	80 81       	ld	r24, Z
    2b6a:	91 81       	ldd	r25, Z+1	; 0x01
    2b6c:	fc da       	rcall	.-2568   	; 0x2166 <PopulateObject>
                effect = currObj.byteField[EFFECTS];
    2b6e:	80 91 21 3a 	lds	r24, 0x3A21	; 0x803a21 <currObj+0x4>
    2b72:	90 e0       	ldi	r25, 0x00	; 0
    2b74:	80 93 3c 38 	sts	0x383C, r24	; 0x80383c <effect>
    2b78:	90 93 3d 38 	sts	0x383D, r25	; 0x80383d <effect+0x1>
    2b7c:	31 c2       	rjmp	.+1122   	; 0x2fe0 <ProcessInput+0x500>
            
            //No way out, print denied message of location
            } else {
                SetResponse(elements++, currObj.addrStr[OPEN_ACL_MSG], currObj.lenStr[OPEN_ACL_MSG], GAME);
    2b7e:	80 91 3f 3a 	lds	r24, 0x3A3F	; 0x803a3f <currObj+0x22>
    2b82:	90 91 40 3a 	lds	r25, 0x3A40	; 0x803a40 <currObj+0x23>
    return 0;
}

//
void SetResponse(uint8_t number, uint16_t address, uint16_t length, uint8_t type){
    reactStr[0][number]=address;
    2b86:	20 91 31 3a 	lds	r18, 0x3A31	; 0x803a31 <currObj+0x14>
    2b8a:	30 91 32 3a 	lds	r19, 0x3A32	; 0x803a32 <currObj+0x15>
    2b8e:	20 93 1f 39 	sts	0x391F, r18	; 0x80391f <reactStr+0x2>
    2b92:	30 93 20 39 	sts	0x3920, r19	; 0x803920 <reactStr+0x3>
    reactStr[1][number]=length;
    2b96:	80 93 5f 39 	sts	0x395F, r24	; 0x80395f <reactStr+0x42>
    2b9a:	90 93 60 39 	sts	0x3960, r25	; 0x803960 <reactStr+0x43>
    reactStr[2][number]=type;
    2b9e:	10 92 9f 39 	sts	0x399F, r1	; 0x80399f <reactStr+0x82>
    2ba2:	10 92 a0 39 	sts	0x39A0, r1	; 0x8039a0 <reactStr+0x83>
                effect = currObj.byteField[EFFECTS];
            
            //No way out, print denied message of location
            } else {
                SetResponse(elements++, currObj.addrStr[OPEN_ACL_MSG], currObj.lenStr[OPEN_ACL_MSG], GAME);
                effect = currObj.effect[0];               
    2ba6:	80 91 45 3a 	lds	r24, 0x3A45	; 0x803a45 <currObj+0x28>
    2baa:	3a c6       	rjmp	.+3188   	; 0x3820 <ProcessInput+0xd40>
            }   
        
        //Enter locations or Open objects    
        } else if ((data[0] == 'e')||(data[0] == 'o')) {
    2bac:	85 36       	cpi	r24, 0x65	; 101
    2bae:	19 f0       	breq	.+6      	; 0x2bb6 <ProcessInput+0xd6>
    2bb0:	8f 36       	cpi	r24, 0x6F	; 111
    2bb2:	09 f0       	breq	.+2      	; 0x2bb6 <ProcessInput+0xd6>
    2bb4:	df c0       	rjmp	.+446    	; 0x2d74 <ProcessInput+0x294>
                
            //Not possible, too many/little characters
            if (inputLen != 2){
    2bb6:	b2 e0       	ldi	r27, 0x02	; 2
    2bb8:	fb 12       	cpse	r15, r27
    2bba:	c1 cf       	rjmp	.-126    	; 0x2b3e <ProcessInput+0x5e>
                SetResponse(elements++, A_NOTPOSSIBLE, L_NOTPOSSIBLE, TEASER);
            } else {
                uint8_t canDo = 0;
                route[currDepth+1] = FindChild(route[currDepth], data[1], 0);
    2bbc:	e0 90 2e 38 	lds	r14, 0x382E	; 0x80382e <currDepth>
    2bc0:	f1 2c       	mov	r15, r1
    2bc2:	f7 01       	movw	r30, r14
    2bc4:	ee 0f       	add	r30, r30
    2bc6:	ff 1f       	adc	r31, r31
    2bc8:	e3 52       	subi	r30, 0x23	; 35
    2bca:	f6 4c       	sbci	r31, 0xC6	; 198
    2bcc:	40 e0       	ldi	r20, 0x00	; 0
    2bce:	50 e0       	ldi	r21, 0x00	; 0
    2bd0:	d8 01       	movw	r26, r16
    2bd2:	11 96       	adiw	r26, 0x01	; 1
    2bd4:	6c 91       	ld	r22, X
    2bd6:	80 81       	ld	r24, Z
    2bd8:	91 81       	ldd	r25, Z+1	; 0x01
    2bda:	90 db       	rcall	.-2272   	; 0x22fc <FindChild>
    2bdc:	f7 01       	movw	r30, r14
    2bde:	ee 0f       	add	r30, r30
    2be0:	ff 1f       	adc	r31, r31
    2be2:	e1 52       	subi	r30, 0x21	; 33
    2be4:	f6 4c       	sbci	r31, 0xC6	; 198
    2be6:	80 83       	st	Z, r24
    2be8:	91 83       	std	Z+1, r25	; 0x01
                    
                //Child found?
                if (route[currDepth+1]) {
    2bea:	90 91 2e 38 	lds	r25, 0x382E	; 0x80382e <currDepth>
    2bee:	29 2f       	mov	r18, r25
    2bf0:	30 e0       	ldi	r19, 0x00	; 0
    2bf2:	f9 01       	movw	r30, r18
    2bf4:	ee 0f       	add	r30, r30
    2bf6:	ff 1f       	adc	r31, r31
    2bf8:	e1 52       	subi	r30, 0x21	; 33
    2bfa:	f6 4c       	sbci	r31, 0xC6	; 198
    2bfc:	40 81       	ld	r20, Z
    2bfe:	51 81       	ldd	r21, Z+1	; 0x01
    2c00:	41 15       	cp	r20, r1
    2c02:	51 05       	cpc	r21, r1
    2c04:	21 f0       	breq	.+8      	; 0x2c0e <ProcessInput+0x12e>
                    PopulateObject(route[currDepth+1], &actObj1);
    2c06:	6c ed       	ldi	r22, 0xDC	; 220
    2c08:	78 e3       	ldi	r23, 0x38	; 56
    2c0a:	ca 01       	movw	r24, r20
    2c0c:	1c c0       	rjmp	.+56     	; 0x2c46 <ProcessInput+0x166>
                    canDo = 1;
                //No child, maybe a step back, letter ok?
                } else if (currDepth) {
    2c0e:	99 23       	and	r25, r25
    2c10:	09 f4       	brne	.+2      	; 0x2c14 <ProcessInput+0x134>
    2c12:	95 c7       	rjmp	.+3882   	; 0x3b3e <ProcessInput+0x105e>
                    if (CheckLetter(route[currDepth-1], data[1])) {
    2c14:	22 0f       	add	r18, r18
    2c16:	33 1f       	adc	r19, r19
    2c18:	f9 01       	movw	r30, r18
    2c1a:	e5 52       	subi	r30, 0x25	; 37
    2c1c:	f6 4c       	sbci	r31, 0xC6	; 198
    2c1e:	d8 01       	movw	r26, r16
    2c20:	11 96       	adiw	r26, 0x01	; 1
    2c22:	6c 91       	ld	r22, X
    2c24:	80 81       	ld	r24, Z
    2c26:	91 81       	ldd	r25, Z+1	; 0x01
    2c28:	15 db       	rcall	.-2518   	; 0x2254 <CheckLetter>
    2c2a:	88 23       	and	r24, r24
    2c2c:	09 f4       	brne	.+2      	; 0x2c30 <ProcessInput+0x150>
    2c2e:	87 c7       	rjmp	.+3854   	; 0x3b3e <ProcessInput+0x105e>
                        PopulateObject(route[currDepth-1], &actObj1);
    2c30:	e0 91 2e 38 	lds	r30, 0x382E	; 0x80382e <currDepth>
    2c34:	f0 e0       	ldi	r31, 0x00	; 0
    2c36:	ee 0f       	add	r30, r30
    2c38:	ff 1f       	adc	r31, r31
    2c3a:	e5 52       	subi	r30, 0x25	; 37
    2c3c:	f6 4c       	sbci	r31, 0xC6	; 198
    2c3e:	6c ed       	ldi	r22, 0xDC	; 220
    2c40:	78 e3       	ldi	r23, 0x38	; 56
    2c42:	80 81       	ld	r24, Z
    2c44:	91 81       	ldd	r25, Z+1	; 0x01
    2c46:	8f da       	rcall	.-2786   	; 0x2166 <PopulateObject>
                    }
                }

                //The candidate is found! Let's check if the action is legit
                if (canDo) {
                    if ((data[0] == 'e') && ((actObj1.byteField[ACTION_MASK]&ENTER)==0)) {
    2c48:	f8 01       	movw	r30, r16
    2c4a:	80 81       	ld	r24, Z
    2c4c:	85 36       	cpi	r24, 0x65	; 101
    2c4e:	c9 f4       	brne	.+50     	; 0x2c82 <ProcessInput+0x1a2>
    2c50:	80 91 e4 38 	lds	r24, 0x38E4	; 0x8038e4 <actObj1.3996+0x8>
    2c54:	80 fd       	sbrc	r24, 0
    2c56:	1e c0       	rjmp	.+60     	; 0x2c94 <ProcessInput+0x1b4>
    return 0;
}

//
void SetResponse(uint8_t number, uint16_t address, uint16_t length, uint8_t type){
    reactStr[0][number]=address;
    2c58:	8d e9       	ldi	r24, 0x9D	; 157
    2c5a:	99 e7       	ldi	r25, 0x79	; 121
    2c5c:	80 93 1f 39 	sts	0x391F, r24	; 0x80391f <reactStr+0x2>
    2c60:	90 93 20 39 	sts	0x3920, r25	; 0x803920 <reactStr+0x3>
    reactStr[1][number]=length;
    2c64:	8e e1       	ldi	r24, 0x1E	; 30
    2c66:	90 e0       	ldi	r25, 0x00	; 0
    2c68:	80 93 5f 39 	sts	0x395F, r24	; 0x80395f <reactStr+0x42>
    2c6c:	90 93 60 39 	sts	0x3960, r25	; 0x803960 <reactStr+0x43>
    reactStr[2][number]=type;
    2c70:	81 e0       	ldi	r24, 0x01	; 1
    2c72:	90 e0       	ldi	r25, 0x00	; 0
    2c74:	80 93 9f 39 	sts	0x399F, r24	; 0x80399f <reactStr+0x82>
    2c78:	90 93 a0 39 	sts	0x39A0, r25	; 0x8039a0 <reactStr+0x83>
                }

                //The candidate is found! Let's check if the action is legit
                if (canDo) {
                    if ((data[0] == 'e') && ((actObj1.byteField[ACTION_MASK]&ENTER)==0)) {
                        SetResponse(elements++, A_CANTENTER, L_CANTENTER, TEASER);
    2c7c:	72 e0       	ldi	r23, 0x02	; 2
    2c7e:	77 2e       	mov	r7, r23
    2c80:	2c c7       	rjmp	.+3672   	; 0x3ada <ProcessInput+0xffa>
                    } else if ((data[0] == 'o') && ((actObj1.byteField[ACTION_MASK]&OPEN)==0)) {
    2c82:	8f 36       	cpi	r24, 0x6F	; 111
    2c84:	39 f4       	brne	.+14     	; 0x2c94 <ProcessInput+0x1b4>
    2c86:	80 91 e4 38 	lds	r24, 0x38E4	; 0x8038e4 <actObj1.3996+0x8>
    2c8a:	81 fd       	sbrc	r24, 1
    2c8c:	03 c0       	rjmp	.+6      	; 0x2c94 <ProcessInput+0x1b4>
    return 0;
}

//
void SetResponse(uint8_t number, uint16_t address, uint16_t length, uint8_t type){
    reactStr[0][number]=address;
    2c8e:	82 e8       	ldi	r24, 0x82	; 130
    2c90:	99 e7       	ldi	r25, 0x79	; 121
    2c92:	f9 c4       	rjmp	.+2546   	; 0x3686 <ProcessInput+0xba6>
                        SetResponse(elements++, A_CANTENTER, L_CANTENTER, TEASER);
                    } else if ((data[0] == 'o') && ((actObj1.byteField[ACTION_MASK]&OPEN)==0)) {
                        SetResponse(elements++, A_CANTOPEN, L_CANTOPEN, TEASER);
                    
                    //Action legit, permission granted?
                    } else if (CheckState(actObj1.byteField[OPEN_ACL])) {
    2c94:	80 91 e2 38 	lds	r24, 0x38E2	; 0x8038e2 <actObj1.3996+0x6>
    2c98:	0e 94 17 0a 	call	0x142e	; 0x142e <CheckState>
    2c9c:	e0 91 2e 38 	lds	r30, 0x382E	; 0x80382e <currDepth>
    2ca0:	88 23       	and	r24, r24
    2ca2:	09 f4       	brne	.+2      	; 0x2ca6 <ProcessInput+0x1c6>
    2ca4:	49 c0       	rjmp	.+146    	; 0x2d38 <ProcessInput+0x258>
                            
                        //Yes! Check if we must move forward or backwards.
                        if (route[currDepth+1]) ++currDepth; else --currDepth;
    2ca6:	ae 2f       	mov	r26, r30
    2ca8:	b0 e0       	ldi	r27, 0x00	; 0
    2caa:	aa 0f       	add	r26, r26
    2cac:	bb 1f       	adc	r27, r27
    2cae:	a1 52       	subi	r26, 0x21	; 33
    2cb0:	b6 4c       	sbci	r27, 0xC6	; 198
    2cb2:	8d 91       	ld	r24, X+
    2cb4:	9c 91       	ld	r25, X
    2cb6:	89 2b       	or	r24, r25
    2cb8:	11 f0       	breq	.+4      	; 0x2cbe <ProcessInput+0x1de>
    2cba:	ef 5f       	subi	r30, 0xFF	; 255
    2cbc:	01 c0       	rjmp	.+2      	; 0x2cc0 <ProcessInput+0x1e0>
    2cbe:	e1 50       	subi	r30, 0x01	; 1
    2cc0:	e0 93 2e 38 	sts	0x382E, r30	; 0x80382e <currDepth>
                        PopulateObject(route[currDepth], &currObj);
    2cc4:	e0 91 2e 38 	lds	r30, 0x382E	; 0x80382e <currDepth>
    2cc8:	f0 e0       	ldi	r31, 0x00	; 0
    2cca:	ee 0f       	add	r30, r30
    2ccc:	ff 1f       	adc	r31, r31
    2cce:	e3 52       	subi	r30, 0x23	; 35
    2cd0:	f6 4c       	sbci	r31, 0xC6	; 198
    2cd2:	6d e1       	ldi	r22, 0x1D	; 29
    2cd4:	7a e3       	ldi	r23, 0x3A	; 58
    2cd6:	80 81       	ld	r24, Z
    2cd8:	91 81       	ldd	r25, Z+1	; 0x01
    2cda:	45 da       	rcall	.-2934   	; 0x2166 <PopulateObject>
                        SetResponse(elements++, currObj.addrStr[DESC], currObj.lenStr[DESC],GAME);
    2cdc:	80 91 39 3a 	lds	r24, 0x3A39	; 0x803a39 <currObj+0x1c>
    2ce0:	90 91 3a 3a 	lds	r25, 0x3A3A	; 0x803a3a <currObj+0x1d>
    return 0;
}

//
void SetResponse(uint8_t number, uint16_t address, uint16_t length, uint8_t type){
    reactStr[0][number]=address;
    2ce4:	20 91 2b 3a 	lds	r18, 0x3A2B	; 0x803a2b <currObj+0xe>
    2ce8:	30 91 2c 3a 	lds	r19, 0x3A2C	; 0x803a2c <currObj+0xf>
    2cec:	20 93 1f 39 	sts	0x391F, r18	; 0x80391f <reactStr+0x2>
    2cf0:	30 93 20 39 	sts	0x3920, r19	; 0x803920 <reactStr+0x3>
    reactStr[1][number]=length;
    2cf4:	80 93 5f 39 	sts	0x395F, r24	; 0x80395f <reactStr+0x42>
    2cf8:	90 93 60 39 	sts	0x3960, r25	; 0x803960 <reactStr+0x43>
    reactStr[2][number]=type;
    2cfc:	10 92 9f 39 	sts	0x399F, r1	; 0x80399f <reactStr+0x82>
    2d00:	10 92 a0 39 	sts	0x39A0, r1	; 0x8039a0 <reactStr+0x83>
    return 0;
}

//
void SetResponse(uint8_t number, uint16_t address, uint16_t length, uint8_t type){
    reactStr[0][number]=address;
    2d04:	89 e5       	ldi	r24, 0x59	; 89
    2d06:	9a e7       	ldi	r25, 0x7A	; 122
    2d08:	80 93 21 39 	sts	0x3921, r24	; 0x803921 <reactStr+0x4>
    2d0c:	90 93 22 39 	sts	0x3922, r25	; 0x803922 <reactStr+0x5>
    reactStr[1][number]=length;
    2d10:	82 e0       	ldi	r24, 0x02	; 2
    2d12:	90 e0       	ldi	r25, 0x00	; 0
    2d14:	80 93 61 39 	sts	0x3961, r24	; 0x803961 <reactStr+0x44>
    2d18:	90 93 62 39 	sts	0x3962, r25	; 0x803962 <reactStr+0x45>
    reactStr[2][number]=type;
    2d1c:	81 e0       	ldi	r24, 0x01	; 1
    2d1e:	90 e0       	ldi	r25, 0x00	; 0
    2d20:	80 93 a1 39 	sts	0x39A1, r24	; 0x8039a1 <reactStr+0x84>
    2d24:	90 93 a2 39 	sts	0x39A2, r25	; 0x8039a2 <reactStr+0x85>
                        //Yes! Check if we must move forward or backwards.
                        if (route[currDepth+1]) ++currDepth; else --currDepth;
                        PopulateObject(route[currDepth], &currObj);
                        SetResponse(elements++, currObj.addrStr[DESC], currObj.lenStr[DESC],GAME);
                        SetResponse(elements++, A_LF, 2, TEASER);
                        effect = currObj.byteField[EFFECTS];
    2d28:	80 91 21 3a 	lds	r24, 0x3A21	; 0x803a21 <currObj+0x4>
    2d2c:	90 e0       	ldi	r25, 0x00	; 0
    2d2e:	80 93 3c 38 	sts	0x383C, r24	; 0x80383c <effect>
    2d32:	90 93 3d 38 	sts	0x383D, r25	; 0x80383d <effect+0x1>
    2d36:	8d c4       	rjmp	.+2330   	; 0x3652 <ProcessInput+0xb72>
                                                  
                    //Not granted!
                    } else {
                        route[currDepth+1] = 0;
    2d38:	f0 e0       	ldi	r31, 0x00	; 0
    2d3a:	ee 0f       	add	r30, r30
    2d3c:	ff 1f       	adc	r31, r31
    2d3e:	e1 52       	subi	r30, 0x21	; 33
    2d40:	f6 4c       	sbci	r31, 0xC6	; 198
    2d42:	10 82       	st	Z, r1
    2d44:	11 82       	std	Z+1, r1	; 0x01
                        SetResponse(elements++, actObj1.addrStr[OPEN_ACL_MSG], actObj1.lenStr[OPEN_ACL_MSG], GAME);
    2d46:	80 91 fe 38 	lds	r24, 0x38FE	; 0x8038fe <actObj1.3996+0x22>
    2d4a:	90 91 ff 38 	lds	r25, 0x38FF	; 0x8038ff <actObj1.3996+0x23>
    return 0;
}

//
void SetResponse(uint8_t number, uint16_t address, uint16_t length, uint8_t type){
    reactStr[0][number]=address;
    2d4e:	20 91 f0 38 	lds	r18, 0x38F0	; 0x8038f0 <actObj1.3996+0x14>
    2d52:	30 91 f1 38 	lds	r19, 0x38F1	; 0x8038f1 <actObj1.3996+0x15>
    2d56:	20 93 1f 39 	sts	0x391F, r18	; 0x80391f <reactStr+0x2>
    2d5a:	30 93 20 39 	sts	0x3920, r19	; 0x803920 <reactStr+0x3>
    reactStr[1][number]=length;
    2d5e:	80 93 5f 39 	sts	0x395F, r24	; 0x80395f <reactStr+0x42>
    2d62:	90 93 60 39 	sts	0x3960, r25	; 0x803960 <reactStr+0x43>
    reactStr[2][number]=type;
    2d66:	10 92 9f 39 	sts	0x399F, r1	; 0x80399f <reactStr+0x82>
    2d6a:	10 92 a0 39 	sts	0x39A0, r1	; 0x8039a0 <reactStr+0x83>
                                                  
                    //Not granted!
                    } else {
                        route[currDepth+1] = 0;
                        SetResponse(elements++, actObj1.addrStr[OPEN_ACL_MSG], actObj1.lenStr[OPEN_ACL_MSG], GAME);
                        effect = actObj1.effect[0];              
    2d6e:	80 91 04 39 	lds	r24, 0x3904	; 0x803904 <actObj1.3996+0x28>
    2d72:	56 c5       	rjmp	.+2732   	; 0x3820 <ProcessInput+0xd40>
                    SetResponse(elements++, A_DONTSEE, L_DONTSEE, TEASER);                
                }
            }

        //Look around or at objects
        } else if (data[0] == 'l') {
    2d74:	8c 36       	cpi	r24, 0x6C	; 108
    2d76:	09 f0       	breq	.+2      	; 0x2d7a <ProcessInput+0x29a>
    2d78:	57 c1       	rjmp	.+686    	; 0x3028 <ProcessInput+0x548>
    2d7a:	e0 91 2e 38 	lds	r30, 0x382E	; 0x80382e <currDepth>
            if (inputLen == 1) {
    2d7e:	b1 e0       	ldi	r27, 0x01	; 1
    2d80:	fb 12       	cpse	r15, r27
    2d82:	f6 c0       	rjmp	.+492    	; 0x2f70 <ProcessInput+0x490>

                //Show info about this area first
                SetResponse(elements++, currObj.addrStr[DESC], currObj.lenStr[DESC],GAME);
    2d84:	80 91 39 3a 	lds	r24, 0x3A39	; 0x803a39 <currObj+0x1c>
    2d88:	90 91 3a 3a 	lds	r25, 0x3A3A	; 0x803a3a <currObj+0x1d>
    return 0;
}

//
void SetResponse(uint8_t number, uint16_t address, uint16_t length, uint8_t type){
    reactStr[0][number]=address;
    2d8c:	20 91 2b 3a 	lds	r18, 0x3A2B	; 0x803a2b <currObj+0xe>
    2d90:	30 91 2c 3a 	lds	r19, 0x3A2C	; 0x803a2c <currObj+0xf>
    2d94:	20 93 1f 39 	sts	0x391F, r18	; 0x80391f <reactStr+0x2>
    2d98:	30 93 20 39 	sts	0x3920, r19	; 0x803920 <reactStr+0x3>
    reactStr[1][number]=length;
    2d9c:	80 93 5f 39 	sts	0x395F, r24	; 0x80395f <reactStr+0x42>
    2da0:	90 93 60 39 	sts	0x3960, r25	; 0x803960 <reactStr+0x43>
    reactStr[2][number]=type;
    2da4:	10 92 9f 39 	sts	0x399F, r1	; 0x80399f <reactStr+0x82>
    2da8:	10 92 a0 39 	sts	0x39A0, r1	; 0x8039a0 <reactStr+0x83>
    return 0;
}

//
void SetResponse(uint8_t number, uint16_t address, uint16_t length, uint8_t type){
    reactStr[0][number]=address;
    2dac:	89 e5       	ldi	r24, 0x59	; 89
    2dae:	9a e7       	ldi	r25, 0x7A	; 122
    2db0:	80 93 21 39 	sts	0x3921, r24	; 0x803921 <reactStr+0x4>
    2db4:	90 93 22 39 	sts	0x3922, r25	; 0x803922 <reactStr+0x5>
    reactStr[1][number]=length;
    2db8:	82 e0       	ldi	r24, 0x02	; 2
    2dba:	90 e0       	ldi	r25, 0x00	; 0
    2dbc:	80 93 61 39 	sts	0x3961, r24	; 0x803961 <reactStr+0x44>
    2dc0:	90 93 62 39 	sts	0x3962, r25	; 0x803962 <reactStr+0x45>
    reactStr[2][number]=type;
    2dc4:	81 e0       	ldi	r24, 0x01	; 1
    2dc6:	90 e0       	ldi	r25, 0x00	; 0
    2dc8:	80 93 a1 39 	sts	0x39A1, r24	; 0x8039a1 <reactStr+0x84>
    2dcc:	90 93 a2 39 	sts	0x39A2, r25	; 0x8039a2 <reactStr+0x85>
    return 0;
}

//
void SetResponse(uint8_t number, uint16_t address, uint16_t length, uint8_t type){
    reactStr[0][number]=address;
    2dd0:	2b ee       	ldi	r18, 0xEB	; 235
    2dd2:	39 e7       	ldi	r19, 0x79	; 121
    2dd4:	20 93 23 39 	sts	0x3923, r18	; 0x803923 <reactStr+0x6>
    2dd8:	30 93 24 39 	sts	0x3924, r19	; 0x803924 <reactStr+0x7>
    reactStr[1][number]=length;
    2ddc:	25 e1       	ldi	r18, 0x15	; 21
    2dde:	30 e0       	ldi	r19, 0x00	; 0
    2de0:	20 93 63 39 	sts	0x3963, r18	; 0x803963 <reactStr+0x46>
    2de4:	30 93 64 39 	sts	0x3964, r19	; 0x803964 <reactStr+0x47>
    reactStr[2][number]=type;
    2de8:	80 93 a3 39 	sts	0x39A3, r24	; 0x8039a3 <reactStr+0x86>
    2dec:	90 93 a4 39 	sts	0x39A4, r25	; 0x8039a4 <reactStr+0x87>
                SetResponse(elements++, currObj.addrStr[DESC], currObj.lenStr[DESC],GAME);
                SetResponse(elements++, A_LF, 2, TEASER);
                SetResponse(elements++, A_LOOK, L_LOOK, TEASER);

                //Check the visible children first
                route[currDepth+1] = 0;
    2df0:	f0 e0       	ldi	r31, 0x00	; 0
    2df2:	ee 0f       	add	r30, r30
    2df4:	ff 1f       	adc	r31, r31
    2df6:	e1 52       	subi	r30, 0x21	; 33
    2df8:	f6 4c       	sbci	r31, 0xC6	; 198
    2dfa:	10 82       	st	Z, r1
    2dfc:	11 82       	std	Z+1, r1	; 0x01
            if (inputLen == 1) {

                //Show info about this area first
                SetResponse(elements++, currObj.addrStr[DESC], currObj.lenStr[DESC],GAME);
                SetResponse(elements++, A_LF, 2, TEASER);
                SetResponse(elements++, A_LOOK, L_LOOK, TEASER);
    2dfe:	84 e0       	ldi	r24, 0x04	; 4
    2e00:	68 2e       	mov	r6, r24
    return 0;
}

//
void SetResponse(uint8_t number, uint16_t address, uint16_t length, uint8_t type){
    reactStr[0][number]=address;
    2e02:	97 e5       	ldi	r25, 0x57	; 87
    2e04:	c9 2e       	mov	r12, r25
    2e06:	9a e7       	ldi	r25, 0x7A	; 122
    2e08:	d9 2e       	mov	r13, r25
    reactStr[1][number]=length;
    2e0a:	22 e0       	ldi	r18, 0x02	; 2
    2e0c:	a2 2e       	mov	r10, r18
    2e0e:	b1 2c       	mov	r11, r1
    reactStr[2][number]=type;
    2e10:	88 24       	eor	r8, r8
    2e12:	83 94       	inc	r8
    2e14:	91 2c       	mov	r9, r1
                SetResponse(elements++, A_LOOK, L_LOOK, TEASER);

                //Check the visible children first
                route[currDepth+1] = 0;
                do{
                    route[currDepth+1] = FindChild(route[currDepth], 0, route[currDepth+1]);
    2e16:	80 91 2e 38 	lds	r24, 0x382E	; 0x80382e <currDepth>
    2e1a:	90 e0       	ldi	r25, 0x00	; 0
    2e1c:	9c 01       	movw	r18, r24
    2e1e:	22 0f       	add	r18, r18
    2e20:	33 1f       	adc	r19, r19
    2e22:	f9 01       	movw	r30, r18
    2e24:	e1 52       	subi	r30, 0x21	; 33
    2e26:	f6 4c       	sbci	r31, 0xC6	; 198
    2e28:	7f 01       	movw	r14, r30
    2e2a:	40 81       	ld	r20, Z
    2e2c:	51 81       	ldd	r21, Z+1	; 0x01
    2e2e:	f9 01       	movw	r30, r18
    2e30:	e3 52       	subi	r30, 0x23	; 35
    2e32:	f6 4c       	sbci	r31, 0xC6	; 198
    2e34:	60 e0       	ldi	r22, 0x00	; 0
    2e36:	80 81       	ld	r24, Z
    2e38:	91 81       	ldd	r25, Z+1	; 0x01
    2e3a:	60 da       	rcall	.-2880   	; 0x22fc <FindChild>
    2e3c:	d7 01       	movw	r26, r14
    2e3e:	8d 93       	st	X+, r24
    2e40:	9c 93       	st	X, r25
                    if (route[currDepth+1]) {
    2e42:	e0 91 2e 38 	lds	r30, 0x382E	; 0x80382e <currDepth>
    2e46:	f0 e0       	ldi	r31, 0x00	; 0
    2e48:	ee 0f       	add	r30, r30
    2e4a:	ff 1f       	adc	r31, r31
    2e4c:	e1 52       	subi	r30, 0x21	; 33
    2e4e:	f6 4c       	sbci	r31, 0xC6	; 198
    2e50:	80 81       	ld	r24, Z
    2e52:	91 81       	ldd	r25, Z+1	; 0x01
    2e54:	00 97       	sbiw	r24, 0x00	; 0
    2e56:	09 f4       	brne	.+2      	; 0x2e5a <ProcessInput+0x37a>
    2e58:	4a c0       	rjmp	.+148    	; 0x2eee <ProcessInput+0x40e>
                        if ((route[currDepth+1] != inventory[0])&&(route[currDepth+1] != inventory[1])) {
    2e5a:	20 91 40 38 	lds	r18, 0x3840	; 0x803840 <inventory>
    2e5e:	30 91 41 38 	lds	r19, 0x3841	; 0x803841 <inventory+0x1>
    2e62:	82 17       	cp	r24, r18
    2e64:	93 07       	cpc	r25, r19
    2e66:	09 f4       	brne	.+2      	; 0x2e6a <ProcessInput+0x38a>
    2e68:	42 c0       	rjmp	.+132    	; 0x2eee <ProcessInput+0x40e>
    2e6a:	20 91 42 38 	lds	r18, 0x3842	; 0x803842 <inventory+0x2>
    2e6e:	30 91 43 38 	lds	r19, 0x3843	; 0x803843 <inventory+0x3>
    2e72:	82 17       	cp	r24, r18
    2e74:	93 07       	cpc	r25, r19
                            PopulateObject(route[currDepth+1], &actObj1);
    2e76:	d9 f1       	breq	.+118    	; 0x2eee <ProcessInput+0x40e>
    2e78:	6c ed       	ldi	r22, 0xDC	; 220
    2e7a:	78 e3       	ldi	r23, 0x38	; 56
    2e7c:	74 d9       	rcall	.-3352   	; 0x2166 <PopulateObject>
                            SetResponse(elements++, actObj1.addrStr[NAME], actObj1.lenStr[NAME],GAME);
    2e7e:	80 91 f6 38 	lds	r24, 0x38F6	; 0x8038f6 <actObj1.3996+0x1a>
    2e82:	90 91 f7 38 	lds	r25, 0x38F7	; 0x8038f7 <actObj1.3996+0x1b>
    return 0;
}

//
void SetResponse(uint8_t number, uint16_t address, uint16_t length, uint8_t type){
    reactStr[0][number]=address;
    2e86:	e6 2d       	mov	r30, r6
    2e88:	f0 e0       	ldi	r31, 0x00	; 0
    2e8a:	df 01       	movw	r26, r30
    2e8c:	aa 0f       	add	r26, r26
    2e8e:	bb 1f       	adc	r27, r27
    2e90:	a3 5e       	subi	r26, 0xE3	; 227
    2e92:	b6 4c       	sbci	r27, 0xC6	; 198
    2e94:	20 91 e8 38 	lds	r18, 0x38E8	; 0x8038e8 <actObj1.3996+0xc>
    2e98:	30 91 e9 38 	lds	r19, 0x38E9	; 0x8038e9 <actObj1.3996+0xd>
    2e9c:	2d 93       	st	X+, r18
    2e9e:	3c 93       	st	X, r19
    reactStr[1][number]=length;
    2ea0:	df 01       	movw	r26, r30
    2ea2:	aa 0f       	add	r26, r26
    2ea4:	bb 1f       	adc	r27, r27
    2ea6:	a3 5a       	subi	r26, 0xA3	; 163
    2ea8:	b6 4c       	sbci	r27, 0xC6	; 198
    2eaa:	8d 93       	st	X+, r24
    2eac:	9c 93       	st	X, r25
    reactStr[2][number]=type;
    2eae:	ee 0f       	add	r30, r30
    2eb0:	ff 1f       	adc	r31, r31
    2eb2:	e3 56       	subi	r30, 0x63	; 99
    2eb4:	f6 4c       	sbci	r31, 0xC6	; 198
    2eb6:	10 82       	st	Z, r1
    2eb8:	11 82       	std	Z+1, r1	; 0x01
    return 0;
}

//
void SetResponse(uint8_t number, uint16_t address, uint16_t length, uint8_t type){
    reactStr[0][number]=address;
    2eba:	81 e0       	ldi	r24, 0x01	; 1
    2ebc:	86 0d       	add	r24, r6
    2ebe:	90 e0       	ldi	r25, 0x00	; 0
    2ec0:	63 94       	inc	r6
    2ec2:	63 94       	inc	r6
    2ec4:	fc 01       	movw	r30, r24
    2ec6:	ee 0f       	add	r30, r30
    2ec8:	ff 1f       	adc	r31, r31
    2eca:	e3 5e       	subi	r30, 0xE3	; 227
    2ecc:	f6 4c       	sbci	r31, 0xC6	; 198
    2ece:	c0 82       	st	Z, r12
    2ed0:	d1 82       	std	Z+1, r13	; 0x01
    reactStr[1][number]=length;
    2ed2:	fc 01       	movw	r30, r24
    2ed4:	ee 0f       	add	r30, r30
    2ed6:	ff 1f       	adc	r31, r31
    2ed8:	e3 5a       	subi	r30, 0xA3	; 163
    2eda:	f6 4c       	sbci	r31, 0xC6	; 198
    2edc:	a0 82       	st	Z, r10
    2ede:	b1 82       	std	Z+1, r11	; 0x01
    reactStr[2][number]=type;
    2ee0:	88 0f       	add	r24, r24
    2ee2:	99 1f       	adc	r25, r25
    2ee4:	fc 01       	movw	r30, r24
    2ee6:	e3 56       	subi	r30, 0x63	; 99
    2ee8:	f6 4c       	sbci	r31, 0xC6	; 198
    2eea:	80 82       	st	Z, r8
    2eec:	91 82       	std	Z+1, r9	; 0x01
                            PopulateObject(route[currDepth+1], &actObj1);
                            SetResponse(elements++, actObj1.addrStr[NAME], actObj1.lenStr[NAME],GAME);
                            SetResponse(elements++, A_COMMA, L_COMMA, TEASER);
                        }
                    }
                }while (route[currDepth+1]);
    2eee:	20 91 2e 38 	lds	r18, 0x382E	; 0x80382e <currDepth>
    2ef2:	82 2f       	mov	r24, r18
    2ef4:	90 e0       	ldi	r25, 0x00	; 0
    2ef6:	fc 01       	movw	r30, r24
    2ef8:	ee 0f       	add	r30, r30
    2efa:	ff 1f       	adc	r31, r31
    2efc:	e1 52       	subi	r30, 0x21	; 33
    2efe:	f6 4c       	sbci	r31, 0xC6	; 198
    2f00:	40 81       	ld	r20, Z
    2f02:	51 81       	ldd	r21, Z+1	; 0x01
    2f04:	45 2b       	or	r20, r21
    2f06:	09 f0       	breq	.+2      	; 0x2f0a <ProcessInput+0x42a>
    2f08:	86 cf       	rjmp	.-244    	; 0x2e16 <ProcessInput+0x336>

                //Look back if not on level 0
                if (currDepth) {
    2f0a:	22 23       	and	r18, r18
    2f0c:	69 f1       	breq	.+90     	; 0x2f68 <ProcessInput+0x488>
                    PopulateObject(route[currDepth-1], &actObj1);
    2f0e:	88 0f       	add	r24, r24
    2f10:	99 1f       	adc	r25, r25
    2f12:	fc 01       	movw	r30, r24
    2f14:	e5 52       	subi	r30, 0x25	; 37
    2f16:	f6 4c       	sbci	r31, 0xC6	; 198
    2f18:	6c ed       	ldi	r22, 0xDC	; 220
    2f1a:	78 e3       	ldi	r23, 0x38	; 56
    2f1c:	80 81       	ld	r24, Z
    2f1e:	91 81       	ldd	r25, Z+1	; 0x01
    2f20:	22 d9       	rcall	.-3516   	; 0x2166 <PopulateObject>
                    SetResponse(elements++, actObj1.addrStr[NAME], actObj1.lenStr[NAME],GAME);
    2f22:	20 91 f6 38 	lds	r18, 0x38F6	; 0x8038f6 <actObj1.3996+0x1a>
    2f26:	30 91 f7 38 	lds	r19, 0x38F7	; 0x8038f7 <actObj1.3996+0x1b>
    2f2a:	77 24       	eor	r7, r7
    2f2c:	73 94       	inc	r7
    2f2e:	76 0c       	add	r7, r6
    return 0;
}

//
void SetResponse(uint8_t number, uint16_t address, uint16_t length, uint8_t type){
    reactStr[0][number]=address;
    2f30:	86 2d       	mov	r24, r6
    2f32:	90 e0       	ldi	r25, 0x00	; 0
    2f34:	fc 01       	movw	r30, r24
    2f36:	ee 0f       	add	r30, r30
    2f38:	ff 1f       	adc	r31, r31
    2f3a:	e3 5e       	subi	r30, 0xE3	; 227
    2f3c:	f6 4c       	sbci	r31, 0xC6	; 198
    2f3e:	40 91 e8 38 	lds	r20, 0x38E8	; 0x8038e8 <actObj1.3996+0xc>
    2f42:	50 91 e9 38 	lds	r21, 0x38E9	; 0x8038e9 <actObj1.3996+0xd>
    2f46:	40 83       	st	Z, r20
    2f48:	51 83       	std	Z+1, r21	; 0x01
    reactStr[1][number]=length;
    2f4a:	fc 01       	movw	r30, r24
    2f4c:	ee 0f       	add	r30, r30
    2f4e:	ff 1f       	adc	r31, r31
    2f50:	e3 5a       	subi	r30, 0xA3	; 163
    2f52:	f6 4c       	sbci	r31, 0xC6	; 198
    2f54:	20 83       	st	Z, r18
    2f56:	31 83       	std	Z+1, r19	; 0x01
    reactStr[2][number]=type;
    2f58:	88 0f       	add	r24, r24
    2f5a:	99 1f       	adc	r25, r25
    2f5c:	fc 01       	movw	r30, r24
    2f5e:	e3 56       	subi	r30, 0x63	; 99
    2f60:	f6 4c       	sbci	r31, 0xC6	; 198
    2f62:	10 82       	st	Z, r1
    2f64:	11 82       	std	Z+1, r1	; 0x01
    2f66:	b9 c5       	rjmp	.+2930   	; 0x3ada <ProcessInput+0xffa>

                //Look back if not on level 0
                if (currDepth) {
                    PopulateObject(route[currDepth-1], &actObj1);
                    SetResponse(elements++, actObj1.addrStr[NAME], actObj1.lenStr[NAME],GAME);
                } else elements-=1;
    2f68:	77 24       	eor	r7, r7
    2f6a:	7a 94       	dec	r7
    2f6c:	76 0c       	add	r7, r6
    2f6e:	b5 c5       	rjmp	.+2922   	; 0x3ada <ProcessInput+0xffa>

            } else {
                route[currDepth+1] = FindChild(route[currDepth], data[1], 0);
    2f70:	ee 2e       	mov	r14, r30
    2f72:	f1 2c       	mov	r15, r1
    2f74:	f7 01       	movw	r30, r14
    2f76:	ee 0f       	add	r30, r30
    2f78:	ff 1f       	adc	r31, r31
    2f7a:	e3 52       	subi	r30, 0x23	; 35
    2f7c:	f6 4c       	sbci	r31, 0xC6	; 198
    2f7e:	40 e0       	ldi	r20, 0x00	; 0
    2f80:	50 e0       	ldi	r21, 0x00	; 0
    2f82:	d8 01       	movw	r26, r16
    2f84:	11 96       	adiw	r26, 0x01	; 1
    2f86:	6c 91       	ld	r22, X
    2f88:	80 81       	ld	r24, Z
    2f8a:	91 81       	ldd	r25, Z+1	; 0x01
    2f8c:	b7 d9       	rcall	.-3218   	; 0x22fc <FindChild>
    2f8e:	f7 01       	movw	r30, r14
    2f90:	ee 0f       	add	r30, r30
    2f92:	ff 1f       	adc	r31, r31
    2f94:	e1 52       	subi	r30, 0x21	; 33
    2f96:	f6 4c       	sbci	r31, 0xC6	; 198
    2f98:	80 83       	st	Z, r24
    2f9a:	91 83       	std	Z+1, r25	; 0x01
                if (route[currDepth+1]) {
    2f9c:	90 91 2e 38 	lds	r25, 0x382E	; 0x80382e <currDepth>
    2fa0:	29 2f       	mov	r18, r25
    2fa2:	30 e0       	ldi	r19, 0x00	; 0
    2fa4:	f9 01       	movw	r30, r18
    2fa6:	ee 0f       	add	r30, r30
    2fa8:	ff 1f       	adc	r31, r31
    2faa:	e1 52       	subi	r30, 0x21	; 33
    2fac:	f6 4c       	sbci	r31, 0xC6	; 198
    2fae:	40 81       	ld	r20, Z
    2fb0:	51 81       	ldd	r21, Z+1	; 0x01
    2fb2:	41 15       	cp	r20, r1
    2fb4:	51 05       	cpc	r21, r1
    2fb6:	21 f0       	breq	.+8      	; 0x2fc0 <ProcessInput+0x4e0>
                    PopulateObject(route[currDepth+1], &actObj1);
    2fb8:	6c ed       	ldi	r22, 0xDC	; 220
    2fba:	78 e3       	ldi	r23, 0x38	; 56
    2fbc:	ca 01       	movw	r24, r20
    2fbe:	1e c0       	rjmp	.+60     	; 0x2ffc <ProcessInput+0x51c>
//TODO: CHECKSTATE -> A_CANTLOOK item
                    SetResponse(elements++, actObj1.addrStr[DESC], actObj1.lenStr[DESC],GAME);   
                } else if (currDepth) {
    2fc0:	99 23       	and	r25, r25
    2fc2:	09 f4       	brne	.+2      	; 0x2fc6 <ProcessInput+0x4e6>
                    if (CheckLetter(route[currDepth-1], data[1])) {
    2fc4:	bc c5       	rjmp	.+2936   	; 0x3b3e <ProcessInput+0x105e>
    2fc6:	22 0f       	add	r18, r18
    2fc8:	33 1f       	adc	r19, r19
    2fca:	f9 01       	movw	r30, r18
    2fcc:	e5 52       	subi	r30, 0x25	; 37
    2fce:	f6 4c       	sbci	r31, 0xC6	; 198
    2fd0:	d8 01       	movw	r26, r16
    2fd2:	11 96       	adiw	r26, 0x01	; 1
    2fd4:	6c 91       	ld	r22, X
    2fd6:	80 81       	ld	r24, Z
    2fd8:	91 81       	ldd	r25, Z+1	; 0x01
    2fda:	3c d9       	rcall	.-3464   	; 0x2254 <CheckLetter>
    2fdc:	81 11       	cpse	r24, r1
    2fde:	03 c0       	rjmp	.+6      	; 0x2fe6 <ProcessInput+0x506>
}

//The game logic!
uint8_t ProcessInput(uint8_t *data){
    static object_model_t actObj1, actObj2;
    uint8_t elements = 1;
    2fe0:	77 24       	eor	r7, r7
    2fe2:	73 94       	inc	r7
                    PopulateObject(route[currDepth+1], &actObj1);
//TODO: CHECKSTATE -> A_CANTLOOK item
                    SetResponse(elements++, actObj1.addrStr[DESC], actObj1.lenStr[DESC],GAME);   
                } else if (currDepth) {
                    if (CheckLetter(route[currDepth-1], data[1])) {
                        PopulateObject(route[currDepth-1], &actObj1);
    2fe4:	7a c5       	rjmp	.+2804   	; 0x3ada <ProcessInput+0xffa>
    2fe6:	e0 91 2e 38 	lds	r30, 0x382E	; 0x80382e <currDepth>
    2fea:	f0 e0       	ldi	r31, 0x00	; 0
    2fec:	ee 0f       	add	r30, r30
    2fee:	ff 1f       	adc	r31, r31
    2ff0:	e5 52       	subi	r30, 0x25	; 37
    2ff2:	f6 4c       	sbci	r31, 0xC6	; 198
    2ff4:	6c ed       	ldi	r22, 0xDC	; 220
    2ff6:	78 e3       	ldi	r23, 0x38	; 56
    2ff8:	80 81       	ld	r24, Z
    2ffa:	91 81       	ldd	r25, Z+1	; 0x01
    2ffc:	b4 d8       	rcall	.-3736   	; 0x2166 <PopulateObject>
                        SetResponse(elements++, actObj1.addrStr[DESC], actObj1.lenStr[DESC],GAME);
    2ffe:	80 91 f8 38 	lds	r24, 0x38F8	; 0x8038f8 <actObj1.3996+0x1c>
    3002:	90 91 f9 38 	lds	r25, 0x38F9	; 0x8038f9 <actObj1.3996+0x1d>
    return 0;
}

//
void SetResponse(uint8_t number, uint16_t address, uint16_t length, uint8_t type){
    reactStr[0][number]=address;
    3006:	20 91 ea 38 	lds	r18, 0x38EA	; 0x8038ea <actObj1.3996+0xe>
    300a:	30 91 eb 38 	lds	r19, 0x38EB	; 0x8038eb <actObj1.3996+0xf>
    300e:	20 93 1f 39 	sts	0x391F, r18	; 0x80391f <reactStr+0x2>
    3012:	30 93 20 39 	sts	0x3920, r19	; 0x803920 <reactStr+0x3>
    reactStr[1][number]=length;
    3016:	80 93 5f 39 	sts	0x395F, r24	; 0x80395f <reactStr+0x42>
    301a:	90 93 60 39 	sts	0x3960, r25	; 0x803960 <reactStr+0x43>
    reactStr[2][number]=type;
    301e:	10 92 9f 39 	sts	0x399F, r1	; 0x80399f <reactStr+0x82>
    3022:	10 92 a0 39 	sts	0x39A0, r1	; 0x8039a0 <reactStr+0x83>
    3026:	2a ce       	rjmp	.-940    	; 0x2c7c <ProcessInput+0x19c>
                    SetResponse(elements++, A_DONTSEE, L_DONTSEE, TEASER);
                }
            }
        
        //Pick up an object
        } else if (data[0] == 'p') {
    3028:	80 37       	cpi	r24, 0x70	; 112
    302a:	09 f0       	breq	.+2      	; 0x302e <ProcessInput+0x54e>
    302c:	96 c0       	rjmp	.+300    	; 0x315a <ProcessInput+0x67a>
            if (inventory[0]&&inventory[1]) {
    302e:	80 91 40 38 	lds	r24, 0x3840	; 0x803840 <inventory>
    3032:	90 91 41 38 	lds	r25, 0x3841	; 0x803841 <inventory+0x1>
    3036:	89 2b       	or	r24, r25
    3038:	79 f0       	breq	.+30     	; 0x3058 <ProcessInput+0x578>
    303a:	80 91 42 38 	lds	r24, 0x3842	; 0x803842 <inventory+0x2>
    303e:	90 91 43 38 	lds	r25, 0x3843	; 0x803843 <inventory+0x3>
    3042:	89 2b       	or	r24, r25
    3044:	49 f0       	breq	.+18     	; 0x3058 <ProcessInput+0x578>
    return 0;
}

//
void SetResponse(uint8_t number, uint16_t address, uint16_t length, uint8_t type){
    reactStr[0][number]=address;
    3046:	87 e0       	ldi	r24, 0x07	; 7
    3048:	98 e7       	ldi	r25, 0x78	; 120
    304a:	80 93 1f 39 	sts	0x391F, r24	; 0x80391f <reactStr+0x2>
    304e:	90 93 20 39 	sts	0x3920, r25	; 0x803920 <reactStr+0x3>
    reactStr[1][number]=length;
    3052:	89 e5       	ldi	r24, 0x59	; 89
    3054:	90 e0       	ldi	r25, 0x00	; 0
    3056:	08 ce       	rjmp	.-1008   	; 0x2c68 <ProcessInput+0x188>
        
        //Pick up an object
        } else if (data[0] == 'p') {
            if (inventory[0]&&inventory[1]) {
                SetResponse(elements++, A_CARRYTWO, L_CARRYTWO, TEASER);
            } else if (inputLen != 2) {
    3058:	b2 e0       	ldi	r27, 0x02	; 2
    305a:	fb 12       	cpse	r15, r27
    305c:	70 cd       	rjmp	.-1312   	; 0x2b3e <ProcessInput+0x5e>
                SetResponse(elements++, A_NOTPOSSIBLE, L_NOTPOSSIBLE, TEASER);
            } else {
                route[currDepth+1] = FindChild(route[currDepth], data[1], 0);
    305e:	e0 90 2e 38 	lds	r14, 0x382E	; 0x80382e <currDepth>
    3062:	f1 2c       	mov	r15, r1
    3064:	f7 01       	movw	r30, r14
    3066:	ee 0f       	add	r30, r30
    3068:	ff 1f       	adc	r31, r31
    306a:	e3 52       	subi	r30, 0x23	; 35
    306c:	f6 4c       	sbci	r31, 0xC6	; 198
    306e:	40 e0       	ldi	r20, 0x00	; 0
    3070:	50 e0       	ldi	r21, 0x00	; 0
    3072:	d8 01       	movw	r26, r16
    3074:	11 96       	adiw	r26, 0x01	; 1
    3076:	6c 91       	ld	r22, X
    3078:	80 81       	ld	r24, Z
    307a:	91 81       	ldd	r25, Z+1	; 0x01
    307c:	3f d9       	rcall	.-3458   	; 0x22fc <FindChild>
    307e:	f7 01       	movw	r30, r14
    3080:	ee 0f       	add	r30, r30
    3082:	ff 1f       	adc	r31, r31
    3084:	e1 52       	subi	r30, 0x21	; 33
    3086:	f6 4c       	sbci	r31, 0xC6	; 198
    3088:	80 83       	st	Z, r24
    308a:	91 83       	std	Z+1, r25	; 0x01
                if (route[currDepth+1]) {
    308c:	20 91 2e 38 	lds	r18, 0x382E	; 0x80382e <currDepth>
    3090:	30 e0       	ldi	r19, 0x00	; 0
    3092:	2f 5f       	subi	r18, 0xFF	; 255
    3094:	3f 4f       	sbci	r19, 0xFF	; 255
    3096:	22 0f       	add	r18, r18
    3098:	33 1f       	adc	r19, r19
    309a:	f9 01       	movw	r30, r18
    309c:	e3 52       	subi	r30, 0x23	; 35
    309e:	f6 4c       	sbci	r31, 0xC6	; 198
    30a0:	80 81       	ld	r24, Z
    30a2:	91 81       	ldd	r25, Z+1	; 0x01
    30a4:	00 97       	sbiw	r24, 0x00	; 0
    30a6:	09 f4       	brne	.+2      	; 0x30aa <ProcessInput+0x5ca>
    30a8:	ca c3       	rjmp	.+1940   	; 0x383e <ProcessInput+0xd5e>
                    if ((route[currDepth+1] == inventory[0])||(route[currDepth+1] == inventory[1])) {
    30aa:	40 91 40 38 	lds	r20, 0x3840	; 0x803840 <inventory>
    30ae:	50 91 41 38 	lds	r21, 0x3841	; 0x803841 <inventory+0x1>
    30b2:	84 17       	cp	r24, r20
    30b4:	95 07       	cpc	r25, r21
    30b6:	39 f0       	breq	.+14     	; 0x30c6 <ProcessInput+0x5e6>
    30b8:	40 91 42 38 	lds	r20, 0x3842	; 0x803842 <inventory+0x2>
    30bc:	50 91 43 38 	lds	r21, 0x3843	; 0x803843 <inventory+0x3>
    30c0:	84 17       	cp	r24, r20
    30c2:	95 07       	cpc	r25, r21
    30c4:	c1 f4       	brne	.+48     	; 0x30f6 <ProcessInput+0x616>
    return 0;
}

//
void SetResponse(uint8_t number, uint16_t address, uint16_t length, uint8_t type){
    reactStr[0][number]=address;
    30c6:	82 ee       	ldi	r24, 0xE2	; 226
    30c8:	97 e7       	ldi	r25, 0x77	; 119
    30ca:	80 93 1f 39 	sts	0x391F, r24	; 0x80391f <reactStr+0x2>
    30ce:	90 93 20 39 	sts	0x3920, r25	; 0x803920 <reactStr+0x3>
    reactStr[1][number]=length;
    30d2:	85 e2       	ldi	r24, 0x25	; 37
    30d4:	90 e0       	ldi	r25, 0x00	; 0
    30d6:	80 93 5f 39 	sts	0x395F, r24	; 0x80395f <reactStr+0x42>
    30da:	90 93 60 39 	sts	0x3960, r25	; 0x803960 <reactStr+0x43>
    reactStr[2][number]=type;
    30de:	81 e0       	ldi	r24, 0x01	; 1
    30e0:	90 e0       	ldi	r25, 0x00	; 0
    30e2:	80 93 9f 39 	sts	0x399F, r24	; 0x80399f <reactStr+0x82>
    30e6:	90 93 a0 39 	sts	0x39A0, r25	; 0x8039a0 <reactStr+0x83>
            } else {
                route[currDepth+1] = FindChild(route[currDepth], data[1], 0);
                if (route[currDepth+1]) {
                    if ((route[currDepth+1] == inventory[0])||(route[currDepth+1] == inventory[1])) {
                        SetResponse(elements++, A_ALREADYCARRYING, L_ALREADYCARRYING, TEASER);
                        route[currDepth+1] = 0;
    30ea:	f9 01       	movw	r30, r18
    30ec:	e3 52       	subi	r30, 0x23	; 35
    30ee:	f6 4c       	sbci	r31, 0xC6	; 198
    30f0:	10 82       	st	Z, r1
    30f2:	11 82       	std	Z+1, r1	; 0x01
                    } else {
                        //Put item in the inventory if possible
                        PopulateObject(route[currDepth+1], &actObj1);  
    30f4:	c3 cd       	rjmp	.-1146   	; 0x2c7c <ProcessInput+0x19c>
    30f6:	6c ed       	ldi	r22, 0xDC	; 220
    30f8:	78 e3       	ldi	r23, 0x38	; 56
    30fa:	35 d8       	rcall	.-3990   	; 0x2166 <PopulateObject>
                        if (CheckState(actObj1.byteField[ACTION_ACL])) {
    30fc:	80 91 e3 38 	lds	r24, 0x38E3	; 0x8038e3 <actObj1.3996+0x7>
    3100:	0e 94 17 0a 	call	0x142e	; 0x142e <CheckState>
    3104:	88 23       	and	r24, r24
    3106:	09 f4       	brne	.+2      	; 0x310a <ProcessInput+0x62a>
    3108:	75 c3       	rjmp	.+1770   	; 0x37f4 <ProcessInput+0xd14>
                            if (actObj1.byteField[ITEM_NR]) {
    310a:	80 91 e7 38 	lds	r24, 0x38E7	; 0x8038e7 <actObj1.3996+0xb>
    310e:	88 23       	and	r24, r24
    3110:	09 f4       	brne	.+2      	; 0x3114 <ProcessInput+0x634>
    3112:	15 cd       	rjmp	.-1494   	; 0x2b3e <ProcessInput+0x5e>
                                if (inventory[0]) {
    3114:	80 91 40 38 	lds	r24, 0x3840	; 0x803840 <inventory>
    3118:	90 91 41 38 	lds	r25, 0x3841	; 0x803841 <inventory+0x1>
    311c:	e0 91 2e 38 	lds	r30, 0x382E	; 0x80382e <currDepth>
                                    inventory[1] = route[currDepth+1];
    3120:	f0 e0       	ldi	r31, 0x00	; 0
    3122:	ee 0f       	add	r30, r30
    3124:	ff 1f       	adc	r31, r31
    3126:	e1 52       	subi	r30, 0x21	; 33
    3128:	f6 4c       	sbci	r31, 0xC6	; 198
                    } else {
                        //Put item in the inventory if possible
                        PopulateObject(route[currDepth+1], &actObj1);  
                        if (CheckState(actObj1.byteField[ACTION_ACL])) {
                            if (actObj1.byteField[ITEM_NR]) {
                                if (inventory[0]) {
    312a:	89 2b       	or	r24, r25
    312c:	39 f0       	breq	.+14     	; 0x313c <ProcessInput+0x65c>
                                    inventory[1] = route[currDepth+1];
    312e:	80 81       	ld	r24, Z
    3130:	91 81       	ldd	r25, Z+1	; 0x01
    3132:	80 93 42 38 	sts	0x3842, r24	; 0x803842 <inventory+0x2>
    3136:	90 93 43 38 	sts	0x3843, r25	; 0x803843 <inventory+0x3>
    313a:	06 c0       	rjmp	.+12     	; 0x3148 <ProcessInput+0x668>
                                } else {
                                    inventory[0] = route[currDepth+1];
    313c:	80 81       	ld	r24, Z
    313e:	91 81       	ldd	r25, Z+1	; 0x01
    3140:	80 93 40 38 	sts	0x3840, r24	; 0x803840 <inventory>
    3144:	90 93 41 38 	sts	0x3841, r25	; 0x803841 <inventory+0x1>
    return 0;
}

//
void SetResponse(uint8_t number, uint16_t address, uint16_t length, uint8_t type){
    reactStr[0][number]=address;
    3148:	8c ec       	ldi	r24, 0xCC	; 204
    314a:	97 e7       	ldi	r25, 0x77	; 119
    314c:	80 93 1f 39 	sts	0x391F, r24	; 0x80391f <reactStr+0x2>
    3150:	90 93 20 39 	sts	0x3920, r25	; 0x803920 <reactStr+0x3>
    reactStr[1][number]=length;
    3154:	86 e1       	ldi	r24, 0x16	; 22
    3156:	90 e0       	ldi	r25, 0x00	; 0
    3158:	5e c2       	rjmp	.+1212   	; 0x3616 <ProcessInput+0xb36>
                } else SetResponse(elements++, A_NOSUCHOBJECT, L_NOSUCHOBJECT, TEASER);
            }
        } else

        //Drop item if in inventory
        if (data[0] == 'd') {
    315a:	84 36       	cpi	r24, 0x64	; 100
    315c:	d9 f4       	brne	.+54     	; 0x3194 <ProcessInput+0x6b4>
            if ((inventory[0] == 0)&&(inventory[1] == 0)){
    315e:	80 91 40 38 	lds	r24, 0x3840	; 0x803840 <inventory>
    3162:	90 91 41 38 	lds	r25, 0x3841	; 0x803841 <inventory+0x1>
    3166:	00 97       	sbiw	r24, 0x00	; 0
    3168:	09 f0       	breq	.+2      	; 0x316c <ProcessInput+0x68c>
    316a:	ec c4       	rjmp	.+2520   	; 0x3b44 <ProcessInput+0x1064>
    316c:	80 91 42 38 	lds	r24, 0x3842	; 0x803842 <inventory+0x2>
    3170:	90 91 43 38 	lds	r25, 0x3843	; 0x803843 <inventory+0x3>
    3174:	89 2b       	or	r24, r25
    3176:	49 f4       	brne	.+18     	; 0x318a <ProcessInput+0x6aa>
    return 0;
}

//
void SetResponse(uint8_t number, uint16_t address, uint16_t length, uint8_t type){
    reactStr[0][number]=address;
    3178:	86 ea       	ldi	r24, 0xA6	; 166
    317a:	97 e7       	ldi	r25, 0x77	; 119
    317c:	80 93 1f 39 	sts	0x391F, r24	; 0x80391f <reactStr+0x2>
    3180:	90 93 20 39 	sts	0x3920, r25	; 0x803920 <reactStr+0x3>
    reactStr[1][number]=length;
    3184:	86 e2       	ldi	r24, 0x26	; 38
    3186:	90 e0       	ldi	r25, 0x00	; 0
    3188:	6f cd       	rjmp	.-1314   	; 0x2c68 <ProcessInput+0x188>

        //Drop item if in inventory
        if (data[0] == 'd') {
            if ((inventory[0] == 0)&&(inventory[1] == 0)){
                SetResponse(elements++, A_EMPTYHANDS, L_EMPTYHANDS, TEASER);
            } else if (inputLen != 2) {
    318a:	b2 e0       	ldi	r27, 0x02	; 2
    318c:	fb 16       	cp	r15, r27
    318e:	09 f4       	brne	.+2      	; 0x3192 <ProcessInput+0x6b2>
    3190:	40 c5       	rjmp	.+2688   	; 0x3c12 <ProcessInput+0x1132>
    3192:	d5 cc       	rjmp	.-1622   	; 0x2b3e <ProcessInput+0x5e>
                    if (x) SetResponse(elements++, A_NOTCARRYING, L_NOTCARRYING, TEASER);
                }
            }

        //Inventory list
        } else if (data[0] == 'i') {
    3194:	89 36       	cpi	r24, 0x69	; 105
    3196:	09 f0       	breq	.+2      	; 0x319a <ProcessInput+0x6ba>
    3198:	7b c0       	rjmp	.+246    	; 0x3290 <ProcessInput+0x7b0>
            if ((inventory[0] == 0)&&(inventory[1] == 0)){
    319a:	80 91 40 38 	lds	r24, 0x3840	; 0x803840 <inventory>
    319e:	90 91 41 38 	lds	r25, 0x3841	; 0x803841 <inventory+0x1>
    31a2:	89 2b       	or	r24, r25
    31a4:	31 f4       	brne	.+12     	; 0x31b2 <ProcessInput+0x6d2>
    31a6:	80 91 42 38 	lds	r24, 0x3842	; 0x803842 <inventory+0x2>
    31aa:	90 91 43 38 	lds	r25, 0x3843	; 0x803843 <inventory+0x3>
    31ae:	89 2b       	or	r24, r25
    31b0:	19 f3       	breq	.-58     	; 0x3178 <ProcessInput+0x698>
    return 0;
}

//
void SetResponse(uint8_t number, uint16_t address, uint16_t length, uint8_t type){
    reactStr[0][number]=address;
    31b2:	8c ec       	ldi	r24, 0xCC	; 204
    31b4:	97 e7       	ldi	r25, 0x77	; 119
    31b6:	80 93 1f 39 	sts	0x391F, r24	; 0x80391f <reactStr+0x2>
    31ba:	90 93 20 39 	sts	0x3920, r25	; 0x803920 <reactStr+0x3>
    reactStr[1][number]=length;
    31be:	86 e1       	ldi	r24, 0x16	; 22
    31c0:	90 e0       	ldi	r25, 0x00	; 0
    31c2:	80 93 5f 39 	sts	0x395F, r24	; 0x80395f <reactStr+0x42>
    31c6:	90 93 60 39 	sts	0x3960, r25	; 0x803960 <reactStr+0x43>
    reactStr[2][number]=type;
    31ca:	81 e0       	ldi	r24, 0x01	; 1
    31cc:	90 e0       	ldi	r25, 0x00	; 0
    31ce:	80 93 9f 39 	sts	0x399F, r24	; 0x80399f <reactStr+0x82>
    31d2:	90 93 a0 39 	sts	0x39A0, r25	; 0x8039a0 <reactStr+0x83>
    31d6:	20 e4       	ldi	r18, 0x40	; 64
    31d8:	e2 2e       	mov	r14, r18
    31da:	28 e3       	ldi	r18, 0x38	; 56
    31dc:	f2 2e       	mov	r15, r18
    31de:	34 e4       	ldi	r19, 0x44	; 68
    31e0:	63 2e       	mov	r6, r19
    31e2:	38 e3       	ldi	r19, 0x38	; 56
    31e4:	73 2e       	mov	r7, r19
        //Inventory list
        } else if (data[0] == 'i') {
            if ((inventory[0] == 0)&&(inventory[1] == 0)){
                SetResponse(elements++, A_EMPTYHANDS, L_EMPTYHANDS, TEASER);
            } else {
                SetResponse(elements++, A_NOWCARRING, L_NOWCARRING, TEASER);
    31e6:	42 e0       	ldi	r20, 0x02	; 2
    31e8:	54 2e       	mov	r5, r20
    return 0;
}

//
void SetResponse(uint8_t number, uint16_t address, uint16_t length, uint8_t type){
    reactStr[0][number]=address;
    31ea:	57 e5       	ldi	r21, 0x57	; 87
    31ec:	c5 2e       	mov	r12, r21
    31ee:	5a e7       	ldi	r21, 0x7A	; 122
    31f0:	d5 2e       	mov	r13, r21
    reactStr[1][number]=length;
    31f2:	62 e0       	ldi	r22, 0x02	; 2
    31f4:	a6 2e       	mov	r10, r22
    31f6:	b1 2c       	mov	r11, r1
    reactStr[2][number]=type;
    31f8:	88 24       	eor	r8, r8
    31fa:	83 94       	inc	r8
    31fc:	91 2c       	mov	r9, r1
            } else {
                SetResponse(elements++, A_NOWCARRING, L_NOWCARRING, TEASER);
                //SetResponse(elements++, A_SPACE, L_SPACE, TEASER);
                
                for (uint8_t x=0; x<2; ++x) {
                    if (inventory[x]) {
    31fe:	d7 01       	movw	r26, r14
    3200:	8d 91       	ld	r24, X+
    3202:	9d 91       	ld	r25, X+
    3204:	7d 01       	movw	r14, r26
    3206:	00 97       	sbiw	r24, 0x00	; 0
    3208:	d9 f1       	breq	.+118    	; 0x3280 <ProcessInput+0x7a0>
                        PopulateObject(inventory[x], &actObj1);
    320a:	6c ed       	ldi	r22, 0xDC	; 220
    320c:	78 e3       	ldi	r23, 0x38	; 56
    320e:	0e 94 b3 10 	call	0x2166	; 0x2166 <PopulateObject>
                        SetResponse(elements++, actObj1.addrStr[NAME], actObj1.lenStr[NAME], GAME);
    3212:	80 91 f6 38 	lds	r24, 0x38F6	; 0x8038f6 <actObj1.3996+0x1a>
    3216:	90 91 f7 38 	lds	r25, 0x38F7	; 0x8038f7 <actObj1.3996+0x1b>
    return 0;
}

//
void SetResponse(uint8_t number, uint16_t address, uint16_t length, uint8_t type){
    reactStr[0][number]=address;
    321a:	e5 2d       	mov	r30, r5
    321c:	f0 e0       	ldi	r31, 0x00	; 0
    321e:	df 01       	movw	r26, r30
    3220:	aa 0f       	add	r26, r26
    3222:	bb 1f       	adc	r27, r27
    3224:	a3 5e       	subi	r26, 0xE3	; 227
    3226:	b6 4c       	sbci	r27, 0xC6	; 198
    3228:	20 91 e8 38 	lds	r18, 0x38E8	; 0x8038e8 <actObj1.3996+0xc>
    322c:	30 91 e9 38 	lds	r19, 0x38E9	; 0x8038e9 <actObj1.3996+0xd>
    3230:	2d 93       	st	X+, r18
    3232:	3c 93       	st	X, r19
    reactStr[1][number]=length;
    3234:	df 01       	movw	r26, r30
    3236:	aa 0f       	add	r26, r26
    3238:	bb 1f       	adc	r27, r27
    323a:	a3 5a       	subi	r26, 0xA3	; 163
    323c:	b6 4c       	sbci	r27, 0xC6	; 198
    323e:	8d 93       	st	X+, r24
    3240:	9c 93       	st	X, r25
    reactStr[2][number]=type;
    3242:	ee 0f       	add	r30, r30
    3244:	ff 1f       	adc	r31, r31
    3246:	e3 56       	subi	r30, 0x63	; 99
    3248:	f6 4c       	sbci	r31, 0xC6	; 198
    324a:	10 82       	st	Z, r1
    324c:	11 82       	std	Z+1, r1	; 0x01
    return 0;
}

//
void SetResponse(uint8_t number, uint16_t address, uint16_t length, uint8_t type){
    reactStr[0][number]=address;
    324e:	e1 e0       	ldi	r30, 0x01	; 1
    3250:	e5 0d       	add	r30, r5
    3252:	f0 e0       	ldi	r31, 0x00	; 0
    3254:	53 94       	inc	r5
    3256:	53 94       	inc	r5
    3258:	df 01       	movw	r26, r30
    325a:	aa 0f       	add	r26, r26
    325c:	bb 1f       	adc	r27, r27
    325e:	a3 5e       	subi	r26, 0xE3	; 227
    3260:	b6 4c       	sbci	r27, 0xC6	; 198
    3262:	cd 92       	st	X+, r12
    3264:	dc 92       	st	X, r13
    reactStr[1][number]=length;
    3266:	df 01       	movw	r26, r30
    3268:	aa 0f       	add	r26, r26
    326a:	bb 1f       	adc	r27, r27
    326c:	a3 5a       	subi	r26, 0xA3	; 163
    326e:	b6 4c       	sbci	r27, 0xC6	; 198
    3270:	ad 92       	st	X+, r10
    3272:	bc 92       	st	X, r11
    reactStr[2][number]=type;
    3274:	ee 0f       	add	r30, r30
    3276:	ff 1f       	adc	r31, r31
    3278:	e3 56       	subi	r30, 0x63	; 99
    327a:	f6 4c       	sbci	r31, 0xC6	; 198
    327c:	80 82       	st	Z, r8
    327e:	91 82       	std	Z+1, r9	; 0x01
                SetResponse(elements++, A_EMPTYHANDS, L_EMPTYHANDS, TEASER);
            } else {
                SetResponse(elements++, A_NOWCARRING, L_NOWCARRING, TEASER);
                //SetResponse(elements++, A_SPACE, L_SPACE, TEASER);
                
                for (uint8_t x=0; x<2; ++x) {
    3280:	6e 14       	cp	r6, r14
    3282:	7f 04       	cpc	r7, r15
    3284:	09 f0       	breq	.+2      	; 0x3288 <ProcessInput+0x7a8>
    3286:	bb cf       	rjmp	.-138    	; 0x31fe <ProcessInput+0x71e>
                        SetResponse(elements++, actObj1.addrStr[NAME], actObj1.lenStr[NAME], GAME);
                        SetResponse(elements++, A_COMMA, L_COMMA, TEASER);
                        //SetResponse(elements++, A_SPACE, L_SPACE, TEASER);
                    }
                }
                elements -= 1;
    3288:	77 24       	eor	r7, r7
    328a:	7a 94       	dec	r7
    328c:	75 0c       	add	r7, r5
    328e:	25 c4       	rjmp	.+2122   	; 0x3ada <ProcessInput+0xffa>
            }            
        
        //Talk, use, give, read
        } else if ((data[0] == 't')||(data[0] == 'u')||(data[0] == 'g')||(data[0] == 'r')) {
    3290:	9c e8       	ldi	r25, 0x8C	; 140
    3292:	98 0f       	add	r25, r24
    3294:	92 30       	cpi	r25, 0x02	; 2
    3296:	28 f0       	brcs	.+10     	; 0x32a2 <ProcessInput+0x7c2>
    3298:	87 36       	cpi	r24, 0x67	; 103
    329a:	19 f0       	breq	.+6      	; 0x32a2 <ProcessInput+0x7c2>
    329c:	82 37       	cpi	r24, 0x72	; 114
    329e:	09 f0       	breq	.+2      	; 0x32a2 <ProcessInput+0x7c2>
    32a0:	d7 c2       	rjmp	.+1454   	; 0x3850 <ProcessInput+0xd70>
            if ((inputLen<2)||(inputLen>3)) {
    32a2:	8e ef       	ldi	r24, 0xFE	; 254
    32a4:	8f 0d       	add	r24, r15
    32a6:	82 30       	cpi	r24, 0x02	; 2
    32a8:	08 f0       	brcs	.+2      	; 0x32ac <ProcessInput+0x7cc>
    32aa:	49 cc       	rjmp	.-1902   	; 0x2b3e <ProcessInput+0x5e>
                SetResponse(elements++, A_NOTPOSSIBLE, L_NOTPOSSIBLE, TEASER);                
            
            //Check for visible person or object first
            } else {
                route[currDepth+1] = FindChild(route[currDepth], data[inputLen-1], 0);
    32ac:	e0 91 2e 38 	lds	r30, 0x382E	; 0x80382e <currDepth>
    32b0:	ce 2e       	mov	r12, r30
    32b2:	d1 2c       	mov	r13, r1
    32b4:	d8 01       	movw	r26, r16
    32b6:	af 0d       	add	r26, r15
    32b8:	b1 1d       	adc	r27, r1
    32ba:	11 97       	sbiw	r26, 0x01	; 1
    32bc:	f6 01       	movw	r30, r12
    32be:	ee 0f       	add	r30, r30
    32c0:	ff 1f       	adc	r31, r31
    32c2:	e3 52       	subi	r30, 0x23	; 35
    32c4:	f6 4c       	sbci	r31, 0xC6	; 198
    32c6:	40 e0       	ldi	r20, 0x00	; 0
    32c8:	50 e0       	ldi	r21, 0x00	; 0
    32ca:	6c 91       	ld	r22, X
    32cc:	80 81       	ld	r24, Z
    32ce:	91 81       	ldd	r25, Z+1	; 0x01
    32d0:	15 d8       	rcall	.-4054   	; 0x22fc <FindChild>
    32d2:	f6 01       	movw	r30, r12
    32d4:	ee 0f       	add	r30, r30
    32d6:	ff 1f       	adc	r31, r31
    32d8:	e1 52       	subi	r30, 0x21	; 33
    32da:	f6 4c       	sbci	r31, 0xC6	; 198
    32dc:	80 83       	st	Z, r24
    32de:	91 83       	std	Z+1, r25	; 0x01
                if (route[currDepth+1]) {
    32e0:	e0 91 2e 38 	lds	r30, 0x382E	; 0x80382e <currDepth>
    32e4:	f0 e0       	ldi	r31, 0x00	; 0
    32e6:	ee 0f       	add	r30, r30
    32e8:	ff 1f       	adc	r31, r31
    32ea:	e1 52       	subi	r30, 0x21	; 33
    32ec:	f6 4c       	sbci	r31, 0xC6	; 198
    32ee:	80 81       	ld	r24, Z
    32f0:	91 81       	ldd	r25, Z+1	; 0x01
    32f2:	00 97       	sbiw	r24, 0x00	; 0
    32f4:	09 f4       	brne	.+2      	; 0x32f8 <ProcessInput+0x818>
    32f6:	9a c2       	rjmp	.+1332   	; 0x382c <ProcessInput+0xd4c>
                    
                    //Give item to person / use item on object 
                    if ((inputLen == 3)&&((data[0] == 'u')||(data[0] == 'g'))) {
    32f8:	b3 e0       	ldi	r27, 0x03	; 3
    32fa:	fb 12       	cpse	r15, r27
    32fc:	78 c1       	rjmp	.+752    	; 0x35ee <ProcessInput+0xb0e>
    32fe:	f8 01       	movw	r30, r16
    3300:	20 81       	ld	r18, Z
    3302:	25 37       	cpi	r18, 0x75	; 117
    3304:	19 f0       	breq	.+6      	; 0x330c <ProcessInput+0x82c>
    3306:	27 36       	cpi	r18, 0x67	; 103
    3308:	09 f0       	breq	.+2      	; 0x330c <ProcessInput+0x82c>
    330a:	71 c1       	rjmp	.+738    	; 0x35ee <ProcessInput+0xb0e>
    330c:	61 2c       	mov	r6, r1
    330e:	77 24       	eor	r7, r7
    3310:	73 94       	inc	r7
    return 0;
}

//
void SetResponse(uint8_t number, uint16_t address, uint16_t length, uint8_t type){
    reactStr[0][number]=address;
    3312:	51 e6       	ldi	r21, 0x61	; 97
    3314:	c5 2e       	mov	r12, r21
    3316:	59 e7       	ldi	r21, 0x79	; 121
    3318:	d5 2e       	mov	r13, r21
    reactStr[1][number]=length;
    331a:	61 e2       	ldi	r22, 0x21	; 33
    331c:	a6 2e       	mov	r10, r22
    331e:	b1 2c       	mov	r11, r1
    reactStr[2][number]=type;
    3320:	88 24       	eor	r8, r8
    3322:	83 94       	inc	r8
    3324:	91 2c       	mov	r9, r1
                if (route[currDepth+1]) {
                    
                    //Give item to person / use item on object 
                    if ((inputLen == 3)&&((data[0] == 'u')||(data[0] == 'g'))) {
                        for (uint8_t x=0; x<2; x++) {
                            if (inventory[x]) { 
    3326:	e6 2c       	mov	r14, r6
    3328:	f1 2c       	mov	r15, r1
    332a:	c7 01       	movw	r24, r14
    332c:	88 0f       	add	r24, r24
    332e:	99 1f       	adc	r25, r25
    3330:	9c 01       	movw	r18, r24
    3332:	20 5c       	subi	r18, 0xC0	; 192
    3334:	37 4c       	sbci	r19, 0xC7	; 199
    3336:	79 01       	movw	r14, r18
    3338:	d9 01       	movw	r26, r18
    333a:	8d 91       	ld	r24, X+
    333c:	9c 91       	ld	r25, X
    333e:	00 97       	sbiw	r24, 0x00	; 0
    3340:	81 f0       	breq	.+32     	; 0x3362 <ProcessInput+0x882>
                                if (CheckLetter(inventory[x], data[1])) {
    3342:	f8 01       	movw	r30, r16
    3344:	61 81       	ldd	r22, Z+1	; 0x01
    3346:	0e 94 2a 11 	call	0x2254	; 0x2254 <CheckLetter>
    334a:	88 23       	and	r24, r24
    334c:	51 f0       	breq	.+20     	; 0x3362 <ProcessInput+0x882>
                                    PopulateObject(inventory[x], &actObj2);
    334e:	61 eb       	ldi	r22, 0xB1	; 177
    3350:	78 e3       	ldi	r23, 0x38	; 56
    3352:	d7 01       	movw	r26, r14
    3354:	8d 91       	ld	r24, X+
    3356:	9c 91       	ld	r25, X
    3358:	0e 94 b3 10 	call	0x2166	; 0x2166 <PopulateObject>
                                    x = 2;
    335c:	32 e0       	ldi	r19, 0x02	; 2
    335e:	63 2e       	mov	r6, r19
    3360:	1e c0       	rjmp	.+60     	; 0x339e <ProcessInput+0x8be>
                                }
                            }
                            if (x == 1) { 
    3362:	b1 e0       	ldi	r27, 0x01	; 1
    3364:	6b 12       	cpse	r6, r27
    3366:	1a c0       	rjmp	.+52     	; 0x339c <ProcessInput+0x8bc>
    return 0;
}

//
void SetResponse(uint8_t number, uint16_t address, uint16_t length, uint8_t type){
    reactStr[0][number]=address;
    3368:	e7 2d       	mov	r30, r7
    336a:	f0 e0       	ldi	r31, 0x00	; 0
    336c:	df 01       	movw	r26, r30
    336e:	aa 0f       	add	r26, r26
    3370:	bb 1f       	adc	r27, r27
    3372:	a3 5e       	subi	r26, 0xE3	; 227
    3374:	b6 4c       	sbci	r27, 0xC6	; 198
    3376:	cd 92       	st	X+, r12
    3378:	dc 92       	st	X, r13
    reactStr[1][number]=length;
    337a:	df 01       	movw	r26, r30
    337c:	aa 0f       	add	r26, r26
    337e:	bb 1f       	adc	r27, r27
    3380:	a3 5a       	subi	r26, 0xA3	; 163
    3382:	b6 4c       	sbci	r27, 0xC6	; 198
    3384:	ad 92       	st	X+, r10
    3386:	bc 92       	st	X, r11
    reactStr[2][number]=type;
    3388:	ee 0f       	add	r30, r30
    338a:	ff 1f       	adc	r31, r31
    338c:	e3 56       	subi	r30, 0x63	; 99
    338e:	f6 4c       	sbci	r31, 0xC6	; 198
    3390:	80 82       	st	Z, r8
    3392:	91 82       	std	Z+1, r9	; 0x01
                                    x = 2;
                                }
                            }
                            if (x == 1) { 
                                SetResponse(elements++, A_NOTCARRYING, L_NOTCARRYING, TEASER);
                                data[0] = 0;
    3394:	f8 01       	movw	r30, r16
    3396:	10 82       	st	Z, r1
                                    PopulateObject(inventory[x], &actObj2);
                                    x = 2;
                                }
                            }
                            if (x == 1) { 
                                SetResponse(elements++, A_NOTCARRYING, L_NOTCARRYING, TEASER);
    3398:	73 94       	inc	r7
    339a:	01 c0       	rjmp	.+2      	; 0x339e <ProcessInput+0x8be>
    339c:	61 2c       	mov	r6, r1
                route[currDepth+1] = FindChild(route[currDepth], data[inputLen-1], 0);
                if (route[currDepth+1]) {
                    
                    //Give item to person / use item on object 
                    if ((inputLen == 3)&&((data[0] == 'u')||(data[0] == 'g'))) {
                        for (uint8_t x=0; x<2; x++) {
    339e:	63 94       	inc	r6
    33a0:	f1 e0       	ldi	r31, 0x01	; 1
    33a2:	6f 16       	cp	r6, r31
    33a4:	09 f4       	brne	.+2      	; 0x33a8 <ProcessInput+0x8c8>
    33a6:	bf cf       	rjmp	.-130    	; 0x3326 <ProcessInput+0x846>
                                data[0] = 0;
                            }
                        }

                        //Both the item and person/object are found, check if action is legit
                        if (data[0]){
    33a8:	d8 01       	movw	r26, r16
    33aa:	8c 91       	ld	r24, X
    33ac:	88 23       	and	r24, r24
    33ae:	09 f4       	brne	.+2      	; 0x33b2 <ProcessInput+0x8d2>
    33b0:	94 c3       	rjmp	.+1832   	; 0x3ada <ProcessInput+0xffa>
                            PopulateObject(route[currDepth+1], &actObj1);
    33b2:	e0 91 2e 38 	lds	r30, 0x382E	; 0x80382e <currDepth>
    33b6:	f0 e0       	ldi	r31, 0x00	; 0
    33b8:	ee 0f       	add	r30, r30
    33ba:	ff 1f       	adc	r31, r31
    33bc:	e1 52       	subi	r30, 0x21	; 33
    33be:	f6 4c       	sbci	r31, 0xC6	; 198
    33c0:	6c ed       	ldi	r22, 0xDC	; 220
    33c2:	78 e3       	ldi	r23, 0x38	; 56
    33c4:	80 81       	ld	r24, Z
    33c6:	91 81       	ldd	r25, Z+1	; 0x01
    33c8:	0e 94 b3 10 	call	0x2166	; 0x2166 <PopulateObject>

                            //Special game
                            if (actObj1.lenStr[ACTION_STR1] == 1) {
    33cc:	e0 90 fa 38 	lds	r14, 0x38FA	; 0x8038fa <actObj1.3996+0x1e>
    33d0:	f0 90 fb 38 	lds	r15, 0x38FB	; 0x8038fb <actObj1.3996+0x1f>
    33d4:	b1 e0       	ldi	r27, 0x01	; 1
    33d6:	eb 16       	cp	r14, r27
    33d8:	f1 04       	cpc	r15, r1
    33da:	09 f0       	breq	.+2      	; 0x33de <ProcessInput+0x8fe>
    33dc:	9a c0       	rjmp	.+308    	; 0x3512 <ProcessInput+0xa32>
                                ExtEERead(actObj1.addrStr[ACTION_STR1], 1, GAME, &data[2]);
    33de:	98 01       	movw	r18, r16
    33e0:	2e 5f       	subi	r18, 0xFE	; 254
    33e2:	3f 4f       	sbci	r19, 0xFF	; 255
    33e4:	40 e0       	ldi	r20, 0x00	; 0
    33e6:	61 e0       	ldi	r22, 0x01	; 1
    33e8:	80 91 ec 38 	lds	r24, 0x38EC	; 0x8038ec <actObj1.3996+0x10>
    33ec:	90 91 ed 38 	lds	r25, 0x38ED	; 0x8038ed <actObj1.3996+0x11>
    33f0:	0e 94 a3 0f 	call	0x1f46	; 0x1f46 <ExtEERead>
                                if (data[2] == '1') {
    33f4:	f8 01       	movw	r30, r16
    33f6:	42 81       	ldd	r20, Z+2	; 0x02
    33f8:	21 e0       	ldi	r18, 0x01	; 1
    33fa:	27 0d       	add	r18, r7
    33fc:	87 2d       	mov	r24, r7
    33fe:	90 e0       	ldi	r25, 0x00	; 0
    3400:	41 33       	cpi	r20, 0x31	; 49
    3402:	09 f0       	breq	.+2      	; 0x3406 <ProcessInput+0x926>
    3404:	6b c0       	rjmp	.+214    	; 0x34dc <ProcessInput+0x9fc>
                                    uint8_t item = actObj2.byteField[ITEM_NR];
    3406:	30 91 bc 38 	lds	r19, 0x38BC	; 0x8038bc <actObj2.3997+0xb>
                                    if ((item < 31)||(item > 34)) {
    340a:	51 ee       	ldi	r21, 0xE1	; 225
    340c:	53 0f       	add	r21, r19
    return 0;
}

//
void SetResponse(uint8_t number, uint16_t address, uint16_t length, uint8_t type){
    reactStr[0][number]=address;
    340e:	fc 01       	movw	r30, r24
    3410:	ee 0f       	add	r30, r30
    3412:	ff 1f       	adc	r31, r31
    3414:	e3 5e       	subi	r30, 0xE3	; 227
    3416:	f6 4c       	sbci	r31, 0xC6	; 198
                            //Special game
                            if (actObj1.lenStr[ACTION_STR1] == 1) {
                                ExtEERead(actObj1.addrStr[ACTION_STR1], 1, GAME, &data[2]);
                                if (data[2] == '1') {
                                    uint8_t item = actObj2.byteField[ITEM_NR];
                                    if ((item < 31)||(item > 34)) {
    3418:	54 30       	cpi	r21, 0x04	; 4
    341a:	60 f0       	brcs	.+24     	; 0x3434 <ProcessInput+0x954>
    return 0;
}

//
void SetResponse(uint8_t number, uint16_t address, uint16_t length, uint8_t type){
    reactStr[0][number]=address;
    341c:	41 e0       	ldi	r20, 0x01	; 1
    341e:	59 e7       	ldi	r21, 0x79	; 121
    3420:	40 83       	st	Z, r20
    3422:	51 83       	std	Z+1, r21	; 0x01
    reactStr[1][number]=length;
    3424:	fc 01       	movw	r30, r24
    3426:	ee 0f       	add	r30, r30
    3428:	ff 1f       	adc	r31, r31
    342a:	e3 5a       	subi	r30, 0xA3	; 163
    342c:	f6 4c       	sbci	r31, 0xC6	; 198
    342e:	4a e1       	ldi	r20, 0x1A	; 26
    3430:	50 e0       	ldi	r21, 0x00	; 0
    3432:	64 c0       	rjmp	.+200    	; 0x34fc <ProcessInput+0xa1c>
    return 0;
}

//
void SetResponse(uint8_t number, uint16_t address, uint16_t length, uint8_t type){
    reactStr[0][number]=address;
    3434:	60 e5       	ldi	r22, 0x50	; 80
    3436:	75 e7       	ldi	r23, 0x75	; 117
    3438:	60 83       	st	Z, r22
    343a:	71 83       	std	Z+1, r23	; 0x01
    reactStr[1][number]=length;
    343c:	fc 01       	movw	r30, r24
    343e:	ee 0f       	add	r30, r30
    3440:	ff 1f       	adc	r31, r31
    3442:	e3 5a       	subi	r30, 0xA3	; 163
    3444:	f6 4c       	sbci	r31, 0xC6	; 198
    3446:	62 eb       	ldi	r22, 0xB2	; 178
    3448:	70 e0       	ldi	r23, 0x00	; 0
    344a:	60 83       	st	Z, r22
    344c:	71 83       	std	Z+1, r23	; 0x01
    reactStr[2][number]=type;
    344e:	88 0f       	add	r24, r24
    3450:	99 1f       	adc	r25, r25
    3452:	fc 01       	movw	r30, r24
    3454:	e3 56       	subi	r30, 0x63	; 99
    3456:	f6 4c       	sbci	r31, 0xC6	; 198
    3458:	e0 82       	st	Z, r14
    345a:	f1 82       	std	Z+1, r15	; 0x01
    return 0;
}

//
void SetResponse(uint8_t number, uint16_t address, uint16_t length, uint8_t type){
    reactStr[0][number]=address;
    345c:	82 2f       	mov	r24, r18
    345e:	90 e0       	ldi	r25, 0x00	; 0
    3460:	fc 01       	movw	r30, r24
    3462:	ee 0f       	add	r30, r30
    3464:	ff 1f       	adc	r31, r31
    3466:	e3 5e       	subi	r30, 0xE3	; 227
    3468:	f6 4c       	sbci	r31, 0xC6	; 198
    346a:	69 e5       	ldi	r22, 0x59	; 89
    346c:	7a e7       	ldi	r23, 0x7A	; 122
    346e:	60 83       	st	Z, r22
    3470:	71 83       	std	Z+1, r23	; 0x01
    reactStr[1][number]=length;
    3472:	fc 01       	movw	r30, r24
    3474:	ee 0f       	add	r30, r30
    3476:	ff 1f       	adc	r31, r31
    3478:	e3 5a       	subi	r30, 0xA3	; 163
    347a:	f6 4c       	sbci	r31, 0xC6	; 198
    347c:	62 e0       	ldi	r22, 0x02	; 2
    347e:	70 e0       	ldi	r23, 0x00	; 0
    3480:	60 83       	st	Z, r22
    3482:	71 83       	std	Z+1, r23	; 0x01
    reactStr[2][number]=type;
    3484:	88 0f       	add	r24, r24
    3486:	99 1f       	adc	r25, r25
    3488:	fc 01       	movw	r30, r24
    348a:	e3 56       	subi	r30, 0x63	; 99
    348c:	f6 4c       	sbci	r31, 0xC6	; 198
    348e:	e0 82       	st	Z, r14
    3490:	f1 82       	std	Z+1, r15	; 0x01
    return 0;
}

//
void SetResponse(uint8_t number, uint16_t address, uint16_t length, uint8_t type){
    reactStr[0][number]=address;
    3492:	82 e0       	ldi	r24, 0x02	; 2
    3494:	87 0d       	add	r24, r7
    3496:	90 e0       	ldi	r25, 0x00	; 0
    3498:	f3 e0       	ldi	r31, 0x03	; 3
    349a:	7f 0e       	add	r7, r31
    349c:	fc 01       	movw	r30, r24
    349e:	ee 0f       	add	r30, r30
    34a0:	ff 1f       	adc	r31, r31
    34a2:	e3 5e       	subi	r30, 0xE3	; 227
    34a4:	f6 4c       	sbci	r31, 0xC6	; 198
    34a6:	6d ea       	ldi	r22, 0xAD	; 173
    34a8:	78 e7       	ldi	r23, 0x78	; 120
    34aa:	60 83       	st	Z, r22
    34ac:	71 83       	std	Z+1, r23	; 0x01
    reactStr[1][number]=length;
    34ae:	fc 01       	movw	r30, r24
    34b0:	ee 0f       	add	r30, r30
    34b2:	ff 1f       	adc	r31, r31
    34b4:	e3 5a       	subi	r30, 0xA3	; 163
    34b6:	f6 4c       	sbci	r31, 0xC6	; 198
    34b8:	62 e1       	ldi	r22, 0x12	; 18
    34ba:	70 e0       	ldi	r23, 0x00	; 0
    34bc:	60 83       	st	Z, r22
    34be:	71 83       	std	Z+1, r23	; 0x01
    reactStr[2][number]=type;
    34c0:	88 0f       	add	r24, r24
    34c2:	99 1f       	adc	r25, r25
    34c4:	fc 01       	movw	r30, r24
    34c6:	e3 56       	subi	r30, 0x63	; 99
    34c8:	f6 4c       	sbci	r31, 0xC6	; 198
    34ca:	e0 82       	st	Z, r14
    34cc:	f1 82       	std	Z+1, r15	; 0x01
                                        SetResponse(elements++, A_CANTUSE, L_CANTUSE, TEASER);
                                    } else {
                                        SetResponse(elements++, A_PRIEST, L_PRIEST, TEASER);
                                        SetResponse(elements++, A_LF, 2, TEASER);
                                        SetResponse(elements++, A_RESPONSE, L_RESPONSE, TEASER);
                                        specialInput[0] = '1';
    34ce:	40 93 0c 39 	sts	0x390C, r20	; 0x80390c <specialInput>
                                        specialInput[1] = item;
    34d2:	30 93 0d 39 	sts	0x390D, r19	; 0x80390d <specialInput+0x1>
                                        specialInput[2] = 0;
    34d6:	10 92 0e 39 	sts	0x390E, r1	; 0x80390e <specialInput+0x2>
    34da:	ff c2       	rjmp	.+1534   	; 0x3ada <ProcessInput+0xffa>
    return 0;
}

//
void SetResponse(uint8_t number, uint16_t address, uint16_t length, uint8_t type){
    reactStr[0][number]=address;
    34dc:	fc 01       	movw	r30, r24
    34de:	ee 0f       	add	r30, r30
    34e0:	ff 1f       	adc	r31, r31
    34e2:	e3 5e       	subi	r30, 0xE3	; 227
    34e4:	f6 4c       	sbci	r31, 0xC6	; 198
    34e6:	42 e0       	ldi	r20, 0x02	; 2
    34e8:	56 e7       	ldi	r21, 0x76	; 118
    34ea:	40 83       	st	Z, r20
    34ec:	51 83       	std	Z+1, r21	; 0x01
    reactStr[1][number]=length;
    34ee:	fc 01       	movw	r30, r24
    34f0:	ee 0f       	add	r30, r30
    34f2:	ff 1f       	adc	r31, r31
    34f4:	e3 5a       	subi	r30, 0xA3	; 163
    34f6:	f6 4c       	sbci	r31, 0xC6	; 198
    34f8:	42 e4       	ldi	r20, 0x42	; 66
    34fa:	50 e0       	ldi	r21, 0x00	; 0
    34fc:	40 83       	st	Z, r20
    34fe:	51 83       	std	Z+1, r21	; 0x01
    reactStr[2][number]=type;
    3500:	88 0f       	add	r24, r24
    3502:	99 1f       	adc	r25, r25
    3504:	fc 01       	movw	r30, r24
    3506:	e3 56       	subi	r30, 0x63	; 99
    3508:	f6 4c       	sbci	r31, 0xC6	; 198
    350a:	e0 82       	st	Z, r14
    350c:	f1 82       	std	Z+1, r15	; 0x01
                                        specialInput[2] = 0;
                                    }

                                //There should not be another special
                                } else {
                                    SetResponse(elements++, A_ERROR, L_ERROR, TEASER);
    350e:	72 2e       	mov	r7, r18
    3510:	e4 c2       	rjmp	.+1480   	; 0x3ada <ProcessInput+0xffa>
                                }

                            //Normal "use ... on ..." or "give ... to ..." action
                            } else if (actObj1.byteField[ACTION_ITEM] == actObj2.byteField[ITEM_NR]) {
    3512:	90 91 e5 38 	lds	r25, 0x38E5	; 0x8038e5 <actObj1.3996+0x9>
    3516:	80 91 bc 38 	lds	r24, 0x38BC	; 0x8038bc <actObj2.3997+0xb>
    351a:	98 13       	cpse	r25, r24
    351c:	2f c0       	rjmp	.+94     	; 0x357c <ProcessInput+0xa9c>
                                SetResponse(elements++, actObj1.addrStr[ACTION_MSG], actObj1.lenStr[ACTION_MSG], GAME);
    351e:	20 91 02 39 	lds	r18, 0x3902	; 0x803902 <actObj1.3996+0x26>
    3522:	30 91 03 39 	lds	r19, 0x3903	; 0x803903 <actObj1.3996+0x27>
    3526:	ff 24       	eor	r15, r15
    3528:	f3 94       	inc	r15
    352a:	f7 0c       	add	r15, r7
    return 0;
}

//
void SetResponse(uint8_t number, uint16_t address, uint16_t length, uint8_t type){
    reactStr[0][number]=address;
    352c:	87 2d       	mov	r24, r7
    352e:	90 e0       	ldi	r25, 0x00	; 0
    3530:	fc 01       	movw	r30, r24
    3532:	ee 0f       	add	r30, r30
    3534:	ff 1f       	adc	r31, r31
    3536:	e3 5e       	subi	r30, 0xE3	; 227
    3538:	f6 4c       	sbci	r31, 0xC6	; 198
    353a:	40 91 f4 38 	lds	r20, 0x38F4	; 0x8038f4 <actObj1.3996+0x18>
    353e:	50 91 f5 38 	lds	r21, 0x38F5	; 0x8038f5 <actObj1.3996+0x19>
    3542:	40 83       	st	Z, r20
    3544:	51 83       	std	Z+1, r21	; 0x01
    reactStr[1][number]=length;
    3546:	fc 01       	movw	r30, r24
    3548:	ee 0f       	add	r30, r30
    354a:	ff 1f       	adc	r31, r31
    354c:	e3 5a       	subi	r30, 0xA3	; 163
    354e:	f6 4c       	sbci	r31, 0xC6	; 198
    3550:	20 83       	st	Z, r18
    3552:	31 83       	std	Z+1, r19	; 0x01
    reactStr[2][number]=type;
    3554:	88 0f       	add	r24, r24
    3556:	99 1f       	adc	r25, r25
    3558:	fc 01       	movw	r30, r24
    355a:	e3 56       	subi	r30, 0x63	; 99
    355c:	f6 4c       	sbci	r31, 0xC6	; 198
    355e:	10 82       	st	Z, r1
    3560:	11 82       	std	Z+1, r1	; 0x01
                                }

                            //Normal "use ... on ..." or "give ... to ..." action
                            } else if (actObj1.byteField[ACTION_ITEM] == actObj2.byteField[ITEM_NR]) {
                                SetResponse(elements++, actObj1.addrStr[ACTION_MSG], actObj1.lenStr[ACTION_MSG], GAME);
                                effect = actObj1.effect[2];
    3562:	80 91 06 39 	lds	r24, 0x3906	; 0x803906 <actObj1.3996+0x2a>
    3566:	90 e0       	ldi	r25, 0x00	; 0
    3568:	80 93 3c 38 	sts	0x383C, r24	; 0x80383c <effect>
    356c:	90 93 3d 38 	sts	0x383D, r25	; 0x80383d <effect+0x1>
                                UpdateState(actObj1.byteField[ACTION_STATE]);
    3570:	80 91 e6 38 	lds	r24, 0x38E6	; 0x8038e6 <actObj1.3996+0xa>
    3574:	0e 94 0d 0a 	call	0x141a	; 0x141a <UpdateState>
                                    SetResponse(elements++, A_ERROR, L_ERROR, TEASER);
                                }

                            //Normal "use ... on ..." or "give ... to ..." action
                            } else if (actObj1.byteField[ACTION_ITEM] == actObj2.byteField[ITEM_NR]) {
                                SetResponse(elements++, actObj1.addrStr[ACTION_MSG], actObj1.lenStr[ACTION_MSG], GAME);
    3578:	7f 2c       	mov	r7, r15
    357a:	af c2       	rjmp	.+1374   	; 0x3ada <ProcessInput+0xffa>
                                effect = actObj1.effect[2];
                                UpdateState(actObj1.byteField[ACTION_STATE]);
                                
                            } else {
                                if (data[0] == 'u') {
    357c:	d8 01       	movw	r26, r16
    357e:	8c 91       	ld	r24, X
    3580:	85 37       	cpi	r24, 0x75	; 117
    3582:	99 f4       	brne	.+38     	; 0x35aa <ProcessInput+0xaca>
    return 0;
}

//
void SetResponse(uint8_t number, uint16_t address, uint16_t length, uint8_t type){
    reactStr[0][number]=address;
    3584:	87 2d       	mov	r24, r7
    3586:	90 e0       	ldi	r25, 0x00	; 0
    3588:	fc 01       	movw	r30, r24
    358a:	ee 0f       	add	r30, r30
    358c:	ff 1f       	adc	r31, r31
    358e:	e3 5e       	subi	r30, 0xE3	; 227
    3590:	f6 4c       	sbci	r31, 0xC6	; 198
    3592:	21 e0       	ldi	r18, 0x01	; 1
    3594:	39 e7       	ldi	r19, 0x79	; 121
    3596:	20 83       	st	Z, r18
    3598:	31 83       	std	Z+1, r19	; 0x01
    reactStr[1][number]=length;
    359a:	fc 01       	movw	r30, r24
    359c:	ee 0f       	add	r30, r30
    359e:	ff 1f       	adc	r31, r31
    35a0:	e3 5a       	subi	r30, 0xA3	; 163
    35a2:	f6 4c       	sbci	r31, 0xC6	; 198
    35a4:	2a e1       	ldi	r18, 0x1A	; 26
    35a6:	30 e0       	ldi	r19, 0x00	; 0
    35a8:	15 c0       	rjmp	.+42     	; 0x35d4 <ProcessInput+0xaf4>
                                UpdateState(actObj1.byteField[ACTION_STATE]);
                                
                            } else {
                                if (data[0] == 'u') {
                                    SetResponse(elements++, A_CANTUSE, L_CANTUSE, TEASER);
                                } else if (data[0] == 'g') {
    35aa:	87 36       	cpi	r24, 0x67	; 103
    35ac:	09 f0       	breq	.+2      	; 0x35b0 <ProcessInput+0xad0>
    35ae:	95 c2       	rjmp	.+1322   	; 0x3ada <ProcessInput+0xffa>
    return 0;
}

//
void SetResponse(uint8_t number, uint16_t address, uint16_t length, uint8_t type){
    reactStr[0][number]=address;
    35b0:	87 2d       	mov	r24, r7
    35b2:	90 e0       	ldi	r25, 0x00	; 0
    35b4:	fc 01       	movw	r30, r24
    35b6:	ee 0f       	add	r30, r30
    35b8:	ff 1f       	adc	r31, r31
    35ba:	e3 5e       	subi	r30, 0xE3	; 227
    35bc:	f6 4c       	sbci	r31, 0xC6	; 198
    35be:	2f e9       	ldi	r18, 0x9F	; 159
    35c0:	36 e7       	ldi	r19, 0x76	; 118
    35c2:	20 83       	st	Z, r18
    35c4:	31 83       	std	Z+1, r19	; 0x01
    reactStr[1][number]=length;
    35c6:	fc 01       	movw	r30, r24
    35c8:	ee 0f       	add	r30, r30
    35ca:	ff 1f       	adc	r31, r31
    35cc:	e3 5a       	subi	r30, 0xA3	; 163
    35ce:	f6 4c       	sbci	r31, 0xC6	; 198
    35d0:	28 e2       	ldi	r18, 0x28	; 40
    35d2:	30 e0       	ldi	r19, 0x00	; 0
    35d4:	20 83       	st	Z, r18
    35d6:	31 83       	std	Z+1, r19	; 0x01
    reactStr[2][number]=type;
    35d8:	88 0f       	add	r24, r24
    35da:	99 1f       	adc	r25, r25
    35dc:	fc 01       	movw	r30, r24
    35de:	e3 56       	subi	r30, 0x63	; 99
    35e0:	f6 4c       	sbci	r31, 0xC6	; 198
    35e2:	81 e0       	ldi	r24, 0x01	; 1
    35e4:	90 e0       	ldi	r25, 0x00	; 0
    35e6:	80 83       	st	Z, r24
    35e8:	91 83       	std	Z+1, r25	; 0x01
                                
                            } else {
                                if (data[0] == 'u') {
                                    SetResponse(elements++, A_CANTUSE, L_CANTUSE, TEASER);
                                } else if (data[0] == 'g') {
                                    SetResponse(elements++, A_CANTGIVE, L_CANTGIVE, TEASER);                                    
    35ea:	73 94       	inc	r7
    35ec:	76 c2       	rjmp	.+1260   	; 0x3ada <ProcessInput+0xffa>
                            }
                        }
                    
                    //Talk to person, read or use object (without item)                          
                    } else {
                        PopulateObject(route[currDepth+1], &actObj1);
    35ee:	6c ed       	ldi	r22, 0xDC	; 220
    35f0:	78 e3       	ldi	r23, 0x38	; 56
    35f2:	0e 94 b3 10 	call	0x2166	; 0x2166 <PopulateObject>
                        if ((data[0] == 't')&&((actObj1.byteField[ACTION_MASK]&TALK) == 0)) {
    35f6:	f8 01       	movw	r30, r16
    35f8:	80 81       	ld	r24, Z
    35fa:	84 37       	cpi	r24, 0x74	; 116
    35fc:	69 f5       	brne	.+90     	; 0x3658 <ProcessInput+0xb78>
    35fe:	80 91 e4 38 	lds	r24, 0x38E4	; 0x8038e4 <actObj1.3996+0x8>
    3602:	83 fd       	sbrc	r24, 3
    3604:	4a c0       	rjmp	.+148    	; 0x369a <ProcessInput+0xbba>
    return 0;
}

//
void SetResponse(uint8_t number, uint16_t address, uint16_t length, uint8_t type){
    reactStr[0][number]=address;
    3606:	8b e1       	ldi	r24, 0x1B	; 27
    3608:	99 e7       	ldi	r25, 0x79	; 121
    360a:	80 93 1f 39 	sts	0x391F, r24	; 0x80391f <reactStr+0x2>
    360e:	90 93 20 39 	sts	0x3920, r25	; 0x803920 <reactStr+0x3>
    reactStr[1][number]=length;
    3612:	8e e1       	ldi	r24, 0x1E	; 30
    3614:	90 e0       	ldi	r25, 0x00	; 0
    3616:	80 93 5f 39 	sts	0x395F, r24	; 0x80395f <reactStr+0x42>
    361a:	90 93 60 39 	sts	0x3960, r25	; 0x803960 <reactStr+0x43>
    reactStr[2][number]=type;
    361e:	81 e0       	ldi	r24, 0x01	; 1
    3620:	90 e0       	ldi	r25, 0x00	; 0
    3622:	80 93 9f 39 	sts	0x399F, r24	; 0x80399f <reactStr+0x82>
    3626:	90 93 a0 39 	sts	0x39A0, r25	; 0x8039a0 <reactStr+0x83>
                    //Talk to person, read or use object (without item)                          
                    } else {
                        PopulateObject(route[currDepth+1], &actObj1);
                        if ((data[0] == 't')&&((actObj1.byteField[ACTION_MASK]&TALK) == 0)) {
                            SetResponse(elements++, A_WHYTALK, L_WHYTALK, TEASER);
                            SetResponse(elements++, actObj1.addrStr[NAME], actObj1.lenStr[NAME], GAME);
    362a:	80 91 f6 38 	lds	r24, 0x38F6	; 0x8038f6 <actObj1.3996+0x1a>
    362e:	90 91 f7 38 	lds	r25, 0x38F7	; 0x8038f7 <actObj1.3996+0x1b>
    return 0;
}

//
void SetResponse(uint8_t number, uint16_t address, uint16_t length, uint8_t type){
    reactStr[0][number]=address;
    3632:	20 91 e8 38 	lds	r18, 0x38E8	; 0x8038e8 <actObj1.3996+0xc>
    3636:	30 91 e9 38 	lds	r19, 0x38E9	; 0x8038e9 <actObj1.3996+0xd>
    363a:	20 93 21 39 	sts	0x3921, r18	; 0x803921 <reactStr+0x4>
    363e:	30 93 22 39 	sts	0x3922, r19	; 0x803922 <reactStr+0x5>
    reactStr[1][number]=length;
    3642:	80 93 61 39 	sts	0x3961, r24	; 0x803961 <reactStr+0x44>
    3646:	90 93 62 39 	sts	0x3962, r25	; 0x803962 <reactStr+0x45>
    reactStr[2][number]=type;
    364a:	10 92 a1 39 	sts	0x39A1, r1	; 0x8039a1 <reactStr+0x84>
    364e:	10 92 a2 39 	sts	0x39A2, r1	; 0x8039a2 <reactStr+0x85>
                    //Talk to person, read or use object (without item)                          
                    } else {
                        PopulateObject(route[currDepth+1], &actObj1);
                        if ((data[0] == 't')&&((actObj1.byteField[ACTION_MASK]&TALK) == 0)) {
                            SetResponse(elements++, A_WHYTALK, L_WHYTALK, TEASER);
                            SetResponse(elements++, actObj1.addrStr[NAME], actObj1.lenStr[NAME], GAME);
    3652:	e3 e0       	ldi	r30, 0x03	; 3
    3654:	7e 2e       	mov	r7, r30
    3656:	41 c2       	rjmp	.+1154   	; 0x3ada <ProcessInput+0xffa>
                        } else if ((data[0] == 'u')&&((actObj1.byteField[ACTION_MASK]&USE) == 0)) {
    3658:	85 37       	cpi	r24, 0x75	; 117
    365a:	69 f4       	brne	.+26     	; 0x3676 <ProcessInput+0xb96>
    365c:	80 91 e4 38 	lds	r24, 0x38E4	; 0x8038e4 <actObj1.3996+0x8>
    3660:	84 fd       	sbrc	r24, 4
    3662:	1b c0       	rjmp	.+54     	; 0x369a <ProcessInput+0xbba>
    return 0;
}

//
void SetResponse(uint8_t number, uint16_t address, uint16_t length, uint8_t type){
    reactStr[0][number]=address;
    3664:	81 e0       	ldi	r24, 0x01	; 1
    3666:	99 e7       	ldi	r25, 0x79	; 121
    3668:	80 93 1f 39 	sts	0x391F, r24	; 0x80391f <reactStr+0x2>
    366c:	90 93 20 39 	sts	0x3920, r25	; 0x803920 <reactStr+0x3>
    reactStr[1][number]=length;
    3670:	8a e1       	ldi	r24, 0x1A	; 26
    3672:	90 e0       	ldi	r25, 0x00	; 0
    3674:	f9 ca       	rjmp	.-2574   	; 0x2c68 <ProcessInput+0x188>
                        if ((data[0] == 't')&&((actObj1.byteField[ACTION_MASK]&TALK) == 0)) {
                            SetResponse(elements++, A_WHYTALK, L_WHYTALK, TEASER);
                            SetResponse(elements++, actObj1.addrStr[NAME], actObj1.lenStr[NAME], GAME);
                        } else if ((data[0] == 'u')&&((actObj1.byteField[ACTION_MASK]&USE) == 0)) {
                            SetResponse(elements++, A_CANTUSE, L_CANTUSE, TEASER);
                        } else if ((data[0] == 'r')&&((actObj1.byteField[ACTION_MASK]&READ) == 0)) {
    3676:	82 37       	cpi	r24, 0x72	; 114
    3678:	69 f4       	brne	.+26     	; 0x3694 <ProcessInput+0xbb4>
    367a:	80 91 e4 38 	lds	r24, 0x38E4	; 0x8038e4 <actObj1.3996+0x8>
    367e:	85 fd       	sbrc	r24, 5
    3680:	0c c0       	rjmp	.+24     	; 0x369a <ProcessInput+0xbba>
    return 0;
}

//
void SetResponse(uint8_t number, uint16_t address, uint16_t length, uint8_t type){
    reactStr[0][number]=address;
    3682:	86 ee       	ldi	r24, 0xE6	; 230
    3684:	98 e7       	ldi	r25, 0x78	; 120
    3686:	80 93 1f 39 	sts	0x391F, r24	; 0x80391f <reactStr+0x2>
    368a:	90 93 20 39 	sts	0x3920, r25	; 0x803920 <reactStr+0x3>
    reactStr[1][number]=length;
    368e:	8b e1       	ldi	r24, 0x1B	; 27
    3690:	90 e0       	ldi	r25, 0x00	; 0
    3692:	ea ca       	rjmp	.-2604   	; 0x2c68 <ProcessInput+0x188>
                            SetResponse(elements++, actObj1.addrStr[NAME], actObj1.lenStr[NAME], GAME);
                        } else if ((data[0] == 'u')&&((actObj1.byteField[ACTION_MASK]&USE) == 0)) {
                            SetResponse(elements++, A_CANTUSE, L_CANTUSE, TEASER);
                        } else if ((data[0] == 'r')&&((actObj1.byteField[ACTION_MASK]&READ) == 0)) {
                            SetResponse(elements++, A_CANTREAD, L_CANTREAD, TEASER);
                        } else if (data[0] == 'g'){ 
    3694:	87 36       	cpi	r24, 0x67	; 103
    3696:	09 f4       	brne	.+2      	; 0x369a <ProcessInput+0xbba>
    3698:	52 ca       	rjmp	.-2908   	; 0x2b3e <ProcessInput+0x5e>
                            SetResponse(elements++, A_NOTPOSSIBLE, L_NOTPOSSIBLE, TEASER);  
                        } else {

                            //Special game, not enough characters
                            if (actObj1.lenStr[ACTION_STR1] == 1) {
    369a:	e0 90 fa 38 	lds	r14, 0x38FA	; 0x8038fa <actObj1.3996+0x1e>
    369e:	f0 90 fb 38 	lds	r15, 0x38FB	; 0x8038fb <actObj1.3996+0x1f>
    36a2:	f1 e0       	ldi	r31, 0x01	; 1
    36a4:	ef 16       	cp	r14, r31
    36a6:	f1 04       	cpc	r15, r1
    36a8:	11 f5       	brne	.+68     	; 0x36ee <ProcessInput+0xc0e>
                                ExtEERead(actObj1.addrStr[ACTION_STR1], 1, GAME, &data[2]);
    36aa:	98 01       	movw	r18, r16
    36ac:	2e 5f       	subi	r18, 0xFE	; 254
    36ae:	3f 4f       	sbci	r19, 0xFF	; 255
    36b0:	40 e0       	ldi	r20, 0x00	; 0
    36b2:	61 e0       	ldi	r22, 0x01	; 1
    36b4:	80 91 ec 38 	lds	r24, 0x38EC	; 0x8038ec <actObj1.3996+0x10>
    36b8:	90 91 ed 38 	lds	r25, 0x38ED	; 0x8038ed <actObj1.3996+0x11>
    36bc:	0e 94 a3 0f 	call	0x1f46	; 0x1f46 <ExtEERead>
                                if (data[2] == '1') {
    36c0:	d8 01       	movw	r26, r16
    36c2:	12 96       	adiw	r26, 0x02	; 2
    36c4:	8c 91       	ld	r24, X
    36c6:	81 33       	cpi	r24, 0x31	; 49
    36c8:	09 f0       	breq	.+2      	; 0x36cc <ProcessInput+0xbec>
    36ca:	8a cc       	rjmp	.-1772   	; 0x2fe0 <ProcessInput+0x500>
    return 0;
}

//
void SetResponse(uint8_t number, uint16_t address, uint16_t length, uint8_t type){
    reactStr[0][number]=address;
    36cc:	85 e2       	ldi	r24, 0x25	; 37
    36ce:	95 e7       	ldi	r25, 0x75	; 117
    36d0:	80 93 1f 39 	sts	0x391F, r24	; 0x80391f <reactStr+0x2>
    36d4:	90 93 20 39 	sts	0x3920, r25	; 0x803920 <reactStr+0x3>
    reactStr[1][number]=length;
    36d8:	8b e2       	ldi	r24, 0x2B	; 43
    36da:	90 e0       	ldi	r25, 0x00	; 0
    36dc:	80 93 5f 39 	sts	0x395F, r24	; 0x80395f <reactStr+0x42>
    36e0:	90 93 60 39 	sts	0x3960, r25	; 0x803960 <reactStr+0x43>
    reactStr[2][number]=type;
    36e4:	e0 92 9f 39 	sts	0x399F, r14	; 0x80399f <reactStr+0x82>
    36e8:	f0 92 a0 39 	sts	0x39A0, r15	; 0x8039a0 <reactStr+0x83>
    36ec:	c7 ca       	rjmp	.-2674   	; 0x2c7c <ProcessInput+0x19c>
                                if (data[2] == '1') {
                                    SetResponse(elements++, A_PLEASEOFFER, L_PLEASEOFFER, TEASER);
                                }

                            //General request
                            } else if (actObj1.lenStr[ACTION_STR1]) {
    36ee:	e1 14       	cp	r14, r1
    36f0:	f1 04       	cpc	r15, r1
    36f2:	09 f4       	brne	.+2      	; 0x36f6 <ProcessInput+0xc16>
    36f4:	59 c0       	rjmp	.+178    	; 0x37a8 <ProcessInput+0xcc8>
    return 0;
}

//
void SetResponse(uint8_t number, uint16_t address, uint16_t length, uint8_t type){
    reactStr[0][number]=address;
    36f6:	80 91 ec 38 	lds	r24, 0x38EC	; 0x8038ec <actObj1.3996+0x10>
    36fa:	90 91 ed 38 	lds	r25, 0x38ED	; 0x8038ed <actObj1.3996+0x11>
    36fe:	80 93 1f 39 	sts	0x391F, r24	; 0x80391f <reactStr+0x2>
    3702:	90 93 20 39 	sts	0x3920, r25	; 0x803920 <reactStr+0x3>
    reactStr[1][number]=length;
    3706:	e0 92 5f 39 	sts	0x395F, r14	; 0x80395f <reactStr+0x42>
    370a:	f0 92 60 39 	sts	0x3960, r15	; 0x803960 <reactStr+0x43>
    reactStr[2][number]=type;
    370e:	10 92 9f 39 	sts	0x399F, r1	; 0x80399f <reactStr+0x82>
    3712:	10 92 a0 39 	sts	0x39A0, r1	; 0x8039a0 <reactStr+0x83>
    return 0;
}

//
void SetResponse(uint8_t number, uint16_t address, uint16_t length, uint8_t type){
    reactStr[0][number]=address;
    3716:	89 e5       	ldi	r24, 0x59	; 89
    3718:	9a e7       	ldi	r25, 0x7A	; 122
    371a:	80 93 21 39 	sts	0x3921, r24	; 0x803921 <reactStr+0x4>
    371e:	90 93 22 39 	sts	0x3922, r25	; 0x803922 <reactStr+0x5>
    reactStr[1][number]=length;
    3722:	82 e0       	ldi	r24, 0x02	; 2
    3724:	90 e0       	ldi	r25, 0x00	; 0
    3726:	80 93 61 39 	sts	0x3961, r24	; 0x803961 <reactStr+0x44>
    372a:	90 93 62 39 	sts	0x3962, r25	; 0x803962 <reactStr+0x45>
    reactStr[2][number]=type;
    372e:	81 e0       	ldi	r24, 0x01	; 1
    3730:	90 e0       	ldi	r25, 0x00	; 0
    3732:	80 93 a1 39 	sts	0x39A1, r24	; 0x8039a1 <reactStr+0x84>
    3736:	90 93 a2 39 	sts	0x39A2, r25	; 0x8039a2 <reactStr+0x85>
    return 0;
}

//
void SetResponse(uint8_t number, uint16_t address, uint16_t length, uint8_t type){
    reactStr[0][number]=address;
    373a:	2d ea       	ldi	r18, 0xAD	; 173
    373c:	38 e7       	ldi	r19, 0x78	; 120
    373e:	20 93 23 39 	sts	0x3923, r18	; 0x803923 <reactStr+0x6>
    3742:	30 93 24 39 	sts	0x3924, r19	; 0x803924 <reactStr+0x7>
    reactStr[1][number]=length;
    3746:	22 e1       	ldi	r18, 0x12	; 18
    3748:	30 e0       	ldi	r19, 0x00	; 0
    374a:	20 93 63 39 	sts	0x3963, r18	; 0x803963 <reactStr+0x46>
    374e:	30 93 64 39 	sts	0x3964, r19	; 0x803964 <reactStr+0x47>
    reactStr[2][number]=type;
    3752:	80 93 a3 39 	sts	0x39A3, r24	; 0x8039a3 <reactStr+0x86>
    3756:	90 93 a4 39 	sts	0x39A4, r25	; 0x8039a4 <reactStr+0x87>
                            //General request
                            } else if (actObj1.lenStr[ACTION_STR1]) {
                                SetResponse(elements++, actObj1.addrStr[ACTION_STR1], actObj1.lenStr[ACTION_STR1], GAME);
                                SetResponse(elements++, A_LF, 2, TEASER);
                                SetResponse(elements++, A_RESPONSE, L_RESPONSE, TEASER);
                                if (actObj1.lenStr[ACTION_STR2]>(INP_LENGTH-1)) actObj1.lenStr[ACTION_STR2] = (INP_LENGTH-1);
    375a:	80 91 fc 38 	lds	r24, 0x38FC	; 0x8038fc <actObj1.3996+0x20>
    375e:	90 91 fd 38 	lds	r25, 0x38FD	; 0x8038fd <actObj1.3996+0x21>
    3762:	40 97       	sbiw	r24, 0x10	; 16
    3764:	30 f0       	brcs	.+12     	; 0x3772 <ProcessInput+0xc92>
    3766:	8f e0       	ldi	r24, 0x0F	; 15
    3768:	90 e0       	ldi	r25, 0x00	; 0
    376a:	80 93 fc 38 	sts	0x38FC, r24	; 0x8038fc <actObj1.3996+0x20>
    376e:	90 93 fd 38 	sts	0x38FD, r25	; 0x8038fd <actObj1.3996+0x21>
                                ExtEERead(actObj1.addrStr[ACTION_STR2], actObj1.lenStr[ACTION_STR2], GAME, (uint8_t *)&specialInput[0]);
    3772:	2c e0       	ldi	r18, 0x0C	; 12
    3774:	39 e3       	ldi	r19, 0x39	; 57
    3776:	40 e0       	ldi	r20, 0x00	; 0
    3778:	60 91 fc 38 	lds	r22, 0x38FC	; 0x8038fc <actObj1.3996+0x20>
    377c:	80 91 ee 38 	lds	r24, 0x38EE	; 0x8038ee <actObj1.3996+0x12>
    3780:	90 91 ef 38 	lds	r25, 0x38EF	; 0x8038ef <actObj1.3996+0x13>
    3784:	0e 94 a3 0f 	call	0x1f46	; 0x1f46 <ExtEERead>
                                UnflipData(actObj1.lenStr[ACTION_STR2], (uint8_t *)&specialInput[0]);
    3788:	6c e0       	ldi	r22, 0x0C	; 12
    378a:	79 e3       	ldi	r23, 0x39	; 57
    378c:	80 91 fc 38 	lds	r24, 0x38FC	; 0x8038fc <actObj1.3996+0x20>
    3790:	0e 94 96 0f 	call	0x1f2c	; 0x1f2c <UnflipData>
                                specialInput[actObj1.lenStr[ACTION_STR2]] = 0;
    3794:	e0 91 fc 38 	lds	r30, 0x38FC	; 0x8038fc <actObj1.3996+0x20>
    3798:	f0 91 fd 38 	lds	r31, 0x38FD	; 0x8038fd <actObj1.3996+0x21>
    379c:	e4 5f       	subi	r30, 0xF4	; 244
    379e:	f6 4c       	sbci	r31, 0xC6	; 198
    37a0:	10 82       	st	Z, r1

                            //General request
                            } else if (actObj1.lenStr[ACTION_STR1]) {
                                SetResponse(elements++, actObj1.addrStr[ACTION_STR1], actObj1.lenStr[ACTION_STR1], GAME);
                                SetResponse(elements++, A_LF, 2, TEASER);
                                SetResponse(elements++, A_RESPONSE, L_RESPONSE, TEASER);
    37a2:	74 e0       	ldi	r23, 0x04	; 4
    37a4:	77 2e       	mov	r7, r23
    37a6:	99 c1       	rjmp	.+818    	; 0x3ada <ProcessInput+0xffa>
                                ExtEERead(actObj1.addrStr[ACTION_STR2], actObj1.lenStr[ACTION_STR2], GAME, (uint8_t *)&specialInput[0]);
                                UnflipData(actObj1.lenStr[ACTION_STR2], (uint8_t *)&specialInput[0]);
                                specialInput[actObj1.lenStr[ACTION_STR2]] = 0;
                            
                            //Normal action    
                            } else if (CheckState(actObj1.byteField[ACTION_ACL])){
    37a8:	80 91 e3 38 	lds	r24, 0x38E3	; 0x8038e3 <actObj1.3996+0x7>
    37ac:	0e 94 17 0a 	call	0x142e	; 0x142e <CheckState>
    37b0:	88 23       	and	r24, r24
    37b2:	01 f1       	breq	.+64     	; 0x37f4 <ProcessInput+0xd14>
                                SetResponse(elements++, actObj1.addrStr[ACTION_MSG], actObj1.lenStr[ACTION_MSG], GAME);
    37b4:	80 91 02 39 	lds	r24, 0x3902	; 0x803902 <actObj1.3996+0x26>
    37b8:	90 91 03 39 	lds	r25, 0x3903	; 0x803903 <actObj1.3996+0x27>
    return 0;
}

//
void SetResponse(uint8_t number, uint16_t address, uint16_t length, uint8_t type){
    reactStr[0][number]=address;
    37bc:	20 91 f4 38 	lds	r18, 0x38F4	; 0x8038f4 <actObj1.3996+0x18>
    37c0:	30 91 f5 38 	lds	r19, 0x38F5	; 0x8038f5 <actObj1.3996+0x19>
    37c4:	20 93 1f 39 	sts	0x391F, r18	; 0x80391f <reactStr+0x2>
    37c8:	30 93 20 39 	sts	0x3920, r19	; 0x803920 <reactStr+0x3>
    reactStr[1][number]=length;
    37cc:	80 93 5f 39 	sts	0x395F, r24	; 0x80395f <reactStr+0x42>
    37d0:	90 93 60 39 	sts	0x3960, r25	; 0x803960 <reactStr+0x43>
    reactStr[2][number]=type;
    37d4:	10 92 9f 39 	sts	0x399F, r1	; 0x80399f <reactStr+0x82>
    37d8:	10 92 a0 39 	sts	0x39A0, r1	; 0x8039a0 <reactStr+0x83>
                                specialInput[actObj1.lenStr[ACTION_STR2]] = 0;
                            
                            //Normal action    
                            } else if (CheckState(actObj1.byteField[ACTION_ACL])){
                                SetResponse(elements++, actObj1.addrStr[ACTION_MSG], actObj1.lenStr[ACTION_MSG], GAME);
                                effect = actObj1.effect[2];
    37dc:	80 91 06 39 	lds	r24, 0x3906	; 0x803906 <actObj1.3996+0x2a>
    37e0:	90 e0       	ldi	r25, 0x00	; 0
    37e2:	80 93 3c 38 	sts	0x383C, r24	; 0x80383c <effect>
    37e6:	90 93 3d 38 	sts	0x383D, r25	; 0x80383d <effect+0x1>
                                UpdateState(actObj1.byteField[ACTION_STATE]);
    37ea:	80 91 e6 38 	lds	r24, 0x38E6	; 0x8038e6 <actObj1.3996+0xa>
    37ee:	0e 94 0d 0a 	call	0x141a	; 0x141a <UpdateState>
    37f2:	44 ca       	rjmp	.-2936   	; 0x2c7c <ProcessInput+0x19c>
                            } else {
                                SetResponse(elements++, actObj1.addrStr[ACTION_ACL_MSG], actObj1.lenStr[ACTION_ACL_MSG], GAME);
    37f4:	80 91 00 39 	lds	r24, 0x3900	; 0x803900 <actObj1.3996+0x24>
    37f8:	90 91 01 39 	lds	r25, 0x3901	; 0x803901 <actObj1.3996+0x25>
    return 0;
}

//
void SetResponse(uint8_t number, uint16_t address, uint16_t length, uint8_t type){
    reactStr[0][number]=address;
    37fc:	20 91 f2 38 	lds	r18, 0x38F2	; 0x8038f2 <actObj1.3996+0x16>
    3800:	30 91 f3 38 	lds	r19, 0x38F3	; 0x8038f3 <actObj1.3996+0x17>
    3804:	20 93 1f 39 	sts	0x391F, r18	; 0x80391f <reactStr+0x2>
    3808:	30 93 20 39 	sts	0x3920, r19	; 0x803920 <reactStr+0x3>
    reactStr[1][number]=length;
    380c:	80 93 5f 39 	sts	0x395F, r24	; 0x80395f <reactStr+0x42>
    3810:	90 93 60 39 	sts	0x3960, r25	; 0x803960 <reactStr+0x43>
    reactStr[2][number]=type;
    3814:	10 92 9f 39 	sts	0x399F, r1	; 0x80399f <reactStr+0x82>
    3818:	10 92 a0 39 	sts	0x39A0, r1	; 0x8039a0 <reactStr+0x83>
                                SetResponse(elements++, actObj1.addrStr[ACTION_MSG], actObj1.lenStr[ACTION_MSG], GAME);
                                effect = actObj1.effect[2];
                                UpdateState(actObj1.byteField[ACTION_STATE]);
                            } else {
                                SetResponse(elements++, actObj1.addrStr[ACTION_ACL_MSG], actObj1.lenStr[ACTION_ACL_MSG], GAME);
                                effect = actObj1.effect[1];
    381c:	80 91 05 39 	lds	r24, 0x3905	; 0x803905 <actObj1.3996+0x29>
    3820:	90 e0       	ldi	r25, 0x00	; 0
    3822:	80 93 3c 38 	sts	0x383C, r24	; 0x80383c <effect>
    3826:	90 93 3d 38 	sts	0x383D, r25	; 0x80383d <effect+0x1>
    382a:	28 ca       	rjmp	.-2992   	; 0x2c7c <ProcessInput+0x19c>
                        }
                    }

                //Person or object not found
                } else {
                    if ((data[0] == 't')||(data[0] == 'g')){
    382c:	f8 01       	movw	r30, r16
    382e:	80 81       	ld	r24, Z
    3830:	84 37       	cpi	r24, 0x74	; 116
    3832:	11 f0       	breq	.+4      	; 0x3838 <ProcessInput+0xd58>
    3834:	87 36       	cpi	r24, 0x67	; 103
    3836:	19 f4       	brne	.+6      	; 0x383e <ProcessInput+0xd5e>
    return 0;
}

//
void SetResponse(uint8_t number, uint16_t address, uint16_t length, uint8_t type){
    reactStr[0][number]=address;
    3838:	89 e3       	ldi	r24, 0x39	; 57
    383a:	99 e7       	ldi	r25, 0x79	; 121
    383c:	02 c0       	rjmp	.+4      	; 0x3842 <ProcessInput+0xd62>
    383e:	8d e4       	ldi	r24, 0x4D	; 77
    3840:	99 e7       	ldi	r25, 0x79	; 121
    3842:	80 93 1f 39 	sts	0x391F, r24	; 0x80391f <reactStr+0x2>
    3846:	90 93 20 39 	sts	0x3920, r25	; 0x803920 <reactStr+0x3>
    reactStr[1][number]=length;
    384a:	84 e1       	ldi	r24, 0x14	; 20
    384c:	90 e0       	ldi	r25, 0x00	; 0
    384e:	0c ca       	rjmp	.-3048   	; 0x2c68 <ProcessInput+0x188>
                    }
                }
            }
        
        //Special answer given
        } else if (data[0] == 'a'){
    3850:	81 36       	cpi	r24, 0x61	; 97
    3852:	09 f0       	breq	.+2      	; 0x3856 <ProcessInput+0xd76>
    3854:	c5 cb       	rjmp	.-2166   	; 0x2fe0 <ProcessInput+0x500>
            
            //Priest offerings
            if (specialPassed >= 2) {
    3856:	80 91 0b 39 	lds	r24, 0x390B	; 0x80390b <specialPassed>
    385a:	82 30       	cpi	r24, 0x02	; 2
    385c:	08 f4       	brcc	.+2      	; 0x3860 <ProcessInput+0xd80>
    385e:	cb c0       	rjmp	.+406    	; 0x39f6 <ProcessInput+0xf16>
                if (data[1] > 0) {
    3860:	d8 01       	movw	r26, r16
    3862:	11 96       	adiw	r26, 0x01	; 1
    3864:	2c 91       	ld	r18, X
    3866:	22 23       	and	r18, r18
    3868:	09 f4       	brne	.+2      	; 0x386c <ProcessInput+0xd8c>
    386a:	b2 c0       	rjmp	.+356    	; 0x39d0 <ProcessInput+0xef0>

                    //uint8_t  digit[10] = {0, 0, 0, 0, 0, 0, 0, 0, 0, 0};
                    uint8_t  digit[8] = {0, 0, 0, 0, 0, 0, 0, 0};
    386c:	fe 01       	movw	r30, r28
    386e:	31 96       	adiw	r30, 0x01	; 1
    3870:	7f 01       	movw	r14, r30
    3872:	88 e0       	ldi	r24, 0x08	; 8
    3874:	df 01       	movw	r26, r30
    3876:	1d 92       	st	X+, r1
    3878:	8a 95       	dec	r24
    387a:	e9 f7       	brne	.-6      	; 0x3876 <ProcessInput+0xd96>
                        answer = ((offering  & 2) << 19) + ((offering  & 1) << 8) + \
                        ((element   & 2) << 15) + ((element   & 1) << 4) + \
                        ((kneelings & 2) << 11) + ((kneelings & 1))
                        answer = answer << (3-person)
                    */
                    data[1]-='0'; // item 31 needs to become something that results in 0 when doing %4
    387c:	20 53       	subi	r18, 0x30	; 48
    387e:	f8 01       	movw	r30, r16
    3880:	21 83       	std	Z+1, r18	; 0x01
                    data[2]-='1';
    3882:	32 81       	ldd	r19, Z+2	; 0x02
    3884:	31 53       	subi	r19, 0x31	; 49
    3886:	32 83       	std	Z+2, r19	; 0x02
                    if (data[3] == 'a') data[3] = 1;
    3888:	83 81       	ldd	r24, Z+3	; 0x03
    388a:	81 36       	cpi	r24, 0x61	; 97
    388c:	11 f4       	brne	.+4      	; 0x3892 <ProcessInput+0xdb2>
    388e:	81 e0       	ldi	r24, 0x01	; 1
    3890:	08 c0       	rjmp	.+16     	; 0x38a2 <ProcessInput+0xdc2>
                    else if (data[3] == 'e') data[3] = 0;
    3892:	85 36       	cpi	r24, 0x65	; 101
    3894:	11 f4       	brne	.+4      	; 0x389a <ProcessInput+0xdba>
    3896:	13 82       	std	Z+3, r1	; 0x03
    3898:	08 c0       	rjmp	.+16     	; 0x38aa <ProcessInput+0xdca>
                    else if (data[3] == 'f') data[3] = 3;
    389a:	86 36       	cpi	r24, 0x66	; 102
    389c:	21 f4       	brne	.+8      	; 0x38a6 <ProcessInput+0xdc6>
    389e:	83 e0       	ldi	r24, 0x03	; 3
    38a0:	f8 01       	movw	r30, r16
    38a2:	83 83       	std	Z+3, r24	; 0x03
    38a4:	02 c0       	rjmp	.+4      	; 0x38aa <ProcessInput+0xdca>
                    else data[3] = 2;
    38a6:	82 e0       	ldi	r24, 0x02	; 2
    38a8:	83 83       	std	Z+3, r24	; 0x03

                    if (data[1] & 2) answer += (1UL << 20);
    38aa:	21 fd       	sbrc	r18, 1
    38ac:	04 c0       	rjmp	.+8      	; 0x38b6 <ProcessInput+0xdd6>
            if (specialPassed >= 2) {
                if (data[1] > 0) {

                    //uint8_t  digit[10] = {0, 0, 0, 0, 0, 0, 0, 0, 0, 0};
                    uint8_t  digit[8] = {0, 0, 0, 0, 0, 0, 0, 0};
                    uint32_t answer = 0;
    38ae:	80 e0       	ldi	r24, 0x00	; 0
    38b0:	90 e0       	ldi	r25, 0x00	; 0
    38b2:	dc 01       	movw	r26, r24
    38b4:	04 c0       	rjmp	.+8      	; 0x38be <ProcessInput+0xdde>
                    if (data[3] == 'a') data[3] = 1;
                    else if (data[3] == 'e') data[3] = 0;
                    else if (data[3] == 'f') data[3] = 3;
                    else data[3] = 2;

                    if (data[1] & 2) answer += (1UL << 20);
    38b6:	80 e0       	ldi	r24, 0x00	; 0
    38b8:	90 e0       	ldi	r25, 0x00	; 0
    38ba:	a0 e1       	ldi	r26, 0x10	; 16
    38bc:	b0 e0       	ldi	r27, 0x00	; 0
                    if (data[1] & 1) answer += (1 << 8);
    38be:	20 ff       	sbrs	r18, 0
    38c0:	03 c0       	rjmp	.+6      	; 0x38c8 <ProcessInput+0xde8>
    38c2:	9f 5f       	subi	r25, 0xFF	; 255
    38c4:	af 4f       	sbci	r26, 0xFF	; 255
    38c6:	bf 4f       	sbci	r27, 0xFF	; 255
                    if (data[3] & 2) answer += (1UL << 16);
    38c8:	f8 01       	movw	r30, r16
    38ca:	23 81       	ldd	r18, Z+3	; 0x03
    38cc:	21 fd       	sbrc	r18, 1
    38ce:	11 96       	adiw	r26, 0x01	; 1
                    if (data[3] & 1) answer += (1 << 4);
    38d0:	20 ff       	sbrs	r18, 0
    38d2:	03 c0       	rjmp	.+6      	; 0x38da <ProcessInput+0xdfa>
    38d4:	40 96       	adiw	r24, 0x10	; 16
    38d6:	a1 1d       	adc	r26, r1
    38d8:	b1 1d       	adc	r27, r1
                    if (data[2] & 2) answer += (1 << 12);
    38da:	31 ff       	sbrs	r19, 1
    38dc:	03 c0       	rjmp	.+6      	; 0x38e4 <ProcessInput+0xe04>
    38de:	90 5f       	subi	r25, 0xF0	; 240
    38e0:	af 4f       	sbci	r26, 0xFF	; 255
    38e2:	bf 4f       	sbci	r27, 0xFF	; 255
                    if (data[2] & 1) answer += 1;
    38e4:	30 ff       	sbrs	r19, 0
    38e6:	03 c0       	rjmp	.+6      	; 0x38ee <ProcessInput+0xe0e>
    38e8:	01 96       	adiw	r24, 0x01	; 1
    38ea:	a1 1d       	adc	r26, r1
    38ec:	b1 1d       	adc	r27, r1
                    answer <<= (4 - whoami);            
    38ee:	40 91 3f 38 	lds	r20, 0x383F	; 0x80383f <whoami>
    38f2:	24 e0       	ldi	r18, 0x04	; 4
    38f4:	30 e0       	ldi	r19, 0x00	; 0
    38f6:	24 1b       	sub	r18, r20
    38f8:	31 09       	sbc	r19, r1
    38fa:	04 c0       	rjmp	.+8      	; 0x3904 <ProcessInput+0xe24>
    38fc:	88 0f       	add	r24, r24
    38fe:	99 1f       	adc	r25, r25
    3900:	aa 1f       	adc	r26, r26
    3902:	bb 1f       	adc	r27, r27
    3904:	2a 95       	dec	r18
    3906:	d2 f7       	brpl	.-12     	; 0x38fc <ProcessInput+0xe1c>
    return 0;
}

//
void SetResponse(uint8_t number, uint16_t address, uint16_t length, uint8_t type){
    reactStr[0][number]=address;
    3908:	28 ec       	ldi	r18, 0xC8	; 200
    390a:	34 e7       	ldi	r19, 0x74	; 116
    390c:	20 93 1f 39 	sts	0x391F, r18	; 0x80391f <reactStr+0x2>
    3910:	30 93 20 39 	sts	0x3920, r19	; 0x803920 <reactStr+0x3>
    reactStr[1][number]=length;
    3914:	20 e2       	ldi	r18, 0x20	; 32
    3916:	30 e0       	ldi	r19, 0x00	; 0
    3918:	20 93 5f 39 	sts	0x395F, r18	; 0x80395f <reactStr+0x42>
    391c:	30 93 60 39 	sts	0x3960, r19	; 0x803960 <reactStr+0x43>
    reactStr[2][number]=type;
    3920:	21 e0       	ldi	r18, 0x01	; 1
    3922:	30 e0       	ldi	r19, 0x00	; 0
    3924:	20 93 9f 39 	sts	0x399F, r18	; 0x80399f <reactStr+0x82>
    3928:	30 93 a0 39 	sts	0x39A0, r19	; 0x8039a0 <reactStr+0x83>
    return 0;
}

//
void SetResponse(uint8_t number, uint16_t address, uint16_t length, uint8_t type){
    reactStr[0][number]=address;
    392c:	4d e9       	ldi	r20, 0x9D	; 157
    392e:	54 e7       	ldi	r21, 0x74	; 116
    3930:	40 93 21 39 	sts	0x3921, r20	; 0x803921 <reactStr+0x4>
    3934:	50 93 22 39 	sts	0x3922, r21	; 0x803922 <reactStr+0x5>
    reactStr[1][number]=length;
    3938:	42 e0       	ldi	r20, 0x02	; 2
    393a:	50 e0       	ldi	r21, 0x00	; 0
    393c:	40 93 61 39 	sts	0x3961, r20	; 0x803961 <reactStr+0x44>
    3940:	50 93 62 39 	sts	0x3962, r21	; 0x803962 <reactStr+0x45>
    reactStr[2][number]=type;
    3944:	20 93 a1 39 	sts	0x39A1, r18	; 0x8039a1 <reactStr+0x84>
    3948:	30 93 a2 39 	sts	0x39A2, r19	; 0x8039a2 <reactStr+0x85>

                    SetResponse(elements++, A_YOURPART, L_YOURPART, TEASER);
                    SetResponse(elements++, A_HEXPREFIX, L_HEXPREFIX, TEASER);
                    
                    //Set up sending out number
                    for (n=7; n>=0; --n) {
    394c:	67 e0       	ldi	r22, 0x07	; 7
    394e:	d6 2e       	mov	r13, r22
                        digit[n] = answer % 16;
    3950:	f7 01       	movw	r30, r14
    3952:	ed 0d       	add	r30, r13
    3954:	f1 1d       	adc	r31, r1
    3956:	28 2f       	mov	r18, r24
    3958:	2f 70       	andi	r18, 0x0F	; 15
    395a:	20 83       	st	Z, r18
                        answer /= 16;
    395c:	54 e0       	ldi	r21, 0x04	; 4
    395e:	b6 95       	lsr	r27
    3960:	a7 95       	ror	r26
    3962:	97 95       	ror	r25
    3964:	87 95       	ror	r24
    3966:	5a 95       	dec	r21
    3968:	d1 f7       	brne	.-12     	; 0x395e <ProcessInput+0xe7e>
                        if (answer == 0) break;
    396a:	00 97       	sbiw	r24, 0x00	; 0
    396c:	a1 05       	cpc	r26, r1
    396e:	b1 05       	cpc	r27, r1
    3970:	51 f4       	brne	.+20     	; 0x3986 <ProcessInput+0xea6>
    3972:	2d e1       	ldi	r18, 0x1D	; 29
    3974:	a2 2e       	mov	r10, r18
    3976:	29 e3       	ldi	r18, 0x39	; 57
    3978:	b2 2e       	mov	r11, r18
    397a:	33 e0       	ldi	r19, 0x03	; 3
    397c:	73 2e       	mov	r7, r19
}

//
void SetResponse(uint8_t number, uint16_t address, uint16_t length, uint8_t type){
    reactStr[0][number]=address;
    reactStr[1][number]=length;
    397e:	88 24       	eor	r8, r8
    3980:	83 94       	inc	r8
    3982:	91 2c       	mov	r9, r1
    3984:	02 c0       	rjmp	.+4      	; 0x398a <ProcessInput+0xeaa>

                    SetResponse(elements++, A_YOURPART, L_YOURPART, TEASER);
                    SetResponse(elements++, A_HEXPREFIX, L_HEXPREFIX, TEASER);
                    
                    //Set up sending out number
                    for (n=7; n>=0; --n) {
    3986:	da 94       	dec	r13
                        digit[n] = answer % 16;
                        answer /= 16;
                        if (answer == 0) break;
                    }
    3988:	e3 cf       	rjmp	.-58     	; 0x3950 <ProcessInput+0xe70>
    398a:	b2 e0       	ldi	r27, 0x02	; 2
    398c:	ab 0e       	add	r10, r27
    398e:	b1 1c       	adc	r11, r1

                    for (; n<8; ++n) {
    3990:	e7 e0       	ldi	r30, 0x07	; 7
    3992:	ed 15       	cp	r30, r13
    3994:	08 f4       	brcc	.+2      	; 0x3998 <ProcessInput+0xeb8>
    3996:	9f c0       	rjmp	.+318    	; 0x3ad6 <ProcessInput+0xff6>
                        SetResponse(elements++, A_DIGITS+digit[n], 1, TEASER);
    3998:	73 94       	inc	r7
    399a:	f7 01       	movw	r30, r14
    399c:	ed 0d       	add	r30, r13
    399e:	f1 1d       	adc	r31, r1
    return 0;
}

//
void SetResponse(uint8_t number, uint16_t address, uint16_t length, uint8_t type){
    reactStr[0][number]=address;
    39a0:	80 81       	ld	r24, Z
    39a2:	90 e0       	ldi	r25, 0x00	; 0
    39a4:	83 57       	subi	r24, 0x73	; 115
    39a6:	9b 48       	sbci	r25, 0x8B	; 139
    39a8:	d5 01       	movw	r26, r10
    39aa:	14 96       	adiw	r26, 0x04	; 4
    39ac:	8d 93       	st	X+, r24
    39ae:	9c 93       	st	X, r25
    39b0:	15 97       	sbiw	r26, 0x05	; 5
    reactStr[1][number]=length;
    39b2:	f5 01       	movw	r30, r10
    39b4:	ec 5b       	subi	r30, 0xBC	; 188
    39b6:	ff 4f       	sbci	r31, 0xFF	; 255
    39b8:	80 82       	st	Z, r8
    39ba:	91 82       	std	Z+1, r9	; 0x01
    reactStr[2][number]=type;
    39bc:	e0 5c       	subi	r30, 0xC0	; 192
    39be:	ff 4f       	sbci	r31, 0xFF	; 255
    39c0:	80 82       	st	Z, r8
    39c2:	91 82       	std	Z+1, r9	; 0x01
                        if (answer == 0) break;
                    }

                    for (; n<8; ++n) {
                        SetResponse(elements++, A_DIGITS+digit[n], 1, TEASER);
                        UpdateState(actObj1.byteField[ACTION_STATE]);
    39c4:	80 91 e6 38 	lds	r24, 0x38E6	; 0x8038e6 <actObj1.3996+0xa>
    39c8:	0e 94 0d 0a 	call	0x141a	; 0x141a <UpdateState>
                        digit[n] = answer % 16;
                        answer /= 16;
                        if (answer == 0) break;
                    }

                    for (; n<8; ++n) {
    39cc:	d3 94       	inc	r13
    39ce:	dd cf       	rjmp	.-70     	; 0x398a <ProcessInput+0xeaa>
    return 0;
}

//
void SetResponse(uint8_t number, uint16_t address, uint16_t length, uint8_t type){
    reactStr[0][number]=address;
    39d0:	88 ee       	ldi	r24, 0xE8	; 232
    39d2:	94 e7       	ldi	r25, 0x74	; 116
    39d4:	80 93 1f 39 	sts	0x391F, r24	; 0x80391f <reactStr+0x2>
    39d8:	90 93 20 39 	sts	0x3920, r25	; 0x803920 <reactStr+0x3>
    reactStr[1][number]=length;
    39dc:	8d e3       	ldi	r24, 0x3D	; 61
    39de:	90 e0       	ldi	r25, 0x00	; 0
    39e0:	80 93 5f 39 	sts	0x395F, r24	; 0x80395f <reactStr+0x42>
    39e4:	90 93 60 39 	sts	0x3960, r25	; 0x803960 <reactStr+0x43>
    reactStr[2][number]=type;
    39e8:	81 e0       	ldi	r24, 0x01	; 1
    39ea:	90 e0       	ldi	r25, 0x00	; 0
    39ec:	80 93 9f 39 	sts	0x399F, r24	; 0x80399f <reactStr+0x82>
    39f0:	90 93 a0 39 	sts	0x39A0, r25	; 0x8039a0 <reactStr+0x83>
    39f4:	6e c0       	rjmp	.+220    	; 0x3ad2 <ProcessInput+0xff2>
    39f6:	e0 91 2e 38 	lds	r30, 0x382E	; 0x80382e <currDepth>
                    SetResponse(elements++, A_BADOFFERING, L_BADOFFERING, TEASER);
                }
            
            //Other questions    
            } else if (specialPassed == 1) {
                PopulateObject(route[currDepth+1], &actObj1);
    39fa:	f0 e0       	ldi	r31, 0x00	; 0
    39fc:	ee 0f       	add	r30, r30
    39fe:	ff 1f       	adc	r31, r31
    3a00:	e1 52       	subi	r30, 0x21	; 33
    3a02:	f6 4c       	sbci	r31, 0xC6	; 198
    3a04:	6c ed       	ldi	r22, 0xDC	; 220
    3a06:	78 e3       	ldi	r23, 0x38	; 56
                } else {
                    SetResponse(elements++, A_BADOFFERING, L_BADOFFERING, TEASER);
                }
            
            //Other questions    
            } else if (specialPassed == 1) {
    3a08:	81 30       	cpi	r24, 0x01	; 1
    3a0a:	09 f0       	breq	.+2      	; 0x3a0e <ProcessInput+0xf2e>
    3a0c:	46 c0       	rjmp	.+140    	; 0x3a9a <ProcessInput+0xfba>
                PopulateObject(route[currDepth+1], &actObj1);
    3a0e:	80 81       	ld	r24, Z
    3a10:	91 81       	ldd	r25, Z+1	; 0x01
    3a12:	0e 94 b3 10 	call	0x2166	; 0x2166 <PopulateObject>
                if (CheckState(actObj1.byteField[ACTION_ACL])){
    3a16:	80 91 e3 38 	lds	r24, 0x38E3	; 0x8038e3 <actObj1.3996+0x7>
    3a1a:	0e 94 17 0a 	call	0x142e	; 0x142e <CheckState>
    3a1e:	88 23       	and	r24, r24
    3a20:	01 f1       	breq	.+64     	; 0x3a62 <ProcessInput+0xf82>
                    SetResponse(elements++, actObj1.addrStr[ACTION_MSG], actObj1.lenStr[ACTION_MSG], GAME);
    3a22:	80 91 02 39 	lds	r24, 0x3902	; 0x803902 <actObj1.3996+0x26>
    3a26:	90 91 03 39 	lds	r25, 0x3903	; 0x803903 <actObj1.3996+0x27>
    return 0;
}

//
void SetResponse(uint8_t number, uint16_t address, uint16_t length, uint8_t type){
    reactStr[0][number]=address;
    3a2a:	20 91 f4 38 	lds	r18, 0x38F4	; 0x8038f4 <actObj1.3996+0x18>
    3a2e:	30 91 f5 38 	lds	r19, 0x38F5	; 0x8038f5 <actObj1.3996+0x19>
    3a32:	20 93 1f 39 	sts	0x391F, r18	; 0x80391f <reactStr+0x2>
    3a36:	30 93 20 39 	sts	0x3920, r19	; 0x803920 <reactStr+0x3>
    reactStr[1][number]=length;
    3a3a:	80 93 5f 39 	sts	0x395F, r24	; 0x80395f <reactStr+0x42>
    3a3e:	90 93 60 39 	sts	0x3960, r25	; 0x803960 <reactStr+0x43>
    reactStr[2][number]=type;
    3a42:	10 92 9f 39 	sts	0x399F, r1	; 0x80399f <reactStr+0x82>
    3a46:	10 92 a0 39 	sts	0x39A0, r1	; 0x8039a0 <reactStr+0x83>
            //Other questions    
            } else if (specialPassed == 1) {
                PopulateObject(route[currDepth+1], &actObj1);
                if (CheckState(actObj1.byteField[ACTION_ACL])){
                    SetResponse(elements++, actObj1.addrStr[ACTION_MSG], actObj1.lenStr[ACTION_MSG], GAME);
                    effect = actObj1.effect[2];
    3a4a:	80 91 06 39 	lds	r24, 0x3906	; 0x803906 <actObj1.3996+0x2a>
    3a4e:	90 e0       	ldi	r25, 0x00	; 0
    3a50:	80 93 3c 38 	sts	0x383C, r24	; 0x80383c <effect>
    3a54:	90 93 3d 38 	sts	0x383D, r25	; 0x80383d <effect+0x1>
                    UpdateState(actObj1.byteField[ACTION_STATE]);
    3a58:	80 91 e6 38 	lds	r24, 0x38E6	; 0x8038e6 <actObj1.3996+0xa>
    3a5c:	0e 94 0d 0a 	call	0x141a	; 0x141a <UpdateState>
    3a60:	38 c0       	rjmp	.+112    	; 0x3ad2 <ProcessInput+0xff2>
                } else {
                    SetResponse(elements++, actObj1.addrStr[ACTION_ACL_MSG], actObj1.lenStr[ACTION_ACL_MSG], GAME);
    3a62:	80 91 00 39 	lds	r24, 0x3900	; 0x803900 <actObj1.3996+0x24>
    3a66:	90 91 01 39 	lds	r25, 0x3901	; 0x803901 <actObj1.3996+0x25>
    return 0;
}

//
void SetResponse(uint8_t number, uint16_t address, uint16_t length, uint8_t type){
    reactStr[0][number]=address;
    3a6a:	20 91 f2 38 	lds	r18, 0x38F2	; 0x8038f2 <actObj1.3996+0x16>
    3a6e:	30 91 f3 38 	lds	r19, 0x38F3	; 0x8038f3 <actObj1.3996+0x17>
    3a72:	20 93 1f 39 	sts	0x391F, r18	; 0x80391f <reactStr+0x2>
    3a76:	30 93 20 39 	sts	0x3920, r19	; 0x803920 <reactStr+0x3>
    reactStr[1][number]=length;
    3a7a:	80 93 5f 39 	sts	0x395F, r24	; 0x80395f <reactStr+0x42>
    3a7e:	90 93 60 39 	sts	0x3960, r25	; 0x803960 <reactStr+0x43>
    reactStr[2][number]=type;
    3a82:	10 92 9f 39 	sts	0x399F, r1	; 0x80399f <reactStr+0x82>
    3a86:	10 92 a0 39 	sts	0x39A0, r1	; 0x8039a0 <reactStr+0x83>
                    SetResponse(elements++, actObj1.addrStr[ACTION_MSG], actObj1.lenStr[ACTION_MSG], GAME);
                    effect = actObj1.effect[2];
                    UpdateState(actObj1.byteField[ACTION_STATE]);
                } else {
                    SetResponse(elements++, actObj1.addrStr[ACTION_ACL_MSG], actObj1.lenStr[ACTION_ACL_MSG], GAME);
                    effect = actObj1.effect[1];
    3a8a:	80 91 05 39 	lds	r24, 0x3905	; 0x803905 <actObj1.3996+0x29>
    3a8e:	90 e0       	ldi	r25, 0x00	; 0
    3a90:	80 93 3c 38 	sts	0x383C, r24	; 0x80383c <effect>
    3a94:	90 93 3d 38 	sts	0x383D, r25	; 0x80383d <effect+0x1>
    3a98:	1c c0       	rjmp	.+56     	; 0x3ad2 <ProcessInput+0xff2>
                }

            } else {
                PopulateObject(route[currDepth+1], &actObj1);
    3a9a:	80 81       	ld	r24, Z
    3a9c:	91 81       	ldd	r25, Z+1	; 0x01
    3a9e:	0e 94 b3 10 	call	0x2166	; 0x2166 <PopulateObject>
    return 0;
}

//
void SetResponse(uint8_t number, uint16_t address, uint16_t length, uint8_t type){
    reactStr[0][number]=address;
    3aa2:	80 e6       	ldi	r24, 0x60	; 96
    3aa4:	98 e7       	ldi	r25, 0x78	; 120
    3aa6:	80 93 1f 39 	sts	0x391F, r24	; 0x80391f <reactStr+0x2>
    3aaa:	90 93 20 39 	sts	0x3920, r25	; 0x803920 <reactStr+0x3>
    reactStr[1][number]=length;
    3aae:	8d e4       	ldi	r24, 0x4D	; 77
    3ab0:	90 e0       	ldi	r25, 0x00	; 0
    3ab2:	80 93 5f 39 	sts	0x395F, r24	; 0x80395f <reactStr+0x42>
    3ab6:	90 93 60 39 	sts	0x3960, r25	; 0x803960 <reactStr+0x43>
    reactStr[2][number]=type;
    3aba:	81 e0       	ldi	r24, 0x01	; 1
    3abc:	90 e0       	ldi	r25, 0x00	; 0
    3abe:	80 93 9f 39 	sts	0x399F, r24	; 0x80399f <reactStr+0x82>
    3ac2:	90 93 a0 39 	sts	0x39A0, r25	; 0x8039a0 <reactStr+0x83>
                }

            } else {
                PopulateObject(route[currDepth+1], &actObj1);
                SetResponse(elements++, A_INCORRECT, L_INCORRECT, TEASER);
                PunishmentTime = getClock();
    3ac6:	0e 94 1e 0d 	call	0x1a3c	; 0x1a3c <getClock>
    3aca:	80 93 09 39 	sts	0x3909, r24	; 0x803909 <PunishmentTime>
    3ace:	90 93 0a 39 	sts	0x390A, r25	; 0x80390a <PunishmentTime+0x1>
                    effect = actObj1.effect[1];
                }

            } else {
                PopulateObject(route[currDepth+1], &actObj1);
                SetResponse(elements++, A_INCORRECT, L_INCORRECT, TEASER);
    3ad2:	82 e0       	ldi	r24, 0x02	; 2
    3ad4:	78 2e       	mov	r7, r24
                PunishmentTime = getClock();
            }
            specialInput[0] = 0;
    3ad6:	10 92 0c 39 	sts	0x390C, r1	; 0x80390c <specialInput>
    return 0;
}

//
void SetResponse(uint8_t number, uint16_t address, uint16_t length, uint8_t type){
    reactStr[0][number]=address;
    3ada:	89 e5       	ldi	r24, 0x59	; 89
    3adc:	9a e7       	ldi	r25, 0x7A	; 122
    3ade:	80 93 1d 39 	sts	0x391D, r24	; 0x80391d <reactStr>
    3ae2:	90 93 1e 39 	sts	0x391E, r25	; 0x80391e <reactStr+0x1>
    reactStr[1][number]=length;
    3ae6:	82 e0       	ldi	r24, 0x02	; 2
    3ae8:	90 e0       	ldi	r25, 0x00	; 0
    3aea:	80 93 5d 39 	sts	0x395D, r24	; 0x80395d <reactStr+0x40>
    3aee:	90 93 5e 39 	sts	0x395E, r25	; 0x80395e <reactStr+0x41>
    reactStr[2][number]=type;
    3af2:	81 e0       	ldi	r24, 0x01	; 1
    3af4:	90 e0       	ldi	r25, 0x00	; 0
    3af6:	80 93 9d 39 	sts	0x399D, r24	; 0x80399d <reactStr+0x80>
    3afa:	90 93 9e 39 	sts	0x399E, r25	; 0x80399e <reactStr+0x81>
               
        }
            
        //Input handled
        SetResponse(0, A_LF, 2, TEASER);
        if (specialInput[0]) responseList = elements; else responseList = SetStandardResponse(elements);
    3afe:	80 91 0c 39 	lds	r24, 0x390C	; 0x80390c <specialInput>
    3b02:	88 23       	and	r24, r24
    3b04:	19 f0       	breq	.+6      	; 0x3b0c <ProcessInput+0x102c>
    3b06:	70 92 1c 39 	sts	0x391C, r7	; 0x80391c <responseList>
    3b0a:	9b c0       	rjmp	.+310    	; 0x3c42 <ProcessInput+0x1162>
    3b0c:	87 2d       	mov	r24, r7
    3b0e:	12 c0       	rjmp	.+36     	; 0x3b34 <ProcessInput+0x1054>
    return 0;
}

//
void SetResponse(uint8_t number, uint16_t address, uint16_t length, uint8_t type){
    reactStr[0][number]=address;
    3b10:	89 e5       	ldi	r24, 0x59	; 89
    3b12:	9a e7       	ldi	r25, 0x7A	; 122
    3b14:	80 93 1d 39 	sts	0x391D, r24	; 0x80391d <reactStr>
    3b18:	90 93 1e 39 	sts	0x391E, r25	; 0x80391e <reactStr+0x1>
    reactStr[1][number]=length;
    3b1c:	82 e0       	ldi	r24, 0x02	; 2
    3b1e:	90 e0       	ldi	r25, 0x00	; 0
    3b20:	80 93 5d 39 	sts	0x395D, r24	; 0x80395d <reactStr+0x40>
    3b24:	90 93 5e 39 	sts	0x395E, r25	; 0x80395e <reactStr+0x41>
    reactStr[2][number]=type;
    3b28:	81 e0       	ldi	r24, 0x01	; 1
    3b2a:	90 e0       	ldi	r25, 0x00	; 0
    3b2c:	80 93 9d 39 	sts	0x399D, r24	; 0x80399d <reactStr+0x80>
    3b30:	90 93 9e 39 	sts	0x399E, r25	; 0x80399e <reactStr+0x81>
        SetResponse(0, A_LF, 2, TEASER);
        if (specialInput[0]) responseList = elements; else responseList = SetStandardResponse(elements);

    } else {
        SetResponse(0, A_LF, 2, TEASER);
        responseList = SetStandardResponse(1);
    3b34:	0e 94 37 10 	call	0x206e	; 0x206e <SetStandardResponse>
    3b38:	80 93 1c 39 	sts	0x391C, r24	; 0x80391c <responseList>
    3b3c:	82 c0       	rjmp	.+260    	; 0x3c42 <ProcessInput+0x1162>
    return 0;
}

//
void SetResponse(uint8_t number, uint16_t address, uint16_t length, uint8_t type){
    reactStr[0][number]=address;
    3b3e:	81 ed       	ldi	r24, 0xD1	; 209
    3b40:	99 e7       	ldi	r25, 0x79	; 121
    3b42:	92 cd       	rjmp	.-1244   	; 0x3668 <ProcessInput+0xb88>

        //Drop item if in inventory
        if (data[0] == 'd') {
            if ((inventory[0] == 0)&&(inventory[1] == 0)){
                SetResponse(elements++, A_EMPTYHANDS, L_EMPTYHANDS, TEASER);
            } else if (inputLen != 2) {
    3b44:	b2 e0       	ldi	r27, 0x02	; 2
    3b46:	fb 12       	cpse	r15, r27
    3b48:	0c 94 9f 15 	jmp	0x2b3e	; 0x2b3e <ProcessInput+0x5e>
                SetResponse(elements++, A_NOTPOSSIBLE, L_NOTPOSSIBLE, TEASER);
            } else {
                for (uint8_t x=0; x<2; ++x) {
                    if (inventory[x]) {
                        if (CheckLetter(inventory[x], data[1])) {
    3b4c:	d8 01       	movw	r26, r16
    3b4e:	11 96       	adiw	r26, 0x01	; 1
    3b50:	6c 91       	ld	r22, X
    3b52:	0e 94 2a 11 	call	0x2254	; 0x2254 <CheckLetter>
    3b56:	88 23       	and	r24, r24
    3b58:	09 f4       	brne	.+2      	; 0x3b5c <ProcessInput+0x107c>
    3b5a:	5b c0       	rjmp	.+182    	; 0x3c12 <ProcessInput+0x1132>
                SetResponse(elements++, A_EMPTYHANDS, L_EMPTYHANDS, TEASER);
            } else if (inputLen != 2) {
                SetResponse(elements++, A_NOTPOSSIBLE, L_NOTPOSSIBLE, TEASER);
            } else {
                for (uint8_t x=0; x<2; ++x) {
                    if (inventory[x]) {
    3b5c:	80 e0       	ldi	r24, 0x00	; 0
    3b5e:	90 e0       	ldi	r25, 0x00	; 0
                        if (CheckLetter(inventory[x], data[1])) {
                            PopulateObject(inventory[x], &actObj1);
    3b60:	88 0f       	add	r24, r24
    3b62:	99 1f       	adc	r25, r25
    3b64:	9c 01       	movw	r18, r24
    3b66:	20 5c       	subi	r18, 0xC0	; 192
    3b68:	37 4c       	sbci	r19, 0xC7	; 199
    3b6a:	79 01       	movw	r14, r18
    3b6c:	6c ed       	ldi	r22, 0xDC	; 220
    3b6e:	78 e3       	ldi	r23, 0x38	; 56
    3b70:	d9 01       	movw	r26, r18
    3b72:	8d 91       	ld	r24, X+
    3b74:	9c 91       	ld	r25, X
    3b76:	0e 94 b3 10 	call	0x2166	; 0x2166 <PopulateObject>
    return 0;
}

//
void SetResponse(uint8_t number, uint16_t address, uint16_t length, uint8_t type){
    reactStr[0][number]=address;
    3b7a:	86 e9       	ldi	r24, 0x96	; 150
    3b7c:	97 e7       	ldi	r25, 0x77	; 119
    3b7e:	80 93 1f 39 	sts	0x391F, r24	; 0x80391f <reactStr+0x2>
    3b82:	90 93 20 39 	sts	0x3920, r25	; 0x803920 <reactStr+0x3>
    reactStr[1][number]=length;
    3b86:	80 e1       	ldi	r24, 0x10	; 16
    3b88:	90 e0       	ldi	r25, 0x00	; 0
    3b8a:	80 93 5f 39 	sts	0x395F, r24	; 0x80395f <reactStr+0x42>
    3b8e:	90 93 60 39 	sts	0x3960, r25	; 0x803960 <reactStr+0x43>
    reactStr[2][number]=type;
    3b92:	81 e0       	ldi	r24, 0x01	; 1
    3b94:	90 e0       	ldi	r25, 0x00	; 0
    3b96:	80 93 9f 39 	sts	0x399F, r24	; 0x80399f <reactStr+0x82>
    3b9a:	90 93 a0 39 	sts	0x39A0, r25	; 0x8039a0 <reactStr+0x83>
                for (uint8_t x=0; x<2; ++x) {
                    if (inventory[x]) {
                        if (CheckLetter(inventory[x], data[1])) {
                            PopulateObject(inventory[x], &actObj1);
                            SetResponse(elements++, A_DROPPING, L_DROPPING, TEASER);
                            SetResponse(elements++, actObj1.addrStr[NAME], actObj1.lenStr[NAME], GAME);
    3b9e:	20 91 f6 38 	lds	r18, 0x38F6	; 0x8038f6 <actObj1.3996+0x1a>
    3ba2:	30 91 f7 38 	lds	r19, 0x38F7	; 0x8038f7 <actObj1.3996+0x1b>
    return 0;
}

//
void SetResponse(uint8_t number, uint16_t address, uint16_t length, uint8_t type){
    reactStr[0][number]=address;
    3ba6:	40 91 e8 38 	lds	r20, 0x38E8	; 0x8038e8 <actObj1.3996+0xc>
    3baa:	50 91 e9 38 	lds	r21, 0x38E9	; 0x8038e9 <actObj1.3996+0xd>
    3bae:	40 93 21 39 	sts	0x3921, r20	; 0x803921 <reactStr+0x4>
    3bb2:	50 93 22 39 	sts	0x3922, r21	; 0x803922 <reactStr+0x5>
    reactStr[1][number]=length;
    3bb6:	20 93 61 39 	sts	0x3961, r18	; 0x803961 <reactStr+0x44>
    3bba:	30 93 62 39 	sts	0x3962, r19	; 0x803962 <reactStr+0x45>
    reactStr[2][number]=type;
    3bbe:	10 92 a1 39 	sts	0x39A1, r1	; 0x8039a1 <reactStr+0x84>
    3bc2:	10 92 a2 39 	sts	0x39A2, r1	; 0x8039a2 <reactStr+0x85>
    return 0;
}

//
void SetResponse(uint8_t number, uint16_t address, uint16_t length, uint8_t type){
    reactStr[0][number]=address;
    3bc6:	29 e5       	ldi	r18, 0x59	; 89
    3bc8:	3a e7       	ldi	r19, 0x7A	; 122
    3bca:	20 93 23 39 	sts	0x3923, r18	; 0x803923 <reactStr+0x6>
    3bce:	30 93 24 39 	sts	0x3924, r19	; 0x803924 <reactStr+0x7>
    reactStr[1][number]=length;
    3bd2:	22 e0       	ldi	r18, 0x02	; 2
    3bd4:	30 e0       	ldi	r19, 0x00	; 0
    3bd6:	20 93 63 39 	sts	0x3963, r18	; 0x803963 <reactStr+0x46>
    3bda:	30 93 64 39 	sts	0x3964, r19	; 0x803964 <reactStr+0x47>
    reactStr[2][number]=type;
    3bde:	80 93 a3 39 	sts	0x39A3, r24	; 0x8039a3 <reactStr+0x86>
    3be2:	90 93 a4 39 	sts	0x39A4, r25	; 0x8039a4 <reactStr+0x87>
    return 0;
}

//
void SetResponse(uint8_t number, uint16_t address, uint16_t length, uint8_t type){
    reactStr[0][number]=address;
    3be6:	29 e5       	ldi	r18, 0x59	; 89
    3be8:	37 e7       	ldi	r19, 0x77	; 119
    3bea:	20 93 25 39 	sts	0x3925, r18	; 0x803925 <reactStr+0x8>
    3bee:	30 93 26 39 	sts	0x3926, r19	; 0x803926 <reactStr+0x9>
    reactStr[1][number]=length;
    3bf2:	2d e3       	ldi	r18, 0x3D	; 61
    3bf4:	30 e0       	ldi	r19, 0x00	; 0
    3bf6:	20 93 65 39 	sts	0x3965, r18	; 0x803965 <reactStr+0x48>
    3bfa:	30 93 66 39 	sts	0x3966, r19	; 0x803966 <reactStr+0x49>
    reactStr[2][number]=type;
    3bfe:	80 93 a5 39 	sts	0x39A5, r24	; 0x8039a5 <reactStr+0x88>
    3c02:	90 93 a6 39 	sts	0x39A6, r25	; 0x8039a6 <reactStr+0x89>
                            PopulateObject(inventory[x], &actObj1);
                            SetResponse(elements++, A_DROPPING, L_DROPPING, TEASER);
                            SetResponse(elements++, actObj1.addrStr[NAME], actObj1.lenStr[NAME], GAME);
                            SetResponse(elements++, A_LF, 2, TEASER);
                            SetResponse(elements++, A_RETURNING, L_RETURNING, TEASER);
                            inventory[x] = 0;
    3c06:	f7 01       	movw	r30, r14
    3c08:	10 82       	st	Z, r1
    3c0a:	11 82       	std	Z+1, r1	; 0x01
                        if (CheckLetter(inventory[x], data[1])) {
                            PopulateObject(inventory[x], &actObj1);
                            SetResponse(elements++, A_DROPPING, L_DROPPING, TEASER);
                            SetResponse(elements++, actObj1.addrStr[NAME], actObj1.lenStr[NAME], GAME);
                            SetResponse(elements++, A_LF, 2, TEASER);
                            SetResponse(elements++, A_RETURNING, L_RETURNING, TEASER);
    3c0c:	f5 e0       	ldi	r31, 0x05	; 5
    3c0e:	7f 2e       	mov	r7, r31
                            inventory[x] = 0;
                            break;
    3c10:	64 cf       	rjmp	.-312    	; 0x3ada <ProcessInput+0xffa>
                SetResponse(elements++, A_EMPTYHANDS, L_EMPTYHANDS, TEASER);
            } else if (inputLen != 2) {
                SetResponse(elements++, A_NOTPOSSIBLE, L_NOTPOSSIBLE, TEASER);
            } else {
                for (uint8_t x=0; x<2; ++x) {
                    if (inventory[x]) {
    3c12:	80 91 42 38 	lds	r24, 0x3842	; 0x803842 <inventory+0x2>
    3c16:	90 91 43 38 	lds	r25, 0x3843	; 0x803843 <inventory+0x3>
    3c1a:	00 97       	sbiw	r24, 0x00	; 0
    3c1c:	49 f0       	breq	.+18     	; 0x3c30 <ProcessInput+0x1150>
                        if (CheckLetter(inventory[x], data[1])) {
    3c1e:	f8 01       	movw	r30, r16
    3c20:	61 81       	ldd	r22, Z+1	; 0x01
    3c22:	0e 94 2a 11 	call	0x2254	; 0x2254 <CheckLetter>
    3c26:	88 23       	and	r24, r24
    3c28:	19 f0       	breq	.+6      	; 0x3c30 <ProcessInput+0x1150>
                SetResponse(elements++, A_EMPTYHANDS, L_EMPTYHANDS, TEASER);
            } else if (inputLen != 2) {
                SetResponse(elements++, A_NOTPOSSIBLE, L_NOTPOSSIBLE, TEASER);
            } else {
                for (uint8_t x=0; x<2; ++x) {
                    if (inventory[x]) {
    3c2a:	81 e0       	ldi	r24, 0x01	; 1
    3c2c:	90 e0       	ldi	r25, 0x00	; 0
    3c2e:	98 cf       	rjmp	.-208    	; 0x3b60 <ProcessInput+0x1080>
    return 0;
}

//
void SetResponse(uint8_t number, uint16_t address, uint16_t length, uint8_t type){
    reactStr[0][number]=address;
    3c30:	81 e6       	ldi	r24, 0x61	; 97
    3c32:	99 e7       	ldi	r25, 0x79	; 121
    3c34:	80 93 1f 39 	sts	0x391F, r24	; 0x80391f <reactStr+0x2>
    3c38:	90 93 20 39 	sts	0x3920, r25	; 0x803920 <reactStr+0x3>
    reactStr[1][number]=length;
    3c3c:	81 e2       	ldi	r24, 0x21	; 33
    3c3e:	90 e0       	ldi	r25, 0x00	; 0
    3c40:	13 c8       	rjmp	.-4058   	; 0x2c68 <ProcessInput+0x188>
    } else {
        SetResponse(0, A_LF, 2, TEASER);
        responseList = SetStandardResponse(1);
    }

    data[0] = 0;
    3c42:	d8 01       	movw	r26, r16
    3c44:	1c 92       	st	X, r1
    serRxDone = 0;
    3c46:	10 92 46 38 	sts	0x3846, r1	; 0x803846 <serRxDone>
    RXCNT = 0;    
    3c4a:	1d ba       	out	0x1d, r1	; 29
    return 0;
}
    3c4c:	80 e0       	ldi	r24, 0x00	; 0
    3c4e:	28 96       	adiw	r28, 0x08	; 8
    3c50:	cd bf       	out	0x3d, r28	; 61
    3c52:	de bf       	out	0x3e, r29	; 62
    3c54:	df 91       	pop	r29
    3c56:	cf 91       	pop	r28
    3c58:	1f 91       	pop	r17
    3c5a:	0f 91       	pop	r16
    3c5c:	ff 90       	pop	r15
    3c5e:	ef 90       	pop	r14
    3c60:	df 90       	pop	r13
    3c62:	cf 90       	pop	r12
    3c64:	bf 90       	pop	r11
    3c66:	af 90       	pop	r10
    3c68:	9f 90       	pop	r9
    3c6a:	8f 90       	pop	r8
    3c6c:	7f 90       	pop	r7
    3c6e:	6f 90       	pop	r6
    3c70:	5f 90       	pop	r5
    3c72:	08 95       	ret

00003c74 <TextAdventure>:


//MAIN GAME STRUCTURE
uint8_t TextAdventure(){
    3c74:	cf 93       	push	r28
    static uint8_t serInput[RXLEN];
    uint16_t PunishmentCount;
    
    /* Count down PunishmentTime on WING LEDs */
    if (PunishmentTime != 0) {
    3c76:	80 91 09 39 	lds	r24, 0x3909	; 0x803909 <PunishmentTime>
    3c7a:	90 91 0a 39 	lds	r25, 0x390A	; 0x80390a <PunishmentTime+0x1>
    3c7e:	89 2b       	or	r24, r25
    3c80:	09 f1       	breq	.+66     	; 0x3cc4 <TextAdventure+0x50>
        PunishmentCount = getClock();
    3c82:	0e 94 1e 0d 	call	0x1a3c	; 0x1a3c <getClock>
        if (PunishmentCount < PunishmentTime)
    3c86:	20 91 09 39 	lds	r18, 0x3909	; 0x803909 <PunishmentTime>
    3c8a:	30 91 0a 39 	lds	r19, 0x390A	; 0x80390a <PunishmentTime+0x1>
    3c8e:	82 17       	cp	r24, r18
    3c90:	93 07       	cpc	r25, r19
    3c92:	08 f4       	brcc	.+2      	; 0x3c96 <TextAdventure+0x22>
            PunishmentCount += 256 * 60;
    3c94:	94 5c       	subi	r25, 0xC4	; 196
        PunishmentCount -= PunishmentTime;
    3c96:	ac 01       	movw	r20, r24
    3c98:	42 1b       	sub	r20, r18
    3c9a:	53 0b       	sbc	r21, r19
    3c9c:	9a 01       	movw	r18, r20
        if (PunishmentCount > 10) {
    3c9e:	4b 30       	cpi	r20, 0x0B	; 11
    3ca0:	51 05       	cpc	r21, r1
    3ca2:	30 f0       	brcs	.+12     	; 0x3cb0 <TextAdventure+0x3c>
            PunishmentTime = 0;
    3ca4:	10 92 09 39 	sts	0x3909, r1	; 0x803909 <PunishmentTime>
    3ca8:	10 92 0a 39 	sts	0x390A, r1	; 0x80390a <PunishmentTime+0x1>
            PunishmentCount = 10;
    3cac:	2a e0       	ldi	r18, 0x0A	; 10
    3cae:	30 e0       	ldi	r19, 0x00	; 0
        }
        if (gameNow == TEXT ) {
    3cb0:	80 91 3e 38 	lds	r24, 0x383E	; 0x80383e <gameNow>
    3cb4:	81 11       	cpse	r24, r1
    3cb6:	06 c0       	rjmp	.+12     	; 0x3cc4 <TextAdventure+0x50>
            WingBar(10-PunishmentCount,5-PunishmentCount);
    3cb8:	65 e0       	ldi	r22, 0x05	; 5
    3cba:	62 1b       	sub	r22, r18
    3cbc:	8a e0       	ldi	r24, 0x0A	; 10
    3cbe:	82 1b       	sub	r24, r18
    3cc0:	0e 94 f0 0a 	call	0x15e0	; 0x15e0 <WingBar>
        }
    }

    //Still sending data to serial?
    if (CheckSend()) return 1;
    3cc4:	0e 94 09 12 	call	0x2412	; 0x2412 <CheckSend>
    3cc8:	88 23       	and	r24, r24
    3cca:	11 f0       	breq	.+4      	; 0x3cd0 <TextAdventure+0x5c>
    3ccc:	c1 e0       	ldi	r28, 0x01	; 1
    3cce:	18 c0       	rjmp	.+48     	; 0x3d00 <TextAdventure+0x8c>

    //Not sending? Process next response part to send, if any.
    if (CheckResponse()) return 1;        
    3cd0:	0e 94 77 12 	call	0x24ee	; 0x24ee <CheckResponse>
    3cd4:	c8 2f       	mov	r28, r24
    3cd6:	81 11       	cpse	r24, r1
    3cd8:	f9 cf       	rjmp	.-14     	; 0x3ccc <TextAdventure+0x58>

    if (PunishmentTime == 0) {
    3cda:	80 91 09 39 	lds	r24, 0x3909	; 0x803909 <PunishmentTime>
    3cde:	90 91 0a 39 	lds	r25, 0x390A	; 0x80390a <PunishmentTime+0x1>
    3ce2:	89 2b       	or	r24, r25
    3ce4:	69 f4       	brne	.+26     	; 0x3d00 <TextAdventure+0x8c>
        //No responses to send, check if there is user input.
        if (CheckInput(&serInput[0])) return 2; 
    3ce6:	80 e7       	ldi	r24, 0x70	; 112
    3ce8:	98 e3       	ldi	r25, 0x38	; 56
    3cea:	0e 94 be 12 	call	0x257c	; 0x257c <CheckInput>
    3cee:	c8 2f       	mov	r28, r24
    3cf0:	81 11       	cpse	r24, r1
    3cf2:	05 c0       	rjmp	.+10     	; 0x3cfe <TextAdventure+0x8a>

        //Input found, process and save (changes only)
        ProcessInput(&serInput[0]);
    3cf4:	80 e7       	ldi	r24, 0x70	; 112
    3cf6:	98 e3       	ldi	r25, 0x38	; 56
    3cf8:	0e 94 70 15 	call	0x2ae0	; 0x2ae0 <ProcessInput>
    3cfc:	01 c0       	rjmp	.+2      	; 0x3d00 <TextAdventure+0x8c>
    //Not sending? Process next response part to send, if any.
    if (CheckResponse()) return 1;        

    if (PunishmentTime == 0) {
        //No responses to send, check if there is user input.
        if (CheckInput(&serInput[0])) return 2; 
    3cfe:	c2 e0       	ldi	r28, 0x02	; 2
        //Input found, process and save (changes only)
        ProcessInput(&serInput[0]);
    }

    return 0;
}
    3d00:	8c 2f       	mov	r24, r28
    3d02:	cf 91       	pop	r28
    3d04:	08 95       	ret

00003d06 <main>:


//This is where it begins, inits first and main program in while(1) loop.
int main(void)
{
    Setup();
    3d06:	0e 94 fc 04 	call	0x9f8	; 0x9f8 <Setup>

    LoadGameState();
    3d0a:	0e 94 5e 0a 	call	0x14bc	; 0x14bc <LoadGameState>
            if (adcPhot < 10) WriteStatusBit(116, 1);
            if (adcPhot > 100) WriteStatusBit(116, 0);

            dimValueSum -= (dimValueSum>>8);
            dimValueSum += 256;
            dimValueSum -= QSINE[31-(adcPhot>>7)];
    3d0e:	cf e1       	ldi	r28, 0x1F	; 31
    3d10:	d0 e0       	ldi	r29, 0x00	; 0
    Setup();

    LoadGameState();

    while (TRUE) {
        if (GenerateAudio()) {
    3d12:	0e 94 e7 0b 	call	0x17ce	; 0x17ce <GenerateAudio>
    3d16:	88 23       	and	r24, r24
    3d18:	e1 f3       	breq	.-8      	; 0x3d12 <main+0xc>
            lastButtonState = buttonState;
    3d1a:	80 91 08 38 	lds	r24, 0x3808	; 0x803808 <buttonState>
    3d1e:	80 93 07 38 	sts	0x3807, r24	; 0x803807 <lastButtonState>
            buttonState = CheckButtons();
    3d22:	0e 94 bb 08 	call	0x1176	; 0x1176 <CheckButtons>
    3d26:	80 93 08 38 	sts	0x3808, r24	; 0x803808 <buttonState>
            buttonMark = 0;
    3d2a:	10 92 44 38 	sts	0x3844, r1	; 0x803844 <buttonMark>

            if (VREF_CTRLA == 0x12) SelectAuIn(); else SelectTSens();
    3d2e:	80 91 a0 00 	lds	r24, 0x00A0	; 0x8000a0 <__TEXT_REGION_LENGTH__+0x7000a0>
    3d32:	82 31       	cpi	r24, 0x12	; 18
    3d34:	19 f4       	brne	.+6      	; 0x3d3c <main+0x36>
    3d36:	0e 94 ac 08 	call	0x1158	; 0x1158 <SelectAuIn>
    3d3a:	02 c0       	rjmp	.+4      	; 0x3d40 <main+0x3a>
    3d3c:	0e 94 9d 08 	call	0x113a	; 0x113a <SelectTSens>

            GenerateBlinks();
    3d40:	0e 94 2e 0b 	call	0x165c	; 0x165c <GenerateBlinks>

            //Main game, to complete: Finish sub-game MagnetMaze and MakeFriends too.
            TextAdventure();
    3d44:	97 df       	rcall	.-210    	; 0x3c74 <TextAdventure>

            //Other games & user interaction checks
            MagnetMaze();
    3d46:	0e 94 ff 03 	call	0x7fe	; 0x7fe <MagnetMaze>
            LanyardCode();
    3d4a:	0e 94 07 03 	call	0x60e	; 0x60e <LanyardCode>
            BastetDictates();
    3d4e:	0e 94 c3 0d 	call	0x1b86	; 0x1b86 <BastetDictates>
            MakeFriends();
    3d52:	0e 94 7a 00 	call	0xf4	; 0xf4 <MakeFriends>

            //Save progress
            SaveGameState();
    3d56:	0e 94 6c 09 	call	0x12d8	; 0x12d8 <SaveGameState>

            //Check light sensor status (added hysteresis to preserve writing cycles to internal EEPROM)
            if (adcPhot < 10) WriteStatusBit(116, 1);
    3d5a:	80 91 bf 3a 	lds	r24, 0x3ABF	; 0x803abf <adcPhot>
    3d5e:	90 91 c0 3a 	lds	r25, 0x3AC0	; 0x803ac0 <adcPhot+0x1>
    3d62:	0a 97       	sbiw	r24, 0x0a	; 10
    3d64:	20 f4       	brcc	.+8      	; 0x3d6e <main+0x68>
    3d66:	61 e0       	ldi	r22, 0x01	; 1
    3d68:	84 e7       	ldi	r24, 0x74	; 116
    3d6a:	0e 94 f3 09 	call	0x13e6	; 0x13e6 <WriteStatusBit>
            if (adcPhot > 100) WriteStatusBit(116, 0);
    3d6e:	80 91 bf 3a 	lds	r24, 0x3ABF	; 0x803abf <adcPhot>
    3d72:	90 91 c0 3a 	lds	r25, 0x3AC0	; 0x803ac0 <adcPhot+0x1>
    3d76:	85 36       	cpi	r24, 0x65	; 101
    3d78:	91 05       	cpc	r25, r1
    3d7a:	20 f0       	brcs	.+8      	; 0x3d84 <main+0x7e>
    3d7c:	60 e0       	ldi	r22, 0x00	; 0
    3d7e:	84 e7       	ldi	r24, 0x74	; 116
    3d80:	0e 94 f3 09 	call	0x13e6	; 0x13e6 <WriteStatusBit>

            dimValueSum -= (dimValueSum>>8);
    3d84:	20 91 0a 38 	lds	r18, 0x380A	; 0x80380a <dimValueSum>
    3d88:	30 91 0b 38 	lds	r19, 0x380B	; 0x80380b <dimValueSum+0x1>
    3d8c:	80 91 0a 38 	lds	r24, 0x380A	; 0x80380a <dimValueSum>
    3d90:	90 91 0b 38 	lds	r25, 0x380B	; 0x80380b <dimValueSum+0x1>
    3d94:	23 2f       	mov	r18, r19
    3d96:	33 27       	eor	r19, r19
    3d98:	82 1b       	sub	r24, r18
    3d9a:	93 0b       	sbc	r25, r19
    3d9c:	80 93 0a 38 	sts	0x380A, r24	; 0x80380a <dimValueSum>
    3da0:	90 93 0b 38 	sts	0x380B, r25	; 0x80380b <dimValueSum+0x1>
            dimValueSum += 256;
    3da4:	80 91 0a 38 	lds	r24, 0x380A	; 0x80380a <dimValueSum>
    3da8:	90 91 0b 38 	lds	r25, 0x380B	; 0x80380b <dimValueSum+0x1>
    3dac:	93 95       	inc	r25
    3dae:	80 93 0a 38 	sts	0x380A, r24	; 0x80380a <dimValueSum>
    3db2:	90 93 0b 38 	sts	0x380B, r25	; 0x80380b <dimValueSum+0x1>
            dimValueSum -= QSINE[31-(adcPhot>>7)];
    3db6:	20 91 bf 3a 	lds	r18, 0x3ABF	; 0x803abf <adcPhot>
    3dba:	30 91 c0 3a 	lds	r19, 0x3AC0	; 0x803ac0 <adcPhot+0x1>
    3dbe:	80 91 0a 38 	lds	r24, 0x380A	; 0x80380a <dimValueSum>
    3dc2:	90 91 0b 38 	lds	r25, 0x380B	; 0x80380b <dimValueSum+0x1>
    3dc6:	22 0f       	add	r18, r18
    3dc8:	23 2f       	mov	r18, r19
    3dca:	22 1f       	adc	r18, r18
    3dcc:	33 0b       	sbc	r19, r19
    3dce:	31 95       	neg	r19
    3dd0:	fe 01       	movw	r30, r28
    3dd2:	e2 1b       	sub	r30, r18
    3dd4:	f3 0b       	sbc	r31, r19
    3dd6:	ec 5b       	subi	r30, 0xBC	; 188
    3dd8:	f1 44       	sbci	r31, 0x41	; 65
    3dda:	20 81       	ld	r18, Z
    3ddc:	82 1b       	sub	r24, r18
    3dde:	91 09       	sbc	r25, r1
    3de0:	80 93 0a 38 	sts	0x380A, r24	; 0x80380a <dimValueSum>
    3de4:	90 93 0b 38 	sts	0x380B, r25	; 0x80380b <dimValueSum+0x1>
            dimValue     = dimValueSum>>8;
    3de8:	80 91 0a 38 	lds	r24, 0x380A	; 0x80380a <dimValueSum>
    3dec:	90 91 0b 38 	lds	r25, 0x380B	; 0x80380b <dimValueSum+0x1>
    3df0:	90 93 0c 38 	sts	0x380C, r25	; 0x80380c <dimValue>

            //Check temperature
            HotSummer();
    3df4:	0e 94 8b 0a 	call	0x1516	; 0x1516 <HotSummer>
    3df8:	8c cf       	rjmp	.-232    	; 0x3d12 <main+0xc>

00003dfa <_exit>:
    3dfa:	f8 94       	cli

00003dfc <__stop_program>:
    3dfc:	ff cf       	rjmp	.-2      	; 0x3dfc <__stop_program>
