
ISR_IO.elf:     file format elf32-avr

Sections:
Idx Name          Size      VMA       LMA       File off  Algn
  0 .data         00000032  00803800  00003fa1  00004055  2**0
                  CONTENTS, ALLOC, LOAD, DATA
  1 .text         00003ef4  00000000  00000000  000000b4  2**1
                  CONTENTS, ALLOC, LOAD, READONLY, CODE
  2 .rodata       000000ad  0000bef4  00003ef4  00003fa8  2**0
                  CONTENTS, ALLOC, LOAD, READONLY, DATA
  3 .bss          000002e3  00803832  00803832  00004087  2**0
                  ALLOC
  4 .comment      00000030  00000000  00000000  00004087  2**0
                  CONTENTS, READONLY
  5 .note.gnu.avr.deviceinfo 00000040  00000000  00000000  000040b8  2**2
                  CONTENTS, READONLY
  6 .debug_aranges 00000338  00000000  00000000  000040f8  2**0
                  CONTENTS, READONLY, DEBUGGING
  7 .debug_info   00006c4a  00000000  00000000  00004430  2**0
                  CONTENTS, READONLY, DEBUGGING
  8 .debug_abbrev 000028a1  00000000  00000000  0000b07a  2**0
                  CONTENTS, READONLY, DEBUGGING
  9 .debug_line   00003d91  00000000  00000000  0000d91b  2**0
                  CONTENTS, READONLY, DEBUGGING
 10 .debug_frame  000009f0  00000000  00000000  000116ac  2**2
                  CONTENTS, READONLY, DEBUGGING
 11 .debug_str    00001a8f  00000000  00000000  0001209c  2**0
                  CONTENTS, READONLY, DEBUGGING
 12 .debug_loc    00004172  00000000  00000000  00013b2b  2**0
                  CONTENTS, READONLY, DEBUGGING
 13 .debug_ranges 000003a8  00000000  00000000  00017c9d  2**0
                  CONTENTS, READONLY, DEBUGGING

Disassembly of section .text:

00000000 <__vectors>:
       0:	46 c0       	rjmp	.+140    	; 0x8e <__ctors_end>
       2:	00 00       	nop
       4:	61 c0       	rjmp	.+194    	; 0xc8 <__bad_interrupt>
       6:	00 00       	nop
       8:	5f c0       	rjmp	.+190    	; 0xc8 <__bad_interrupt>
       a:	00 00       	nop
       c:	5d c0       	rjmp	.+186    	; 0xc8 <__bad_interrupt>
       e:	00 00       	nop
      10:	5b c0       	rjmp	.+182    	; 0xc8 <__bad_interrupt>
      12:	00 00       	nop
      14:	59 c0       	rjmp	.+178    	; 0xc8 <__bad_interrupt>
      16:	00 00       	nop
      18:	83 c7       	rjmp	.+3846   	; 0xf20 <__vector_6>
      1a:	00 00       	nop
      1c:	d8 c7       	rjmp	.+4016   	; 0xfce <__vector_7>
      1e:	00 00       	nop
      20:	c0 c5       	rjmp	.+2944   	; 0xba2 <__vector_8>
      22:	00 00       	nop
      24:	51 c0       	rjmp	.+162    	; 0xc8 <__bad_interrupt>
      26:	00 00       	nop
      28:	4f c0       	rjmp	.+158    	; 0xc8 <__bad_interrupt>
      2a:	00 00       	nop
      2c:	4d c0       	rjmp	.+154    	; 0xc8 <__bad_interrupt>
      2e:	00 00       	nop
      30:	4b c0       	rjmp	.+150    	; 0xc8 <__bad_interrupt>
      32:	00 00       	nop
      34:	07 c6       	rjmp	.+3086   	; 0xc44 <__vector_13>
      36:	00 00       	nop
      38:	38 c6       	rjmp	.+3184   	; 0xcaa <__vector_14>
      3a:	00 00       	nop
      3c:	45 c0       	rjmp	.+138    	; 0xc8 <__bad_interrupt>
      3e:	00 00       	nop
      40:	43 c0       	rjmp	.+134    	; 0xc8 <__bad_interrupt>
      42:	00 00       	nop
      44:	41 c0       	rjmp	.+130    	; 0xc8 <__bad_interrupt>
      46:	00 00       	nop
      48:	3f c0       	rjmp	.+126    	; 0xc8 <__bad_interrupt>
      4a:	00 00       	nop
      4c:	3d c0       	rjmp	.+122    	; 0xc8 <__bad_interrupt>
      4e:	00 00       	nop
      50:	f3 c6       	rjmp	.+3558   	; 0xe38 <__vector_20>
      52:	00 00       	nop
      54:	39 c0       	rjmp	.+114    	; 0xc8 <__bad_interrupt>
      56:	00 00       	nop
      58:	1b c7       	rjmp	.+3638   	; 0xe90 <__vector_22>
      5a:	00 00       	nop
      5c:	35 c0       	rjmp	.+106    	; 0xc8 <__bad_interrupt>
      5e:	00 00       	nop
      60:	33 c0       	rjmp	.+102    	; 0xc8 <__bad_interrupt>
      62:	00 00       	nop
      64:	31 c0       	rjmp	.+98     	; 0xc8 <__bad_interrupt>
      66:	00 00       	nop
      68:	2f c0       	rjmp	.+94     	; 0xc8 <__bad_interrupt>
      6a:	00 00       	nop
      6c:	6e c6       	rjmp	.+3292   	; 0xd4a <__vector_27>
      6e:	00 00       	nop
      70:	c7 c6       	rjmp	.+3470   	; 0xe00 <__vector_28>
      72:	00 00       	nop
      74:	29 c0       	rjmp	.+82     	; 0xc8 <__bad_interrupt>
      76:	00 00       	nop
      78:	27 c0       	rjmp	.+78     	; 0xc8 <__bad_interrupt>
      7a:	00 00       	nop
      7c:	ad 0b       	sbc	r26, r29
      7e:	db 0b       	sbc	r29, r27
      80:	e2 0b       	sbc	r30, r18
      82:	91 0c       	add	r9, r1
      84:	91 0c       	add	r9, r1
      86:	f6 0b       	sbc	r31, r22
      88:	08 0c       	add	r0, r8
      8a:	33 0c       	add	r3, r3
      8c:	57 0c       	add	r5, r7

0000008e <__ctors_end>:
      8e:	11 24       	eor	r1, r1
      90:	1f be       	out	0x3f, r1	; 63
      92:	cf ef       	ldi	r28, 0xFF	; 255
      94:	cd bf       	out	0x3d, r28	; 61
      96:	df e3       	ldi	r29, 0x3F	; 63
      98:	de bf       	out	0x3e, r29	; 62

0000009a <__do_copy_data>:
      9a:	18 e3       	ldi	r17, 0x38	; 56
      9c:	a0 e0       	ldi	r26, 0x00	; 0
      9e:	b8 e3       	ldi	r27, 0x38	; 56
      a0:	e1 ea       	ldi	r30, 0xA1	; 161
      a2:	ff e3       	ldi	r31, 0x3F	; 63
      a4:	02 c0       	rjmp	.+4      	; 0xaa <__do_copy_data+0x10>
      a6:	05 90       	lpm	r0, Z+
      a8:	0d 92       	st	X+, r0
      aa:	a2 33       	cpi	r26, 0x32	; 50
      ac:	b1 07       	cpc	r27, r17
      ae:	d9 f7       	brne	.-10     	; 0xa6 <__do_copy_data+0xc>

000000b0 <__do_clear_bss>:
      b0:	2b e3       	ldi	r18, 0x3B	; 59
      b2:	a2 e3       	ldi	r26, 0x32	; 50
      b4:	b8 e3       	ldi	r27, 0x38	; 56
      b6:	01 c0       	rjmp	.+2      	; 0xba <.do_clear_bss_start>

000000b8 <.do_clear_bss_loop>:
      b8:	1d 92       	st	X+, r1

000000ba <.do_clear_bss_start>:
      ba:	a5 31       	cpi	r26, 0x15	; 21
      bc:	b2 07       	cpc	r27, r18
      be:	e1 f7       	brne	.-8      	; 0xb8 <.do_clear_bss_loop>
      c0:	0e 94 f0 1e 	call	0x3de0	; 0x3de0 <main>
      c4:	0c 94 78 1f 	jmp	0x3ef0	; 0x3ef0 <_exit>

000000c8 <__bad_interrupt>:
      c8:	9b cf       	rjmp	.-202    	; 0x0 <__vectors>

000000ca <chkVolt250>:
#include <main_def.h>
#include <resources.h>
#include <I2C.h>

//Returns measured voltage * 4 (2V returns 8) if it is in the expected range (DELTA)
uint8_t chkVolt250(){
      ca:	28 ed       	ldi	r18, 0xD8	; 216
      cc:	30 e0       	ldi	r19, 0x00	; 0
    uint8_t avgVolt = 9;
      ce:	89 e0       	ldi	r24, 0x09	; 9
        
    for (uint8_t x=225; x>24; x-=25) {
        if ((auIn > (x-DELTA)) && (auIn < (x+DELTA))) {
      d0:	40 91 c5 3a 	lds	r20, 0x3AC5	; 0x803ac5 <auIn>
      d4:	50 e0       	ldi	r21, 0x00	; 0
      d6:	42 17       	cp	r20, r18
      d8:	53 07       	cpc	r21, r19
      da:	4c f0       	brlt	.+18     	; 0xee <chkVolt250+0x24>
      dc:	40 91 c5 3a 	lds	r20, 0x3AC5	; 0x803ac5 <auIn>
      e0:	50 e0       	ldi	r21, 0x00	; 0
      e2:	b9 01       	movw	r22, r18
      e4:	6e 5e       	subi	r22, 0xEE	; 238
      e6:	7f 4f       	sbci	r23, 0xFF	; 255
      e8:	64 17       	cp	r22, r20
      ea:	75 07       	cpc	r23, r21
      ec:	2c f4       	brge	.+10     	; 0xf8 <chkVolt250+0x2e>
            break;
        }
        --avgVolt;
      ee:	81 50       	subi	r24, 0x01	; 1
      f0:	29 51       	subi	r18, 0x19	; 25
      f2:	31 09       	sbc	r19, r1

//Returns measured voltage * 4 (2V returns 8) if it is in the expected range (DELTA)
uint8_t chkVolt250(){
    uint8_t avgVolt = 9;
        
    for (uint8_t x=225; x>24; x-=25) {
      f4:	81 11       	cpse	r24, r1
      f6:	ec cf       	rjmp	.-40     	; 0xd0 <chkVolt250+0x6>
            break;
        }
        --avgVolt;
    }
    return avgVolt;
}
      f8:	08 95       	ret

000000fa <MakeFriends>:

// Main game loop
uint8_t MakeFriends(){
      fa:	cf 93       	push	r28
      fc:	df 93       	push	r29
      fe:	c4 e6       	ldi	r28, 0x64	; 100
    static uint8_t chkTmr = 0;
    static uint8_t jackIn = 0;
    static uint8_t candidate = 0;

    //Check if badge has found 3 friends
    uint8_t foundAll = 1;
     100:	d1 e0       	ldi	r29, 0x01	; 1
    for (uint8_t x=0; x<4; ++x){
        if (CheckState(100+x) == 0) foundAll = 0;
     102:	8c 2f       	mov	r24, r28
     104:	0e 94 15 0a 	call	0x142a	; 0x142a <CheckState>
     108:	81 11       	cpse	r24, r1
     10a:	01 c0       	rjmp	.+2      	; 0x10e <MakeFriends+0x14>
     10c:	d0 e0       	ldi	r29, 0x00	; 0
     10e:	cf 5f       	subi	r28, 0xFF	; 255
    static uint8_t jackIn = 0;
    static uint8_t candidate = 0;

    //Check if badge has found 3 friends
    uint8_t foundAll = 1;
    for (uint8_t x=0; x<4; ++x){
     110:	c8 36       	cpi	r28, 0x68	; 104
     112:	b9 f7       	brne	.-18     	; 0x102 <MakeFriends+0x8>
        if (CheckState(100+x) == 0) foundAll = 0;
    }
    if (foundAll) UpdateState(124);
     114:	dd 23       	and	r29, r29
     116:	19 f0       	breq	.+6      	; 0x11e <MakeFriends+0x24>
     118:	8c e7       	ldi	r24, 0x7C	; 124
     11a:	0e 94 f4 09 	call	0x13e8	; 0x13e8 <UpdateState>

    //Set game state, must be able to hijack from other games.
    if (progress > FIRST_CONTACT) { 
     11e:	80 91 35 38 	lds	r24, 0x3835	; 0x803835 <progress.3788>
     122:	82 30       	cpi	r24, 0x02	; 2
     124:	20 f0       	brcs	.+8      	; 0x12e <MakeFriends+0x34>
        gameNow = FRIENDS; 
     126:	94 e0       	ldi	r25, 0x04	; 4
     128:	90 93 3e 38 	sts	0x383E, r25	; 0x80383e <gameNow>
     12c:	0d c0       	rjmp	.+26     	; 0x148 <MakeFriends+0x4e>
    }
    
    //Clear game state if not communicating properly or headphones detected
    if (((progress == NO_OTHER) || detHdPh) && (gameNow == FRIENDS)) {
     12e:	81 11       	cpse	r24, r1
     130:	0b c0       	rjmp	.+22     	; 0x148 <MakeFriends+0x4e>
     132:	90 91 3e 38 	lds	r25, 0x383E	; 0x80383e <gameNow>
     136:	94 30       	cpi	r25, 0x04	; 4
     138:	61 f4       	brne	.+24     	; 0x152 <MakeFriends+0x58>
        gameNow = TEXT; 
     13a:	10 92 3e 38 	sts	0x383E, r1	; 0x80383e <gameNow>
        effect = 0;
     13e:	10 92 3c 38 	sts	0x383C, r1	; 0x80383c <effect>
     142:	10 92 3d 38 	sts	0x383D, r1	; 0x80383d <effect+0x1>
     146:	05 c0       	rjmp	.+10     	; 0x152 <MakeFriends+0x58>
    if (progress > FIRST_CONTACT) { 
        gameNow = FRIENDS; 
    }
    
    //Clear game state if not communicating properly or headphones detected
    if (((progress == NO_OTHER) || detHdPh) && (gameNow == FRIENDS)) {
     148:	90 91 c2 3a 	lds	r25, 0x3AC2	; 0x803ac2 <detHdPh>
     14c:	91 11       	cpse	r25, r1
     14e:	f1 cf       	rjmp	.-30     	; 0x132 <MakeFriends+0x38>
     150:	18 c0       	rjmp	.+48     	; 0x182 <MakeFriends+0x88>
        gameNow = TEXT; 
        effect = 0;
    }

    //Audio off, set voltage level (setDAC[0]*10mV)
    if ((progress == NO_OTHER) && (detHdPh == 0)) {
     152:	81 11       	cpse	r24, r1
     154:	16 c0       	rjmp	.+44     	; 0x182 <MakeFriends+0x88>
     156:	90 91 c2 3a 	lds	r25, 0x3AC2	; 0x803ac2 <detHdPh>
     15a:	91 11       	cpse	r25, r1
     15c:	12 c0       	rjmp	.+36     	; 0x182 <MakeFriends+0x88>
        setDAC[0] = whoami * 51;
     15e:	80 91 3f 38 	lds	r24, 0x383F	; 0x80383f <whoami>
     162:	93 e3       	ldi	r25, 0x33	; 51
     164:	89 9f       	mul	r24, r25
     166:	80 2d       	mov	r24, r0
     168:	11 24       	eor	r1, r1
     16a:	80 93 00 38 	sts	0x3800, r24	; 0x803800 <__data_start>
        auRepAddr = &setDAC[0];
     16e:	80 e0       	ldi	r24, 0x00	; 0
     170:	98 e3       	ldi	r25, 0x38	; 56
     172:	80 93 03 38 	sts	0x3803, r24	; 0x803803 <auRepAddr>
     176:	90 93 04 38 	sts	0x3804, r25	; 0x803804 <auRepAddr+0x1>
        auVolume = 255;
     17a:	8f ef       	ldi	r24, 0xFF	; 255
     17c:	80 93 b9 3a 	sts	0x3AB9, r24	; 0x803ab9 <auVolume>
     180:	0e c0       	rjmp	.+28     	; 0x19e <MakeFriends+0xa4>
    } else {
        ++chkTmr;
     182:	90 91 34 38 	lds	r25, 0x3834	; 0x803834 <chkTmr.3790>
     186:	9f 5f       	subi	r25, 0xFF	; 255
     188:	90 93 34 38 	sts	0x3834, r25	; 0x803834 <chkTmr.3790>
        if (progress & NEXT){
     18c:	98 2f       	mov	r25, r24
     18e:	90 7f       	andi	r25, 0xF0	; 240
     190:	31 f0       	breq	.+12     	; 0x19e <MakeFriends+0xa4>
            progress++;
            progress&=0x0f;
     192:	8f 5f       	subi	r24, 0xFF	; 255
     194:	8f 70       	andi	r24, 0x0F	; 15
     196:	80 93 35 38 	sts	0x3835, r24	; 0x803835 <progress.3788>
            chkTmr = 0;
     19a:	10 92 34 38 	sts	0x3834, r1	; 0x803834 <chkTmr.3790>
        }
    }

    //Check for other badges ()
    if ((auIn < (setDAC[0] - DELTA)) || (auIn > (setDAC[0] + DELTA)) || (progress > FIRST_CONTACT)) {
     19e:	40 91 c5 3a 	lds	r20, 0x3AC5	; 0x803ac5 <auIn>
     1a2:	20 91 00 38 	lds	r18, 0x3800	; 0x803800 <__data_start>
     1a6:	30 e0       	ldi	r19, 0x00	; 0
     1a8:	50 e0       	ldi	r21, 0x00	; 0
     1aa:	b9 01       	movw	r22, r18
     1ac:	6a 50       	subi	r22, 0x0A	; 10
     1ae:	71 09       	sbc	r23, r1
     1b0:	80 91 35 38 	lds	r24, 0x3835	; 0x803835 <progress.3788>
     1b4:	46 17       	cp	r20, r22
     1b6:	57 07       	cpc	r21, r23
     1b8:	5c f0       	brlt	.+22     	; 0x1d0 <MakeFriends+0xd6>
     1ba:	40 91 c5 3a 	lds	r20, 0x3AC5	; 0x803ac5 <auIn>
     1be:	50 e0       	ldi	r21, 0x00	; 0
     1c0:	26 5f       	subi	r18, 0xF6	; 246
     1c2:	3f 4f       	sbci	r19, 0xFF	; 255
     1c4:	24 17       	cp	r18, r20
     1c6:	35 07       	cpc	r19, r21
     1c8:	1c f0       	brlt	.+6      	; 0x1d0 <MakeFriends+0xd6>
     1ca:	82 30       	cpi	r24, 0x02	; 2
     1cc:	08 f4       	brcc	.+2      	; 0x1d0 <MakeFriends+0xd6>
     1ce:	43 c0       	rjmp	.+134    	; 0x256 <MakeFriends+0x15c>
        if ((progress == NO_OTHER) && (detHdPh == 0)) {
     1d0:	81 11       	cpse	r24, r1
     1d2:	0b c0       	rjmp	.+22     	; 0x1ea <MakeFriends+0xf0>
     1d4:	80 91 c2 3a 	lds	r24, 0x3AC2	; 0x803ac2 <detHdPh>
     1d8:	81 11       	cpse	r24, r1
     1da:	8f c0       	rjmp	.+286    	; 0x2fa <MakeFriends+0x200>
            if (chkTmr >= 8) {
     1dc:	80 91 34 38 	lds	r24, 0x3834	; 0x803834 <chkTmr.3790>
     1e0:	88 30       	cpi	r24, 0x08	; 8
     1e2:	08 f4       	brcc	.+2      	; 0x1e6 <MakeFriends+0xec>
     1e4:	8a c0       	rjmp	.+276    	; 0x2fa <MakeFriends+0x200>
                progress |= NEXT;
     1e6:	80 ef       	ldi	r24, 0xF0	; 240
     1e8:	5d c0       	rjmp	.+186    	; 0x2a4 <MakeFriends+0x1aa>
            }
        }

        //Candidate found, check ranges
        else if (progress == FIRST_CONTACT) {
     1ea:	81 30       	cpi	r24, 0x01	; 1
     1ec:	41 f5       	brne	.+80     	; 0x23e <MakeFriends+0x144>
            jackIn = chkVolt250();
     1ee:	6d df       	rcall	.-294    	; 0xca <chkVolt250>
     1f0:	80 93 33 38 	sts	0x3833, r24	; 0x803833 <jackIn.3791>
            if (jackIn) {
     1f4:	88 23       	and	r24, r24
     1f6:	79 f1       	breq	.+94     	; 0x256 <MakeFriends+0x15c>
                if (chkTmr >= SHORT_WAIT){
     1f8:	90 91 34 38 	lds	r25, 0x3834	; 0x803834 <chkTmr.3790>
     1fc:	98 30       	cpi	r25, 0x08	; 8
     1fe:	08 f4       	brcc	.+2      	; 0x202 <MakeFriends+0x108>
     200:	7c c0       	rjmp	.+248    	; 0x2fa <MakeFriends+0x200>
                    if (   ((whoami == 1)&&((jackIn >= 3)&&(jackIn <= 5))) 
     202:	90 91 3f 38 	lds	r25, 0x383F	; 0x80383f <whoami>
     206:	91 30       	cpi	r25, 0x01	; 1
     208:	11 f4       	brne	.+4      	; 0x20e <MakeFriends+0x114>
     20a:	83 50       	subi	r24, 0x03	; 3
     20c:	14 c0       	rjmp	.+40     	; 0x236 <MakeFriends+0x13c>
                    || ((whoami == 2)&&((jackIn == 3)||(jackIn == 5)||(jackIn == 6)))  
     20e:	92 30       	cpi	r25, 0x02	; 2
     210:	31 f4       	brne	.+12     	; 0x21e <MakeFriends+0x124>
     212:	83 30       	cpi	r24, 0x03	; 3
     214:	91 f0       	breq	.+36     	; 0x23a <MakeFriends+0x140>
     216:	85 50       	subi	r24, 0x05	; 5
     218:	82 30       	cpi	r24, 0x02	; 2
     21a:	e8 f4       	brcc	.+58     	; 0x256 <MakeFriends+0x15c>
     21c:	0e c0       	rjmp	.+28     	; 0x23a <MakeFriends+0x140>
                    || ((whoami == 3)&&((jackIn == 4)||(jackIn == 5)||(jackIn == 7))) 
     21e:	93 30       	cpi	r25, 0x03	; 3
     220:	39 f4       	brne	.+14     	; 0x230 <MakeFriends+0x136>
     222:	9c ef       	ldi	r25, 0xFC	; 252
     224:	98 0f       	add	r25, r24
     226:	92 30       	cpi	r25, 0x02	; 2
     228:	40 f0       	brcs	.+16     	; 0x23a <MakeFriends+0x140>
     22a:	87 30       	cpi	r24, 0x07	; 7
     22c:	a1 f4       	brne	.+40     	; 0x256 <MakeFriends+0x15c>
     22e:	05 c0       	rjmp	.+10     	; 0x23a <MakeFriends+0x140>
                    || ((whoami == 4)&&((jackIn >= 5)&&(jackIn <= 7)))   ) {
     230:	94 30       	cpi	r25, 0x04	; 4
     232:	89 f4       	brne	.+34     	; 0x256 <MakeFriends+0x15c>
     234:	85 50       	subi	r24, 0x05	; 5
     236:	83 30       	cpi	r24, 0x03	; 3
     238:	70 f4       	brcc	.+28     	; 0x256 <MakeFriends+0x15c>
                        progress |= NEXT;
     23a:	81 ef       	ldi	r24, 0xF1	; 241
     23c:	33 c0       	rjmp	.+102    	; 0x2a4 <MakeFriends+0x1aa>
                progress = NO_OTHER;
            }
        }

        //Wait for the other badge (and a bit longer for effect)
        else if (progress == SECOND_LOVE){
     23e:	82 30       	cpi	r24, 0x02	; 2
     240:	69 f0       	breq	.+26     	; 0x25c <MakeFriends+0x162>
                progress |= NEXT;
            }
        } 
        
        //Wait a bit, check Voltage again, if ok show who you connected with and your own number, save, exit
        else if (progress == THIRD_KISS) {
     242:	83 30       	cpi	r24, 0x03	; 3
     244:	91 f1       	breq	.+100    	; 0x2aa <MakeFriends+0x1b0>
                    progress |= NEXT;
                } else progress = NO_OTHER;                
            }

        //Wait for quit
        } else if (progress == FOURTH_BASE) {
     246:	84 30       	cpi	r24, 0x04	; 4
     248:	09 f0       	breq	.+2      	; 0x24c <MakeFriends+0x152>
     24a:	57 c0       	rjmp	.+174    	; 0x2fa <MakeFriends+0x200>
            if (chkTmr >= (SHORT_WAIT<<3)) {
     24c:	80 91 34 38 	lds	r24, 0x3834	; 0x803834 <chkTmr.3790>
     250:	80 34       	cpi	r24, 0x40	; 64
     252:	08 f4       	brcc	.+2      	; 0x256 <MakeFriends+0x15c>
     254:	52 c0       	rjmp	.+164    	; 0x2fa <MakeFriends+0x200>
                    if (   ((whoami == 1)&&((jackIn >= 3)&&(jackIn <= 5))) 
                    || ((whoami == 2)&&((jackIn == 3)||(jackIn == 5)||(jackIn == 6)))  
                    || ((whoami == 3)&&((jackIn == 4)||(jackIn == 5)||(jackIn == 7))) 
                    || ((whoami == 4)&&((jackIn >= 5)&&(jackIn <= 7)))   ) {
                        progress |= NEXT;
                    } else progress = NO_OTHER;
     256:	10 92 35 38 	sts	0x3835, r1	; 0x803835 <progress.3788>
     25a:	4f c0       	rjmp	.+158    	; 0x2fa <MakeFriends+0x200>
        }

        //Wait for the other badge (and a bit longer for effect)
        else if (progress == SECOND_LOVE){
            
            effect = 7;
     25c:	87 e0       	ldi	r24, 0x07	; 7
     25e:	90 e0       	ldi	r25, 0x00	; 0
     260:	80 93 3c 38 	sts	0x383C, r24	; 0x80383c <effect>
     264:	90 93 3d 38 	sts	0x383D, r25	; 0x80383d <effect+0x1>
            if (chkTmr >= SHORT_WAIT) {
     268:	80 91 34 38 	lds	r24, 0x3834	; 0x803834 <chkTmr.3790>
     26c:	88 30       	cpi	r24, 0x08	; 8
     26e:	38 f0       	brcs	.+14     	; 0x27e <MakeFriends+0x184>
                setDAC[0] = floatAround(0x80, 8, 100, 255); 
     270:	2f ef       	ldi	r18, 0xFF	; 255
     272:	44 e6       	ldi	r20, 0x64	; 100
     274:	68 e0       	ldi	r22, 0x08	; 8
     276:	80 e8       	ldi	r24, 0x80	; 128
     278:	fe d7       	rcall	.+4092   	; 0x1276 <floatAround>
     27a:	80 93 00 38 	sts	0x3800, r24	; 0x803800 <__data_start>
            }

            //The badge with the lowest voltage will now go to 2.5V (impedance check, for people tricking the things with a power supply)
            if (chkTmr >= LONG_WAIT){
     27e:	80 91 34 38 	lds	r24, 0x3834	; 0x803834 <chkTmr.3790>
     282:	8a 3f       	cpi	r24, 0xFA	; 250
     284:	d0 f1       	brcs	.+116    	; 0x2fa <MakeFriends+0x200>
                candidate = jackIn-whoami;
     286:	90 91 3f 38 	lds	r25, 0x383F	; 0x80383f <whoami>
     28a:	80 91 33 38 	lds	r24, 0x3833	; 0x803833 <jackIn.3791>
     28e:	89 1b       	sub	r24, r25
     290:	80 93 32 38 	sts	0x3832, r24	; 0x803832 <__data_end>
                if (candidate > whoami) {
     294:	98 17       	cp	r25, r24
     296:	18 f4       	brcc	.+6      	; 0x29e <MakeFriends+0x1a4>
                    setDAC[0] = 249;
     298:	89 ef       	ldi	r24, 0xF9	; 249
     29a:	80 93 00 38 	sts	0x3800, r24	; 0x803800 <__data_start>
                }
                progress |= NEXT;
     29e:	80 91 35 38 	lds	r24, 0x3835	; 0x803835 <progress.3788>
     2a2:	80 6f       	ori	r24, 0xF0	; 240
     2a4:	80 93 35 38 	sts	0x3835, r24	; 0x803835 <progress.3788>
     2a8:	28 c0       	rjmp	.+80     	; 0x2fa <MakeFriends+0x200>
            }
        } 
        
        //Wait a bit, check Voltage again, if ok show who you connected with and your own number, save, exit
        else if (progress == THIRD_KISS) {
            if (chkTmr >= SHORT_WAIT) {
     2aa:	80 91 34 38 	lds	r24, 0x3834	; 0x803834 <chkTmr.3790>
     2ae:	88 30       	cpi	r24, 0x08	; 8
                jackIn = chkVolt250();
     2b0:	20 f1       	brcs	.+72     	; 0x2fa <MakeFriends+0x200>
     2b2:	0b df       	rcall	.-490    	; 0xca <chkVolt250>
     2b4:	80 93 33 38 	sts	0x3833, r24	; 0x803833 <jackIn.3791>
                if (jackIn == (((candidate > whoami)?candidate:whoami) + 5)) {
     2b8:	90 91 32 38 	lds	r25, 0x3832	; 0x803832 <__data_end>
     2bc:	48 2f       	mov	r20, r24
     2be:	50 e0       	ldi	r21, 0x00	; 0
     2c0:	20 91 3f 38 	lds	r18, 0x383F	; 0x80383f <whoami>
     2c4:	29 17       	cp	r18, r25
     2c6:	08 f4       	brcc	.+2      	; 0x2ca <MakeFriends+0x1d0>
     2c8:	29 2f       	mov	r18, r25
     2ca:	30 e0       	ldi	r19, 0x00	; 0
     2cc:	2b 5f       	subi	r18, 0xFB	; 251
     2ce:	3f 4f       	sbci	r19, 0xFF	; 255
     2d0:	42 17       	cp	r20, r18
     2d2:	53 07       	cpc	r21, r19
     2d4:	09 f0       	breq	.+2      	; 0x2d8 <MakeFriends+0x1de>
     2d6:	bf cf       	rjmp	.-130    	; 0x256 <MakeFriends+0x15c>
                    UpdateState(99+candidate);
     2d8:	83 e6       	ldi	r24, 0x63	; 99
     2da:	89 0f       	add	r24, r25
     2dc:	0e 94 f4 09 	call	0x13e8	; 0x13e8 <UpdateState>
                 
                    effect = 31;
     2e0:	8f e1       	ldi	r24, 0x1F	; 31
     2e2:	90 e0       	ldi	r25, 0x00	; 0
     2e4:	80 93 3c 38 	sts	0x383C, r24	; 0x80383c <effect>
     2e8:	90 93 3d 38 	sts	0x383D, r25	; 0x80383d <effect+0x1>
                    WingBar(candidate, whoami);
     2ec:	60 91 3f 38 	lds	r22, 0x383F	; 0x80383f <whoami>
     2f0:	80 91 32 38 	lds	r24, 0x3832	; 0x803832 <__data_end>
     2f4:	0e 94 e6 0a 	call	0x15cc	; 0x15cc <WingBar>
     2f8:	d2 cf       	rjmp	.-92     	; 0x29e <MakeFriends+0x1a4>
    } else {
        progress = NO_OTHER;
    }
      
    return 0;
}
     2fa:	80 e0       	ldi	r24, 0x00	; 0
     2fc:	df 91       	pop	r29
     2fe:	cf 91       	pop	r28
     300:	08 95       	ret

00000302 <I2C_init>:
// the Atmel device documentation mentions a special command for repeated start TWI_MCMD_REPSTART_gc,
// but this is not used in Atmel's demo code, so we don't use it either

void I2C_rep_start(uint8_t shifted_addr)						    // send repeated start, device_addr + LSB set if READ
{
	TWI0.MADDR = shifted_addr;	
     302:	81 e0       	ldi	r24, 0x01	; 1
     304:	80 93 22 04 	sts	0x0422, r24	; 0x800422 <__TEXT_REGION_LENGTH__+0x700422>
     308:	e6 e2       	ldi	r30, 0x26	; 38
     30a:	f4 e0       	ldi	r31, 0x04	; 4
     30c:	80 83       	st	Z, r24
     30e:	10 92 30 04 	sts	0x0430, r1	; 0x800430 <__TEXT_REGION_LENGTH__+0x700430>
     312:	a1 e2       	ldi	r26, 0x21	; 33
     314:	b4 e0       	ldi	r27, 0x04	; 4
     316:	92 e0       	ldi	r25, 0x02	; 2
     318:	9c 93       	st	X, r25
     31a:	90 83       	st	Z, r25
     31c:	10 92 31 04 	sts	0x0431, r1	; 0x800431 <__TEXT_REGION_LENGTH__+0x700431>
     320:	e0 e1       	ldi	r30, 0x10	; 16
     322:	f8 e0       	ldi	r31, 0x08	; 8
     324:	97 e0       	ldi	r25, 0x07	; 7
     326:	96 83       	std	Z+6, r25	; 0x06
     328:	98 e0       	ldi	r25, 0x08	; 8
     32a:	94 83       	std	Z+4, r25	; 0x04
     32c:	83 83       	std	Z+3, r24	; 0x03
     32e:	8c 93       	st	X, r24
     330:	85 81       	ldd	r24, Z+5	; 0x05
     332:	81 60       	ori	r24, 0x01	; 1
     334:	85 83       	std	Z+5, r24	; 0x05
     336:	85 81       	ldd	r24, Z+5	; 0x05
     338:	84 6c       	ori	r24, 0xC4	; 196
     33a:	85 83       	std	Z+5, r24	; 0x05
     33c:	08 95       	ret

0000033e <I2C_recover>:
     33e:	80 91 14 08 	lds	r24, 0x0814	; 0x800814 <__TEXT_REGION_LENGTH__+0x700814>
     342:	88 60       	ori	r24, 0x08	; 8
     344:	80 93 14 08 	sts	0x0814, r24	; 0x800814 <__TEXT_REGION_LENGTH__+0x700814>
     348:	10 92 13 08 	sts	0x0813, r1	; 0x800813 <__TEXT_REGION_LENGTH__+0x700813>
     34c:	82 e0       	ldi	r24, 0x02	; 2
     34e:	80 93 22 04 	sts	0x0422, r24	; 0x800422 <__TEXT_REGION_LENGTH__+0x700422>
     352:	99 e0       	ldi	r25, 0x09	; 9
     354:	21 e0       	ldi	r18, 0x01	; 1
     356:	81 e0       	ldi	r24, 0x01	; 1
     358:	20 93 21 04 	sts	0x0421, r18	; 0x800421 <__TEXT_REGION_LENGTH__+0x700421>
     35c:	30 e1       	ldi	r19, 0x10	; 16
     35e:	3a 95       	dec	r19
     360:	f1 f7       	brne	.-4      	; 0x35e <I2C_recover+0x20>
     362:	00 c0       	rjmp	.+0      	; 0x364 <I2C_recover+0x26>
     364:	20 93 22 04 	sts	0x0422, r18	; 0x800422 <__TEXT_REGION_LENGTH__+0x700422>
     368:	30 e1       	ldi	r19, 0x10	; 16
     36a:	3a 95       	dec	r19
     36c:	f1 f7       	brne	.-4      	; 0x36a <I2C_recover+0x2c>
     36e:	00 c0       	rjmp	.+0      	; 0x370 <I2C_recover+0x32>
     370:	91 50       	subi	r25, 0x01	; 1
     372:	89 f7       	brne	.-30     	; 0x356 <I2C_recover+0x18>
     374:	28 e0       	ldi	r18, 0x08	; 8
     376:	20 93 14 08 	sts	0x0814, r18	; 0x800814 <__TEXT_REGION_LENGTH__+0x700814>
     37a:	80 93 13 08 	sts	0x0813, r24	; 0x800813 <__TEXT_REGION_LENGTH__+0x700813>
     37e:	92 e0       	ldi	r25, 0x02	; 2
     380:	90 93 21 04 	sts	0x0421, r25	; 0x800421 <__TEXT_REGION_LENGTH__+0x700421>
     384:	90 91 15 08 	lds	r25, 0x0815	; 0x800815 <__TEXT_REGION_LENGTH__+0x700815>
     388:	91 60       	ori	r25, 0x01	; 1
     38a:	90 93 15 08 	sts	0x0815, r25	; 0x800815 <__TEXT_REGION_LENGTH__+0x700815>
     38e:	90 91 15 08 	lds	r25, 0x0815	; 0x800815 <__TEXT_REGION_LENGTH__+0x700815>
     392:	94 6c       	ori	r25, 0xC4	; 196
     394:	90 93 15 08 	sts	0x0815, r25	; 0x800815 <__TEXT_REGION_LENGTH__+0x700815>
     398:	20 93 14 08 	sts	0x0814, r18	; 0x800814 <__TEXT_REGION_LENGTH__+0x700814>
     39c:	80 93 13 08 	sts	0x0813, r24	; 0x800813 <__TEXT_REGION_LENGTH__+0x700813>
     3a0:	80 93 21 04 	sts	0x0421, r24	; 0x800421 <__TEXT_REGION_LENGTH__+0x700421>
     3a4:	80 91 15 08 	lds	r24, 0x0815	; 0x800815 <__TEXT_REGION_LENGTH__+0x700815>
     3a8:	81 60       	ori	r24, 0x01	; 1
     3aa:	80 93 15 08 	sts	0x0815, r24	; 0x800815 <__TEXT_REGION_LENGTH__+0x700815>
     3ae:	80 91 15 08 	lds	r24, 0x0815	; 0x800815 <__TEXT_REGION_LENGTH__+0x700815>
     3b2:	84 6c       	ori	r24, 0xC4	; 196
     3b4:	80 93 15 08 	sts	0x0815, r24	; 0x800815 <__TEXT_REGION_LENGTH__+0x700815>
     3b8:	08 95       	ret

000003ba <I2C_start>:
     3ba:	28 2f       	mov	r18, r24
     3bc:	90 91 15 08 	lds	r25, 0x0815	; 0x800815 <__TEXT_REGION_LENGTH__+0x700815>
     3c0:	90 6c       	ori	r25, 0xC0	; 192
     3c2:	90 93 15 08 	sts	0x0815, r25	; 0x800815 <__TEXT_REGION_LENGTH__+0x700815>
     3c6:	90 91 15 08 	lds	r25, 0x0815	; 0x800815 <__TEXT_REGION_LENGTH__+0x700815>
     3ca:	89 2f       	mov	r24, r25
     3cc:	84 70       	andi	r24, 0x04	; 4
     3ce:	92 fd       	sbrc	r25, 2
     3d0:	03 c0       	rjmp	.+6      	; 0x3d8 <I2C_start+0x1e>
     3d2:	20 93 17 08 	sts	0x0817, r18	; 0x800817 <__TEXT_REGION_LENGTH__+0x700817>
     3d6:	08 95       	ret
     3d8:	84 e0       	ldi	r24, 0x04	; 4
     3da:	08 95       	ret

000003dc <I2C_wait_ACK>:
     3dc:	8c e0       	ldi	r24, 0x0C	; 12
     3de:	80 93 63 3a 	sts	0x3A63, r24	; 0x803a63 <timeout_I2C>
     3e2:	80 91 15 08 	lds	r24, 0x0815	; 0x800815 <__TEXT_REGION_LENGTH__+0x700815>
     3e6:	87 fd       	sbrc	r24, 7
     3e8:	0a c0       	rjmp	.+20     	; 0x3fe <I2C_wait_ACK+0x22>
     3ea:	80 91 15 08 	lds	r24, 0x0815	; 0x800815 <__TEXT_REGION_LENGTH__+0x700815>
     3ee:	86 fd       	sbrc	r24, 6
     3f0:	06 c0       	rjmp	.+12     	; 0x3fe <I2C_wait_ACK+0x22>
     3f2:	80 91 63 3a 	lds	r24, 0x3A63	; 0x803a63 <timeout_I2C>
     3f6:	81 11       	cpse	r24, r1
     3f8:	f4 cf       	rjmp	.-24     	; 0x3e2 <I2C_wait_ACK+0x6>
     3fa:	8f ef       	ldi	r24, 0xFF	; 255
     3fc:	08 95       	ret
     3fe:	80 91 15 08 	lds	r24, 0x0815	; 0x800815 <__TEXT_REGION_LENGTH__+0x700815>
     402:	80 6c       	ori	r24, 0xC0	; 192
     404:	80 93 15 08 	sts	0x0815, r24	; 0x800815 <__TEXT_REGION_LENGTH__+0x700815>
     408:	80 91 15 08 	lds	r24, 0x0815	; 0x800815 <__TEXT_REGION_LENGTH__+0x700815>
     40c:	82 fd       	sbrc	r24, 2
     40e:	09 c0       	rjmp	.+18     	; 0x422 <__LOCK_REGION_LENGTH__+0x22>
     410:	80 91 15 08 	lds	r24, 0x0815	; 0x800815 <__TEXT_REGION_LENGTH__+0x700815>
     414:	83 fd       	sbrc	r24, 3
     416:	07 c0       	rjmp	.+14     	; 0x426 <__LOCK_REGION_LENGTH__+0x26>
     418:	80 91 15 08 	lds	r24, 0x0815	; 0x800815 <__TEXT_REGION_LENGTH__+0x700815>
     41c:	82 95       	swap	r24
     41e:	81 70       	andi	r24, 0x01	; 1
     420:	08 95       	ret
     422:	84 e0       	ldi	r24, 0x04	; 4
     424:	08 95       	ret
     426:	82 e0       	ldi	r24, 0x02	; 2
     428:	08 95       	ret

0000042a <I2C_read>:
}

uint8_t	I2C_read(uint8_t *data, uint8_t ack_flag)					// read data, ack_flag 0: send ACK, 1: send NACK, returns status
{
     42a:	fc 01       	movw	r30, r24
	timeout_I2C = READ_TIMEOUT;										// reset timeout counter, will be decremented by LED matrix interrupt
     42c:	8c e0       	ldi	r24, 0x0C	; 12
     42e:	80 93 63 3a 	sts	0x3A63, r24	; 0x803a63 <timeout_I2C>
	if ((TWI0.MSTATUS & TWI_BUSSTATE_gm) == TWI_BUSSTATE_OWNER_gc)	// if master controls bus
     432:	90 91 15 08 	lds	r25, 0x0815	; 0x800815 <__TEXT_REGION_LENGTH__+0x700815>
     436:	89 2f       	mov	r24, r25
     438:	83 70       	andi	r24, 0x03	; 3
     43a:	82 30       	cpi	r24, 0x02	; 2
     43c:	11 f0       	breq	.+4      	; 0x442 <I2C_read+0x18>
		else		TWI0.MCTRLB |= TWI_ACKACT_NACK_gc;				// setup NACK (last byte read)
		*data = TWI0.MDATA;
		if (ack_flag == 0) TWI0.MCTRLB |= TWI_MCMD_RECVTRANS_gc;	// send ACK, more bytes to follow					
		return 0;
	}
	else return 8;													// master does not control bus
     43e:	88 e0       	ldi	r24, 0x08	; 8
     440:	08 95       	ret
uint8_t	I2C_read(uint8_t *data, uint8_t ack_flag)					// read data, ack_flag 0: send ACK, 1: send NACK, returns status
{
	timeout_I2C = READ_TIMEOUT;										// reset timeout counter, will be decremented by LED matrix interrupt
	if ((TWI0.MSTATUS & TWI_BUSSTATE_gm) == TWI_BUSSTATE_OWNER_gc)	// if master controls bus
	{		
		while (!(TWI0.MSTATUS & TWI_RIF_bm))						// wait for RIF set (data byte received)
     442:	90 91 15 08 	lds	r25, 0x0815	; 0x800815 <__TEXT_REGION_LENGTH__+0x700815>
     446:	97 fd       	sbrc	r25, 7
     448:	06 c0       	rjmp	.+12     	; 0x456 <I2C_read+0x2c>
		{
			if (!(timeout_I2C)) return 0xff;			            // return timeout error
     44a:	90 91 63 3a 	lds	r25, 0x3A63	; 0x803a63 <timeout_I2C>
     44e:	91 11       	cpse	r25, r1
     450:	f8 cf       	rjmp	.-16     	; 0x442 <I2C_read+0x18>
     452:	8f ef       	ldi	r24, 0xFF	; 255
     454:	08 95       	ret
		}
		TWI0.MSTATUS |= (TWI_RIF_bm | TWI_WIF_bm);					// clear Read and Write interrupt flags	
     456:	90 91 15 08 	lds	r25, 0x0815	; 0x800815 <__TEXT_REGION_LENGTH__+0x700815>
     45a:	90 6c       	ori	r25, 0xC0	; 192
     45c:	90 93 15 08 	sts	0x0815, r25	; 0x800815 <__TEXT_REGION_LENGTH__+0x700815>
		if (TWI0.MSTATUS & TWI_BUSERR_bm) return 4;					// Bus Error, abort
     460:	90 91 15 08 	lds	r25, 0x0815	; 0x800815 <__TEXT_REGION_LENGTH__+0x700815>
     464:	92 fd       	sbrc	r25, 2
     466:	1e c0       	rjmp	.+60     	; 0x4a4 <I2C_read+0x7a>
		if (TWI0.MSTATUS & TWI_ARBLOST_bm) return 2;				// Arbitration Lost, abort
     468:	90 91 15 08 	lds	r25, 0x0815	; 0x800815 <__TEXT_REGION_LENGTH__+0x700815>
     46c:	93 fd       	sbrc	r25, 3
     46e:	1d c0       	rjmp	.+58     	; 0x4aa <I2C_read+0x80>
		if (TWI0.MSTATUS & TWI_RXACK_bm) return 1;					// Slave replied with NACK, abort				
     470:	90 91 15 08 	lds	r25, 0x0815	; 0x800815 <__TEXT_REGION_LENGTH__+0x700815>
     474:	89 2f       	mov	r24, r25
     476:	80 71       	andi	r24, 0x10	; 16
     478:	94 fd       	sbrc	r25, 4
     47a:	16 c0       	rjmp	.+44     	; 0x4a8 <I2C_read+0x7e>
		if (ack_flag == 0) TWI0.MCTRLB &= ~(1 << TWI_ACKACT_bp);	// setup ACK
     47c:	90 91 14 08 	lds	r25, 0x0814	; 0x800814 <__TEXT_REGION_LENGTH__+0x700814>
     480:	61 11       	cpse	r22, r1
     482:	02 c0       	rjmp	.+4      	; 0x488 <I2C_read+0x5e>
     484:	9b 7f       	andi	r25, 0xFB	; 251
     486:	01 c0       	rjmp	.+2      	; 0x48a <I2C_read+0x60>
		else		TWI0.MCTRLB |= TWI_ACKACT_NACK_gc;				// setup NACK (last byte read)
     488:	94 60       	ori	r25, 0x04	; 4
     48a:	90 93 14 08 	sts	0x0814, r25	; 0x800814 <__TEXT_REGION_LENGTH__+0x700814>
		*data = TWI0.MDATA;
     48e:	90 91 18 08 	lds	r25, 0x0818	; 0x800818 <__TEXT_REGION_LENGTH__+0x700818>
     492:	90 83       	st	Z, r25
		if (ack_flag == 0) TWI0.MCTRLB |= TWI_MCMD_RECVTRANS_gc;	// send ACK, more bytes to follow					
     494:	61 11       	cpse	r22, r1
     496:	09 c0       	rjmp	.+18     	; 0x4aa <I2C_read+0x80>
     498:	90 91 14 08 	lds	r25, 0x0814	; 0x800814 <__TEXT_REGION_LENGTH__+0x700814>
     49c:	92 60       	ori	r25, 0x02	; 2
     49e:	90 93 14 08 	sts	0x0814, r25	; 0x800814 <__TEXT_REGION_LENGTH__+0x700814>
     4a2:	08 95       	ret
		while (!(TWI0.MSTATUS & TWI_RIF_bm))						// wait for RIF set (data byte received)
		{
			if (!(timeout_I2C)) return 0xff;			            // return timeout error
		}
		TWI0.MSTATUS |= (TWI_RIF_bm | TWI_WIF_bm);					// clear Read and Write interrupt flags	
		if (TWI0.MSTATUS & TWI_BUSERR_bm) return 4;					// Bus Error, abort
     4a4:	84 e0       	ldi	r24, 0x04	; 4
     4a6:	08 95       	ret
		if (TWI0.MSTATUS & TWI_ARBLOST_bm) return 2;				// Arbitration Lost, abort
		if (TWI0.MSTATUS & TWI_RXACK_bm) return 1;					// Slave replied with NACK, abort				
     4a8:	81 e0       	ldi	r24, 0x01	; 1
		*data = TWI0.MDATA;
		if (ack_flag == 0) TWI0.MCTRLB |= TWI_MCMD_RECVTRANS_gc;	// send ACK, more bytes to follow					
		return 0;
	}
	else return 8;													// master does not control bus
}
     4aa:	08 95       	ret

000004ac <I2C_write>:

uint8_t I2C_write(uint8_t *data)									// write data, return status
{
     4ac:	fc 01       	movw	r30, r24
	timeout_I2C = WRITE_TIMEOUT;									// reset timeout counter, will be decremented by LED matrix interrupt
     4ae:	8c e0       	ldi	r24, 0x0C	; 12
     4b0:	80 93 63 3a 	sts	0x3A63, r24	; 0x803a63 <timeout_I2C>
	if ((TWI0.MSTATUS & TWI_BUSSTATE_gm) == TWI_BUSSTATE_OWNER_gc)	// if master controls bus
     4b4:	90 91 15 08 	lds	r25, 0x0815	; 0x800815 <__TEXT_REGION_LENGTH__+0x700815>
     4b8:	93 70       	andi	r25, 0x03	; 3
     4ba:	92 30       	cpi	r25, 0x02	; 2
     4bc:	b1 f4       	brne	.+44     	; 0x4ea <I2C_write+0x3e>
	{
		TWI0.MDATA = *data;		
     4be:	80 81       	ld	r24, Z
     4c0:	80 93 18 08 	sts	0x0818, r24	; 0x800818 <__TEXT_REGION_LENGTH__+0x700818>
		while (!(TWI0.MSTATUS & TWI_WIF_bm))						// wait until WIF set, status register contains ACK/NACK bit
     4c4:	80 91 15 08 	lds	r24, 0x0815	; 0x800815 <__TEXT_REGION_LENGTH__+0x700815>
     4c8:	86 fd       	sbrc	r24, 6
     4ca:	06 c0       	rjmp	.+12     	; 0x4d8 <I2C_write+0x2c>
		{
			if (!(timeout_I2C)) return 0xff;			            // return timeout error
     4cc:	80 91 63 3a 	lds	r24, 0x3A63	; 0x803a63 <timeout_I2C>
     4d0:	81 11       	cpse	r24, r1
     4d2:	f8 cf       	rjmp	.-16     	; 0x4c4 <I2C_write+0x18>
     4d4:	8f ef       	ldi	r24, 0xFF	; 255
     4d6:	08 95       	ret
		}
		if (TWI0.MSTATUS & TWI_BUSERR_bm) return 4;					// Bus Error, abort
     4d8:	80 91 15 08 	lds	r24, 0x0815	; 0x800815 <__TEXT_REGION_LENGTH__+0x700815>
     4dc:	82 fd       	sbrc	r24, 2
     4de:	07 c0       	rjmp	.+14     	; 0x4ee <I2C_write+0x42>
		if (TWI0.MSTATUS & TWI_RXACK_bm) return 1;					// Slave replied with NACK, abort
     4e0:	80 91 15 08 	lds	r24, 0x0815	; 0x800815 <__TEXT_REGION_LENGTH__+0x700815>
	if ((TWI0.MSTATUS & TWI_BUSSTATE_gm) == TWI_BUSSTATE_OWNER_gc)	// if master controls bus
	{
		TWI0.MDATA = *data;		
		while (!(TWI0.MSTATUS & TWI_WIF_bm))						// wait until WIF set, status register contains ACK/NACK bit
		{
			if (!(timeout_I2C)) return 0xff;			            // return timeout error
     4e4:	82 95       	swap	r24
     4e6:	81 70       	andi	r24, 0x01	; 1
     4e8:	08 95       	ret
		}
		if (TWI0.MSTATUS & TWI_BUSERR_bm) return 4;					// Bus Error, abort
		if (TWI0.MSTATUS & TWI_RXACK_bm) return 1;					// Slave replied with NACK, abort
		return 0;													// no error	
	}
	else return 8;													// master does not control bus
     4ea:	88 e0       	ldi	r24, 0x08	; 8
     4ec:	08 95       	ret
		TWI0.MDATA = *data;		
		while (!(TWI0.MSTATUS & TWI_WIF_bm))						// wait until WIF set, status register contains ACK/NACK bit
		{
			if (!(timeout_I2C)) return 0xff;			            // return timeout error
		}
		if (TWI0.MSTATUS & TWI_BUSERR_bm) return 4;					// Bus Error, abort
     4ee:	84 e0       	ldi	r24, 0x04	; 4
		if (TWI0.MSTATUS & TWI_RXACK_bm) return 1;					// Slave replied with NACK, abort
		return 0;													// no error	
	}
	else return 8;													// master does not control bus
}
     4f0:	08 95       	ret

000004f2 <I2C_stop>:

void I2C_stop()
{
	TWI0.MCTRLB |= TWI_MCMD_STOP_gc;
     4f2:	e0 e1       	ldi	r30, 0x10	; 16
     4f4:	f8 e0       	ldi	r31, 0x08	; 8
     4f6:	84 81       	ldd	r24, Z+4	; 0x04
     4f8:	83 60       	ori	r24, 0x03	; 3
     4fa:	84 83       	std	Z+4, r24	; 0x04
     4fc:	08 95       	ret

000004fe <I2C_read_bytes>:
// addr_ptr		address of first array element to transfer
// slave reg	starting slave register
// num_bytes	number of bytes to transfer

uint8_t	I2C_read_bytes(uint8_t slave_addr, uint8_t *reg_ptr, uint8_t reg_len, uint8_t *dat_ptr, uint8_t dat_len)
{
     4fe:	cf 92       	push	r12
     500:	df 92       	push	r13
     502:	ff 92       	push	r15
     504:	0f 93       	push	r16
     506:	1f 93       	push	r17
     508:	cf 93       	push	r28
     50a:	df 93       	push	r29
     50c:	6b 01       	movw	r12, r22
     50e:	f4 2e       	mov	r15, r20
     510:	e9 01       	movw	r28, r18
	uint8_t status;
	if (dat_len > MAX_LEN) dat_len = MAX_LEN;
	status = I2C_start(slave_addr << 1);							// slave write address, LSB 0
     512:	18 2f       	mov	r17, r24
     514:	11 0f       	add	r17, r17
     516:	81 2f       	mov	r24, r17
     518:	50 df       	rcall	.-352    	; 0x3ba <I2C_start>
	if (status != 0) goto error;
     51a:	81 11       	cpse	r24, r1
	status = I2C_wait_ACK();										// wait for slave ACK
     51c:	2b c0       	rjmp	.+86     	; 0x574 <I2C_read_bytes+0x76>
     51e:	5e df       	rcall	.-324    	; 0x3dc <I2C_wait_ACK>
	if (status == 1) {
     520:	81 30       	cpi	r24, 0x01	; 1
		I2C_stop();													// NACK, abort
     522:	19 f4       	brne	.+6      	; 0x52a <I2C_read_bytes+0x2c>
     524:	e6 df       	rcall	.-52     	; 0x4f2 <I2C_stop>
		return 1;
     526:	81 e0       	ldi	r24, 0x01	; 1
     528:	27 c0       	rjmp	.+78     	; 0x578 <I2C_read_bytes+0x7a>
	}
	if (status != 0) goto error;
     52a:	81 11       	cpse	r24, r1
     52c:	23 c0       	rjmp	.+70     	; 0x574 <I2C_read_bytes+0x76>
    while(reg_len > 0){
     52e:	ff 20       	and	r15, r15
	    status = I2C_write(reg_ptr);    							// send slave start register
     530:	49 f0       	breq	.+18     	; 0x544 <I2C_read_bytes+0x46>
     532:	c6 01       	movw	r24, r12
     534:	bb df       	rcall	.-138    	; 0x4ac <I2C_write>
	    if (status != 0) goto error;
     536:	81 11       	cpse	r24, r1
     538:	1d c0       	rjmp	.+58     	; 0x574 <I2C_read_bytes+0x76>
        ++reg_ptr;
     53a:	8f ef       	ldi	r24, 0xFF	; 255
     53c:	c8 1a       	sub	r12, r24
     53e:	d8 0a       	sbc	r13, r24
        --reg_len;
     540:	fa 94       	dec	r15
     542:	f5 cf       	rjmp	.-22     	; 0x52e <I2C_read_bytes+0x30>
     544:	01 34       	cpi	r16, 0x41	; 65
     546:	08 f0       	brcs	.+2      	; 0x54a <I2C_read_bytes+0x4c>
     548:	00 e4       	ldi	r16, 0x40	; 64
    }
	I2C_rep_start((slave_addr << 1) + 1);							// slave read address, LSB 1
     54a:	1f 5f       	subi	r17, 0xFF	; 255
// the Atmel device documentation mentions a special command for repeated start TWI_MCMD_REPSTART_gc,
// but this is not used in Atmel's demo code, so we don't use it either

void I2C_rep_start(uint8_t shifted_addr)						    // send repeated start, device_addr + LSB set if READ
{
	TWI0.MADDR = shifted_addr;	
     54c:	10 93 17 08 	sts	0x0817, r17	; 0x800817 <__TEXT_REGION_LENGTH__+0x700817>
	    if (status != 0) goto error;
        ++reg_ptr;
        --reg_len;
    }
	I2C_rep_start((slave_addr << 1) + 1);							// slave read address, LSB 1
	while (dat_len > 1) {
     550:	02 30       	cpi	r16, 0x02	; 2
		status = I2C_read(dat_ptr, 0);								// first bytes, send ACK
     552:	40 f0       	brcs	.+16     	; 0x564 <I2C_read_bytes+0x66>
     554:	60 e0       	ldi	r22, 0x00	; 0
     556:	ce 01       	movw	r24, r28
     558:	68 df       	rcall	.-304    	; 0x42a <I2C_read>
		if (status != 0) goto error;
     55a:	81 11       	cpse	r24, r1
     55c:	0b c0       	rjmp	.+22     	; 0x574 <I2C_read_bytes+0x76>
		++dat_ptr;
		--dat_len;
     55e:	21 96       	adiw	r28, 0x01	; 1
     560:	01 50       	subi	r16, 0x01	; 1
	}
	status = I2C_read(dat_ptr, 1);									// single or last byte, send NACK
     562:	f6 cf       	rjmp	.-20     	; 0x550 <I2C_read_bytes+0x52>
     564:	61 e0       	ldi	r22, 0x01	; 1
     566:	ce 01       	movw	r24, r28
	if (status != 0) goto error;
     568:	60 df       	rcall	.-320    	; 0x42a <I2C_read>
     56a:	81 11       	cpse	r24, r1
	I2C_stop();
     56c:	03 c0       	rjmp	.+6      	; 0x574 <I2C_read_bytes+0x76>
     56e:	c1 df       	rcall	.-126    	; 0x4f2 <I2C_stop>
	return 0;
     570:	80 e0       	ldi	r24, 0x00	; 0
     572:	02 c0       	rjmp	.+4      	; 0x578 <I2C_read_bytes+0x7a>
	
error:
	I2C_recover();													// clock out possibly stuck slave, reset master
     574:	e4 de       	rcall	.-568    	; 0x33e <I2C_recover>
     576:	8f ef       	ldi	r24, 0xFF	; 255
	return 0xff;													// flag error
     578:	df 91       	pop	r29
}
     57a:	cf 91       	pop	r28
     57c:	1f 91       	pop	r17
     57e:	0f 91       	pop	r16
     580:	ff 90       	pop	r15
     582:	df 90       	pop	r13
     584:	cf 90       	pop	r12
     586:	08 95       	ret

00000588 <initLanyard>:
uint8_t         lanyardCnt = 0;
uint8_t         lanyardState = TRUE;
uint16_t        lanyardLastActive = 0;

void initLanyard() {
    lanyardPos      = 0;
     588:	10 92 39 38 	sts	0x3839, r1	; 0x803839 <lanyardPos>
    lanyardCnt      = 0;
     58c:	10 92 38 38 	sts	0x3838, r1	; 0x803838 <lanyardCnt>
    lanyardState    = TRUE;
     590:	81 e0       	ldi	r24, 0x01	; 1
     592:	80 93 02 38 	sts	0x3802, r24	; 0x803802 <lanyardState>
    ClearHackerLeds();
     596:	0c 94 24 0b 	jmp	0x1648	; 0x1648 <ClearHackerLeds>

0000059a <LanyardCode>:
}

// Main game loop
uint8_t LanyardCode(){
     59a:	cf 93       	push	r28
    if (gameNow == LANYARD && idleTimeout(lanyardLastActive,LANYARD_MAX_IDLE)) {
     59c:	80 91 3e 38 	lds	r24, 0x383E	; 0x80383e <gameNow>
     5a0:	83 30       	cpi	r24, 0x03	; 3
     5a2:	91 f4       	brne	.+36     	; 0x5c8 <LanyardCode+0x2e>
     5a4:	6a e0       	ldi	r22, 0x0A	; 10
     5a6:	70 e0       	ldi	r23, 0x00	; 0
     5a8:	80 91 36 38 	lds	r24, 0x3836	; 0x803836 <lanyardLastActive>
     5ac:	90 91 37 38 	lds	r25, 0x3837	; 0x803837 <lanyardLastActive+0x1>
     5b0:	0e 94 1e 0e 	call	0x1c3c	; 0x1c3c <idleTimeout>
     5b4:	88 23       	and	r24, r24
     5b6:	41 f0       	breq	.+16     	; 0x5c8 <LanyardCode+0x2e>
        /* clean up maze game and go back to text game */
        initLanyard();
     5b8:	e7 df       	rcall	.-50     	; 0x588 <initLanyard>
        gameNow = TEXT;
     5ba:	10 92 3e 38 	sts	0x383E, r1	; 0x80383e <gameNow>
        effect = 0;
     5be:	10 92 3c 38 	sts	0x383C, r1	; 0x80383c <effect>
     5c2:	10 92 3d 38 	sts	0x383D, r1	; 0x80383d <effect+0x1>
        return 0;
     5c6:	9b c0       	rjmp	.+310    	; 0x6fe <LanyardCode+0x164>
    }

    if (CheckState(LANYARD_COMPLETED))
     5c8:	8b e7       	ldi	r24, 0x7B	; 123
     5ca:	2f d7       	rcall	.+3678   	; 0x142a <CheckState>
     5cc:	81 11       	cpse	r24, r1
     5ce:	97 c0       	rjmp	.+302    	; 0x6fe <LanyardCode+0x164>
        return 0;

    if ( gameNow != TEXT && gameNow != LANYARD )
     5d0:	80 91 3e 38 	lds	r24, 0x383E	; 0x80383e <gameNow>
     5d4:	88 23       	and	r24, r24
     5d6:	19 f0       	breq	.+6      	; 0x5de <LanyardCode+0x44>
     5d8:	83 30       	cpi	r24, 0x03	; 3
     5da:	09 f0       	breq	.+2      	; 0x5de <LanyardCode+0x44>
     5dc:	90 c0       	rjmp	.+288    	; 0x6fe <LanyardCode+0x164>
        return 0;

    /* activate led for buttonstate */
    iLED[CAT] = (buttonState==0xff ? 0 : dimValue);
     5de:	c0 91 1c bf 	lds	r28, 0xBF1C	; 0x80bf1c <__bss_end+0x8407>
     5e2:	ec 2f       	mov	r30, r28
     5e4:	f0 e0       	ldi	r31, 0x00	; 0
     5e6:	80 91 08 38 	lds	r24, 0x3808	; 0x803808 <buttonState>
     5ea:	8f 3f       	cpi	r24, 0xFF	; 255
     5ec:	19 f0       	breq	.+6      	; 0x5f4 <LanyardCode+0x5a>
     5ee:	90 91 0c 38 	lds	r25, 0x380C	; 0x80380c <dimValue>
     5f2:	01 c0       	rjmp	.+2      	; 0x5f6 <LanyardCode+0x5c>
     5f4:	90 e0       	ldi	r25, 0x00	; 0
     5f6:	ea 53       	subi	r30, 0x3A	; 58
     5f8:	f5 4c       	sbci	r31, 0xC5	; 197
     5fa:	90 83       	st	Z, r25

    if (buttonState == 0xff)
     5fc:	8f 3f       	cpi	r24, 0xFF	; 255
     5fe:	09 f4       	brne	.+2      	; 0x602 <LanyardCode+0x68>
     600:	7e c0       	rjmp	.+252    	; 0x6fe <LanyardCode+0x164>
        return 0;

    if (buttonState == lastButtonState)
     602:	90 91 07 38 	lds	r25, 0x3807	; 0x803807 <lastButtonState>
     606:	89 17       	cp	r24, r25
     608:	09 f4       	brne	.+2      	; 0x60c <LanyardCode+0x72>
     60a:	79 c0       	rjmp	.+242    	; 0x6fe <LanyardCode+0x164>
        return 0;

    lanyardLastActive = getClock();
     60c:	0e 94 0f 0e 	call	0x1c1e	; 0x1c1e <getClock>
     610:	80 93 36 38 	sts	0x3836, r24	; 0x803836 <lanyardLastActive>
     614:	90 93 37 38 	sts	0x3837, r25	; 0x803837 <lanyardLastActive+0x1>

    if (lastButtonState == 0xff){
     618:	80 91 07 38 	lds	r24, 0x3807	; 0x803807 <lastButtonState>
     61c:	8f 3f       	cpi	r24, 0xFF	; 255
     61e:	09 f0       	breq	.+2      	; 0x622 <LanyardCode+0x88>
     620:	6e c0       	rjmp	.+220    	; 0x6fe <LanyardCode+0x164>
        effect = 0x13f + (buttonState << 5);
     622:	80 91 08 38 	lds	r24, 0x3808	; 0x803808 <buttonState>
     626:	20 e2       	ldi	r18, 0x20	; 32
     628:	82 9f       	mul	r24, r18
     62a:	c0 01       	movw	r24, r0
     62c:	11 24       	eor	r1, r1
     62e:	81 5c       	subi	r24, 0xC1	; 193
     630:	9e 4f       	sbci	r25, 0xFE	; 254
     632:	80 93 3c 38 	sts	0x383C, r24	; 0x80383c <effect>
     636:	90 93 3d 38 	sts	0x383D, r25	; 0x80383d <effect+0x1>

        if (gameNow != LANYARD)
     63a:	80 91 3e 38 	lds	r24, 0x383E	; 0x80383e <gameNow>
     63e:	83 30       	cpi	r24, 0x03	; 3
            initLanyard();
     640:	09 f0       	breq	.+2      	; 0x644 <LanyardCode+0xaa>
     642:	a2 df       	rcall	.-188    	; 0x588 <initLanyard>
        gameNow = LANYARD;
     644:	83 e0       	ldi	r24, 0x03	; 3
     646:	80 93 3e 38 	sts	0x383E, r24	; 0x80383e <gameNow>

        if (buttonState == lanyardCode[lanyardPos]) {
     64a:	80 91 39 38 	lds	r24, 0x3839	; 0x803839 <lanyardPos>
     64e:	e8 2f       	mov	r30, r24
     650:	f0 e0       	ldi	r31, 0x00	; 0
     652:	ec 5f       	subi	r30, 0xFC	; 252
     654:	f0 44       	sbci	r31, 0x40	; 64
     656:	20 81       	ld	r18, Z
     658:	90 91 08 38 	lds	r25, 0x3808	; 0x803808 <buttonState>
     65c:	29 13       	cpse	r18, r25
     65e:	12 c0       	rjmp	.+36     	; 0x684 <LanyardCode+0xea>
            lanyardState &= TRUE;
     660:	90 91 02 38 	lds	r25, 0x3802	; 0x803802 <lanyardState>
     664:	91 70       	andi	r25, 0x01	; 1
     666:	90 93 02 38 	sts	0x3802, r25	; 0x803802 <lanyardState>
            iLED[EYE[R][L]] = 0;
     66a:	e0 91 2b bf 	lds	r30, 0xBF2B	; 0x80bf2b <__bss_end+0x8416>
     66e:	f0 e0       	ldi	r31, 0x00	; 0
     670:	ea 53       	subi	r30, 0x3A	; 58
     672:	f5 4c       	sbci	r31, 0xC5	; 197
     674:	10 82       	st	Z, r1
            iLED[EYE[R][R]] = 0;
     676:	e0 91 2a bf 	lds	r30, 0xBF2A	; 0x80bf2a <__bss_end+0x8415>
     67a:	f0 e0       	ldi	r31, 0x00	; 0
     67c:	ea 53       	subi	r30, 0x3A	; 58
     67e:	f5 4c       	sbci	r31, 0xC5	; 197
     680:	10 82       	st	Z, r1
     682:	09 c0       	rjmp	.+18     	; 0x696 <LanyardCode+0xfc>
        } else {
            lanyardState = FALSE;
     684:	10 92 02 38 	sts	0x3802, r1	; 0x803802 <lanyardState>
            if (lanyardPos < 4 ) {
     688:	84 30       	cpi	r24, 0x04	; 4
                initLanyard();
     68a:	28 f4       	brcc	.+10     	; 0x696 <LanyardCode+0xfc>
     68c:	7d df       	rcall	.-262    	; 0x588 <initLanyard>
                gameNow         = BASTET;
     68e:	82 e0       	ldi	r24, 0x02	; 2
     690:	80 93 3e 38 	sts	0x383E, r24	; 0x80383e <gameNow>
                return 0;
     694:	34 c0       	rjmp	.+104    	; 0x6fe <LanyardCode+0x164>
            }
        }
        lanyardPos++;
     696:	8f 5f       	subi	r24, 0xFF	; 255
     698:	80 93 39 38 	sts	0x3839, r24	; 0x803839 <lanyardPos>
        lanyardCnt++;            
     69c:	90 91 38 38 	lds	r25, 0x3838	; 0x803838 <lanyardCnt>
     6a0:	9f 5f       	subi	r25, 0xFF	; 255
        if (lanyardCnt >= 4) {
     6a2:	94 30       	cpi	r25, 0x04	; 4
     6a4:	18 f4       	brcc	.+6      	; 0x6ac <LanyardCode+0x112>
                gameNow         = BASTET;
                return 0;
            }
        }
        lanyardPos++;
        lanyardCnt++;            
     6a6:	90 93 38 38 	sts	0x3838, r25	; 0x803838 <lanyardCnt>
     6aa:	29 c0       	rjmp	.+82     	; 0x6fe <LanyardCode+0x164>
        if (lanyardCnt >= 4) {
            lanyardCnt = 0;
     6ac:	10 92 38 38 	sts	0x3838, r1	; 0x803838 <lanyardCnt>
            if (lanyardState == TRUE) {
     6b0:	90 91 02 38 	lds	r25, 0x3802	; 0x803802 <lanyardState>
     6b4:	91 30       	cpi	r25, 0x01	; 1
     6b6:	e1 f4       	brne	.+56     	; 0x6f0 <LanyardCode+0x156>
                if ((lanyardPos % 4) == 0) {
     6b8:	98 2f       	mov	r25, r24
     6ba:	93 70       	andi	r25, 0x03	; 3
     6bc:	69 f4       	brne	.+26     	; 0x6d8 <LanyardCode+0x13e>
                    iLED[HCKR[G][(lanyardPos>>2)-1]] = dimValue;
     6be:	e8 2f       	mov	r30, r24
     6c0:	e6 95       	lsr	r30
     6c2:	e6 95       	lsr	r30
     6c4:	f0 e0       	ldi	r31, 0x00	; 0
     6c6:	e2 5d       	subi	r30, 0xD2	; 210
     6c8:	f0 44       	sbci	r31, 0x40	; 64
     6ca:	e5 81       	ldd	r30, Z+5	; 0x05
     6cc:	f0 e0       	ldi	r31, 0x00	; 0
     6ce:	90 91 0c 38 	lds	r25, 0x380C	; 0x80380c <dimValue>
     6d2:	ea 53       	subi	r30, 0x3A	; 58
     6d4:	f5 4c       	sbci	r31, 0xC5	; 197
                }
                if (lanyardPos == sizeof(lanyardCode)) {
     6d6:	90 83       	st	Z, r25
     6d8:	88 31       	cpi	r24, 0x18	; 24
                    UpdateState(LANYARD_COMPLETED);
     6da:	89 f4       	brne	.+34     	; 0x6fe <LanyardCode+0x164>
     6dc:	8b e7       	ldi	r24, 0x7B	; 123
     6de:	84 d6       	rcall	.+3336   	; 0x13e8 <UpdateState>
                    iLED[CAT]       = 0;
     6e0:	ec 2f       	mov	r30, r28
     6e2:	f0 e0       	ldi	r31, 0x00	; 0
     6e4:	ea 53       	subi	r30, 0x3A	; 58
     6e6:	f5 4c       	sbci	r31, 0xC5	; 197
                    effect = 0x42;
     6e8:	10 82       	st	Z, r1
     6ea:	82 e4       	ldi	r24, 0x42	; 66
     6ec:	90 e0       	ldi	r25, 0x00	; 0
                    /*TODO state = STATE_MUSIC;*/
                }
            } else {
                initLanyard();
     6ee:	03 c0       	rjmp	.+6      	; 0x6f6 <LanyardCode+0x15c>
     6f0:	4b df       	rcall	.-362    	; 0x588 <initLanyard>
                effect = 0x21;
     6f2:	81 e2       	ldi	r24, 0x21	; 33
     6f4:	90 e0       	ldi	r25, 0x00	; 0
     6f6:	80 93 3c 38 	sts	0x383C, r24	; 0x80383c <effect>
     6fa:	90 93 3d 38 	sts	0x383D, r25	; 0x80383d <effect+0x1>
            }
        }
    }

    return 0;
}
     6fe:	80 e0       	ldi	r24, 0x00	; 0
     700:	cf 91       	pop	r28
     702:	08 95       	ret

00000704 <initMaze>:
uint8_t         mazeState = TRUE;
uint8_t         inverted  = FALSE;
uint16_t        mazeLastActive = 0;

void initMaze() {
    mazeHckrPos = 0;
     704:	10 92 4b 38 	sts	0x384B, r1	; 0x80384b <mazeHckrPos>
    mazePos = 0;
     708:	10 92 4c 38 	sts	0x384C, r1	; 0x80384c <mazePos>
    mazeCnt = 0;
     70c:	10 92 4a 38 	sts	0x384A, r1	; 0x80384a <mazeCnt>
    mazeState = TRUE;
     710:	81 e0       	ldi	r24, 0x01	; 1
     712:	80 93 0d 38 	sts	0x380D, r24	; 0x80380d <mazeState>
    inverted  = FALSE;
     716:	10 92 49 38 	sts	0x3849, r1	; 0x803849 <inverted>
    effect = 0;
     71a:	10 92 3c 38 	sts	0x383C, r1	; 0x80383c <effect>
     71e:	10 92 3d 38 	sts	0x383D, r1	; 0x80383d <effect+0x1>
     722:	08 95       	ret

00000724 <showFieldStrength>:
}

void showFieldStrength(int16_t val) {
    int16_t field;

    field = abs(val);
     724:	97 ff       	sbrs	r25, 7
     726:	03 c0       	rjmp	.+6      	; 0x72e <showFieldStrength+0xa>
     728:	91 95       	neg	r25
     72a:	81 95       	neg	r24
     72c:	91 09       	sbc	r25, r1

    if ( field > HALL_FIELD_0 )
     72e:	8d 33       	cpi	r24, 0x3D	; 61
     730:	91 05       	cpc	r25, r1
     732:	1c f0       	brlt	.+6      	; 0x73a <showFieldStrength+0x16>
        gameNow = MAZE;
     734:	21 e0       	ldi	r18, 0x01	; 1
     736:	20 93 3e 38 	sts	0x383E, r18	; 0x80383e <gameNow>

    if (gameNow == MAZE) {
     73a:	20 91 3e 38 	lds	r18, 0x383E	; 0x80383e <gameNow>
     73e:	21 30       	cpi	r18, 0x01	; 1
     740:	09 f5       	brne	.+66     	; 0x784 <showFieldStrength+0x60>
        if ( field < HALL_FIELD_0 )
     742:	8c 33       	cpi	r24, 0x3C	; 60
     744:	91 05       	cpc	r25, r1
     746:	1c f4       	brge	.+6      	; 0x74e <showFieldStrength+0x2a>
            WingBar(0,0);
     748:	60 e0       	ldi	r22, 0x00	; 0
     74a:	80 e0       	ldi	r24, 0x00	; 0
     74c:	1a c0       	rjmp	.+52     	; 0x782 <showFieldStrength+0x5e>
        else if ( field < HALL_FIELD_1 )
     74e:	88 37       	cpi	r24, 0x78	; 120
     750:	91 05       	cpc	r25, r1
     752:	1c f4       	brge	.+6      	; 0x75a <showFieldStrength+0x36>
            WingBar(1,1);
     754:	61 e0       	ldi	r22, 0x01	; 1
     756:	81 e0       	ldi	r24, 0x01	; 1
     758:	14 c0       	rjmp	.+40     	; 0x782 <showFieldStrength+0x5e>
        else if ( field < HALL_FIELD_2 )
     75a:	86 39       	cpi	r24, 0x96	; 150
     75c:	91 05       	cpc	r25, r1
     75e:	1c f4       	brge	.+6      	; 0x766 <showFieldStrength+0x42>
            WingBar(2,2);
     760:	62 e0       	ldi	r22, 0x02	; 2
     762:	82 e0       	ldi	r24, 0x02	; 2
     764:	0e c0       	rjmp	.+28     	; 0x782 <showFieldStrength+0x5e>
        else if ( field < HALL_FIELD_3 )
     766:	88 3c       	cpi	r24, 0xC8	; 200
     768:	91 05       	cpc	r25, r1
     76a:	1c f4       	brge	.+6      	; 0x772 <showFieldStrength+0x4e>
            WingBar(3,3);
     76c:	63 e0       	ldi	r22, 0x03	; 3
     76e:	83 e0       	ldi	r24, 0x03	; 3
     770:	08 c0       	rjmp	.+16     	; 0x782 <showFieldStrength+0x5e>
        else if ( field < HALL_FIELD_4 )
     772:	8c 32       	cpi	r24, 0x2C	; 44
     774:	91 40       	sbci	r25, 0x01	; 1
     776:	1c f4       	brge	.+6      	; 0x77e <showFieldStrength+0x5a>
            WingBar(4,4);
     778:	64 e0       	ldi	r22, 0x04	; 4
     77a:	84 e0       	ldi	r24, 0x04	; 4
     77c:	02 c0       	rjmp	.+4      	; 0x782 <showFieldStrength+0x5e>
        else
            WingBar(5,5);
     77e:	65 e0       	ldi	r22, 0x05	; 5
     780:	85 e0       	ldi	r24, 0x05	; 5
     782:	24 c7       	rjmp	.+3656   	; 0x15cc <WingBar>
     784:	08 95       	ret

00000786 <MagnetMaze>:
    }
}

// Main game loop
uint8_t MagnetMaze(){
     786:	cf 93       	push	r28
     788:	df 93       	push	r29
    if (gameNow == MAZE && idleTimeout(mazeLastActive,MAZE_MAX_IDLE)) {
     78a:	80 91 3e 38 	lds	r24, 0x383E	; 0x80383e <gameNow>
     78e:	81 30       	cpi	r24, 0x01	; 1
     790:	71 f4       	brne	.+28     	; 0x7ae <MagnetMaze+0x28>
     792:	6a e0       	ldi	r22, 0x0A	; 10
     794:	70 e0       	ldi	r23, 0x00	; 0
     796:	80 91 47 38 	lds	r24, 0x3847	; 0x803847 <mazeLastActive>
     79a:	90 91 48 38 	lds	r25, 0x3848	; 0x803848 <mazeLastActive+0x1>
     79e:	0e 94 1e 0e 	call	0x1c3c	; 0x1c3c <idleTimeout>
     7a2:	88 23       	and	r24, r24
     7a4:	21 f0       	breq	.+8      	; 0x7ae <MagnetMaze+0x28>
        /* clean up maze game and go back to text game */
        initMaze();
     7a6:	ae df       	rcall	.-164    	; 0x704 <initMaze>
        gameNow = TEXT;
     7a8:	10 92 3e 38 	sts	0x383E, r1	; 0x80383e <gameNow>
        return 0;
     7ac:	e5 c0       	rjmp	.+458    	; 0x978 <MagnetMaze+0x1f2>
    }
        
    if (CheckState(MAZE_INACTIVE))
     7ae:	87 ef       	ldi	r24, 0xF7	; 247
     7b0:	3c d6       	rcall	.+3192   	; 0x142a <CheckState>
     7b2:	81 11       	cpse	r24, r1
     7b4:	e1 c0       	rjmp	.+450    	; 0x978 <MagnetMaze+0x1f2>
        return 0;

    if (CheckState(MAZE_COMPLETED))
     7b6:	8d e7       	ldi	r24, 0x7D	; 125
     7b8:	38 d6       	rcall	.+3184   	; 0x142a <CheckState>
     7ba:	81 11       	cpse	r24, r1
     7bc:	dd c0       	rjmp	.+442    	; 0x978 <MagnetMaze+0x1f2>
     7be:	80 91 3e 38 	lds	r24, 0x383E	; 0x80383e <gameNow>
        return 0;

    if ( (gameNow != TEXT) && (gameNow != MAZE) )
     7c2:	82 30       	cpi	r24, 0x02	; 2
     7c4:	08 f0       	brcs	.+2      	; 0x7c8 <MagnetMaze+0x42>
     7c6:	d8 c0       	rjmp	.+432    	; 0x978 <MagnetMaze+0x1f2>
     7c8:	80 91 ee 3a 	lds	r24, 0x3AEE	; 0x803aee <calHall>
        return 0;

    if (calHall == 0)
     7cc:	90 91 ef 3a 	lds	r25, 0x3AEF	; 0x803aef <calHall+0x1>
     7d0:	89 2b       	or	r24, r25
     7d2:	41 f4       	brne	.+16     	; 0x7e4 <MagnetMaze+0x5e>
     7d4:	80 91 be 3a 	lds	r24, 0x3ABE	; 0x803abe <adcHall>
        calHall = adcHall;
     7d8:	90 91 bf 3a 	lds	r25, 0x3ABF	; 0x803abf <adcHall+0x1>
     7dc:	80 93 ee 3a 	sts	0x3AEE, r24	; 0x803aee <calHall>
     7e0:	90 93 ef 3a 	sts	0x3AEF, r25	; 0x803aef <calHall+0x1>
     7e4:	c0 91 be 3a 	lds	r28, 0x3ABE	; 0x803abe <adcHall>

    int16_t valHall = adcHall - calHall;
     7e8:	d0 91 bf 3a 	lds	r29, 0x3ABF	; 0x803abf <adcHall+0x1>
     7ec:	80 91 ee 3a 	lds	r24, 0x3AEE	; 0x803aee <calHall>
     7f0:	90 91 ef 3a 	lds	r25, 0x3AEF	; 0x803aef <calHall+0x1>
     7f4:	c8 1b       	sub	r28, r24
     7f6:	d9 0b       	sbc	r29, r25
    showFieldStrength(valHall);
     7f8:	ce 01       	movw	r24, r28
     7fa:	94 df       	rcall	.-216    	; 0x724 <showFieldStrength>
     7fc:	80 91 4e 38 	lds	r24, 0x384E	; 0x80384e <curHallState>

    switch (curHallState) {
     800:	81 30       	cpi	r24, 0x01	; 1
     802:	d1 f0       	breq	.+52     	; 0x838 <MagnetMaze+0xb2>
     804:	70 f0       	brcs	.+28     	; 0x822 <MagnetMaze+0x9c>
     806:	82 30       	cpi	r24, 0x02	; 2
     808:	f9 f4       	brne	.+62     	; 0x848 <MagnetMaze+0xc2>
     80a:	c4 3d       	cpi	r28, 0xD4	; 212
        case HALL_IDLE:
            if ( valHall < NEG_HALL_HIGH ) {
     80c:	9e ef       	ldi	r25, 0xFE	; 254
     80e:	d9 07       	cpc	r29, r25
     810:	1c f4       	brge	.+6      	; 0x818 <MagnetMaze+0x92>
     812:	10 92 4d 38 	sts	0x384D, r1	; 0x80384d <newHallState>
                newHallState = HALL_N;
     816:	18 c0       	rjmp	.+48     	; 0x848 <MagnetMaze+0xc2>
     818:	cd 32       	cpi	r28, 0x2D	; 45
            } else if ( valHall > HALL_HIGH ) {
     81a:	d1 40       	sbci	r29, 0x01	; 1
     81c:	4c f0       	brlt	.+18     	; 0x830 <MagnetMaze+0xaa>
     81e:	91 e0       	ldi	r25, 0x01	; 1
                newHallState = HALL_S;
     820:	08 c0       	rjmp	.+16     	; 0x832 <MagnetMaze+0xac>
     822:	cd 32       	cpi	r28, 0x2D	; 45
                newHallState = HALL_IDLE;
            }
            break;
        
        case HALL_N:
            if ( valHall > HALL_HIGH ) {
     824:	91 e0       	ldi	r25, 0x01	; 1
     826:	d9 07       	cpc	r29, r25
     828:	d4 f7       	brge	.-12     	; 0x81e <MagnetMaze+0x98>
     82a:	c9 38       	cpi	r28, 0x89	; 137
                newHallState = HALL_S;
            } else if ( valHall > NEG_HALL_LOW ) {
     82c:	df 4f       	sbci	r29, 0xFF	; 255
     82e:	8c f3       	brlt	.-30     	; 0x812 <MagnetMaze+0x8c>
     830:	92 e0       	ldi	r25, 0x02	; 2
            if ( valHall < NEG_HALL_HIGH ) {
                newHallState = HALL_N;
            } else if ( valHall > HALL_HIGH ) {
                newHallState = HALL_S;
            } else {
                newHallState = HALL_IDLE;
     832:	90 93 4d 38 	sts	0x384D, r25	; 0x80384d <newHallState>
     836:	08 c0       	rjmp	.+16     	; 0x848 <MagnetMaze+0xc2>
     838:	c4 3d       	cpi	r28, 0xD4	; 212
                newHallState = HALL_N;
            }
            break;
        
        case HALL_S:
            if ( valHall < NEG_HALL_HIGH ) {
     83a:	9e ef       	ldi	r25, 0xFE	; 254
     83c:	d9 07       	cpc	r29, r25
     83e:	4c f3       	brlt	.-46     	; 0x812 <MagnetMaze+0x8c>
     840:	c8 37       	cpi	r28, 0x78	; 120
                newHallState = HALL_N;
            } else if ( valHall < HALL_LOW ) {
     842:	d1 05       	cpc	r29, r1
     844:	ac f3       	brlt	.-22     	; 0x830 <MagnetMaze+0xaa>
     846:	eb cf       	rjmp	.-42     	; 0x81e <MagnetMaze+0x98>
     848:	c0 91 1c bf 	lds	r28, 0xBF1C	; 0x80bf1c <__bss_end+0x8407>
            }
            break;
    }

    /* Indicate that the magnet was read succesfully */
    iLED[CAT] = (newHallState == HALL_IDLE ? 0 : dimValue);
     84c:	ec 2f       	mov	r30, r28
     84e:	f0 e0       	ldi	r31, 0x00	; 0
     850:	90 91 4d 38 	lds	r25, 0x384D	; 0x80384d <newHallState>
     854:	92 30       	cpi	r25, 0x02	; 2
     856:	19 f0       	breq	.+6      	; 0x85e <MagnetMaze+0xd8>
     858:	20 91 0c 38 	lds	r18, 0x380C	; 0x80380c <dimValue>
     85c:	01 c0       	rjmp	.+2      	; 0x860 <MagnetMaze+0xda>
     85e:	20 e0       	ldi	r18, 0x00	; 0
     860:	ea 53       	subi	r30, 0x3A	; 58
     862:	f5 4c       	sbci	r31, 0xC5	; 197
     864:	20 83       	st	Z, r18
     866:	2f e9       	ldi	r18, 0x9F	; 159
    effect = 0x19f;
     868:	31 e0       	ldi	r19, 0x01	; 1
     86a:	20 93 3c 38 	sts	0x383C, r18	; 0x80383c <effect>
     86e:	30 93 3d 38 	sts	0x383D, r19	; 0x80383d <effect+0x1>
     872:	89 17       	cp	r24, r25

    if (newHallState != curHallState) {
     874:	09 f4       	brne	.+2      	; 0x878 <MagnetMaze+0xf2>
     876:	80 c0       	rjmp	.+256    	; 0x978 <MagnetMaze+0x1f2>
     878:	0e 94 0f 0e 	call	0x1c1e	; 0x1c1e <getClock>
        /* keep track of time to enable an idle timeout to exit the game */
        mazeLastActive = getClock();
     87c:	80 93 47 38 	sts	0x3847, r24	; 0x803847 <mazeLastActive>
     880:	90 93 48 38 	sts	0x3848, r25	; 0x803848 <mazeLastActive+0x1>
     884:	90 91 4c 38 	lds	r25, 0x384C	; 0x80384c <mazePos>

        /* Make the maze work regardless of badge orientation */
        if ((mazePos == 0) && (newHallState != 0))
     888:	80 91 4d 38 	lds	r24, 0x384D	; 0x80384d <newHallState>
     88c:	91 11       	cpse	r25, r1
     88e:	05 c0       	rjmp	.+10     	; 0x89a <MagnetMaze+0x114>
     890:	88 23       	and	r24, r24
     892:	19 f0       	breq	.+6      	; 0x89a <MagnetMaze+0x114>
     894:	91 e0       	ldi	r25, 0x01	; 1
            inverted = (newHallState != (mazeCode[0]&1)) ? TRUE : FALSE;
     896:	90 93 49 38 	sts	0x3849, r25	; 0x803849 <inverted>
     89a:	80 93 4e 38 	sts	0x384E, r24	; 0x80384e <curHallState>

        curHallState = newHallState;
     89e:	88 23       	and	r24, r24
        
        if (curHallState != 0) {
     8a0:	09 f4       	brne	.+2      	; 0x8a4 <MagnetMaze+0x11e>
     8a2:	6a c0       	rjmp	.+212    	; 0x978 <MagnetMaze+0x1f2>
     8a4:	80 91 3e 38 	lds	r24, 0x383E	; 0x80383e <gameNow>
            if (gameNow == TEXT)
     8a8:	81 11       	cpse	r24, r1
     8aa:	01 c0       	rjmp	.+2      	; 0x8ae <MagnetMaze+0x128>
                initMaze();
     8ac:	2b df       	rcall	.-426    	; 0x704 <initMaze>
     8ae:	81 e0       	ldi	r24, 0x01	; 1
            gameNow = MAZE;
     8b0:	80 93 3e 38 	sts	0x383E, r24	; 0x80383e <gameNow>
     8b4:	90 91 49 38 	lds	r25, 0x3849	; 0x803849 <inverted>

            if ( (inverted ? curHallState^1 : curHallState) == (mazeCode[mazePos>>3]&(mazePos&7)) ) {
     8b8:	40 91 4e 38 	lds	r20, 0x384E	; 0x80384e <curHallState>
     8bc:	91 11       	cpse	r25, r1
     8be:	48 27       	eor	r20, r24
     8c0:	50 e0       	ldi	r21, 0x00	; 0
     8c2:	80 91 4c 38 	lds	r24, 0x384C	; 0x80384c <mazePos>
     8c6:	e8 2f       	mov	r30, r24
     8c8:	e6 95       	lsr	r30
     8ca:	e6 95       	lsr	r30
     8cc:	e6 95       	lsr	r30
     8ce:	f0 e0       	ldi	r31, 0x00	; 0
     8d0:	e6 59       	subi	r30, 0x96	; 150
     8d2:	f0 44       	sbci	r31, 0x40	; 64
     8d4:	28 2f       	mov	r18, r24
     8d6:	27 70       	andi	r18, 0x07	; 7
     8d8:	90 81       	ld	r25, Z
     8da:	29 23       	and	r18, r25
     8dc:	30 e0       	ldi	r19, 0x00	; 0
     8de:	42 17       	cp	r20, r18
     8e0:	53 07       	cpc	r21, r19
     8e2:	91 f4       	brne	.+36     	; 0x908 <MagnetMaze+0x182>
     8e4:	90 91 0d 38 	lds	r25, 0x380D	; 0x80380d <mazeState>
                mazeState &= TRUE;
     8e8:	91 70       	andi	r25, 0x01	; 1
     8ea:	90 93 0d 38 	sts	0x380D, r25	; 0x80380d <mazeState>
     8ee:	e0 91 2b bf 	lds	r30, 0xBF2B	; 0x80bf2b <__bss_end+0x8416>
                iLED[EYE[R][L]] = 0;
     8f2:	f0 e0       	ldi	r31, 0x00	; 0
     8f4:	ea 53       	subi	r30, 0x3A	; 58
     8f6:	f5 4c       	sbci	r31, 0xC5	; 197
     8f8:	10 82       	st	Z, r1
     8fa:	e0 91 2a bf 	lds	r30, 0xBF2A	; 0x80bf2a <__bss_end+0x8415>
                iLED[EYE[R][R]] = 0;
     8fe:	f0 e0       	ldi	r31, 0x00	; 0
     900:	ea 53       	subi	r30, 0x3A	; 58
     902:	f5 4c       	sbci	r31, 0xC5	; 197
     904:	10 82       	st	Z, r1
     906:	02 c0       	rjmp	.+4      	; 0x90c <MagnetMaze+0x186>
     908:	10 92 0d 38 	sts	0x380D, r1	; 0x80380d <mazeState>
            } else {
                mazeState = FALSE;
     90c:	8f 5f       	subi	r24, 0xFF	; 255
            }
            mazePos++;
     90e:	80 93 4c 38 	sts	0x384C, r24	; 0x80384c <mazePos>
     912:	90 91 4a 38 	lds	r25, 0x384A	; 0x80384a <mazeCnt>
            mazeCnt++;            
     916:	9f 5f       	subi	r25, 0xFF	; 255
     918:	93 30       	cpi	r25, 0x03	; 3
            if (mazeCnt >= 3) {
     91a:	18 f4       	brcc	.+6      	; 0x922 <MagnetMaze+0x19c>
     91c:	90 93 4a 38 	sts	0x384A, r25	; 0x80384a <mazeCnt>
                iLED[EYE[R][R]] = 0;
            } else {
                mazeState = FALSE;
            }
            mazePos++;
            mazeCnt++;            
     920:	2b c0       	rjmp	.+86     	; 0x978 <MagnetMaze+0x1f2>
     922:	10 92 4a 38 	sts	0x384A, r1	; 0x80384a <mazeCnt>
            if (mazeCnt >= 3) {
                mazeCnt = 0;
     926:	90 91 0d 38 	lds	r25, 0x380D	; 0x80380d <mazeState>
                if (mazeState == TRUE) {
     92a:	91 30       	cpi	r25, 0x01	; 1
     92c:	e1 f4       	brne	.+56     	; 0x966 <MagnetMaze+0x1e0>
     92e:	90 91 4b 38 	lds	r25, 0x384B	; 0x80384b <mazeHckrPos>
                    iLED[HCKR[G][mazeHckrPos]] = dimValue;
     932:	e9 2f       	mov	r30, r25
     934:	f0 e0       	ldi	r31, 0x00	; 0
     936:	e2 5d       	subi	r30, 0xD2	; 210
     938:	f0 44       	sbci	r31, 0x40	; 64
     93a:	e6 81       	ldd	r30, Z+6	; 0x06
     93c:	f0 e0       	ldi	r31, 0x00	; 0
     93e:	20 91 0c 38 	lds	r18, 0x380C	; 0x80380c <dimValue>
     942:	ea 53       	subi	r30, 0x3A	; 58
     944:	f5 4c       	sbci	r31, 0xC5	; 197
     946:	20 83       	st	Z, r18
     948:	9f 5f       	subi	r25, 0xFF	; 255
                    mazeHckrPos++;
     94a:	90 93 4b 38 	sts	0x384B, r25	; 0x80384b <mazeHckrPos>
                    if (mazePos == MAZE_LEN) {
     94e:	82 31       	cpi	r24, 0x12	; 18
     950:	99 f4       	brne	.+38     	; 0x978 <MagnetMaze+0x1f2>
                        UpdateState(MAZE_COMPLETED);
     952:	8d e7       	ldi	r24, 0x7D	; 125
     954:	49 d5       	rcall	.+2706   	; 0x13e8 <UpdateState>
     956:	ec 2f       	mov	r30, r28
                        iLED[CAT]       = 0;
     958:	f0 e0       	ldi	r31, 0x00	; 0
     95a:	ea 53       	subi	r30, 0x3A	; 58
     95c:	f5 4c       	sbci	r31, 0xC5	; 197
     95e:	10 82       	st	Z, r1
                        effect = 0x42;
     960:	82 e4       	ldi	r24, 0x42	; 66
     962:	90 e0       	ldi	r25, 0x00	; 0
     964:	05 c0       	rjmp	.+10     	; 0x970 <MagnetMaze+0x1ea>
                        /*TODO state = STATE_MUSIC;*/
                    }
                } else {
                    initMaze();
     966:	ce de       	rcall	.-612    	; 0x704 <initMaze>
     968:	10 92 3e 38 	sts	0x383E, r1	; 0x80383e <gameNow>
                    gameNow   = TEXT;
     96c:	81 e2       	ldi	r24, 0x21	; 33
                    effect = 0x21;
     96e:	90 e0       	ldi	r25, 0x00	; 0
     970:	80 93 3c 38 	sts	0x383C, r24	; 0x80383c <effect>
     974:	90 93 3d 38 	sts	0x383D, r25	; 0x80383d <effect+0x1>
     978:	80 e0       	ldi	r24, 0x00	; 0
                }
            }
        }
    }
    return 0;
}
     97a:	df 91       	pop	r29
     97c:	cf 91       	pop	r28
     97e:	08 95       	ret

00000980 <Setup>:
     980:	cf 93       	push	r28
volatile uint16_t tmp16bit;    
volatile uint8_t mask[8] = {0x01, 0x03, 0x07, 0x0f, 0x1f, 0x3f, 0x7f, 0xff};
uint8_t HeartCount = 0;
uint8_t LedCount = 0;

void Setup(){
     982:	df 93       	push	r29
    cli();
     984:	f8 94       	cli

    //Set up clock at 10MHz
    CCP = CCP_IOREG_gc;
     986:	88 ed       	ldi	r24, 0xD8	; 216
     988:	84 bf       	out	0x34, r24	; 52
    CLKCTRL_MCLKCTRLB = 0x01;
     98a:	c1 e0       	ldi	r28, 0x01	; 1
     98c:	c0 93 61 00 	sts	0x0061, r28	; 0x800061 <__TEXT_REGION_LENGTH__+0x700061>

    //Set I/O direction registers
    PORTA_DIR = 0b01001010;
     990:	8a e4       	ldi	r24, 0x4A	; 74
     992:	80 93 00 04 	sts	0x0400, r24	; 0x800400 <__TEXT_REGION_LENGTH__+0x700400>
    PORTB_DIR = 0b01111100;
     996:	8c e7       	ldi	r24, 0x7C	; 124
     998:	80 93 20 04 	sts	0x0420, r24	; 0x800420 <__TEXT_REGION_LENGTH__+0x700420>
    PORTC_DIR = 0b00111111;
     99c:	9f e3       	ldi	r25, 0x3F	; 63
     99e:	90 93 40 04 	sts	0x0440, r25	; 0x800440 <__TEXT_REGION_LENGTH__+0x700440>

    //Invert some pins for correcting LED reversal error
    PORTC_PIN3CTRL |= 0x80;
     9a2:	80 91 53 04 	lds	r24, 0x0453	; 0x800453 <__TEXT_REGION_LENGTH__+0x700453>
     9a6:	80 68       	ori	r24, 0x80	; 128
     9a8:	80 93 53 04 	sts	0x0453, r24	; 0x800453 <__TEXT_REGION_LENGTH__+0x700453>
    PORTC_PIN4CTRL |= 0x80;
     9ac:	80 91 54 04 	lds	r24, 0x0454	; 0x800454 <__TEXT_REGION_LENGTH__+0x700454>
     9b0:	80 68       	ori	r24, 0x80	; 128
     9b2:	80 93 54 04 	sts	0x0454, r24	; 0x800454 <__TEXT_REGION_LENGTH__+0x700454>
    PORTC_PIN5CTRL |= 0x80;
     9b6:	80 91 55 04 	lds	r24, 0x0455	; 0x800455 <__TEXT_REGION_LENGTH__+0x700455>
     9ba:	80 68       	ori	r24, 0x80	; 128
     9bc:	80 93 55 04 	sts	0x0455, r24	; 0x800455 <__TEXT_REGION_LENGTH__+0x700455>
    PORTB_PIN3CTRL |= 0x80;
     9c0:	80 91 33 04 	lds	r24, 0x0433	; 0x800433 <__TEXT_REGION_LENGTH__+0x700433>
     9c4:	80 68       	ori	r24, 0x80	; 128
     9c6:	80 93 33 04 	sts	0x0433, r24	; 0x800433 <__TEXT_REGION_LENGTH__+0x700433>
    PORTB_PIN4CTRL |= 0x80;
     9ca:	80 91 34 04 	lds	r24, 0x0434	; 0x800434 <__TEXT_REGION_LENGTH__+0x700434>
     9ce:	80 68       	ori	r24, 0x80	; 128
     9d0:	80 93 34 04 	sts	0x0434, r24	; 0x800434 <__TEXT_REGION_LENGTH__+0x700434>
    PORTB_PIN5CTRL |= 0x80;
     9d4:	80 91 35 04 	lds	r24, 0x0435	; 0x800435 <__TEXT_REGION_LENGTH__+0x700435>
     9d8:	80 68       	ori	r24, 0x80	; 128
     9da:	80 93 35 04 	sts	0x0435, r24	; 0x800435 <__TEXT_REGION_LENGTH__+0x700435>
    PORTB_PIN2CTRL |= 0x80;
    PORTB_PIN6CTRL |= 0x80;
    */

    //UART (Alternative pins PA1=TxD, PA2=RxD, baudrate 9600, 8n1, RX and Buffer empty interrupts on)
    PORTMUX_CTRLB = 0x01;
     9de:	c0 93 01 02 	sts	0x0201, r28	; 0x800201 <__TEXT_REGION_LENGTH__+0x700201>
    PORTA_OUTSET = 0x02;
     9e2:	d2 e0       	ldi	r29, 0x02	; 2
     9e4:	d0 93 05 04 	sts	0x0405, r29	; 0x800405 <__TEXT_REGION_LENGTH__+0x700405>
    USART0_BAUD = (uint16_t)USART0_BAUD_RATE(115200);
     9e8:	2b e5       	ldi	r18, 0x5B	; 91
     9ea:	31 e0       	ldi	r19, 0x01	; 1
     9ec:	20 93 08 08 	sts	0x0808, r18	; 0x800808 <__TEXT_REGION_LENGTH__+0x700808>
     9f0:	30 93 09 08 	sts	0x0809, r19	; 0x800809 <__TEXT_REGION_LENGTH__+0x700809>
    USART0_CTRLA = 0xA0; //Interrupts on
     9f4:	80 ea       	ldi	r24, 0xA0	; 160
     9f6:	80 93 05 08 	sts	0x0805, r24	; 0x800805 <__TEXT_REGION_LENGTH__+0x700805>
    USART0_CTRLB = 0xC0; //RX and TX on
     9fa:	80 ec       	ldi	r24, 0xC0	; 192
     9fc:	80 93 06 08 	sts	0x0806, r24	; 0x800806 <__TEXT_REGION_LENGTH__+0x700806>
    USART0_CTRLC = 0x03; //8 bits data, no parity, 1 stop bit
     a00:	83 e0       	ldi	r24, 0x03	; 3
     a02:	80 93 07 08 	sts	0x0807, r24	; 0x800807 <__TEXT_REGION_LENGTH__+0x700807>
     
    //GPIO registers 0..3 can be used for global variables used in ISR routines (ASM capability: IN, OUT, SBI, CBI, SBIS, SBIC)
    L_COL = 0;     //Used in LED array to hold currently driven column value
     a06:	1c ba       	out	0x1c, r1	; 28
    RXCNT = 0;     //Used as UART receive counter
     a08:	1d ba       	out	0x1d, r1	; 29
    GPIOR3 = 0;    //
     a0a:	1f ba       	out	0x1f, r1	; 31

    //Init TCA (split mode, f_CLK/16, PWM on 6 alternative pins, underflow int enabled, synced and started)
    TCA0_SPLIT_CTRLD = 1;
     a0c:	c0 93 03 0a 	sts	0x0A03, r28	; 0x800a03 <__TEXT_REGION_LENGTH__+0x700a03>
    TCA0_SPLIT_CTRLA = (0x4)<<1;
     a10:	88 e0       	ldi	r24, 0x08	; 8
     a12:	80 93 00 0a 	sts	0x0A00, r24	; 0x800a00 <__TEXT_REGION_LENGTH__+0x700a00>
    PORTMUX_CTRLC = 0x3F;
     a16:	90 93 02 02 	sts	0x0202, r25	; 0x800202 <__TEXT_REGION_LENGTH__+0x700202>
    TCA0_SPLIT_CTRLB = 0x77;
     a1a:	87 e7       	ldi	r24, 0x77	; 119
     a1c:	80 93 01 0a 	sts	0x0A01, r24	; 0x800a01 <__TEXT_REGION_LENGTH__+0x700a01>
    TCA0_SPLIT_INTCTRL = 0x1;
     a20:	c0 93 0a 0a 	sts	0x0A0A, r28	; 0x800a0a <__TEXT_REGION_LENGTH__+0x700a0a>
    TCA0_SPLIT_CTRLESET = ((0x2)<<2)|0x3;
     a24:	8b e0       	ldi	r24, 0x0B	; 11
     a26:	80 93 05 0a 	sts	0x0A05, r24	; 0x800a05 <__TEXT_REGION_LENGTH__+0x700a05>
    TCA0_SPLIT_CTRLA |= 1;
     a2a:	80 91 00 0a 	lds	r24, 0x0A00	; 0x800a00 <__TEXT_REGION_LENGTH__+0x700a00>
     a2e:	81 60       	ori	r24, 0x01	; 1
     a30:	80 93 00 0a 	sts	0x0A00, r24	; 0x800a00 <__TEXT_REGION_LENGTH__+0x700a00>
     
    //Init TCB0 (compare value sets serial Tx pause between characters, uses TCA0 prescaler, enabled, interrupt disabled)
    TCB0_CTRLA = ((0x02)<<1)|0x01;
     a34:	85 e0       	ldi	r24, 0x05	; 5
     a36:	80 93 40 0a 	sts	0x0A40, r24	; 0x800a40 <__TEXT_REGION_LENGTH__+0x700a40>
    TCB0_CTRLB = 0;
     a3a:	10 92 41 0a 	sts	0x0A41, r1	; 0x800a41 <__TEXT_REGION_LENGTH__+0x700a41>
    TCB0_CCMP = 0x01FF;
     a3e:	8f ef       	ldi	r24, 0xFF	; 255
     a40:	91 e0       	ldi	r25, 0x01	; 1
     a42:	80 93 4c 0a 	sts	0x0A4C, r24	; 0x800a4c <__TEXT_REGION_LENGTH__+0x700a4c>
     a46:	90 93 4d 0a 	sts	0x0A4D, r25	; 0x800a4d <__TEXT_REGION_LENGTH__+0x700a4d>
    TCB0_INTCTRL = 0x00;     
     a4a:	10 92 45 0a 	sts	0x0A45, r1	; 0x800a45 <__TEXT_REGION_LENGTH__+0x700a45>
     
    //Init TCB1 (compare value sets audio sample rate (0x038B = 11025sps), enabled, interrupt enabled)
    TCB1_CTRLA = 0x01;
     a4e:	c0 93 50 0a 	sts	0x0A50, r28	; 0x800a50 <__TEXT_REGION_LENGTH__+0x700a50>
    TCB1_CTRLB = 0;
     a52:	10 92 51 0a 	sts	0x0A51, r1	; 0x800a51 <__TEXT_REGION_LENGTH__+0x700a51>
    TCB1_CCMP = 0x038B;
     a56:	8b e8       	ldi	r24, 0x8B	; 139
     a58:	93 e0       	ldi	r25, 0x03	; 3
     a5a:	80 93 5c 0a 	sts	0x0A5C, r24	; 0x800a5c <__TEXT_REGION_LENGTH__+0x700a5c>
     a5e:	90 93 5d 0a 	sts	0x0A5D, r25	; 0x800a5d <__TEXT_REGION_LENGTH__+0x700a5d>
    TCB1_INTCTRL = 0x01;
     a62:	c0 93 55 0a 	sts	0x0A55, r28	; 0x800a55 <__TEXT_REGION_LENGTH__+0x700a55>

    //Init I2C (100kHz)
    I2C_init();
     a66:	4d dc       	rcall	.-1894   	; 0x302 <I2C_init>

    //VREF (DAC, ADC's)
    VREF_CTRLA   = 0x12;    //0x22 for audio in/out (2.5V), 0x12 for temperature in, audio out (1.1V/2.5V)
     a68:	82 e1       	ldi	r24, 0x12	; 18
     a6a:	80 93 a0 00 	sts	0x00A0, r24	; 0x8000a0 <__TEXT_REGION_LENGTH__+0x7000a0>
    VREF_CTRLC   = 0x20;    //ADC1 reference at 2.5V
     a6e:	80 e2       	ldi	r24, 0x20	; 32
     a70:	80 93 a2 00 	sts	0x00A2, r24	; 0x8000a2 <__TEXT_REGION_LENGTH__+0x7000a2>
    VREF_CTRLB   = 0x01;    //DAC0 ref forced enabled
     a74:	c0 93 a1 00 	sts	0x00A1, r28	; 0x8000a1 <__TEXT_REGION_LENGTH__+0x7000a1>

    //Init ADC0 (audio in, also controls DAC output rate, internal temperature?)
    ADC0_CTRLA   = 0x02;    //10 bit resolution, free running
     a78:	d0 93 00 06 	sts	0x0600, r29	; 0x800600 <__TEXT_REGION_LENGTH__+0x700600>
    ADC0_CTRLC   = 0x44;    //Reduced sample capacitor, internal reference, clock/32 => 24038sps
     a7c:	84 e4       	ldi	r24, 0x44	; 68
     a7e:	80 93 02 06 	sts	0x0602, r24	; 0x800602 <__TEXT_REGION_LENGTH__+0x700602>
    ADC0_MUXPOS  = 0x1E;    //Audio in: AIN7 at (0x07), Temperature: Internal sensor at (0x1E)
     a82:	8e e1       	ldi	r24, 0x1E	; 30
     a84:	80 93 06 06 	sts	0x0606, r24	; 0x800606 <__TEXT_REGION_LENGTH__+0x700606>
    ADC0_INTCTRL = 0x01;    //Result ready interrupt enabled
     a88:	c0 93 0a 06 	sts	0x060A, r28	; 0x80060a <__TEXT_REGION_LENGTH__+0x70060a>
    ADC0_CTRLA  |= 0x01;    //ADC0 enabled
     a8c:	80 91 00 06 	lds	r24, 0x0600	; 0x800600 <__TEXT_REGION_LENGTH__+0x700600>
     a90:	81 60       	ori	r24, 0x01	; 1
     a92:	80 93 00 06 	sts	0x0600, r24	; 0x800600 <__TEXT_REGION_LENGTH__+0x700600>
    ADC0_COMMAND = 0x01;    //Start first conversion, after that it will run periodically.
     a96:	c0 93 08 06 	sts	0x0608, r28	; 0x800608 <__TEXT_REGION_LENGTH__+0x700608>

    //Init ADC1 (buttons and sensors: CH0=Photo transistor, CH1=Hall, CH4=Buttons)
    ADC1_CTRLA   = 0;
     a9a:	10 92 40 06 	sts	0x0640, r1	; 0x800640 <__TEXT_REGION_LENGTH__+0x700640>
    ADC1_CTRLB   = 0x02;    //4 results automatically accumulated
     a9e:	d0 93 41 06 	sts	0x0641, r29	; 0x800641 <__TEXT_REGION_LENGTH__+0x700641>
    ADC1_CTRLC   = 0x52;    //Reduced sample capacitor, VDD as reference, clock/8
     aa2:	82 e5       	ldi	r24, 0x52	; 82
     aa4:	80 93 42 06 	sts	0x0642, r24	; 0x800642 <__TEXT_REGION_LENGTH__+0x700642>
    ADC1_SAMPCTRL= 0x04;    //Extend sampling time with 4 cycles (6 total)
     aa8:	84 e0       	ldi	r24, 0x04	; 4
     aaa:	80 93 45 06 	sts	0x0645, r24	; 0x800645 <__TEXT_REGION_LENGTH__+0x700645>
    ADC1_MUXPOS  = 0x04;    //Start with Buttons, for sensors, activate sensor power first.
     aae:	80 93 46 06 	sts	0x0646, r24	; 0x800646 <__TEXT_REGION_LENGTH__+0x700646>
    ADC1_INTCTRL = 0x01;    //Result ready interrupt enabled
     ab2:	c0 93 4a 06 	sts	0x064A, r28	; 0x80064a <__TEXT_REGION_LENGTH__+0x70064a>
    ADC1_CTRLA  |= 0x01;    //ADC0 enabled
     ab6:	80 91 40 06 	lds	r24, 0x0640	; 0x800640 <__TEXT_REGION_LENGTH__+0x700640>
     aba:	81 60       	ori	r24, 0x01	; 1
     abc:	80 93 40 06 	sts	0x0640, r24	; 0x800640 <__TEXT_REGION_LENGTH__+0x700640>
    ADC1_COMMAND = 0x01;    //Start single conversion
     ac0:	c0 93 48 06 	sts	0x0648, r28	; 0x800648 <__TEXT_REGION_LENGTH__+0x700648>

    //Init DAC0
    DAC0_CTRLA = 0x40;     //Enable output buffer (connect to pin)
     ac4:	80 e4       	ldi	r24, 0x40	; 64
     ac6:	80 93 a0 06 	sts	0x06A0, r24	; 0x8006a0 <__TEXT_REGION_LENGTH__+0x7006a0>
    DAC0_DATA = 0x80;      //Data value at half point (about 1.25V)
     aca:	80 e8       	ldi	r24, 0x80	; 128
     acc:	80 93 a1 06 	sts	0x06A1, r24	; 0x8006a1 <__TEXT_REGION_LENGTH__+0x7006a1>
    DAC0_CTRLA |= 0x01;    //Enable DAC
     ad0:	80 91 a0 06 	lds	r24, 0x06A0	; 0x8006a0 <__TEXT_REGION_LENGTH__+0x7006a0>
     ad4:	81 60       	ori	r24, 0x01	; 1
     ad6:	80 93 a0 06 	sts	0x06A0, r24	; 0x8006a0 <__TEXT_REGION_LENGTH__+0x7006a0>
     
    //PIT and RTC interrupts
    while(RTC_STATUS & RTC_CTRLABUSY_bm);
     ada:	80 91 41 01 	lds	r24, 0x0141	; 0x800141 <__TEXT_REGION_LENGTH__+0x700141>
     ade:	80 fd       	sbrc	r24, 0
     ae0:	fc cf       	rjmp	.-8      	; 0xada <Setup+0x15a>
    RTC_CTRLA          = (0x6)<<3;                         //Prescaler: /64
     ae2:	80 e3       	ldi	r24, 0x30	; 48
     ae4:	80 93 40 01 	sts	0x0140, r24	; 0x800140 <__TEXT_REGION_LENGTH__+0x700140>
    RTC_CLKSEL         = 0;                                //Clock source: internal 32768Hz clock
     ae8:	10 92 47 01 	sts	0x0147, r1	; 0x800147 <__TEXT_REGION_LENGTH__+0x700147>
    while(RTC_STATUS & RTC_PERBUSY_bm);
     aec:	80 91 41 01 	lds	r24, 0x0141	; 0x800141 <__TEXT_REGION_LENGTH__+0x700141>
     af0:	82 fd       	sbrc	r24, 2
     af2:	fc cf       	rjmp	.-8      	; 0xaec <Setup+0x16c>
    RTC_PER            = 512*60;                           //60 second period (for clocking how long the device has been running?)
     af4:	80 e0       	ldi	r24, 0x00	; 0
     af6:	98 e7       	ldi	r25, 0x78	; 120
     af8:	80 93 4a 01 	sts	0x014A, r24	; 0x80014a <__TEXT_REGION_LENGTH__+0x70014a>
     afc:	90 93 4b 01 	sts	0x014B, r25	; 0x80014b <__TEXT_REGION_LENGTH__+0x70014b>
    tmp16bit = (RTC_CNT + BTN_TMR);
     b00:	80 91 48 01 	lds	r24, 0x0148	; 0x800148 <__TEXT_REGION_LENGTH__+0x700148>
     b04:	90 91 49 01 	lds	r25, 0x0149	; 0x800149 <__TEXT_REGION_LENGTH__+0x700149>
     b08:	82 96       	adiw	r24, 0x22	; 34
     b0a:	80 93 f2 3a 	sts	0x3AF2, r24	; 0x803af2 <tmp16bit>
     b0e:	90 93 f3 3a 	sts	0x3AF3, r25	; 0x803af3 <tmp16bit+0x1>
    if (tmp16bit > RTC_PER) tmp16bit -= RTC_PER;
     b12:	20 91 4a 01 	lds	r18, 0x014A	; 0x80014a <__TEXT_REGION_LENGTH__+0x70014a>
     b16:	30 91 4b 01 	lds	r19, 0x014B	; 0x80014b <__TEXT_REGION_LENGTH__+0x70014b>
     b1a:	80 91 f2 3a 	lds	r24, 0x3AF2	; 0x803af2 <tmp16bit>
     b1e:	90 91 f3 3a 	lds	r25, 0x3AF3	; 0x803af3 <tmp16bit+0x1>
     b22:	28 17       	cp	r18, r24
     b24:	39 07       	cpc	r19, r25
     b26:	70 f4       	brcc	.+28     	; 0xb44 <Setup+0x1c4>
     b28:	20 91 4a 01 	lds	r18, 0x014A	; 0x80014a <__TEXT_REGION_LENGTH__+0x70014a>
     b2c:	30 91 4b 01 	lds	r19, 0x014B	; 0x80014b <__TEXT_REGION_LENGTH__+0x70014b>
     b30:	80 91 f2 3a 	lds	r24, 0x3AF2	; 0x803af2 <tmp16bit>
     b34:	90 91 f3 3a 	lds	r25, 0x3AF3	; 0x803af3 <tmp16bit+0x1>
     b38:	82 1b       	sub	r24, r18
     b3a:	93 0b       	sbc	r25, r19
     b3c:	80 93 f2 3a 	sts	0x3AF2, r24	; 0x803af2 <tmp16bit>
     b40:	90 93 f3 3a 	sts	0x3AF3, r25	; 0x803af3 <tmp16bit+0x1>
    while(RTC_STATUS & RTC_CMPBUSY_bm);
     b44:	80 91 41 01 	lds	r24, 0x0141	; 0x800141 <__TEXT_REGION_LENGTH__+0x700141>
     b48:	83 fd       	sbrc	r24, 3
     b4a:	fc cf       	rjmp	.-8      	; 0xb44 <Setup+0x1c4>
    RTC_CMP            = tmp16bit;                         //Button timing
     b4c:	80 91 f2 3a 	lds	r24, 0x3AF2	; 0x803af2 <tmp16bit>
     b50:	90 91 f3 3a 	lds	r25, 0x3AF3	; 0x803af3 <tmp16bit+0x1>
     b54:	80 93 4c 01 	sts	0x014C, r24	; 0x80014c <__TEXT_REGION_LENGTH__+0x70014c>
     b58:	90 93 4d 01 	sts	0x014D, r25	; 0x80014d <__TEXT_REGION_LENGTH__+0x70014d>
    RTC_INTCTRL        = 0x03;                             //RTC overflow interrupt enabled
     b5c:	83 e0       	ldi	r24, 0x03	; 3
     b5e:	80 93 42 01 	sts	0x0142, r24	; 0x800142 <__TEXT_REGION_LENGTH__+0x700142>
    RTC_PITINTCTRL     = 0x01;                             //PIT interrupt enabled
     b62:	81 e0       	ldi	r24, 0x01	; 1
     b64:	80 93 52 01 	sts	0x0152, r24	; 0x800152 <__TEXT_REGION_LENGTH__+0x700152>
    RTC_PITCTRLA       = (0x1)<<3;                         //Interrupt fires after 4 RTC clock cycles Rate=(RTCCLK/(PRESC*PERIOD)) 32768/256=128Hz
     b68:	88 e0       	ldi	r24, 0x08	; 8
     b6a:	80 93 50 01 	sts	0x0150, r24	; 0x800150 <__TEXT_REGION_LENGTH__+0x700150>
    while(RTC_STATUS & RTC_CTRLABUSY_bm);      
     b6e:	80 91 41 01 	lds	r24, 0x0141	; 0x800141 <__TEXT_REGION_LENGTH__+0x700141>
     b72:	80 fd       	sbrc	r24, 0
     b74:	fc cf       	rjmp	.-8      	; 0xb6e <Setup+0x1ee>
    RTC_CTRLA          |= 0x01;                            //Enable RTC
     b76:	80 91 40 01 	lds	r24, 0x0140	; 0x800140 <__TEXT_REGION_LENGTH__+0x700140>
     b7a:	81 60       	ori	r24, 0x01	; 1
     b7c:	80 93 40 01 	sts	0x0140, r24	; 0x800140 <__TEXT_REGION_LENGTH__+0x700140>
    RTC_PITCTRLA       |= 0x01;                            //Enable PIT
     b80:	80 91 50 01 	lds	r24, 0x0150	; 0x800150 <__TEXT_REGION_LENGTH__+0x700150>
     b84:	81 60       	ori	r24, 0x01	; 1
     b86:	80 93 50 01 	sts	0x0150, r24	; 0x800150 <__TEXT_REGION_LENGTH__+0x700150>
     
    //Other inits
    serRx[0] = 0;           // Empty Rx buffer (first char is enough)
     b8a:	10 92 78 3a 	sts	0x3A78, r1	; 0x803a78 <serRx>
    serTxAddr = &serRx[0];  // Point to first address of the Rx buffer
     b8e:	88 e7       	ldi	r24, 0x78	; 120
     b90:	9a e3       	ldi	r25, 0x3A	; 58
     b92:	80 93 bc 3a 	sts	0x3ABC, r24	; 0x803abc <serTxAddr>
     b96:	90 93 bd 3a 	sts	0x3ABD, r25	; 0x803abd <serTxAddr+0x1>

    sei();
     b9a:	78 94       	sei
}
     b9c:	df 91       	pop	r29
     b9e:	cf 91       	pop	r28
     ba0:	08 95       	ret

00000ba2 <__vector_8>:

// TCA0 is used for driving the LED matrix at 488Hz (* 5 columns = 2440Hz). The lower 8 bit underflow interrupt is used to load new values and shift between columns.
ISR(TCA0_LUNF_vect){
     ba2:	1f 92       	push	r1
     ba4:	0f 92       	push	r0
     ba6:	0f b6       	in	r0, 0x3f	; 63
     ba8:	0f 92       	push	r0
     baa:	11 24       	eor	r1, r1
     bac:	8f 93       	push	r24
     bae:	9f 93       	push	r25
     bb0:	af 93       	push	r26
     bb2:	bf 93       	push	r27
     bb4:	ef 93       	push	r30
     bb6:	ff 93       	push	r31
    //Turn off all columns
    PORTC_OUTCLR = 0x07;
     bb8:	87 e0       	ldi	r24, 0x07	; 7
     bba:	80 93 46 04 	sts	0x0446, r24	; 0x800446 <__TEXT_REGION_LENGTH__+0x700446>
    PORTB_OUTCLR = 0x44;
     bbe:	84 e4       	ldi	r24, 0x44	; 68
     bc0:	80 93 26 04 	sts	0x0426, r24	; 0x800426 <__TEXT_REGION_LENGTH__+0x700426>
    "ldi r25, 6        \n"
    "ld r24, %a[arr]+  \n"
    "st %a[wo]+, r24   \n"
    "dec r25           \n"
    "brne .-8          \n"
    :: [wo] "e" (&TCA0_SPLIT_LCMP0), [arr] "e" (&iLED[(L_COL<<3)]) : "r25", "r24", "cc", "memory");
     bc4:	ec b3       	in	r30, 0x1c	; 28
     bc6:	88 e0       	ldi	r24, 0x08	; 8
     bc8:	e8 9f       	mul	r30, r24
     bca:	f0 01       	movw	r30, r0
     bcc:	11 24       	eor	r1, r1
     bce:	ea 53       	subi	r30, 0x3A	; 58
     bd0:	f5 4c       	sbci	r31, 0xC5	; 197
    //Turn off all columns
    PORTC_OUTCLR = 0x07;
    PORTB_OUTCLR = 0x44;

    //Write all of the compare registers of TCA0 with PWM values in array (rows)
    asm(
     bd2:	a8 e2       	ldi	r26, 0x28	; 40
     bd4:	ba e0       	ldi	r27, 0x0A	; 10
     bd6:	96 e0       	ldi	r25, 0x06	; 6
     bd8:	81 91       	ld	r24, Z+
     bda:	8d 93       	st	X+, r24
     bdc:	9a 95       	dec	r25
     bde:	e1 f7       	brne	.-8      	; 0xbd8 <__vector_8+0x36>
    "st %a[wo]+, r24   \n"
    "dec r25           \n"
    "brne .-8          \n"
    :: [wo] "e" (&TCA0_SPLIT_LCMP0), [arr] "e" (&iLED[(L_COL<<3)]) : "r25", "r24", "cc", "memory");

    TCA0_SPLIT_CTRLESET = ((0x2)<<2)|0x3; //Sync timers: Moved this below the PWM value loading to fix the data shifting in asm above.
     be0:	8b e0       	ldi	r24, 0x0B	; 11
     be2:	80 93 05 0a 	sts	0x0A05, r24	; 0x800a05 <__TEXT_REGION_LENGTH__+0x700a05>

    //Turn on the right column
    if (L_COL<3) {
     be6:	8c b3       	in	r24, 0x1c	; 28
     be8:	83 30       	cpi	r24, 0x03	; 3
     bea:	58 f4       	brcc	.+22     	; 0xc02 <__vector_8+0x60>
        asm(
     bec:	8c b3       	in	r24, 0x1c	; 28
     bee:	91 e0       	ldi	r25, 0x01	; 1
     bf0:	01 c0       	rjmp	.+2      	; 0xbf4 <__vector_8+0x52>
     bf2:	99 0f       	add	r25, r25
     bf4:	8a 95       	dec	r24
     bf6:	ea f7       	brpl	.-6      	; 0xbf2 <__vector_8+0x50>
     bf8:	99 b9       	out	0x09, r25	; 9
     bfa:	8c b3       	in	r24, 0x1c	; 28
     bfc:	83 95       	inc	r24
     bfe:	8c bb       	out	0x1c, r24	; 28
     c00:	0a c0       	rjmp	.+20     	; 0xc16 <__vector_8+0x74>
        "in r24, %[io0]  \n"
        "inc r24         \n"
        "out %[io0], r24 \n"
        :: [io0] "I" (&L_COL), [vpc] "I" (&VPORTC_OUT) : "r24", "r25", "cc");
        } else {
        asm(
     c02:	8c b3       	in	r24, 0x1c	; 28
     c04:	83 30       	cpi	r24, 0x03	; 3
     c06:	21 f4       	brne	.+8      	; 0xc10 <__vector_8+0x6e>
     c08:	2a 9a       	sbi	0x05, 2	; 5
     c0a:	83 95       	inc	r24
     c0c:	8c bb       	out	0x1c, r24	; 28
     c0e:	03 c0       	rjmp	.+6      	; 0xc16 <__vector_8+0x74>
     c10:	2e 9a       	sbi	0x05, 6	; 5
     c12:	88 27       	eor	r24, r24
     c14:	8c bb       	out	0x1c, r24	; 28
        "clr r24         \n"
        "out %[io0], r24 \n"
        :: [io0] "I" (&L_COL), [vpb] "I" (&VPORTB_OUT) : "r24", "cc");
    }
    
    if(timeout_I2C) --timeout_I2C;
     c16:	80 91 63 3a 	lds	r24, 0x3A63	; 0x803a63 <timeout_I2C>
     c1a:	88 23       	and	r24, r24
     c1c:	29 f0       	breq	.+10     	; 0xc28 <__vector_8+0x86>
     c1e:	80 91 63 3a 	lds	r24, 0x3A63	; 0x803a63 <timeout_I2C>
     c22:	81 50       	subi	r24, 0x01	; 1
     c24:	80 93 63 3a 	sts	0x3A63, r24	; 0x803a63 <timeout_I2C>
    TCA0_SPLIT_INTFLAGS = 0xFF;
     c28:	8f ef       	ldi	r24, 0xFF	; 255
     c2a:	80 93 0b 0a 	sts	0x0A0B, r24	; 0x800a0b <__TEXT_REGION_LENGTH__+0x700a0b>
}
     c2e:	ff 91       	pop	r31
     c30:	ef 91       	pop	r30
     c32:	bf 91       	pop	r27
     c34:	af 91       	pop	r26
     c36:	9f 91       	pop	r25
     c38:	8f 91       	pop	r24
     c3a:	0f 90       	pop	r0
     c3c:	0f be       	out	0x3f, r0	; 63
     c3e:	0f 90       	pop	r0
     c40:	1f 90       	pop	r1
     c42:	18 95       	reti

00000c44 <__vector_13>:

// TCB0 is used for (slowly) sending serial characters. A 0x00 character code is needed to terminate sending or it will leak memory to serial. It's a feature, honest! 
ISR(TCB0_INT_vect){
     c44:	1f 92       	push	r1
     c46:	0f 92       	push	r0
     c48:	0f b6       	in	r0, 0x3f	; 63
     c4a:	0f 92       	push	r0
     c4c:	11 24       	eor	r1, r1
     c4e:	8f 93       	push	r24
     c50:	9f 93       	push	r25
     c52:	ef 93       	push	r30
     c54:	ff 93       	push	r31
    if (*serTxAddr) {
     c56:	e0 91 bc 3a 	lds	r30, 0x3ABC	; 0x803abc <serTxAddr>
     c5a:	f0 91 bd 3a 	lds	r31, 0x3ABD	; 0x803abd <serTxAddr+0x1>
     c5e:	80 81       	ld	r24, Z
     c60:	88 23       	and	r24, r24
     c62:	91 f0       	breq	.+36     	; 0xc88 <__vector_13+0x44>
        USART0_TXDATAL = *serTxAddr;
     c64:	80 81       	ld	r24, Z
     c66:	80 93 02 08 	sts	0x0802, r24	; 0x800802 <__TEXT_REGION_LENGTH__+0x700802>
        serTxAddr++;
     c6a:	80 91 bc 3a 	lds	r24, 0x3ABC	; 0x803abc <serTxAddr>
     c6e:	90 91 bd 3a 	lds	r25, 0x3ABD	; 0x803abd <serTxAddr+0x1>
     c72:	01 96       	adiw	r24, 0x01	; 1
     c74:	80 93 bc 3a 	sts	0x3ABC, r24	; 0x803abc <serTxAddr>
     c78:	90 93 bd 3a 	sts	0x3ABD, r25	; 0x803abd <serTxAddr+0x1>
        USART0_CTRLA |= USART_DREIE_bm;
     c7c:	80 91 05 08 	lds	r24, 0x0805	; 0x800805 <__TEXT_REGION_LENGTH__+0x700805>
     c80:	80 62       	ori	r24, 0x20	; 32
     c82:	80 93 05 08 	sts	0x0805, r24	; 0x800805 <__TEXT_REGION_LENGTH__+0x700805>
     c86:	05 c0       	rjmp	.+10     	; 0xc92 <__vector_13+0x4e>
    } else {
        serTxDone = 1;
     c88:	81 e0       	ldi	r24, 0x01	; 1
     c8a:	80 93 09 38 	sts	0x3809, r24	; 0x803809 <serTxDone>
        TCB0_INTCTRL = 0x00;
     c8e:	10 92 45 0a 	sts	0x0A45, r1	; 0x800a45 <__TEXT_REGION_LENGTH__+0x700a45>
    }
    TCB0_INTFLAGS = TCB_CAPT_bm;
     c92:	81 e0       	ldi	r24, 0x01	; 1
     c94:	80 93 46 0a 	sts	0x0A46, r24	; 0x800a46 <__TEXT_REGION_LENGTH__+0x700a46>
}
     c98:	ff 91       	pop	r31
     c9a:	ef 91       	pop	r30
     c9c:	9f 91       	pop	r25
     c9e:	8f 91       	pop	r24
     ca0:	0f 90       	pop	r0
     ca2:	0f be       	out	0x3f, r0	; 63
     ca4:	0f 90       	pop	r0
     ca6:	1f 90       	pop	r1
     ca8:	18 95       	reti

00000caa <__vector_14>:

// TCB1 is used for audio generation. Keeps playing "data" until 0 is reached. Audio sample data can contain 0x01 to 0xFF, centered around 0x80
ISR(TCB1_INT_vect){
     caa:	1f 92       	push	r1
     cac:	0f 92       	push	r0
     cae:	0f b6       	in	r0, 0x3f	; 63
     cb0:	0f 92       	push	r0
     cb2:	11 24       	eor	r1, r1
     cb4:	2f 93       	push	r18
     cb6:	3f 93       	push	r19
     cb8:	4f 93       	push	r20
     cba:	8f 93       	push	r24
     cbc:	9f 93       	push	r25
     cbe:	ef 93       	push	r30
     cc0:	ff 93       	push	r31
    int16_t volCtrl;
    if (*auSmpAddr == 0) auSmpAddr = auRepAddr;
     cc2:	e0 91 05 38 	lds	r30, 0x3805	; 0x803805 <auSmpAddr>
     cc6:	f0 91 06 38 	lds	r31, 0x3806	; 0x803806 <auSmpAddr+0x1>
     cca:	80 81       	ld	r24, Z
     ccc:	81 11       	cpse	r24, r1
     cce:	08 c0       	rjmp	.+16     	; 0xce0 <__vector_14+0x36>
     cd0:	80 91 03 38 	lds	r24, 0x3803	; 0x803803 <auRepAddr>
     cd4:	90 91 04 38 	lds	r25, 0x3804	; 0x803804 <auRepAddr+0x1>
     cd8:	80 93 05 38 	sts	0x3805, r24	; 0x803805 <auSmpAddr>
     cdc:	90 93 06 38 	sts	0x3806, r25	; 0x803806 <auSmpAddr+0x1>
    if (*auSmpAddr) {
     ce0:	e0 91 05 38 	lds	r30, 0x3805	; 0x803805 <auSmpAddr>
     ce4:	f0 91 06 38 	lds	r31, 0x3806	; 0x803806 <auSmpAddr+0x1>
     ce8:	80 81       	ld	r24, Z
     cea:	88 23       	and	r24, r24
     cec:	e1 f0       	breq	.+56     	; 0xd26 <__vector_14+0x7c>
        volCtrl = ((((int16_t)(*auSmpAddr) - 0x7f) * auVolume) >> 8) + 0x80;
     cee:	20 81       	ld	r18, Z
     cf0:	40 91 b9 3a 	lds	r20, 0x3AB9	; 0x803ab9 <auVolume>
        DAC0_DATA = (uint8_t)(volCtrl);
     cf4:	30 e0       	ldi	r19, 0x00	; 0
     cf6:	2f 57       	subi	r18, 0x7F	; 127
     cf8:	31 09       	sbc	r19, r1
     cfa:	42 9f       	mul	r20, r18
     cfc:	c0 01       	movw	r24, r0
     cfe:	43 9f       	mul	r20, r19
     d00:	90 0d       	add	r25, r0
     d02:	11 24       	eor	r1, r1
     d04:	89 2f       	mov	r24, r25
     d06:	99 0f       	add	r25, r25
     d08:	99 0b       	sbc	r25, r25
     d0a:	80 58       	subi	r24, 0x80	; 128
     d0c:	9f 4f       	sbci	r25, 0xFF	; 255
     d0e:	80 93 a1 06 	sts	0x06A1, r24	; 0x8006a1 <__TEXT_REGION_LENGTH__+0x7006a1>
        ++auSmpAddr;
     d12:	80 91 05 38 	lds	r24, 0x3805	; 0x803805 <auSmpAddr>
     d16:	90 91 06 38 	lds	r25, 0x3806	; 0x803806 <auSmpAddr+0x1>
     d1a:	01 96       	adiw	r24, 0x01	; 1
     d1c:	80 93 05 38 	sts	0x3805, r24	; 0x803805 <auSmpAddr>
     d20:	90 93 06 38 	sts	0x3806, r25	; 0x803806 <auSmpAddr+0x1>
     d24:	03 c0       	rjmp	.+6      	; 0xd2c <__vector_14+0x82>
    } else {
        DAC0_DATA = 0x80;
     d26:	80 e8       	ldi	r24, 0x80	; 128
     d28:	80 93 a1 06 	sts	0x06A1, r24	; 0x8006a1 <__TEXT_REGION_LENGTH__+0x7006a1>
    }
    TCB1_INTFLAGS = TCB_CAPT_bm;
     d2c:	81 e0       	ldi	r24, 0x01	; 1
     d2e:	80 93 56 0a 	sts	0x0A56, r24	; 0x800a56 <__TEXT_REGION_LENGTH__+0x700a56>
}
     d32:	ff 91       	pop	r31
     d34:	ef 91       	pop	r30
     d36:	9f 91       	pop	r25
     d38:	8f 91       	pop	r24
     d3a:	4f 91       	pop	r20
     d3c:	3f 91       	pop	r19
     d3e:	2f 91       	pop	r18
     d40:	0f 90       	pop	r0
     d42:	0f be       	out	0x3f, r0	; 63
     d44:	0f 90       	pop	r0
     d46:	1f 90       	pop	r1
     d48:	18 95       	reti

00000d4a <__vector_27>:

// Reads up to RXLEN characters until LF is found, LF sets the serRxDone flag and writes 0 instead of LF.
ISR(USART0_RXC_vect){
     d4a:	1f 92       	push	r1
     d4c:	0f 92       	push	r0
     d4e:	0f b6       	in	r0, 0x3f	; 63
     d50:	0f 92       	push	r0
     d52:	11 24       	eor	r1, r1
     d54:	8f 93       	push	r24
     d56:	ef 93       	push	r30
     d58:	ff 93       	push	r31
    if (serRxDone == 0){
     d5a:	80 91 46 38 	lds	r24, 0x3846	; 0x803846 <serRxDone>
     d5e:	81 11       	cpse	r24, r1
     d60:	44 c0       	rjmp	.+136    	; 0xdea <__vector_27+0xa0>
        serRx[RXCNT] = USART0.RXDATAL;
     d62:	ed b3       	in	r30, 0x1d	; 29
     d64:	f0 e0       	ldi	r31, 0x00	; 0
     d66:	80 91 00 08 	lds	r24, 0x0800	; 0x800800 <__TEXT_REGION_LENGTH__+0x700800>
     d6a:	e8 58       	subi	r30, 0x88	; 136
     d6c:	f5 4c       	sbci	r31, 0xC5	; 197
     d6e:	80 83       	st	Z, r24
        USART0_TXDATAL = serRx[RXCNT];
     d70:	ed b3       	in	r30, 0x1d	; 29
     d72:	f0 e0       	ldi	r31, 0x00	; 0
     d74:	e8 58       	subi	r30, 0x88	; 136
     d76:	f5 4c       	sbci	r31, 0xC5	; 197
     d78:	80 81       	ld	r24, Z
     d7a:	80 93 02 08 	sts	0x0802, r24	; 0x800802 <__TEXT_REGION_LENGTH__+0x700802>
        if ((serRx[RXCNT] == 0x0A)||(serRx[RXCNT] == 0x0D)){
     d7e:	ed b3       	in	r30, 0x1d	; 29
     d80:	f0 e0       	ldi	r31, 0x00	; 0
     d82:	e8 58       	subi	r30, 0x88	; 136
     d84:	f5 4c       	sbci	r31, 0xC5	; 197
     d86:	80 81       	ld	r24, Z
     d88:	8a 30       	cpi	r24, 0x0A	; 10
     d8a:	39 f0       	breq	.+14     	; 0xd9a <__vector_27+0x50>
     d8c:	ed b3       	in	r30, 0x1d	; 29
     d8e:	f0 e0       	ldi	r31, 0x00	; 0
     d90:	e8 58       	subi	r30, 0x88	; 136
     d92:	f5 4c       	sbci	r31, 0xC5	; 197
     d94:	80 81       	ld	r24, Z
     d96:	8d 30       	cpi	r24, 0x0D	; 13
     d98:	49 f4       	brne	.+18     	; 0xdac <__vector_27+0x62>
            serRx[RXCNT] = 0;
     d9a:	ed b3       	in	r30, 0x1d	; 29
     d9c:	f0 e0       	ldi	r31, 0x00	; 0
     d9e:	e8 58       	subi	r30, 0x88	; 136
     da0:	f5 4c       	sbci	r31, 0xC5	; 197
     da2:	10 82       	st	Z, r1
            serRxDone = 1;
     da4:	81 e0       	ldi	r24, 0x01	; 1
     da6:	80 93 46 38 	sts	0x3846, r24	; 0x803846 <serRxDone>
     daa:	1f c0       	rjmp	.+62     	; 0xdea <__vector_27+0xa0>
        } else if (((serRx[RXCNT] == 0x08)||(serRx[RXCNT] == 0x7F))&&(RXCNT > 0)) {
     dac:	ed b3       	in	r30, 0x1d	; 29
     dae:	f0 e0       	ldi	r31, 0x00	; 0
     db0:	e8 58       	subi	r30, 0x88	; 136
     db2:	f5 4c       	sbci	r31, 0xC5	; 197
     db4:	80 81       	ld	r24, Z
     db6:	88 30       	cpi	r24, 0x08	; 8
     db8:	39 f0       	breq	.+14     	; 0xdc8 <__vector_27+0x7e>
     dba:	ed b3       	in	r30, 0x1d	; 29
     dbc:	f0 e0       	ldi	r31, 0x00	; 0
     dbe:	e8 58       	subi	r30, 0x88	; 136
     dc0:	f5 4c       	sbci	r31, 0xC5	; 197
     dc2:	80 81       	ld	r24, Z
     dc4:	8f 37       	cpi	r24, 0x7F	; 127
     dc6:	59 f4       	brne	.+22     	; 0xdde <__vector_27+0x94>
     dc8:	8d b3       	in	r24, 0x1d	; 29
     dca:	88 23       	and	r24, r24
     dcc:	41 f0       	breq	.+16     	; 0xdde <__vector_27+0x94>
            serRx[RXCNT] = 0;
     dce:	ed b3       	in	r30, 0x1d	; 29
     dd0:	f0 e0       	ldi	r31, 0x00	; 0
     dd2:	e8 58       	subi	r30, 0x88	; 136
     dd4:	f5 4c       	sbci	r31, 0xC5	; 197
     dd6:	10 82       	st	Z, r1
            --RXCNT;
     dd8:	8d b3       	in	r24, 0x1d	; 29
     dda:	81 50       	subi	r24, 0x01	; 1
     ddc:	05 c0       	rjmp	.+10     	; 0xde8 <__vector_27+0x9e>
        } else if (RXCNT < (RXLEN-1)) ++RXCNT;
     dde:	8d b3       	in	r24, 0x1d	; 29
     de0:	80 34       	cpi	r24, 0x40	; 64
     de2:	18 f4       	brcc	.+6      	; 0xdea <__vector_27+0xa0>
     de4:	8d b3       	in	r24, 0x1d	; 29
     de6:	8f 5f       	subi	r24, 0xFF	; 255
     de8:	8d bb       	out	0x1d, r24	; 29
    }
    USART0_STATUS = USART_RXCIF_bm;
     dea:	80 e8       	ldi	r24, 0x80	; 128
     dec:	80 93 04 08 	sts	0x0804, r24	; 0x800804 <__TEXT_REGION_LENGTH__+0x700804>
};
     df0:	ff 91       	pop	r31
     df2:	ef 91       	pop	r30
     df4:	8f 91       	pop	r24
     df6:	0f 90       	pop	r0
     df8:	0f be       	out	0x3f, r0	; 63
     dfa:	0f 90       	pop	r0
     dfc:	1f 90       	pop	r1
     dfe:	18 95       	reti

00000e00 <__vector_28>:

// Trigger new data write and turn off DRE interrupt.
ISR(USART0_DRE_vect){
     e00:	1f 92       	push	r1
     e02:	0f 92       	push	r0
     e04:	0f b6       	in	r0, 0x3f	; 63
     e06:	0f 92       	push	r0
     e08:	11 24       	eor	r1, r1
     e0a:	8f 93       	push	r24
     e0c:	ef 93       	push	r30
     e0e:	ff 93       	push	r31
    TCB0_CNT = 0;
     e10:	10 92 4a 0a 	sts	0x0A4A, r1	; 0x800a4a <__TEXT_REGION_LENGTH__+0x700a4a>
     e14:	10 92 4b 0a 	sts	0x0A4B, r1	; 0x800a4b <__TEXT_REGION_LENGTH__+0x700a4b>
    TCB0_INTCTRL = 0x01;
     e18:	81 e0       	ldi	r24, 0x01	; 1
     e1a:	80 93 45 0a 	sts	0x0A45, r24	; 0x800a45 <__TEXT_REGION_LENGTH__+0x700a45>
    USART0_CTRLA &= ~(USART_DREIE_bm);
     e1e:	e5 e0       	ldi	r30, 0x05	; 5
     e20:	f8 e0       	ldi	r31, 0x08	; 8
     e22:	80 81       	ld	r24, Z
     e24:	8f 7d       	andi	r24, 0xDF	; 223
     e26:	80 83       	st	Z, r24
};
     e28:	ff 91       	pop	r31
     e2a:	ef 91       	pop	r30
     e2c:	8f 91       	pop	r24
     e2e:	0f 90       	pop	r0
     e30:	0f be       	out	0x3f, r0	; 63
     e32:	0f 90       	pop	r0
     e34:	1f 90       	pop	r1
     e36:	18 95       	reti

00000e38 <__vector_20>:

// ADC used for audio input and temperature sensor.
ISR(ADC0_RESRDY_vect){
     e38:	1f 92       	push	r1
     e3a:	0f 92       	push	r0
     e3c:	0f b6       	in	r0, 0x3f	; 63
     e3e:	0f 92       	push	r0
     e40:	11 24       	eor	r1, r1
     e42:	8f 93       	push	r24
     e44:	9f 93       	push	r25
    //If just switched reference, discard first few samples
    if (adc0Chg == 0){
     e46:	80 91 3a 38 	lds	r24, 0x383A	; 0x80383a <adc0Chg>
     e4a:	81 11       	cpse	r24, r1
     e4c:	12 c0       	rjmp	.+36     	; 0xe72 <__vector_20+0x3a>
        if (ADC0_MUXPOS == 0x1E) adcTemp = ADC0_RES; else auIn=ADC0_RESL;
     e4e:	80 91 06 06 	lds	r24, 0x0606	; 0x800606 <__TEXT_REGION_LENGTH__+0x700606>
     e52:	8e 31       	cpi	r24, 0x1E	; 30
     e54:	49 f4       	brne	.+18     	; 0xe68 <__vector_20+0x30>
     e56:	80 91 10 06 	lds	r24, 0x0610	; 0x800610 <__TEXT_REGION_LENGTH__+0x700610>
     e5a:	90 91 11 06 	lds	r25, 0x0611	; 0x800611 <__TEXT_REGION_LENGTH__+0x700611>
     e5e:	80 93 f0 3a 	sts	0x3AF0, r24	; 0x803af0 <adcTemp>
     e62:	90 93 f1 3a 	sts	0x3AF1, r25	; 0x803af1 <adcTemp+0x1>
     e66:	0a c0       	rjmp	.+20     	; 0xe7c <__vector_20+0x44>
     e68:	80 91 10 06 	lds	r24, 0x0610	; 0x800610 <__TEXT_REGION_LENGTH__+0x700610>
     e6c:	80 93 c5 3a 	sts	0x3AC5, r24	; 0x803ac5 <auIn>
     e70:	05 c0       	rjmp	.+10     	; 0xe7c <__vector_20+0x44>
    } else --adc0Chg;
     e72:	80 91 3a 38 	lds	r24, 0x383A	; 0x80383a <adc0Chg>
     e76:	81 50       	subi	r24, 0x01	; 1
     e78:	80 93 3a 38 	sts	0x383A, r24	; 0x80383a <adc0Chg>
    ADC0_INTFLAGS = ADC_RESRDY_bm;
     e7c:	81 e0       	ldi	r24, 0x01	; 1
     e7e:	80 93 0b 06 	sts	0x060B, r24	; 0x80060b <__TEXT_REGION_LENGTH__+0x70060b>
}
     e82:	9f 91       	pop	r25
     e84:	8f 91       	pop	r24
     e86:	0f 90       	pop	r0
     e88:	0f be       	out	0x3f, r0	; 63
     e8a:	0f 90       	pop	r0
     e8c:	1f 90       	pop	r1
     e8e:	18 95       	reti

00000e90 <__vector_22>:

// Reads out sensors at 8Hz and buttons at 42Hz (timed by PIT), power for the sensors is on 1/8th of the time to save power.
ISR(ADC1_RESRDY_vect){
     e90:	1f 92       	push	r1
     e92:	0f 92       	push	r0
     e94:	0f b6       	in	r0, 0x3f	; 63
     e96:	0f 92       	push	r0
     e98:	11 24       	eor	r1, r1
     e9a:	8f 93       	push	r24
     e9c:	9f 93       	push	r25
    if (ADC1_MUXPOS == 0) {
     e9e:	80 91 46 06 	lds	r24, 0x0646	; 0x800646 <__TEXT_REGION_LENGTH__+0x700646>
     ea2:	81 11       	cpse	r24, r1
     ea4:	0a c0       	rjmp	.+20     	; 0xeba <__vector_22+0x2a>
        adcPhot = ADC1_RES;
     ea6:	80 91 50 06 	lds	r24, 0x0650	; 0x800650 <__TEXT_REGION_LENGTH__+0x700650>
     eaa:	90 91 51 06 	lds	r25, 0x0651	; 0x800651 <__TEXT_REGION_LENGTH__+0x700651>
     eae:	80 93 c0 3a 	sts	0x3AC0, r24	; 0x803ac0 <adcPhot>
     eb2:	90 93 c1 3a 	sts	0x3AC1, r25	; 0x803ac1 <adcPhot+0x1>
        ADC1_MUXPOS = 0x01;             //Select Hall sensor
     eb6:	81 e0       	ldi	r24, 0x01	; 1
     eb8:	10 c0       	rjmp	.+32     	; 0xeda <__vector_22+0x4a>
    } else if (ADC1_MUXPOS == 1){
     eba:	80 91 46 06 	lds	r24, 0x0646	; 0x800646 <__TEXT_REGION_LENGTH__+0x700646>
     ebe:	81 30       	cpi	r24, 0x01	; 1
     ec0:	79 f4       	brne	.+30     	; 0xee0 <__vector_22+0x50>
        PORTA_OUTCLR = 0b00001000;      //Turn off sensor power
     ec2:	88 e0       	ldi	r24, 0x08	; 8
     ec4:	80 93 06 04 	sts	0x0406, r24	; 0x800406 <__TEXT_REGION_LENGTH__+0x700406>
        adcHall = ADC1_RES;
     ec8:	80 91 50 06 	lds	r24, 0x0650	; 0x800650 <__TEXT_REGION_LENGTH__+0x700650>
     ecc:	90 91 51 06 	lds	r25, 0x0651	; 0x800651 <__TEXT_REGION_LENGTH__+0x700651>
     ed0:	80 93 be 3a 	sts	0x3ABE, r24	; 0x803abe <adcHall>
     ed4:	90 93 bf 3a 	sts	0x3ABF, r25	; 0x803abf <adcHall+0x1>
        ADC1_MUXPOS = 0x04;             //select buttons
     ed8:	84 e0       	ldi	r24, 0x04	; 4
     eda:	80 93 46 06 	sts	0x0646, r24	; 0x800646 <__TEXT_REGION_LENGTH__+0x700646>
     ede:	10 c0       	rjmp	.+32     	; 0xf00 <__vector_22+0x70>
    } else {
        adcBtns = ADC1_RES;
     ee0:	80 91 50 06 	lds	r24, 0x0650	; 0x800650 <__TEXT_REGION_LENGTH__+0x700650>
     ee4:	90 91 51 06 	lds	r25, 0x0651	; 0x800651 <__TEXT_REGION_LENGTH__+0x700651>
     ee8:	80 93 ba 3a 	sts	0x3ABA, r24	; 0x803aba <adcBtns>
     eec:	90 93 bb 3a 	sts	0x3ABB, r25	; 0x803abb <adcBtns+0x1>
        if (A1CNT == 15){
     ef0:	8f b3       	in	r24, 0x1f	; 31
     ef2:	8f 30       	cpi	r24, 0x0F	; 15
     ef4:	29 f4       	brne	.+10     	; 0xf00 <__vector_22+0x70>
            ADC1_MUXPOS = 0x00;         //Select photo transistor
     ef6:	10 92 46 06 	sts	0x0646, r1	; 0x800646 <__TEXT_REGION_LENGTH__+0x700646>
            PORTA_OUTSET = 0b00001000;  //Turn on sensor power
     efa:	88 e0       	ldi	r24, 0x08	; 8
     efc:	80 93 05 04 	sts	0x0405, r24	; 0x800405 <__TEXT_REGION_LENGTH__+0x700405>
        }
    }

    A1CNT=(A1CNT+1)%16;        
     f00:	8f b3       	in	r24, 0x1f	; 31
     f02:	90 e0       	ldi	r25, 0x00	; 0
     f04:	01 96       	adiw	r24, 0x01	; 1
     f06:	8f 70       	andi	r24, 0x0F	; 15
     f08:	99 27       	eor	r25, r25
     f0a:	8f bb       	out	0x1f, r24	; 31
    ADC1_INTFLAGS = ADC_RESRDY_bm;
     f0c:	81 e0       	ldi	r24, 0x01	; 1
     f0e:	80 93 4b 06 	sts	0x064B, r24	; 0x80064b <__TEXT_REGION_LENGTH__+0x70064b>
}
     f12:	9f 91       	pop	r25
     f14:	8f 91       	pop	r24
     f16:	0f 90       	pop	r0
     f18:	0f be       	out	0x3f, r0	; 63
     f1a:	0f 90       	pop	r0
     f1c:	1f 90       	pop	r1
     f1e:	18 95       	reti

00000f20 <__vector_6>:

// RTC compare interrupt, triggers at 512/BTN_TMR rate, also RTC overflow interrupt, triggers once a minute
ISR(RTC_CNT_vect) {
     f20:	1f 92       	push	r1
     f22:	0f 92       	push	r0
     f24:	0f b6       	in	r0, 0x3f	; 63
     f26:	0f 92       	push	r0
     f28:	11 24       	eor	r1, r1
     f2a:	2f 93       	push	r18
     f2c:	3f 93       	push	r19
     f2e:	8f 93       	push	r24
     f30:	9f 93       	push	r25
    if (RTC_INTFLAGS & RTC_CMP_bm){
     f32:	80 91 43 01 	lds	r24, 0x0143	; 0x800143 <__TEXT_REGION_LENGTH__+0x700143>
     f36:	81 ff       	sbrs	r24, 1
     f38:	39 c0       	rjmp	.+114    	; 0xfac <__vector_6+0x8c>
        if (buttonMark<0xff) buttonMark++;   // For button timing purposes
     f3a:	80 91 44 38 	lds	r24, 0x3844	; 0x803844 <buttonMark>
     f3e:	8f 3f       	cpi	r24, 0xFF	; 255
     f40:	29 f0       	breq	.+10     	; 0xf4c <__vector_6+0x2c>
     f42:	80 91 44 38 	lds	r24, 0x3844	; 0x803844 <buttonMark>
     f46:	8f 5f       	subi	r24, 0xFF	; 255
     f48:	80 93 44 38 	sts	0x3844, r24	; 0x803844 <buttonMark>
        //tmp16bit = (RTC_CNT + BTN_TMR)%RTC_PER;
        tmp16bit = (RTC_CNT + BTN_TMR);
     f4c:	80 91 48 01 	lds	r24, 0x0148	; 0x800148 <__TEXT_REGION_LENGTH__+0x700148>
     f50:	90 91 49 01 	lds	r25, 0x0149	; 0x800149 <__TEXT_REGION_LENGTH__+0x700149>
     f54:	82 96       	adiw	r24, 0x22	; 34
     f56:	80 93 f2 3a 	sts	0x3AF2, r24	; 0x803af2 <tmp16bit>
     f5a:	90 93 f3 3a 	sts	0x3AF3, r25	; 0x803af3 <tmp16bit+0x1>
        if (tmp16bit > RTC_PER) tmp16bit -= RTC_PER;
     f5e:	20 91 4a 01 	lds	r18, 0x014A	; 0x80014a <__TEXT_REGION_LENGTH__+0x70014a>
     f62:	30 91 4b 01 	lds	r19, 0x014B	; 0x80014b <__TEXT_REGION_LENGTH__+0x70014b>
     f66:	80 91 f2 3a 	lds	r24, 0x3AF2	; 0x803af2 <tmp16bit>
     f6a:	90 91 f3 3a 	lds	r25, 0x3AF3	; 0x803af3 <tmp16bit+0x1>
     f6e:	28 17       	cp	r18, r24
     f70:	39 07       	cpc	r19, r25
     f72:	70 f4       	brcc	.+28     	; 0xf90 <__vector_6+0x70>
     f74:	20 91 4a 01 	lds	r18, 0x014A	; 0x80014a <__TEXT_REGION_LENGTH__+0x70014a>
     f78:	30 91 4b 01 	lds	r19, 0x014B	; 0x80014b <__TEXT_REGION_LENGTH__+0x70014b>
     f7c:	80 91 f2 3a 	lds	r24, 0x3AF2	; 0x803af2 <tmp16bit>
     f80:	90 91 f3 3a 	lds	r25, 0x3AF3	; 0x803af3 <tmp16bit+0x1>
     f84:	82 1b       	sub	r24, r18
     f86:	93 0b       	sbc	r25, r19
     f88:	80 93 f2 3a 	sts	0x3AF2, r24	; 0x803af2 <tmp16bit>
     f8c:	90 93 f3 3a 	sts	0x3AF3, r25	; 0x803af3 <tmp16bit+0x1>
        while(RTC_STATUS & RTC_CMPBUSY_bm);
     f90:	80 91 41 01 	lds	r24, 0x0141	; 0x800141 <__TEXT_REGION_LENGTH__+0x700141>
     f94:	83 fd       	sbrc	r24, 3
     f96:	fc cf       	rjmp	.-8      	; 0xf90 <__vector_6+0x70>
        RTC_CMP = tmp16bit;                 // Button timing: next interrupt set
     f98:	80 91 f2 3a 	lds	r24, 0x3AF2	; 0x803af2 <tmp16bit>
     f9c:	90 91 f3 3a 	lds	r25, 0x3AF3	; 0x803af3 <tmp16bit+0x1>
     fa0:	80 93 4c 01 	sts	0x014C, r24	; 0x80014c <__TEXT_REGION_LENGTH__+0x70014c>
     fa4:	90 93 4d 01 	sts	0x014D, r25	; 0x80014d <__TEXT_REGION_LENGTH__+0x70014d>
        RTC_INTFLAGS = RTC_CMP_bm;		    // clear interrupt flag
     fa8:	82 e0       	ldi	r24, 0x02	; 2
     faa:	06 c0       	rjmp	.+12     	; 0xfb8 <__vector_6+0x98>
    } else {
        minuteMark++;                       // For very slow timing purposes, overflows to 0
     fac:	80 91 45 38 	lds	r24, 0x3845	; 0x803845 <minuteMark>
     fb0:	8f 5f       	subi	r24, 0xFF	; 255
     fb2:	80 93 45 38 	sts	0x3845, r24	; 0x803845 <minuteMark>
        RTC_INTFLAGS = RTC_OVF_bm;		    // clear interrupt flag
     fb6:	81 e0       	ldi	r24, 0x01	; 1
     fb8:	80 93 43 01 	sts	0x0143, r24	; 0x800143 <__TEXT_REGION_LENGTH__+0x700143>
    }
}
     fbc:	9f 91       	pop	r25
     fbe:	8f 91       	pop	r24
     fc0:	3f 91       	pop	r19
     fc2:	2f 91       	pop	r18
     fc4:	0f 90       	pop	r0
     fc6:	0f be       	out	0x3f, r0	; 63
     fc8:	0f 90       	pop	r0
     fca:	1f 90       	pop	r1
     fcc:	18 95       	reti

00000fce <__vector_7>:

// PIT interrupt (timing of ADC1: sensor values)
ISR(RTC_PIT_vect) {						// PIT interrupt handling code
     fce:	1f 92       	push	r1
     fd0:	0f 92       	push	r0
     fd2:	0f b6       	in	r0, 0x3f	; 63
     fd4:	0f 92       	push	r0
     fd6:	11 24       	eor	r1, r1
     fd8:	8f 93       	push	r24
    ADC1_COMMAND = 0x01;
     fda:	81 e0       	ldi	r24, 0x01	; 1
     fdc:	80 93 48 06 	sts	0x0648, r24	; 0x800648 <__TEXT_REGION_LENGTH__+0x700648>
    RTC_PITINTFLAGS = RTC_PI_bm;		// clear interrupt flag
     fe0:	80 93 53 01 	sts	0x0153, r24	; 0x800153 <__TEXT_REGION_LENGTH__+0x700153>
}
     fe4:	8f 91       	pop	r24
     fe6:	0f 90       	pop	r0
     fe8:	0f be       	out	0x3f, r0	; 63
     fea:	0f 90       	pop	r0
     fec:	1f 90       	pop	r1
     fee:	18 95       	reti

00000ff0 <EERead>:

// Read bytes from EEPROM
void EERead(uint8_t eeAddr, uint8_t *eeValues, uint8_t size)
{
    while(NVMCTRL_STATUS & NVMCTRL_EEBUSY_bm);              // Wait until any write operation has finished
     ff0:	90 91 02 10 	lds	r25, 0x1002	; 0x801002 <__TEXT_REGION_LENGTH__+0x701002>
     ff4:	91 fd       	sbrc	r25, 1
     ff6:	fc cf       	rjmp	.-8      	; 0xff0 <EERead>
     ff8:	fb 01       	movw	r30, r22
     ffa:	48 0f       	add	r20, r24

    while(size){
     ffc:	84 17       	cp	r24, r20
     ffe:	39 f0       	breq	.+14     	; 0x100e <EERead+0x1e>
        *eeValues++ = *(uint8_t *)(EEPROM_START+eeAddr++);  // Read data from buffer
    1000:	a8 2f       	mov	r26, r24
    1002:	b0 e0       	ldi	r27, 0x00	; 0
    1004:	bc 5e       	subi	r27, 0xEC	; 236
    1006:	9c 91       	ld	r25, X
    1008:	91 93       	st	Z+, r25
    100a:	8f 5f       	subi	r24, 0xFF	; 255
    100c:	f7 cf       	rjmp	.-18     	; 0xffc <EERead+0xc>
        --size;
    }
}
    100e:	08 95       	ret

00001010 <EEWrite>:
{
    uint8_t lastByteOfPage;
    while(size){
        lastByteOfPage = 0;
        while(NVMCTRL_STATUS & NVMCTRL_EEBUSY_bm);              // Wait until any write operation has finished
        CCP = CCP_SPM_gc;                                       // Gain access to NVMCTRL_CTRLA
    1010:	9d e9       	ldi	r25, 0x9D	; 157
        NVMCTRL_CTRLA = NVMCTRL_CMD_PAGEBUFCLR_gc;              // Clear page buffer
    1012:	24 e0       	ldi	r18, 0x04	; 4
            if ((eeAddr % EEPROM_PAGE_SIZE) == (EEPROM_PAGE_SIZE-1)) lastByteOfPage = 1;
            *(uint8_t *)(EEPROM_START+eeAddr++) = *eeValues++;  // Write data to buffer
            --size;
        }
        CCP = CCP_SPM_gc;
        NVMCTRL_CTRLA = NVMCTRL_CMD_PAGEERASEWRITE_gc;          // Erase old data and write new data to EEPROM
    1014:	33 e0       	ldi	r19, 0x03	; 3

// Write bytes to the EEPROM, if address exceeds EEPROM space data wraps around
uint8_t EEWrite(uint8_t eeAddr, uint8_t *eeValues, uint8_t size)
{
    uint8_t lastByteOfPage;
    while(size){
    1016:	44 23       	and	r20, r20
    1018:	09 f1       	breq	.+66     	; 0x105c <EEWrite+0x4c>
        lastByteOfPage = 0;
        while(NVMCTRL_STATUS & NVMCTRL_EEBUSY_bm);              // Wait until any write operation has finished
    101a:	50 91 02 10 	lds	r21, 0x1002	; 0x801002 <__TEXT_REGION_LENGTH__+0x701002>
    101e:	51 fd       	sbrc	r21, 1
    1020:	fc cf       	rjmp	.-8      	; 0x101a <EEWrite+0xa>
        CCP = CCP_SPM_gc;                                       // Gain access to NVMCTRL_CTRLA
    1022:	94 bf       	out	0x34, r25	; 52
        NVMCTRL_CTRLA = NVMCTRL_CMD_PAGEBUFCLR_gc;              // Clear page buffer
    1024:	20 93 00 10 	sts	0x1000, r18	; 0x801000 <__TEXT_REGION_LENGTH__+0x701000>
    1028:	e8 2f       	mov	r30, r24
        while((size) && (lastByteOfPage == 0)){
            if ((eeAddr % EEPROM_PAGE_SIZE) == (EEPROM_PAGE_SIZE-1)) lastByteOfPage = 1;
    102a:	58 2f       	mov	r21, r24
    102c:	5f 71       	andi	r21, 0x1F	; 31
            *(uint8_t *)(EEPROM_START+eeAddr++) = *eeValues++;  // Write data to buffer
    102e:	8f 5f       	subi	r24, 0xFF	; 255
    1030:	6f 5f       	subi	r22, 0xFF	; 255
    1032:	7f 4f       	sbci	r23, 0xFF	; 255
    1034:	db 01       	movw	r26, r22
    1036:	11 97       	sbiw	r26, 0x01	; 1
    1038:	ac 91       	ld	r26, X
    103a:	f0 e0       	ldi	r31, 0x00	; 0
    103c:	fc 5e       	subi	r31, 0xEC	; 236
    103e:	a0 83       	st	Z, r26
            --size;
    1040:	41 50       	subi	r20, 0x01	; 1
    while(size){
        lastByteOfPage = 0;
        while(NVMCTRL_STATUS & NVMCTRL_EEBUSY_bm);              // Wait until any write operation has finished
        CCP = CCP_SPM_gc;                                       // Gain access to NVMCTRL_CTRLA
        NVMCTRL_CTRLA = NVMCTRL_CMD_PAGEBUFCLR_gc;              // Clear page buffer
        while((size) && (lastByteOfPage == 0)){
    1042:	19 f0       	breq	.+6      	; 0x104a <EEWrite+0x3a>
            if ((eeAddr % EEPROM_PAGE_SIZE) == (EEPROM_PAGE_SIZE-1)) lastByteOfPage = 1;
            *(uint8_t *)(EEPROM_START+eeAddr++) = *eeValues++;  // Write data to buffer
    1044:	e8 2f       	mov	r30, r24
    while(size){
        lastByteOfPage = 0;
        while(NVMCTRL_STATUS & NVMCTRL_EEBUSY_bm);              // Wait until any write operation has finished
        CCP = CCP_SPM_gc;                                       // Gain access to NVMCTRL_CTRLA
        NVMCTRL_CTRLA = NVMCTRL_CMD_PAGEBUFCLR_gc;              // Clear page buffer
        while((size) && (lastByteOfPage == 0)){
    1046:	5f 31       	cpi	r21, 0x1F	; 31
    1048:	81 f7       	brne	.-32     	; 0x102a <EEWrite+0x1a>
            if ((eeAddr % EEPROM_PAGE_SIZE) == (EEPROM_PAGE_SIZE-1)) lastByteOfPage = 1;
            *(uint8_t *)(EEPROM_START+eeAddr++) = *eeValues++;  // Write data to buffer
            --size;
        }
        CCP = CCP_SPM_gc;
    104a:	94 bf       	out	0x34, r25	; 52
        NVMCTRL_CTRLA = NVMCTRL_CMD_PAGEERASEWRITE_gc;          // Erase old data and write new data to EEPROM
    104c:	30 93 00 10 	sts	0x1000, r19	; 0x801000 <__TEXT_REGION_LENGTH__+0x701000>
        if (NVMCTRL_STATUS & NVMCTRL_WRERROR_bm) return 1;
    1050:	50 91 02 10 	lds	r21, 0x1002	; 0x801002 <__TEXT_REGION_LENGTH__+0x701002>
    1054:	52 ff       	sbrs	r21, 2
    1056:	df cf       	rjmp	.-66     	; 0x1016 <EEWrite+0x6>
    1058:	81 e0       	ldi	r24, 0x01	; 1
    }
    return 0;
}
    105a:	08 95       	ret
        }
        CCP = CCP_SPM_gc;
        NVMCTRL_CTRLA = NVMCTRL_CMD_PAGEERASEWRITE_gc;          // Erase old data and write new data to EEPROM
        if (NVMCTRL_STATUS & NVMCTRL_WRERROR_bm) return 1;
    }
    return 0;
    105c:	80 e0       	ldi	r24, 0x00	; 0
    105e:	08 95       	ret

00001060 <DecryptData>:
}

//Decrypts data read from I2C EEPROM, max 255 bytes at a time
void DecryptData(uint16_t offset, uint8_t length, uint8_t type, uint8_t *data){
    1060:	f9 01       	movw	r30, r18
    //offset += L_BOILER;
    while(length){
        *data ^= xor_key[type][(uint8_t)(offset%KEY_LENGTH)];
    1062:	9c 01       	movw	r18, r24
    1064:	2e 1b       	sub	r18, r30
    1066:	3f 0b       	sbc	r19, r31
    1068:	88 e0       	ldi	r24, 0x08	; 8
    106a:	48 9f       	mul	r20, r24
    106c:	a0 01       	movw	r20, r0
    106e:	11 24       	eor	r1, r1
    1070:	46 5a       	subi	r20, 0xA6	; 166
    1072:	50 44       	sbci	r21, 0x40	; 64
}

//Decrypts data read from I2C EEPROM, max 255 bytes at a time
void DecryptData(uint16_t offset, uint8_t length, uint8_t type, uint8_t *data){
    //offset += L_BOILER;
    while(length){
    1074:	66 23       	and	r22, r22
    1076:	69 f0       	breq	.+26     	; 0x1092 <DecryptData+0x32>
        *data ^= xor_key[type][(uint8_t)(offset%KEY_LENGTH)];
    1078:	df 01       	movw	r26, r30
    107a:	a2 0f       	add	r26, r18
    107c:	b3 1f       	adc	r27, r19
    107e:	a7 70       	andi	r26, 0x07	; 7
    1080:	bb 27       	eor	r27, r27
    1082:	a4 0f       	add	r26, r20
    1084:	b5 1f       	adc	r27, r21
    1086:	80 81       	ld	r24, Z
    1088:	9c 91       	ld	r25, X
    108a:	98 27       	eor	r25, r24
    108c:	91 93       	st	Z+, r25
        ++data;
        ++offset;
        --length;
    108e:	61 50       	subi	r22, 0x01	; 1
    1090:	f1 cf       	rjmp	.-30     	; 0x1074 <DecryptData+0x14>
    }
}
    1092:	08 95       	ret

00001094 <ExtEERead>:

//Game data: Read a number of bytes and decrypt
uint8_t ExtEERead(uint16_t offset, uint8_t length, uint8_t type, uint8_t *data){
    1094:	af 92       	push	r10
    1096:	bf 92       	push	r11
    1098:	cf 92       	push	r12
    109a:	df 92       	push	r13
    109c:	ef 92       	push	r14
    109e:	ff 92       	push	r15
    10a0:	0f 93       	push	r16
    10a2:	1f 93       	push	r17
    10a4:	cf 93       	push	r28
    10a6:	df 93       	push	r29
    10a8:	00 d0       	rcall	.+0      	; 0x10aa <ExtEERead+0x16>
    10aa:	cd b7       	in	r28, 0x3d	; 61
    10ac:	de b7       	in	r29, 0x3e	; 62
    10ae:	d6 2e       	mov	r13, r22
    10b0:	c4 2e       	mov	r12, r20
    10b2:	59 01       	movw	r10, r18
    offset &=EXT_EE_MAX;
    10b4:	7c 01       	movw	r14, r24
    10b6:	e8 94       	clt
    10b8:	f7 f8       	bld	r15, 7
    uint8_t reg[2] = {(uint8_t)(offset>>8), (uint8_t)(offset&0xff)};
    10ba:	f9 82       	std	Y+1, r15	; 0x01
    10bc:	ea 82       	std	Y+2, r14	; 0x02
    uint8_t error = (I2C_read_bytes(EE_I2C_ADDR, &reg[0], 2, data, length));
    10be:	06 2f       	mov	r16, r22
    10c0:	42 e0       	ldi	r20, 0x02	; 2
    10c2:	be 01       	movw	r22, r28
    10c4:	6f 5f       	subi	r22, 0xFF	; 255
    10c6:	7f 4f       	sbci	r23, 0xFF	; 255
    10c8:	80 e5       	ldi	r24, 0x50	; 80
    10ca:	19 da       	rcall	.-3022   	; 0x4fe <I2C_read_bytes>
    10cc:	18 2f       	mov	r17, r24
    if (error) return error;
    10ce:	81 11       	cpse	r24, r1
    10d0:	05 c0       	rjmp	.+10     	; 0x10dc <ExtEERead+0x48>
    DecryptData(offset, length, type, data);
    10d2:	95 01       	movw	r18, r10
    10d4:	4c 2d       	mov	r20, r12
    10d6:	6d 2d       	mov	r22, r13
    10d8:	c7 01       	movw	r24, r14
    10da:	c2 df       	rcall	.-124    	; 0x1060 <DecryptData>
    return 0;
}
    10dc:	81 2f       	mov	r24, r17
    10de:	0f 90       	pop	r0
    10e0:	0f 90       	pop	r0
    10e2:	df 91       	pop	r29
    10e4:	cf 91       	pop	r28
    10e6:	1f 91       	pop	r17
    10e8:	0f 91       	pop	r16
    10ea:	ff 90       	pop	r15
    10ec:	ef 90       	pop	r14
    10ee:	df 90       	pop	r13
    10f0:	cf 90       	pop	r12
    10f2:	bf 90       	pop	r11
    10f4:	af 90       	pop	r10
    10f6:	08 95       	ret

000010f8 <SerSend>:

// Sends a set of characters to the serial port, stops only when character value 0 is reached.
uint8_t SerSend(unsigned char *addr){
    if (serTxDone){
    10f8:	20 91 09 38 	lds	r18, 0x3809	; 0x803809 <serTxDone>
    10fc:	22 23       	and	r18, r18
    10fe:	59 f0       	breq	.+22     	; 0x1116 <SerSend+0x1e>
        serTxAddr = addr;
    1100:	80 93 bc 3a 	sts	0x3ABC, r24	; 0x803abc <serTxAddr>
    1104:	90 93 bd 3a 	sts	0x3ABD, r25	; 0x803abd <serTxAddr+0x1>
        serTxDone = 0;
    1108:	10 92 09 38 	sts	0x3809, r1	; 0x803809 <serTxDone>
        TCB0_INTCTRL = 0x01;
    110c:	81 e0       	ldi	r24, 0x01	; 1
    110e:	80 93 45 0a 	sts	0x0A45, r24	; 0x800a45 <__TEXT_REGION_LENGTH__+0x700a45>
        return 0;
    1112:	80 e0       	ldi	r24, 0x00	; 0
    1114:	08 95       	ret
    } else return 1;    //Error: Still sending data
    1116:	81 e0       	ldi	r24, 0x01	; 1
};
    1118:	08 95       	ret

0000111a <SerSpeed>:

// Set serial character output speed, 255-0 (0.8 to 100ms delay between characters)
void SerSpeed(uint8_t serSpd){
    111a:	28 2f       	mov	r18, r24
    if (serSpd<1) serSpd = 1;
    111c:	81 11       	cpse	r24, r1
    111e:	01 c0       	rjmp	.+2      	; 0x1122 <SerSpeed+0x8>
    1120:	21 e0       	ldi	r18, 0x01	; 1
    TCB0_CCMP = ((uint16_t)(0xFF-serSpd)<<8) + 0xFF;
    1122:	8f ef       	ldi	r24, 0xFF	; 255
    1124:	90 e0       	ldi	r25, 0x00	; 0
    1126:	82 1b       	sub	r24, r18
    1128:	91 09       	sbc	r25, r1
    112a:	98 2f       	mov	r25, r24
    112c:	88 27       	eor	r24, r24
    112e:	81 50       	subi	r24, 0x01	; 1
    1130:	9f 4f       	sbci	r25, 0xFF	; 255
    1132:	80 93 4c 0a 	sts	0x0A4C, r24	; 0x800a4c <__TEXT_REGION_LENGTH__+0x700a4c>
    1136:	90 93 4d 0a 	sts	0x0A4D, r25	; 0x800a4d <__TEXT_REGION_LENGTH__+0x700a4d>
    113a:	08 95       	ret

0000113c <SelectTSens>:
};

// Select temperature sensor
void SelectTSens(){
     VREF_CTRLA   = 0x12;    //0x22 for audio in/out (2.5V), 0x12 for temperature in, audio out (1.1V/2.5V)
    113c:	82 e1       	ldi	r24, 0x12	; 18
    113e:	80 93 a0 00 	sts	0x00A0, r24	; 0x8000a0 <__TEXT_REGION_LENGTH__+0x7000a0>
     ADC0_CTRLA   &= ~(ADC_RESSEL_bm);
    1142:	e0 e0       	ldi	r30, 0x00	; 0
    1144:	f6 e0       	ldi	r31, 0x06	; 6
    1146:	80 81       	ld	r24, Z
    1148:	8b 7f       	andi	r24, 0xFB	; 251
    114a:	80 83       	st	Z, r24
     ADC0_MUXPOS  = 0x1E;    //Audio in: AIN7 at (0x07), Temperature: Internal sensor at (0x1E)
    114c:	8e e1       	ldi	r24, 0x1E	; 30
    114e:	80 93 06 06 	sts	0x0606, r24	; 0x800606 <__TEXT_REGION_LENGTH__+0x700606>
     adc0Chg = 3;
    1152:	83 e0       	ldi	r24, 0x03	; 3
    1154:	80 93 3a 38 	sts	0x383A, r24	; 0x80383a <adc0Chg>
    1158:	08 95       	ret

0000115a <SelectAuIn>:
};

// Select "audio" input (0-2.5V)
void SelectAuIn(){
     VREF_CTRLA   = 0x22;    //0x22 for audio in/out (2.5V), 0x12 for temperature in, audio out (1.1V/2.5V)
    115a:	82 e2       	ldi	r24, 0x22	; 34
    115c:	80 93 a0 00 	sts	0x00A0, r24	; 0x8000a0 <__TEXT_REGION_LENGTH__+0x7000a0>
     ADC0_CTRLA   |= ADC_RESSEL_bm;
    1160:	e0 e0       	ldi	r30, 0x00	; 0
    1162:	f6 e0       	ldi	r31, 0x06	; 6
    1164:	80 81       	ld	r24, Z
    1166:	84 60       	ori	r24, 0x04	; 4
    1168:	80 83       	st	Z, r24
     ADC0_MUXPOS  = 0x07;    //Audio in: AIN7 at (0x07), Temperature: Internal sensor at (0x1E)
    116a:	87 e0       	ldi	r24, 0x07	; 7
    116c:	80 93 06 06 	sts	0x0606, r24	; 0x800606 <__TEXT_REGION_LENGTH__+0x700606>
     adc0Chg = 3;
    1170:	83 e0       	ldi	r24, 0x03	; 3
    1172:	80 93 3a 38 	sts	0x383A, r24	; 0x80383a <adc0Chg>
    1176:	08 95       	ret

00001178 <CheckButtons>:
};

// Returns button combination (4LSB) and number of consecutive times this combination is detected. First read should always be ignored! 
uint8_t CheckButtons(){
    static uint8_t previousValue = 0xFF;
    uint8_t bADC = (uint8_t)(adcBtns>>4);
    1178:	80 91 ba 3a 	lds	r24, 0x3ABA	; 0x803aba <adcBtns>
    117c:	90 91 bb 3a 	lds	r25, 0x3ABB	; 0x803abb <adcBtns+0x1>
    uint8_t button = 0xFF;     //FF = released or error

        switch(bADC){
    1180:	24 e0       	ldi	r18, 0x04	; 4
    1182:	96 95       	lsr	r25
    1184:	87 95       	ror	r24
    1186:	2a 95       	dec	r18
    1188:	e1 f7       	brne	.-8      	; 0x1182 <CheckButtons+0xa>
    118a:	99 27       	eor	r25, r25
    118c:	80 36       	cpi	r24, 0x60	; 96
    118e:	91 05       	cpc	r25, r1
    1190:	40 f4       	brcc	.+16     	; 0x11a2 <CheckButtons+0x2a>
    1192:	8f 34       	cpi	r24, 0x4F	; 79
    1194:	91 05       	cpc	r25, r1
    1196:	88 f4       	brcc	.+34     	; 0x11ba <CheckButtons+0x42>
    1198:	c0 97       	sbiw	r24, 0x30	; 48
    119a:	09 97       	sbiw	r24, 0x09	; 9
    119c:	90 f4       	brcc	.+36     	; 0x11c2 <CheckButtons+0x4a>

            case 48 ... 56:          //52: Bottom left (+/-4)
            button = 2;
    119e:	92 e0       	ldi	r25, 0x02	; 2
    11a0:	11 c0       	rjmp	.+34     	; 0x11c4 <CheckButtons+0x4c>
uint8_t CheckButtons(){
    static uint8_t previousValue = 0xFF;
    uint8_t bADC = (uint8_t)(adcBtns>>4);
    uint8_t button = 0xFF;     //FF = released or error

        switch(bADC){
    11a2:	85 37       	cpi	r24, 0x75	; 117
    11a4:	91 05       	cpc	r25, r1
    11a6:	68 f0       	brcs	.+26     	; 0x11c2 <CheckButtons+0x4a>
    11a8:	8e 38       	cpi	r24, 0x8E	; 142
    11aa:	91 05       	cpc	r25, r1
    11ac:	40 f0       	brcs	.+16     	; 0x11be <CheckButtons+0x46>
    11ae:	8e 59       	subi	r24, 0x9E	; 158
    11b0:	91 09       	sbc	r25, r1
    11b2:	81 97       	sbiw	r24, 0x21	; 33
    11b4:	30 f4       	brcc	.+12     	; 0x11c2 <CheckButtons+0x4a>
            case 117 ... 141:        //129: Top right (+/- 12)
            button = 1;
            break;

            case 158 ... 190:        //174: Bottom right (+/- 16)
            button = 0;
    11b6:	90 e0       	ldi	r25, 0x00	; 0
            break;
    11b8:	05 c0       	rjmp	.+10     	; 0x11c4 <CheckButtons+0x4c>
            case 48 ... 56:          //52: Bottom left (+/-4)
            button = 2;
            break;

            case 79 ... 95:          //87: Top left (+/-8)
            button = 3;
    11ba:	93 e0       	ldi	r25, 0x03	; 3
            break;
    11bc:	03 c0       	rjmp	.+6      	; 0x11c4 <CheckButtons+0x4c>

            case 117 ... 141:        //129: Top right (+/- 12)
            button = 1;
    11be:	91 e0       	ldi	r25, 0x01	; 1
            break;
    11c0:	01 c0       	rjmp	.+2      	; 0x11c4 <CheckButtons+0x4c>

// Returns button combination (4LSB) and number of consecutive times this combination is detected. First read should always be ignored! 
uint8_t CheckButtons(){
    static uint8_t previousValue = 0xFF;
    uint8_t bADC = (uint8_t)(adcBtns>>4);
    uint8_t button = 0xFF;     //FF = released or error
    11c2:	9f ef       	ldi	r25, 0xFF	; 255
            case 158 ... 190:        //174: Bottom right (+/- 16)
            button = 0;
            break;
        }

        if (((previousValue+1)== 0) || (button != previousValue)) {
    11c4:	80 91 27 38 	lds	r24, 0x3827	; 0x803827 <previousValue.3900>
    11c8:	98 17       	cp	r25, r24
    11ca:	19 f0       	breq	.+6      	; 0x11d2 <CheckButtons+0x5a>
            previousValue = button;
    11cc:	90 93 27 38 	sts	0x3827, r25	; 0x803827 <previousValue.3900>
            return 0xFF;
    11d0:	8f ef       	ldi	r24, 0xFF	; 255
        } else return button;

}
    11d2:	08 95       	ret

000011d4 <lfsr>:

uint8_t lfsr(){
    static uint16_t state = 0xd401;
    state ^= (state << 13);
    11d4:	80 91 25 38 	lds	r24, 0x3825	; 0x803825 <state.3910>
    11d8:	90 91 26 38 	lds	r25, 0x3826	; 0x803826 <state.3910+0x1>
    11dc:	9c 01       	movw	r18, r24
    11de:	32 2f       	mov	r19, r18
    11e0:	22 27       	eor	r18, r18
    11e2:	32 95       	swap	r19
    11e4:	33 0f       	add	r19, r19
    11e6:	30 7e       	andi	r19, 0xE0	; 224
    11e8:	82 27       	eor	r24, r18
    11ea:	93 27       	eor	r25, r19
    state ^= (state >> 9);
    11ec:	9c 01       	movw	r18, r24
    11ee:	23 2f       	mov	r18, r19
    11f0:	33 27       	eor	r19, r19
    11f2:	26 95       	lsr	r18
    11f4:	82 27       	eor	r24, r18
    11f6:	93 27       	eor	r25, r19
    state ^= (state << 7);
    11f8:	9c 01       	movw	r18, r24
    11fa:	36 95       	lsr	r19
    11fc:	32 2f       	mov	r19, r18
    11fe:	22 27       	eor	r18, r18
    1200:	37 95       	ror	r19
    1202:	27 95       	ror	r18
    1204:	82 27       	eor	r24, r18
    1206:	93 27       	eor	r25, r19
    1208:	80 93 25 38 	sts	0x3825, r24	; 0x803825 <state.3910>
    120c:	90 93 26 38 	sts	0x3826, r25	; 0x803826 <state.3910+0x1>
    return (state & 0xff);
}
    1210:	08 95       	ret

00001212 <floatSpeed>:

void floatSpeed(uint8_t bits, uint16_t min, uint16_t max){
    1212:	df 92       	push	r13
    1214:	ef 92       	push	r14
    1216:	ff 92       	push	r15
    1218:	0f 93       	push	r16
    121a:	1f 93       	push	r17
    121c:	cf 93       	push	r28
    121e:	df 93       	push	r29
    1220:	7b 01       	movw	r14, r22
    1222:	8a 01       	movw	r16, r20
    uint16_t val = TCB1_CCMP;
    1224:	c0 91 5c 0a 	lds	r28, 0x0A5C	; 0x800a5c <__TEXT_REGION_LENGTH__+0x700a5c>
    1228:	d0 91 5d 0a 	lds	r29, 0x0A5D	; 0x800a5d <__TEXT_REGION_LENGTH__+0x700a5d>
    bits = mask[(bits-1)&0x07];
    122c:	e8 2f       	mov	r30, r24
    122e:	f0 e0       	ldi	r31, 0x00	; 0
    1230:	31 97       	sbiw	r30, 0x01	; 1
    1232:	e7 70       	andi	r30, 0x07	; 7
    1234:	ff 27       	eor	r31, r31
    1236:	e8 5d       	subi	r30, 0xD8	; 216
    1238:	f7 4c       	sbci	r31, 0xC7	; 199
    123a:	d0 80       	ld	r13, Z
    val += (lfsr()&bits);
    123c:	cb df       	rcall	.-106    	; 0x11d4 <lfsr>
    123e:	8d 21       	and	r24, r13
    1240:	c8 0f       	add	r28, r24
    1242:	d1 1d       	adc	r29, r1
    val -= (lfsr()&bits);
    1244:	c7 df       	rcall	.-114    	; 0x11d4 <lfsr>
    1246:	8d 21       	and	r24, r13
    1248:	c8 1b       	sub	r28, r24
    124a:	d1 09       	sbc	r29, r1
    124c:	0c 17       	cp	r16, r28
    124e:	1d 07       	cpc	r17, r29
    1250:	08 f4       	brcc	.+2      	; 0x1254 <floatSpeed+0x42>
    1252:	e8 01       	movw	r28, r16
    1254:	c7 01       	movw	r24, r14
    1256:	ec 16       	cp	r14, r28
    1258:	fd 06       	cpc	r15, r29
    125a:	08 f4       	brcc	.+2      	; 0x125e <floatSpeed+0x4c>
    125c:	ce 01       	movw	r24, r28
    125e:	80 93 5c 0a 	sts	0x0A5C, r24	; 0x800a5c <__TEXT_REGION_LENGTH__+0x700a5c>
    if (val > max) val = max;    
    if (val < min) val = min;  
    TCB1_CCMP = val;
    1262:	90 93 5d 0a 	sts	0x0A5D, r25	; 0x800a5d <__TEXT_REGION_LENGTH__+0x700a5d>
    1266:	df 91       	pop	r29
}
    1268:	cf 91       	pop	r28
    126a:	1f 91       	pop	r17
    126c:	0f 91       	pop	r16
    126e:	ff 90       	pop	r15
    1270:	ef 90       	pop	r14
    1272:	df 90       	pop	r13
    1274:	08 95       	ret

00001276 <floatAround>:
    1276:	0f 93       	push	r16

uint8_t floatAround(uint8_t sample, uint8_t bits, uint8_t min, uint8_t max){
    1278:	1f 93       	push	r17
    127a:	cf 93       	push	r28
    127c:	df 93       	push	r29
    127e:	c8 2f       	mov	r28, r24
    1280:	d4 2f       	mov	r29, r20
    1282:	02 2f       	mov	r16, r18
    bits = mask[(bits-1)&0x07];
    1284:	e6 2f       	mov	r30, r22
    1286:	f0 e0       	ldi	r31, 0x00	; 0
    1288:	31 97       	sbiw	r30, 0x01	; 1
    128a:	e7 70       	andi	r30, 0x07	; 7
    128c:	ff 27       	eor	r31, r31
    128e:	e8 5d       	subi	r30, 0xD8	; 216
    1290:	f7 4c       	sbci	r31, 0xC7	; 199
    1292:	10 81       	ld	r17, Z
    sample += lfsr()&bits;
    1294:	9f df       	rcall	.-194    	; 0x11d4 <lfsr>
    1296:	81 23       	and	r24, r17
    1298:	c8 0f       	add	r28, r24
    sample -= lfsr()&bits;
    129a:	9c df       	rcall	.-200    	; 0x11d4 <lfsr>
    129c:	81 23       	and	r24, r17
    129e:	c8 1b       	sub	r28, r24
    12a0:	8c 2f       	mov	r24, r28
    12a2:	00 23       	and	r16, r16
    if (max){
    12a4:	41 f0       	breq	.+16     	; 0x12b6 <floatAround+0x40>
    12a6:	9c 2f       	mov	r25, r28
    12a8:	0c 17       	cp	r16, r28
    12aa:	08 f4       	brcc	.+2      	; 0x12ae <floatAround+0x38>
    12ac:	90 2f       	mov	r25, r16
    12ae:	8d 2f       	mov	r24, r29
    12b0:	d9 17       	cp	r29, r25
    12b2:	08 f4       	brcc	.+2      	; 0x12b6 <floatAround+0x40>
    12b4:	89 2f       	mov	r24, r25
    12b6:	41 e0       	ldi	r20, 0x01	; 1
        if (sample > max) sample = max;
        if (sample < min) sample = min;
    }
    if (min & (sample < min)) sample = min;
    12b8:	50 e0       	ldi	r21, 0x00	; 0
    12ba:	8d 17       	cp	r24, r29
    12bc:	10 f0       	brcs	.+4      	; 0x12c2 <floatAround+0x4c>
    12be:	40 e0       	ldi	r20, 0x00	; 0
    12c0:	50 e0       	ldi	r21, 0x00	; 0
    12c2:	2d 2f       	mov	r18, r29
    12c4:	30 e0       	ldi	r19, 0x00	; 0
    12c6:	24 23       	and	r18, r20
    12c8:	35 23       	and	r19, r21
    12ca:	23 2b       	or	r18, r19
    12cc:	09 f0       	breq	.+2      	; 0x12d0 <floatAround+0x5a>
    12ce:	8d 2f       	mov	r24, r29
    12d0:	df 91       	pop	r29

    return sample;
}
    12d2:	cf 91       	pop	r28
    12d4:	1f 91       	pop	r17
    12d6:	0f 91       	pop	r16
    12d8:	08 95       	ret

000012da <SaveGameState>:
    12da:	cf 92       	push	r12
    inventory[0] = (gameState[INVADDR]<<8|gameState[INVADDR+1]);
    inventory[1] = (gameState[INVADDR+2]<<8|gameState[INVADDR+3]);
}

//Save changed data to EEPROM
uint8_t SaveGameState(){
    12dc:	df 92       	push	r13
    12de:	ff 92       	push	r15
    12e0:	0f 93       	push	r16
    12e2:	1f 93       	push	r17
    12e4:	cf 93       	push	r28
    12e6:	df 93       	push	r29
    12e8:	cd b7       	in	r28, 0x3d	; 61
    12ea:	de b7       	in	r29, 0x3e	; 62
    12ec:	64 97       	sbiw	r28, 0x14	; 20
    12ee:	cd bf       	out	0x3d, r28	; 61
    12f0:	de bf       	out	0x3e, r29	; 62
    uint8_t gameCheck[BOOTCHK];

    //Read all data up to the boot/check result address from EEPROM
    EERead(0, &gameCheck[0], BOOTCHK);
    12f2:	44 e1       	ldi	r20, 0x14	; 20
    12f4:	be 01       	movw	r22, r28
    12f6:	6f 5f       	subi	r22, 0xFF	; 255
    12f8:	7f 4f       	sbci	r23, 0xFF	; 255
    12fa:	80 e0       	ldi	r24, 0x00	; 0
    12fc:	79 de       	rcall	.-782    	; 0xff0 <EERead>
    12fe:	84 e6       	ldi	r24, 0x64	; 100
    1300:	c8 2e       	mov	r12, r24
    1302:	8a e3       	ldi	r24, 0x3A	; 58
    1304:	d8 2e       	mov	r13, r24
    1306:	8e 01       	movw	r16, r28
    1308:	0f 5f       	subi	r16, 0xFF	; 255
    130a:	1f 4f       	sbci	r17, 0xFF	; 255

    //Check game status bits
    for (uint8_t x=0; x<STATLEN; ++x){
    130c:	f1 2c       	mov	r15, r1
        if (gameState[x] != gameCheck[x]){
    130e:	f8 01       	movw	r30, r16
    1310:	81 91       	ld	r24, Z+
    1312:	8f 01       	movw	r16, r30
    1314:	f6 01       	movw	r30, r12
    1316:	90 81       	ld	r25, Z
    1318:	98 13       	cpse	r25, r24
    131a:	08 c0       	rjmp	.+16     	; 0x132c <SaveGameState+0x52>

    //Read all data up to the boot/check result address from EEPROM
    EERead(0, &gameCheck[0], BOOTCHK);

    //Check game status bits
    for (uint8_t x=0; x<STATLEN; ++x){
    131c:	f3 94       	inc	r15
    131e:	ff ef       	ldi	r31, 0xFF	; 255
    1320:	cf 1a       	sub	r12, r31
    1322:	df 0a       	sbc	r13, r31
    1324:	80 e1       	ldi	r24, 0x10	; 16
    1326:	f8 12       	cpse	r15, r24
    1328:	f2 cf       	rjmp	.-28     	; 0x130e <SaveGameState+0x34>
    132a:	08 c0       	rjmp	.+16     	; 0x133c <SaveGameState+0x62>
        if (gameState[x] != gameCheck[x]){
            if (EEWrite(x, &gameState[x], 1)) return 1;
    132c:	41 e0       	ldi	r20, 0x01	; 1
    132e:	b6 01       	movw	r22, r12
    1330:	8f 2d       	mov	r24, r15
    1332:	6e de       	rcall	.-804    	; 0x1010 <EEWrite>
    1334:	88 23       	and	r24, r24
    1336:	91 f3       	breq	.-28     	; 0x131c <SaveGameState+0x42>
    1338:	91 e0       	ldi	r25, 0x01	; 1
    133a:	36 c0       	rjmp	.+108    	; 0x13a8 <SaveGameState+0xce>
        }
    }

    //Check the inventory too
    gameState[INVADDR] = (uint8_t)(inventory[0]>>8);
    133c:	20 91 40 38 	lds	r18, 0x3840	; 0x803840 <inventory>
    1340:	30 91 41 38 	lds	r19, 0x3841	; 0x803841 <inventory+0x1>
    1344:	30 93 74 3a 	sts	0x3A74, r19	; 0x803a74 <gameState+0x10>
    gameState[INVADDR+1] = (uint8_t)(inventory[0]&0xff);
    1348:	20 93 75 3a 	sts	0x3A75, r18	; 0x803a75 <gameState+0x11>
    gameState[INVADDR+2] = (uint8_t)(inventory[1]>>8);
    134c:	80 91 42 38 	lds	r24, 0x3842	; 0x803842 <inventory+0x2>
    1350:	90 91 43 38 	lds	r25, 0x3843	; 0x803843 <inventory+0x3>
    1354:	90 93 76 3a 	sts	0x3A76, r25	; 0x803a76 <gameState+0x12>
    gameState[INVADDR+3] = (uint8_t)(inventory[1]&0xff);
    1358:	80 93 77 3a 	sts	0x3A77, r24	; 0x803a77 <gameState+0x13>
    if (inventory[0] != (gameCheck[INVADDR]<<8|gameCheck[INVADDR+1])) {
    135c:	89 89       	ldd	r24, Y+17	; 0x11
    135e:	9a 89       	ldd	r25, Y+18	; 0x12
    1360:	98 27       	eor	r25, r24
    1362:	89 27       	eor	r24, r25
    1364:	98 27       	eor	r25, r24
    1366:	28 17       	cp	r18, r24
    1368:	39 07       	cpc	r19, r25
    136a:	69 f4       	brne	.+26     	; 0x1386 <SaveGameState+0xac>
        if (EEWrite(INVADDR, &gameState[INVADDR], 2)) return 1;
    }
    if (inventory[1] != (gameCheck[INVADDR+2]<<8|gameCheck[INVADDR+3])) {
    136c:	8b 89       	ldd	r24, Y+19	; 0x13
    136e:	9c 89       	ldd	r25, Y+20	; 0x14
    1370:	98 27       	eor	r25, r24
    1372:	89 27       	eor	r24, r25
    1374:	98 27       	eor	r25, r24
    1376:	20 91 42 38 	lds	r18, 0x3842	; 0x803842 <inventory+0x2>
    137a:	30 91 43 38 	lds	r19, 0x3843	; 0x803843 <inventory+0x3>
    137e:	28 17       	cp	r18, r24
    1380:	39 07       	cpc	r19, r25
    1382:	49 f4       	brne	.+18     	; 0x1396 <SaveGameState+0xbc>
    1384:	10 c0       	rjmp	.+32     	; 0x13a6 <SaveGameState+0xcc>
    gameState[INVADDR] = (uint8_t)(inventory[0]>>8);
    gameState[INVADDR+1] = (uint8_t)(inventory[0]&0xff);
    gameState[INVADDR+2] = (uint8_t)(inventory[1]>>8);
    gameState[INVADDR+3] = (uint8_t)(inventory[1]&0xff);
    if (inventory[0] != (gameCheck[INVADDR]<<8|gameCheck[INVADDR+1])) {
        if (EEWrite(INVADDR, &gameState[INVADDR], 2)) return 1;
    1386:	42 e0       	ldi	r20, 0x02	; 2
    1388:	64 e7       	ldi	r22, 0x74	; 116
    138a:	7a e3       	ldi	r23, 0x3A	; 58
    138c:	80 e1       	ldi	r24, 0x10	; 16
    138e:	40 de       	rcall	.-896    	; 0x1010 <EEWrite>
    1390:	88 23       	and	r24, r24
    1392:	61 f3       	breq	.-40     	; 0x136c <SaveGameState+0x92>
    1394:	d1 cf       	rjmp	.-94     	; 0x1338 <SaveGameState+0x5e>
    }
    if (inventory[1] != (gameCheck[INVADDR+2]<<8|gameCheck[INVADDR+3])) {
        if (EEWrite(INVADDR+2, &gameState[INVADDR+2], 2)) return 1;
    1396:	42 e0       	ldi	r20, 0x02	; 2
    1398:	66 e7       	ldi	r22, 0x76	; 118
    139a:	7a e3       	ldi	r23, 0x3A	; 58
    139c:	82 e1       	ldi	r24, 0x12	; 18
    139e:	38 de       	rcall	.-912    	; 0x1010 <EEWrite>
    EERead(0, &gameCheck[0], BOOTCHK);

    //Check game status bits
    for (uint8_t x=0; x<STATLEN; ++x){
        if (gameState[x] != gameCheck[x]){
            if (EEWrite(x, &gameState[x], 1)) return 1;
    13a0:	91 e0       	ldi	r25, 0x01	; 1
    13a2:	81 11       	cpse	r24, r1
    13a4:	01 c0       	rjmp	.+2      	; 0x13a8 <SaveGameState+0xce>
    13a6:	90 e0       	ldi	r25, 0x00	; 0
    if (inventory[1] != (gameCheck[INVADDR+2]<<8|gameCheck[INVADDR+3])) {
        if (EEWrite(INVADDR+2, &gameState[INVADDR+2], 2)) return 1;
    }

    return 0;
}
    13a8:	89 2f       	mov	r24, r25
    13aa:	64 96       	adiw	r28, 0x14	; 20
    13ac:	cd bf       	out	0x3d, r28	; 61
    13ae:	de bf       	out	0x3e, r29	; 62
    13b0:	df 91       	pop	r29
    13b2:	cf 91       	pop	r28
    13b4:	1f 91       	pop	r17
    13b6:	0f 91       	pop	r16
    13b8:	ff 90       	pop	r15
    13ba:	df 90       	pop	r13
    13bc:	cf 90       	pop	r12
    13be:	08 95       	ret

000013c0 <ReadStatusBit>:

uint8_t ReadStatusBit(uint8_t number){
    number &= 0x7f;
    if (gameState[number>>3] & (1<<(number&7))) return 1; else return 0;
    13c0:	e8 2f       	mov	r30, r24
    13c2:	ef 77       	andi	r30, 0x7F	; 127
    13c4:	e6 95       	lsr	r30
    13c6:	e6 95       	lsr	r30
    13c8:	e6 95       	lsr	r30
    13ca:	f0 e0       	ldi	r31, 0x00	; 0
    13cc:	ec 59       	subi	r30, 0x9C	; 156
    13ce:	f5 4c       	sbci	r31, 0xC5	; 197
    13d0:	20 81       	ld	r18, Z
    13d2:	30 e0       	ldi	r19, 0x00	; 0
    13d4:	87 70       	andi	r24, 0x07	; 7
    13d6:	a9 01       	movw	r20, r18
    13d8:	02 c0       	rjmp	.+4      	; 0x13de <ReadStatusBit+0x1e>
    13da:	55 95       	asr	r21
    13dc:	47 95       	ror	r20
    13de:	8a 95       	dec	r24
    13e0:	e2 f7       	brpl	.-8      	; 0x13da <ReadStatusBit+0x1a>
    13e2:	ca 01       	movw	r24, r20
}
    13e4:	81 70       	andi	r24, 0x01	; 1
    13e6:	08 95       	ret

000013e8 <UpdateState>:

//Update game state: num -> vBBBBbbb v=value(0 is set!), BBBB=Byte number, bbb=bit number
void UpdateState(uint8_t num){
    uint8_t clearBit = num & 0x80;
    num &= 0x7f;
    13e8:	e8 2f       	mov	r30, r24
    13ea:	ef 77       	andi	r30, 0x7F	; 127
    if (num) {
    13ec:	e9 f0       	breq	.+58     	; 0x1428 <UpdateState+0x40>
    13ee:	e6 95       	lsr	r30
    13f0:	e6 95       	lsr	r30
    13f2:	e6 95       	lsr	r30
    13f4:	28 2f       	mov	r18, r24
    13f6:	27 70       	andi	r18, 0x07	; 7
        if (clearBit) {
            gameState[num>>3] &= ~(1<<(num&7));
    13f8:	f0 e0       	ldi	r31, 0x00	; 0
    13fa:	ec 59       	subi	r30, 0x9C	; 156
    13fc:	f5 4c       	sbci	r31, 0xC5	; 197
//Update game state: num -> vBBBBbbb v=value(0 is set!), BBBB=Byte number, bbb=bit number
void UpdateState(uint8_t num){
    uint8_t clearBit = num & 0x80;
    num &= 0x7f;
    if (num) {
        if (clearBit) {
    13fe:	87 ff       	sbrs	r24, 7
    1400:	0a c0       	rjmp	.+20     	; 0x1416 <UpdateState+0x2e>
            gameState[num>>3] &= ~(1<<(num&7));
    1402:	81 e0       	ldi	r24, 0x01	; 1
    1404:	90 e0       	ldi	r25, 0x00	; 0
    1406:	01 c0       	rjmp	.+2      	; 0x140a <UpdateState+0x22>
    1408:	88 0f       	add	r24, r24
    140a:	2a 95       	dec	r18
    140c:	ea f7       	brpl	.-6      	; 0x1408 <UpdateState+0x20>
    140e:	80 95       	com	r24
    1410:	90 81       	ld	r25, Z
    1412:	89 23       	and	r24, r25
    1414:	08 c0       	rjmp	.+16     	; 0x1426 <UpdateState+0x3e>
        } else {
            gameState[num>>3] |= 1<<(num&7);
    1416:	81 e0       	ldi	r24, 0x01	; 1
    1418:	90 e0       	ldi	r25, 0x00	; 0
    141a:	01 c0       	rjmp	.+2      	; 0x141e <UpdateState+0x36>
    141c:	88 0f       	add	r24, r24
    141e:	2a 95       	dec	r18
    1420:	ea f7       	brpl	.-6      	; 0x141c <UpdateState+0x34>
    1422:	90 81       	ld	r25, Z
    1424:	89 2b       	or	r24, r25
    1426:	80 83       	st	Z, r24
    1428:	08 95       	ret

0000142a <CheckState>:
        }
    }
}

//Checks if state of bit BBBBbbb matches with v (inverted) bit
uint8_t CheckState(uint8_t num){
    142a:	cf 93       	push	r28
    142c:	c8 2f       	mov	r28, r24
    uint8_t bitSet = 0;
    if (ReadStatusBit(num & 0x7f)){
    142e:	8f 77       	andi	r24, 0x7F	; 127
    1430:	c7 df       	rcall	.-114    	; 0x13c0 <ReadStatusBit>
    1432:	2c 2f       	mov	r18, r28
    1434:	22 1f       	adc	r18, r18
    1436:	22 27       	eor	r18, r18
    1438:	22 1f       	adc	r18, r18
    143a:	91 e0       	ldi	r25, 0x01	; 1
    143c:	81 11       	cpse	r24, r1
    143e:	01 c0       	rjmp	.+2      	; 0x1442 <CheckState+0x18>
    1440:	90 e0       	ldi	r25, 0x00	; 0
    }
    if (((num & 0x80)>0)^(bitSet>0)){
        return 1;
    }
    return 0;
}
    1442:	82 2f       	mov	r24, r18
    1444:	89 27       	eor	r24, r25
    1446:	cf 91       	pop	r28
    1448:	08 95       	ret

0000144a <getID>:

//Give out a number 0..3, calculated using serial number fields
uint8_t getID(){
    uint8_t id = 0;
    uint8_t *serNum;
    serNum = (uint8_t*)&SIGROW_SERNUM0;
    144a:	e3 e0       	ldi	r30, 0x03	; 3
    144c:	f1 e1       	ldi	r31, 0x11	; 17
    return 0;
}

//Give out a number 0..3, calculated using serial number fields
uint8_t getID(){
    uint8_t id = 0;
    144e:	80 e0       	ldi	r24, 0x00	; 0
    uint8_t *serNum;
    serNum = (uint8_t*)&SIGROW_SERNUM0;

    for (uint8_t x=0; x<10; ++x){
        id += *serNum;
    1450:	91 91       	ld	r25, Z+
    1452:	89 0f       	add	r24, r25
uint8_t getID(){
    uint8_t id = 0;
    uint8_t *serNum;
    serNum = (uint8_t*)&SIGROW_SERNUM0;

    for (uint8_t x=0; x<10; ++x){
    1454:	ed 30       	cpi	r30, 0x0D	; 13
    1456:	91 e1       	ldi	r25, 0x11	; 17
    1458:	f9 07       	cpc	r31, r25
    145a:	d1 f7       	brne	.-12     	; 0x1450 <getID+0x6>
        id += *serNum;
        ++serNum;
    }
    id %= 4;
    145c:	83 70       	andi	r24, 0x03	; 3
    whoami = id+1;
    145e:	91 e0       	ldi	r25, 0x01	; 1
    1460:	98 0f       	add	r25, r24
    1462:	90 93 3f 38 	sts	0x383F, r25	; 0x80383f <whoami>
    return id;
}
    1466:	08 95       	ret

00001468 <Reset>:

void Reset(){
    1468:	cf 93       	push	r28
    146a:	e4 e6       	ldi	r30, 0x64	; 100
    146c:	fa e3       	ldi	r31, 0x3A	; 58
    //# 110   set to 1 by FW if badge UUID mod 4 == 0
    //# 111   set to 1 by FW if badge UUID mod 4 == 1
    //# 112   set to 1 by FW if badge UUID mod 4 == 2
    //# 113   set to 1 by FW if badge UUID mod 4 == 3
    for (uint8_t x=0; x<sizeof(gameState); ++x){
        gameState[x] = 0;
    146e:	11 92       	st	Z+, r1
    //Reset game progress (all zeros) and load some bits:
    //# 110   set to 1 by FW if badge UUID mod 4 == 0
    //# 111   set to 1 by FW if badge UUID mod 4 == 1
    //# 112   set to 1 by FW if badge UUID mod 4 == 2
    //# 113   set to 1 by FW if badge UUID mod 4 == 3
    for (uint8_t x=0; x<sizeof(gameState); ++x){
    1470:	8a e3       	ldi	r24, 0x3A	; 58
    1472:	e8 37       	cpi	r30, 0x78	; 120
    1474:	f8 07       	cpc	r31, r24
    1476:	d9 f7       	brne	.-10     	; 0x146e <Reset+0x6>
        gameState[x] = 0;
    }

    uint8_t id = getID();
    1478:	e8 df       	rcall	.-48     	; 0x144a <getID>
    147a:	c8 2f       	mov	r28, r24

    //Write bit in gameState location 110..113
    if (id == 0) UpdateState(110);
    147c:	81 11       	cpse	r24, r1
    147e:	02 c0       	rjmp	.+4      	; 0x1484 <Reset+0x1c>
    1480:	8e e6       	ldi	r24, 0x6E	; 110
    1482:	0b c0       	rjmp	.+22     	; 0x149a <Reset+0x32>
    else if (id == 1) UpdateState(111);
    1484:	81 30       	cpi	r24, 0x01	; 1
    1486:	11 f4       	brne	.+4      	; 0x148c <Reset+0x24>
    1488:	8f e6       	ldi	r24, 0x6F	; 111
    148a:	07 c0       	rjmp	.+14     	; 0x149a <Reset+0x32>
    else if (id == 2) UpdateState(112);
    148c:	82 30       	cpi	r24, 0x02	; 2
    148e:	11 f4       	brne	.+4      	; 0x1494 <Reset+0x2c>
    1490:	80 e7       	ldi	r24, 0x70	; 112
    1492:	03 c0       	rjmp	.+6      	; 0x149a <Reset+0x32>
    else if (id == 3) UpdateState(113);
    1494:	83 30       	cpi	r24, 0x03	; 3
    1496:	11 f4       	brne	.+4      	; 0x149c <Reset+0x34>
    1498:	81 e7       	ldi	r24, 0x71	; 113
    149a:	a6 df       	rcall	.-180    	; 0x13e8 <UpdateState>
    UpdateState(100+id);
    149c:	84 e6       	ldi	r24, 0x64	; 100
    149e:	8c 0f       	add	r24, r28
    14a0:	a3 df       	rcall	.-186    	; 0x13e8 <UpdateState>

    //Write bit 0, must always be 1!
    UpdateState(0);
    14a2:	80 e0       	ldi	r24, 0x00	; 0
}
    14a4:	cf 91       	pop	r28
    else if (id == 2) UpdateState(112);
    else if (id == 3) UpdateState(113);
    UpdateState(100+id);

    //Write bit 0, must always be 1!
    UpdateState(0);
    14a6:	a0 cf       	rjmp	.-192    	; 0x13e8 <UpdateState>

000014a8 <LoadGameState>:
    14a8:	cf 93       	push	r28

    return sample;
}

//Load game status
void LoadGameState(){
    14aa:	df 93       	push	r29
    EERead(0, &gameState[0], BOOTCHK);   //Load game status bits from EEPROM
    14ac:	44 e1       	ldi	r20, 0x14	; 20
    14ae:	64 e6       	ldi	r22, 0x64	; 100
    14b0:	7a e3       	ldi	r23, 0x3A	; 58
    14b2:	80 e0       	ldi	r24, 0x00	; 0
    14b4:	9d dd       	rcall	.-1222   	; 0xff0 <EERead>
    14b6:	ce e6       	ldi	r28, 0x6E	; 110

    uint8_t idSet = 0;
    14b8:	d0 e0       	ldi	r29, 0x00	; 0
    for (uint8_t x=0; x<4; ++x){
        idSet += ReadStatusBit(110+x);
    14ba:	8c 2f       	mov	r24, r28
    14bc:	81 df       	rcall	.-254    	; 0x13c0 <ReadStatusBit>
    14be:	d8 0f       	add	r29, r24
    14c0:	cf 5f       	subi	r28, 0xFF	; 255
//Load game status
void LoadGameState(){
    EERead(0, &gameState[0], BOOTCHK);   //Load game status bits from EEPROM

    uint8_t idSet = 0;
    for (uint8_t x=0; x<4; ++x){
    14c2:	c2 37       	cpi	r28, 0x72	; 114
    14c4:	d1 f7       	brne	.-12     	; 0x14ba <LoadGameState+0x12>
        idSet += ReadStatusBit(110+x);
    }

    //Check if badge is reset(0 = cheated!) or new(3) or error(2)
    if (idSet != 1) {
    14c6:	d1 30       	cpi	r29, 0x01	; 1
        Reset();
    14c8:	11 f0       	breq	.+4      	; 0x14ce <LoadGameState+0x26>
    14ca:	ce df       	rcall	.-100    	; 0x1468 <Reset>
    } else getID();
    14cc:	01 c0       	rjmp	.+2      	; 0x14d0 <LoadGameState+0x28>
    14ce:	bd df       	rcall	.-134    	; 0x144a <getID>

    inventory[0] = (gameState[INVADDR]<<8|gameState[INVADDR+1]);
    14d0:	80 91 74 3a 	lds	r24, 0x3A74	; 0x803a74 <gameState+0x10>
    14d4:	90 91 75 3a 	lds	r25, 0x3A75	; 0x803a75 <gameState+0x11>
    14d8:	98 27       	eor	r25, r24
    14da:	89 27       	eor	r24, r25
    14dc:	98 27       	eor	r25, r24
    14de:	80 93 40 38 	sts	0x3840, r24	; 0x803840 <inventory>
    14e2:	90 93 41 38 	sts	0x3841, r25	; 0x803841 <inventory+0x1>
    inventory[1] = (gameState[INVADDR+2]<<8|gameState[INVADDR+3]);
    14e6:	80 91 76 3a 	lds	r24, 0x3A76	; 0x803a76 <gameState+0x12>
    14ea:	90 91 77 3a 	lds	r25, 0x3A77	; 0x803a77 <gameState+0x13>
    14ee:	98 27       	eor	r25, r24
    14f0:	89 27       	eor	r24, r25
    14f2:	98 27       	eor	r25, r24
    14f4:	80 93 42 38 	sts	0x3842, r24	; 0x803842 <inventory+0x2>
    14f8:	90 93 43 38 	sts	0x3843, r25	; 0x803843 <inventory+0x3>
}
    14fc:	df 91       	pop	r29
    14fe:	cf 91       	pop	r28
    1500:	08 95       	ret

00001502 <HotSummer>:
    //Write bit 0, must always be 1!
    UpdateState(0);
}

//Sets specific game bits after the badge is heated for one and two times.
uint8_t HotSummer(){
    1502:	cf 93       	push	r28
    static uint8_t cooledDown = 0;

    if (CheckState(SUMMERS_COMPLETED)){
    1504:	86 e7       	ldi	r24, 0x76	; 118
    1506:	91 df       	rcall	.-222    	; 0x142a <CheckState>
    1508:	c8 2f       	mov	r28, r24
    150a:	88 23       	and	r24, r24
    150c:	81 f0       	breq	.+32     	; 0x152e <HotSummer+0x2c>
        iLED[SCARAB[R]] = 0;
    150e:	e0 91 1e bf 	lds	r30, 0xBF1E	; 0x80bf1e <__bss_end+0x8409>
    1512:	f0 e0       	ldi	r31, 0x00	; 0
    1514:	ea 53       	subi	r30, 0x3A	; 58
    1516:	f5 4c       	sbci	r31, 0xC5	; 197
    1518:	10 82       	st	Z, r1
        iLED[SCARAB[G]] = dimValue;
    151a:	e0 91 1f bf 	lds	r30, 0xBF1F	; 0x80bf1f <__bss_end+0x840a>
    151e:	f0 e0       	ldi	r31, 0x00	; 0
    1520:	80 91 0c 38 	lds	r24, 0x380C	; 0x80380c <dimValue>
    1524:	ea 53       	subi	r30, 0x3A	; 58
    1526:	f5 4c       	sbci	r31, 0xC5	; 197
    1528:	80 83       	st	Z, r24
        return 1;
    152a:	c1 e0       	ldi	r28, 0x01	; 1
    152c:	4c c0       	rjmp	.+152    	; 0x15c6 <HotSummer+0xc4>
    }

    if (CheckState(FIRST_SUMMER)) {
    152e:	85 e7       	ldi	r24, 0x75	; 117
    1530:	7c df       	rcall	.-264    	; 0x142a <CheckState>
    1532:	88 23       	and	r24, r24
    1534:	59 f1       	breq	.+86     	; 0x158c <HotSummer+0x8a>
        iLED[SCARAB[R]] = dimValue;
    1536:	e0 91 1e bf 	lds	r30, 0xBF1E	; 0x80bf1e <__bss_end+0x8409>
    153a:	f0 e0       	ldi	r31, 0x00	; 0
    153c:	80 91 0c 38 	lds	r24, 0x380C	; 0x80380c <dimValue>
    1540:	ea 53       	subi	r30, 0x3A	; 58
    1542:	f5 4c       	sbci	r31, 0xC5	; 197
    1544:	80 83       	st	Z, r24
        if ((cooledDown) && (adcTemp >= (calTemp + 32))) {
    1546:	80 91 5c 38 	lds	r24, 0x385C	; 0x80385c <cooledDown.3965>
    154a:	88 23       	and	r24, r24
    154c:	79 f0       	breq	.+30     	; 0x156c <HotSummer+0x6a>
    154e:	80 91 c3 3a 	lds	r24, 0x3AC3	; 0x803ac3 <calTemp>
    1552:	90 91 c4 3a 	lds	r25, 0x3AC4	; 0x803ac4 <calTemp+0x1>
    1556:	20 91 f0 3a 	lds	r18, 0x3AF0	; 0x803af0 <adcTemp>
    155a:	30 91 f1 3a 	lds	r19, 0x3AF1	; 0x803af1 <adcTemp+0x1>
    155e:	80 96       	adiw	r24, 0x20	; 32
    1560:	28 17       	cp	r18, r24
    1562:	39 07       	cpc	r19, r25
            UpdateState(SUMMERS_COMPLETED);
    1564:	18 f0       	brcs	.+6      	; 0x156c <HotSummer+0x6a>
    1566:	86 e7       	ldi	r24, 0x76	; 118
    1568:	3f df       	rcall	.-386    	; 0x13e8 <UpdateState>
            return 0;
    156a:	2d c0       	rjmp	.+90     	; 0x15c6 <HotSummer+0xc4>
        }
        if (adcTemp <= (calTemp + 8)) cooledDown = 1;
    156c:	80 91 c3 3a 	lds	r24, 0x3AC3	; 0x803ac3 <calTemp>
    1570:	90 91 c4 3a 	lds	r25, 0x3AC4	; 0x803ac4 <calTemp+0x1>
    1574:	20 91 f0 3a 	lds	r18, 0x3AF0	; 0x803af0 <adcTemp>
    1578:	30 91 f1 3a 	lds	r19, 0x3AF1	; 0x803af1 <adcTemp+0x1>
    157c:	08 96       	adiw	r24, 0x08	; 8
    157e:	82 17       	cp	r24, r18
    1580:	93 07       	cpc	r25, r19
    1582:	08 f1       	brcs	.+66     	; 0x15c6 <HotSummer+0xc4>
    1584:	81 e0       	ldi	r24, 0x01	; 1
    1586:	80 93 5c 38 	sts	0x385C, r24	; 0x80385c <cooledDown.3965>
    158a:	1d c0       	rjmp	.+58     	; 0x15c6 <HotSummer+0xc4>
                   
    } else {
        if (calTemp == 0) calTemp = adcTemp;
    158c:	80 91 c3 3a 	lds	r24, 0x3AC3	; 0x803ac3 <calTemp>
    1590:	90 91 c4 3a 	lds	r25, 0x3AC4	; 0x803ac4 <calTemp+0x1>
    1594:	89 2b       	or	r24, r25
    1596:	41 f4       	brne	.+16     	; 0x15a8 <HotSummer+0xa6>
    1598:	80 91 f0 3a 	lds	r24, 0x3AF0	; 0x803af0 <adcTemp>
    159c:	90 91 f1 3a 	lds	r25, 0x3AF1	; 0x803af1 <adcTemp+0x1>
    15a0:	80 93 c3 3a 	sts	0x3AC3, r24	; 0x803ac3 <calTemp>
    15a4:	90 93 c4 3a 	sts	0x3AC4, r25	; 0x803ac4 <calTemp+0x1>
        if (adcTemp >= (calTemp + 32)) {
    15a8:	80 91 c3 3a 	lds	r24, 0x3AC3	; 0x803ac3 <calTemp>
    15ac:	90 91 c4 3a 	lds	r25, 0x3AC4	; 0x803ac4 <calTemp+0x1>
    15b0:	20 91 f0 3a 	lds	r18, 0x3AF0	; 0x803af0 <adcTemp>
    15b4:	30 91 f1 3a 	lds	r19, 0x3AF1	; 0x803af1 <adcTemp+0x1>
    15b8:	80 96       	adiw	r24, 0x20	; 32
    15ba:	28 17       	cp	r18, r24
    15bc:	39 07       	cpc	r19, r25
            UpdateState(FIRST_SUMMER);
    15be:	18 f0       	brcs	.+6      	; 0x15c6 <HotSummer+0xc4>
    15c0:	85 e7       	ldi	r24, 0x75	; 117
    15c2:	12 df       	rcall	.-476    	; 0x13e8 <UpdateState>
        }
    }
    return 0;
    15c4:	c0 e0       	ldi	r28, 0x00	; 0
}
    15c6:	8c 2f       	mov	r24, r28
    15c8:	cf 91       	pop	r28
    15ca:	08 95       	ret

000015cc <WingBar>:

void WingBar(int8_t l, int8_t r) {
    15cc:	e0 e2       	ldi	r30, 0x20	; 32
    15ce:	ff eb       	ldi	r31, 0xBF	; 191
    for (int8_t i=0; i<5; i++) {
    15d0:	90 e0       	ldi	r25, 0x00	; 0
        if (i<l)
            iLED[WING[L][i]] = dimValue;
    15d2:	a5 81       	ldd	r26, Z+5	; 0x05
    15d4:	b0 e0       	ldi	r27, 0x00	; 0
    return 0;
}

void WingBar(int8_t l, int8_t r) {
    for (int8_t i=0; i<5; i++) {
        if (i<l)
    15d6:	98 17       	cp	r25, r24
    15d8:	34 f4       	brge	.+12     	; 0x15e6 <WingBar+0x1a>
            iLED[WING[L][i]] = dimValue;
    15da:	20 91 0c 38 	lds	r18, 0x380C	; 0x80380c <dimValue>
    15de:	aa 53       	subi	r26, 0x3A	; 58
    15e0:	b5 4c       	sbci	r27, 0xC5	; 197
    15e2:	2c 93       	st	X, r18
    15e4:	03 c0       	rjmp	.+6      	; 0x15ec <WingBar+0x20>
        else
            iLED[WING[L][i]] = 0;
    15e6:	aa 53       	subi	r26, 0x3A	; 58
    15e8:	b5 4c       	sbci	r27, 0xC5	; 197
    15ea:	1c 92       	st	X, r1
        if (i<r)
            iLED[WING[R][i]] = dimValue;
    15ec:	a0 81       	ld	r26, Z
    15ee:	b0 e0       	ldi	r27, 0x00	; 0
    for (int8_t i=0; i<5; i++) {
        if (i<l)
            iLED[WING[L][i]] = dimValue;
        else
            iLED[WING[L][i]] = 0;
        if (i<r)
    15f0:	96 17       	cp	r25, r22
    15f2:	34 f4       	brge	.+12     	; 0x1600 <WingBar+0x34>
            iLED[WING[R][i]] = dimValue;
    15f4:	20 91 0c 38 	lds	r18, 0x380C	; 0x80380c <dimValue>
    15f8:	aa 53       	subi	r26, 0x3A	; 58
    15fa:	b5 4c       	sbci	r27, 0xC5	; 197
    15fc:	2c 93       	st	X, r18
    15fe:	03 c0       	rjmp	.+6      	; 0x1606 <WingBar+0x3a>
        else
            iLED[WING[R][i]] = 0;
    1600:	aa 53       	subi	r26, 0x3A	; 58
    1602:	b5 4c       	sbci	r27, 0xC5	; 197
    1604:	1c 92       	st	X, r1
    1606:	9f 5f       	subi	r25, 0xFF	; 255
    1608:	31 96       	adiw	r30, 0x01	; 1
    }
    return 0;
}

void WingBar(int8_t l, int8_t r) {
    for (int8_t i=0; i<5; i++) {
    160a:	95 30       	cpi	r25, 0x05	; 5
    160c:	11 f7       	brne	.-60     	; 0x15d2 <WingBar+0x6>
        if (i<r)
            iLED[WING[R][i]] = dimValue;
        else
            iLED[WING[R][i]] = 0;
    }
}
    160e:	08 95       	ret

00001610 <SetBothEyes>:

void SetBothEyes(uint8_t r, uint8_t g) {
    for (uint8_t i=0; i<2; i++) {
        iLED[EYE[R][i]] = r;
    1610:	aa e2       	ldi	r26, 0x2A	; 42
    1612:	bf eb       	ldi	r27, 0xBF	; 191
    1614:	ec 91       	ld	r30, X
    1616:	f0 e0       	ldi	r31, 0x00	; 0
    1618:	ea 53       	subi	r30, 0x3A	; 58
    161a:	f5 4c       	sbci	r31, 0xC5	; 197
    161c:	80 83       	st	Z, r24
        iLED[EYE[G][i]] = g;
    161e:	12 96       	adiw	r26, 0x02	; 2
    1620:	ec 91       	ld	r30, X
    1622:	12 97       	sbiw	r26, 0x02	; 2
    1624:	f0 e0       	ldi	r31, 0x00	; 0
    1626:	ea 53       	subi	r30, 0x3A	; 58
    1628:	f5 4c       	sbci	r31, 0xC5	; 197
    162a:	60 83       	st	Z, r22
    }
}

void SetBothEyes(uint8_t r, uint8_t g) {
    for (uint8_t i=0; i<2; i++) {
        iLED[EYE[R][i]] = r;
    162c:	11 96       	adiw	r26, 0x01	; 1
    162e:	ec 91       	ld	r30, X
    1630:	11 97       	sbiw	r26, 0x01	; 1
    1632:	f0 e0       	ldi	r31, 0x00	; 0
    1634:	ea 53       	subi	r30, 0x3A	; 58
    1636:	f5 4c       	sbci	r31, 0xC5	; 197
    1638:	80 83       	st	Z, r24
        iLED[EYE[G][i]] = g;
    163a:	13 96       	adiw	r26, 0x03	; 3
    163c:	ec 91       	ld	r30, X
    163e:	f0 e0       	ldi	r31, 0x00	; 0
    1640:	ea 53       	subi	r30, 0x3A	; 58
    1642:	f5 4c       	sbci	r31, 0xC5	; 197
    1644:	60 83       	st	Z, r22
    1646:	08 95       	ret

00001648 <ClearHackerLeds>:
    }
}

void ClearHackerLeds() {
    1648:	cf 93       	push	r28
    164a:	df 93       	push	r29
    164c:	ee e2       	ldi	r30, 0x2E	; 46
    164e:	ff eb       	ldi	r31, 0xBF	; 191
    1650:	ef 01       	movw	r28, r30
    for (uint8_t i=0;i<6;i++) {
        iLED[HCKR[G][i]] = 0;
    1652:	a6 81       	ldd	r26, Z+6	; 0x06
    1654:	b0 e0       	ldi	r27, 0x00	; 0
    1656:	aa 53       	subi	r26, 0x3A	; 58
    1658:	b5 4c       	sbci	r27, 0xC5	; 197
    165a:	1c 92       	st	X, r1
    165c:	31 96       	adiw	r30, 0x01	; 1
        iLED[HCKR[R][i]] = 0;
    165e:	a8 81       	ld	r26, Y
    1660:	b0 e0       	ldi	r27, 0x00	; 0
    1662:	aa 53       	subi	r26, 0x3A	; 58
    1664:	b5 4c       	sbci	r27, 0xC5	; 197
    1666:	1c 92       	st	X, r1
        iLED[EYE[G][i]] = g;
    }
}

void ClearHackerLeds() {
    for (uint8_t i=0;i<6;i++) {
    1668:	8f eb       	ldi	r24, 0xBF	; 191
    166a:	e4 33       	cpi	r30, 0x34	; 52
    166c:	f8 07       	cpc	r31, r24
    166e:	81 f7       	brne	.-32     	; 0x1650 <ClearHackerLeds+0x8>
        iLED[HCKR[G][i]] = 0;
        iLED[HCKR[R][i]] = 0;
    }
}
    1670:	df 91       	pop	r29
    1672:	cf 91       	pop	r28
    1674:	08 95       	ret

00001676 <GenerateBlinks>:


void GenerateBlinks(){
    1676:	ef 92       	push	r14
    1678:	ff 92       	push	r15
    167a:	0f 93       	push	r16
    167c:	1f 93       	push	r17
    167e:	cf 93       	push	r28
    1680:	df 93       	push	r29
    used by the games, the other LEDs can be used by setting 
    effect (or be set directly)
    */

    //Activate HCKR & BADGER leds based on the state-bits
    if (gameNow == TEXT) {
    1682:	80 91 3e 38 	lds	r24, 0x383E	; 0x80383e <gameNow>
    1686:	88 23       	and	r24, r24
    1688:	29 f0       	breq	.+10     	; 0x1694 <GenerateBlinks+0x1e>
                iLED[HCKR[R][i]] = dimValue;
            }
        }
    }

    if (CheckState(GEM_STATE)) {
    168a:	80 e4       	ldi	r24, 0x40	; 64
    168c:	ce de       	rcall	.-612    	; 0x142a <CheckState>
    168e:	81 11       	cpse	r24, r1
    1690:	24 c0       	rjmp	.+72     	; 0x16da <GenerateBlinks+0x64>
    1692:	50 c0       	rjmp	.+160    	; 0x1734 <GenerateBlinks+0xbe>
    1694:	ce e2       	ldi	r28, 0x2E	; 46
    1696:	df eb       	ldi	r29, 0xBF	; 191
    used by the games, the other LEDs can be used by setting 
    effect (or be set directly)
    */

    //Activate HCKR & BADGER leds based on the state-bits
    if (gameNow == TEXT) {
    1698:	1a e7       	ldi	r17, 0x7A	; 122
        for (uint8_t i=0;i<6;i++) {
            if(CheckState(HACKER_STATES + i)) {
    169a:	81 2f       	mov	r24, r17
    169c:	c6 de       	rcall	.-628    	; 0x142a <CheckState>
                iLED[HCKR[G][i]] = dimValue;
    169e:	ee 81       	ldd	r30, Y+6	; 0x06
    16a0:	f0 e0       	ldi	r31, 0x00	; 0
    */

    //Activate HCKR & BADGER leds based on the state-bits
    if (gameNow == TEXT) {
        for (uint8_t i=0;i<6;i++) {
            if(CheckState(HACKER_STATES + i)) {
    16a2:	88 23       	and	r24, r24
    16a4:	59 f0       	breq	.+22     	; 0x16bc <GenerateBlinks+0x46>
                iLED[HCKR[G][i]] = dimValue;
    16a6:	80 91 0c 38 	lds	r24, 0x380C	; 0x80380c <dimValue>
    16aa:	ea 53       	subi	r30, 0x3A	; 58
    16ac:	f5 4c       	sbci	r31, 0xC5	; 197
    16ae:	80 83       	st	Z, r24
                iLED[HCKR[R][i]] = 0;
    16b0:	e8 81       	ld	r30, Y
    16b2:	f0 e0       	ldi	r31, 0x00	; 0
    16b4:	ea 53       	subi	r30, 0x3A	; 58
    16b6:	f5 4c       	sbci	r31, 0xC5	; 197
    16b8:	10 82       	st	Z, r1
    16ba:	0a c0       	rjmp	.+20     	; 0x16d0 <GenerateBlinks+0x5a>
            } else {
                iLED[HCKR[G][i]] = 0;
    16bc:	ea 53       	subi	r30, 0x3A	; 58
    16be:	f5 4c       	sbci	r31, 0xC5	; 197
    16c0:	10 82       	st	Z, r1
                iLED[HCKR[R][i]] = dimValue;
    16c2:	e8 81       	ld	r30, Y
    16c4:	f0 e0       	ldi	r31, 0x00	; 0
    16c6:	80 91 0c 38 	lds	r24, 0x380C	; 0x80380c <dimValue>
    16ca:	ea 53       	subi	r30, 0x3A	; 58
    16cc:	f5 4c       	sbci	r31, 0xC5	; 197
    16ce:	80 83       	st	Z, r24
    16d0:	1f 5f       	subi	r17, 0xFF	; 255
    16d2:	21 96       	adiw	r28, 0x01	; 1
    effect (or be set directly)
    */

    //Activate HCKR & BADGER leds based on the state-bits
    if (gameNow == TEXT) {
        for (uint8_t i=0;i<6;i++) {
    16d4:	10 38       	cpi	r17, 0x80	; 128
    16d6:	09 f7       	brne	.-62     	; 0x169a <GenerateBlinks+0x24>
    16d8:	d8 cf       	rjmp	.-80     	; 0x168a <GenerateBlinks+0x14>
            }
        }
    }

    if (CheckState(GEM_STATE)) {
        if ( HeartCount == 1 || HeartCount == 3 || HeartCount == 5 )
    16da:	80 91 5e 38 	lds	r24, 0x385E	; 0x80385e <HeartCount>
    16de:	98 2f       	mov	r25, r24
    16e0:	9d 7f       	andi	r25, 0xFD	; 253
    16e2:	e0 91 1d bf 	lds	r30, 0xBF1D	; 0x80bf1d <__bss_end+0x8408>
            iLED[BADGER] = dimValue>>1 ;
    16e6:	f0 e0       	ldi	r31, 0x00	; 0
            }
        }
    }

    if (CheckState(GEM_STATE)) {
        if ( HeartCount == 1 || HeartCount == 3 || HeartCount == 5 )
    16e8:	91 30       	cpi	r25, 0x01	; 1
    16ea:	11 f0       	breq	.+4      	; 0x16f0 <GenerateBlinks+0x7a>
    16ec:	85 30       	cpi	r24, 0x05	; 5
    16ee:	21 f4       	brne	.+8      	; 0x16f8 <GenerateBlinks+0x82>
            iLED[BADGER] = dimValue>>1 ;
    16f0:	90 91 0c 38 	lds	r25, 0x380C	; 0x80380c <dimValue>
    16f4:	96 95       	lsr	r25
    16f6:	06 c0       	rjmp	.+12     	; 0x1704 <GenerateBlinks+0x8e>
        else if ( HeartCount == 2 || HeartCount == 4 )
    16f8:	82 30       	cpi	r24, 0x02	; 2
    16fa:	11 f0       	breq	.+4      	; 0x1700 <GenerateBlinks+0x8a>
    16fc:	84 30       	cpi	r24, 0x04	; 4
    16fe:	31 f4       	brne	.+12     	; 0x170c <GenerateBlinks+0x96>
            iLED[BADGER] = dimValue;
    1700:	90 91 0c 38 	lds	r25, 0x380C	; 0x80380c <dimValue>
    1704:	ea 53       	subi	r30, 0x3A	; 58
    1706:	f5 4c       	sbci	r31, 0xC5	; 197
    1708:	90 83       	st	Z, r25
    170a:	0c c0       	rjmp	.+24     	; 0x1724 <GenerateBlinks+0xae>
        else if ( HeartCount == 0 || HeartCount == 6 )
    170c:	88 23       	and	r24, r24
    170e:	11 f0       	breq	.+4      	; 0x1714 <GenerateBlinks+0x9e>
    1710:	86 30       	cpi	r24, 0x06	; 6
    1712:	29 f4       	brne	.+10     	; 0x171e <GenerateBlinks+0xa8>
            iLED[BADGER] = dimValue>>2;
    1714:	90 91 0c 38 	lds	r25, 0x380C	; 0x80380c <dimValue>
    1718:	96 95       	lsr	r25
    171a:	96 95       	lsr	r25
    171c:	f3 cf       	rjmp	.-26     	; 0x1704 <GenerateBlinks+0x8e>
        else
            iLED[BADGER] = 0;
    171e:	ea 53       	subi	r30, 0x3A	; 58
    1720:	f5 4c       	sbci	r31, 0xC5	; 197
    1722:	10 82       	st	Z, r1
        if (HeartCount<32)
    1724:	80 32       	cpi	r24, 0x20	; 32
    1726:	20 f4       	brcc	.+8      	; 0x1730 <GenerateBlinks+0xba>
            HeartCount++;
    1728:	8f 5f       	subi	r24, 0xFF	; 255
    172a:	80 93 5e 38 	sts	0x385E, r24	; 0x80385e <HeartCount>
    172e:	02 c0       	rjmp	.+4      	; 0x1734 <GenerateBlinks+0xbe>
        else
            HeartCount = 0;
    1730:	10 92 5e 38 	sts	0x385E, r1	; 0x80385e <HeartCount>
    }

    //LEDs effects for all games
    // Keep a counter for dynamic effects
    LedCount++;
    1734:	90 91 5d 38 	lds	r25, 0x385D	; 0x80385d <LedCount>
    1738:	9f 5f       	subi	r25, 0xFF	; 255
    173a:	90 93 5d 38 	sts	0x385D, r25	; 0x80385d <LedCount>

    switch (effect&0x1f) {
    173e:	e0 91 3c 38 	lds	r30, 0x383C	; 0x80383c <effect>
    1742:	f0 91 3d 38 	lds	r31, 0x383D	; 0x80383d <effect+0x1>
    1746:	ef 71       	andi	r30, 0x1F	; 31
    1748:	ff 27       	eor	r31, r31
    174a:	e9 30       	cpi	r30, 0x09	; 9
    174c:	f1 05       	cpc	r31, r1
    174e:	08 f0       	brcs	.+2      	; 0x1752 <GenerateBlinks+0xdc>
    1750:	e8 c0       	rjmp	.+464    	; 0x1922 <GenerateBlinks+0x2ac>
    1752:	e2 5c       	subi	r30, 0xC2	; 194
    1754:	ff 4f       	sbci	r31, 0xFF	; 255
    1756:	0c 94 72 1f 	jmp	0x3ee4	; 0x3ee4 <__tablejump2__>
        // All LEDs off
        case 0:
            WingBar(0,0);
    175a:	60 e0       	ldi	r22, 0x00	; 0
    175c:	80 e0       	ldi	r24, 0x00	; 0
    175e:	36 df       	rcall	.-404    	; 0x15cc <WingBar>
            for (uint8_t i=0; i<2; i++) {
                iLED[EYE[R][i]] = 0;
    1760:	e0 91 2a bf 	lds	r30, 0xBF2A	; 0x80bf2a <__bss_end+0x8415>
    1764:	f0 e0       	ldi	r31, 0x00	; 0
    1766:	ea 53       	subi	r30, 0x3A	; 58
    1768:	f5 4c       	sbci	r31, 0xC5	; 197
    176a:	10 82       	st	Z, r1
                iLED[EYE[G][i]] = 0; 
    176c:	e0 91 2c bf 	lds	r30, 0xBF2C	; 0x80bf2c <__bss_end+0x8417>
    1770:	f0 e0       	ldi	r31, 0x00	; 0
    1772:	ea 53       	subi	r30, 0x3A	; 58
    1774:	f5 4c       	sbci	r31, 0xC5	; 197
    1776:	10 82       	st	Z, r1
                iLED[SCARAB[i]] = 0;
    1778:	e0 91 1e bf 	lds	r30, 0xBF1E	; 0x80bf1e <__bss_end+0x8409>
    177c:	f0 e0       	ldi	r31, 0x00	; 0
    177e:	ea 53       	subi	r30, 0x3A	; 58
    1780:	f5 4c       	sbci	r31, 0xC5	; 197
    1782:	10 82       	st	Z, r1
    switch (effect&0x1f) {
        // All LEDs off
        case 0:
            WingBar(0,0);
            for (uint8_t i=0; i<2; i++) {
                iLED[EYE[R][i]] = 0;
    1784:	e0 91 2b bf 	lds	r30, 0xBF2B	; 0x80bf2b <__bss_end+0x8416>
    1788:	f0 e0       	ldi	r31, 0x00	; 0
    178a:	ea 53       	subi	r30, 0x3A	; 58
    178c:	f5 4c       	sbci	r31, 0xC5	; 197
    178e:	10 82       	st	Z, r1
                iLED[EYE[G][i]] = 0; 
    1790:	e0 91 2d bf 	lds	r30, 0xBF2D	; 0x80bf2d <__bss_end+0x8418>
    1794:	f0 e0       	ldi	r31, 0x00	; 0
    1796:	ea 53       	subi	r30, 0x3A	; 58
    1798:	f5 4c       	sbci	r31, 0xC5	; 197
    179a:	10 82       	st	Z, r1
                iLED[SCARAB[i]] = 0;
    179c:	e0 91 1f bf 	lds	r30, 0xBF1F	; 0x80bf1f <__bss_end+0x840a>
    17a0:	f0 e0       	ldi	r31, 0x00	; 0
    17a2:	ea 53       	subi	r30, 0x3A	; 58
    17a4:	f5 4c       	sbci	r31, 0xC5	; 197
    17a6:	10 82       	st	Z, r1
            }
            iLED[CAT] = 0;
    17a8:	e0 91 1c bf 	lds	r30, 0xBF1C	; 0x80bf1c <__bss_end+0x8407>
    17ac:	f0 e0       	ldi	r31, 0x00	; 0
    17ae:	ea 53       	subi	r30, 0x3A	; 58
    17b0:	f5 4c       	sbci	r31, 0xC5	; 197
    17b2:	10 82       	st	Z, r1
            break;
    17b4:	b6 c0       	rjmp	.+364    	; 0x1922 <GenerateBlinks+0x2ac>

        //'flashing red eyes',       # 1 can be used when a bad answer is given
        case 1:
            SetBothEyes((LedCount & 1 ? dimValue : 0),0);
    17b6:	89 2f       	mov	r24, r25
    17b8:	81 70       	andi	r24, 0x01	; 1
    17ba:	90 fd       	sbrc	r25, 0
    17bc:	80 91 0c 38 	lds	r24, 0x380C	; 0x80380c <dimValue>
    17c0:	60 e0       	ldi	r22, 0x00	; 0
    17c2:	0d c0       	rjmp	.+26     	; 0x17de <GenerateBlinks+0x168>
    17c4:	69 2f       	mov	r22, r25
    17c6:	70 e0       	ldi	r23, 0x00	; 0
            break;

        //'flashing green eyes',     # 2 can be used when a good answer is given
        case 2:
            SetBothEyes(0, 0x1f + (((LedCount & 0x08) ? ((LedCount&0x07)^0x07) : (LedCount&0x07))<<5));
    17c8:	93 ff       	sbrs	r25, 3
    17ca:	02 c0       	rjmp	.+4      	; 0x17d0 <GenerateBlinks+0x15a>
    17cc:	60 95       	com	r22
    17ce:	70 95       	com	r23
    17d0:	85 e0       	ldi	r24, 0x05	; 5
    17d2:	66 0f       	add	r22, r22
    17d4:	77 1f       	adc	r23, r23
    17d6:	8a 95       	dec	r24
    17d8:	e1 f7       	brne	.-8      	; 0x17d2 <GenerateBlinks+0x15c>
    17da:	61 5e       	subi	r22, 0xE1	; 225
    17dc:	80 e0       	ldi	r24, 0x00	; 0
        // No LED action, game will do it's own LED magic
        case 31:
        default:
            break;
    }
}
    17de:	df 91       	pop	r29
    17e0:	cf 91       	pop	r28
    17e2:	1f 91       	pop	r17
    17e4:	0f 91       	pop	r16
    17e6:	ff 90       	pop	r15
            SetBothEyes((LedCount & 1 ? dimValue : 0),0);
            break;

        //'flashing green eyes',     # 2 can be used when a good answer is given
        case 2:
            SetBothEyes(0, 0x1f + (((LedCount & 0x08) ? ((LedCount&0x07)^0x07) : (LedCount&0x07))<<5));
    17e8:	ef 90       	pop	r14
    17ea:	12 cf       	rjmp	.-476    	; 0x1610 <SetBothEyes>
            break;

        //'flash both wings'
        case 5:
            if ((LedCount & 3) == 0) {
    17ec:	89 2f       	mov	r24, r25
    17ee:	83 70       	andi	r24, 0x03	; 3
    17f0:	09 f0       	breq	.+2      	; 0x17f4 <GenerateBlinks+0x17e>
    17f2:	97 c0       	rjmp	.+302    	; 0x1922 <GenerateBlinks+0x2ac>
                if (LedCount & 4)
    17f4:	92 ff       	sbrs	r25, 2
    17f6:	03 c0       	rjmp	.+6      	; 0x17fe <GenerateBlinks+0x188>
                    WingBar(5,5);
    17f8:	65 e0       	ldi	r22, 0x05	; 5
    17fa:	85 e0       	ldi	r24, 0x05	; 5
    17fc:	02 c0       	rjmp	.+4      	; 0x1802 <GenerateBlinks+0x18c>
                else
                    WingBar(0,0);
    17fe:	60 e0       	ldi	r22, 0x00	; 0
    1800:	80 e0       	ldi	r24, 0x00	; 0
        // No LED action, game will do it's own LED magic
        case 31:
        default:
            break;
    }
}
    1802:	df 91       	pop	r29
    1804:	cf 91       	pop	r28
    1806:	1f 91       	pop	r17
    1808:	0f 91       	pop	r16
    180a:	ff 90       	pop	r15
        case 5:
            if ((LedCount & 3) == 0) {
                if (LedCount & 4)
                    WingBar(5,5);
                else
                    WingBar(0,0);
    180c:	ef 90       	pop	r14
    180e:	de ce       	rjmp	.-580    	; 0x15cc <WingBar>
            }
            break;

        //'circle the wing leds'
        case 6:
            if (LedCount > 4) LedCount = 0;
    1810:	95 30       	cpi	r25, 0x05	; 5
    1812:	10 f0       	brcs	.+4      	; 0x1818 <GenerateBlinks+0x1a2>
    1814:	10 92 5d 38 	sts	0x385D, r1	; 0x80385d <LedCount>
            iLED[WING[L][LedCount]] = 0;
    1818:	e0 91 5d 38 	lds	r30, 0x385D	; 0x80385d <LedCount>
    181c:	f0 e0       	ldi	r31, 0x00	; 0
    181e:	e0 5e       	subi	r30, 0xE0	; 224
    1820:	f0 44       	sbci	r31, 0x40	; 64
    1822:	a5 81       	ldd	r26, Z+5	; 0x05
    1824:	b0 e0       	ldi	r27, 0x00	; 0
    1826:	aa 53       	subi	r26, 0x3A	; 58
    1828:	b5 4c       	sbci	r27, 0xC5	; 197
    182a:	1c 92       	st	X, r1
            iLED[WING[L][(LedCount+1)]] = dimValue;
    182c:	e6 81       	ldd	r30, Z+6	; 0x06
    182e:	f0 e0       	ldi	r31, 0x00	; 0
    1830:	80 91 0c 38 	lds	r24, 0x380C	; 0x80380c <dimValue>
    1834:	ea 53       	subi	r30, 0x3A	; 58
    1836:	f5 4c       	sbci	r31, 0xC5	; 197
    1838:	80 83       	st	Z, r24
    183a:	80 e2       	ldi	r24, 0x20	; 32
    183c:	9f eb       	ldi	r25, 0xBF	; 191
    183e:	ca e2       	ldi	r28, 0x2A	; 42
    1840:	df eb       	ldi	r29, 0xBF	; 191
    1842:	25 e2       	ldi	r18, 0x25	; 37
    1844:	3f eb       	ldi	r19, 0xBF	; 191

            for (uint8_t x=0; x<5; ++x){
                iLED[WING[R][x]] = iLED[WING[L][4-x]];
    1846:	dc 01       	movw	r26, r24
    1848:	ed 91       	ld	r30, X+
    184a:	cd 01       	movw	r24, r26
    184c:	f0 e0       	ldi	r31, 0x00	; 0
    184e:	aa 91       	ld	r26, -Y
    1850:	b0 e0       	ldi	r27, 0x00	; 0
    1852:	aa 53       	subi	r26, 0x3A	; 58
    1854:	b5 4c       	sbci	r27, 0xC5	; 197
    1856:	4c 91       	ld	r20, X
    1858:	ea 53       	subi	r30, 0x3A	; 58
    185a:	f5 4c       	sbci	r31, 0xC5	; 197
    185c:	40 83       	st	Z, r20
        case 6:
            if (LedCount > 4) LedCount = 0;
            iLED[WING[L][LedCount]] = 0;
            iLED[WING[L][(LedCount+1)]] = dimValue;

            for (uint8_t x=0; x<5; ++x){
    185e:	2c 17       	cp	r18, r28
    1860:	3d 07       	cpc	r19, r29
    1862:	89 f7       	brne	.-30     	; 0x1846 <GenerateBlinks+0x1d0>
    1864:	5e c0       	rjmp	.+188    	; 0x1922 <GenerateBlinks+0x2ac>
    1866:	c0 e2       	ldi	r28, 0x20	; 32
    1868:	df eb       	ldi	r29, 0xBF	; 191
            break;

        //'random wing leds'
        case 7:
            for (uint8_t x=0; x<5; ++x){
                iLED[WING[L][x]] = (lfsr() > 127)?dimValue:0;
    186a:	7e 01       	movw	r14, r28
    186c:	0d 81       	ldd	r16, Y+5	; 0x05
    186e:	10 e0       	ldi	r17, 0x00	; 0
    1870:	b1 dc       	rcall	.-1694   	; 0x11d4 <lfsr>
    1872:	87 ff       	sbrs	r24, 7
    1874:	03 c0       	rjmp	.+6      	; 0x187c <GenerateBlinks+0x206>
    1876:	80 91 0c 38 	lds	r24, 0x380C	; 0x80380c <dimValue>
    187a:	01 c0       	rjmp	.+2      	; 0x187e <GenerateBlinks+0x208>
    187c:	80 e0       	ldi	r24, 0x00	; 0
    187e:	f8 01       	movw	r30, r16
    1880:	ea 53       	subi	r30, 0x3A	; 58
    1882:	f5 4c       	sbci	r31, 0xC5	; 197
    1884:	80 83       	st	Z, r24
                iLED[WING[R][x]] = (lfsr() > 127)?dimValue:0;
    1886:	21 96       	adiw	r28, 0x01	; 1
    1888:	f7 01       	movw	r30, r14
    188a:	00 81       	ld	r16, Z
    188c:	10 e0       	ldi	r17, 0x00	; 0
    188e:	a2 dc       	rcall	.-1724   	; 0x11d4 <lfsr>
    1890:	87 ff       	sbrs	r24, 7
    1892:	03 c0       	rjmp	.+6      	; 0x189a <GenerateBlinks+0x224>
    1894:	80 91 0c 38 	lds	r24, 0x380C	; 0x80380c <dimValue>
    1898:	01 c0       	rjmp	.+2      	; 0x189c <GenerateBlinks+0x226>
    189a:	80 e0       	ldi	r24, 0x00	; 0
    189c:	f8 01       	movw	r30, r16
    189e:	ea 53       	subi	r30, 0x3A	; 58
    18a0:	f5 4c       	sbci	r31, 0xC5	; 197
    18a2:	80 83       	st	Z, r24
            }
            break;

        //'random wing leds'
        case 7:
            for (uint8_t x=0; x<5; ++x){
    18a4:	ff eb       	ldi	r31, 0xBF	; 191
    18a6:	c5 32       	cpi	r28, 0x25	; 37
    18a8:	df 07       	cpc	r29, r31
    18aa:	f9 f6       	brne	.-66     	; 0x186a <GenerateBlinks+0x1f4>
    18ac:	3a c0       	rjmp	.+116    	; 0x1922 <GenerateBlinks+0x2ac>
            }
            break;

        //'falling rain'
        case 8:
            if ((LedCount & 1) == 0) {
    18ae:	90 fd       	sbrc	r25, 0
    18b0:	38 c0       	rjmp	.+112    	; 0x1922 <GenerateBlinks+0x2ac>
    18b2:	e0 e2       	ldi	r30, 0x20	; 32
    18b4:	ff eb       	ldi	r31, 0xBF	; 191
    18b6:	84 e2       	ldi	r24, 0x24	; 36
    18b8:	9f eb       	ldi	r25, 0xBF	; 191
    18ba:	9f 01       	movw	r18, r30
                for (uint8_t x=0; x<4; ++x){
                    iLED[WING[L][x]] = iLED[WING[L][x+1]];
    18bc:	a5 81       	ldd	r26, Z+5	; 0x05
    18be:	b0 e0       	ldi	r27, 0x00	; 0
    18c0:	c6 81       	ldd	r28, Z+6	; 0x06
    18c2:	d0 e0       	ldi	r29, 0x00	; 0
    18c4:	ca 53       	subi	r28, 0x3A	; 58
    18c6:	d5 4c       	sbci	r29, 0xC5	; 197
    18c8:	48 81       	ld	r20, Y
    18ca:	aa 53       	subi	r26, 0x3A	; 58
    18cc:	b5 4c       	sbci	r27, 0xC5	; 197
    18ce:	4c 93       	st	X, r20
    18d0:	31 96       	adiw	r30, 0x01	; 1
                    iLED[WING[R][x]] = iLED[WING[R][x+1]];
    18d2:	e9 01       	movw	r28, r18
    18d4:	a8 81       	ld	r26, Y
    18d6:	b0 e0       	ldi	r27, 0x00	; 0
    18d8:	c0 81       	ld	r28, Z
    18da:	d0 e0       	ldi	r29, 0x00	; 0
    18dc:	ca 53       	subi	r28, 0x3A	; 58
    18de:	d5 4c       	sbci	r29, 0xC5	; 197
    18e0:	28 81       	ld	r18, Y
    18e2:	aa 53       	subi	r26, 0x3A	; 58
    18e4:	b5 4c       	sbci	r27, 0xC5	; 197
            break;

        //'falling rain'
        case 8:
            if ((LedCount & 1) == 0) {
                for (uint8_t x=0; x<4; ++x){
    18e6:	2c 93       	st	X, r18
    18e8:	8e 17       	cp	r24, r30
    18ea:	9f 07       	cpc	r25, r31
                    iLED[WING[L][x]] = iLED[WING[L][x+1]];
                    iLED[WING[R][x]] = iLED[WING[R][x+1]];
                }
                iLED[WING[L][4]] = (lfsr() > 224)?dimValue:0;
    18ec:	31 f7       	brne	.-52     	; 0x18ba <GenerateBlinks+0x244>
    18ee:	c0 91 29 bf 	lds	r28, 0xBF29	; 0x80bf29 <__bss_end+0x8414>
    18f2:	d0 e0       	ldi	r29, 0x00	; 0
    18f4:	6f dc       	rcall	.-1826   	; 0x11d4 <lfsr>
    18f6:	81 3e       	cpi	r24, 0xE1	; 225
    18f8:	18 f0       	brcs	.+6      	; 0x1900 <GenerateBlinks+0x28a>
    18fa:	80 91 0c 38 	lds	r24, 0x380C	; 0x80380c <dimValue>
    18fe:	01 c0       	rjmp	.+2      	; 0x1902 <GenerateBlinks+0x28c>
    1900:	80 e0       	ldi	r24, 0x00	; 0
    1902:	ca 53       	subi	r28, 0x3A	; 58
    1904:	d5 4c       	sbci	r29, 0xC5	; 197
                iLED[WING[R][4]] = (lfsr() > 224)?dimValue:0;
    1906:	88 83       	st	Y, r24
    1908:	c0 91 24 bf 	lds	r28, 0xBF24	; 0x80bf24 <__bss_end+0x840f>
    190c:	d0 e0       	ldi	r29, 0x00	; 0
    190e:	62 dc       	rcall	.-1852   	; 0x11d4 <lfsr>
    1910:	81 3e       	cpi	r24, 0xE1	; 225
    1912:	18 f0       	brcs	.+6      	; 0x191a <GenerateBlinks+0x2a4>
    1914:	80 91 0c 38 	lds	r24, 0x380C	; 0x80380c <dimValue>
    1918:	01 c0       	rjmp	.+2      	; 0x191c <GenerateBlinks+0x2a6>
    191a:	80 e0       	ldi	r24, 0x00	; 0
    191c:	ca 53       	subi	r28, 0x3A	; 58
    191e:	d5 4c       	sbci	r29, 0xC5	; 197
    1920:	88 83       	st	Y, r24
        // No LED action, game will do it's own LED magic
        case 31:
        default:
            break;
    }
}
    1922:	df 91       	pop	r29
    1924:	cf 91       	pop	r28
    1926:	1f 91       	pop	r17
    1928:	0f 91       	pop	r16
    192a:	ff 90       	pop	r15
    192c:	ef 90       	pop	r14
    192e:	08 95       	ret

00001930 <GenerateAudio>:


uint8_t GenerateAudio(){
    1930:	0f 93       	push	r16
    1932:	1f 93       	push	r17
    1934:	cf 93       	push	r28

    if (auIn < HPLVL) {
    1936:	80 91 c5 3a 	lds	r24, 0x3AC5	; 0x803ac5 <auIn>
    193a:	89 31       	cpi	r24, 0x19	; 25
    193c:	08 f0       	brcs	.+2      	; 0x1940 <GenerateAudio+0x10>
    193e:	67 c1       	rjmp	.+718    	; 0x1c0e <GenerateAudio+0x2de>

        detHdPh = 1;
    1940:	c1 e0       	ldi	r28, 0x01	; 1
    1942:	c0 93 c2 3a 	sts	0x3AC2, r28	; 0x803ac2 <detHdPh>

        //Audio for text adventure
        if ((effect&0xff00)==0) {
    1946:	80 91 3c 38 	lds	r24, 0x383C	; 0x80383c <effect>
    194a:	90 91 3d 38 	lds	r25, 0x383D	; 0x80383d <effect+0x1>
    194e:	88 27       	eor	r24, r24
    1950:	89 2b       	or	r24, r25
    1952:	09 f0       	breq	.+2      	; 0x1956 <GenerateAudio+0x26>
    1954:	06 c1       	rjmp	.+524    	; 0x1b62 <GenerateAudio+0x232>

            //Silence
            if ((effect&0xE0)==0){
    1956:	80 91 3c 38 	lds	r24, 0x383C	; 0x80383c <effect>
    195a:	90 91 3d 38 	lds	r25, 0x383D	; 0x80383d <effect+0x1>
    195e:	80 7e       	andi	r24, 0xE0	; 224
    1960:	99 27       	eor	r25, r25
    1962:	89 2b       	or	r24, r25
    1964:	31 f4       	brne	.+12     	; 0x1972 <GenerateAudio+0x42>
                auRepAddr = &zero;
    1966:	8b e3       	ldi	r24, 0x3B	; 59
    1968:	98 e3       	ldi	r25, 0x38	; 56
    196a:	80 93 03 38 	sts	0x3803, r24	; 0x803803 <auRepAddr>
    196e:	90 93 04 38 	sts	0x3804, r25	; 0x803804 <auRepAddr+0x1>
            }

            //Bad (buzzer)
            if ((effect&0xE0)==32){
    1972:	80 91 3c 38 	lds	r24, 0x383C	; 0x80383c <effect>
    1976:	90 91 3d 38 	lds	r25, 0x383D	; 0x80383d <effect+0x1>
    197a:	80 7e       	andi	r24, 0xE0	; 224
    197c:	99 27       	eor	r25, r25
    197e:	80 97       	sbiw	r24, 0x20	; 32
    1980:	09 f0       	breq	.+2      	; 0x1984 <GenerateAudio+0x54>
    1982:	59 c0       	rjmp	.+178    	; 0x1a36 <GenerateAudio+0x106>
                static uint8_t auBuffer[17] = {1, 255, 128, 128, 192, 255, 64, 255, 192, 128, 64, 1, 192, 1, 64, 128, 0}; 
                static uint8_t loudness, duration, start;
                floatSpeed(1, 0x2000, 0x2200);
    1984:	40 e0       	ldi	r20, 0x00	; 0
    1986:	52 e2       	ldi	r21, 0x22	; 34
    1988:	60 e0       	ldi	r22, 0x00	; 0
    198a:	70 e2       	ldi	r23, 0x20	; 32
    198c:	81 e0       	ldi	r24, 0x01	; 1
    198e:	41 dc       	rcall	.-1918   	; 0x1212 <floatSpeed>
                auBuffer[2] = floatAround(0x80, 5, 0x01, 0x00);
    1990:	20 e0       	ldi	r18, 0x00	; 0
    1992:	41 e0       	ldi	r20, 0x01	; 1
    1994:	65 e0       	ldi	r22, 0x05	; 5
    1996:	80 e8       	ldi	r24, 0x80	; 128
    1998:	6e dc       	rcall	.-1828   	; 0x1276 <floatAround>
    199a:	80 93 16 38 	sts	0x3816, r24	; 0x803816 <auBuffer.4022+0x2>

                if (buttonMark) {
    199e:	80 91 44 38 	lds	r24, 0x3844	; 0x803844 <buttonMark>
    19a2:	88 23       	and	r24, r24
    19a4:	09 f4       	brne	.+2      	; 0x19a8 <GenerateAudio+0x78>
    19a6:	47 c0       	rjmp	.+142    	; 0x1a36 <GenerateAudio+0x106>
                    if (start == 0) {
    19a8:	80 91 5b 38 	lds	r24, 0x385B	; 0x80385b <start.4025>
    19ac:	81 11       	cpse	r24, r1
    19ae:	15 c0       	rjmp	.+42     	; 0x19da <GenerateAudio+0xaa>
                        duration = 4;
    19b0:	84 e0       	ldi	r24, 0x04	; 4
    19b2:	80 93 5a 38 	sts	0x385A, r24	; 0x80385a <duration.4024>
                        loudness = 0xff;
    19b6:	8f ef       	ldi	r24, 0xFF	; 255
    19b8:	80 93 59 38 	sts	0x3859, r24	; 0x803859 <loudness.4023>
                        TCB1_CCMP = 0x2000;
    19bc:	80 e0       	ldi	r24, 0x00	; 0
    19be:	90 e2       	ldi	r25, 0x20	; 32
    19c0:	80 93 5c 0a 	sts	0x0A5C, r24	; 0x800a5c <__TEXT_REGION_LENGTH__+0x700a5c>
    19c4:	90 93 5d 0a 	sts	0x0A5D, r25	; 0x800a5d <__TEXT_REGION_LENGTH__+0x700a5d>
                        auRepAddr = &auBuffer[0];
    19c8:	84 e1       	ldi	r24, 0x14	; 20
    19ca:	98 e3       	ldi	r25, 0x38	; 56
    19cc:	80 93 03 38 	sts	0x3803, r24	; 0x803803 <auRepAddr>
    19d0:	90 93 04 38 	sts	0x3804, r25	; 0x803804 <auRepAddr+0x1>
                        start = 1;
    19d4:	81 e0       	ldi	r24, 0x01	; 1
    19d6:	80 93 5b 38 	sts	0x385B, r24	; 0x80385b <start.4025>
                    }

                    if (loudness) {
    19da:	80 91 59 38 	lds	r24, 0x3859	; 0x803859 <loudness.4023>
    19de:	88 23       	and	r24, r24
    19e0:	69 f0       	breq	.+26     	; 0x19fc <GenerateAudio+0xcc>
                        auVolume = loudness;
    19e2:	80 93 b9 3a 	sts	0x3AB9, r24	; 0x803ab9 <auVolume>
                        if (duration) duration--; else loudness >>= 1;
    19e6:	90 91 5a 38 	lds	r25, 0x385A	; 0x80385a <duration.4024>
    19ea:	99 23       	and	r25, r25
    19ec:	21 f0       	breq	.+8      	; 0x19f6 <GenerateAudio+0xc6>
    19ee:	91 50       	subi	r25, 0x01	; 1
    19f0:	90 93 5a 38 	sts	0x385A, r25	; 0x80385a <duration.4024>
    19f4:	03 c0       	rjmp	.+6      	; 0x19fc <GenerateAudio+0xcc>
    19f6:	86 95       	lsr	r24
    19f8:	80 93 59 38 	sts	0x3859, r24	; 0x803859 <loudness.4023>
                    } 

                    if (loudness == 0) {
    19fc:	80 91 59 38 	lds	r24, 0x3859	; 0x803859 <loudness.4023>
    1a00:	81 11       	cpse	r24, r1
    1a02:	19 c0       	rjmp	.+50     	; 0x1a36 <GenerateAudio+0x106>
                        effect &= 0x1f;
    1a04:	80 91 3c 38 	lds	r24, 0x383C	; 0x80383c <effect>
    1a08:	90 91 3d 38 	lds	r25, 0x383D	; 0x80383d <effect+0x1>
    1a0c:	8f 71       	andi	r24, 0x1F	; 31
    1a0e:	99 27       	eor	r25, r25
    1a10:	80 93 3c 38 	sts	0x383C, r24	; 0x80383c <effect>
    1a14:	90 93 3d 38 	sts	0x383D, r25	; 0x80383d <effect+0x1>
                        auRepAddr = &zero;
    1a18:	8b e3       	ldi	r24, 0x3B	; 59
    1a1a:	98 e3       	ldi	r25, 0x38	; 56
    1a1c:	80 93 03 38 	sts	0x3803, r24	; 0x803803 <auRepAddr>
    1a20:	90 93 04 38 	sts	0x3804, r25	; 0x803804 <auRepAddr+0x1>
                        auSmpAddr = &zero;
    1a24:	80 93 05 38 	sts	0x3805, r24	; 0x803805 <auSmpAddr>
    1a28:	90 93 06 38 	sts	0x3806, r25	; 0x803806 <auSmpAddr+0x1>
                        auVolume = 0xff;
    1a2c:	8f ef       	ldi	r24, 0xFF	; 255
    1a2e:	80 93 b9 3a 	sts	0x3AB9, r24	; 0x803ab9 <auVolume>
                        start = 0;
    1a32:	10 92 5b 38 	sts	0x385B, r1	; 0x80385b <start.4025>
                    }
                }
            }

            //Good (bell)
            if (((effect&0xE0)==64)||((effect&0xE0)==160)){
    1a36:	80 91 3c 38 	lds	r24, 0x383C	; 0x80383c <effect>
    1a3a:	90 91 3d 38 	lds	r25, 0x383D	; 0x80383d <effect+0x1>
    1a3e:	80 7e       	andi	r24, 0xE0	; 224
    1a40:	99 27       	eor	r25, r25
    1a42:	80 34       	cpi	r24, 0x40	; 64
    1a44:	91 05       	cpc	r25, r1
    1a46:	49 f0       	breq	.+18     	; 0x1a5a <GenerateAudio+0x12a>
    1a48:	80 91 3c 38 	lds	r24, 0x383C	; 0x80383c <effect>
    1a4c:	90 91 3d 38 	lds	r25, 0x383D	; 0x80383d <effect+0x1>
    1a50:	80 7e       	andi	r24, 0xE0	; 224
    1a52:	99 27       	eor	r25, r25
    1a54:	80 3a       	cpi	r24, 0xA0	; 160
    1a56:	91 05       	cpc	r25, r1
    1a58:	e9 f5       	brne	.+122    	; 0x1ad4 <GenerateAudio+0x1a4>
                static uint8_t start, auBuffer[3] = {255, 1, 0};
                
                auRepAddr = &auBuffer[0];
    1a5a:	81 e1       	ldi	r24, 0x11	; 17
    1a5c:	98 e3       	ldi	r25, 0x38	; 56
    1a5e:	80 93 03 38 	sts	0x3803, r24	; 0x803803 <auRepAddr>
    1a62:	90 93 04 38 	sts	0x3804, r25	; 0x803804 <auRepAddr+0x1>
                if (buttonMark){
    1a66:	80 91 44 38 	lds	r24, 0x3844	; 0x803844 <buttonMark>
    1a6a:	88 23       	and	r24, r24
    1a6c:	99 f1       	breq	.+102    	; 0x1ad4 <GenerateAudio+0x1a4>
                    if (start == 0) {
    1a6e:	80 91 58 38 	lds	r24, 0x3858	; 0x803858 <start.4026>
    1a72:	81 11       	cpse	r24, r1
    1a74:	0c c0       	rjmp	.+24     	; 0x1a8e <GenerateAudio+0x15e>
                        auVolume = 255;
    1a76:	8f ef       	ldi	r24, 0xFF	; 255
    1a78:	80 93 b9 3a 	sts	0x3AB9, r24	; 0x803ab9 <auVolume>
                        TCB1_CCMP = 0x0a00;
    1a7c:	80 e0       	ldi	r24, 0x00	; 0
    1a7e:	9a e0       	ldi	r25, 0x0A	; 10
    1a80:	80 93 5c 0a 	sts	0x0A5C, r24	; 0x800a5c <__TEXT_REGION_LENGTH__+0x700a5c>
    1a84:	90 93 5d 0a 	sts	0x0A5D, r25	; 0x800a5d <__TEXT_REGION_LENGTH__+0x700a5d>
                        start = 1;
    1a88:	81 e0       	ldi	r24, 0x01	; 1
    1a8a:	80 93 58 38 	sts	0x3858, r24	; 0x803858 <start.4026>
                    }
                     
                    TCB1_CCMP -= (0x080<<(effect>64)?2:0);                    
    1a8e:	80 91 3c 38 	lds	r24, 0x383C	; 0x80383c <effect>
    1a92:	90 91 3d 38 	lds	r25, 0x383D	; 0x80383d <effect+0x1>
    1a96:	80 91 5c 0a 	lds	r24, 0x0A5C	; 0x800a5c <__TEXT_REGION_LENGTH__+0x700a5c>
    1a9a:	90 91 5d 0a 	lds	r25, 0x0A5D	; 0x800a5d <__TEXT_REGION_LENGTH__+0x700a5d>
    1a9e:	02 97       	sbiw	r24, 0x02	; 2
    1aa0:	80 93 5c 0a 	sts	0x0A5C, r24	; 0x800a5c <__TEXT_REGION_LENGTH__+0x700a5c>
    1aa4:	90 93 5d 0a 	sts	0x0A5D, r25	; 0x800a5d <__TEXT_REGION_LENGTH__+0x700a5d>
                    if (auVolume > 32) auVolume -=32; else 
    1aa8:	80 91 b9 3a 	lds	r24, 0x3AB9	; 0x803ab9 <auVolume>
    1aac:	81 32       	cpi	r24, 0x21	; 33
    1aae:	30 f0       	brcs	.+12     	; 0x1abc <GenerateAudio+0x18c>
    1ab0:	80 91 b9 3a 	lds	r24, 0x3AB9	; 0x803ab9 <auVolume>
    1ab4:	80 52       	subi	r24, 0x20	; 32
    1ab6:	80 93 b9 3a 	sts	0x3AB9, r24	; 0x803ab9 <auVolume>
    1aba:	0c c0       	rjmp	.+24     	; 0x1ad4 <GenerateAudio+0x1a4>
                    {
                        start = 0;
    1abc:	10 92 58 38 	sts	0x3858, r1	; 0x803858 <start.4026>
                        auRepAddr = &zero;
    1ac0:	8b e3       	ldi	r24, 0x3B	; 59
    1ac2:	98 e3       	ldi	r25, 0x38	; 56
    1ac4:	80 93 03 38 	sts	0x3803, r24	; 0x803803 <auRepAddr>
    1ac8:	90 93 04 38 	sts	0x3804, r25	; 0x803804 <auRepAddr+0x1>
                        effect = 0;
    1acc:	10 92 3c 38 	sts	0x383C, r1	; 0x80383c <effect>
    1ad0:	10 92 3d 38 	sts	0x383D, r1	; 0x80383d <effect+0x1>
                    }
                }
            }

            //Rain storm with whistling wind
            if ((effect&0xE0)==96){
    1ad4:	80 91 3c 38 	lds	r24, 0x383C	; 0x80383c <effect>
    1ad8:	90 91 3d 38 	lds	r25, 0x383D	; 0x80383d <effect+0x1>
    1adc:	80 7e       	andi	r24, 0xE0	; 224
    1ade:	99 27       	eor	r25, r25
    1ae0:	80 36       	cpi	r24, 0x60	; 96
    1ae2:	91 05       	cpc	r25, r1
    1ae4:	a9 f5       	brne	.+106    	; 0x1b50 <GenerateAudio+0x220>
                static uint8_t auBuffer[7];
                auBuffer[6]= 0;        
    1ae6:	10 92 57 38 	sts	0x3857, r1	; 0x803857 <auBuffer.4028+0x6>
                auRepAddr = &auBuffer[0];
    1aea:	81 e5       	ldi	r24, 0x51	; 81
    1aec:	98 e3       	ldi	r25, 0x38	; 56
    1aee:	80 93 03 38 	sts	0x3803, r24	; 0x803803 <auRepAddr>
    1af2:	90 93 04 38 	sts	0x3804, r25	; 0x803804 <auRepAddr+0x1>
    1af6:	8c 01       	movw	r16, r24

                //Noise is to be generated fast, outside of buttonMark loop
                for (uint8_t x=1; x<6; ++x){
    1af8:	c1 e0       	ldi	r28, 0x01	; 1
                    if ((x>0) && (x!=3)) auBuffer[x] = floatAround(0x80, 5, 0x01, 0x00);
    1afa:	c3 30       	cpi	r28, 0x03	; 3
    1afc:	39 f0       	breq	.+14     	; 0x1b0c <GenerateAudio+0x1dc>
    1afe:	20 e0       	ldi	r18, 0x00	; 0
    1b00:	41 e0       	ldi	r20, 0x01	; 1
    1b02:	65 e0       	ldi	r22, 0x05	; 5
    1b04:	80 e8       	ldi	r24, 0x80	; 128
    1b06:	b7 db       	rcall	.-2194   	; 0x1276 <floatAround>
    1b08:	f8 01       	movw	r30, r16
    1b0a:	81 83       	std	Z+1, r24	; 0x01
                static uint8_t auBuffer[7];
                auBuffer[6]= 0;        
                auRepAddr = &auBuffer[0];

                //Noise is to be generated fast, outside of buttonMark loop
                for (uint8_t x=1; x<6; ++x){
    1b0c:	cf 5f       	subi	r28, 0xFF	; 255
    1b0e:	0f 5f       	subi	r16, 0xFF	; 255
    1b10:	1f 4f       	sbci	r17, 0xFF	; 255
    1b12:	c6 30       	cpi	r28, 0x06	; 6
    1b14:	91 f7       	brne	.-28     	; 0x1afa <GenerateAudio+0x1ca>
                    if ((x>0) && (x!=3)) auBuffer[x] = floatAround(0x80, 5, 0x01, 0x00);
                }

                if (buttonMark){
    1b16:	80 91 44 38 	lds	r24, 0x3844	; 0x803844 <buttonMark>
    1b1a:	88 23       	and	r24, r24
    1b1c:	c9 f0       	breq	.+50     	; 0x1b50 <GenerateAudio+0x220>
                    //"Floating" speed for howl (and noise, but that's hardly audible)
                    floatSpeed(5, 0x0280, 0x0400);
    1b1e:	40 e0       	ldi	r20, 0x00	; 0
    1b20:	54 e0       	ldi	r21, 0x04	; 4
    1b22:	60 e8       	ldi	r22, 0x80	; 128
    1b24:	72 e0       	ldi	r23, 0x02	; 2
    1b26:	85 e0       	ldi	r24, 0x05	; 5
    1b28:	74 db       	rcall	.-2328   	; 0x1212 <floatSpeed>
            
                    //"Floating" volume and wind howl during 8 bit rainstorm needs some randomness
                    auVolume = floatAround(auVolume, 2, 0x10, 0xA0);
    1b2a:	80 91 b9 3a 	lds	r24, 0x3AB9	; 0x803ab9 <auVolume>
    1b2e:	20 ea       	ldi	r18, 0xA0	; 160
    1b30:	40 e1       	ldi	r20, 0x10	; 16
    1b32:	62 e0       	ldi	r22, 0x02	; 2
    1b34:	a0 db       	rcall	.-2240   	; 0x1276 <floatAround>
    1b36:	80 93 b9 3a 	sts	0x3AB9, r24	; 0x803ab9 <auVolume>
                    auBuffer[0] = floatAround(auBuffer[0], 2, 0x70, 0x90);
    1b3a:	20 e9       	ldi	r18, 0x90	; 144
    1b3c:	40 e7       	ldi	r20, 0x70	; 112
    1b3e:	62 e0       	ldi	r22, 0x02	; 2
    1b40:	80 91 51 38 	lds	r24, 0x3851	; 0x803851 <auBuffer.4028>
    1b44:	98 db       	rcall	.-2256   	; 0x1276 <floatAround>
    1b46:	80 93 51 38 	sts	0x3851, r24	; 0x803851 <auBuffer.4028>
                    auBuffer[3] = 0xFF-auBuffer[0];  //Inverse value of wind[0] produces a whistle
    1b4a:	80 95       	com	r24
    1b4c:	80 93 54 38 	sts	0x3854, r24	; 0x803854 <auBuffer.4028+0x3>
                }
            }

            //Footsteps
            if ((effect&0xE0)==128){
    1b50:	80 91 3c 38 	lds	r24, 0x383C	; 0x80383c <effect>
    1b54:	90 91 3d 38 	lds	r25, 0x383D	; 0x80383d <effect+0x1>
                    if (auVolume) --auVolume;
                }
            }*/

            //
            if ((effect&0xE0)==192){
    1b58:	80 91 3c 38 	lds	r24, 0x383C	; 0x80383c <effect>
    1b5c:	90 91 3d 38 	lds	r25, 0x383D	; 0x80383d <effect+0x1>
    1b60:	58 c0       	rjmp	.+176    	; 0x1c12 <GenerateAudio+0x2e2>
            }

            //
            else {
            }
        } else if ((effect&0xff00)==0x0100) {
    1b62:	80 91 3c 38 	lds	r24, 0x383C	; 0x80383c <effect>
    1b66:	90 91 3d 38 	lds	r25, 0x383D	; 0x80383d <effect+0x1>
    1b6a:	88 27       	eor	r24, r24
    1b6c:	81 15       	cp	r24, r1
    1b6e:	91 40       	sbci	r25, 0x01	; 1
    1b70:	09 f0       	breq	.+2      	; 0x1b74 <GenerateAudio+0x244>
    1b72:	4f c0       	rjmp	.+158    	; 0x1c12 <GenerateAudio+0x2e2>
            if ((effect&0xE0) <= 0x90) {
    1b74:	80 91 3c 38 	lds	r24, 0x383C	; 0x80383c <effect>
    1b78:	90 91 3d 38 	lds	r25, 0x383D	; 0x80383d <effect+0x1>
    1b7c:	80 7e       	andi	r24, 0xE0	; 224
    1b7e:	99 27       	eor	r25, r25
    1b80:	81 39       	cpi	r24, 0x91	; 145
    1b82:	91 05       	cpc	r25, r1
    1b84:	08 f0       	brcs	.+2      	; 0x1b88 <GenerateAudio+0x258>
    1b86:	45 c0       	rjmp	.+138    	; 0x1c12 <GenerateAudio+0x2e2>
                
                static uint8_t auBuffer[3] = {255, 1, 0};
                static uint8_t duration, start;
                uint16_t freq = ((effect&0xE0)+1)<<6;
    1b88:	60 91 3c 38 	lds	r22, 0x383C	; 0x80383c <effect>
    1b8c:	70 91 3d 38 	lds	r23, 0x383D	; 0x80383d <effect+0x1>
    1b90:	60 7e       	andi	r22, 0xE0	; 224
    1b92:	77 27       	eor	r23, r23
    1b94:	6f 5f       	subi	r22, 0xFF	; 255
    1b96:	7f 4f       	sbci	r23, 0xFF	; 255
    1b98:	86 e0       	ldi	r24, 0x06	; 6
    1b9a:	66 0f       	add	r22, r22
    1b9c:	77 1f       	adc	r23, r23
    1b9e:	8a 95       	dec	r24
                floatSpeed(1, freq+0x0200, freq+0x0300);
    1ba0:	e1 f7       	brne	.-8      	; 0x1b9a <GenerateAudio+0x26a>
    1ba2:	ab 01       	movw	r20, r22
    1ba4:	5d 5f       	subi	r21, 0xFD	; 253
    1ba6:	7e 5f       	subi	r23, 0xFE	; 254
    1ba8:	81 e0       	ldi	r24, 0x01	; 1
    1baa:	33 db       	rcall	.-2458   	; 0x1212 <floatSpeed>
                //auBuffer[] = floatAround(0x80, 5, 0x01, 0x00);

                if (buttonMark) {
    1bac:	80 91 44 38 	lds	r24, 0x3844	; 0x803844 <buttonMark>
    1bb0:	88 23       	and	r24, r24
    1bb2:	79 f1       	breq	.+94     	; 0x1c12 <GenerateAudio+0x2e2>
                    if (start == 0) {
    1bb4:	80 91 50 38 	lds	r24, 0x3850	; 0x803850 <start.4035>
    1bb8:	81 11       	cpse	r24, r1
    1bba:	0e c0       	rjmp	.+28     	; 0x1bd8 <GenerateAudio+0x2a8>
                        duration = 3;
    1bbc:	83 e0       	ldi	r24, 0x03	; 3
    1bbe:	80 93 4f 38 	sts	0x384F, r24	; 0x80384f <duration.4034>
                        auRepAddr = &auBuffer[0];
    1bc2:	8e e0       	ldi	r24, 0x0E	; 14
    1bc4:	98 e3       	ldi	r25, 0x38	; 56
    1bc6:	80 93 03 38 	sts	0x3803, r24	; 0x803803 <auRepAddr>
    1bca:	90 93 04 38 	sts	0x3804, r25	; 0x803804 <auRepAddr+0x1>
                        auVolume = 255;
    1bce:	8f ef       	ldi	r24, 0xFF	; 255
    1bd0:	80 93 b9 3a 	sts	0x3AB9, r24	; 0x803ab9 <auVolume>
                        start = 1;
    1bd4:	c0 93 50 38 	sts	0x3850, r28	; 0x803850 <start.4035>
                    }   if (duration == 0) {
    1bd8:	80 91 4f 38 	lds	r24, 0x384F	; 0x80384f <duration.4034>
    1bdc:	81 11       	cpse	r24, r1
    1bde:	13 c0       	rjmp	.+38     	; 0x1c06 <GenerateAudio+0x2d6>
                        effect &= 0x1f;
    1be0:	80 91 3c 38 	lds	r24, 0x383C	; 0x80383c <effect>
    1be4:	90 91 3d 38 	lds	r25, 0x383D	; 0x80383d <effect+0x1>
    1be8:	8f 71       	andi	r24, 0x1F	; 31
    1bea:	99 27       	eor	r25, r25
    1bec:	80 93 3c 38 	sts	0x383C, r24	; 0x80383c <effect>
    1bf0:	90 93 3d 38 	sts	0x383D, r25	; 0x80383d <effect+0x1>
                        auRepAddr = &zero;
    1bf4:	8b e3       	ldi	r24, 0x3B	; 59
    1bf6:	98 e3       	ldi	r25, 0x38	; 56
    1bf8:	80 93 03 38 	sts	0x3803, r24	; 0x803803 <auRepAddr>
    1bfc:	90 93 04 38 	sts	0x3804, r25	; 0x803804 <auRepAddr+0x1>
                        //auSmpAddr = &zero;
                        //auVolume = 0xff;
                        start = 0;
    1c00:	10 92 50 38 	sts	0x3850, r1	; 0x803850 <start.4035>
    1c04:	06 c0       	rjmp	.+12     	; 0x1c12 <GenerateAudio+0x2e2>
                    } else duration--;
    1c06:	81 50       	subi	r24, 0x01	; 1
    1c08:	80 93 4f 38 	sts	0x384F, r24	; 0x80384f <duration.4034>
    1c0c:	02 c0       	rjmp	.+4      	; 0x1c12 <GenerateAudio+0x2e2>
                }
            }
        }
    } else {
        detHdPh = 0;
    1c0e:	10 92 c2 3a 	sts	0x3AC2, r1	; 0x803ac2 <detHdPh>
    }
    return buttonMark;
    1c12:	80 91 44 38 	lds	r24, 0x3844	; 0x803844 <buttonMark>
}
    1c16:	cf 91       	pop	r28
    1c18:	1f 91       	pop	r17
    1c1a:	0f 91       	pop	r16
    1c1c:	08 95       	ret

00001c1e <getClock>:

uint16_t getClock() {
    return 60 * minuteMark + (RTC_CNT>>9);
    1c1e:	20 91 45 38 	lds	r18, 0x3845	; 0x803845 <minuteMark>
    1c22:	80 91 48 01 	lds	r24, 0x0148	; 0x800148 <__TEXT_REGION_LENGTH__+0x700148>
    1c26:	90 91 49 01 	lds	r25, 0x0149	; 0x800149 <__TEXT_REGION_LENGTH__+0x700149>
    1c2a:	89 2f       	mov	r24, r25
    1c2c:	99 27       	eor	r25, r25
    1c2e:	86 95       	lsr	r24
}
    1c30:	3c e3       	ldi	r19, 0x3C	; 60
    1c32:	23 9f       	mul	r18, r19
    1c34:	80 0d       	add	r24, r0
    1c36:	91 1d       	adc	r25, r1
    1c38:	11 24       	eor	r1, r1
    1c3a:	08 95       	ret

00001c3c <idleTimeout>:

uint8_t idleTimeout(uint16_t lastActive, uint16_t maxIdle) {
    1c3c:	0f 93       	push	r16
    1c3e:	1f 93       	push	r17
    1c40:	cf 93       	push	r28
    1c42:	df 93       	push	r29
    1c44:	8c 01       	movw	r16, r24
    1c46:	eb 01       	movw	r28, r22
    uint16_t curClock;

    curClock = getClock();
    1c48:	ea df       	rcall	.-44     	; 0x1c1e <getClock>
    1c4a:	9c 01       	movw	r18, r24
    if (curClock < lastActive)
    1c4c:	80 17       	cp	r24, r16
    1c4e:	91 07       	cpc	r25, r17
    1c50:	08 f4       	brcc	.+2      	; 0x1c54 <idleTimeout+0x18>
        curClock += 256 * 60;
    1c52:	34 5c       	subi	r19, 0xC4	; 196

    return (curClock > (lastActive + maxIdle));
    1c54:	c0 0f       	add	r28, r16
    1c56:	d1 1f       	adc	r29, r17
    1c58:	81 e0       	ldi	r24, 0x01	; 1
    1c5a:	c2 17       	cp	r28, r18
    1c5c:	d3 07       	cpc	r29, r19
    1c5e:	08 f0       	brcs	.+2      	; 0x1c62 <idleTimeout+0x26>
    1c60:	80 e0       	ldi	r24, 0x00	; 0
}
    1c62:	df 91       	pop	r29
    1c64:	cf 91       	pop	r28
    1c66:	1f 91       	pop	r17
    1c68:	0f 91       	pop	r16
    1c6a:	08 95       	ret

00001c6c <SelfTest>:

uint8_t SelfTest(){
    1c6c:	1f 93       	push	r17
    1c6e:	cf 93       	push	r28
    1c70:	df 93       	push	r29
    1c72:	00 d0       	rcall	.+0      	; 0x1c74 <SelfTest+0x8>
    1c74:	00 d0       	rcall	.+0      	; 0x1c76 <SelfTest+0xa>
    1c76:	cd b7       	in	r28, 0x3d	; 61
    1c78:	de b7       	in	r29, 0x3e	; 62
    uint8_t tstVal[4] = {0x01, 0};
    1c7a:	19 82       	std	Y+1, r1	; 0x01
    1c7c:	1a 82       	std	Y+2, r1	; 0x02
    1c7e:	1b 82       	std	Y+3, r1	; 0x03
    1c80:	1c 82       	std	Y+4, r1	; 0x04
    1c82:	ae e2       	ldi	r26, 0x2E	; 46
    1c84:	bf eb       	ldi	r27, 0xBF	; 191

    //Red HCKR all on 100%
    for (uint8_t x=0; x<6; ++x) {
        iLED[HCKR[R][x]] = 0xff;
    1c86:	8f ef       	ldi	r24, 0xFF	; 255
    1c88:	ed 91       	ld	r30, X+
    1c8a:	f0 e0       	ldi	r31, 0x00	; 0
    1c8c:	ea 53       	subi	r30, 0x3A	; 58
    1c8e:	f5 4c       	sbci	r31, 0xC5	; 197
    1c90:	80 83       	st	Z, r24

uint8_t SelfTest(){
    uint8_t tstVal[4] = {0x01, 0};

    //Red HCKR all on 100%
    for (uint8_t x=0; x<6; ++x) {
    1c92:	2f eb       	ldi	r18, 0xBF	; 191
    1c94:	a4 33       	cpi	r26, 0x34	; 52
    1c96:	b2 07       	cpc	r27, r18
    1c98:	b9 f7       	brne	.-18     	; 0x1c88 <SelfTest+0x1c>
    iLED[HCKR[R][0]] = 0x00;
    iLED[HCKR[G][0]] = 0xff;
    auRepAddr = &zero;*/

    //Light sensor
    tstVal[0] = adcPhot&0xff;
    1c9a:	80 91 c0 3a 	lds	r24, 0x3AC0	; 0x803ac0 <adcPhot>
    1c9e:	90 91 c1 3a 	lds	r25, 0x3AC1	; 0x803ac1 <adcPhot+0x1>
    while (tstVal[0] == (adcPhot&0xff)) ;
    1ca2:	99 27       	eor	r25, r25
    1ca4:	20 91 c0 3a 	lds	r18, 0x3AC0	; 0x803ac0 <adcPhot>
    1ca8:	30 91 c1 3a 	lds	r19, 0x3AC1	; 0x803ac1 <adcPhot+0x1>
    1cac:	33 27       	eor	r19, r19
    1cae:	28 17       	cp	r18, r24
    1cb0:	39 07       	cpc	r19, r25
    1cb2:	c1 f3       	breq	.-16     	; 0x1ca4 <SelfTest+0x38>
    iLED[HCKR[R][1]] = 0x00;
    1cb4:	e0 91 2f bf 	lds	r30, 0xBF2F	; 0x80bf2f <__bss_end+0x841a>
    1cb8:	f0 e0       	ldi	r31, 0x00	; 0
    1cba:	ea 53       	subi	r30, 0x3A	; 58
    1cbc:	f5 4c       	sbci	r31, 0xC5	; 197
    1cbe:	10 82       	st	Z, r1
    //iLED[HCKR[G][1]] = 0xff;

    //Magnet
    tstVal[0] = adcHall&0xff;
    1cc0:	80 91 be 3a 	lds	r24, 0x3ABE	; 0x803abe <adcHall>
    1cc4:	90 91 bf 3a 	lds	r25, 0x3ABF	; 0x803abf <adcHall+0x1>
    1cc8:	89 83       	std	Y+1, r24	; 0x01
    while (tstVal[0] == (adcHall&0xff)) ;
    1cca:	99 27       	eor	r25, r25
    1ccc:	20 91 be 3a 	lds	r18, 0x3ABE	; 0x803abe <adcHall>
    1cd0:	30 91 bf 3a 	lds	r19, 0x3ABF	; 0x803abf <adcHall+0x1>
    1cd4:	33 27       	eor	r19, r19
    1cd6:	28 17       	cp	r18, r24
    1cd8:	39 07       	cpc	r19, r25
    1cda:	c1 f3       	breq	.-16     	; 0x1ccc <SelfTest+0x60>
    iLED[HCKR[R][2]] = 0x00;
    1cdc:	e0 91 30 bf 	lds	r30, 0xBF30	; 0x80bf30 <__bss_end+0x841b>
    1ce0:	f0 e0       	ldi	r31, 0x00	; 0
    1ce2:	ea 53       	subi	r30, 0x3A	; 58
    1ce4:	f5 4c       	sbci	r31, 0xC5	; 197
    1ce6:	10 82       	st	Z, r1
    //iLED[HCKR[G][2]] = 0xff;

    //Temperature
    SelectTSens();
    1ce8:	29 da       	rcall	.-2990   	; 0x113c <SelectTSens>
    tstVal[0] = adcTemp&0xff;
    1cea:	80 91 f0 3a 	lds	r24, 0x3AF0	; 0x803af0 <adcTemp>
    1cee:	90 91 f1 3a 	lds	r25, 0x3AF1	; 0x803af1 <adcTemp+0x1>
    1cf2:	89 83       	std	Y+1, r24	; 0x01
    while (tstVal[0] == (adcTemp&0xff)) ;
    1cf4:	99 27       	eor	r25, r25
    1cf6:	20 91 f0 3a 	lds	r18, 0x3AF0	; 0x803af0 <adcTemp>
    1cfa:	30 91 f1 3a 	lds	r19, 0x3AF1	; 0x803af1 <adcTemp+0x1>
    1cfe:	33 27       	eor	r19, r19
    1d00:	28 17       	cp	r18, r24
    1d02:	39 07       	cpc	r19, r25
    1d04:	c1 f3       	breq	.-16     	; 0x1cf6 <SelfTest+0x8a>
    iLED[HCKR[R][3]] = 0x00;
    1d06:	e0 91 31 bf 	lds	r30, 0xBF31	; 0x80bf31 <__bss_end+0x841c>
    1d0a:	f0 e0       	ldi	r31, 0x00	; 0
    1d0c:	ea 53       	subi	r30, 0x3A	; 58
    1d0e:	f5 4c       	sbci	r31, 0xC5	; 197
    1d10:	10 82       	st	Z, r1
    //iLED[HCKR[G][3]] = 0xff;

    //Buttons (none pressed / shorted)
    while ((adcBtns>>4) < 200) ;
    1d12:	80 91 ba 3a 	lds	r24, 0x3ABA	; 0x803aba <adcBtns>
    1d16:	90 91 bb 3a 	lds	r25, 0x3ABB	; 0x803abb <adcBtns+0x1>
    1d1a:	80 38       	cpi	r24, 0x80	; 128
    1d1c:	9c 40       	sbci	r25, 0x0C	; 12
    1d1e:	c8 f3       	brcs	.-14     	; 0x1d12 <SelfTest+0xa6>
    iLED[HCKR[R][4]] = 0x00;
    1d20:	e0 91 32 bf 	lds	r30, 0xBF32	; 0x80bf32 <__bss_end+0x841d>
    1d24:	f0 e0       	ldi	r31, 0x00	; 0
    1d26:	ea 53       	subi	r30, 0x3A	; 58
    1d28:	f5 4c       	sbci	r31, 0xC5	; 197
    1d2a:	10 82       	st	Z, r1
        0x3CCD              Level 6, open_acl=0
        0x3CCE              Level 6, action_acl=192
        0x3CCF              Level 6, action_mask=20
    */
    
    ExtEERead(0x3CCC, 4, 0, (uint8_t *)&tstVal[0]);
    1d2c:	9e 01       	movw	r18, r28
    1d2e:	2f 5f       	subi	r18, 0xFF	; 255
    1d30:	3f 4f       	sbci	r19, 0xFF	; 255
    1d32:	40 e0       	ldi	r20, 0x00	; 0
    1d34:	64 e0       	ldi	r22, 0x04	; 4
    1d36:	8c ec       	ldi	r24, 0xCC	; 204
    1d38:	9c e3       	ldi	r25, 0x3C	; 60
    1d3a:	ac d9       	rcall	.-3240   	; 0x1094 <ExtEERead>
    if ((tstVal[0] != 63) || (tstVal[1] != 0) || (tstVal[2] != 192) || (tstVal[3] != 20)){
    1d3c:	89 81       	ldd	r24, Y+1	; 0x01
    1d3e:	8f 33       	cpi	r24, 0x3F	; 63
    1d40:	49 f4       	brne	.+18     	; 0x1d54 <SelfTest+0xe8>
    1d42:	8a 81       	ldd	r24, Y+2	; 0x02
    1d44:	81 11       	cpse	r24, r1
    1d46:	06 c0       	rjmp	.+12     	; 0x1d54 <SelfTest+0xe8>
    1d48:	8b 81       	ldd	r24, Y+3	; 0x03
    1d4a:	80 3c       	cpi	r24, 0xC0	; 192
    1d4c:	19 f4       	brne	.+6      	; 0x1d54 <SelfTest+0xe8>
    1d4e:	8c 81       	ldd	r24, Y+4	; 0x04
    1d50:	84 31       	cpi	r24, 0x14	; 20
    1d52:	09 f0       	breq	.+2      	; 0x1d56 <SelfTest+0xea>
    1d54:	ff cf       	rjmp	.-2      	; 0x1d54 <SelfTest+0xe8>
    1d56:	80 e0       	ldi	r24, 0x00	; 0
    1d58:	90 e0       	ldi	r25, 0x00	; 0
        while(1);
    }
        //All LEDs off
    for (uint8_t x=0; x<40; ++x) {
        iLED[x]=0;
    1d5a:	fc 01       	movw	r30, r24
    1d5c:	ea 53       	subi	r30, 0x3A	; 58
    1d5e:	f5 4c       	sbci	r31, 0xC5	; 197
    1d60:	10 82       	st	Z, r1
    1d62:	01 96       	adiw	r24, 0x01	; 1
    ExtEERead(0x3CCC, 4, 0, (uint8_t *)&tstVal[0]);
    if ((tstVal[0] != 63) || (tstVal[1] != 0) || (tstVal[2] != 192) || (tstVal[3] != 20)){
        while(1);
    }
        //All LEDs off
    for (uint8_t x=0; x<40; ++x) {
    1d64:	88 32       	cpi	r24, 0x28	; 40
    1d66:	91 05       	cpc	r25, r1
    1d68:	c1 f7       	brne	.-16     	; 0x1d5a <SelfTest+0xee>
    1d6a:	10 e0       	ldi	r17, 0x00	; 0
        iLED[x]=0;
    }

    for(uint8_t x=0; x<(adcPhot&0x3f); ++x) lfsr();
    1d6c:	80 91 c0 3a 	lds	r24, 0x3AC0	; 0x803ac0 <adcPhot>
    1d70:	90 91 c1 3a 	lds	r25, 0x3AC1	; 0x803ac1 <adcPhot+0x1>
    1d74:	21 2f       	mov	r18, r17
    1d76:	30 e0       	ldi	r19, 0x00	; 0
    1d78:	8f 73       	andi	r24, 0x3F	; 63
    1d7a:	99 27       	eor	r25, r25
    1d7c:	28 17       	cp	r18, r24
    1d7e:	39 07       	cpc	r19, r25
    1d80:	18 f4       	brcc	.+6      	; 0x1d88 <SelfTest+0x11c>
    1d82:	28 da       	rcall	.-2992   	; 0x11d4 <lfsr>
    1d84:	1f 5f       	subi	r17, 0xFF	; 255
    1d86:	f2 cf       	rjmp	.-28     	; 0x1d6c <SelfTest+0x100>

    return 0;
}
    1d88:	80 e0       	ldi	r24, 0x00	; 0
    1d8a:	24 96       	adiw	r28, 0x04	; 4
    1d8c:	cd bf       	out	0x3d, r28	; 61
    1d8e:	de bf       	out	0x3e, r29	; 62
    1d90:	df 91       	pop	r29
    1d92:	cf 91       	pop	r28
    1d94:	1f 91       	pop	r17
    1d96:	08 95       	ret

00001d98 <simonLed>:

/**
 * Set the wing LED blocks to selected option
 * @param val
 */
void simonLed(uint8_t val) {
    1d98:	cf 93       	push	r28
    1d9a:	df 93       	push	r29
    1d9c:	e0 e2       	ldi	r30, 0x20	; 32
    1d9e:	ff eb       	ldi	r31, 0xBF	; 191
    1da0:	ef 01       	movw	r28, r30
    for (uint8_t n = 0; n < 5; n++) {
        iLED[WING[L][n]] = 0;
    1da2:	a5 81       	ldd	r26, Z+5	; 0x05
    1da4:	b0 e0       	ldi	r27, 0x00	; 0
    1da6:	aa 53       	subi	r26, 0x3A	; 58
    1da8:	b5 4c       	sbci	r27, 0xC5	; 197
    1daa:	1c 92       	st	X, r1
    1dac:	31 96       	adiw	r30, 0x01	; 1
        iLED[WING[R][n]] = 0;
    1dae:	a8 81       	ld	r26, Y
    1db0:	b0 e0       	ldi	r27, 0x00	; 0
    1db2:	aa 53       	subi	r26, 0x3A	; 58
    1db4:	b5 4c       	sbci	r27, 0xC5	; 197
    1db6:	1c 92       	st	X, r1
/**
 * Set the wing LED blocks to selected option
 * @param val
 */
void simonLed(uint8_t val) {
    for (uint8_t n = 0; n < 5; n++) {
    1db8:	9f eb       	ldi	r25, 0xBF	; 191
    1dba:	e5 32       	cpi	r30, 0x25	; 37
    1dbc:	f9 07       	cpc	r31, r25
    1dbe:	81 f7       	brne	.-32     	; 0x1da0 <simonLed+0x8>
        iLED[WING[L][n]] = 0;
        iLED[WING[R][n]] = 0;
    }
    if (val == 3) {         // II
    1dc0:	83 30       	cpi	r24, 0x03	; 3
    1dc2:	d9 f4       	brne	.+54     	; 0x1dfa <simonLed+0x62>
        iLED[WING[L][0]] = dimValue;
    1dc4:	e0 91 25 bf 	lds	r30, 0xBF25	; 0x80bf25 <__bss_end+0x8410>
    1dc8:	f0 e0       	ldi	r31, 0x00	; 0
    1dca:	80 91 0c 38 	lds	r24, 0x380C	; 0x80380c <dimValue>
    1dce:	ea 53       	subi	r30, 0x3A	; 58
    1dd0:	f5 4c       	sbci	r31, 0xC5	; 197
    1dd2:	80 83       	st	Z, r24
        iLED[WING[L][1]] = dimValue;
    1dd4:	e0 91 26 bf 	lds	r30, 0xBF26	; 0x80bf26 <__bss_end+0x8411>
    1dd8:	f0 e0       	ldi	r31, 0x00	; 0
    1dda:	80 91 0c 38 	lds	r24, 0x380C	; 0x80380c <dimValue>
    1dde:	ea 53       	subi	r30, 0x3A	; 58
    1de0:	f5 4c       	sbci	r31, 0xC5	; 197
    1de2:	80 83       	st	Z, r24
        iLED[WING[L][2]] = dimValue;
    1de4:	e0 91 27 bf 	lds	r30, 0xBF27	; 0x80bf27 <__bss_end+0x8412>
    1de8:	f0 e0       	ldi	r31, 0x00	; 0
    1dea:	80 91 0c 38 	lds	r24, 0x380C	; 0x80380c <dimValue>
    1dee:	ea 53       	subi	r30, 0x3A	; 58
    1df0:	f5 4c       	sbci	r31, 0xC5	; 197
    1df2:	80 83       	st	Z, r24
        effect = 0x013f;
    1df4:	8f e3       	ldi	r24, 0x3F	; 63
    1df6:	91 e0       	ldi	r25, 0x01	; 1
    1df8:	46 c0       	rjmp	.+140    	; 0x1e86 <simonLed+0xee>
    } else if (val == 1) {  //
    1dfa:	81 30       	cpi	r24, 0x01	; 1
    1dfc:	99 f4       	brne	.+38     	; 0x1e24 <simonLed+0x8c>
        iLED[WING[L][3]] = dimValue;
    1dfe:	e0 91 28 bf 	lds	r30, 0xBF28	; 0x80bf28 <__bss_end+0x8413>
    1e02:	f0 e0       	ldi	r31, 0x00	; 0
    1e04:	80 91 0c 38 	lds	r24, 0x380C	; 0x80380c <dimValue>
    1e08:	ea 53       	subi	r30, 0x3A	; 58
    1e0a:	f5 4c       	sbci	r31, 0xC5	; 197
    1e0c:	80 83       	st	Z, r24
        iLED[WING[L][4]] = dimValue;
    1e0e:	e0 91 29 bf 	lds	r30, 0xBF29	; 0x80bf29 <__bss_end+0x8414>
    1e12:	f0 e0       	ldi	r31, 0x00	; 0
    1e14:	80 91 0c 38 	lds	r24, 0x380C	; 0x80380c <dimValue>
    1e18:	ea 53       	subi	r30, 0x3A	; 58
    1e1a:	f5 4c       	sbci	r31, 0xC5	; 197
    1e1c:	80 83       	st	Z, r24
        effect = 0x015f;
    1e1e:	8f e5       	ldi	r24, 0x5F	; 95
    1e20:	91 e0       	ldi	r25, 0x01	; 1
    1e22:	31 c0       	rjmp	.+98     	; 0x1e86 <simonLed+0xee>
    } else if (val == 4) {  // III
    1e24:	84 30       	cpi	r24, 0x04	; 4
    1e26:	d9 f4       	brne	.+54     	; 0x1e5e <simonLed+0xc6>
        iLED[WING[R][0]] = dimValue;
    1e28:	e0 91 20 bf 	lds	r30, 0xBF20	; 0x80bf20 <__bss_end+0x840b>
    1e2c:	f0 e0       	ldi	r31, 0x00	; 0
    1e2e:	80 91 0c 38 	lds	r24, 0x380C	; 0x80380c <dimValue>
    1e32:	ea 53       	subi	r30, 0x3A	; 58
    1e34:	f5 4c       	sbci	r31, 0xC5	; 197
    1e36:	80 83       	st	Z, r24
        iLED[WING[R][1]] = dimValue;
    1e38:	e0 91 21 bf 	lds	r30, 0xBF21	; 0x80bf21 <__bss_end+0x840c>
    1e3c:	f0 e0       	ldi	r31, 0x00	; 0
    1e3e:	80 91 0c 38 	lds	r24, 0x380C	; 0x80380c <dimValue>
    1e42:	ea 53       	subi	r30, 0x3A	; 58
    1e44:	f5 4c       	sbci	r31, 0xC5	; 197
    1e46:	80 83       	st	Z, r24
        iLED[WING[R][2]] = dimValue;
    1e48:	e0 91 22 bf 	lds	r30, 0xBF22	; 0x80bf22 <__bss_end+0x840d>
    1e4c:	f0 e0       	ldi	r31, 0x00	; 0
    1e4e:	80 91 0c 38 	lds	r24, 0x380C	; 0x80380c <dimValue>
    1e52:	ea 53       	subi	r30, 0x3A	; 58
    1e54:	f5 4c       	sbci	r31, 0xC5	; 197
    1e56:	80 83       	st	Z, r24
        effect = 0x017f;
    1e58:	8f e7       	ldi	r24, 0x7F	; 127
    1e5a:	91 e0       	ldi	r25, 0x01	; 1
    1e5c:	14 c0       	rjmp	.+40     	; 0x1e86 <simonLed+0xee>
    } else if (val == 2) {  // I
    1e5e:	82 30       	cpi	r24, 0x02	; 2
    1e60:	b1 f4       	brne	.+44     	; 0x1e8e <simonLed+0xf6>
        iLED[WING[R][3]] = dimValue;
    1e62:	e0 91 23 bf 	lds	r30, 0xBF23	; 0x80bf23 <__bss_end+0x840e>
    1e66:	f0 e0       	ldi	r31, 0x00	; 0
    1e68:	80 91 0c 38 	lds	r24, 0x380C	; 0x80380c <dimValue>
    1e6c:	ea 53       	subi	r30, 0x3A	; 58
    1e6e:	f5 4c       	sbci	r31, 0xC5	; 197
    1e70:	80 83       	st	Z, r24
        iLED[WING[R][4]] = dimValue;
    1e72:	e0 91 24 bf 	lds	r30, 0xBF24	; 0x80bf24 <__bss_end+0x840f>
    1e76:	f0 e0       	ldi	r31, 0x00	; 0
    1e78:	80 91 0c 38 	lds	r24, 0x380C	; 0x80380c <dimValue>
    1e7c:	ea 53       	subi	r30, 0x3A	; 58
    1e7e:	f5 4c       	sbci	r31, 0xC5	; 197
    1e80:	80 83       	st	Z, r24
        effect = 0x019f;
    1e82:	8f e9       	ldi	r24, 0x9F	; 159
    1e84:	91 e0       	ldi	r25, 0x01	; 1
    1e86:	80 93 3c 38 	sts	0x383C, r24	; 0x80383c <effect>
    1e8a:	90 93 3d 38 	sts	0x383D, r25	; 0x80383d <effect+0x1>
    }
}
    1e8e:	df 91       	pop	r29
    1e90:	cf 91       	pop	r28
    1e92:	08 95       	ret

00001e94 <BastetDictates>:

/**
 * Main game loop
 * @return 0
 */
uint8_t BastetDictates() {
    1e94:	cf 93       	push	r28
    1e96:	df 93       	push	r29
    if ((TEXT != gameNow) && (BASTET != gameNow))
    1e98:	80 91 3e 38 	lds	r24, 0x383E	; 0x80383e <gameNow>
    1e9c:	8d 7f       	andi	r24, 0xFD	; 253
    1e9e:	09 f0       	breq	.+2      	; 0x1ea2 <BastetDictates+0xe>
    1ea0:	73 c1       	rjmp	.+742    	; 0x2188 <BastetDictates+0x2f4>
        return 0;

    if (CheckState(BASTET_COMPLETED)) {
    1ea2:	8a e7       	ldi	r24, 0x7A	; 122
    1ea4:	c2 da       	rcall	.-2684   	; 0x142a <CheckState>
    1ea6:	88 23       	and	r24, r24
    1ea8:	41 f0       	breq	.+16     	; 0x1eba <BastetDictates+0x26>
        if (BASTET == gameNow) {
    1eaa:	80 91 3e 38 	lds	r24, 0x383E	; 0x80383e <gameNow>
    1eae:	82 30       	cpi	r24, 0x02	; 2
    1eb0:	09 f0       	breq	.+2      	; 0x1eb4 <BastetDictates+0x20>
    1eb2:	6a c1       	rjmp	.+724    	; 0x2188 <BastetDictates+0x2f4>
            gameNow = TEXT;
    1eb4:	10 92 3e 38 	sts	0x383E, r1	; 0x80383e <gameNow>
    1eb8:	67 c1       	rjmp	.+718    	; 0x2188 <BastetDictates+0x2f4>
        }
        return 0;
    }

    if (CheckState(LANYARD_COMPLETED))
    1eba:	8b e7       	ldi	r24, 0x7B	; 123
    1ebc:	b6 da       	rcall	.-2708   	; 0x142a <CheckState>
    1ebe:	90 91 08 38 	lds	r25, 0x3808	; 0x803808 <buttonState>
    1ec2:	88 23       	and	r24, r24
    1ec4:	29 f0       	breq	.+10     	; 0x1ed0 <BastetDictates+0x3c>
        if (buttonState!=0xff)
    1ec6:	9f 3f       	cpi	r25, 0xFF	; 255
    1ec8:	19 f0       	breq	.+6      	; 0x1ed0 <BastetDictates+0x3c>
            gameNow = BASTET;
    1eca:	82 e0       	ldi	r24, 0x02	; 2
    1ecc:	80 93 3e 38 	sts	0x383E, r24	; 0x80383e <gameNow>

    iLED[CAT] = (buttonState==0xff ? 0 : dimValue);
    1ed0:	e0 91 1c bf 	lds	r30, 0xBF1C	; 0x80bf1c <__bss_end+0x8407>
    1ed4:	f0 e0       	ldi	r31, 0x00	; 0
    1ed6:	9f 3f       	cpi	r25, 0xFF	; 255
    1ed8:	19 f0       	breq	.+6      	; 0x1ee0 <BastetDictates+0x4c>
    1eda:	80 91 0c 38 	lds	r24, 0x380C	; 0x80380c <dimValue>
    1ede:	01 c0       	rjmp	.+2      	; 0x1ee2 <BastetDictates+0x4e>
    1ee0:	80 e0       	ldi	r24, 0x00	; 0
    1ee2:	ea 53       	subi	r30, 0x3A	; 58
    1ee4:	f5 4c       	sbci	r31, 0xC5	; 197
    1ee6:	80 83       	st	Z, r24

    if (BASTET_BOOT == simonGameState) {
    1ee8:	80 91 5f 38 	lds	r24, 0x385F	; 0x80385f <simonGameState>
    1eec:	81 11       	cpse	r24, r1
    1eee:	0c c0       	rjmp	.+24     	; 0x1f08 <BastetDictates+0x74>
    1ef0:	c5 e6       	ldi	r28, 0x65	; 101
        for (uint8_t i = 0; i < BASTET_LENGTH; i++) {
            simonState[i] = (lfsr() % 4);
    1ef2:	d8 e3       	ldi	r29, 0x38	; 56
    1ef4:	6f d9       	rcall	.-3362   	; 0x11d4 <lfsr>
    1ef6:	83 70       	andi	r24, 0x03	; 3
    1ef8:	89 93       	st	Y+, r24
            gameNow = BASTET;

    iLED[CAT] = (buttonState==0xff ? 0 : dimValue);

    if (BASTET_BOOT == simonGameState) {
        for (uint8_t i = 0; i < BASTET_LENGTH; i++) {
    1efa:	88 e3       	ldi	r24, 0x38	; 56
    1efc:	c1 37       	cpi	r28, 0x71	; 113
    1efe:	d8 07       	cpc	r29, r24
    1f00:	c9 f7       	brne	.-14     	; 0x1ef4 <BastetDictates+0x60>
            simonState[i] = (lfsr() % 4);
        }
        simonGameState = BASTET_GAME_START;
    1f02:	81 e0       	ldi	r24, 0x01	; 1
    1f04:	80 93 5f 38 	sts	0x385F, r24	; 0x80385f <simonGameState>
    }

    if (BASTET_GAME_START == simonGameState && BASTET == gameNow) {
    1f08:	80 91 5f 38 	lds	r24, 0x385F	; 0x80385f <simonGameState>
    1f0c:	81 30       	cpi	r24, 0x01	; 1
    1f0e:	71 f4       	brne	.+28     	; 0x1f2c <BastetDictates+0x98>
    1f10:	80 91 3e 38 	lds	r24, 0x383E	; 0x80383e <gameNow>
    1f14:	82 30       	cpi	r24, 0x02	; 2
    1f16:	51 f4       	brne	.+20     	; 0x1f2c <BastetDictates+0x98>
        simonGameState = BASTET_GAME_INTRO;
    1f18:	80 93 5f 38 	sts	0x385F, r24	; 0x80385f <simonGameState>
        simonPos = 0;
    1f1c:	10 92 64 38 	sts	0x3864, r1	; 0x803864 <simonPos>
        simonInputPos = 0;
    1f20:	10 92 63 38 	sts	0x3863, r1	; 0x803863 <simonInputPos>
        simonTimer = 0;
    1f24:	10 92 62 38 	sts	0x3862, r1	; 0x803862 <simonTimer>
        simonCounter = 0;
    1f28:	10 92 60 38 	sts	0x3860, r1	; 0x803860 <simonCounter>
    }

    if (BASTET_GAME_INTRO == simonGameState) {
    1f2c:	80 91 5f 38 	lds	r24, 0x385F	; 0x80385f <simonGameState>
    1f30:	82 30       	cpi	r24, 0x02	; 2
    1f32:	19 f5       	brne	.+70     	; 0x1f7a <BastetDictates+0xe6>
        if (simonTimer > 5) {   // .33 seconds
    1f34:	80 91 62 38 	lds	r24, 0x3862	; 0x803862 <simonTimer>
    1f38:	86 30       	cpi	r24, 0x06	; 6
    1f3a:	38 f0       	brcs	.+14     	; 0x1f4a <BastetDictates+0xb6>
            simonCounter++;
    1f3c:	80 91 60 38 	lds	r24, 0x3860	; 0x803860 <simonCounter>
    1f40:	8f 5f       	subi	r24, 0xFF	; 255
    1f42:	80 93 60 38 	sts	0x3860, r24	; 0x803860 <simonCounter>
            simonTimer = 0;
    1f46:	10 92 62 38 	sts	0x3862, r1	; 0x803862 <simonTimer>
        }
        if (simonCounter > 5) {
    1f4a:	e0 91 60 38 	lds	r30, 0x3860	; 0x803860 <simonCounter>
    1f4e:	e6 30       	cpi	r30, 0x06	; 6
    1f50:	48 f0       	brcs	.+18     	; 0x1f64 <BastetDictates+0xd0>
            simonGameState = BASTET_GAME_SHOW_PATTERN;
    1f52:	83 e0       	ldi	r24, 0x03	; 3
    1f54:	80 93 5f 38 	sts	0x385F, r24	; 0x80385f <simonGameState>
            simonTimer = 0;
    1f58:	10 92 62 38 	sts	0x3862, r1	; 0x803862 <simonTimer>
            simonCounter = 0;
    1f5c:	10 92 60 38 	sts	0x3860, r1	; 0x803860 <simonCounter>
            ClearHackerLeds();
    1f60:	73 db       	rcall	.-2330   	; 0x1648 <ClearHackerLeds>
            return 0;
    1f62:	12 c1       	rjmp	.+548    	; 0x2188 <BastetDictates+0x2f4>
        }
        iLED[HCKR[R][simonCounter]] = dimValue;
    1f64:	f0 e0       	ldi	r31, 0x00	; 0
    1f66:	e2 5d       	subi	r30, 0xD2	; 210
    1f68:	f0 44       	sbci	r31, 0x40	; 64
    1f6a:	e0 81       	ld	r30, Z
    1f6c:	f0 e0       	ldi	r31, 0x00	; 0
    1f6e:	80 91 0c 38 	lds	r24, 0x380C	; 0x80380c <dimValue>
    1f72:	ea 53       	subi	r30, 0x3A	; 58
    1f74:	f5 4c       	sbci	r31, 0xC5	; 197
    1f76:	80 83       	st	Z, r24
    1f78:	2b c0       	rjmp	.+86     	; 0x1fd0 <BastetDictates+0x13c>
    }

    if (BASTET_GAME_SHOW_PATTERN == simonGameState) {
    1f7a:	83 30       	cpi	r24, 0x03	; 3
    1f7c:	49 f5       	brne	.+82     	; 0x1fd0 <BastetDictates+0x13c>
        if (simonTimer > 7) {   // .5 second
    1f7e:	80 91 62 38 	lds	r24, 0x3862	; 0x803862 <simonTimer>
    1f82:	88 30       	cpi	r24, 0x08	; 8
    1f84:	38 f0       	brcs	.+14     	; 0x1f94 <BastetDictates+0x100>
            simonCounter++;
    1f86:	80 91 60 38 	lds	r24, 0x3860	; 0x803860 <simonCounter>
    1f8a:	8f 5f       	subi	r24, 0xFF	; 255
    1f8c:	80 93 60 38 	sts	0x3860, r24	; 0x803860 <simonCounter>
            simonTimer = 0;
    1f90:	10 92 62 38 	sts	0x3862, r1	; 0x803862 <simonTimer>
        }
        if (simonCounter > simonPos) {
    1f94:	e0 91 60 38 	lds	r30, 0x3860	; 0x803860 <simonCounter>
    1f98:	80 91 64 38 	lds	r24, 0x3864	; 0x803864 <simonPos>
    1f9c:	8e 17       	cp	r24, r30
    1f9e:	40 f4       	brcc	.+16     	; 0x1fb0 <BastetDictates+0x11c>
            simonInputPos = 0;
    1fa0:	10 92 63 38 	sts	0x3863, r1	; 0x803863 <simonInputPos>
            simonGameState = BASTET_GAME_INPUT;
    1fa4:	85 e0       	ldi	r24, 0x05	; 5
    1fa6:	80 93 5f 38 	sts	0x385F, r24	; 0x80385f <simonGameState>
            simonLed(0);
    1faa:	80 e0       	ldi	r24, 0x00	; 0
    1fac:	f5 de       	rcall	.-534    	; 0x1d98 <simonLed>
    1fae:	98 c0       	rjmp	.+304    	; 0x20e0 <BastetDictates+0x24c>
            simonTimer = 0;
            return 0;
        }
        if (simonTimer < 3) {
    1fb0:	80 91 62 38 	lds	r24, 0x3862	; 0x803862 <simonTimer>
    1fb4:	83 30       	cpi	r24, 0x03	; 3
    1fb6:	30 f4       	brcc	.+12     	; 0x1fc4 <BastetDictates+0x130>
            simonLed(simonState[simonCounter] + 1);
    1fb8:	f0 e0       	ldi	r31, 0x00	; 0
    1fba:	eb 59       	subi	r30, 0x9B	; 155
    1fbc:	f7 4c       	sbci	r31, 0xC7	; 199
    1fbe:	80 81       	ld	r24, Z
    1fc0:	8f 5f       	subi	r24, 0xFF	; 255
    1fc2:	ea de       	rcall	.-556    	; 0x1d98 <simonLed>
        }
        if (simonTimer > 6) {
    1fc4:	80 91 62 38 	lds	r24, 0x3862	; 0x803862 <simonTimer>
    1fc8:	87 30       	cpi	r24, 0x07	; 7
    1fca:	10 f0       	brcs	.+4      	; 0x1fd0 <BastetDictates+0x13c>
            simonLed(0);
    1fcc:	80 e0       	ldi	r24, 0x00	; 0
    1fce:	e4 de       	rcall	.-568    	; 0x1d98 <simonLed>
    1fd0:	c0 91 5f 38 	lds	r28, 0x385F	; 0x80385f <simonGameState>
        }
    }

    if (BASTET_GAME_INPUT == simonGameState) {
    1fd4:	c5 30       	cpi	r28, 0x05	; 5
    1fd6:	09 f0       	breq	.+2      	; 0x1fda <BastetDictates+0x146>
    1fd8:	86 c0       	rjmp	.+268    	; 0x20e6 <BastetDictates+0x252>
    1fda:	80 91 08 38 	lds	r24, 0x3808	; 0x803808 <buttonState>
        //Button pressed
        if (lastButtonState != buttonState && (buttonState+1) > 0) {
    1fde:	90 91 07 38 	lds	r25, 0x3807	; 0x803807 <lastButtonState>
    1fe2:	98 17       	cp	r25, r24
    1fe4:	09 f4       	brne	.+2      	; 0x1fe8 <BastetDictates+0x154>
    1fe6:	71 c0       	rjmp	.+226    	; 0x20ca <BastetDictates+0x236>
    1fe8:	90 91 61 38 	lds	r25, 0x3861	; 0x803861 <simonWait>
            if (simonWait == 0 && buttonState < 4) {
    1fec:	91 11       	cpse	r25, r1
    1fee:	6f c0       	rjmp	.+222    	; 0x20ce <BastetDictates+0x23a>
    1ff0:	84 30       	cpi	r24, 0x04	; 4
    1ff2:	08 f0       	brcs	.+2      	; 0x1ff6 <BastetDictates+0x162>
    1ff4:	6c c0       	rjmp	.+216    	; 0x20ce <BastetDictates+0x23a>
                simonWait = 1;
    1ff6:	91 e0       	ldi	r25, 0x01	; 1
    1ff8:	90 93 61 38 	sts	0x3861, r25	; 0x803861 <simonWait>
                simonTimer = 0;
    1ffc:	10 92 62 38 	sts	0x3862, r1	; 0x803862 <simonTimer>
                simonLed(buttonState+1);
    2000:	8f 5f       	subi	r24, 0xFF	; 255
    2002:	ca de       	rcall	.-620    	; 0x1d98 <simonLed>
    2004:	84 e0       	ldi	r24, 0x04	; 4
                simonGameState = BASTET_GAME_WAIT_LEDS;
    2006:	80 93 5f 38 	sts	0x385F, r24	; 0x80385f <simonGameState>
    200a:	c0 93 30 38 	sts	0x3830, r28	; 0x803830 <simonNextGameState>
                simonNextGameState = BASTET_GAME_INPUT;
    200e:	80 91 63 38 	lds	r24, 0x3863	; 0x803863 <simonInputPos>

                if (simonState[simonInputPos] == buttonState) {
    2012:	e8 2f       	mov	r30, r24
    2014:	f0 e0       	ldi	r31, 0x00	; 0
    2016:	eb 59       	subi	r30, 0x9B	; 155
    2018:	f7 4c       	sbci	r31, 0xC7	; 199
    201a:	20 81       	ld	r18, Z
    201c:	90 91 08 38 	lds	r25, 0x3808	; 0x803808 <buttonState>
    2020:	29 13       	cpse	r18, r25
    2022:	1d c0       	rjmp	.+58     	; 0x205e <BastetDictates+0x1ca>
    2024:	8f 5f       	subi	r24, 0xFF	; 255
                    simonInputPos++;
    2026:	80 93 63 38 	sts	0x3863, r24	; 0x803863 <simonInputPos>
    202a:	e0 91 64 38 	lds	r30, 0x3864	; 0x803864 <simonPos>
                    if (simonInputPos > simonPos) {
    202e:	e8 17       	cp	r30, r24
    2030:	a0 f5       	brcc	.+104    	; 0x209a <BastetDictates+0x206>
    2032:	ef 5f       	subi	r30, 0xFF	; 255
                        simonPos++;
    2034:	e0 93 64 38 	sts	0x3864, r30	; 0x803864 <simonPos>
    2038:	10 92 62 38 	sts	0x3862, r1	; 0x803862 <simonTimer>
                        simonTimer = 0;
    203c:	10 92 60 38 	sts	0x3860, r1	; 0x803860 <simonCounter>
                        simonCounter = 0;
    2040:	e1 30       	cpi	r30, 0x01	; 1
                        if (simonPos > 1) { // BASTET_LENGTH = 12
    2042:	59 f0       	breq	.+22     	; 0x205a <BastetDictates+0x1c6>
    2044:	e6 95       	lsr	r30
                            iLED[HCKR[G][(simonPos / 2) - 1]] = dimValue;
    2046:	f0 e0       	ldi	r31, 0x00	; 0
    2048:	e2 5d       	subi	r30, 0xD2	; 210
    204a:	f0 44       	sbci	r31, 0x40	; 64
    204c:	e5 81       	ldd	r30, Z+5	; 0x05
    204e:	f0 e0       	ldi	r31, 0x00	; 0
    2050:	80 91 0c 38 	lds	r24, 0x380C	; 0x80380c <dimValue>
    2054:	ea 53       	subi	r30, 0x3A	; 58
    2056:	f5 4c       	sbci	r31, 0xC5	; 197
    2058:	80 83       	st	Z, r24
    205a:	83 e0       	ldi	r24, 0x03	; 3
                        }
                        simonNextGameState = BASTET_GAME_SHOW_PATTERN;
    205c:	1c c0       	rjmp	.+56     	; 0x2096 <BastetDictates+0x202>
    205e:	80 e2       	ldi	r24, 0x20	; 32
                    }
                } else {
                    effect = 32;
    2060:	90 e0       	ldi	r25, 0x00	; 0
    2062:	80 93 3c 38 	sts	0x383C, r24	; 0x80383c <effect>
    2066:	90 93 3d 38 	sts	0x383D, r25	; 0x80383d <effect+0x1>
    206a:	ae e2       	ldi	r26, 0x2E	; 46
    206c:	bf eb       	ldi	r27, 0xBF	; 191
    206e:	ed 91       	ld	r30, X+
                    for (uint8_t n=0; n<6; n++){
                        iLED[HCKR[R][n]] = dimValue;
    2070:	f0 e0       	ldi	r31, 0x00	; 0
    2072:	80 91 0c 38 	lds	r24, 0x380C	; 0x80380c <dimValue>
    2076:	ea 53       	subi	r30, 0x3A	; 58
    2078:	f5 4c       	sbci	r31, 0xC5	; 197
    207a:	80 83       	st	Z, r24
    207c:	8f eb       	ldi	r24, 0xBF	; 191
                        }
                        simonNextGameState = BASTET_GAME_SHOW_PATTERN;
                    }
                } else {
                    effect = 32;
                    for (uint8_t n=0; n<6; n++){
    207e:	a4 33       	cpi	r26, 0x34	; 52
    2080:	b8 07       	cpc	r27, r24
    2082:	a9 f7       	brne	.-22     	; 0x206e <BastetDictates+0x1da>
    2084:	10 92 63 38 	sts	0x3863, r1	; 0x803863 <simonInputPos>
                        iLED[HCKR[R][n]] = dimValue;
                    }
                    simonInputPos = 0;
    2088:	10 92 64 38 	sts	0x3864, r1	; 0x803864 <simonPos>
                    simonPos = 0;
    208c:	10 92 62 38 	sts	0x3862, r1	; 0x803862 <simonTimer>
                    simonTimer = 0;
    2090:	10 92 60 38 	sts	0x3860, r1	; 0x803860 <simonCounter>
                    simonCounter = 0;
    2094:	86 e0       	ldi	r24, 0x06	; 6
                    simonNextGameState = BASTET_GAME_OUTRO;
    2096:	80 93 30 38 	sts	0x3830, r24	; 0x803830 <simonNextGameState>
    209a:	80 91 63 38 	lds	r24, 0x3863	; 0x803863 <simonInputPos>
                }

                if (simonInputPos >= BASTET_LENGTH || simonPos >= BASTET_LENGTH) { // beetje dubbel
    209e:	8c 30       	cpi	r24, 0x0C	; 12
    20a0:	20 f4       	brcc	.+8      	; 0x20aa <BastetDictates+0x216>
    20a2:	80 91 64 38 	lds	r24, 0x3864	; 0x803864 <simonPos>
    20a6:	8c 30       	cpi	r24, 0x0C	; 12
    20a8:	90 f0       	brcs	.+36     	; 0x20ce <BastetDictates+0x23a>
                    effect = 64|2;
    20aa:	82 e4       	ldi	r24, 0x42	; 66
    20ac:	90 e0       	ldi	r25, 0x00	; 0
    20ae:	80 93 3c 38 	sts	0x383C, r24	; 0x80383c <effect>
    20b2:	90 93 3d 38 	sts	0x383D, r25	; 0x80383d <effect+0x1>
                    UpdateState(BASTET_COMPLETED);
    20b6:	8a e7       	ldi	r24, 0x7A	; 122
    20b8:	97 d9       	rcall	.-3282   	; 0x13e8 <UpdateState>
    20ba:	10 92 62 38 	sts	0x3862, r1	; 0x803862 <simonTimer>
                    simonTimer = 0;
    20be:	10 92 60 38 	sts	0x3860, r1	; 0x803860 <simonCounter>
                    simonCounter = 0;
    20c2:	87 e0       	ldi	r24, 0x07	; 7
                    simonNextGameState = BASTET_GAME_OVER;
    20c4:	80 93 30 38 	sts	0x3830, r24	; 0x803830 <simonNextGameState>
    20c8:	02 c0       	rjmp	.+4      	; 0x20ce <BastetDictates+0x23a>
    20ca:	10 92 61 38 	sts	0x3861, r1	; 0x803861 <simonWait>
                }
            }
        
        //Button released, next or reset!
        } else {
            simonWait = 0;
    20ce:	80 91 62 38 	lds	r24, 0x3862	; 0x803862 <simonTimer>
        }

        if (simonTimer == 200) {    // did you forget about Bastet?
    20d2:	88 3c       	cpi	r24, 0xC8	; 200
    20d4:	41 f4       	brne	.+16     	; 0x20e6 <BastetDictates+0x252>
    20d6:	83 e0       	ldi	r24, 0x03	; 3
            simonGameState = BASTET_GAME_SHOW_PATTERN;
    20d8:	80 93 5f 38 	sts	0x385F, r24	; 0x80385f <simonGameState>
    20dc:	10 92 60 38 	sts	0x3860, r1	; 0x803860 <simonCounter>
            simonCounter = 0;
    20e0:	10 92 62 38 	sts	0x3862, r1	; 0x803862 <simonTimer>
            simonTimer = 0;
    20e4:	51 c0       	rjmp	.+162    	; 0x2188 <BastetDictates+0x2f4>
            return 0;
    20e6:	80 91 5f 38 	lds	r24, 0x385F	; 0x80385f <simonGameState>
        }
    }

    if (BASTET_GAME_WAIT_LEDS == simonGameState) {
    20ea:	84 30       	cpi	r24, 0x04	; 4
    20ec:	81 f4       	brne	.+32     	; 0x210e <BastetDictates+0x27a>
        if (simonTimer >= 7) {
    20ee:	80 91 62 38 	lds	r24, 0x3862	; 0x803862 <simonTimer>
    20f2:	87 30       	cpi	r24, 0x07	; 7
    20f4:	60 f0       	brcs	.+24     	; 0x210e <BastetDictates+0x27a>
            // on to next state after .5 second
            simonLed(0);  // LEDs off
    20f6:	80 e0       	ldi	r24, 0x00	; 0
    20f8:	4f de       	rcall	.-866    	; 0x1d98 <simonLed>
    20fa:	10 92 61 38 	sts	0x3861, r1	; 0x803861 <simonWait>
            simonWait = 0;
    20fe:	10 92 62 38 	sts	0x3862, r1	; 0x803862 <simonTimer>
            simonTimer = 0;
    2102:	10 92 60 38 	sts	0x3860, r1	; 0x803860 <simonCounter>
            simonCounter = 0;
    2106:	80 91 30 38 	lds	r24, 0x3830	; 0x803830 <simonNextGameState>
            simonGameState = simonNextGameState;
    210a:	80 93 5f 38 	sts	0x385F, r24	; 0x80385f <simonGameState>
    210e:	80 91 5f 38 	lds	r24, 0x385F	; 0x80385f <simonGameState>
        }
    }

    if (BASTET_GAME_OUTRO == simonGameState) {
    2112:	86 30       	cpi	r24, 0x06	; 6
    2114:	41 f5       	brne	.+80     	; 0x2166 <BastetDictates+0x2d2>
    2116:	80 91 62 38 	lds	r24, 0x3862	; 0x803862 <simonTimer>
        if (simonTimer > 3) {
    211a:	84 30       	cpi	r24, 0x04	; 4
    211c:	38 f0       	brcs	.+14     	; 0x212c <BastetDictates+0x298>
    211e:	80 91 60 38 	lds	r24, 0x3860	; 0x803860 <simonCounter>
            simonCounter++;
    2122:	8f 5f       	subi	r24, 0xFF	; 255
    2124:	80 93 60 38 	sts	0x3860, r24	; 0x803860 <simonCounter>
    2128:	10 92 62 38 	sts	0x3862, r1	; 0x803862 <simonTimer>
            simonTimer = 0;
    212c:	80 91 60 38 	lds	r24, 0x3860	; 0x803860 <simonCounter>
        }
        if (simonCounter > 5) {
    2130:	86 30       	cpi	r24, 0x06	; 6
    2132:	40 f0       	brcs	.+16     	; 0x2144 <BastetDictates+0x2b0>
    2134:	10 92 62 38 	sts	0x3862, r1	; 0x803862 <simonTimer>
            simonTimer = 0;
    2138:	10 92 60 38 	sts	0x3860, r1	; 0x803860 <simonCounter>
            simonCounter = 0;
    213c:	87 e0       	ldi	r24, 0x07	; 7
            simonGameState = BASTET_GAME_OVER;
    213e:	80 93 5f 38 	sts	0x385F, r24	; 0x80385f <simonGameState>
    2142:	22 c0       	rjmp	.+68     	; 0x2188 <BastetDictates+0x2f4>
            return 0;
    2144:	e5 e0       	ldi	r30, 0x05	; 5
        }
        iLED[HCKR[R][5-simonCounter]] = 0;
    2146:	f0 e0       	ldi	r31, 0x00	; 0
    2148:	e8 1b       	sub	r30, r24
    214a:	f1 09       	sbc	r31, r1
    214c:	e2 5d       	subi	r30, 0xD2	; 210
    214e:	f0 44       	sbci	r31, 0x40	; 64
    2150:	a0 81       	ld	r26, Z
    2152:	b0 e0       	ldi	r27, 0x00	; 0
    2154:	aa 53       	subi	r26, 0x3A	; 58
    2156:	b5 4c       	sbci	r27, 0xC5	; 197
    2158:	1c 92       	st	X, r1
    215a:	e6 81       	ldd	r30, Z+6	; 0x06
        iLED[HCKR[G][5-simonCounter]] = 0;
    215c:	f0 e0       	ldi	r31, 0x00	; 0
    215e:	ea 53       	subi	r30, 0x3A	; 58
    2160:	f5 4c       	sbci	r31, 0xC5	; 197
    2162:	10 82       	st	Z, r1
    2164:	0c c0       	rjmp	.+24     	; 0x217e <BastetDictates+0x2ea>
    2166:	87 30       	cpi	r24, 0x07	; 7
    }

    if (BASTET_GAME_OVER == simonGameState) {
    2168:	51 f4       	brne	.+20     	; 0x217e <BastetDictates+0x2ea>
        simonInputPos = 0;
    216a:	10 92 63 38 	sts	0x3863, r1	; 0x803863 <simonInputPos>
        simonPos = 0;
    216e:	10 92 64 38 	sts	0x3864, r1	; 0x803864 <simonPos>
        simonGameState = BASTET_BOOT; // BASTET_GAME_START for stale "field" s
    2172:	10 92 5f 38 	sts	0x385F, r1	; 0x80385f <simonGameState>
        gameNow = TEXT;
    2176:	10 92 3e 38 	sts	0x383E, r1	; 0x80383e <gameNow>
        simonLed(0);
    217a:	80 e0       	ldi	r24, 0x00	; 0
    217c:	0d de       	rcall	.-998    	; 0x1d98 <simonLed>
    217e:	80 91 62 38 	lds	r24, 0x3862	; 0x803862 <simonTimer>
    }

    ++simonTimer;
    2182:	8f 5f       	subi	r24, 0xFF	; 255
    2184:	80 93 62 38 	sts	0x3862, r24	; 0x803862 <simonTimer>
    2188:	80 e0       	ldi	r24, 0x00	; 0
    return 0;
}
    218a:	df 91       	pop	r29
    218c:	cf 91       	pop	r28
    218e:	08 95       	ret

00002190 <Cheat>:
    2190:	1f 93       	push	r17

//
void SetResponse(uint8_t number, uint16_t address, uint16_t length, uint8_t type){
    reactStr[0][number]=address;
    reactStr[1][number]=length;
    reactStr[2][number]=type;
    2192:	cf 93       	push	r28
    2194:	df 93       	push	r29
    2196:	cd b7       	in	r28, 0x3d	; 61
    2198:	de b7       	in	r29, 0x3e	; 62
    219a:	62 97       	sbiw	r28, 0x12	; 18
    219c:	cd bf       	out	0x3d, r28	; 61
    219e:	de bf       	out	0x3e, r29	; 62
    21a0:	8a 8b       	std	Y+18, r24	; 0x12
    21a2:	80 e1       	ldi	r24, 0x10	; 16
    21a4:	e4 ef       	ldi	r30, 0xF4	; 244
    21a6:	fe eb       	ldi	r31, 0xBE	; 190
    21a8:	de 01       	movw	r26, r28
    21aa:	11 96       	adiw	r26, 0x01	; 1
    21ac:	01 90       	ld	r0, Z+
    21ae:	0d 92       	st	X+, r0
    21b0:	8a 95       	dec	r24
    21b2:	e1 f7       	brne	.-8      	; 0x21ac <Cheat+0x1c>
    21b4:	fe 01       	movw	r30, r28
    21b6:	31 96       	adiw	r30, 0x01	; 1
    21b8:	90 e0       	ldi	r25, 0x00	; 0
    21ba:	8f ef       	ldi	r24, 0xFF	; 255
    21bc:	21 91       	ld	r18, Z+
    21be:	31 91       	ld	r19, Z+
    21c0:	26 17       	cp	r18, r22
    21c2:	37 07       	cpc	r19, r23
    21c4:	09 f4       	brne	.+2      	; 0x21c8 <Cheat+0x38>
    21c6:	89 2f       	mov	r24, r25
    21c8:	9f 5f       	subi	r25, 0xFF	; 255
    21ca:	98 30       	cpi	r25, 0x08	; 8
    21cc:	b9 f7       	brne	.-18     	; 0x21bc <Cheat+0x2c>
    21ce:	88 30       	cpi	r24, 0x08	; 8
    21d0:	10 f0       	brcs	.+4      	; 0x21d6 <Cheat+0x46>
    21d2:	80 e0       	ldi	r24, 0x00	; 0
    21d4:	14 c0       	rjmp	.+40     	; 0x21fe <Cheat+0x6e>
    21d6:	18 e1       	ldi	r17, 0x18	; 24
    21d8:	18 0f       	add	r17, r24
    21da:	41 e0       	ldi	r20, 0x01	; 1
    21dc:	be 01       	movw	r22, r28
    21de:	6f 5e       	subi	r22, 0xEF	; 239
    21e0:	7f 4f       	sbci	r23, 0xFF	; 255
    21e2:	81 2f       	mov	r24, r17
    21e4:	0e 94 f8 07 	call	0xff0	; 0xff0 <EERead>
    21e8:	89 89       	ldd	r24, Y+17	; 0x11
    21ea:	8f 3f       	cpi	r24, 0xFF	; 255
    21ec:	91 f7       	brne	.-28     	; 0x21d2 <Cheat+0x42>
    21ee:	41 e0       	ldi	r20, 0x01	; 1
    21f0:	be 01       	movw	r22, r28
    21f2:	6e 5e       	subi	r22, 0xEE	; 238
    21f4:	7f 4f       	sbci	r23, 0xFF	; 255
    21f6:	81 2f       	mov	r24, r17
    21f8:	0e 94 08 08 	call	0x1010	; 0x1010 <EEWrite>
    21fc:	81 e0       	ldi	r24, 0x01	; 1
    21fe:	62 96       	adiw	r28, 0x12	; 18
    2200:	cd bf       	out	0x3d, r28	; 61
    2202:	de bf       	out	0x3e, r29	; 62
    2204:	df 91       	pop	r29
    2206:	cf 91       	pop	r28
    2208:	1f 91       	pop	r17
    220a:	08 95       	ret

0000220c <UnflipData>:
    220c:	26 2f       	mov	r18, r22
    220e:	fb 01       	movw	r30, r22
    2210:	35 e5       	ldi	r19, 0x55	; 85
    2212:	9e 2f       	mov	r25, r30
    2214:	92 1b       	sub	r25, r18
    2216:	98 17       	cp	r25, r24
    2218:	28 f4       	brcc	.+10     	; 0x2224 <UnflipData+0x18>
    221a:	90 81       	ld	r25, Z
    221c:	92 95       	swap	r25
    221e:	93 27       	eor	r25, r19
    2220:	91 93       	st	Z+, r25
    2222:	f7 cf       	rjmp	.-18     	; 0x2212 <UnflipData+0x6>
    2224:	08 95       	ret

00002226 <ClearTxAfter>:
    2226:	8f 5f       	subi	r24, 0xFF	; 255
    2228:	88 30       	cpi	r24, 0x08	; 8
    222a:	30 f4       	brcc	.+12     	; 0x2238 <ClearTxAfter+0x12>
    222c:	e8 2f       	mov	r30, r24
    222e:	f0 e0       	ldi	r31, 0x00	; 0
    2230:	e5 5b       	subi	r30, 0xB5	; 181
    2232:	f5 4c       	sbci	r31, 0xC5	; 197
    2234:	10 82       	st	Z, r1
    2236:	f7 cf       	rjmp	.-18     	; 0x2226 <ClearTxAfter>
    2238:	08 95       	ret

0000223a <StartsWith>:
    223a:	ac 01       	movw	r20, r24
    223c:	90 e0       	ldi	r25, 0x00	; 0
    223e:	e9 2f       	mov	r30, r25
    2240:	f0 e0       	ldi	r31, 0x00	; 0
    2242:	da 01       	movw	r26, r20
    2244:	ae 0f       	add	r26, r30
    2246:	bf 1f       	adc	r27, r31
    2248:	3c 91       	ld	r19, X
    224a:	e6 0f       	add	r30, r22
    224c:	f7 1f       	adc	r31, r23
    224e:	31 11       	cpse	r19, r1
    2250:	05 c0       	rjmp	.+10     	; 0x225c <StartsWith+0x22>
    2252:	81 e0       	ldi	r24, 0x01	; 1
    2254:	90 81       	ld	r25, Z
    2256:	99 23       	and	r25, r25
    2258:	49 f0       	breq	.+18     	; 0x226c <StartsWith+0x32>
    225a:	07 c0       	rjmp	.+14     	; 0x226a <StartsWith+0x30>
    225c:	20 81       	ld	r18, Z
    225e:	22 23       	and	r18, r18
    2260:	c1 f3       	breq	.-16     	; 0x2252 <StartsWith+0x18>
    2262:	32 13       	cpse	r19, r18
    2264:	02 c0       	rjmp	.+4      	; 0x226a <StartsWith+0x30>
    2266:	9f 5f       	subi	r25, 0xFF	; 255
    2268:	ea cf       	rjmp	.-44     	; 0x223e <StartsWith+0x4>
    226a:	80 e0       	ldi	r24, 0x00	; 0
    226c:	08 95       	ret

0000226e <PrepareSending>:
    226e:	cf 93       	push	r28
    2270:	df 93       	push	r29
    2272:	fc 01       	movw	r30, r24
    2274:	61 15       	cp	r22, r1
    2276:	71 05       	cpc	r23, r1
    2278:	59 f1       	breq	.+86     	; 0x22d0 <PrepareSending+0x62>
    227a:	a3 e5       	ldi	r26, 0x53	; 83
    227c:	ba e3       	ldi	r27, 0x3A	; 58
    227e:	cb e4       	ldi	r28, 0x4B	; 75
    2280:	da e3       	ldi	r29, 0x3A	; 58
    2282:	80 e0       	ldi	r24, 0x00	; 0
    2284:	9f ef       	ldi	r25, 0xFF	; 255
    2286:	6f 3f       	cpi	r22, 0xFF	; 255
    2288:	71 05       	cpc	r23, r1
    228a:	69 f0       	breq	.+26     	; 0x22a6 <PrepareSending+0x38>
    228c:	60 f0       	brcs	.+24     	; 0x22a6 <PrepareSending+0x38>
    228e:	ed 93       	st	X+, r30
    2290:	fd 93       	st	X+, r31
    2292:	99 93       	st	Y+, r25
    2294:	e1 50       	subi	r30, 0x01	; 1
    2296:	ff 4f       	sbci	r31, 0xFF	; 255
    2298:	6f 5f       	subi	r22, 0xFF	; 255
    229a:	71 09       	sbc	r23, r1
    229c:	8f 5f       	subi	r24, 0xFF	; 255
    229e:	87 30       	cpi	r24, 0x07	; 7
    22a0:	91 f7       	brne	.-28     	; 0x2286 <PrepareSending+0x18>
    22a2:	81 e0       	ldi	r24, 0x01	; 1
    22a4:	1e c0       	rjmp	.+60     	; 0x22e2 <PrepareSending+0x74>
    22a6:	28 2f       	mov	r18, r24
    22a8:	30 e0       	ldi	r19, 0x00	; 0
    22aa:	d9 01       	movw	r26, r18
    22ac:	aa 0f       	add	r26, r26
    22ae:	bb 1f       	adc	r27, r27
    22b0:	ad 5a       	subi	r26, 0xAD	; 173
    22b2:	b5 4c       	sbci	r27, 0xC5	; 197
    22b4:	ed 93       	st	X+, r30
    22b6:	fc 93       	st	X, r31
    22b8:	6f 3f       	cpi	r22, 0xFF	; 255
    22ba:	71 05       	cpc	r23, r1
    22bc:	11 f4       	brne	.+4      	; 0x22c2 <PrepareSending+0x54>
    22be:	6e ef       	ldi	r22, 0xFE	; 254
    22c0:	70 e0       	ldi	r23, 0x00	; 0
    22c2:	f9 01       	movw	r30, r18
    22c4:	e5 5b       	subi	r30, 0xB5	; 181
    22c6:	f5 4c       	sbci	r31, 0xC5	; 197
    22c8:	60 83       	st	Z, r22
    22ca:	40 93 49 3a 	sts	0x3A49, r20	; 0x803a49 <txTypeNow>
    22ce:	05 c0       	rjmp	.+10     	; 0x22da <PrepareSending+0x6c>
    22d0:	10 92 53 3a 	sts	0x3A53, r1	; 0x803a53 <txAddrList>
    22d4:	10 92 54 3a 	sts	0x3A54, r1	; 0x803a54 <txAddrList+0x1>
    22d8:	80 e0       	ldi	r24, 0x00	; 0
    22da:	a5 df       	rcall	.-182    	; 0x2226 <ClearTxAfter>
    22dc:	10 92 4a 3a 	sts	0x3A4A, r1	; 0x803a4a <txAddrNow>
    22e0:	80 e0       	ldi	r24, 0x00	; 0
    22e2:	df 91       	pop	r29
    22e4:	cf 91       	pop	r28
    22e6:	08 95       	ret

000022e8 <SetStandardResponse>:
}

//
uint8_t SetStandardResponse(uint8_t custStrEnd){
    22e8:	cf 93       	push	r28
    22ea:	df 93       	push	r29
    return 0;
}

//
void SetResponse(uint8_t number, uint16_t address, uint16_t length, uint8_t type){
    reactStr[0][number]=address;
    22ec:	28 2f       	mov	r18, r24
    22ee:	30 e0       	ldi	r19, 0x00	; 0
    22f0:	f9 01       	movw	r30, r18
    22f2:	ee 0f       	add	r30, r30
    22f4:	ff 1f       	adc	r31, r31
    22f6:	e2 5e       	subi	r30, 0xE2	; 226
    22f8:	f6 4c       	sbci	r31, 0xC6	; 198
    22fa:	a9 e5       	ldi	r26, 0x59	; 89
    22fc:	ba e7       	ldi	r27, 0x7A	; 122
    22fe:	a0 83       	st	Z, r26
    2300:	b1 83       	std	Z+1, r27	; 0x01
    reactStr[1][number]=length;
    2302:	f9 01       	movw	r30, r18
    2304:	ee 0f       	add	r30, r30
    2306:	ff 1f       	adc	r31, r31
    2308:	e2 5a       	subi	r30, 0xA2	; 162
    230a:	f6 4c       	sbci	r31, 0xC6	; 198
    230c:	62 e0       	ldi	r22, 0x02	; 2
    230e:	70 e0       	ldi	r23, 0x00	; 0
    2310:	60 83       	st	Z, r22
    2312:	71 83       	std	Z+1, r23	; 0x01
    reactStr[2][number]=type;
    2314:	22 0f       	add	r18, r18
    2316:	33 1f       	adc	r19, r19
    2318:	f9 01       	movw	r30, r18
    231a:	e2 56       	subi	r30, 0x62	; 98
    231c:	f6 4c       	sbci	r31, 0xC6	; 198
    231e:	41 e0       	ldi	r20, 0x01	; 1
    2320:	50 e0       	ldi	r21, 0x00	; 0
    2322:	40 83       	st	Z, r20
    2324:	51 83       	std	Z+1, r21	; 0x01
    return 0;
}

//
void SetResponse(uint8_t number, uint16_t address, uint16_t length, uint8_t type){
    reactStr[0][number]=address;
    2326:	21 e0       	ldi	r18, 0x01	; 1
    2328:	28 0f       	add	r18, r24
    232a:	30 e0       	ldi	r19, 0x00	; 0
    232c:	f9 01       	movw	r30, r18
    232e:	ee 0f       	add	r30, r30
    2330:	ff 1f       	adc	r31, r31
    2332:	e2 5e       	subi	r30, 0xE2	; 226
    2334:	f6 4c       	sbci	r31, 0xC6	; 198
    2336:	c2 e6       	ldi	r28, 0x62	; 98
    2338:	da e7       	ldi	r29, 0x7A	; 122
    233a:	c0 83       	st	Z, r28
    233c:	d1 83       	std	Z+1, r29	; 0x01
    reactStr[1][number]=length;
    233e:	f9 01       	movw	r30, r18
    2340:	ee 0f       	add	r30, r30
    2342:	ff 1f       	adc	r31, r31
    2344:	e2 5a       	subi	r30, 0xA2	; 162
    2346:	f6 4c       	sbci	r31, 0xC6	; 198
    2348:	cc e0       	ldi	r28, 0x0C	; 12
    234a:	d0 e0       	ldi	r29, 0x00	; 0
    234c:	c0 83       	st	Z, r28
    234e:	d1 83       	std	Z+1, r29	; 0x01
    reactStr[2][number]=type;
    2350:	22 0f       	add	r18, r18
    2352:	33 1f       	adc	r19, r19
    2354:	f9 01       	movw	r30, r18
    2356:	e2 56       	subi	r30, 0x62	; 98
    2358:	f6 4c       	sbci	r31, 0xC6	; 198
    235a:	40 83       	st	Z, r20
    235c:	51 83       	std	Z+1, r21	; 0x01
//
uint8_t SetStandardResponse(uint8_t custStrEnd){

    SetResponse(custStrEnd++, A_LF, 2, TEASER);
    SetResponse(custStrEnd++, A_LOCATION, L_LOCATION, TEASER);
    reactStr[0][custStrEnd++] = CURR_LOC;
    235e:	e2 e0       	ldi	r30, 0x02	; 2
    2360:	e8 0f       	add	r30, r24
    2362:	f0 e0       	ldi	r31, 0x00	; 0
    2364:	ee 0f       	add	r30, r30
    2366:	ff 1f       	adc	r31, r31
    2368:	e2 5e       	subi	r30, 0xE2	; 226
    236a:	f6 4c       	sbci	r31, 0xC6	; 198
    236c:	20 ef       	ldi	r18, 0xF0	; 240
    236e:	3f ef       	ldi	r19, 0xFF	; 255
    2370:	20 83       	st	Z, r18
    2372:	31 83       	std	Z+1, r19	; 0x01
    return 0;
}

//
void SetResponse(uint8_t number, uint16_t address, uint16_t length, uint8_t type){
    reactStr[0][number]=address;
    2374:	23 e0       	ldi	r18, 0x03	; 3
    2376:	28 0f       	add	r18, r24
    2378:	30 e0       	ldi	r19, 0x00	; 0
    237a:	f9 01       	movw	r30, r18
    237c:	ee 0f       	add	r30, r30
    237e:	ff 1f       	adc	r31, r31
    2380:	e2 5e       	subi	r30, 0xE2	; 226
    2382:	f6 4c       	sbci	r31, 0xC6	; 198
    2384:	a0 83       	st	Z, r26
    2386:	b1 83       	std	Z+1, r27	; 0x01
    reactStr[1][number]=length;
    2388:	f9 01       	movw	r30, r18
    238a:	ee 0f       	add	r30, r30
    238c:	ff 1f       	adc	r31, r31
    238e:	e2 5a       	subi	r30, 0xA2	; 162
    2390:	f6 4c       	sbci	r31, 0xC6	; 198
    2392:	60 83       	st	Z, r22
    2394:	71 83       	std	Z+1, r23	; 0x01
    reactStr[2][number]=type;
    2396:	22 0f       	add	r18, r18
    2398:	33 1f       	adc	r19, r19
    239a:	f9 01       	movw	r30, r18
    239c:	e2 56       	subi	r30, 0x62	; 98
    239e:	f6 4c       	sbci	r31, 0xC6	; 198
    23a0:	40 83       	st	Z, r20
    23a2:	51 83       	std	Z+1, r21	; 0x01
    return 0;
}

//
void SetResponse(uint8_t number, uint16_t address, uint16_t length, uint8_t type){
    reactStr[0][number]=address;
    23a4:	24 e0       	ldi	r18, 0x04	; 4
    23a6:	28 0f       	add	r18, r24
    23a8:	30 e0       	ldi	r19, 0x00	; 0
    23aa:	f9 01       	movw	r30, r18
    23ac:	ee 0f       	add	r30, r30
    23ae:	ff 1f       	adc	r31, r31
    23b0:	e2 5e       	subi	r30, 0xE2	; 226
    23b2:	f6 4c       	sbci	r31, 0xC6	; 198
    23b4:	a5 e5       	ldi	r26, 0x55	; 85
    23b6:	ba e7       	ldi	r27, 0x7A	; 122
    23b8:	a0 83       	st	Z, r26
    23ba:	b1 83       	std	Z+1, r27	; 0x01
    reactStr[1][number]=length;
    23bc:	f9 01       	movw	r30, r18
    23be:	ee 0f       	add	r30, r30
    23c0:	ff 1f       	adc	r31, r31
    23c2:	e2 5a       	subi	r30, 0xA2	; 162
    23c4:	f6 4c       	sbci	r31, 0xC6	; 198
    23c6:	60 83       	st	Z, r22
    23c8:	71 83       	std	Z+1, r23	; 0x01
    reactStr[2][number]=type;
    23ca:	22 0f       	add	r18, r18
    23cc:	33 1f       	adc	r19, r19
    23ce:	f9 01       	movw	r30, r18
    23d0:	e2 56       	subi	r30, 0x62	; 98
    23d2:	f6 4c       	sbci	r31, 0xC6	; 198
    23d4:	40 83       	st	Z, r20
    23d6:	51 83       	std	Z+1, r21	; 0x01
    reactStr[0][custStrEnd++] = CURR_LOC;
    SetResponse(custStrEnd++, A_LF, 2, TEASER);
    SetResponse(custStrEnd++, A_PROMPT, L_PROMPT, TEASER);

    return custStrEnd;
}
    23d8:	8b 5f       	subi	r24, 0xFB	; 251
    23da:	df 91       	pop	r29
    23dc:	cf 91       	pop	r28
    23de:	08 95       	ret

000023e0 <PopulateObject>:

//Get all the relevant data and string addresses of an object
void PopulateObject(uint16_t offset, object_model_t *object){
    23e0:	af 92       	push	r10
    23e2:	bf 92       	push	r11
    23e4:	df 92       	push	r13
    23e6:	ef 92       	push	r14
    23e8:	ff 92       	push	r15
    23ea:	0f 93       	push	r16
    23ec:	1f 93       	push	r17
    23ee:	cf 93       	push	r28
    23f0:	df 93       	push	r29
    23f2:	cd b7       	in	r28, 0x3d	; 61
    23f4:	de b7       	in	r29, 0x3e	; 62
    23f6:	2c 97       	sbiw	r28, 0x0c	; 12
    23f8:	cd bf       	out	0x3d, r28	; 61
    23fa:	de bf       	out	0x3e, r29	; 62
    23fc:	7c 01       	movw	r14, r24
    23fe:	8b 01       	movw	r16, r22
    uint16_t parStr;
    offset += L_BOILER;

    //Fill things with fixed distance to offset
    uint8_t data[OFF_STRINGFLDS];
    ExtEERead(offset, OFF_STRINGFLDS, GAME, &data[0]);
    2400:	9e 01       	movw	r18, r28
    2402:	2f 5f       	subi	r18, 0xFF	; 255
    2404:	3f 4f       	sbci	r19, 0xFF	; 255
    2406:	40 e0       	ldi	r20, 0x00	; 0
    2408:	6c e0       	ldi	r22, 0x0C	; 12
    240a:	80 96       	adiw	r24, 0x20	; 32
    240c:	0e 94 4a 08 	call	0x1094	; 0x1094 <ExtEERead>
    object->addrNextObj = (data[OFF_NEXTOBJ]<<8|data[OFF_NEXTOBJ+1])+L_BOILER;
    2410:	89 81       	ldd	r24, Y+1	; 0x01
    2412:	9a 81       	ldd	r25, Y+2	; 0x02
    2414:	98 27       	eor	r25, r24
    2416:	89 27       	eor	r24, r25
    2418:	98 27       	eor	r25, r24
    241a:	80 96       	adiw	r24, 0x20	; 32
    241c:	f8 01       	movw	r30, r16
    241e:	80 83       	st	Z, r24
    2420:	91 83       	std	Z+1, r25	; 0x01
    object->addrNextLvl = (data[OFF_NEXTLVL]<<8|data[OFF_NEXTLVL+1])+L_BOILER;
    2422:	8b 81       	ldd	r24, Y+3	; 0x03
    2424:	9c 81       	ldd	r25, Y+4	; 0x04
    2426:	98 27       	eor	r25, r24
    2428:	89 27       	eor	r24, r25
    242a:	98 27       	eor	r25, r24
    242c:	80 96       	adiw	r24, 0x20	; 32
    242e:	82 83       	std	Z+2, r24	; 0x02
    2430:	93 83       	std	Z+3, r25	; 0x03
    2432:	de 01       	movw	r26, r28
    2434:	15 96       	adiw	r26, 0x05	; 5
    2436:	34 96       	adiw	r30, 0x04	; 4
    2438:	c8 01       	movw	r24, r16
    243a:	0c 96       	adiw	r24, 0x0c	; 12
    for (uint8_t x=0; x<BYTE_FIELDS_LEN; ++x){
        object->byteField[x]=data[x+OFF_BYTEFLDS];
    243c:	2d 91       	ld	r18, X+
    243e:	21 93       	st	Z+, r18
    //Fill things with fixed distance to offset
    uint8_t data[OFF_STRINGFLDS];
    ExtEERead(offset, OFF_STRINGFLDS, GAME, &data[0]);
    object->addrNextObj = (data[OFF_NEXTOBJ]<<8|data[OFF_NEXTOBJ+1])+L_BOILER;
    object->addrNextLvl = (data[OFF_NEXTLVL]<<8|data[OFF_NEXTLVL+1])+L_BOILER;
    for (uint8_t x=0; x<BYTE_FIELDS_LEN; ++x){
    2440:	e8 17       	cp	r30, r24
    2442:	f9 07       	cpc	r31, r25
    2444:	d9 f7       	brne	.-10     	; 0x243c <PopulateObject+0x5c>
        object->byteField[x]=data[x+OFF_BYTEFLDS];
    }

    //Find out where all of the strings begin and how long they are
    offset += OFF_STRINGFLDS;
    2446:	fc e2       	ldi	r31, 0x2C	; 44
    2448:	ef 0e       	add	r14, r31
    244a:	f1 1c       	adc	r15, r1
    244c:	58 01       	movw	r10, r16
    for(uint8_t x=0; x<STRING_FIELDS_LEN; ++x){
    244e:	d1 2c       	mov	r13, r1
        
        //Determine length
        ExtEERead(offset, 3, GAME, &data[0]);
    2450:	9e 01       	movw	r18, r28
    2452:	2f 5f       	subi	r18, 0xFF	; 255
    2454:	3f 4f       	sbci	r19, 0xFF	; 255
    2456:	40 e0       	ldi	r20, 0x00	; 0
    2458:	63 e0       	ldi	r22, 0x03	; 3
    245a:	c7 01       	movw	r24, r14
    245c:	0e 94 4a 08 	call	0x1094	; 0x1094 <ExtEERead>
    2460:	89 81       	ldd	r24, Y+1	; 0x01
    2462:	9a 81       	ldd	r25, Y+2	; 0x02
    2464:	98 27       	eor	r25, r24
    2466:	89 27       	eor	r24, r25
    2468:	98 27       	eor	r25, r24
        parStr = (data[0]<<8|data[1]);
        offset += 2;
    246a:	97 01       	movw	r18, r14
    246c:	2e 5f       	subi	r18, 0xFE	; 254
    246e:	3f 4f       	sbci	r19, 0xFF	; 255
        if (x >= OPEN_ACL_MSG){
    2470:	43 e0       	ldi	r20, 0x03	; 3
    2472:	4d 15       	cp	r20, r13
    2474:	80 f4       	brcc	.+32     	; 0x2496 <PopulateObject+0xb6>
            object->lenStr[x]= parStr-1;
    2476:	ac 01       	movw	r20, r24
    2478:	41 50       	subi	r20, 0x01	; 1
    247a:	51 09       	sbc	r21, r1
    247c:	f8 01       	movw	r30, r16
    247e:	42 8f       	std	Z+26, r20	; 0x1a
    2480:	53 8f       	std	Z+27, r21	; 0x1b
            object->addrStr[x]=offset+1;
    2482:	f3 e0       	ldi	r31, 0x03	; 3
    2484:	ef 0e       	add	r14, r31
    2486:	f1 1c       	adc	r15, r1
    2488:	f8 01       	movw	r30, r16
    248a:	e4 86       	std	Z+12, r14	; 0x0c
    248c:	f5 86       	std	Z+13, r15	; 0x0d
            object->effect[x-OPEN_ACL_MSG] = data[2];
    248e:	4b 81       	ldd	r20, Y+3	; 0x03
    2490:	f5 01       	movw	r30, r10
    2492:	44 a3       	std	Z+36, r20	; 0x24
    2494:	05 c0       	rjmp	.+10     	; 0x24a0 <PopulateObject+0xc0>
        } else {
            object->lenStr[x]= parStr;
    2496:	f8 01       	movw	r30, r16
    2498:	82 8f       	std	Z+26, r24	; 0x1a
    249a:	93 8f       	std	Z+27, r25	; 0x1b
            object->addrStr[x]=offset;
    249c:	24 87       	std	Z+12, r18	; 0x0c
    249e:	35 87       	std	Z+13, r19	; 0x0d
        }
        
        //Determine string start location for next field
        offset += parStr;
    24a0:	7c 01       	movw	r14, r24
    24a2:	e2 0e       	add	r14, r18
    24a4:	f3 1e       	adc	r15, r19
        object->byteField[x]=data[x+OFF_BYTEFLDS];
    }

    //Find out where all of the strings begin and how long they are
    offset += OFF_STRINGFLDS;
    for(uint8_t x=0; x<STRING_FIELDS_LEN; ++x){
    24a6:	d3 94       	inc	r13
    24a8:	0e 5f       	subi	r16, 0xFE	; 254
    24aa:	1f 4f       	sbci	r17, 0xFF	; 255
    24ac:	ff ef       	ldi	r31, 0xFF	; 255
    24ae:	af 1a       	sub	r10, r31
    24b0:	bf 0a       	sbc	r11, r31
    24b2:	47 e0       	ldi	r20, 0x07	; 7
    24b4:	d4 12       	cpse	r13, r20
    24b6:	cc cf       	rjmp	.-104    	; 0x2450 <PopulateObject+0x70>
        }
        
        //Determine string start location for next field
        offset += parStr;
    }    
}
    24b8:	2c 96       	adiw	r28, 0x0c	; 12
    24ba:	cd bf       	out	0x3d, r28	; 61
    24bc:	de bf       	out	0x3e, r29	; 62
    24be:	df 91       	pop	r29
    24c0:	cf 91       	pop	r28
    24c2:	1f 91       	pop	r17
    24c4:	0f 91       	pop	r16
    24c6:	ff 90       	pop	r15
    24c8:	ef 90       	pop	r14
    24ca:	df 90       	pop	r13
    24cc:	bf 90       	pop	r11
    24ce:	af 90       	pop	r10
    24d0:	08 95       	ret

000024d2 <CheckLetter>:

//Check if the entered letter corresponds with a name
uint8_t CheckLetter(uint16_t object, uint8_t letter){
    24d2:	cf 92       	push	r12
    24d4:	df 92       	push	r13
    24d6:	ef 92       	push	r14
    24d8:	ff 92       	push	r15
    24da:	0f 93       	push	r16
    24dc:	1f 93       	push	r17
    24de:	cf 93       	push	r28
    24e0:	df 93       	push	r29
    24e2:	cd b7       	in	r28, 0x3d	; 61
    24e4:	de b7       	in	r29, 0x3e	; 62
    24e6:	a0 97       	sbiw	r28, 0x20	; 32
    24e8:	cd bf       	out	0x3d, r28	; 61
    24ea:	de bf       	out	0x3e, r29	; 62
    24ec:	c6 2e       	mov	r12, r22
    
    uint8_t found = 0;
    uint8_t data[32];

    object += L_BOILER;
    24ee:	7c 01       	movw	r14, r24
    24f0:	20 e2       	ldi	r18, 0x20	; 32
    24f2:	e2 0e       	add	r14, r18
    24f4:	f1 1c       	adc	r15, r1
    ExtEERead(object+OFF_STRINGFLDS, 2, GAME, &data[0]);
    24f6:	9e 01       	movw	r18, r28
    24f8:	2f 5f       	subi	r18, 0xFF	; 255
    24fa:	3f 4f       	sbci	r19, 0xFF	; 255
    24fc:	40 e0       	ldi	r20, 0x00	; 0
    24fe:	62 e0       	ldi	r22, 0x02	; 2
    2500:	8c 96       	adiw	r24, 0x2c	; 44
    2502:	0e 94 4a 08 	call	0x1094	; 0x1094 <ExtEERead>
    uint8_t x = data[1]; //Assuming a name is not longer than 255 characters.
    2506:	1a 81       	ldd	r17, Y+2	; 0x02
}

//Check if the entered letter corresponds with a name
uint8_t CheckLetter(uint16_t object, uint8_t letter){
    
    uint8_t found = 0;
    2508:	d1 2c       	mov	r13, r1

    object += L_BOILER;
    ExtEERead(object+OFF_STRINGFLDS, 2, GAME, &data[0]);
    uint8_t x = data[1]; //Assuming a name is not longer than 255 characters.

    while (x){
    250a:	11 23       	and	r17, r17
    250c:	59 f1       	breq	.+86     	; 0x2564 <CheckLetter+0x92>
    250e:	01 2f       	mov	r16, r17
    2510:	11 32       	cpi	r17, 0x21	; 33
    2512:	08 f0       	brcs	.+2      	; 0x2516 <CheckLetter+0x44>
    2514:	00 e2       	ldi	r16, 0x20	; 32
        uint8_t max;
        if (x>32) max = 32; else max = x;
        ExtEERead(object+OFF_STRINGFLDS+2, max, GAME, &data[0]);
    2516:	9e 01       	movw	r18, r28
    2518:	2f 5f       	subi	r18, 0xFF	; 255
    251a:	3f 4f       	sbci	r19, 0xFF	; 255
    251c:	40 e0       	ldi	r20, 0x00	; 0
    251e:	60 2f       	mov	r22, r16
    2520:	c7 01       	movw	r24, r14
    2522:	0e 96       	adiw	r24, 0x0e	; 14
    2524:	0e 94 4a 08 	call	0x1094	; 0x1094 <ExtEERead>
    2528:	fe 01       	movw	r30, r28
    252a:	31 96       	adiw	r30, 0x01	; 1
        for (uint8_t y=0; y<max; ++y){
    252c:	80 e0       	ldi	r24, 0x00	; 0
            if (found){
    252e:	dd 20       	and	r13, r13
    2530:	61 f0       	breq	.+24     	; 0x254a <CheckLetter+0x78>
                if ((data[y]|0x20) == letter) return 1; else return 0;
    2532:	e1 e0       	ldi	r30, 0x01	; 1
    2534:	f0 e0       	ldi	r31, 0x00	; 0
    2536:	ec 0f       	add	r30, r28
    2538:	fd 1f       	adc	r31, r29
    253a:	e8 0f       	add	r30, r24
    253c:	f1 1d       	adc	r31, r1
    253e:	90 81       	ld	r25, Z
    2540:	90 62       	ori	r25, 0x20	; 32
    2542:	81 e0       	ldi	r24, 0x01	; 1
    2544:	9c 11       	cpse	r25, r12
    2546:	0e c0       	rjmp	.+28     	; 0x2564 <CheckLetter+0x92>
    2548:	0e c0       	rjmp	.+28     	; 0x2566 <CheckLetter+0x94>
            }
            if (data[y] == '[') found = 1;
    254a:	91 91       	ld	r25, Z+
    254c:	dd 24       	eor	r13, r13
    254e:	d3 94       	inc	r13
    2550:	9b 35       	cpi	r25, 0x5B	; 91
    2552:	09 f0       	breq	.+2      	; 0x2556 <CheckLetter+0x84>
    2554:	d1 2c       	mov	r13, r1

    while (x){
        uint8_t max;
        if (x>32) max = 32; else max = x;
        ExtEERead(object+OFF_STRINGFLDS+2, max, GAME, &data[0]);
        for (uint8_t y=0; y<max; ++y){
    2556:	8f 5f       	subi	r24, 0xFF	; 255
    2558:	80 17       	cp	r24, r16
    255a:	48 f3       	brcs	.-46     	; 0x252e <CheckLetter+0x5c>
            if (found){
                if ((data[y]|0x20) == letter) return 1; else return 0;
            }
            if (data[y] == '[') found = 1;
        }
        object += max;
    255c:	e0 0e       	add	r14, r16
    255e:	f1 1c       	adc	r15, r1
        x -= max;
    2560:	10 1b       	sub	r17, r16
    2562:	d3 cf       	rjmp	.-90     	; 0x250a <CheckLetter+0x38>
    }
    return 0;
    2564:	80 e0       	ldi	r24, 0x00	; 0
}
    2566:	a0 96       	adiw	r28, 0x20	; 32
    2568:	cd bf       	out	0x3d, r28	; 61
    256a:	de bf       	out	0x3e, r29	; 62
    256c:	df 91       	pop	r29
    256e:	cf 91       	pop	r28
    2570:	1f 91       	pop	r17
    2572:	0f 91       	pop	r16
    2574:	ff 90       	pop	r15
    2576:	ef 90       	pop	r14
    2578:	df 90       	pop	r13
    257a:	cf 90       	pop	r12
    257c:	08 95       	ret

0000257e <FindChild>:

//Returns the child's address if the child is visible and the search letter matches
uint16_t FindChild(uint16_t parent, uint8_t letter, uint16_t start){
    257e:	af 92       	push	r10
    2580:	bf 92       	push	r11
    2582:	df 92       	push	r13
    2584:	ef 92       	push	r14
    2586:	ff 92       	push	r15
    2588:	0f 93       	push	r16
    258a:	1f 93       	push	r17
    258c:	cf 93       	push	r28
    258e:	df 93       	push	r29
    2590:	00 d0       	rcall	.+0      	; 0x2592 <FindChild+0x14>
    2592:	00 d0       	rcall	.+0      	; 0x2594 <FindChild+0x16>
    2594:	cd b7       	in	r28, 0x3d	; 61
    2596:	de b7       	in	r29, 0x3e	; 62
    2598:	d6 2e       	mov	r13, r22
    259a:	5a 01       	movw	r10, r20
    
    uint16_t child = parent;
    uint8_t data[4];

    ExtEERead(child+L_BOILER, 4, GAME, &data[0]);
    259c:	9e 01       	movw	r18, r28
    259e:	2f 5f       	subi	r18, 0xFF	; 255
    25a0:	3f 4f       	sbci	r19, 0xFF	; 255
    25a2:	40 e0       	ldi	r20, 0x00	; 0
    25a4:	64 e0       	ldi	r22, 0x04	; 4
    25a6:	80 96       	adiw	r24, 0x20	; 32
    25a8:	0e 94 4a 08 	call	0x1094	; 0x1094 <ExtEERead>
    25ac:	e9 80       	ldd	r14, Y+1	; 0x01
    25ae:	fa 80       	ldd	r15, Y+2	; 0x02
    25b0:	fe 24       	eor	r15, r14
    25b2:	ef 24       	eor	r14, r15
    25b4:	fe 24       	eor	r15, r14
    25b6:	0b 81       	ldd	r16, Y+3	; 0x03
    25b8:	1c 81       	ldd	r17, Y+4	; 0x04
    25ba:	10 27       	eor	r17, r16
    25bc:	01 27       	eor	r16, r17
    25be:	10 27       	eor	r17, r16
    parent = (data[0]<<8|data[1]);    //Next object on parent level
    child =  (data[2]<<8|data[3]);    //First object on child level

    //As long as the child is within the parent's range
    while (parent>child){
    25c0:	0e 15       	cp	r16, r14
    25c2:	1f 05       	cpc	r17, r15
    25c4:	48 f5       	brcc	.+82     	; 0x2618 <FindChild+0x9a>

        //If child's address is higher than the start address, perform search for letter
        if (child>start){
    25c6:	a0 16       	cp	r10, r16
    25c8:	b1 06       	cpc	r11, r17
    25ca:	60 f0       	brcs	.+24     	; 0x25e4 <FindChild+0x66>
                if ((letter == 0)||(CheckLetter(child, letter))) return child;
            }
        }

        //Not visible or name not right
        ExtEERead(child+L_BOILER, 2, GAME, &data[0]);
    25cc:	9e 01       	movw	r18, r28
    25ce:	2f 5f       	subi	r18, 0xFF	; 255
    25d0:	3f 4f       	sbci	r19, 0xFF	; 255
    25d2:	40 e0       	ldi	r20, 0x00	; 0
    25d4:	62 e0       	ldi	r22, 0x02	; 2
    25d6:	c8 01       	movw	r24, r16
    25d8:	80 96       	adiw	r24, 0x20	; 32
    25da:	0e 94 4a 08 	call	0x1094	; 0x1094 <ExtEERead>
    25de:	09 81       	ldd	r16, Y+1	; 0x01
    25e0:	1a 81       	ldd	r17, Y+2	; 0x02
    25e2:	eb cf       	rjmp	.-42     	; 0x25ba <FindChild+0x3c>
    //As long as the child is within the parent's range
    while (parent>child){

        //If child's address is higher than the start address, perform search for letter
        if (child>start){
            ExtEERead(child+OFF_BYTEFLDS+VISIBLE_ACL+L_BOILER, 1, GAME, &data[0]);
    25e4:	9e 01       	movw	r18, r28
    25e6:	2f 5f       	subi	r18, 0xFF	; 255
    25e8:	3f 4f       	sbci	r19, 0xFF	; 255
    25ea:	40 e0       	ldi	r20, 0x00	; 0
    25ec:	61 e0       	ldi	r22, 0x01	; 1
    25ee:	c8 01       	movw	r24, r16
    25f0:	85 96       	adiw	r24, 0x25	; 37
    25f2:	0e 94 4a 08 	call	0x1094	; 0x1094 <ExtEERead>
            if ((data[0] == 0)||(CheckState(data[0]))) {
    25f6:	89 81       	ldd	r24, Y+1	; 0x01
    25f8:	81 11       	cpse	r24, r1
    25fa:	03 c0       	rjmp	.+6      	; 0x2602 <FindChild+0x84>
                if ((letter == 0)||(CheckLetter(child, letter))) return child;
    25fc:	d1 10       	cpse	r13, r1
    25fe:	06 c0       	rjmp	.+12     	; 0x260c <FindChild+0x8e>
    2600:	0e c0       	rjmp	.+28     	; 0x261e <FindChild+0xa0>
    while (parent>child){

        //If child's address is higher than the start address, perform search for letter
        if (child>start){
            ExtEERead(child+OFF_BYTEFLDS+VISIBLE_ACL+L_BOILER, 1, GAME, &data[0]);
            if ((data[0] == 0)||(CheckState(data[0]))) {
    2602:	0e 94 15 0a 	call	0x142a	; 0x142a <CheckState>
    2606:	81 11       	cpse	r24, r1
    2608:	f9 cf       	rjmp	.-14     	; 0x25fc <FindChild+0x7e>
    260a:	e0 cf       	rjmp	.-64     	; 0x25cc <FindChild+0x4e>
                if ((letter == 0)||(CheckLetter(child, letter))) return child;
    260c:	6d 2d       	mov	r22, r13
    260e:	c8 01       	movw	r24, r16
    2610:	60 df       	rcall	.-320    	; 0x24d2 <CheckLetter>
    2612:	88 23       	and	r24, r24
    2614:	d9 f2       	breq	.-74     	; 0x25cc <FindChild+0x4e>
    2616:	03 c0       	rjmp	.+6      	; 0x261e <FindChild+0xa0>

        //Not visible or name not right
        ExtEERead(child+L_BOILER, 2, GAME, &data[0]);
        child = (data[0]<<8|data[1]);    //Next object on child level
        
    } return 0;
    2618:	80 e0       	ldi	r24, 0x00	; 0
    261a:	90 e0       	ldi	r25, 0x00	; 0
    261c:	01 c0       	rjmp	.+2      	; 0x2620 <FindChild+0xa2>
    261e:	c8 01       	movw	r24, r16
}
    2620:	24 96       	adiw	r28, 0x04	; 4
    2622:	cd bf       	out	0x3d, r28	; 61
    2624:	de bf       	out	0x3e, r29	; 62
    2626:	df 91       	pop	r29
    2628:	cf 91       	pop	r28
    262a:	1f 91       	pop	r17
    262c:	0f 91       	pop	r16
    262e:	ff 90       	pop	r15
    2630:	ef 90       	pop	r14
    2632:	df 90       	pop	r13
    2634:	bf 90       	pop	r11
    2636:	af 90       	pop	r10
    2638:	08 95       	ret

0000263a <InpOkChk>:

//Allow only a(A) to z(Z) and 0 to 9 as input
uint8_t InpOkChk(uint8_t test){
    test |= 0x20;
    263a:	80 62       	ori	r24, 0x20	; 32
    if ((test>='a')&&(test<='z')) return 1;
    263c:	9f e9       	ldi	r25, 0x9F	; 159
    263e:	98 0f       	add	r25, r24
    2640:	9a 31       	cpi	r25, 0x1A	; 26
    2642:	38 f0       	brcs	.+14     	; 0x2652 <InpOkChk+0x18>
    2644:	90 ed       	ldi	r25, 0xD0	; 208
    2646:	98 0f       	add	r25, r24
    2648:	81 e0       	ldi	r24, 0x01	; 1
    264a:	9a 30       	cpi	r25, 0x0A	; 10
    264c:	18 f0       	brcs	.+6      	; 0x2654 <InpOkChk+0x1a>
    264e:	80 e0       	ldi	r24, 0x00	; 0
    2650:	08 95       	ret
    2652:	81 e0       	ldi	r24, 0x01	; 1
    if ((test>='0')&&(test<='9')) return 1;
    return 0;
}
    2654:	08 95       	ret

00002656 <CleanInput>:

//Cleans input of garbage and returns length of cleaned input "o->d2  !\0" becomes "od2\0"
uint8_t CleanInput(uint8_t *data){
    2656:	0f 93       	push	r16
    2658:	1f 93       	push	r17
    265a:	cf 93       	push	r28
    265c:	df 93       	push	r29
    265e:	8c 01       	movw	r16, r24
    uint8_t cnt = 0;
    for (uint8_t x=0; data[x]!=0; ++x){
    2660:	d0 e0       	ldi	r29, 0x00	; 0
    return 0;
}

//Cleans input of garbage and returns length of cleaned input "o->d2  !\0" becomes "od2\0"
uint8_t CleanInput(uint8_t *data){
    uint8_t cnt = 0;
    2662:	c0 e0       	ldi	r28, 0x00	; 0
    for (uint8_t x=0; data[x]!=0; ++x){
    2664:	f8 01       	movw	r30, r16
    2666:	ed 0f       	add	r30, r29
    2668:	f1 1d       	adc	r31, r1
    266a:	20 81       	ld	r18, Z
    266c:	8c 2f       	mov	r24, r28
    266e:	90 e0       	ldi	r25, 0x00	; 0
    2670:	22 23       	and	r18, r18
    2672:	51 f0       	breq	.+20     	; 0x2688 <CleanInput+0x32>
        data[cnt] = data[x];
    2674:	d8 01       	movw	r26, r16
    2676:	a8 0f       	add	r26, r24
    2678:	b9 1f       	adc	r27, r25
    267a:	2c 93       	st	X, r18
        if (InpOkChk(data[x])) ++cnt;
    267c:	80 81       	ld	r24, Z
    267e:	dd df       	rcall	.-70     	; 0x263a <InpOkChk>
    2680:	81 11       	cpse	r24, r1
    2682:	cf 5f       	subi	r28, 0xFF	; 255
}

//Cleans input of garbage and returns length of cleaned input "o->d2  !\0" becomes "od2\0"
uint8_t CleanInput(uint8_t *data){
    uint8_t cnt = 0;
    for (uint8_t x=0; data[x]!=0; ++x){
    2684:	df 5f       	subi	r29, 0xFF	; 255
    2686:	ee cf       	rjmp	.-36     	; 0x2664 <CleanInput+0xe>
        data[cnt] = data[x];
        if (InpOkChk(data[x])) ++cnt;
    }
    data[cnt] = 0;
    2688:	f8 01       	movw	r30, r16
    268a:	e8 0f       	add	r30, r24
    268c:	f9 1f       	adc	r31, r25
    268e:	10 82       	st	Z, r1
    return cnt;
}
    2690:	8c 2f       	mov	r24, r28
    2692:	df 91       	pop	r29
    2694:	cf 91       	pop	r28
    2696:	1f 91       	pop	r17
    2698:	0f 91       	pop	r16
    269a:	08 95       	ret

0000269c <CheckSend>:

//Send routine, optimized for low memory usage
uint8_t CheckSend(){
    269c:	cf 93       	push	r28
    /*if (effect == 0){
        effect = currObj.byteField[EFFECTS];
    }*/

    //Check if more string(part)s have to be sent to the serial output if previous send operation is completed
    if ((txAddrNow < TXLISTLEN) && serTxDone){
    269e:	20 91 4a 3a 	lds	r18, 0x3A4A	; 0x803a4a <txAddrNow>
    26a2:	28 30       	cpi	r18, 0x08	; 8
    26a4:	08 f0       	brcs	.+2      	; 0x26a8 <CheckSend+0xc>
    26a6:	49 c0       	rjmp	.+146    	; 0x273a <CheckSend+0x9e>
    26a8:	80 91 09 38 	lds	r24, 0x3809	; 0x803809 <serTxDone>
    26ac:	88 23       	and	r24, r24
    26ae:	09 f4       	brne	.+2      	; 0x26b2 <CheckSend+0x16>
    26b0:	44 c0       	rjmp	.+136    	; 0x273a <CheckSend+0x9e>
        if (txStrLen[txAddrNow] == 0){
    26b2:	82 2f       	mov	r24, r18
    26b4:	90 e0       	ldi	r25, 0x00	; 0
    26b6:	fc 01       	movw	r30, r24
    26b8:	e5 5b       	subi	r30, 0xB5	; 181
    26ba:	f5 4c       	sbci	r31, 0xC5	; 197
    26bc:	e0 81       	ld	r30, Z
    26be:	e1 11       	cpse	r30, r1
    26c0:	06 c0       	rjmp	.+12     	; 0x26ce <CheckSend+0x32>
            txPart = 0;
    26c2:	10 92 09 39 	sts	0x3909, r1	; 0x803909 <txPart.3937>
            txAddrNow = TXLISTLEN;
    26c6:	88 e0       	ldi	r24, 0x08	; 8
    26c8:	80 93 4a 3a 	sts	0x3A4A, r24	; 0x803a4a <txAddrNow>
    26cc:	2e c0       	rjmp	.+92     	; 0x272a <CheckSend+0x8e>
        } else if (txPart < txStrLen[txAddrNow]){
    26ce:	50 91 09 39 	lds	r21, 0x3909	; 0x803909 <txPart.3937>
    26d2:	5e 17       	cp	r21, r30
    26d4:	60 f5       	brcc	.+88     	; 0x272e <CheckSend+0x92>
            EEreadLength = txStrLen[txAddrNow]-txPart;
    26d6:	ce 2f       	mov	r28, r30
    26d8:	c5 1b       	sub	r28, r21
    26da:	c1 32       	cpi	r28, 0x21	; 33
    26dc:	08 f0       	brcs	.+2      	; 0x26e0 <CheckSend+0x44>
    26de:	c0 e2       	ldi	r28, 0x20	; 32
            if (EEreadLength>=TXLEN) EEreadLength = TXLEN-1;
            ExtEERead(txAddrList[txAddrNow]+txPart, EEreadLength, txTypeNow, &txBuffer[0]);
    26e0:	88 0f       	add	r24, r24
    26e2:	99 1f       	adc	r25, r25
    26e4:	fc 01       	movw	r30, r24
    26e6:	ed 5a       	subi	r30, 0xAD	; 173
    26e8:	f5 4c       	sbci	r31, 0xC5	; 197
    26ea:	80 81       	ld	r24, Z
    26ec:	91 81       	ldd	r25, Z+1	; 0x01
    26ee:	24 ef       	ldi	r18, 0xF4	; 244
    26f0:	3a e3       	ldi	r19, 0x3A	; 58
    26f2:	40 91 49 3a 	lds	r20, 0x3A49	; 0x803a49 <txTypeNow>
    26f6:	6c 2f       	mov	r22, r28
    26f8:	85 0f       	add	r24, r21
    26fa:	91 1d       	adc	r25, r1
    26fc:	0e 94 4a 08 	call	0x1094	; 0x1094 <ExtEERead>
            txPart += EEreadLength;
    2700:	80 91 09 39 	lds	r24, 0x3909	; 0x803909 <txPart.3937>
    2704:	8c 0f       	add	r24, r28
    2706:	80 93 09 39 	sts	0x3909, r24	; 0x803909 <txPart.3937>
            txBuffer[EEreadLength] = 0; //Add string terminator after piece to send to plug memory leak
    270a:	ec 2f       	mov	r30, r28
    270c:	f0 e0       	ldi	r31, 0x00	; 0
    270e:	ec 50       	subi	r30, 0x0C	; 12
    2710:	f5 4c       	sbci	r31, 0xC5	; 197
    2712:	10 82       	st	Z, r1
            if ((txBuffer[0] == 0) && (EEreadLength)) txBuffer[0] = 0xDB; //Block character when data wrong.
    2714:	80 91 f4 3a 	lds	r24, 0x3AF4	; 0x803af4 <txBuffer>
    2718:	81 11       	cpse	r24, r1
    271a:	03 c0       	rjmp	.+6      	; 0x2722 <CheckSend+0x86>
    271c:	8b ed       	ldi	r24, 0xDB	; 219
    271e:	80 93 f4 3a 	sts	0x3AF4, r24	; 0x803af4 <txBuffer>
            SerSend(&txBuffer[0]);
    2722:	84 ef       	ldi	r24, 0xF4	; 244
    2724:	9a e3       	ldi	r25, 0x3A	; 58
    2726:	0e 94 7c 08 	call	0x10f8	; 0x10f8 <SerSend>
        } else {
            txPart = 0;
            ++txAddrNow;
        }
    } else if (serTxDone) return 0; //All is sent!
    return 1; //Still sending, do not change the data in the tx variables
    272a:	81 e0       	ldi	r24, 0x01	; 1
    272c:	0b c0       	rjmp	.+22     	; 0x2744 <CheckSend+0xa8>
            txPart += EEreadLength;
            txBuffer[EEreadLength] = 0; //Add string terminator after piece to send to plug memory leak
            if ((txBuffer[0] == 0) && (EEreadLength)) txBuffer[0] = 0xDB; //Block character when data wrong.
            SerSend(&txBuffer[0]);
        } else {
            txPart = 0;
    272e:	10 92 09 39 	sts	0x3909, r1	; 0x803909 <txPart.3937>
            ++txAddrNow;
    2732:	2f 5f       	subi	r18, 0xFF	; 255
    2734:	20 93 4a 3a 	sts	0x3A4A, r18	; 0x803a4a <txAddrNow>
    2738:	f8 cf       	rjmp	.-16     	; 0x272a <CheckSend+0x8e>
        }
    } else if (serTxDone) return 0; //All is sent!
    273a:	90 91 09 38 	lds	r25, 0x3809	; 0x803809 <serTxDone>
    273e:	81 e0       	ldi	r24, 0x01	; 1
    2740:	91 11       	cpse	r25, r1
    2742:	80 e0       	ldi	r24, 0x00	; 0
    return 1; //Still sending, do not change the data in the tx variables
}
    2744:	cf 91       	pop	r28
    2746:	08 95       	ret

00002748 <CheckResponse>:

//Send another part of the response and play the effect afterwards
uint8_t CheckResponse(){
    2748:	cf 93       	push	r28
    274a:	df 93       	push	r29
    static uint8_t number = 0;
    if (responseList){
    274c:	c0 91 1d 39 	lds	r28, 0x391D	; 0x80391d <responseList>
    2750:	cc 23       	and	r28, r28
    2752:	b1 f1       	breq	.+108    	; 0x27c0 <CheckResponse+0x78>
        --responseList;
    2754:	c1 50       	subi	r28, 0x01	; 1
    2756:	c0 93 1d 39 	sts	0x391D, r28	; 0x80391d <responseList>
        if (reactStr[0][number] == CURR_LOC) {
    275a:	d0 91 08 39 	lds	r29, 0x3908	; 0x803908 <number.3941>
    275e:	2d 2f       	mov	r18, r29
    2760:	30 e0       	ldi	r19, 0x00	; 0
    2762:	f9 01       	movw	r30, r18
    2764:	ee 0f       	add	r30, r30
    2766:	ff 1f       	adc	r31, r31
    2768:	e2 5e       	subi	r30, 0xE2	; 226
    276a:	f6 4c       	sbci	r31, 0xC6	; 198
    276c:	80 81       	ld	r24, Z
    276e:	91 81       	ldd	r25, Z+1	; 0x01
    2770:	80 3f       	cpi	r24, 0xF0	; 240
    2772:	4f ef       	ldi	r20, 0xFF	; 255
    2774:	94 07       	cpc	r25, r20
    2776:	51 f4       	brne	.+20     	; 0x278c <CheckResponse+0x44>
            PrepareSending(currObj.addrStr[NAME], currObj.lenStr[NAME], GAME);
    2778:	60 91 38 3a 	lds	r22, 0x3A38	; 0x803a38 <currObj+0x1a>
    277c:	70 91 39 3a 	lds	r23, 0x3A39	; 0x803a39 <currObj+0x1b>
    2780:	40 e0       	ldi	r20, 0x00	; 0
    2782:	80 91 2a 3a 	lds	r24, 0x3A2A	; 0x803a2a <currObj+0xc>
    2786:	90 91 2b 3a 	lds	r25, 0x3A2B	; 0x803a2b <currObj+0xd>
    278a:	0d c0       	rjmp	.+26     	; 0x27a6 <CheckResponse+0x5e>
        } else {
            PrepareSending(reactStr[0][number], reactStr[1][number], reactStr[2][number]);
    278c:	d9 01       	movw	r26, r18
    278e:	aa 0f       	add	r26, r26
    2790:	bb 1f       	adc	r27, r27
    2792:	a2 56       	subi	r26, 0x62	; 98
    2794:	b6 4c       	sbci	r27, 0xC6	; 198
    2796:	22 0f       	add	r18, r18
    2798:	33 1f       	adc	r19, r19
    279a:	f9 01       	movw	r30, r18
    279c:	e2 5a       	subi	r30, 0xA2	; 162
    279e:	f6 4c       	sbci	r31, 0xC6	; 198
    27a0:	60 81       	ld	r22, Z
    27a2:	71 81       	ldd	r23, Z+1	; 0x01
    27a4:	4c 91       	ld	r20, X
    27a6:	63 dd       	rcall	.-1338   	; 0x226e <PrepareSending>
        }
        number++;
    27a8:	df 5f       	subi	r29, 0xFF	; 255
    27aa:	d0 93 08 39 	sts	0x3908, r29	; 0x803908 <number.3941>

        if (responseList == 0) {
    27ae:	c1 11       	cpse	r28, r1
    27b0:	06 c0       	rjmp	.+12     	; 0x27be <CheckResponse+0x76>
            //effect = currObj.byteField[EFFECTS];
            RXCNT = 0;
    27b2:	1d ba       	out	0x1d, r1	; 29
            serRxDone = 0;
    27b4:	10 92 46 38 	sts	0x3846, r1	; 0x803846 <serRxDone>
            number = 0;
    27b8:	10 92 08 39 	sts	0x3908, r1	; 0x803908 <number.3941>
    27bc:	01 c0       	rjmp	.+2      	; 0x27c0 <CheckResponse+0x78>
            return 0;
        }
        return 1;
    27be:	c1 e0       	ldi	r28, 0x01	; 1
    }
    return 0;
}
    27c0:	8c 2f       	mov	r24, r28
    27c2:	df 91       	pop	r29
    27c4:	cf 91       	pop	r28
    27c6:	08 95       	ret

000027c8 <CheckInput>:

//User input check (and validation)
uint8_t CheckInput(uint8_t *data){
    27c8:	5f 92       	push	r5
    27ca:	6f 92       	push	r6
    27cc:	7f 92       	push	r7
    27ce:	8f 92       	push	r8
    27d0:	9f 92       	push	r9
    27d2:	af 92       	push	r10
    27d4:	bf 92       	push	r11
    27d6:	cf 92       	push	r12
    27d8:	df 92       	push	r13
    27da:	ef 92       	push	r14
    27dc:	ff 92       	push	r15
    27de:	0f 93       	push	r16
    27e0:	1f 93       	push	r17
    27e2:	cf 93       	push	r28
    27e4:	df 93       	push	r29
    27e6:	cd b7       	in	r28, 0x3d	; 61
    27e8:	de b7       	in	r29, 0x3e	; 62
    27ea:	2a 97       	sbiw	r28, 0x0a	; 10
    27ec:	cd bf       	out	0x3d, r28	; 61
    27ee:	de bf       	out	0x3e, r29	; 62
    27f0:	8c 01       	movw	r16, r24
    
    //Load game data after reboot
    if (currDepth == 0xff) {
    27f2:	80 91 31 38 	lds	r24, 0x3831	; 0x803831 <currDepth>
    27f6:	8f 3f       	cpi	r24, 0xFF	; 255
    27f8:	49 f4       	brne	.+18     	; 0x280c <CheckInput+0x44>
        //Start at first location
        PopulateObject(route[0], &currObj);
    27fa:	6e e1       	ldi	r22, 0x1E	; 30
    27fc:	7a e3       	ldi	r23, 0x3A	; 58
    27fe:	80 91 de 39 	lds	r24, 0x39DE	; 0x8039de <route>
    2802:	90 91 df 39 	lds	r25, 0x39DF	; 0x8039df <route+0x1>
    2806:	ec dd       	rcall	.-1064   	; 0x23e0 <PopulateObject>
        currDepth = 0;
    2808:	10 92 31 38 	sts	0x3831, r1	; 0x803831 <currDepth>
    }

    if (serRxDone){
    280c:	80 91 46 38 	lds	r24, 0x3846	; 0x803846 <serRxDone>
    2810:	88 23       	and	r24, r24
    2812:	09 f4       	brne	.+2      	; 0x2816 <CheckInput+0x4e>
    2814:	d4 c1       	rjmp	.+936    	; 0x2bbe <CheckInput+0x3f6>

        //Special input requested from user by game
        if (specialInput[0]){
    2816:	80 91 0d 39 	lds	r24, 0x390D	; 0x80390d <specialInput>
    281a:	88 23       	and	r24, r24
    281c:	09 f4       	brne	.+2      	; 0x2820 <CheckInput+0x58>
    281e:	4f c0       	rjmp	.+158    	; 0x28be <CheckInput+0xf6>
            specialPassed = 0;
    2820:	10 92 0c 39 	sts	0x390C, r1	; 0x80390c <specialPassed>
            data[0] = 'a';
    2824:	81 e6       	ldi	r24, 0x61	; 97
    2826:	f8 01       	movw	r30, r16
    2828:	80 83       	st	Z, r24
            
            //Normal code challenge
            if (StartsWith((uint8_t *)&serRx[0], &specialInput[0])) {
    282a:	6d e0       	ldi	r22, 0x0D	; 13
    282c:	79 e3       	ldi	r23, 0x39	; 57
    282e:	88 e7       	ldi	r24, 0x78	; 120
    2830:	9a e3       	ldi	r25, 0x3A	; 58
    2832:	03 dd       	rcall	.-1530   	; 0x223a <StartsWith>
    2834:	f8 2e       	mov	r15, r24
    2836:	88 23       	and	r24, r24
    2838:	21 f0       	breq	.+8      	; 0x2842 <CheckInput+0x7a>
                specialPassed = 1;
    283a:	81 e0       	ldi	r24, 0x01	; 1
    283c:	80 93 0c 39 	sts	0x390C, r24	; 0x80390c <specialPassed>
    2840:	04 c0       	rjmp	.+8      	; 0x284a <CheckInput+0x82>

            //Special challenge 1
            } else if ((specialInput[0] == '1')&&(specialInput[2] == 0)) {
    2842:	80 91 0d 39 	lds	r24, 0x390D	; 0x80390d <specialInput>
    2846:	81 33       	cpi	r24, 0x31	; 49
    2848:	11 f0       	breq	.+4      	; 0x284e <CheckInput+0x86>
                responseList = SetStandardResponse((3*MAX_CHEATS));
                return 1;
            }
        } 
        //Data received, but not any of the commands above
        return 0;
    284a:	f1 2c       	mov	r15, r1
    284c:	ba c1       	rjmp	.+884    	; 0x2bc2 <CheckInput+0x3fa>
            //Normal code challenge
            if (StartsWith((uint8_t *)&serRx[0], &specialInput[0])) {
                specialPassed = 1;

            //Special challenge 1
            } else if ((specialInput[0] == '1')&&(specialInput[2] == 0)) {
    284e:	80 91 0f 39 	lds	r24, 0x390F	; 0x80390f <specialInput+0x2>
    2852:	81 11       	cpse	r24, r1
    2854:	fa cf       	rjmp	.-12     	; 0x284a <CheckInput+0x82>
                uint8_t inputLen = CleanInput((uint8_t *)&serRx[0]);
    2856:	88 e7       	ldi	r24, 0x78	; 120
    2858:	9a e3       	ldi	r25, 0x3A	; 58
    285a:	fd de       	rcall	.-518    	; 0x2656 <CleanInput>
                specialPassed = 2;
    285c:	92 e0       	ldi	r25, 0x02	; 2
    285e:	90 93 0c 39 	sts	0x390C, r25	; 0x80390c <specialPassed>
                data[1] = 0;
    2862:	f8 01       	movw	r30, r16
    2864:	11 82       	std	Z+1, r1	; 0x01

                if (inputLen >= 2) {
    2866:	82 30       	cpi	r24, 0x02	; 2
    2868:	80 f3       	brcs	.-32     	; 0x284a <CheckInput+0x82>
                    if ((serRx[0] >= '1') && (serRx[0] <= '4')) {
    286a:	80 91 78 3a 	lds	r24, 0x3A78	; 0x803a78 <serRx>
    286e:	81 33       	cpi	r24, 0x31	; 49
    2870:	60 f3       	brcs	.-40     	; 0x284a <CheckInput+0x82>
    2872:	80 91 78 3a 	lds	r24, 0x3A78	; 0x803a78 <serRx>
    2876:	85 33       	cpi	r24, 0x35	; 53
    2878:	40 f7       	brcc	.-48     	; 0x284a <CheckInput+0x82>
                        serRx[1] |= 0x20;
    287a:	80 91 79 3a 	lds	r24, 0x3A79	; 0x803a79 <serRx+0x1>
    287e:	80 62       	ori	r24, 0x20	; 32
    2880:	80 93 79 3a 	sts	0x3A79, r24	; 0x803a79 <serRx+0x1>
                        if ((serRx[1] == 'a')||(serRx[1] == 'e')||(serRx[1] == 'f')||(serRx[1] == 'w')) {
    2884:	80 91 79 3a 	lds	r24, 0x3A79	; 0x803a79 <serRx+0x1>
    2888:	81 36       	cpi	r24, 0x61	; 97
    288a:	61 f0       	breq	.+24     	; 0x28a4 <CheckInput+0xdc>
    288c:	80 91 79 3a 	lds	r24, 0x3A79	; 0x803a79 <serRx+0x1>
    2890:	85 36       	cpi	r24, 0x65	; 101
    2892:	41 f0       	breq	.+16     	; 0x28a4 <CheckInput+0xdc>
    2894:	80 91 79 3a 	lds	r24, 0x3A79	; 0x803a79 <serRx+0x1>
    2898:	86 36       	cpi	r24, 0x66	; 102
    289a:	21 f0       	breq	.+8      	; 0x28a4 <CheckInput+0xdc>
    289c:	80 91 79 3a 	lds	r24, 0x3A79	; 0x803a79 <serRx+0x1>
    28a0:	87 37       	cpi	r24, 0x77	; 119
    28a2:	99 f6       	brne	.-90     	; 0x284a <CheckInput+0x82>
                            data[1] = specialInput[1]+0x11;
    28a4:	80 91 0e 39 	lds	r24, 0x390E	; 0x80390e <specialInput+0x1>
    28a8:	8f 5e       	subi	r24, 0xEF	; 239
    28aa:	f8 01       	movw	r30, r16
    28ac:	81 83       	std	Z+1, r24	; 0x01
                            data[2] = serRx[0];
    28ae:	80 91 78 3a 	lds	r24, 0x3A78	; 0x803a78 <serRx>
    28b2:	82 83       	std	Z+2, r24	; 0x02
                            data[3] = serRx[1];
    28b4:	80 91 79 3a 	lds	r24, 0x3A79	; 0x803a79 <serRx+0x1>
    28b8:	83 83       	std	Z+3, r24	; 0x03
                            data[4] = 0;
    28ba:	14 82       	std	Z+4, r1	; 0x04
    28bc:	82 c1       	rjmp	.+772    	; 0x2bc2 <CheckInput+0x3fa>
        } else {
      
            //SetResponse(0, A_LF, 4, TEASER);

            //Change status bit
            if ((serRx[0] == '#')&&(RXCNT == 6)){
    28be:	80 91 78 3a 	lds	r24, 0x3A78	; 0x803a78 <serRx>
    28c2:	83 32       	cpi	r24, 0x23	; 35
    28c4:	89 f5       	brne	.+98     	; 0x2928 <CheckInput+0x160>
    28c6:	8d b3       	in	r24, 0x1d	; 29
    28c8:	86 30       	cpi	r24, 0x06	; 6
    28ca:	71 f5       	brne	.+92     	; 0x2928 <CheckInput+0x160>
    28cc:	81 e0       	ldi	r24, 0x01	; 1
    28ce:	90 e0       	ldi	r25, 0x00	; 0
    28d0:	10 e0       	ldi	r17, 0x00	; 0
                uint8_t bitNr = 0;

                for (uint8_t x=1; x<4; ++x) {
                    serRx[x] -= '0';
    28d2:	fc 01       	movw	r30, r24
    28d4:	e8 58       	subi	r30, 0x88	; 136
    28d6:	f5 4c       	sbci	r31, 0xC5	; 197
    28d8:	20 81       	ld	r18, Z
    28da:	20 53       	subi	r18, 0x30	; 48
    28dc:	20 83       	st	Z, r18
                    bitNr *= 10;
    28de:	11 0f       	add	r17, r17
    28e0:	21 2f       	mov	r18, r17
    28e2:	22 0f       	add	r18, r18
    28e4:	22 0f       	add	r18, r18
    28e6:	12 0f       	add	r17, r18
                    if (serRx[1] > 2) break;
    28e8:	20 91 79 3a 	lds	r18, 0x3A79	; 0x803a79 <serRx+0x1>
    28ec:	23 30       	cpi	r18, 0x03	; 3
    28ee:	48 f4       	brcc	.+18     	; 0x2902 <CheckInput+0x13a>
                    if (serRx[x] < 10) {
    28f0:	20 81       	ld	r18, Z
    28f2:	2a 30       	cpi	r18, 0x0A	; 10
    28f4:	b8 f4       	brcc	.+46     	; 0x2924 <CheckInput+0x15c>
                        bitNr += serRx[x];
    28f6:	20 81       	ld	r18, Z
    28f8:	12 0f       	add	r17, r18
    28fa:	01 96       	adiw	r24, 0x01	; 1

            //Change status bit
            if ((serRx[0] == '#')&&(RXCNT == 6)){
                uint8_t bitNr = 0;

                for (uint8_t x=1; x<4; ++x) {
    28fc:	84 30       	cpi	r24, 0x04	; 4
    28fe:	91 05       	cpc	r25, r1
    2900:	41 f7       	brne	.-48     	; 0x28d2 <CheckInput+0x10a>
                        continue;
                    }
                    bitNr = 0;
                    break;
                }
                if ((bitNr)&&(bitNr!=128)) {
    2902:	81 2f       	mov	r24, r17
    2904:	8f 77       	andi	r24, 0x7F	; 127
    2906:	71 f0       	breq	.+28     	; 0x2924 <CheckInput+0x15c>
                    if (Cheat(0xff-bitNr, serRx[4]<<8|serRx[5])) UpdateState(bitNr);
    2908:	80 91 7c 3a 	lds	r24, 0x3A7C	; 0x803a7c <serRx+0x4>
    290c:	60 91 7d 3a 	lds	r22, 0x3A7D	; 0x803a7d <serRx+0x5>
    2910:	70 e0       	ldi	r23, 0x00	; 0
    2912:	78 2b       	or	r23, r24
    2914:	81 2f       	mov	r24, r17
    2916:	80 95       	com	r24
    2918:	3b dc       	rcall	.-1930   	; 0x2190 <Cheat>
    291a:	88 23       	and	r24, r24
    291c:	19 f0       	breq	.+6      	; 0x2924 <CheckInput+0x15c>
    291e:	81 2f       	mov	r24, r17
    2920:	0e 94 f4 09 	call	0x13e8	; 0x13e8 <UpdateState>
                }
                
                responseList = SetStandardResponse(1);
    2924:	81 e0       	ldi	r24, 0x01	; 1
    2926:	48 c1       	rjmp	.+656    	; 0x2bb8 <CheckInput+0x3f0>
    2928:	d8 01       	movw	r26, r16
    292a:	80 e0       	ldi	r24, 0x00	; 0
    292c:	90 e0       	ldi	r25, 0x00	; 0
                return 1;            
            }
            
            //Read up to the \0 character and convert to lower case.
            for (uint8_t x=0; x<RXLEN; ++x){
                if ((serRx[x]<'A')||(serRx[x]>'Z')) data[x]=serRx[x]; else data[x]=serRx[x]|0x20;
    292e:	fc 01       	movw	r30, r24
    2930:	e8 58       	subi	r30, 0x88	; 136
    2932:	f5 4c       	sbci	r31, 0xC5	; 197
    2934:	20 81       	ld	r18, Z
    2936:	21 34       	cpi	r18, 0x41	; 65
    2938:	18 f0       	brcs	.+6      	; 0x2940 <CheckInput+0x178>
    293a:	20 81       	ld	r18, Z
    293c:	2b 35       	cpi	r18, 0x5B	; 91
    293e:	10 f0       	brcs	.+4      	; 0x2944 <CheckInput+0x17c>
    2940:	20 81       	ld	r18, Z
    2942:	02 c0       	rjmp	.+4      	; 0x2948 <CheckInput+0x180>
    2944:	20 81       	ld	r18, Z
    2946:	20 62       	ori	r18, 0x20	; 32
    2948:	2c 93       	st	X, r18
                if (serRx[x] == 0) {
    294a:	20 81       	ld	r18, Z
    294c:	21 11       	cpse	r18, r1
    294e:	05 c0       	rjmp	.+10     	; 0x295a <CheckInput+0x192>
                    data[x] = 0;
    2950:	f8 01       	movw	r30, r16
    2952:	e8 0f       	add	r30, r24
    2954:	f1 1d       	adc	r31, r1
    2956:	10 82       	st	Z, r1
                    break;
    2958:	05 c0       	rjmp	.+10     	; 0x2964 <CheckInput+0x19c>
    295a:	01 96       	adiw	r24, 0x01	; 1
    295c:	11 96       	adiw	r26, 0x01	; 1
                
                return 1;            
            }
            
            //Read up to the \0 character and convert to lower case.
            for (uint8_t x=0; x<RXLEN; ++x){
    295e:	81 34       	cpi	r24, 0x41	; 65
    2960:	91 05       	cpc	r25, r1
    2962:	29 f7       	brne	.-54     	; 0x292e <CheckInput+0x166>
                    break;
                }
            }

            //No text
            if (serRx[0] == 0){
    2964:	80 91 78 3a 	lds	r24, 0x3A78	; 0x803a78 <serRx>
                data[0] = 0;
    2968:	f8 01       	movw	r30, r16
                    break;
                }
            }

            //No text
            if (serRx[0] == 0){
    296a:	81 11       	cpse	r24, r1
    296c:	05 c0       	rjmp	.+10     	; 0x2978 <CheckInput+0x1b0>
                data[0] = 0;
    296e:	10 82       	st	Z, r1
                RXCNT = 0;
    2970:	1d ba       	out	0x1d, r1	; 29
                serRxDone = 0;
    2972:	10 92 46 38 	sts	0x3846, r1	; 0x803846 <serRxDone>
    2976:	23 c1       	rjmp	.+582    	; 0x2bbe <CheckInput+0x3f6>
                return 1;
            }

            //Help text
            if ((data[0] == '?')||(data[0] == 'h')){
    2978:	80 81       	ld	r24, Z
    297a:	8f 33       	cpi	r24, 0x3F	; 63
    297c:	11 f0       	breq	.+4      	; 0x2982 <CheckInput+0x1ba>
    297e:	88 36       	cpi	r24, 0x68	; 104
    2980:	49 f4       	brne	.+18     	; 0x2994 <CheckInput+0x1cc>
    return 0;
}

//
void SetResponse(uint8_t number, uint16_t address, uint16_t length, uint8_t type){
    reactStr[0][number]=address;
    2982:	83 e9       	ldi	r24, 0x93	; 147
    2984:	9b e7       	ldi	r25, 0x7B	; 123
    2986:	80 93 20 39 	sts	0x3920, r24	; 0x803920 <reactStr+0x2>
    298a:	90 93 21 39 	sts	0x3921, r25	; 0x803921 <reactStr+0x3>
    reactStr[1][number]=length;
    298e:	8d e6       	ldi	r24, 0x6D	; 109
    2990:	94 e0       	ldi	r25, 0x04	; 4
    2992:	0a c0       	rjmp	.+20     	; 0x29a8 <CheckInput+0x1e0>
                responseList = SetStandardResponse(2);
                return 1;
            }        
        
            //Alphabet text
            if (data[0] == 'a'){
    2994:	81 36       	cpi	r24, 0x61	; 97
    2996:	a1 f4       	brne	.+40     	; 0x29c0 <CheckInput+0x1f8>
    return 0;
}

//
void SetResponse(uint8_t number, uint16_t address, uint16_t length, uint8_t type){
    reactStr[0][number]=address;
    2998:	8e e6       	ldi	r24, 0x6E	; 110
    299a:	9a e7       	ldi	r25, 0x7A	; 122
    299c:	80 93 20 39 	sts	0x3920, r24	; 0x803920 <reactStr+0x2>
    29a0:	90 93 21 39 	sts	0x3921, r25	; 0x803921 <reactStr+0x3>
    reactStr[1][number]=length;
    29a4:	85 e2       	ldi	r24, 0x25	; 37
    29a6:	91 e0       	ldi	r25, 0x01	; 1
    29a8:	80 93 60 39 	sts	0x3960, r24	; 0x803960 <reactStr+0x42>
    29ac:	90 93 61 39 	sts	0x3961, r25	; 0x803961 <reactStr+0x43>
    reactStr[2][number]=type;
    29b0:	81 e0       	ldi	r24, 0x01	; 1
    29b2:	90 e0       	ldi	r25, 0x00	; 0
    29b4:	80 93 a0 39 	sts	0x39A0, r24	; 0x8039a0 <reactStr+0x82>
    29b8:	90 93 a1 39 	sts	0x39A1, r25	; 0x8039a1 <reactStr+0x83>
            }        
        
            //Alphabet text
            if (data[0] == 'a'){
                SetResponse(1, A_ALPHABET, L_ALPHABET, TEASER);
                responseList = SetStandardResponse(2);
    29bc:	82 e0       	ldi	r24, 0x02	; 2
    29be:	fc c0       	rjmp	.+504    	; 0x2bb8 <CheckInput+0x3f0>
                return 1;
            }

            //Whoami text
            if (data[0] == 'w'){
    29c0:	87 37       	cpi	r24, 0x77	; 119
    29c2:	09 f0       	breq	.+2      	; 0x29c6 <CheckInput+0x1fe>
    29c4:	41 c0       	rjmp	.+130    	; 0x2a48 <CheckInput+0x280>
    return 0;
}

//
void SetResponse(uint8_t number, uint16_t address, uint16_t length, uint8_t type){
    reactStr[0][number]=address;
    29c6:	8d e8       	ldi	r24, 0x8D	; 141
    29c8:	96 e7       	ldi	r25, 0x76	; 118
    29ca:	80 93 20 39 	sts	0x3920, r24	; 0x803920 <reactStr+0x2>
    29ce:	90 93 21 39 	sts	0x3921, r25	; 0x803921 <reactStr+0x3>
    reactStr[1][number]=length;
    29d2:	82 e1       	ldi	r24, 0x12	; 18
    29d4:	90 e0       	ldi	r25, 0x00	; 0
    29d6:	80 93 60 39 	sts	0x3960, r24	; 0x803960 <reactStr+0x42>
    29da:	90 93 61 39 	sts	0x3961, r25	; 0x803961 <reactStr+0x43>
    reactStr[2][number]=type;
    29de:	21 e0       	ldi	r18, 0x01	; 1
    29e0:	30 e0       	ldi	r19, 0x00	; 0
    29e2:	20 93 a0 39 	sts	0x39A0, r18	; 0x8039a0 <reactStr+0x82>
    29e6:	30 93 a1 39 	sts	0x39A1, r19	; 0x8039a1 <reactStr+0x83>
            }

            //Whoami text
            if (data[0] == 'w'){
                SetResponse(1, A_HELLO, L_HELLO, TEASER);
                SetResponse(2, names[0][whoami-1], names[1][whoami-1], TEASER);
    29ea:	80 91 3f 38 	lds	r24, 0x383F	; 0x80383f <whoami>
    29ee:	90 e0       	ldi	r25, 0x00	; 0
    29f0:	fc 01       	movw	r30, r24
    29f2:	ee 0f       	add	r30, r30
    29f4:	ff 1f       	adc	r31, r31
    29f6:	e9 56       	subi	r30, 0x69	; 105
    29f8:	f0 44       	sbci	r31, 0x40	; 64
    29fa:	40 81       	ld	r20, Z
    29fc:	51 81       	ldd	r21, Z+1	; 0x01
    29fe:	88 0f       	add	r24, r24
    2a00:	99 1f       	adc	r25, r25
    2a02:	fc 01       	movw	r30, r24
    2a04:	e1 57       	subi	r30, 0x71	; 113
    2a06:	f0 44       	sbci	r31, 0x40	; 64
    return 0;
}

//
void SetResponse(uint8_t number, uint16_t address, uint16_t length, uint8_t type){
    reactStr[0][number]=address;
    2a08:	80 81       	ld	r24, Z
    2a0a:	91 81       	ldd	r25, Z+1	; 0x01
    2a0c:	80 93 22 39 	sts	0x3922, r24	; 0x803922 <reactStr+0x4>
    2a10:	90 93 23 39 	sts	0x3923, r25	; 0x803923 <reactStr+0x5>
    reactStr[1][number]=length;
    2a14:	40 93 62 39 	sts	0x3962, r20	; 0x803962 <reactStr+0x44>
    2a18:	50 93 63 39 	sts	0x3963, r21	; 0x803963 <reactStr+0x45>
    reactStr[2][number]=type;
    2a1c:	20 93 a2 39 	sts	0x39A2, r18	; 0x8039a2 <reactStr+0x84>
    2a20:	30 93 a3 39 	sts	0x39A3, r19	; 0x8039a3 <reactStr+0x85>
    return 0;
}

//
void SetResponse(uint8_t number, uint16_t address, uint16_t length, uint8_t type){
    reactStr[0][number]=address;
    2a24:	8f e5       	ldi	r24, 0x5F	; 95
    2a26:	96 e7       	ldi	r25, 0x76	; 118
    2a28:	80 93 24 39 	sts	0x3924, r24	; 0x803924 <reactStr+0x6>
    2a2c:	90 93 25 39 	sts	0x3925, r25	; 0x803925 <reactStr+0x7>
    reactStr[1][number]=length;
    2a30:	8a e1       	ldi	r24, 0x1A	; 26
    2a32:	90 e0       	ldi	r25, 0x00	; 0
    2a34:	80 93 64 39 	sts	0x3964, r24	; 0x803964 <reactStr+0x46>
    2a38:	90 93 65 39 	sts	0x3965, r25	; 0x803965 <reactStr+0x47>
    reactStr[2][number]=type;
    2a3c:	20 93 a4 39 	sts	0x39A4, r18	; 0x8039a4 <reactStr+0x86>
    2a40:	30 93 a5 39 	sts	0x39A5, r19	; 0x8039a5 <reactStr+0x87>
                } else {
                    SetResponse(2, A_ERROR, L_ERROR, TEASER);
                }*/

                SetResponse(3, A_PLEASED, L_PLEASED, TEASER);
                responseList = SetStandardResponse(4);
    2a44:	84 e0       	ldi	r24, 0x04	; 4
                responseList = SetStandardResponse(2);
                return 1;
            }*/

            //Fake cheat = reset badge!
            if (StartsWith(&data[0], "iddqd")){
    2a46:	b8 c0       	rjmp	.+368    	; 0x2bb8 <CheckInput+0x3f0>
    2a48:	6d e6       	ldi	r22, 0x6D	; 109
    2a4a:	7f eb       	ldi	r23, 0xBF	; 191
    2a4c:	c8 01       	movw	r24, r16
    2a4e:	f5 db       	rcall	.-2070   	; 0x223a <StartsWith>
    2a50:	88 23       	and	r24, r24
    2a52:	19 f1       	breq	.+70     	; 0x2a9a <CheckInput+0x2d2>
            
                //Reset game data by wiping the UUID bits
                for (uint8_t x=0; x<4; ++x){
                    UpdateState(128+110+x);
    2a54:	8e ee       	ldi	r24, 0xEE	; 238
    2a56:	0e 94 f4 09 	call	0x13e8	; 0x13e8 <UpdateState>
    2a5a:	8f ee       	ldi	r24, 0xEF	; 239
    2a5c:	0e 94 f4 09 	call	0x13e8	; 0x13e8 <UpdateState>
    2a60:	80 ef       	ldi	r24, 0xF0	; 240
    2a62:	0e 94 f4 09 	call	0x13e8	; 0x13e8 <UpdateState>
    2a66:	81 ef       	ldi	r24, 0xF1	; 241
    2a68:	0e 94 f4 09 	call	0x13e8	; 0x13e8 <UpdateState>
                }
                SaveGameState();
    2a6c:	0e 94 6d 09 	call	0x12da	; 0x12da <SaveGameState>

                uint8_t cheat[] = "Gotcha! ";
    2a70:	89 e0       	ldi	r24, 0x09	; 9
    2a72:	e0 e8       	ldi	r30, 0x80	; 128
    2a74:	ff eb       	ldi	r31, 0xBF	; 191
    2a76:	de 01       	movw	r26, r28
    2a78:	11 96       	adiw	r26, 0x01	; 1
    2a7a:	01 90       	ld	r0, Z+
    2a7c:	0d 92       	st	X+, r0
    2a7e:	8a 95       	dec	r24
    2a80:	e1 f7       	brne	.-8      	; 0x2a7a <CheckInput+0x2b2>
                SerSpeed(60);
    2a82:	8c e3       	ldi	r24, 0x3C	; 60
    2a84:	0e 94 8d 08 	call	0x111a	; 0x111a <SerSpeed>
                while(1){
                    if (serTxDone) SerSend(&cheat[0]);
    2a88:	80 91 09 38 	lds	r24, 0x3809	; 0x803809 <serTxDone>
    2a8c:	88 23       	and	r24, r24
    2a8e:	e1 f3       	breq	.-8      	; 0x2a88 <CheckInput+0x2c0>
    2a90:	ce 01       	movw	r24, r28
    2a92:	01 96       	adiw	r24, 0x01	; 1
    2a94:	0e 94 7c 08 	call	0x10f8	; 0x10f8 <SerSend>
                }
            }
            
            //Cheat reset
            if (StartsWith(&data[0], "ikillu")){
    2a98:	f7 cf       	rjmp	.-18     	; 0x2a88 <CheckInput+0x2c0>
    2a9a:	63 e7       	ldi	r22, 0x73	; 115
    2a9c:	7f eb       	ldi	r23, 0xBF	; 191
    2a9e:	c8 01       	movw	r24, r16
    2aa0:	cc db       	rcall	.-2152   	; 0x223a <StartsWith>
    2aa2:	88 23       	and	r24, r24
    2aa4:	81 f1       	breq	.+96     	; 0x2b06 <CheckInput+0x33e>
                
                //Reset cheat data by resetting the EEPROM bytes
                uint8_t empty=0xff;
    2aa6:	8f ef       	ldi	r24, 0xFF	; 255
    2aa8:	8a 87       	std	Y+10, r24	; 0x0a
    2aaa:	18 e1       	ldi	r17, 0x18	; 24
                for (uint8_t x=0; x<MAX_CHEATS; ++x){
                    EEWrite(CHEATS+x, &empty, 1);
    2aac:	41 e0       	ldi	r20, 0x01	; 1
    2aae:	be 01       	movw	r22, r28
    2ab0:	66 5f       	subi	r22, 0xF6	; 246
    2ab2:	7f 4f       	sbci	r23, 0xFF	; 255
    2ab4:	81 2f       	mov	r24, r17
    2ab6:	0e 94 08 08 	call	0x1010	; 0x1010 <EEWrite>
    2aba:	1f 5f       	subi	r17, 0xFF	; 255
            //Cheat reset
            if (StartsWith(&data[0], "ikillu")){
                
                //Reset cheat data by resetting the EEPROM bytes
                uint8_t empty=0xff;
                for (uint8_t x=0; x<MAX_CHEATS; ++x){
    2abc:	10 32       	cpi	r17, 0x20	; 32
    2abe:	b1 f7       	brne	.-20     	; 0x2aac <CheckInput+0x2e4>
                    EEWrite(CHEATS+x, &empty, 1);
                }
                //Reset game data by wiping the UUID bits
                for (uint8_t x=0; x<4; ++x){
                    UpdateState(128+110+x);
    2ac0:	8e ee       	ldi	r24, 0xEE	; 238
    2ac2:	0e 94 f4 09 	call	0x13e8	; 0x13e8 <UpdateState>
    2ac6:	8f ee       	ldi	r24, 0xEF	; 239
    2ac8:	0e 94 f4 09 	call	0x13e8	; 0x13e8 <UpdateState>
    2acc:	80 ef       	ldi	r24, 0xF0	; 240
    2ace:	0e 94 f4 09 	call	0x13e8	; 0x13e8 <UpdateState>
    2ad2:	81 ef       	ldi	r24, 0xF1	; 241
    2ad4:	0e 94 f4 09 	call	0x13e8	; 0x13e8 <UpdateState>
                }
                
                SaveGameState();
    2ad8:	0e 94 6d 09 	call	0x12da	; 0x12da <SaveGameState>

                uint8_t cheat[] = "Reset! ";
    2adc:	88 e0       	ldi	r24, 0x08	; 8
    2ade:	e9 e8       	ldi	r30, 0x89	; 137
    2ae0:	ff eb       	ldi	r31, 0xBF	; 191
    2ae2:	de 01       	movw	r26, r28
    2ae4:	11 96       	adiw	r26, 0x01	; 1
    2ae6:	01 90       	ld	r0, Z+
    2ae8:	0d 92       	st	X+, r0
    2aea:	8a 95       	dec	r24
    2aec:	e1 f7       	brne	.-8      	; 0x2ae6 <CheckInput+0x31e>
                SerSpeed(60);
    2aee:	8c e3       	ldi	r24, 0x3C	; 60
    2af0:	0e 94 8d 08 	call	0x111a	; 0x111a <SerSpeed>
                while(1){
                    if (serTxDone) SerSend(&cheat[0]);
    2af4:	80 91 09 38 	lds	r24, 0x3809	; 0x803809 <serTxDone>
    2af8:	88 23       	and	r24, r24
    2afa:	e1 f3       	breq	.-8      	; 0x2af4 <CheckInput+0x32c>
    2afc:	ce 01       	movw	r24, r28
    2afe:	01 96       	adiw	r24, 0x01	; 1
    2b00:	0e 94 7c 08 	call	0x10f8	; 0x10f8 <SerSend>
                }
            }

            //Show used cheat codes
            if (StartsWith(&data[0], "cheat")){
    2b04:	f7 cf       	rjmp	.-18     	; 0x2af4 <CheckInput+0x32c>
    2b06:	6a e7       	ldi	r22, 0x7A	; 122
    2b08:	7f eb       	ldi	r23, 0xBF	; 191
    2b0a:	c8 01       	movw	r24, r16
    2b0c:	96 db       	rcall	.-2260   	; 0x223a <StartsWith>
    2b0e:	88 23       	and	r24, r24
    2b10:	09 f4       	brne	.+2      	; 0x2b14 <CheckInput+0x34c>
    2b12:	9b ce       	rjmp	.-714    	; 0x284a <CheckInput+0x82>
    2b14:	8e e1       	ldi	r24, 0x1E	; 30
    2b16:	c8 2e       	mov	r12, r24
    2b18:	89 e3       	ldi	r24, 0x39	; 57
    2b1a:	d8 2e       	mov	r13, r24
    2b1c:	9e e5       	ldi	r25, 0x5E	; 94
    2b1e:	e9 2e       	mov	r14, r25
    2b20:	99 e3       	ldi	r25, 0x39	; 57
    2b22:	f9 2e       	mov	r15, r25
    2b24:	0e e9       	ldi	r16, 0x9E	; 158
    2b26:	19 e3       	ldi	r17, 0x39	; 57
    2b28:	28 e1       	ldi	r18, 0x18	; 24
    2b2a:	52 2e       	mov	r5, r18
}

//
void SetResponse(uint8_t number, uint16_t address, uint16_t length, uint8_t type){
    reactStr[0][number]=address;
    reactStr[1][number]=length;
    2b2c:	aa 24       	eor	r10, r10
    2b2e:	a3 94       	inc	r10
    2b30:	b1 2c       	mov	r11, r1
    return 0;
}

//
void SetResponse(uint8_t number, uint16_t address, uint16_t length, uint8_t type){
    reactStr[0][number]=address;
    2b32:	47 e5       	ldi	r20, 0x57	; 87
    2b34:	84 2e       	mov	r8, r20
    2b36:	4a e7       	ldi	r20, 0x7A	; 122
    2b38:	94 2e       	mov	r9, r20
    reactStr[1][number]=length;
    2b3a:	52 e0       	ldi	r21, 0x02	; 2
    2b3c:	65 2e       	mov	r6, r21
    2b3e:	71 2c       	mov	r7, r1
            if (StartsWith(&data[0], "cheat")){
                uint8_t bit;
                for (uint8_t x=0; x<MAX_CHEATS; ++x){
                    
                    //Set up sending out number
                    EERead(CHEATS+x, &bit, 1);
    2b40:	41 e0       	ldi	r20, 0x01	; 1
    2b42:	be 01       	movw	r22, r28
    2b44:	6f 5f       	subi	r22, 0xFF	; 255
    2b46:	7f 4f       	sbci	r23, 0xFF	; 255
    2b48:	85 2d       	mov	r24, r5
    2b4a:	0e 94 f8 07 	call	0xff0	; 0xff0 <EERead>
                    bit = 0xff-bit;
    2b4e:	89 81       	ldd	r24, Y+1	; 0x01
    2b50:	80 95       	com	r24
    2b52:	89 83       	std	Y+1, r24	; 0x01
    return 0;
}

//
void SetResponse(uint8_t number, uint16_t address, uint16_t length, uint8_t type){
    reactStr[0][number]=address;
    2b54:	28 2f       	mov	r18, r24
    2b56:	22 95       	swap	r18
    2b58:	2f 70       	andi	r18, 0x0F	; 15
    2b5a:	30 e0       	ldi	r19, 0x00	; 0
    2b5c:	23 57       	subi	r18, 0x73	; 115
    2b5e:	3b 48       	sbci	r19, 0x8B	; 139
    2b60:	f6 01       	movw	r30, r12
    2b62:	20 83       	st	Z, r18
    2b64:	31 83       	std	Z+1, r19	; 0x01
    reactStr[1][number]=length;
    2b66:	f7 01       	movw	r30, r14
    2b68:	a0 82       	st	Z, r10
    2b6a:	b1 82       	std	Z+1, r11	; 0x01
    reactStr[2][number]=type;
    2b6c:	f8 01       	movw	r30, r16
    2b6e:	a0 82       	st	Z, r10
    2b70:	b1 82       	std	Z+1, r11	; 0x01
    return 0;
}

//
void SetResponse(uint8_t number, uint16_t address, uint16_t length, uint8_t type){
    reactStr[0][number]=address;
    2b72:	8f 70       	andi	r24, 0x0F	; 15
    2b74:	90 e0       	ldi	r25, 0x00	; 0
    2b76:	83 57       	subi	r24, 0x73	; 115
    2b78:	9b 48       	sbci	r25, 0x8B	; 139
    2b7a:	f6 01       	movw	r30, r12
    2b7c:	82 83       	std	Z+2, r24	; 0x02
    2b7e:	93 83       	std	Z+3, r25	; 0x03
    reactStr[1][number]=length;
    2b80:	f7 01       	movw	r30, r14
    2b82:	a2 82       	std	Z+2, r10	; 0x02
    2b84:	b3 82       	std	Z+3, r11	; 0x03
    reactStr[2][number]=type;
    2b86:	f8 01       	movw	r30, r16
    2b88:	a2 82       	std	Z+2, r10	; 0x02
    2b8a:	b3 82       	std	Z+3, r11	; 0x03
    return 0;
}

//
void SetResponse(uint8_t number, uint16_t address, uint16_t length, uint8_t type){
    reactStr[0][number]=address;
    2b8c:	f6 01       	movw	r30, r12
    2b8e:	84 82       	std	Z+4, r8	; 0x04
    2b90:	95 82       	std	Z+5, r9	; 0x05
    reactStr[1][number]=length;
    2b92:	f7 01       	movw	r30, r14
    2b94:	64 82       	std	Z+4, r6	; 0x04
    2b96:	75 82       	std	Z+5, r7	; 0x05
    reactStr[2][number]=type;
    2b98:	f8 01       	movw	r30, r16
    2b9a:	a4 82       	std	Z+4, r10	; 0x04
    2b9c:	b5 82       	std	Z+5, r11	; 0x05
    2b9e:	53 94       	inc	r5
    2ba0:	f6 e0       	ldi	r31, 0x06	; 6
    2ba2:	cf 0e       	add	r12, r31
    2ba4:	d1 1c       	adc	r13, r1
    2ba6:	86 e0       	ldi	r24, 0x06	; 6
    2ba8:	e8 0e       	add	r14, r24
    2baa:	f1 1c       	adc	r15, r1
    2bac:	0a 5f       	subi	r16, 0xFA	; 250
            }

            //Show used cheat codes
            if (StartsWith(&data[0], "cheat")){
                uint8_t bit;
                for (uint8_t x=0; x<MAX_CHEATS; ++x){
    2bae:	1f 4f       	sbci	r17, 0xFF	; 255
    2bb0:	e0 e2       	ldi	r30, 0x20	; 32
    2bb2:	5e 12       	cpse	r5, r30
                    //SetResponse(x*4, A_HEXPREFIX, L_HEXPREFIX, TEASER);
                    SetResponse(x*3, A_DIGITS+(bit>>4), 1, TEASER);               
                    SetResponse(x*3+1, A_DIGITS+(bit%16), 1, TEASER);
                    SetResponse(x*3+2, A_COMMA, L_COMMA, TEASER);
                }
                responseList = SetStandardResponse((3*MAX_CHEATS));
    2bb4:	c5 cf       	rjmp	.-118    	; 0x2b40 <CheckInput+0x378>
    2bb6:	88 e1       	ldi	r24, 0x18	; 24
    2bb8:	97 db       	rcall	.-2258   	; 0x22e8 <SetStandardResponse>
    2bba:	80 93 1d 39 	sts	0x391D, r24	; 0x80391d <responseList>
        //Data received, but not any of the commands above
        return 0;
    }

    //Serial input not available yet
    return 1;
    2bbe:	ff 24       	eor	r15, r15
    2bc0:	f3 94       	inc	r15
}
    2bc2:	8f 2d       	mov	r24, r15
    2bc4:	2a 96       	adiw	r28, 0x0a	; 10
    2bc6:	cd bf       	out	0x3d, r28	; 61
    2bc8:	de bf       	out	0x3e, r29	; 62
    2bca:	df 91       	pop	r29
    2bcc:	cf 91       	pop	r28
    2bce:	1f 91       	pop	r17
    2bd0:	0f 91       	pop	r16
    2bd2:	ff 90       	pop	r15
    2bd4:	ef 90       	pop	r14
    2bd6:	df 90       	pop	r13
    2bd8:	cf 90       	pop	r12
    2bda:	bf 90       	pop	r11
    2bdc:	af 90       	pop	r10
    2bde:	9f 90       	pop	r9
    2be0:	8f 90       	pop	r8
    2be2:	7f 90       	pop	r7
    2be4:	6f 90       	pop	r6
    2be6:	5f 90       	pop	r5
    2be8:	08 95       	ret

00002bea <ShowInventory>:

uint8_t ShowInventory(uint8_t elements){
    2bea:	9f 92       	push	r9
    2bec:	af 92       	push	r10
    2bee:	bf 92       	push	r11
    2bf0:	cf 92       	push	r12
    2bf2:	df 92       	push	r13
    2bf4:	ef 92       	push	r14
    2bf6:	ff 92       	push	r15
    2bf8:	0f 93       	push	r16
    2bfa:	1f 93       	push	r17
    2bfc:	cf 93       	push	r28
    2bfe:	df 93       	push	r29
    2c00:	cd b7       	in	r28, 0x3d	; 61
    2c02:	de b7       	in	r29, 0x3e	; 62
    2c04:	ab 97       	sbiw	r28, 0x2b	; 43
    2c06:	cd bf       	out	0x3d, r28	; 61
    2c08:	de bf       	out	0x3e, r29	; 62
    object_model_t actObj1;

    SetResponse(elements++, A_NOWCARRING, L_NOWCARRING, TEASER);
    2c0a:	99 24       	eor	r9, r9
    2c0c:	93 94       	inc	r9
    2c0e:	98 0e       	add	r9, r24
    return 0;
}

//
void SetResponse(uint8_t number, uint16_t address, uint16_t length, uint8_t type){
    reactStr[0][number]=address;
    2c10:	90 e0       	ldi	r25, 0x00	; 0
    2c12:	fc 01       	movw	r30, r24
    2c14:	ee 0f       	add	r30, r30
    2c16:	ff 1f       	adc	r31, r31
    2c18:	e2 5e       	subi	r30, 0xE2	; 226
    2c1a:	f6 4c       	sbci	r31, 0xC6	; 198
    2c1c:	2c ec       	ldi	r18, 0xCC	; 204
    2c1e:	37 e7       	ldi	r19, 0x77	; 119
    2c20:	20 83       	st	Z, r18
    2c22:	31 83       	std	Z+1, r19	; 0x01
    reactStr[1][number]=length;
    2c24:	fc 01       	movw	r30, r24
    2c26:	ee 0f       	add	r30, r30
    2c28:	ff 1f       	adc	r31, r31
    2c2a:	e2 5a       	subi	r30, 0xA2	; 162
    2c2c:	f6 4c       	sbci	r31, 0xC6	; 198
    2c2e:	26 e1       	ldi	r18, 0x16	; 22
    2c30:	30 e0       	ldi	r19, 0x00	; 0
    2c32:	20 83       	st	Z, r18
    2c34:	31 83       	std	Z+1, r19	; 0x01
    reactStr[2][number]=type;
    2c36:	88 0f       	add	r24, r24
    2c38:	99 1f       	adc	r25, r25
    2c3a:	fc 01       	movw	r30, r24
    2c3c:	e2 56       	subi	r30, 0x62	; 98
    2c3e:	f6 4c       	sbci	r31, 0xC6	; 198
    2c40:	81 e0       	ldi	r24, 0x01	; 1
    2c42:	90 e0       	ldi	r25, 0x00	; 0
    2c44:	80 83       	st	Z, r24
    2c46:	91 83       	std	Z+1, r25	; 0x01
    2c48:	00 e4       	ldi	r16, 0x40	; 64
    2c4a:	18 e3       	ldi	r17, 0x38	; 56
    return 0;
}

//
void SetResponse(uint8_t number, uint16_t address, uint16_t length, uint8_t type){
    reactStr[0][number]=address;
    2c4c:	37 e5       	ldi	r19, 0x57	; 87
    2c4e:	e3 2e       	mov	r14, r19
    2c50:	3a e7       	ldi	r19, 0x7A	; 122
    2c52:	f3 2e       	mov	r15, r19
    reactStr[1][number]=length;
    2c54:	42 e0       	ldi	r20, 0x02	; 2
    2c56:	c4 2e       	mov	r12, r20
    2c58:	d1 2c       	mov	r13, r1
    reactStr[2][number]=type;
    2c5a:	aa 24       	eor	r10, r10
    2c5c:	a3 94       	inc	r10
    2c5e:	b1 2c       	mov	r11, r1
    object_model_t actObj1;

    SetResponse(elements++, A_NOWCARRING, L_NOWCARRING, TEASER);

    for (uint8_t x=0; x<2; ++x) {
        if (inventory[x]) {
    2c60:	f8 01       	movw	r30, r16
    2c62:	81 91       	ld	r24, Z+
    2c64:	91 91       	ld	r25, Z+
    2c66:	8f 01       	movw	r16, r30
    2c68:	00 97       	sbiw	r24, 0x00	; 0
    2c6a:	c9 f1       	breq	.+114    	; 0x2cde <ShowInventory+0xf4>
            PopulateObject(inventory[x], &actObj1);
    2c6c:	be 01       	movw	r22, r28
    2c6e:	6f 5f       	subi	r22, 0xFF	; 255
    2c70:	7f 4f       	sbci	r23, 0xFF	; 255
    2c72:	b6 db       	rcall	.-2196   	; 0x23e0 <PopulateObject>
            SetResponse(elements++, actObj1.addrStr[NAME], actObj1.lenStr[NAME], GAME);
    2c74:	2b 8d       	ldd	r18, Y+27	; 0x1b
    2c76:	3c 8d       	ldd	r19, Y+28	; 0x1c
    return 0;
}

//
void SetResponse(uint8_t number, uint16_t address, uint16_t length, uint8_t type){
    reactStr[0][number]=address;
    2c78:	89 2d       	mov	r24, r9
    2c7a:	90 e0       	ldi	r25, 0x00	; 0
    2c7c:	fc 01       	movw	r30, r24
    2c7e:	ee 0f       	add	r30, r30
    2c80:	ff 1f       	adc	r31, r31
    2c82:	e2 5e       	subi	r30, 0xE2	; 226
    2c84:	f6 4c       	sbci	r31, 0xC6	; 198
    2c86:	4d 85       	ldd	r20, Y+13	; 0x0d
    2c88:	5e 85       	ldd	r21, Y+14	; 0x0e
    2c8a:	40 83       	st	Z, r20
    2c8c:	51 83       	std	Z+1, r21	; 0x01
    reactStr[1][number]=length;
    2c8e:	fc 01       	movw	r30, r24
    2c90:	ee 0f       	add	r30, r30
    2c92:	ff 1f       	adc	r31, r31
    2c94:	e2 5a       	subi	r30, 0xA2	; 162
    2c96:	f6 4c       	sbci	r31, 0xC6	; 198
    2c98:	20 83       	st	Z, r18
    2c9a:	31 83       	std	Z+1, r19	; 0x01
    reactStr[2][number]=type;
    2c9c:	88 0f       	add	r24, r24
    2c9e:	99 1f       	adc	r25, r25
    2ca0:	fc 01       	movw	r30, r24
    2ca2:	e2 56       	subi	r30, 0x62	; 98
    2ca4:	f6 4c       	sbci	r31, 0xC6	; 198
    2ca6:	10 82       	st	Z, r1
    2ca8:	11 82       	std	Z+1, r1	; 0x01
    return 0;
}

//
void SetResponse(uint8_t number, uint16_t address, uint16_t length, uint8_t type){
    reactStr[0][number]=address;
    2caa:	81 e0       	ldi	r24, 0x01	; 1
    2cac:	89 0d       	add	r24, r9
    2cae:	90 e0       	ldi	r25, 0x00	; 0
    2cb0:	93 94       	inc	r9
    2cb2:	93 94       	inc	r9
    2cb4:	fc 01       	movw	r30, r24
    2cb6:	ee 0f       	add	r30, r30
    2cb8:	ff 1f       	adc	r31, r31
    2cba:	e2 5e       	subi	r30, 0xE2	; 226
    2cbc:	f6 4c       	sbci	r31, 0xC6	; 198
    2cbe:	e0 82       	st	Z, r14
    2cc0:	f1 82       	std	Z+1, r15	; 0x01
    reactStr[1][number]=length;
    2cc2:	fc 01       	movw	r30, r24
    2cc4:	ee 0f       	add	r30, r30
    2cc6:	ff 1f       	adc	r31, r31
    2cc8:	e2 5a       	subi	r30, 0xA2	; 162
    2cca:	f6 4c       	sbci	r31, 0xC6	; 198
    2ccc:	c0 82       	st	Z, r12
    2cce:	d1 82       	std	Z+1, r13	; 0x01
    reactStr[2][number]=type;
    2cd0:	88 0f       	add	r24, r24
    2cd2:	99 1f       	adc	r25, r25
    2cd4:	fc 01       	movw	r30, r24
    2cd6:	e2 56       	subi	r30, 0x62	; 98
    2cd8:	f6 4c       	sbci	r31, 0xC6	; 198
    2cda:	a0 82       	st	Z, r10
    2cdc:	b1 82       	std	Z+1, r11	; 0x01
uint8_t ShowInventory(uint8_t elements){
    object_model_t actObj1;

    SetResponse(elements++, A_NOWCARRING, L_NOWCARRING, TEASER);

    for (uint8_t x=0; x<2; ++x) {
    2cde:	f8 e3       	ldi	r31, 0x38	; 56
    2ce0:	04 34       	cpi	r16, 0x44	; 68
    2ce2:	1f 07       	cpc	r17, r31
    2ce4:	09 f0       	breq	.+2      	; 0x2ce8 <ShowInventory+0xfe>
    2ce6:	bc cf       	rjmp	.-136    	; 0x2c60 <ShowInventory+0x76>
        }
    }
    elements -= 1;
            
    return elements;
}
    2ce8:	8f ef       	ldi	r24, 0xFF	; 255
    2cea:	89 0d       	add	r24, r9
    2cec:	ab 96       	adiw	r28, 0x2b	; 43
    2cee:	cd bf       	out	0x3d, r28	; 61
    2cf0:	de bf       	out	0x3e, r29	; 62
    2cf2:	df 91       	pop	r29
    2cf4:	cf 91       	pop	r28
    2cf6:	1f 91       	pop	r17
    2cf8:	0f 91       	pop	r16
    2cfa:	ff 90       	pop	r15
    2cfc:	ef 90       	pop	r14
    2cfe:	df 90       	pop	r13
    2d00:	cf 90       	pop	r12
    2d02:	bf 90       	pop	r11
    2d04:	af 90       	pop	r10
    2d06:	9f 90       	pop	r9
    2d08:	08 95       	ret

00002d0a <ProcessInput>:

//The game logic!
uint8_t ProcessInput(uint8_t *data){
    2d0a:	6f 92       	push	r6
    2d0c:	7f 92       	push	r7
    2d0e:	8f 92       	push	r8
    2d10:	9f 92       	push	r9
    2d12:	af 92       	push	r10
    2d14:	bf 92       	push	r11
    2d16:	cf 92       	push	r12
    2d18:	df 92       	push	r13
    2d1a:	ef 92       	push	r14
    2d1c:	ff 92       	push	r15
    2d1e:	0f 93       	push	r16
    2d20:	1f 93       	push	r17
    2d22:	cf 93       	push	r28
    2d24:	df 93       	push	r29
    2d26:	cd b7       	in	r28, 0x3d	; 61
    2d28:	de b7       	in	r29, 0x3e	; 62
    2d2a:	28 97       	sbiw	r28, 0x08	; 8
    2d2c:	cd bf       	out	0x3d, r28	; 61
    2d2e:	de bf       	out	0x3e, r29	; 62
    2d30:	3c 01       	movw	r6, r24
    static object_model_t actObj1, actObj2;
    uint8_t elements = 1;

    CleanInput(&data[0]);
    2d32:	91 dc       	rcall	.-1758   	; 0x2656 <CleanInput>
    uint8_t inputLen = CleanInput(&data[0]);
    2d34:	c3 01       	movw	r24, r6
    2d36:	8f dc       	rcall	.-1762   	; 0x2656 <CleanInput>
    2d38:	f8 2e       	mov	r15, r24
    return 0;
}

//
void SetResponse(uint8_t number, uint16_t address, uint16_t length, uint8_t type){
    reactStr[0][number]=address;
    2d3a:	29 e5       	ldi	r18, 0x59	; 89
    2d3c:	3a e7       	ldi	r19, 0x7A	; 122
    2d3e:	20 93 1e 39 	sts	0x391E, r18	; 0x80391e <reactStr>
    2d42:	30 93 1f 39 	sts	0x391F, r19	; 0x80391f <reactStr+0x1>
    reactStr[1][number]=length;
    2d46:	84 e0       	ldi	r24, 0x04	; 4
    2d48:	90 e0       	ldi	r25, 0x00	; 0
    2d4a:	80 93 5e 39 	sts	0x395E, r24	; 0x80395e <reactStr+0x40>
    2d4e:	90 93 5f 39 	sts	0x395F, r25	; 0x80395f <reactStr+0x41>
    reactStr[2][number]=type;
    2d52:	01 e0       	ldi	r16, 0x01	; 1
    2d54:	10 e0       	ldi	r17, 0x00	; 0
    2d56:	00 93 9e 39 	sts	0x399E, r16	; 0x80399e <reactStr+0x80>
    2d5a:	10 93 9f 39 	sts	0x399F, r17	; 0x80399f <reactStr+0x81>

    CleanInput(&data[0]);
    uint8_t inputLen = CleanInput(&data[0]);
    SetResponse(0, A_LF, 4, TEASER);

    if (inputLen) {
    2d5e:	ff 20       	and	r15, r15
    2d60:	09 f4       	brne	.+2      	; 0x2d64 <ProcessInput+0x5a>
    2d62:	54 c7       	rjmp	.+3752   	; 0x3c0c <ProcessInput+0xf02>

        //eXit to previous location
        if (data[0] == 'x'){
    2d64:	d3 01       	movw	r26, r6
    2d66:	8c 91       	ld	r24, X
    2d68:	88 37       	cpi	r24, 0x78	; 120
    2d6a:	09 f0       	breq	.+2      	; 0x2d6e <ProcessInput+0x64>
    2d6c:	45 c0       	rjmp	.+138    	; 0x2df8 <ProcessInput+0xee>

            //Standing in the Lobby?
            if ((route[currDepth] == 0)||(currDepth == 0)){
    2d6e:	80 91 31 38 	lds	r24, 0x3831	; 0x803831 <currDepth>
    2d72:	e8 2f       	mov	r30, r24
    2d74:	f0 e0       	ldi	r31, 0x00	; 0
    2d76:	ee 0f       	add	r30, r30
    2d78:	ff 1f       	adc	r31, r31
    2d7a:	e2 52       	subi	r30, 0x22	; 34
    2d7c:	f6 4c       	sbci	r31, 0xC6	; 198
    2d7e:	20 81       	ld	r18, Z
    2d80:	31 81       	ldd	r19, Z+1	; 0x01
    2d82:	23 2b       	or	r18, r19
    2d84:	11 f0       	breq	.+4      	; 0x2d8a <ProcessInput+0x80>
    2d86:	81 11       	cpse	r24, r1
    2d88:	03 c0       	rjmp	.+6      	; 0x2d90 <ProcessInput+0x86>
    return 0;
}

//
void SetResponse(uint8_t number, uint16_t address, uint16_t length, uint8_t type){
    reactStr[0][number]=address;
    2d8a:	84 e4       	ldi	r24, 0x44	; 68
    2d8c:	96 e7       	ldi	r25, 0x76	; 118
    2d8e:	13 c5       	rjmp	.+2598   	; 0x37b6 <ProcessInput+0xaac>
            //Standing in the Lobby?
            if ((route[currDepth] == 0)||(currDepth == 0)){
                SetResponse(elements++, A_NOTPOSSIBLE, L_NOTPOSSIBLE, TEASER);
            
            //Is there a way to go back?
            } else if (CheckState(currObj.byteField[OPEN_ACL])){
    2d90:	80 91 24 3a 	lds	r24, 0x3A24	; 0x803a24 <currObj+0x6>
    2d94:	0e 94 15 0a 	call	0x142a	; 0x142a <CheckState>
    2d98:	88 23       	and	r24, r24
    2d9a:	b9 f0       	breq	.+46     	; 0x2dca <ProcessInput+0xc0>
                --currDepth;
    2d9c:	e0 91 31 38 	lds	r30, 0x3831	; 0x803831 <currDepth>
    2da0:	e1 50       	subi	r30, 0x01	; 1
    2da2:	e0 93 31 38 	sts	0x3831, r30	; 0x803831 <currDepth>
                PopulateObject(route[currDepth], &currObj);
    2da6:	f0 e0       	ldi	r31, 0x00	; 0
    2da8:	ee 0f       	add	r30, r30
    2daa:	ff 1f       	adc	r31, r31
    2dac:	e2 52       	subi	r30, 0x22	; 34
    2dae:	f6 4c       	sbci	r31, 0xC6	; 198
    2db0:	6e e1       	ldi	r22, 0x1E	; 30
    2db2:	7a e3       	ldi	r23, 0x3A	; 58
    2db4:	80 81       	ld	r24, Z
    2db6:	91 81       	ldd	r25, Z+1	; 0x01
    2db8:	13 db       	rcall	.-2522   	; 0x23e0 <PopulateObject>
                effect = currObj.byteField[EFFECTS];
    2dba:	80 91 22 3a 	lds	r24, 0x3A22	; 0x803a22 <currObj+0x4>
    2dbe:	90 e0       	ldi	r25, 0x00	; 0
    2dc0:	80 93 3c 38 	sts	0x383C, r24	; 0x80383c <effect>
    2dc4:	90 93 3d 38 	sts	0x383D, r25	; 0x80383d <effect+0x1>
    2dc8:	2a c2       	rjmp	.+1108   	; 0x321e <ProcessInput+0x514>
            
            //No way out, print denied message of location
            } else {
                SetResponse(elements++, currObj.addrStr[OPEN_ACL_MSG], currObj.lenStr[OPEN_ACL_MSG], GAME);
    2dca:	80 91 40 3a 	lds	r24, 0x3A40	; 0x803a40 <currObj+0x22>
    2dce:	90 91 41 3a 	lds	r25, 0x3A41	; 0x803a41 <currObj+0x23>
    return 0;
}

//
void SetResponse(uint8_t number, uint16_t address, uint16_t length, uint8_t type){
    reactStr[0][number]=address;
    2dd2:	20 91 32 3a 	lds	r18, 0x3A32	; 0x803a32 <currObj+0x14>
    2dd6:	30 91 33 3a 	lds	r19, 0x3A33	; 0x803a33 <currObj+0x15>
    2dda:	20 93 20 39 	sts	0x3920, r18	; 0x803920 <reactStr+0x2>
    2dde:	30 93 21 39 	sts	0x3921, r19	; 0x803921 <reactStr+0x3>
    reactStr[1][number]=length;
    2de2:	80 93 60 39 	sts	0x3960, r24	; 0x803960 <reactStr+0x42>
    2de6:	90 93 61 39 	sts	0x3961, r25	; 0x803961 <reactStr+0x43>
    reactStr[2][number]=type;
    2dea:	10 92 a0 39 	sts	0x39A0, r1	; 0x8039a0 <reactStr+0x82>
    2dee:	10 92 a1 39 	sts	0x39A1, r1	; 0x8039a1 <reactStr+0x83>
                effect = currObj.byteField[EFFECTS];
            
            //No way out, print denied message of location
            } else {
                SetResponse(elements++, currObj.addrStr[OPEN_ACL_MSG], currObj.lenStr[OPEN_ACL_MSG], GAME);
                effect = currObj.effect[0];               
    2df2:	80 91 46 3a 	lds	r24, 0x3A46	; 0x803a46 <currObj+0x28>
    2df6:	a9 c5       	rjmp	.+2898   	; 0x394a <ProcessInput+0xc40>
            }   
        
        //Enter locations or Open objects    
        } else if ((data[0] == 'e')||(data[0] == 'o')) {
    2df8:	85 36       	cpi	r24, 0x65	; 101
    2dfa:	19 f0       	breq	.+6      	; 0x2e02 <ProcessInput+0xf8>
    2dfc:	8f 36       	cpi	r24, 0x6F	; 111
    2dfe:	09 f0       	breq	.+2      	; 0x2e02 <ProcessInput+0xf8>
    2e00:	de c0       	rjmp	.+444    	; 0x2fbe <ProcessInput+0x2b4>
                
            //Not possible, too many/little characters
            if (inputLen != 2){
    2e02:	b2 e0       	ldi	r27, 0x02	; 2
    2e04:	fb 12       	cpse	r15, r27
    2e06:	c1 cf       	rjmp	.-126    	; 0x2d8a <ProcessInput+0x80>
                SetResponse(elements++, A_NOTPOSSIBLE, L_NOTPOSSIBLE, TEASER);
            } else {
                uint8_t canDo = 0;
                route[currDepth+1] = FindChild(route[currDepth], data[1], 0);
    2e08:	00 91 31 38 	lds	r16, 0x3831	; 0x803831 <currDepth>
    2e0c:	10 e0       	ldi	r17, 0x00	; 0
    2e0e:	f8 01       	movw	r30, r16
    2e10:	ee 0f       	add	r30, r30
    2e12:	ff 1f       	adc	r31, r31
    2e14:	e2 52       	subi	r30, 0x22	; 34
    2e16:	f6 4c       	sbci	r31, 0xC6	; 198
    2e18:	40 e0       	ldi	r20, 0x00	; 0
    2e1a:	50 e0       	ldi	r21, 0x00	; 0
    2e1c:	d3 01       	movw	r26, r6
    2e1e:	11 96       	adiw	r26, 0x01	; 1
    2e20:	6c 91       	ld	r22, X
    2e22:	80 81       	ld	r24, Z
    2e24:	91 81       	ldd	r25, Z+1	; 0x01
    2e26:	ab db       	rcall	.-2218   	; 0x257e <FindChild>
    2e28:	00 0f       	add	r16, r16
    2e2a:	11 1f       	adc	r17, r17
    2e2c:	f8 01       	movw	r30, r16
    2e2e:	e0 52       	subi	r30, 0x20	; 32
    2e30:	f6 4c       	sbci	r31, 0xC6	; 198
    2e32:	80 83       	st	Z, r24
    2e34:	91 83       	std	Z+1, r25	; 0x01
                    
                //Child found?
                if (route[currDepth+1]) {
    2e36:	90 91 31 38 	lds	r25, 0x3831	; 0x803831 <currDepth>
    2e3a:	29 2f       	mov	r18, r25
    2e3c:	30 e0       	ldi	r19, 0x00	; 0
    2e3e:	f9 01       	movw	r30, r18
    2e40:	ee 0f       	add	r30, r30
    2e42:	ff 1f       	adc	r31, r31
    2e44:	e0 52       	subi	r30, 0x20	; 32
    2e46:	f6 4c       	sbci	r31, 0xC6	; 198
    2e48:	40 81       	ld	r20, Z
    2e4a:	51 81       	ldd	r21, Z+1	; 0x01
    2e4c:	41 15       	cp	r20, r1
    2e4e:	51 05       	cpc	r21, r1
    2e50:	21 f0       	breq	.+8      	; 0x2e5a <ProcessInput+0x150>
                    PopulateObject(route[currDepth+1], &actObj1);
    2e52:	6d ed       	ldi	r22, 0xDD	; 221
    2e54:	78 e3       	ldi	r23, 0x38	; 56
    2e56:	ca 01       	movw	r24, r20
    2e58:	1c c0       	rjmp	.+56     	; 0x2e92 <ProcessInput+0x188>
                    canDo = 1;
                //No child, maybe a step back, letter ok?
                } else if (currDepth) {
    2e5a:	99 23       	and	r25, r25
    2e5c:	09 f4       	brne	.+2      	; 0x2e60 <ProcessInput+0x156>
    2e5e:	dc c6       	rjmp	.+3512   	; 0x3c18 <ProcessInput+0xf0e>
                    if (CheckLetter(route[currDepth-1], data[1])) {
    2e60:	22 0f       	add	r18, r18
    2e62:	33 1f       	adc	r19, r19
    2e64:	f9 01       	movw	r30, r18
    2e66:	e4 52       	subi	r30, 0x24	; 36
    2e68:	f6 4c       	sbci	r31, 0xC6	; 198
    2e6a:	d3 01       	movw	r26, r6
    2e6c:	11 96       	adiw	r26, 0x01	; 1
    2e6e:	6c 91       	ld	r22, X
    2e70:	80 81       	ld	r24, Z
    2e72:	91 81       	ldd	r25, Z+1	; 0x01
    2e74:	2e db       	rcall	.-2468   	; 0x24d2 <CheckLetter>
    2e76:	88 23       	and	r24, r24
    2e78:	09 f4       	brne	.+2      	; 0x2e7c <ProcessInput+0x172>
    2e7a:	ce c6       	rjmp	.+3484   	; 0x3c18 <ProcessInput+0xf0e>
                        PopulateObject(route[currDepth-1], &actObj1);
    2e7c:	e0 91 31 38 	lds	r30, 0x3831	; 0x803831 <currDepth>
    2e80:	f0 e0       	ldi	r31, 0x00	; 0
    2e82:	ee 0f       	add	r30, r30
    2e84:	ff 1f       	adc	r31, r31
    2e86:	e4 52       	subi	r30, 0x24	; 36
    2e88:	f6 4c       	sbci	r31, 0xC6	; 198
    2e8a:	6d ed       	ldi	r22, 0xDD	; 221
    2e8c:	78 e3       	ldi	r23, 0x38	; 56
    2e8e:	80 81       	ld	r24, Z
    2e90:	91 81       	ldd	r25, Z+1	; 0x01
    2e92:	a6 da       	rcall	.-2740   	; 0x23e0 <PopulateObject>
                    }
                }

                //The candidate is found! Let's check if the action is legit
                if (canDo) {
                    if ((data[0] == 'e') && ((actObj1.byteField[ACTION_MASK]&ENTER)==0)) {
    2e94:	d3 01       	movw	r26, r6
    2e96:	8c 91       	ld	r24, X
    2e98:	85 36       	cpi	r24, 0x65	; 101
    2e9a:	c1 f4       	brne	.+48     	; 0x2ecc <ProcessInput+0x1c2>
    2e9c:	80 91 e5 38 	lds	r24, 0x38E5	; 0x8038e5 <actObj1.3989+0x8>
    2ea0:	80 fd       	sbrc	r24, 0
    2ea2:	1d c0       	rjmp	.+58     	; 0x2ede <ProcessInput+0x1d4>
    return 0;
}

//
void SetResponse(uint8_t number, uint16_t address, uint16_t length, uint8_t type){
    reactStr[0][number]=address;
    2ea4:	8d e9       	ldi	r24, 0x9D	; 157
    2ea6:	99 e7       	ldi	r25, 0x79	; 121
    2ea8:	80 93 20 39 	sts	0x3920, r24	; 0x803920 <reactStr+0x2>
    2eac:	90 93 21 39 	sts	0x3921, r25	; 0x803921 <reactStr+0x3>
    reactStr[1][number]=length;
    2eb0:	8e e1       	ldi	r24, 0x1E	; 30
    2eb2:	90 e0       	ldi	r25, 0x00	; 0
    2eb4:	80 93 60 39 	sts	0x3960, r24	; 0x803960 <reactStr+0x42>
    2eb8:	90 93 61 39 	sts	0x3961, r25	; 0x803961 <reactStr+0x43>
    reactStr[2][number]=type;
    2ebc:	81 e0       	ldi	r24, 0x01	; 1
    2ebe:	90 e0       	ldi	r25, 0x00	; 0
    2ec0:	80 93 a0 39 	sts	0x39A0, r24	; 0x8039a0 <reactStr+0x82>
    2ec4:	90 93 a1 39 	sts	0x39A1, r25	; 0x8039a1 <reactStr+0x83>
                }

                //The candidate is found! Let's check if the action is legit
                if (canDo) {
                    if ((data[0] == 'e') && ((actObj1.byteField[ACTION_MASK]&ENTER)==0)) {
                        SetResponse(elements++, A_CANTENTER, L_CANTENTER, TEASER);
    2ec8:	12 e0       	ldi	r17, 0x02	; 2
    2eca:	97 c6       	rjmp	.+3374   	; 0x3bfa <ProcessInput+0xef0>
                    } else if ((data[0] == 'o') && ((actObj1.byteField[ACTION_MASK]&OPEN)==0)) {
    2ecc:	8f 36       	cpi	r24, 0x6F	; 111
    2ece:	39 f4       	brne	.+14     	; 0x2ede <ProcessInput+0x1d4>
    2ed0:	80 91 e5 38 	lds	r24, 0x38E5	; 0x8038e5 <actObj1.3989+0x8>
    2ed4:	81 fd       	sbrc	r24, 1
    2ed6:	03 c0       	rjmp	.+6      	; 0x2ede <ProcessInput+0x1d4>
    return 0;
}

//
void SetResponse(uint8_t number, uint16_t address, uint16_t length, uint8_t type){
    reactStr[0][number]=address;
    2ed8:	82 e8       	ldi	r24, 0x82	; 130
    2eda:	99 e7       	ldi	r25, 0x79	; 121
    2edc:	6c c4       	rjmp	.+2264   	; 0x37b6 <ProcessInput+0xaac>
                        SetResponse(elements++, A_CANTENTER, L_CANTENTER, TEASER);
                    } else if ((data[0] == 'o') && ((actObj1.byteField[ACTION_MASK]&OPEN)==0)) {
                        SetResponse(elements++, A_CANTOPEN, L_CANTOPEN, TEASER);
                    
                    //Action legit, permission granted?
                    } else if (CheckState(actObj1.byteField[OPEN_ACL])) {
    2ede:	80 91 e3 38 	lds	r24, 0x38E3	; 0x8038e3 <actObj1.3989+0x6>
    2ee2:	0e 94 15 0a 	call	0x142a	; 0x142a <CheckState>
    2ee6:	e0 91 31 38 	lds	r30, 0x3831	; 0x803831 <currDepth>
    2eea:	88 23       	and	r24, r24
    2eec:	09 f4       	brne	.+2      	; 0x2ef0 <ProcessInput+0x1e6>
    2eee:	49 c0       	rjmp	.+146    	; 0x2f82 <ProcessInput+0x278>
                            
                        //Yes! Check if we must move forward or backwards.
                        if (route[currDepth+1]) ++currDepth; else --currDepth;
    2ef0:	ae 2f       	mov	r26, r30
    2ef2:	b0 e0       	ldi	r27, 0x00	; 0
    2ef4:	aa 0f       	add	r26, r26
    2ef6:	bb 1f       	adc	r27, r27
    2ef8:	a0 52       	subi	r26, 0x20	; 32
    2efa:	b6 4c       	sbci	r27, 0xC6	; 198
    2efc:	8d 91       	ld	r24, X+
    2efe:	9c 91       	ld	r25, X
    2f00:	89 2b       	or	r24, r25
    2f02:	11 f0       	breq	.+4      	; 0x2f08 <ProcessInput+0x1fe>
    2f04:	ef 5f       	subi	r30, 0xFF	; 255
    2f06:	01 c0       	rjmp	.+2      	; 0x2f0a <ProcessInput+0x200>
    2f08:	e1 50       	subi	r30, 0x01	; 1
    2f0a:	e0 93 31 38 	sts	0x3831, r30	; 0x803831 <currDepth>
                        PopulateObject(route[currDepth], &currObj);
    2f0e:	e0 91 31 38 	lds	r30, 0x3831	; 0x803831 <currDepth>
    2f12:	f0 e0       	ldi	r31, 0x00	; 0
    2f14:	ee 0f       	add	r30, r30
    2f16:	ff 1f       	adc	r31, r31
    2f18:	e2 52       	subi	r30, 0x22	; 34
    2f1a:	f6 4c       	sbci	r31, 0xC6	; 198
    2f1c:	6e e1       	ldi	r22, 0x1E	; 30
    2f1e:	7a e3       	ldi	r23, 0x3A	; 58
    2f20:	80 81       	ld	r24, Z
    2f22:	91 81       	ldd	r25, Z+1	; 0x01
    2f24:	5d da       	rcall	.-2886   	; 0x23e0 <PopulateObject>
                        SetResponse(elements++, currObj.addrStr[DESC], currObj.lenStr[DESC],GAME);
    2f26:	80 91 3a 3a 	lds	r24, 0x3A3A	; 0x803a3a <currObj+0x1c>
    2f2a:	90 91 3b 3a 	lds	r25, 0x3A3B	; 0x803a3b <currObj+0x1d>
    return 0;
}

//
void SetResponse(uint8_t number, uint16_t address, uint16_t length, uint8_t type){
    reactStr[0][number]=address;
    2f2e:	20 91 2c 3a 	lds	r18, 0x3A2C	; 0x803a2c <currObj+0xe>
    2f32:	30 91 2d 3a 	lds	r19, 0x3A2D	; 0x803a2d <currObj+0xf>
    2f36:	20 93 20 39 	sts	0x3920, r18	; 0x803920 <reactStr+0x2>
    2f3a:	30 93 21 39 	sts	0x3921, r19	; 0x803921 <reactStr+0x3>
    reactStr[1][number]=length;
    2f3e:	80 93 60 39 	sts	0x3960, r24	; 0x803960 <reactStr+0x42>
    2f42:	90 93 61 39 	sts	0x3961, r25	; 0x803961 <reactStr+0x43>
    reactStr[2][number]=type;
    2f46:	10 92 a0 39 	sts	0x39A0, r1	; 0x8039a0 <reactStr+0x82>
    2f4a:	10 92 a1 39 	sts	0x39A1, r1	; 0x8039a1 <reactStr+0x83>
    return 0;
}

//
void SetResponse(uint8_t number, uint16_t address, uint16_t length, uint8_t type){
    reactStr[0][number]=address;
    2f4e:	89 e5       	ldi	r24, 0x59	; 89
    2f50:	9a e7       	ldi	r25, 0x7A	; 122
    2f52:	80 93 22 39 	sts	0x3922, r24	; 0x803922 <reactStr+0x4>
    2f56:	90 93 23 39 	sts	0x3923, r25	; 0x803923 <reactStr+0x5>
    reactStr[1][number]=length;
    2f5a:	82 e0       	ldi	r24, 0x02	; 2
    2f5c:	90 e0       	ldi	r25, 0x00	; 0
    2f5e:	80 93 62 39 	sts	0x3962, r24	; 0x803962 <reactStr+0x44>
    2f62:	90 93 63 39 	sts	0x3963, r25	; 0x803963 <reactStr+0x45>
    reactStr[2][number]=type;
    2f66:	81 e0       	ldi	r24, 0x01	; 1
    2f68:	90 e0       	ldi	r25, 0x00	; 0
    2f6a:	80 93 a2 39 	sts	0x39A2, r24	; 0x8039a2 <reactStr+0x84>
    2f6e:	90 93 a3 39 	sts	0x39A3, r25	; 0x8039a3 <reactStr+0x85>
                        //Yes! Check if we must move forward or backwards.
                        if (route[currDepth+1]) ++currDepth; else --currDepth;
                        PopulateObject(route[currDepth], &currObj);
                        SetResponse(elements++, currObj.addrStr[DESC], currObj.lenStr[DESC],GAME);
                        SetResponse(elements++, A_LF, 2, TEASER);
                        effect = currObj.byteField[EFFECTS];
    2f72:	80 91 22 3a 	lds	r24, 0x3A22	; 0x803a22 <currObj+0x4>
    2f76:	90 e0       	ldi	r25, 0x00	; 0
    2f78:	80 93 3c 38 	sts	0x383C, r24	; 0x80383c <effect>
    2f7c:	90 93 3d 38 	sts	0x383D, r25	; 0x80383d <effect+0x1>
    2f80:	07 c4       	rjmp	.+2062   	; 0x3790 <ProcessInput+0xa86>
                                                  
                    //Not granted!
                    } else {
                        route[currDepth+1] = 0;
    2f82:	f0 e0       	ldi	r31, 0x00	; 0
    2f84:	ee 0f       	add	r30, r30
    2f86:	ff 1f       	adc	r31, r31
    2f88:	e0 52       	subi	r30, 0x20	; 32
    2f8a:	f6 4c       	sbci	r31, 0xC6	; 198
    2f8c:	10 82       	st	Z, r1
    2f8e:	11 82       	std	Z+1, r1	; 0x01
                        SetResponse(elements++, actObj1.addrStr[OPEN_ACL_MSG], actObj1.lenStr[OPEN_ACL_MSG], GAME);
    2f90:	80 91 ff 38 	lds	r24, 0x38FF	; 0x8038ff <actObj1.3989+0x22>
    2f94:	90 91 00 39 	lds	r25, 0x3900	; 0x803900 <actObj1.3989+0x23>
    return 0;
}

//
void SetResponse(uint8_t number, uint16_t address, uint16_t length, uint8_t type){
    reactStr[0][number]=address;
    2f98:	20 91 f1 38 	lds	r18, 0x38F1	; 0x8038f1 <actObj1.3989+0x14>
    2f9c:	30 91 f2 38 	lds	r19, 0x38F2	; 0x8038f2 <actObj1.3989+0x15>
    2fa0:	20 93 20 39 	sts	0x3920, r18	; 0x803920 <reactStr+0x2>
    2fa4:	30 93 21 39 	sts	0x3921, r19	; 0x803921 <reactStr+0x3>
    reactStr[1][number]=length;
    2fa8:	80 93 60 39 	sts	0x3960, r24	; 0x803960 <reactStr+0x42>
    2fac:	90 93 61 39 	sts	0x3961, r25	; 0x803961 <reactStr+0x43>
    reactStr[2][number]=type;
    2fb0:	10 92 a0 39 	sts	0x39A0, r1	; 0x8039a0 <reactStr+0x82>
    2fb4:	10 92 a1 39 	sts	0x39A1, r1	; 0x8039a1 <reactStr+0x83>
                                                  
                    //Not granted!
                    } else {
                        route[currDepth+1] = 0;
                        SetResponse(elements++, actObj1.addrStr[OPEN_ACL_MSG], actObj1.lenStr[OPEN_ACL_MSG], GAME);
                        effect = actObj1.effect[0];              
    2fb8:	80 91 05 39 	lds	r24, 0x3905	; 0x803905 <actObj1.3989+0x28>
    2fbc:	c6 c4       	rjmp	.+2444   	; 0x394a <ProcessInput+0xc40>
                    SetResponse(elements++, A_DONTSEE, L_DONTSEE, TEASER);                
                }
            }

        //Look around or at objects
        } else if (data[0] == 'l') {
    2fbe:	8c 36       	cpi	r24, 0x6C	; 108
    2fc0:	09 f0       	breq	.+2      	; 0x2fc4 <ProcessInput+0x2ba>
    2fc2:	59 c1       	rjmp	.+690    	; 0x3276 <ProcessInput+0x56c>
    2fc4:	e0 91 31 38 	lds	r30, 0x3831	; 0x803831 <currDepth>
            if (inputLen == 1) {
    2fc8:	b1 e0       	ldi	r27, 0x01	; 1
    2fca:	fb 12       	cpse	r15, r27
    2fcc:	f1 c0       	rjmp	.+482    	; 0x31b0 <ProcessInput+0x4a6>

                //Show info about this area first
                SetResponse(elements++, currObj.addrStr[DESC], currObj.lenStr[DESC],GAME);
    2fce:	80 91 3a 3a 	lds	r24, 0x3A3A	; 0x803a3a <currObj+0x1c>
    2fd2:	90 91 3b 3a 	lds	r25, 0x3A3B	; 0x803a3b <currObj+0x1d>
    return 0;
}

//
void SetResponse(uint8_t number, uint16_t address, uint16_t length, uint8_t type){
    reactStr[0][number]=address;
    2fd6:	40 91 2c 3a 	lds	r20, 0x3A2C	; 0x803a2c <currObj+0xe>
    2fda:	50 91 2d 3a 	lds	r21, 0x3A2D	; 0x803a2d <currObj+0xf>
    2fde:	40 93 20 39 	sts	0x3920, r20	; 0x803920 <reactStr+0x2>
    2fe2:	50 93 21 39 	sts	0x3921, r21	; 0x803921 <reactStr+0x3>
    reactStr[1][number]=length;
    2fe6:	80 93 60 39 	sts	0x3960, r24	; 0x803960 <reactStr+0x42>
    2fea:	90 93 61 39 	sts	0x3961, r25	; 0x803961 <reactStr+0x43>
    reactStr[2][number]=type;
    2fee:	10 92 a0 39 	sts	0x39A0, r1	; 0x8039a0 <reactStr+0x82>
    2ff2:	10 92 a1 39 	sts	0x39A1, r1	; 0x8039a1 <reactStr+0x83>
    return 0;
}

//
void SetResponse(uint8_t number, uint16_t address, uint16_t length, uint8_t type){
    reactStr[0][number]=address;
    2ff6:	20 93 22 39 	sts	0x3922, r18	; 0x803922 <reactStr+0x4>
    2ffa:	30 93 23 39 	sts	0x3923, r19	; 0x803923 <reactStr+0x5>
    reactStr[1][number]=length;
    2ffe:	82 e0       	ldi	r24, 0x02	; 2
    3000:	90 e0       	ldi	r25, 0x00	; 0
    3002:	80 93 62 39 	sts	0x3962, r24	; 0x803962 <reactStr+0x44>
    3006:	90 93 63 39 	sts	0x3963, r25	; 0x803963 <reactStr+0x45>
    reactStr[2][number]=type;
    300a:	00 93 a2 39 	sts	0x39A2, r16	; 0x8039a2 <reactStr+0x84>
    300e:	10 93 a3 39 	sts	0x39A3, r17	; 0x8039a3 <reactStr+0x85>
    return 0;
}

//
void SetResponse(uint8_t number, uint16_t address, uint16_t length, uint8_t type){
    reactStr[0][number]=address;
    3012:	8b ee       	ldi	r24, 0xEB	; 235
    3014:	99 e7       	ldi	r25, 0x79	; 121
    3016:	80 93 24 39 	sts	0x3924, r24	; 0x803924 <reactStr+0x6>
    301a:	90 93 25 39 	sts	0x3925, r25	; 0x803925 <reactStr+0x7>
    reactStr[1][number]=length;
    301e:	85 e1       	ldi	r24, 0x15	; 21
    3020:	90 e0       	ldi	r25, 0x00	; 0
    3022:	80 93 64 39 	sts	0x3964, r24	; 0x803964 <reactStr+0x46>
    3026:	90 93 65 39 	sts	0x3965, r25	; 0x803965 <reactStr+0x47>
    reactStr[2][number]=type;
    302a:	00 93 a4 39 	sts	0x39A4, r16	; 0x8039a4 <reactStr+0x86>
    302e:	10 93 a5 39 	sts	0x39A5, r17	; 0x8039a5 <reactStr+0x87>
                SetResponse(elements++, currObj.addrStr[DESC], currObj.lenStr[DESC],GAME);
                SetResponse(elements++, A_LF, 2, TEASER);
                SetResponse(elements++, A_LOOK, L_LOOK, TEASER);

                //Check the visible children first
                route[currDepth+1] = 0;
    3032:	f0 e0       	ldi	r31, 0x00	; 0
    3034:	ee 0f       	add	r30, r30
    3036:	ff 1f       	adc	r31, r31
    3038:	e0 52       	subi	r30, 0x20	; 32
    303a:	f6 4c       	sbci	r31, 0xC6	; 198
    303c:	10 82       	st	Z, r1
    303e:	11 82       	std	Z+1, r1	; 0x01
            if (inputLen == 1) {

                //Show info about this area first
                SetResponse(elements++, currObj.addrStr[DESC], currObj.lenStr[DESC],GAME);
                SetResponse(elements++, A_LF, 2, TEASER);
                SetResponse(elements++, A_LOOK, L_LOOK, TEASER);
    3040:	b4 e0       	ldi	r27, 0x04	; 4
    3042:	9b 2e       	mov	r9, r27
    return 0;
}

//
void SetResponse(uint8_t number, uint16_t address, uint16_t length, uint8_t type){
    reactStr[0][number]=address;
    3044:	17 e5       	ldi	r17, 0x57	; 87
    3046:	e1 2e       	mov	r14, r17
    3048:	1a e7       	ldi	r17, 0x7A	; 122
    304a:	f1 2e       	mov	r15, r17
    reactStr[1][number]=length;
    304c:	02 e0       	ldi	r16, 0x02	; 2
    304e:	c0 2e       	mov	r12, r16
    3050:	d1 2c       	mov	r13, r1
    reactStr[2][number]=type;
    3052:	aa 24       	eor	r10, r10
    3054:	a3 94       	inc	r10
    3056:	b1 2c       	mov	r11, r1
                SetResponse(elements++, A_LOOK, L_LOOK, TEASER);

                //Check the visible children first
                route[currDepth+1] = 0;
                do{
                    route[currDepth+1] = FindChild(route[currDepth], 0, route[currDepth+1]);
    3058:	80 91 31 38 	lds	r24, 0x3831	; 0x803831 <currDepth>
    305c:	90 e0       	ldi	r25, 0x00	; 0
    305e:	8c 01       	movw	r16, r24
    3060:	00 0f       	add	r16, r16
    3062:	11 1f       	adc	r17, r17
    3064:	00 52       	subi	r16, 0x20	; 32
    3066:	16 4c       	sbci	r17, 0xC6	; 198
    3068:	f8 01       	movw	r30, r16
    306a:	40 81       	ld	r20, Z
    306c:	51 81       	ldd	r21, Z+1	; 0x01
    306e:	88 0f       	add	r24, r24
    3070:	99 1f       	adc	r25, r25
    3072:	fc 01       	movw	r30, r24
    3074:	e2 52       	subi	r30, 0x22	; 34
    3076:	f6 4c       	sbci	r31, 0xC6	; 198
    3078:	60 e0       	ldi	r22, 0x00	; 0
    307a:	80 81       	ld	r24, Z
    307c:	91 81       	ldd	r25, Z+1	; 0x01
    307e:	7f da       	rcall	.-2818   	; 0x257e <FindChild>
    3080:	d8 01       	movw	r26, r16
    3082:	8d 93       	st	X+, r24
    3084:	9c 93       	st	X, r25
                    if (route[currDepth+1]) {
    3086:	e0 91 31 38 	lds	r30, 0x3831	; 0x803831 <currDepth>
    308a:	f0 e0       	ldi	r31, 0x00	; 0
    308c:	ee 0f       	add	r30, r30
    308e:	ff 1f       	adc	r31, r31
    3090:	e0 52       	subi	r30, 0x20	; 32
    3092:	f6 4c       	sbci	r31, 0xC6	; 198
    3094:	80 81       	ld	r24, Z
    3096:	91 81       	ldd	r25, Z+1	; 0x01
    3098:	00 97       	sbiw	r24, 0x00	; 0
    309a:	09 f4       	brne	.+2      	; 0x309e <ProcessInput+0x394>
    309c:	4a c0       	rjmp	.+148    	; 0x3132 <ProcessInput+0x428>
                        if ((route[currDepth+1] != inventory[0])&&(route[currDepth+1] != inventory[1])) {
    309e:	20 91 40 38 	lds	r18, 0x3840	; 0x803840 <inventory>
    30a2:	30 91 41 38 	lds	r19, 0x3841	; 0x803841 <inventory+0x1>
    30a6:	82 17       	cp	r24, r18
    30a8:	93 07       	cpc	r25, r19
    30aa:	09 f4       	brne	.+2      	; 0x30ae <ProcessInput+0x3a4>
    30ac:	42 c0       	rjmp	.+132    	; 0x3132 <ProcessInput+0x428>
    30ae:	20 91 42 38 	lds	r18, 0x3842	; 0x803842 <inventory+0x2>
    30b2:	30 91 43 38 	lds	r19, 0x3843	; 0x803843 <inventory+0x3>
    30b6:	82 17       	cp	r24, r18
    30b8:	93 07       	cpc	r25, r19
                            PopulateObject(route[currDepth+1], &actObj1);
    30ba:	d9 f1       	breq	.+118    	; 0x3132 <ProcessInput+0x428>
    30bc:	6d ed       	ldi	r22, 0xDD	; 221
    30be:	78 e3       	ldi	r23, 0x38	; 56
    30c0:	8f d9       	rcall	.-3298   	; 0x23e0 <PopulateObject>
                            SetResponse(elements++, actObj1.addrStr[NAME], actObj1.lenStr[NAME],GAME);
    30c2:	80 91 f7 38 	lds	r24, 0x38F7	; 0x8038f7 <actObj1.3989+0x1a>
    30c6:	90 91 f8 38 	lds	r25, 0x38F8	; 0x8038f8 <actObj1.3989+0x1b>
    return 0;
}

//
void SetResponse(uint8_t number, uint16_t address, uint16_t length, uint8_t type){
    reactStr[0][number]=address;
    30ca:	e9 2d       	mov	r30, r9
    30cc:	f0 e0       	ldi	r31, 0x00	; 0
    30ce:	df 01       	movw	r26, r30
    30d0:	aa 0f       	add	r26, r26
    30d2:	bb 1f       	adc	r27, r27
    30d4:	a2 5e       	subi	r26, 0xE2	; 226
    30d6:	b6 4c       	sbci	r27, 0xC6	; 198
    30d8:	20 91 e9 38 	lds	r18, 0x38E9	; 0x8038e9 <actObj1.3989+0xc>
    30dc:	30 91 ea 38 	lds	r19, 0x38EA	; 0x8038ea <actObj1.3989+0xd>
    30e0:	2d 93       	st	X+, r18
    30e2:	3c 93       	st	X, r19
    reactStr[1][number]=length;
    30e4:	df 01       	movw	r26, r30
    30e6:	aa 0f       	add	r26, r26
    30e8:	bb 1f       	adc	r27, r27
    30ea:	a2 5a       	subi	r26, 0xA2	; 162
    30ec:	b6 4c       	sbci	r27, 0xC6	; 198
    30ee:	8d 93       	st	X+, r24
    30f0:	9c 93       	st	X, r25
    reactStr[2][number]=type;
    30f2:	ee 0f       	add	r30, r30
    30f4:	ff 1f       	adc	r31, r31
    30f6:	e2 56       	subi	r30, 0x62	; 98
    30f8:	f6 4c       	sbci	r31, 0xC6	; 198
    30fa:	10 82       	st	Z, r1
    30fc:	11 82       	std	Z+1, r1	; 0x01
    return 0;
}

//
void SetResponse(uint8_t number, uint16_t address, uint16_t length, uint8_t type){
    reactStr[0][number]=address;
    30fe:	81 e0       	ldi	r24, 0x01	; 1
    3100:	89 0d       	add	r24, r9
    3102:	90 e0       	ldi	r25, 0x00	; 0
    3104:	93 94       	inc	r9
    3106:	93 94       	inc	r9
    3108:	fc 01       	movw	r30, r24
    310a:	ee 0f       	add	r30, r30
    310c:	ff 1f       	adc	r31, r31
    310e:	e2 5e       	subi	r30, 0xE2	; 226
    3110:	f6 4c       	sbci	r31, 0xC6	; 198
    3112:	e0 82       	st	Z, r14
    3114:	f1 82       	std	Z+1, r15	; 0x01
    reactStr[1][number]=length;
    3116:	fc 01       	movw	r30, r24
    3118:	ee 0f       	add	r30, r30
    311a:	ff 1f       	adc	r31, r31
    311c:	e2 5a       	subi	r30, 0xA2	; 162
    311e:	f6 4c       	sbci	r31, 0xC6	; 198
    3120:	c0 82       	st	Z, r12
    3122:	d1 82       	std	Z+1, r13	; 0x01
    reactStr[2][number]=type;
    3124:	88 0f       	add	r24, r24
    3126:	99 1f       	adc	r25, r25
    3128:	fc 01       	movw	r30, r24
    312a:	e2 56       	subi	r30, 0x62	; 98
    312c:	f6 4c       	sbci	r31, 0xC6	; 198
    312e:	a0 82       	st	Z, r10
    3130:	b1 82       	std	Z+1, r11	; 0x01
                            PopulateObject(route[currDepth+1], &actObj1);
                            SetResponse(elements++, actObj1.addrStr[NAME], actObj1.lenStr[NAME],GAME);
                            SetResponse(elements++, A_COMMA, L_COMMA, TEASER);
                        }
                    }
                }while (route[currDepth+1]);
    3132:	20 91 31 38 	lds	r18, 0x3831	; 0x803831 <currDepth>
    3136:	82 2f       	mov	r24, r18
    3138:	90 e0       	ldi	r25, 0x00	; 0
    313a:	fc 01       	movw	r30, r24
    313c:	ee 0f       	add	r30, r30
    313e:	ff 1f       	adc	r31, r31
    3140:	e0 52       	subi	r30, 0x20	; 32
    3142:	f6 4c       	sbci	r31, 0xC6	; 198
    3144:	40 81       	ld	r20, Z
    3146:	51 81       	ldd	r21, Z+1	; 0x01
    3148:	45 2b       	or	r20, r21
    314a:	09 f0       	breq	.+2      	; 0x314e <ProcessInput+0x444>
    314c:	85 cf       	rjmp	.-246    	; 0x3058 <ProcessInput+0x34e>

                //Look back if not on level 0
                if (currDepth) {
    314e:	22 23       	and	r18, r18
    3150:	61 f1       	breq	.+88     	; 0x31aa <ProcessInput+0x4a0>
                    PopulateObject(route[currDepth-1], &actObj1);
    3152:	88 0f       	add	r24, r24
    3154:	99 1f       	adc	r25, r25
    3156:	fc 01       	movw	r30, r24
    3158:	e4 52       	subi	r30, 0x24	; 36
    315a:	f6 4c       	sbci	r31, 0xC6	; 198
    315c:	6d ed       	ldi	r22, 0xDD	; 221
    315e:	78 e3       	ldi	r23, 0x38	; 56
    3160:	80 81       	ld	r24, Z
    3162:	91 81       	ldd	r25, Z+1	; 0x01
    3164:	3d d9       	rcall	.-3462   	; 0x23e0 <PopulateObject>
                    SetResponse(elements++, actObj1.addrStr[NAME], actObj1.lenStr[NAME],GAME);
    3166:	20 91 f7 38 	lds	r18, 0x38F7	; 0x8038f7 <actObj1.3989+0x1a>
    316a:	30 91 f8 38 	lds	r19, 0x38F8	; 0x8038f8 <actObj1.3989+0x1b>
    316e:	11 e0       	ldi	r17, 0x01	; 1
    3170:	19 0d       	add	r17, r9
    return 0;
}

//
void SetResponse(uint8_t number, uint16_t address, uint16_t length, uint8_t type){
    reactStr[0][number]=address;
    3172:	89 2d       	mov	r24, r9
    3174:	90 e0       	ldi	r25, 0x00	; 0
    3176:	fc 01       	movw	r30, r24
    3178:	ee 0f       	add	r30, r30
    317a:	ff 1f       	adc	r31, r31
    317c:	e2 5e       	subi	r30, 0xE2	; 226
    317e:	f6 4c       	sbci	r31, 0xC6	; 198
    3180:	40 91 e9 38 	lds	r20, 0x38E9	; 0x8038e9 <actObj1.3989+0xc>
    3184:	50 91 ea 38 	lds	r21, 0x38EA	; 0x8038ea <actObj1.3989+0xd>
    3188:	40 83       	st	Z, r20
    318a:	51 83       	std	Z+1, r21	; 0x01
    reactStr[1][number]=length;
    318c:	fc 01       	movw	r30, r24
    318e:	ee 0f       	add	r30, r30
    3190:	ff 1f       	adc	r31, r31
    3192:	e2 5a       	subi	r30, 0xA2	; 162
    3194:	f6 4c       	sbci	r31, 0xC6	; 198
    3196:	20 83       	st	Z, r18
    3198:	31 83       	std	Z+1, r19	; 0x01
    reactStr[2][number]=type;
    319a:	88 0f       	add	r24, r24
    319c:	99 1f       	adc	r25, r25
    319e:	fc 01       	movw	r30, r24
    31a0:	e2 56       	subi	r30, 0x62	; 98
    31a2:	f6 4c       	sbci	r31, 0xC6	; 198
    31a4:	10 82       	st	Z, r1
    31a6:	11 82       	std	Z+1, r1	; 0x01
    31a8:	28 c5       	rjmp	.+2640   	; 0x3bfa <ProcessInput+0xef0>

                //Look back if not on level 0
                if (currDepth) {
                    PopulateObject(route[currDepth-1], &actObj1);
                    SetResponse(elements++, actObj1.addrStr[NAME], actObj1.lenStr[NAME],GAME);
                } else elements-=1;
    31aa:	1f ef       	ldi	r17, 0xFF	; 255
    31ac:	19 0d       	add	r17, r9
    31ae:	25 c5       	rjmp	.+2634   	; 0x3bfa <ProcessInput+0xef0>

            } else {
                route[currDepth+1] = FindChild(route[currDepth], data[1], 0);
    31b0:	ee 2e       	mov	r14, r30
    31b2:	f1 2c       	mov	r15, r1
    31b4:	f7 01       	movw	r30, r14
    31b6:	ee 0f       	add	r30, r30
    31b8:	ff 1f       	adc	r31, r31
    31ba:	e2 52       	subi	r30, 0x22	; 34
    31bc:	f6 4c       	sbci	r31, 0xC6	; 198
    31be:	40 e0       	ldi	r20, 0x00	; 0
    31c0:	50 e0       	ldi	r21, 0x00	; 0
    31c2:	d3 01       	movw	r26, r6
    31c4:	11 96       	adiw	r26, 0x01	; 1
    31c6:	6c 91       	ld	r22, X
    31c8:	80 81       	ld	r24, Z
    31ca:	91 81       	ldd	r25, Z+1	; 0x01
    31cc:	d8 d9       	rcall	.-3152   	; 0x257e <FindChild>
    31ce:	f7 01       	movw	r30, r14
    31d0:	ee 0f       	add	r30, r30
    31d2:	ff 1f       	adc	r31, r31
    31d4:	e0 52       	subi	r30, 0x20	; 32
    31d6:	f6 4c       	sbci	r31, 0xC6	; 198
    31d8:	80 83       	st	Z, r24
    31da:	91 83       	std	Z+1, r25	; 0x01
                if (route[currDepth+1]) {
    31dc:	90 91 31 38 	lds	r25, 0x3831	; 0x803831 <currDepth>
    31e0:	29 2f       	mov	r18, r25
    31e2:	30 e0       	ldi	r19, 0x00	; 0
    31e4:	f9 01       	movw	r30, r18
    31e6:	ee 0f       	add	r30, r30
    31e8:	ff 1f       	adc	r31, r31
    31ea:	e0 52       	subi	r30, 0x20	; 32
    31ec:	f6 4c       	sbci	r31, 0xC6	; 198
    31ee:	40 81       	ld	r20, Z
    31f0:	51 81       	ldd	r21, Z+1	; 0x01
    31f2:	41 15       	cp	r20, r1
    31f4:	51 05       	cpc	r21, r1
    31f6:	21 f0       	breq	.+8      	; 0x3200 <ProcessInput+0x4f6>
                    PopulateObject(route[currDepth+1], &actObj1);
    31f8:	6d ed       	ldi	r22, 0xDD	; 221
    31fa:	78 e3       	ldi	r23, 0x38	; 56
    31fc:	ca 01       	movw	r24, r20
    31fe:	1c c0       	rjmp	.+56     	; 0x3238 <ProcessInput+0x52e>
                    SetResponse(elements++, actObj1.addrStr[DESC], actObj1.lenStr[DESC],GAME);   
                } else if (currDepth) {
    3200:	99 23       	and	r25, r25
                    if (CheckLetter(route[currDepth-1], data[1])) {
    3202:	81 f1       	breq	.+96     	; 0x3264 <ProcessInput+0x55a>
    3204:	22 0f       	add	r18, r18
    3206:	33 1f       	adc	r19, r19
    3208:	f9 01       	movw	r30, r18
    320a:	e4 52       	subi	r30, 0x24	; 36
    320c:	f6 4c       	sbci	r31, 0xC6	; 198
    320e:	d3 01       	movw	r26, r6
    3210:	11 96       	adiw	r26, 0x01	; 1
    3212:	6c 91       	ld	r22, X
    3214:	80 81       	ld	r24, Z
    3216:	91 81       	ldd	r25, Z+1	; 0x01
    3218:	5c d9       	rcall	.-3400   	; 0x24d2 <CheckLetter>
    321a:	81 11       	cpse	r24, r1
    321c:	02 c0       	rjmp	.+4      	; 0x3222 <ProcessInput+0x518>
}

//The game logic!
uint8_t ProcessInput(uint8_t *data){
    static object_model_t actObj1, actObj2;
    uint8_t elements = 1;
    321e:	11 e0       	ldi	r17, 0x01	; 1
                if (route[currDepth+1]) {
                    PopulateObject(route[currDepth+1], &actObj1);
                    SetResponse(elements++, actObj1.addrStr[DESC], actObj1.lenStr[DESC],GAME);   
                } else if (currDepth) {
                    if (CheckLetter(route[currDepth-1], data[1])) {
                        PopulateObject(route[currDepth-1], &actObj1);
    3220:	ec c4       	rjmp	.+2520   	; 0x3bfa <ProcessInput+0xef0>
    3222:	e0 91 31 38 	lds	r30, 0x3831	; 0x803831 <currDepth>
    3226:	f0 e0       	ldi	r31, 0x00	; 0
    3228:	ee 0f       	add	r30, r30
    322a:	ff 1f       	adc	r31, r31
    322c:	e4 52       	subi	r30, 0x24	; 36
    322e:	f6 4c       	sbci	r31, 0xC6	; 198
    3230:	6d ed       	ldi	r22, 0xDD	; 221
    3232:	78 e3       	ldi	r23, 0x38	; 56
    3234:	80 81       	ld	r24, Z
    3236:	91 81       	ldd	r25, Z+1	; 0x01
    3238:	d3 d8       	rcall	.-3674   	; 0x23e0 <PopulateObject>
                        SetResponse(elements++, actObj1.addrStr[DESC], actObj1.lenStr[DESC],GAME);
    323a:	80 91 f9 38 	lds	r24, 0x38F9	; 0x8038f9 <actObj1.3989+0x1c>
    323e:	90 91 fa 38 	lds	r25, 0x38FA	; 0x8038fa <actObj1.3989+0x1d>
    return 0;
}

//
void SetResponse(uint8_t number, uint16_t address, uint16_t length, uint8_t type){
    reactStr[0][number]=address;
    3242:	20 91 eb 38 	lds	r18, 0x38EB	; 0x8038eb <actObj1.3989+0xe>
    3246:	30 91 ec 38 	lds	r19, 0x38EC	; 0x8038ec <actObj1.3989+0xf>
    324a:	20 93 20 39 	sts	0x3920, r18	; 0x803920 <reactStr+0x2>
    324e:	30 93 21 39 	sts	0x3921, r19	; 0x803921 <reactStr+0x3>
    reactStr[1][number]=length;
    3252:	80 93 60 39 	sts	0x3960, r24	; 0x803960 <reactStr+0x42>
    3256:	90 93 61 39 	sts	0x3961, r25	; 0x803961 <reactStr+0x43>
    reactStr[2][number]=type;
    325a:	10 92 a0 39 	sts	0x39A0, r1	; 0x8039a0 <reactStr+0x82>
    325e:	10 92 a1 39 	sts	0x39A1, r1	; 0x8039a1 <reactStr+0x83>
    3262:	32 ce       	rjmp	.-924    	; 0x2ec8 <ProcessInput+0x1be>
    return 0;
}

//
void SetResponse(uint8_t number, uint16_t address, uint16_t length, uint8_t type){
    reactStr[0][number]=address;
    3264:	81 ed       	ldi	r24, 0xD1	; 209
    3266:	99 e7       	ldi	r25, 0x79	; 121
    3268:	80 93 20 39 	sts	0x3920, r24	; 0x803920 <reactStr+0x2>
    326c:	90 93 21 39 	sts	0x3921, r25	; 0x803921 <reactStr+0x3>
    reactStr[1][number]=length;
    3270:	8a e1       	ldi	r24, 0x1A	; 26
    3272:	90 e0       	ldi	r25, 0x00	; 0
    3274:	c9 c2       	rjmp	.+1426   	; 0x3808 <ProcessInput+0xafe>
                    SetResponse(elements++, A_DONTSEE, L_DONTSEE, TEASER);
                }
            }
        
        //Pick up an object
        } else if (data[0] == 'p') {
    3276:	80 37       	cpi	r24, 0x70	; 112
    3278:	09 f0       	breq	.+2      	; 0x327c <ProcessInput+0x572>
    327a:	92 c0       	rjmp	.+292    	; 0x33a0 <ProcessInput+0x696>
            if (inventory[0]&&inventory[1]) {
    327c:	80 91 40 38 	lds	r24, 0x3840	; 0x803840 <inventory>
    3280:	90 91 41 38 	lds	r25, 0x3841	; 0x803841 <inventory+0x1>
    3284:	89 2b       	or	r24, r25
    3286:	79 f0       	breq	.+30     	; 0x32a6 <ProcessInput+0x59c>
    3288:	80 91 42 38 	lds	r24, 0x3842	; 0x803842 <inventory+0x2>
    328c:	90 91 43 38 	lds	r25, 0x3843	; 0x803843 <inventory+0x3>
    3290:	89 2b       	or	r24, r25
    3292:	49 f0       	breq	.+18     	; 0x32a6 <ProcessInput+0x59c>
    return 0;
}

//
void SetResponse(uint8_t number, uint16_t address, uint16_t length, uint8_t type){
    reactStr[0][number]=address;
    3294:	87 e0       	ldi	r24, 0x07	; 7
    3296:	98 e7       	ldi	r25, 0x78	; 120
    3298:	80 93 20 39 	sts	0x3920, r24	; 0x803920 <reactStr+0x2>
    329c:	90 93 21 39 	sts	0x3921, r25	; 0x803921 <reactStr+0x3>
    reactStr[1][number]=length;
    32a0:	89 e5       	ldi	r24, 0x59	; 89
    32a2:	90 e0       	ldi	r25, 0x00	; 0
    32a4:	b1 c2       	rjmp	.+1378   	; 0x3808 <ProcessInput+0xafe>
        
        //Pick up an object
        } else if (data[0] == 'p') {
            if (inventory[0]&&inventory[1]) {
                SetResponse(elements++, A_CARRYTWO, L_CARRYTWO, TEASER);
            } else if (inputLen != 2) {
    32a6:	b2 e0       	ldi	r27, 0x02	; 2
    32a8:	fb 12       	cpse	r15, r27
    32aa:	6f cd       	rjmp	.-1314   	; 0x2d8a <ProcessInput+0x80>
                SetResponse(elements++, A_NOTPOSSIBLE, L_NOTPOSSIBLE, TEASER);
            } else {
                route[currDepth+1] = FindChild(route[currDepth], data[1], 0);
    32ac:	00 91 31 38 	lds	r16, 0x3831	; 0x803831 <currDepth>
    32b0:	10 e0       	ldi	r17, 0x00	; 0
    32b2:	f8 01       	movw	r30, r16
    32b4:	ee 0f       	add	r30, r30
    32b6:	ff 1f       	adc	r31, r31
    32b8:	e2 52       	subi	r30, 0x22	; 34
    32ba:	f6 4c       	sbci	r31, 0xC6	; 198
    32bc:	40 e0       	ldi	r20, 0x00	; 0
    32be:	50 e0       	ldi	r21, 0x00	; 0
    32c0:	d3 01       	movw	r26, r6
    32c2:	11 96       	adiw	r26, 0x01	; 1
    32c4:	6c 91       	ld	r22, X
    32c6:	80 81       	ld	r24, Z
    32c8:	91 81       	ldd	r25, Z+1	; 0x01
    32ca:	59 d9       	rcall	.-3406   	; 0x257e <FindChild>
    32cc:	00 0f       	add	r16, r16
    32ce:	11 1f       	adc	r17, r17
    32d0:	f8 01       	movw	r30, r16
    32d2:	e0 52       	subi	r30, 0x20	; 32
    32d4:	f6 4c       	sbci	r31, 0xC6	; 198
    32d6:	80 83       	st	Z, r24
    32d8:	91 83       	std	Z+1, r25	; 0x01
                if (route[currDepth+1]) {
    32da:	20 91 31 38 	lds	r18, 0x3831	; 0x803831 <currDepth>
    32de:	30 e0       	ldi	r19, 0x00	; 0
    32e0:	2f 5f       	subi	r18, 0xFF	; 255
    32e2:	3f 4f       	sbci	r19, 0xFF	; 255
    32e4:	22 0f       	add	r18, r18
    32e6:	33 1f       	adc	r19, r19
    32e8:	f9 01       	movw	r30, r18
    32ea:	e2 52       	subi	r30, 0x22	; 34
    32ec:	f6 4c       	sbci	r31, 0xC6	; 198
    32ee:	80 81       	ld	r24, Z
    32f0:	91 81       	ldd	r25, Z+1	; 0x01
    32f2:	00 97       	sbiw	r24, 0x00	; 0
    32f4:	09 f4       	brne	.+2      	; 0x32f8 <ProcessInput+0x5ee>
    32f6:	38 c3       	rjmp	.+1648   	; 0x3968 <ProcessInput+0xc5e>
                    if ((route[currDepth+1] == inventory[0])||(route[currDepth+1] == inventory[1])) {
    32f8:	40 91 40 38 	lds	r20, 0x3840	; 0x803840 <inventory>
    32fc:	50 91 41 38 	lds	r21, 0x3841	; 0x803841 <inventory+0x1>
    3300:	84 17       	cp	r24, r20
    3302:	95 07       	cpc	r25, r21
    3304:	39 f0       	breq	.+14     	; 0x3314 <ProcessInput+0x60a>
    3306:	40 91 42 38 	lds	r20, 0x3842	; 0x803842 <inventory+0x2>
    330a:	50 91 43 38 	lds	r21, 0x3843	; 0x803843 <inventory+0x3>
    330e:	84 17       	cp	r24, r20
    3310:	95 07       	cpc	r25, r21
    3312:	c1 f4       	brne	.+48     	; 0x3344 <ProcessInput+0x63a>
    return 0;
}

//
void SetResponse(uint8_t number, uint16_t address, uint16_t length, uint8_t type){
    reactStr[0][number]=address;
    3314:	82 ee       	ldi	r24, 0xE2	; 226
    3316:	97 e7       	ldi	r25, 0x77	; 119
    3318:	80 93 20 39 	sts	0x3920, r24	; 0x803920 <reactStr+0x2>
    331c:	90 93 21 39 	sts	0x3921, r25	; 0x803921 <reactStr+0x3>
    reactStr[1][number]=length;
    3320:	85 e2       	ldi	r24, 0x25	; 37
    3322:	90 e0       	ldi	r25, 0x00	; 0
    3324:	80 93 60 39 	sts	0x3960, r24	; 0x803960 <reactStr+0x42>
    3328:	90 93 61 39 	sts	0x3961, r25	; 0x803961 <reactStr+0x43>
    reactStr[2][number]=type;
    332c:	81 e0       	ldi	r24, 0x01	; 1
    332e:	90 e0       	ldi	r25, 0x00	; 0
    3330:	80 93 a0 39 	sts	0x39A0, r24	; 0x8039a0 <reactStr+0x82>
    3334:	90 93 a1 39 	sts	0x39A1, r25	; 0x8039a1 <reactStr+0x83>
            } else {
                route[currDepth+1] = FindChild(route[currDepth], data[1], 0);
                if (route[currDepth+1]) {
                    if ((route[currDepth+1] == inventory[0])||(route[currDepth+1] == inventory[1])) {
                        SetResponse(elements++, A_ALREADYCARRYING, L_ALREADYCARRYING, TEASER);
                        route[currDepth+1] = 0;
    3338:	f9 01       	movw	r30, r18
    333a:	e2 52       	subi	r30, 0x22	; 34
    333c:	f6 4c       	sbci	r31, 0xC6	; 198
    333e:	10 82       	st	Z, r1
    3340:	11 82       	std	Z+1, r1	; 0x01
                    } else {
                        //Put item in the inventory if possible
                        PopulateObject(route[currDepth+1], &actObj1);  
    3342:	c2 cd       	rjmp	.-1148   	; 0x2ec8 <ProcessInput+0x1be>
    3344:	6d ed       	ldi	r22, 0xDD	; 221
    3346:	78 e3       	ldi	r23, 0x38	; 56
    3348:	4b d8       	rcall	.-3946   	; 0x23e0 <PopulateObject>
                        if (CheckState(actObj1.byteField[ACTION_ACL])) {
    334a:	80 91 e4 38 	lds	r24, 0x38E4	; 0x8038e4 <actObj1.3989+0x7>
    334e:	0e 94 15 0a 	call	0x142a	; 0x142a <CheckState>
    3352:	88 23       	and	r24, r24
    3354:	09 f4       	brne	.+2      	; 0x3358 <ProcessInput+0x64e>
    3356:	e3 c2       	rjmp	.+1478   	; 0x391e <ProcessInput+0xc14>
                            if (actObj1.byteField[ITEM_NR]) {
    3358:	80 91 e8 38 	lds	r24, 0x38E8	; 0x8038e8 <actObj1.3989+0xb>
    335c:	88 23       	and	r24, r24
    335e:	09 f4       	brne	.+2      	; 0x3362 <ProcessInput+0x658>
    3360:	14 cd       	rjmp	.-1496   	; 0x2d8a <ProcessInput+0x80>
                                if (inventory[0]) {
    3362:	80 91 40 38 	lds	r24, 0x3840	; 0x803840 <inventory>
    3366:	90 91 41 38 	lds	r25, 0x3841	; 0x803841 <inventory+0x1>
    336a:	e0 91 31 38 	lds	r30, 0x3831	; 0x803831 <currDepth>
                                    inventory[1] = route[currDepth+1];
    336e:	f0 e0       	ldi	r31, 0x00	; 0
    3370:	ee 0f       	add	r30, r30
    3372:	ff 1f       	adc	r31, r31
    3374:	e0 52       	subi	r30, 0x20	; 32
    3376:	f6 4c       	sbci	r31, 0xC6	; 198
                    } else {
                        //Put item in the inventory if possible
                        PopulateObject(route[currDepth+1], &actObj1);  
                        if (CheckState(actObj1.byteField[ACTION_ACL])) {
                            if (actObj1.byteField[ITEM_NR]) {
                                if (inventory[0]) {
    3378:	89 2b       	or	r24, r25
    337a:	39 f0       	breq	.+14     	; 0x338a <ProcessInput+0x680>
                                    inventory[1] = route[currDepth+1];
    337c:	80 81       	ld	r24, Z
    337e:	91 81       	ldd	r25, Z+1	; 0x01
    3380:	80 93 42 38 	sts	0x3842, r24	; 0x803842 <inventory+0x2>
    3384:	90 93 43 38 	sts	0x3843, r25	; 0x803843 <inventory+0x3>
    3388:	06 c0       	rjmp	.+12     	; 0x3396 <ProcessInput+0x68c>
                                } else {
                                    inventory[0] = route[currDepth+1];
    338a:	80 81       	ld	r24, Z
    338c:	91 81       	ldd	r25, Z+1	; 0x01
    338e:	80 93 40 38 	sts	0x3840, r24	; 0x803840 <inventory>
    3392:	90 93 41 38 	sts	0x3841, r25	; 0x803841 <inventory+0x1>
                                }
                                UpdateState(actObj1.byteField[ACTION_STATE]);
    3396:	80 91 e7 38 	lds	r24, 0x38E7	; 0x8038e7 <actObj1.3989+0xa>
    339a:	0e 94 f4 09 	call	0x13e8	; 0x13e8 <UpdateState>
    339e:	2b c0       	rjmp	.+86     	; 0x33f6 <ProcessInput+0x6ec>
                } else SetResponse(elements++, A_NOSUCHOBJECT, L_NOSUCHOBJECT, TEASER);
            }
        } else

        //Drop item if in inventory
        if (data[0] == 'd') {
    33a0:	84 36       	cpi	r24, 0x64	; 100
    33a2:	d9 f4       	brne	.+54     	; 0x33da <ProcessInput+0x6d0>
            if ((inventory[0] == 0)&&(inventory[1] == 0)){
    33a4:	80 91 40 38 	lds	r24, 0x3840	; 0x803840 <inventory>
    33a8:	90 91 41 38 	lds	r25, 0x3841	; 0x803841 <inventory+0x1>
    33ac:	00 97       	sbiw	r24, 0x00	; 0
    33ae:	09 f0       	breq	.+2      	; 0x33b2 <ProcessInput+0x6a8>
    33b0:	3c c4       	rjmp	.+2168   	; 0x3c2a <ProcessInput+0xf20>
    33b2:	80 91 42 38 	lds	r24, 0x3842	; 0x803842 <inventory+0x2>
    33b6:	90 91 43 38 	lds	r25, 0x3843	; 0x803843 <inventory+0x3>
    33ba:	89 2b       	or	r24, r25
    33bc:	49 f4       	brne	.+18     	; 0x33d0 <ProcessInput+0x6c6>
    return 0;
}

//
void SetResponse(uint8_t number, uint16_t address, uint16_t length, uint8_t type){
    reactStr[0][number]=address;
    33be:	86 ea       	ldi	r24, 0xA6	; 166
    33c0:	97 e7       	ldi	r25, 0x77	; 119
    33c2:	80 93 20 39 	sts	0x3920, r24	; 0x803920 <reactStr+0x2>
    33c6:	90 93 21 39 	sts	0x3921, r25	; 0x803921 <reactStr+0x3>
    reactStr[1][number]=length;
    33ca:	86 e2       	ldi	r24, 0x26	; 38
    33cc:	90 e0       	ldi	r25, 0x00	; 0
    33ce:	72 cd       	rjmp	.-1308   	; 0x2eb4 <ProcessInput+0x1aa>

        //Drop item if in inventory
        if (data[0] == 'd') {
            if ((inventory[0] == 0)&&(inventory[1] == 0)){
                SetResponse(elements++, A_EMPTYHANDS, L_EMPTYHANDS, TEASER);
            } else if (inputLen != 2) {
    33d0:	b2 e0       	ldi	r27, 0x02	; 2
    33d2:	fb 16       	cp	r15, r27
    33d4:	09 f4       	brne	.+2      	; 0x33d8 <ProcessInput+0x6ce>
    33d6:	8b c4       	rjmp	.+2326   	; 0x3cee <ProcessInput+0xfe4>
    33d8:	d8 cc       	rjmp	.-1616   	; 0x2d8a <ProcessInput+0x80>
                }
            }
        } 

        //Inventory list
        else if (data[0] == 'i') {
    33da:	89 36       	cpi	r24, 0x69	; 105
            if ((inventory[0] == 0)&&(inventory[1] == 0)){
    33dc:	81 f4       	brne	.+32     	; 0x33fe <ProcessInput+0x6f4>
    33de:	80 91 40 38 	lds	r24, 0x3840	; 0x803840 <inventory>
    33e2:	90 91 41 38 	lds	r25, 0x3841	; 0x803841 <inventory+0x1>
    33e6:	89 2b       	or	r24, r25
    33e8:	31 f4       	brne	.+12     	; 0x33f6 <ProcessInput+0x6ec>
    33ea:	80 91 42 38 	lds	r24, 0x3842	; 0x803842 <inventory+0x2>
    33ee:	90 91 43 38 	lds	r25, 0x3843	; 0x803843 <inventory+0x3>
    33f2:	89 2b       	or	r24, r25
                SetResponse(elements++, A_EMPTYHANDS, L_EMPTYHANDS, TEASER);
                } else {
                    elements = ShowInventory(elements);
    33f4:	21 f3       	breq	.-56     	; 0x33be <ProcessInput+0x6b4>
    33f6:	81 e0       	ldi	r24, 0x01	; 1
    33f8:	f8 db       	rcall	.-2064   	; 0x2bea <ShowInventory>
    33fa:	18 2f       	mov	r17, r24
    33fc:	fe c3       	rjmp	.+2044   	; 0x3bfa <ProcessInput+0xef0>
                }        
        
        //Talk, use, give, read
        } else if ((data[0] == 't')||(data[0] == 'u')||(data[0] == 'g')||(data[0] == 'r')) {
    33fe:	9c e8       	ldi	r25, 0x8C	; 140
    3400:	98 0f       	add	r25, r24
    3402:	92 30       	cpi	r25, 0x02	; 2
    3404:	28 f0       	brcs	.+10     	; 0x3410 <ProcessInput+0x706>
    3406:	87 36       	cpi	r24, 0x67	; 103
    3408:	19 f0       	breq	.+6      	; 0x3410 <ProcessInput+0x706>
    340a:	82 37       	cpi	r24, 0x72	; 114
    340c:	09 f0       	breq	.+2      	; 0x3410 <ProcessInput+0x706>
    340e:	b5 c2       	rjmp	.+1386   	; 0x397a <ProcessInput+0xc70>
            if ((inputLen<2)||(inputLen>3)) {
    3410:	8e ef       	ldi	r24, 0xFE	; 254
    3412:	8f 0d       	add	r24, r15
    3414:	82 30       	cpi	r24, 0x02	; 2
    3416:	08 f0       	brcs	.+2      	; 0x341a <ProcessInput+0x710>
    3418:	b8 cc       	rjmp	.-1680   	; 0x2d8a <ProcessInput+0x80>
                SetResponse(elements++, A_NOTPOSSIBLE, L_NOTPOSSIBLE, TEASER);                
            
            //Check for visible person or object first
            } else {
                route[currDepth+1] = FindChild(route[currDepth], data[inputLen-1], 0);
    341a:	e0 91 31 38 	lds	r30, 0x3831	; 0x803831 <currDepth>
    341e:	0e 2f       	mov	r16, r30
    3420:	10 e0       	ldi	r17, 0x00	; 0
    3422:	d3 01       	movw	r26, r6
    3424:	af 0d       	add	r26, r15
    3426:	b1 1d       	adc	r27, r1
    3428:	11 97       	sbiw	r26, 0x01	; 1
    342a:	f8 01       	movw	r30, r16
    342c:	ee 0f       	add	r30, r30
    342e:	ff 1f       	adc	r31, r31
    3430:	e2 52       	subi	r30, 0x22	; 34
    3432:	f6 4c       	sbci	r31, 0xC6	; 198
    3434:	40 e0       	ldi	r20, 0x00	; 0
    3436:	50 e0       	ldi	r21, 0x00	; 0
    3438:	6c 91       	ld	r22, X
    343a:	80 81       	ld	r24, Z
    343c:	91 81       	ldd	r25, Z+1	; 0x01
    343e:	9f d8       	rcall	.-3778   	; 0x257e <FindChild>
    3440:	f8 01       	movw	r30, r16
    3442:	ee 0f       	add	r30, r30
    3444:	ff 1f       	adc	r31, r31
    3446:	e0 52       	subi	r30, 0x20	; 32
    3448:	f6 4c       	sbci	r31, 0xC6	; 198
    344a:	80 83       	st	Z, r24
    344c:	91 83       	std	Z+1, r25	; 0x01
                if (route[currDepth+1]) {
    344e:	e0 91 31 38 	lds	r30, 0x3831	; 0x803831 <currDepth>
    3452:	f0 e0       	ldi	r31, 0x00	; 0
    3454:	ee 0f       	add	r30, r30
    3456:	ff 1f       	adc	r31, r31
    3458:	e0 52       	subi	r30, 0x20	; 32
    345a:	f6 4c       	sbci	r31, 0xC6	; 198
    345c:	80 81       	ld	r24, Z
    345e:	91 81       	ldd	r25, Z+1	; 0x01
    3460:	00 97       	sbiw	r24, 0x00	; 0
    3462:	09 f4       	brne	.+2      	; 0x3466 <ProcessInput+0x75c>
    3464:	78 c2       	rjmp	.+1264   	; 0x3956 <ProcessInput+0xc4c>
                    
                    //Give item to person / use item on object 
                    if ((inputLen == 3)&&((data[0] == 'u')||(data[0] == 'g'))) {
    3466:	f3 e0       	ldi	r31, 0x03	; 3
    3468:	ff 12       	cpse	r15, r31
    346a:	60 c1       	rjmp	.+704    	; 0x372c <ProcessInput+0xa22>
    346c:	d3 01       	movw	r26, r6
    346e:	2c 91       	ld	r18, X
    3470:	25 37       	cpi	r18, 0x75	; 117
    3472:	19 f0       	breq	.+6      	; 0x347a <ProcessInput+0x770>
    3474:	27 36       	cpi	r18, 0x67	; 103
    3476:	09 f0       	breq	.+2      	; 0x347a <ProcessInput+0x770>
    3478:	59 c1       	rjmp	.+690    	; 0x372c <ProcessInput+0xa22>
    347a:	00 e0       	ldi	r16, 0x00	; 0
    347c:	11 e0       	ldi	r17, 0x01	; 1
    return 0;
}

//
void SetResponse(uint8_t number, uint16_t address, uint16_t length, uint8_t type){
    reactStr[0][number]=address;
    347e:	41 e6       	ldi	r20, 0x61	; 97
    3480:	c4 2e       	mov	r12, r20
    3482:	49 e7       	ldi	r20, 0x79	; 121
    3484:	d4 2e       	mov	r13, r20
    reactStr[1][number]=length;
    3486:	51 e2       	ldi	r21, 0x21	; 33
    3488:	a5 2e       	mov	r10, r21
    348a:	b1 2c       	mov	r11, r1
    reactStr[2][number]=type;
    348c:	88 24       	eor	r8, r8
    348e:	83 94       	inc	r8
                if (route[currDepth+1]) {
                    
                    //Give item to person / use item on object 
                    if ((inputLen == 3)&&((data[0] == 'u')||(data[0] == 'g'))) {
                        for (uint8_t x=0; x<2; x++) {
                            if (inventory[x]) { 
    3490:	91 2c       	mov	r9, r1
    3492:	e0 2e       	mov	r14, r16
    3494:	f1 2c       	mov	r15, r1
    3496:	c7 01       	movw	r24, r14
    3498:	88 0f       	add	r24, r24
    349a:	99 1f       	adc	r25, r25
    349c:	fc 01       	movw	r30, r24
    349e:	e0 5c       	subi	r30, 0xC0	; 192
    34a0:	f7 4c       	sbci	r31, 0xC7	; 199
    34a2:	7f 01       	movw	r14, r30
    34a4:	80 81       	ld	r24, Z
    34a6:	91 81       	ldd	r25, Z+1	; 0x01
    34a8:	00 97       	sbiw	r24, 0x00	; 0
                                if (CheckLetter(inventory[x], data[1])) {
    34aa:	79 f0       	breq	.+30     	; 0x34ca <ProcessInput+0x7c0>
    34ac:	d3 01       	movw	r26, r6
    34ae:	11 96       	adiw	r26, 0x01	; 1
    34b0:	6c 91       	ld	r22, X
    34b2:	0f d8       	rcall	.-4066   	; 0x24d2 <CheckLetter>
    34b4:	88 23       	and	r24, r24
    34b6:	49 f0       	breq	.+18     	; 0x34ca <ProcessInput+0x7c0>
                                    PopulateObject(inventory[x], &actObj2);
    34b8:	62 eb       	ldi	r22, 0xB2	; 178
    34ba:	78 e3       	ldi	r23, 0x38	; 56
    34bc:	f7 01       	movw	r30, r14
    34be:	80 81       	ld	r24, Z
    34c0:	91 81       	ldd	r25, Z+1	; 0x01
    34c2:	0e 94 f0 11 	call	0x23e0	; 0x23e0 <PopulateObject>
                                    x = 2;
    34c6:	02 e0       	ldi	r16, 0x02	; 2
    34c8:	1d c0       	rjmp	.+58     	; 0x3504 <ProcessInput+0x7fa>
                                }
                            }
                            if (x == 1) { 
    34ca:	01 30       	cpi	r16, 0x01	; 1
    34cc:	d1 f4       	brne	.+52     	; 0x3502 <ProcessInput+0x7f8>
    return 0;
}

//
void SetResponse(uint8_t number, uint16_t address, uint16_t length, uint8_t type){
    reactStr[0][number]=address;
    34ce:	e1 2f       	mov	r30, r17
    34d0:	f0 e0       	ldi	r31, 0x00	; 0
    34d2:	df 01       	movw	r26, r30
    34d4:	aa 0f       	add	r26, r26
    34d6:	bb 1f       	adc	r27, r27
    34d8:	a2 5e       	subi	r26, 0xE2	; 226
    34da:	b6 4c       	sbci	r27, 0xC6	; 198
    34dc:	cd 92       	st	X+, r12
    34de:	dc 92       	st	X, r13
    reactStr[1][number]=length;
    34e0:	df 01       	movw	r26, r30
    34e2:	aa 0f       	add	r26, r26
    34e4:	bb 1f       	adc	r27, r27
    34e6:	a2 5a       	subi	r26, 0xA2	; 162
    34e8:	b6 4c       	sbci	r27, 0xC6	; 198
    34ea:	ad 92       	st	X+, r10
    34ec:	bc 92       	st	X, r11
    reactStr[2][number]=type;
    34ee:	ee 0f       	add	r30, r30
    34f0:	ff 1f       	adc	r31, r31
    34f2:	e2 56       	subi	r30, 0x62	; 98
    34f4:	f6 4c       	sbci	r31, 0xC6	; 198
    34f6:	80 82       	st	Z, r8
    34f8:	91 82       	std	Z+1, r9	; 0x01
                                    x = 2;
                                }
                            }
                            if (x == 1) { 
                                SetResponse(elements++, A_NOTCARRYING, L_NOTCARRYING, TEASER);
                                data[0] = 0;
    34fa:	d3 01       	movw	r26, r6
    34fc:	1c 92       	st	X, r1
                                    PopulateObject(inventory[x], &actObj2);
                                    x = 2;
                                }
                            }
                            if (x == 1) { 
                                SetResponse(elements++, A_NOTCARRYING, L_NOTCARRYING, TEASER);
    34fe:	1f 5f       	subi	r17, 0xFF	; 255
    3500:	01 c0       	rjmp	.+2      	; 0x3504 <ProcessInput+0x7fa>
    3502:	00 e0       	ldi	r16, 0x00	; 0
                route[currDepth+1] = FindChild(route[currDepth], data[inputLen-1], 0);
                if (route[currDepth+1]) {
                    
                    //Give item to person / use item on object 
                    if ((inputLen == 3)&&((data[0] == 'u')||(data[0] == 'g'))) {
                        for (uint8_t x=0; x<2; x++) {
    3504:	0f 5f       	subi	r16, 0xFF	; 255
    3506:	01 30       	cpi	r16, 0x01	; 1
    3508:	21 f2       	breq	.-120    	; 0x3492 <ProcessInput+0x788>
                                data[0] = 0;
                            }
                        }

                        //Both the item and person/object are found, check if action is legit
                        if (data[0]){
    350a:	f3 01       	movw	r30, r6
    350c:	80 81       	ld	r24, Z
    350e:	88 23       	and	r24, r24
    3510:	09 f4       	brne	.+2      	; 0x3514 <ProcessInput+0x80a>
    3512:	73 c3       	rjmp	.+1766   	; 0x3bfa <ProcessInput+0xef0>
                            PopulateObject(route[currDepth+1], &actObj1);
    3514:	e0 91 31 38 	lds	r30, 0x3831	; 0x803831 <currDepth>
    3518:	f0 e0       	ldi	r31, 0x00	; 0
    351a:	ee 0f       	add	r30, r30
    351c:	ff 1f       	adc	r31, r31
    351e:	e0 52       	subi	r30, 0x20	; 32
    3520:	f6 4c       	sbci	r31, 0xC6	; 198
    3522:	6d ed       	ldi	r22, 0xDD	; 221
    3524:	78 e3       	ldi	r23, 0x38	; 56
    3526:	80 81       	ld	r24, Z
    3528:	91 81       	ldd	r25, Z+1	; 0x01
    352a:	0e 94 f0 11 	call	0x23e0	; 0x23e0 <PopulateObject>

                            //Special game
                            if (actObj1.lenStr[ACTION_STR1] == 1) {
    352e:	e0 90 fb 38 	lds	r14, 0x38FB	; 0x8038fb <actObj1.3989+0x1e>
    3532:	f0 90 fc 38 	lds	r15, 0x38FC	; 0x8038fc <actObj1.3989+0x1f>
    3536:	f1 e0       	ldi	r31, 0x01	; 1
    3538:	ef 16       	cp	r14, r31
    353a:	f1 04       	cpc	r15, r1
    353c:	09 f0       	breq	.+2      	; 0x3540 <ProcessInput+0x836>
    353e:	89 c0       	rjmp	.+274    	; 0x3652 <ProcessInput+0x948>
                                ExtEERead(actObj1.addrStr[ACTION_STR1], 1, GAME, &data[2]);
    3540:	93 01       	movw	r18, r6
    3542:	2e 5f       	subi	r18, 0xFE	; 254
    3544:	3f 4f       	sbci	r19, 0xFF	; 255
    3546:	40 e0       	ldi	r20, 0x00	; 0
    3548:	61 e0       	ldi	r22, 0x01	; 1
    354a:	80 91 ed 38 	lds	r24, 0x38ED	; 0x8038ed <actObj1.3989+0x10>
    354e:	90 91 ee 38 	lds	r25, 0x38EE	; 0x8038ee <actObj1.3989+0x11>
    3552:	0e 94 4a 08 	call	0x1094	; 0x1094 <ExtEERead>
                                if (data[2] == '1') {
    3556:	d3 01       	movw	r26, r6
    3558:	12 96       	adiw	r26, 0x02	; 2
    355a:	3c 91       	ld	r19, X
    355c:	31 33       	cpi	r19, 0x31	; 49
    355e:	09 f0       	breq	.+2      	; 0x3562 <ProcessInput+0x858>
    3560:	4c c3       	rjmp	.+1688   	; 0x3bfa <ProcessInput+0xef0>
                                    uint8_t item = actObj2.byteField[ITEM_NR];
    3562:	20 91 bd 38 	lds	r18, 0x38BD	; 0x8038bd <actObj2.3990+0xb>
                                    if ((item < 31)||(item > 34)) {
    3566:	51 ee       	ldi	r21, 0xE1	; 225
    3568:	52 0f       	add	r21, r18
    356a:	41 e0       	ldi	r20, 0x01	; 1
    356c:	41 0f       	add	r20, r17
    356e:	81 2f       	mov	r24, r17
    3570:	90 e0       	ldi	r25, 0x00	; 0
    return 0;
}

//
void SetResponse(uint8_t number, uint16_t address, uint16_t length, uint8_t type){
    reactStr[0][number]=address;
    3572:	fc 01       	movw	r30, r24
    3574:	ee 0f       	add	r30, r30
    3576:	ff 1f       	adc	r31, r31
    3578:	e2 5e       	subi	r30, 0xE2	; 226
    357a:	f6 4c       	sbci	r31, 0xC6	; 198
                            //Special game
                            if (actObj1.lenStr[ACTION_STR1] == 1) {
                                ExtEERead(actObj1.addrStr[ACTION_STR1], 1, GAME, &data[2]);
                                if (data[2] == '1') {
                                    uint8_t item = actObj2.byteField[ITEM_NR];
                                    if ((item < 31)||(item > 34)) {
    357c:	54 30       	cpi	r21, 0x04	; 4
    357e:	b0 f0       	brcs	.+44     	; 0x35ac <ProcessInput+0x8a2>
    return 0;
}

//
void SetResponse(uint8_t number, uint16_t address, uint16_t length, uint8_t type){
    reactStr[0][number]=address;
    3580:	21 e0       	ldi	r18, 0x01	; 1
    3582:	39 e7       	ldi	r19, 0x79	; 121
    3584:	20 83       	st	Z, r18
    3586:	31 83       	std	Z+1, r19	; 0x01
    reactStr[1][number]=length;
    3588:	fc 01       	movw	r30, r24
    358a:	ee 0f       	add	r30, r30
    358c:	ff 1f       	adc	r31, r31
    358e:	e2 5a       	subi	r30, 0xA2	; 162
    3590:	f6 4c       	sbci	r31, 0xC6	; 198
    3592:	2a e1       	ldi	r18, 0x1A	; 26
    3594:	30 e0       	ldi	r19, 0x00	; 0
    3596:	20 83       	st	Z, r18
    3598:	31 83       	std	Z+1, r19	; 0x01
    reactStr[2][number]=type;
    359a:	88 0f       	add	r24, r24
    359c:	99 1f       	adc	r25, r25
    359e:	fc 01       	movw	r30, r24
    35a0:	e2 56       	subi	r30, 0x62	; 98
    35a2:	f6 4c       	sbci	r31, 0xC6	; 198
    35a4:	e0 82       	st	Z, r14
    35a6:	f1 82       	std	Z+1, r15	; 0x01
                            if (actObj1.lenStr[ACTION_STR1] == 1) {
                                ExtEERead(actObj1.addrStr[ACTION_STR1], 1, GAME, &data[2]);
                                if (data[2] == '1') {
                                    uint8_t item = actObj2.byteField[ITEM_NR];
                                    if ((item < 31)||(item > 34)) {
                                        SetResponse(elements++, A_CANTUSE, L_CANTUSE, TEASER);
    35a8:	14 2f       	mov	r17, r20
    35aa:	27 c3       	rjmp	.+1614   	; 0x3bfa <ProcessInput+0xef0>
    return 0;
}

//
void SetResponse(uint8_t number, uint16_t address, uint16_t length, uint8_t type){
    reactStr[0][number]=address;
    35ac:	60 e5       	ldi	r22, 0x50	; 80
    35ae:	75 e7       	ldi	r23, 0x75	; 117
    35b0:	60 83       	st	Z, r22
    35b2:	71 83       	std	Z+1, r23	; 0x01
    reactStr[1][number]=length;
    35b4:	fc 01       	movw	r30, r24
    35b6:	ee 0f       	add	r30, r30
    35b8:	ff 1f       	adc	r31, r31
    35ba:	e2 5a       	subi	r30, 0xA2	; 162
    35bc:	f6 4c       	sbci	r31, 0xC6	; 198
    35be:	62 eb       	ldi	r22, 0xB2	; 178
    35c0:	70 e0       	ldi	r23, 0x00	; 0
    35c2:	60 83       	st	Z, r22
    35c4:	71 83       	std	Z+1, r23	; 0x01
    reactStr[2][number]=type;
    35c6:	88 0f       	add	r24, r24
    35c8:	99 1f       	adc	r25, r25
    35ca:	fc 01       	movw	r30, r24
    35cc:	e2 56       	subi	r30, 0x62	; 98
    35ce:	f6 4c       	sbci	r31, 0xC6	; 198
    35d0:	e0 82       	st	Z, r14
    35d2:	f1 82       	std	Z+1, r15	; 0x01
    return 0;
}

//
void SetResponse(uint8_t number, uint16_t address, uint16_t length, uint8_t type){
    reactStr[0][number]=address;
    35d4:	84 2f       	mov	r24, r20
    35d6:	90 e0       	ldi	r25, 0x00	; 0
    35d8:	fc 01       	movw	r30, r24
    35da:	ee 0f       	add	r30, r30
    35dc:	ff 1f       	adc	r31, r31
    35de:	e2 5e       	subi	r30, 0xE2	; 226
    35e0:	f6 4c       	sbci	r31, 0xC6	; 198
    35e2:	49 e5       	ldi	r20, 0x59	; 89
    35e4:	5a e7       	ldi	r21, 0x7A	; 122
    35e6:	40 83       	st	Z, r20
    35e8:	51 83       	std	Z+1, r21	; 0x01
    reactStr[1][number]=length;
    35ea:	fc 01       	movw	r30, r24
    35ec:	ee 0f       	add	r30, r30
    35ee:	ff 1f       	adc	r31, r31
    35f0:	e2 5a       	subi	r30, 0xA2	; 162
    35f2:	f6 4c       	sbci	r31, 0xC6	; 198
    35f4:	42 e0       	ldi	r20, 0x02	; 2
    35f6:	50 e0       	ldi	r21, 0x00	; 0
    35f8:	40 83       	st	Z, r20
    35fa:	51 83       	std	Z+1, r21	; 0x01
    reactStr[2][number]=type;
    35fc:	88 0f       	add	r24, r24
    35fe:	99 1f       	adc	r25, r25
    3600:	fc 01       	movw	r30, r24
    3602:	e2 56       	subi	r30, 0x62	; 98
    3604:	f6 4c       	sbci	r31, 0xC6	; 198
    3606:	e0 82       	st	Z, r14
    3608:	f1 82       	std	Z+1, r15	; 0x01
    return 0;
}

//
void SetResponse(uint8_t number, uint16_t address, uint16_t length, uint8_t type){
    reactStr[0][number]=address;
    360a:	82 e0       	ldi	r24, 0x02	; 2
    360c:	81 0f       	add	r24, r17
    360e:	90 e0       	ldi	r25, 0x00	; 0
    3610:	1d 5f       	subi	r17, 0xFD	; 253
    3612:	fc 01       	movw	r30, r24
    3614:	ee 0f       	add	r30, r30
    3616:	ff 1f       	adc	r31, r31
    3618:	e2 5e       	subi	r30, 0xE2	; 226
    361a:	f6 4c       	sbci	r31, 0xC6	; 198
    361c:	4d ea       	ldi	r20, 0xAD	; 173
    361e:	58 e7       	ldi	r21, 0x78	; 120
    3620:	40 83       	st	Z, r20
    3622:	51 83       	std	Z+1, r21	; 0x01
    reactStr[1][number]=length;
    3624:	fc 01       	movw	r30, r24
    3626:	ee 0f       	add	r30, r30
    3628:	ff 1f       	adc	r31, r31
    362a:	e2 5a       	subi	r30, 0xA2	; 162
    362c:	f6 4c       	sbci	r31, 0xC6	; 198
    362e:	42 e1       	ldi	r20, 0x12	; 18
    3630:	50 e0       	ldi	r21, 0x00	; 0
    3632:	40 83       	st	Z, r20
    3634:	51 83       	std	Z+1, r21	; 0x01
    reactStr[2][number]=type;
    3636:	88 0f       	add	r24, r24
    3638:	99 1f       	adc	r25, r25
    363a:	fc 01       	movw	r30, r24
    363c:	e2 56       	subi	r30, 0x62	; 98
    363e:	f6 4c       	sbci	r31, 0xC6	; 198
    3640:	e0 82       	st	Z, r14
    3642:	f1 82       	std	Z+1, r15	; 0x01
                                        SetResponse(elements++, A_CANTUSE, L_CANTUSE, TEASER);
                                    } else {
                                        SetResponse(elements++, A_PRIEST, L_PRIEST, TEASER);
                                        SetResponse(elements++, A_LF, 2, TEASER);
                                        SetResponse(elements++, A_RESPONSE, L_RESPONSE, TEASER);
                                        specialInput[0] = '1';
    3644:	30 93 0d 39 	sts	0x390D, r19	; 0x80390d <specialInput>
                                        specialInput[1] = item;
    3648:	20 93 0e 39 	sts	0x390E, r18	; 0x80390e <specialInput+0x1>
                                        specialInput[2] = 0;
    364c:	10 92 0f 39 	sts	0x390F, r1	; 0x80390f <specialInput+0x2>
    3650:	d4 c2       	rjmp	.+1448   	; 0x3bfa <ProcessInput+0xef0>
                                    }
                                }

                            //Normal "use ... on ..." or "give ... to ..." action
                            } else if (actObj1.byteField[ACTION_ITEM] == actObj2.byteField[ITEM_NR]) {
    3652:	90 91 e6 38 	lds	r25, 0x38E6	; 0x8038e6 <actObj1.3989+0x9>
    3656:	80 91 bd 38 	lds	r24, 0x38BD	; 0x8038bd <actObj2.3990+0xb>
    365a:	98 13       	cpse	r25, r24
    365c:	2e c0       	rjmp	.+92     	; 0x36ba <ProcessInput+0x9b0>
                                SetResponse(elements++, actObj1.addrStr[ACTION_MSG], actObj1.lenStr[ACTION_MSG], GAME);
    365e:	20 91 03 39 	lds	r18, 0x3903	; 0x803903 <actObj1.3989+0x26>
    3662:	30 91 04 39 	lds	r19, 0x3904	; 0x803904 <actObj1.3989+0x27>
    3666:	01 e0       	ldi	r16, 0x01	; 1
    3668:	01 0f       	add	r16, r17
    return 0;
}

//
void SetResponse(uint8_t number, uint16_t address, uint16_t length, uint8_t type){
    reactStr[0][number]=address;
    366a:	81 2f       	mov	r24, r17
    366c:	90 e0       	ldi	r25, 0x00	; 0
    366e:	fc 01       	movw	r30, r24
    3670:	ee 0f       	add	r30, r30
    3672:	ff 1f       	adc	r31, r31
    3674:	e2 5e       	subi	r30, 0xE2	; 226
    3676:	f6 4c       	sbci	r31, 0xC6	; 198
    3678:	40 91 f5 38 	lds	r20, 0x38F5	; 0x8038f5 <actObj1.3989+0x18>
    367c:	50 91 f6 38 	lds	r21, 0x38F6	; 0x8038f6 <actObj1.3989+0x19>
    3680:	40 83       	st	Z, r20
    3682:	51 83       	std	Z+1, r21	; 0x01
    reactStr[1][number]=length;
    3684:	fc 01       	movw	r30, r24
    3686:	ee 0f       	add	r30, r30
    3688:	ff 1f       	adc	r31, r31
    368a:	e2 5a       	subi	r30, 0xA2	; 162
    368c:	f6 4c       	sbci	r31, 0xC6	; 198
    368e:	20 83       	st	Z, r18
    3690:	31 83       	std	Z+1, r19	; 0x01
    reactStr[2][number]=type;
    3692:	88 0f       	add	r24, r24
    3694:	99 1f       	adc	r25, r25
    3696:	fc 01       	movw	r30, r24
    3698:	e2 56       	subi	r30, 0x62	; 98
    369a:	f6 4c       	sbci	r31, 0xC6	; 198
    369c:	10 82       	st	Z, r1
    369e:	11 82       	std	Z+1, r1	; 0x01
                                }

                            //Normal "use ... on ..." or "give ... to ..." action
                            } else if (actObj1.byteField[ACTION_ITEM] == actObj2.byteField[ITEM_NR]) {
                                SetResponse(elements++, actObj1.addrStr[ACTION_MSG], actObj1.lenStr[ACTION_MSG], GAME);
                                effect = actObj1.effect[2];
    36a0:	80 91 07 39 	lds	r24, 0x3907	; 0x803907 <actObj1.3989+0x2a>
    36a4:	90 e0       	ldi	r25, 0x00	; 0
    36a6:	80 93 3c 38 	sts	0x383C, r24	; 0x80383c <effect>
    36aa:	90 93 3d 38 	sts	0x383D, r25	; 0x80383d <effect+0x1>
                                UpdateState(actObj1.byteField[ACTION_STATE]);
    36ae:	80 91 e7 38 	lds	r24, 0x38E7	; 0x8038e7 <actObj1.3989+0xa>
    36b2:	0e 94 f4 09 	call	0x13e8	; 0x13e8 <UpdateState>
                                    }
                                }

                            //Normal "use ... on ..." or "give ... to ..." action
                            } else if (actObj1.byteField[ACTION_ITEM] == actObj2.byteField[ITEM_NR]) {
                                SetResponse(elements++, actObj1.addrStr[ACTION_MSG], actObj1.lenStr[ACTION_MSG], GAME);
    36b6:	10 2f       	mov	r17, r16
    36b8:	a0 c2       	rjmp	.+1344   	; 0x3bfa <ProcessInput+0xef0>
                                effect = actObj1.effect[2];
                                UpdateState(actObj1.byteField[ACTION_STATE]);
                                
                            } else {
                                if (data[0] == 'u') {
    36ba:	f3 01       	movw	r30, r6
    36bc:	80 81       	ld	r24, Z
    36be:	85 37       	cpi	r24, 0x75	; 117
    36c0:	99 f4       	brne	.+38     	; 0x36e8 <ProcessInput+0x9de>
    return 0;
}

//
void SetResponse(uint8_t number, uint16_t address, uint16_t length, uint8_t type){
    reactStr[0][number]=address;
    36c2:	81 2f       	mov	r24, r17
    36c4:	90 e0       	ldi	r25, 0x00	; 0
    36c6:	fc 01       	movw	r30, r24
    36c8:	ee 0f       	add	r30, r30
    36ca:	ff 1f       	adc	r31, r31
    36cc:	e2 5e       	subi	r30, 0xE2	; 226
    36ce:	f6 4c       	sbci	r31, 0xC6	; 198
    36d0:	21 e0       	ldi	r18, 0x01	; 1
    36d2:	39 e7       	ldi	r19, 0x79	; 121
    36d4:	20 83       	st	Z, r18
    36d6:	31 83       	std	Z+1, r19	; 0x01
    reactStr[1][number]=length;
    36d8:	fc 01       	movw	r30, r24
    36da:	ee 0f       	add	r30, r30
    36dc:	ff 1f       	adc	r31, r31
    36de:	e2 5a       	subi	r30, 0xA2	; 162
    36e0:	f6 4c       	sbci	r31, 0xC6	; 198
    36e2:	2a e1       	ldi	r18, 0x1A	; 26
    36e4:	30 e0       	ldi	r19, 0x00	; 0
    36e6:	15 c0       	rjmp	.+42     	; 0x3712 <ProcessInput+0xa08>
                                UpdateState(actObj1.byteField[ACTION_STATE]);
                                
                            } else {
                                if (data[0] == 'u') {
                                    SetResponse(elements++, A_CANTUSE, L_CANTUSE, TEASER);
                                } else if (data[0] == 'g') {
    36e8:	87 36       	cpi	r24, 0x67	; 103
    36ea:	09 f0       	breq	.+2      	; 0x36ee <ProcessInput+0x9e4>
    36ec:	86 c2       	rjmp	.+1292   	; 0x3bfa <ProcessInput+0xef0>
    return 0;
}

//
void SetResponse(uint8_t number, uint16_t address, uint16_t length, uint8_t type){
    reactStr[0][number]=address;
    36ee:	81 2f       	mov	r24, r17
    36f0:	90 e0       	ldi	r25, 0x00	; 0
    36f2:	fc 01       	movw	r30, r24
    36f4:	ee 0f       	add	r30, r30
    36f6:	ff 1f       	adc	r31, r31
    36f8:	e2 5e       	subi	r30, 0xE2	; 226
    36fa:	f6 4c       	sbci	r31, 0xC6	; 198
    36fc:	2f e9       	ldi	r18, 0x9F	; 159
    36fe:	36 e7       	ldi	r19, 0x76	; 118
    3700:	20 83       	st	Z, r18
    3702:	31 83       	std	Z+1, r19	; 0x01
    reactStr[1][number]=length;
    3704:	fc 01       	movw	r30, r24
    3706:	ee 0f       	add	r30, r30
    3708:	ff 1f       	adc	r31, r31
    370a:	e2 5a       	subi	r30, 0xA2	; 162
    370c:	f6 4c       	sbci	r31, 0xC6	; 198
    370e:	28 e2       	ldi	r18, 0x28	; 40
    3710:	30 e0       	ldi	r19, 0x00	; 0
    3712:	20 83       	st	Z, r18
    3714:	31 83       	std	Z+1, r19	; 0x01
    reactStr[2][number]=type;
    3716:	88 0f       	add	r24, r24
    3718:	99 1f       	adc	r25, r25
    371a:	fc 01       	movw	r30, r24
    371c:	e2 56       	subi	r30, 0x62	; 98
    371e:	f6 4c       	sbci	r31, 0xC6	; 198
    3720:	81 e0       	ldi	r24, 0x01	; 1
    3722:	90 e0       	ldi	r25, 0x00	; 0
    3724:	80 83       	st	Z, r24
    3726:	91 83       	std	Z+1, r25	; 0x01
                                
                            } else {
                                if (data[0] == 'u') {
                                    SetResponse(elements++, A_CANTUSE, L_CANTUSE, TEASER);
                                } else if (data[0] == 'g') {
                                    SetResponse(elements++, A_CANTGIVE, L_CANTGIVE, TEASER);                                    
    3728:	1f 5f       	subi	r17, 0xFF	; 255
    372a:	67 c2       	rjmp	.+1230   	; 0x3bfa <ProcessInput+0xef0>
                            }
                        }
                    
                    //Talk to person, read or use object (without item)                          
                    } else {
                        PopulateObject(route[currDepth+1], &actObj1);
    372c:	6d ed       	ldi	r22, 0xDD	; 221
    372e:	78 e3       	ldi	r23, 0x38	; 56
    3730:	0e 94 f0 11 	call	0x23e0	; 0x23e0 <PopulateObject>
                        if ((data[0] == 't')&&((actObj1.byteField[ACTION_MASK]&TALK) == 0)) {
    3734:	d3 01       	movw	r26, r6
    3736:	8c 91       	ld	r24, X
    3738:	84 37       	cpi	r24, 0x74	; 116
    373a:	61 f5       	brne	.+88     	; 0x3794 <ProcessInput+0xa8a>
    373c:	80 91 e5 38 	lds	r24, 0x38E5	; 0x8038e5 <actObj1.3989+0x8>
    3740:	83 fd       	sbrc	r24, 3
    3742:	43 c0       	rjmp	.+134    	; 0x37ca <ProcessInput+0xac0>
    return 0;
}

//
void SetResponse(uint8_t number, uint16_t address, uint16_t length, uint8_t type){
    reactStr[0][number]=address;
    3744:	8b e1       	ldi	r24, 0x1B	; 27
    3746:	99 e7       	ldi	r25, 0x79	; 121
    3748:	80 93 20 39 	sts	0x3920, r24	; 0x803920 <reactStr+0x2>
    374c:	90 93 21 39 	sts	0x3921, r25	; 0x803921 <reactStr+0x3>
    reactStr[1][number]=length;
    3750:	8e e1       	ldi	r24, 0x1E	; 30
    3752:	90 e0       	ldi	r25, 0x00	; 0
    3754:	80 93 60 39 	sts	0x3960, r24	; 0x803960 <reactStr+0x42>
    3758:	90 93 61 39 	sts	0x3961, r25	; 0x803961 <reactStr+0x43>
    reactStr[2][number]=type;
    375c:	81 e0       	ldi	r24, 0x01	; 1
    375e:	90 e0       	ldi	r25, 0x00	; 0
    3760:	80 93 a0 39 	sts	0x39A0, r24	; 0x8039a0 <reactStr+0x82>
    3764:	90 93 a1 39 	sts	0x39A1, r25	; 0x8039a1 <reactStr+0x83>
                    //Talk to person, read or use object (without item)                          
                    } else {
                        PopulateObject(route[currDepth+1], &actObj1);
                        if ((data[0] == 't')&&((actObj1.byteField[ACTION_MASK]&TALK) == 0)) {
                            SetResponse(elements++, A_WHYTALK, L_WHYTALK, TEASER);
                            SetResponse(elements++, actObj1.addrStr[NAME], actObj1.lenStr[NAME], GAME);
    3768:	80 91 f7 38 	lds	r24, 0x38F7	; 0x8038f7 <actObj1.3989+0x1a>
    376c:	90 91 f8 38 	lds	r25, 0x38F8	; 0x8038f8 <actObj1.3989+0x1b>
    return 0;
}

//
void SetResponse(uint8_t number, uint16_t address, uint16_t length, uint8_t type){
    reactStr[0][number]=address;
    3770:	20 91 e9 38 	lds	r18, 0x38E9	; 0x8038e9 <actObj1.3989+0xc>
    3774:	30 91 ea 38 	lds	r19, 0x38EA	; 0x8038ea <actObj1.3989+0xd>
    3778:	20 93 22 39 	sts	0x3922, r18	; 0x803922 <reactStr+0x4>
    377c:	30 93 23 39 	sts	0x3923, r19	; 0x803923 <reactStr+0x5>
    reactStr[1][number]=length;
    3780:	80 93 62 39 	sts	0x3962, r24	; 0x803962 <reactStr+0x44>
    3784:	90 93 63 39 	sts	0x3963, r25	; 0x803963 <reactStr+0x45>
    reactStr[2][number]=type;
    3788:	10 92 a2 39 	sts	0x39A2, r1	; 0x8039a2 <reactStr+0x84>
    378c:	10 92 a3 39 	sts	0x39A3, r1	; 0x8039a3 <reactStr+0x85>
                    //Talk to person, read or use object (without item)                          
                    } else {
                        PopulateObject(route[currDepth+1], &actObj1);
                        if ((data[0] == 't')&&((actObj1.byteField[ACTION_MASK]&TALK) == 0)) {
                            SetResponse(elements++, A_WHYTALK, L_WHYTALK, TEASER);
                            SetResponse(elements++, actObj1.addrStr[NAME], actObj1.lenStr[NAME], GAME);
    3790:	13 e0       	ldi	r17, 0x03	; 3
    3792:	33 c2       	rjmp	.+1126   	; 0x3bfa <ProcessInput+0xef0>
                        } else if ((data[0] == 'u')&&((actObj1.byteField[ACTION_MASK]&USE) == 0)) {
    3794:	85 37       	cpi	r24, 0x75	; 117
    3796:	39 f4       	brne	.+14     	; 0x37a6 <ProcessInput+0xa9c>
    3798:	80 91 e5 38 	lds	r24, 0x38E5	; 0x8038e5 <actObj1.3989+0x8>
    379c:	84 fd       	sbrc	r24, 4
    379e:	15 c0       	rjmp	.+42     	; 0x37ca <ProcessInput+0xac0>
    return 0;
}

//
void SetResponse(uint8_t number, uint16_t address, uint16_t length, uint8_t type){
    reactStr[0][number]=address;
    37a0:	81 e0       	ldi	r24, 0x01	; 1
    37a2:	99 e7       	ldi	r25, 0x79	; 121
    37a4:	3b c2       	rjmp	.+1142   	; 0x3c1c <ProcessInput+0xf12>
                        if ((data[0] == 't')&&((actObj1.byteField[ACTION_MASK]&TALK) == 0)) {
                            SetResponse(elements++, A_WHYTALK, L_WHYTALK, TEASER);
                            SetResponse(elements++, actObj1.addrStr[NAME], actObj1.lenStr[NAME], GAME);
                        } else if ((data[0] == 'u')&&((actObj1.byteField[ACTION_MASK]&USE) == 0)) {
                            SetResponse(elements++, A_CANTUSE, L_CANTUSE, TEASER);
                        } else if ((data[0] == 'r')&&((actObj1.byteField[ACTION_MASK]&READ) == 0)) {
    37a6:	82 37       	cpi	r24, 0x72	; 114
    37a8:	69 f4       	brne	.+26     	; 0x37c4 <ProcessInput+0xaba>
    37aa:	80 91 e5 38 	lds	r24, 0x38E5	; 0x8038e5 <actObj1.3989+0x8>
    37ae:	85 fd       	sbrc	r24, 5
    37b0:	0c c0       	rjmp	.+24     	; 0x37ca <ProcessInput+0xac0>
    return 0;
}

//
void SetResponse(uint8_t number, uint16_t address, uint16_t length, uint8_t type){
    reactStr[0][number]=address;
    37b2:	86 ee       	ldi	r24, 0xE6	; 230
    37b4:	98 e7       	ldi	r25, 0x78	; 120
    37b6:	80 93 20 39 	sts	0x3920, r24	; 0x803920 <reactStr+0x2>
    37ba:	90 93 21 39 	sts	0x3921, r25	; 0x803921 <reactStr+0x3>
    reactStr[1][number]=length;
    37be:	8b e1       	ldi	r24, 0x1B	; 27
    37c0:	90 e0       	ldi	r25, 0x00	; 0
    37c2:	78 cb       	rjmp	.-2320   	; 0x2eb4 <ProcessInput+0x1aa>
                            SetResponse(elements++, actObj1.addrStr[NAME], actObj1.lenStr[NAME], GAME);
                        } else if ((data[0] == 'u')&&((actObj1.byteField[ACTION_MASK]&USE) == 0)) {
                            SetResponse(elements++, A_CANTUSE, L_CANTUSE, TEASER);
                        } else if ((data[0] == 'r')&&((actObj1.byteField[ACTION_MASK]&READ) == 0)) {
                            SetResponse(elements++, A_CANTREAD, L_CANTREAD, TEASER);
                        } else if (data[0] == 'g'){ 
    37c4:	87 36       	cpi	r24, 0x67	; 103
    37c6:	09 f4       	brne	.+2      	; 0x37ca <ProcessInput+0xac0>
    37c8:	e0 ca       	rjmp	.-2624   	; 0x2d8a <ProcessInput+0x80>
                            SetResponse(elements++, A_NOTPOSSIBLE, L_NOTPOSSIBLE, TEASER);  
                        } else {

                            //Special game, not enough characters
                            if (actObj1.lenStr[ACTION_STR1] == 1) {
    37ca:	00 91 fb 38 	lds	r16, 0x38FB	; 0x8038fb <actObj1.3989+0x1e>
    37ce:	10 91 fc 38 	lds	r17, 0x38FC	; 0x8038fc <actObj1.3989+0x1f>
    37d2:	01 30       	cpi	r16, 0x01	; 1
    37d4:	11 05       	cpc	r17, r1
    37d6:	09 f5       	brne	.+66     	; 0x381a <ProcessInput+0xb10>
                                ExtEERead(actObj1.addrStr[ACTION_STR1], 1, GAME, &data[2]);
    37d8:	93 01       	movw	r18, r6
    37da:	2e 5f       	subi	r18, 0xFE	; 254
    37dc:	3f 4f       	sbci	r19, 0xFF	; 255
    37de:	40 e0       	ldi	r20, 0x00	; 0
    37e0:	61 e0       	ldi	r22, 0x01	; 1
    37e2:	80 91 ed 38 	lds	r24, 0x38ED	; 0x8038ed <actObj1.3989+0x10>
    37e6:	90 91 ee 38 	lds	r25, 0x38EE	; 0x8038ee <actObj1.3989+0x11>
    37ea:	0e 94 4a 08 	call	0x1094	; 0x1094 <ExtEERead>
                                if (data[2] == '1') {
    37ee:	f3 01       	movw	r30, r6
    37f0:	82 81       	ldd	r24, Z+2	; 0x02
    37f2:	81 33       	cpi	r24, 0x31	; 49
    37f4:	09 f0       	breq	.+2      	; 0x37f8 <ProcessInput+0xaee>
    37f6:	13 cd       	rjmp	.-1498   	; 0x321e <ProcessInput+0x514>
    return 0;
}

//
void SetResponse(uint8_t number, uint16_t address, uint16_t length, uint8_t type){
    reactStr[0][number]=address;
    37f8:	85 e2       	ldi	r24, 0x25	; 37
    37fa:	95 e7       	ldi	r25, 0x75	; 117
    37fc:	80 93 20 39 	sts	0x3920, r24	; 0x803920 <reactStr+0x2>
    3800:	90 93 21 39 	sts	0x3921, r25	; 0x803921 <reactStr+0x3>
    reactStr[1][number]=length;
    3804:	8b e2       	ldi	r24, 0x2B	; 43
    3806:	90 e0       	ldi	r25, 0x00	; 0
    3808:	80 93 60 39 	sts	0x3960, r24	; 0x803960 <reactStr+0x42>
    380c:	90 93 61 39 	sts	0x3961, r25	; 0x803961 <reactStr+0x43>
    reactStr[2][number]=type;
    3810:	00 93 a0 39 	sts	0x39A0, r16	; 0x8039a0 <reactStr+0x82>
    3814:	10 93 a1 39 	sts	0x39A1, r17	; 0x8039a1 <reactStr+0x83>
    3818:	57 cb       	rjmp	.-2386   	; 0x2ec8 <ProcessInput+0x1be>
                                if (data[2] == '1') {
                                    SetResponse(elements++, A_PLEASEOFFER, L_PLEASEOFFER, TEASER);
                                }

                            //General request
                            } else if (actObj1.lenStr[ACTION_STR1]) {
    381a:	01 15       	cp	r16, r1
    381c:	11 05       	cpc	r17, r1
    381e:	09 f4       	brne	.+2      	; 0x3822 <ProcessInput+0xb18>
    3820:	58 c0       	rjmp	.+176    	; 0x38d2 <ProcessInput+0xbc8>
    return 0;
}

//
void SetResponse(uint8_t number, uint16_t address, uint16_t length, uint8_t type){
    reactStr[0][number]=address;
    3822:	80 91 ed 38 	lds	r24, 0x38ED	; 0x8038ed <actObj1.3989+0x10>
    3826:	90 91 ee 38 	lds	r25, 0x38EE	; 0x8038ee <actObj1.3989+0x11>
    382a:	80 93 20 39 	sts	0x3920, r24	; 0x803920 <reactStr+0x2>
    382e:	90 93 21 39 	sts	0x3921, r25	; 0x803921 <reactStr+0x3>
    reactStr[1][number]=length;
    3832:	00 93 60 39 	sts	0x3960, r16	; 0x803960 <reactStr+0x42>
    3836:	10 93 61 39 	sts	0x3961, r17	; 0x803961 <reactStr+0x43>
    reactStr[2][number]=type;
    383a:	10 92 a0 39 	sts	0x39A0, r1	; 0x8039a0 <reactStr+0x82>
    383e:	10 92 a1 39 	sts	0x39A1, r1	; 0x8039a1 <reactStr+0x83>
    return 0;
}

//
void SetResponse(uint8_t number, uint16_t address, uint16_t length, uint8_t type){
    reactStr[0][number]=address;
    3842:	89 e5       	ldi	r24, 0x59	; 89
    3844:	9a e7       	ldi	r25, 0x7A	; 122
    3846:	80 93 22 39 	sts	0x3922, r24	; 0x803922 <reactStr+0x4>
    384a:	90 93 23 39 	sts	0x3923, r25	; 0x803923 <reactStr+0x5>
    reactStr[1][number]=length;
    384e:	82 e0       	ldi	r24, 0x02	; 2
    3850:	90 e0       	ldi	r25, 0x00	; 0
    3852:	80 93 62 39 	sts	0x3962, r24	; 0x803962 <reactStr+0x44>
    3856:	90 93 63 39 	sts	0x3963, r25	; 0x803963 <reactStr+0x45>
    reactStr[2][number]=type;
    385a:	81 e0       	ldi	r24, 0x01	; 1
    385c:	90 e0       	ldi	r25, 0x00	; 0
    385e:	80 93 a2 39 	sts	0x39A2, r24	; 0x8039a2 <reactStr+0x84>
    3862:	90 93 a3 39 	sts	0x39A3, r25	; 0x8039a3 <reactStr+0x85>
    return 0;
}

//
void SetResponse(uint8_t number, uint16_t address, uint16_t length, uint8_t type){
    reactStr[0][number]=address;
    3866:	2d ea       	ldi	r18, 0xAD	; 173
    3868:	38 e7       	ldi	r19, 0x78	; 120
    386a:	20 93 24 39 	sts	0x3924, r18	; 0x803924 <reactStr+0x6>
    386e:	30 93 25 39 	sts	0x3925, r19	; 0x803925 <reactStr+0x7>
    reactStr[1][number]=length;
    3872:	22 e1       	ldi	r18, 0x12	; 18
    3874:	30 e0       	ldi	r19, 0x00	; 0
    3876:	20 93 64 39 	sts	0x3964, r18	; 0x803964 <reactStr+0x46>
    387a:	30 93 65 39 	sts	0x3965, r19	; 0x803965 <reactStr+0x47>
    reactStr[2][number]=type;
    387e:	80 93 a4 39 	sts	0x39A4, r24	; 0x8039a4 <reactStr+0x86>
    3882:	90 93 a5 39 	sts	0x39A5, r25	; 0x8039a5 <reactStr+0x87>
                            //General request
                            } else if (actObj1.lenStr[ACTION_STR1]) {
                                SetResponse(elements++, actObj1.addrStr[ACTION_STR1], actObj1.lenStr[ACTION_STR1], GAME);
                                SetResponse(elements++, A_LF, 2, TEASER);
                                SetResponse(elements++, A_RESPONSE, L_RESPONSE, TEASER);
                                if (actObj1.lenStr[ACTION_STR2]>(INP_LENGTH-1)) actObj1.lenStr[ACTION_STR2] = (INP_LENGTH-1);
    3886:	80 91 fd 38 	lds	r24, 0x38FD	; 0x8038fd <actObj1.3989+0x20>
    388a:	90 91 fe 38 	lds	r25, 0x38FE	; 0x8038fe <actObj1.3989+0x21>
    388e:	40 97       	sbiw	r24, 0x10	; 16
    3890:	30 f0       	brcs	.+12     	; 0x389e <ProcessInput+0xb94>
    3892:	8f e0       	ldi	r24, 0x0F	; 15
    3894:	90 e0       	ldi	r25, 0x00	; 0
    3896:	80 93 fd 38 	sts	0x38FD, r24	; 0x8038fd <actObj1.3989+0x20>
    389a:	90 93 fe 38 	sts	0x38FE, r25	; 0x8038fe <actObj1.3989+0x21>
                                ExtEERead(actObj1.addrStr[ACTION_STR2], actObj1.lenStr[ACTION_STR2], GAME, (uint8_t *)&specialInput[0]);
    389e:	2d e0       	ldi	r18, 0x0D	; 13
    38a0:	39 e3       	ldi	r19, 0x39	; 57
    38a2:	40 e0       	ldi	r20, 0x00	; 0
    38a4:	60 91 fd 38 	lds	r22, 0x38FD	; 0x8038fd <actObj1.3989+0x20>
    38a8:	80 91 ef 38 	lds	r24, 0x38EF	; 0x8038ef <actObj1.3989+0x12>
    38ac:	90 91 f0 38 	lds	r25, 0x38F0	; 0x8038f0 <actObj1.3989+0x13>
    38b0:	0e 94 4a 08 	call	0x1094	; 0x1094 <ExtEERead>
                                UnflipData(actObj1.lenStr[ACTION_STR2], (uint8_t *)&specialInput[0]);
    38b4:	6d e0       	ldi	r22, 0x0D	; 13
    38b6:	79 e3       	ldi	r23, 0x39	; 57
    38b8:	80 91 fd 38 	lds	r24, 0x38FD	; 0x8038fd <actObj1.3989+0x20>
    38bc:	0e 94 06 11 	call	0x220c	; 0x220c <UnflipData>
                                specialInput[actObj1.lenStr[ACTION_STR2]] = 0;
    38c0:	e0 91 fd 38 	lds	r30, 0x38FD	; 0x8038fd <actObj1.3989+0x20>
    38c4:	f0 91 fe 38 	lds	r31, 0x38FE	; 0x8038fe <actObj1.3989+0x21>
    38c8:	e3 5f       	subi	r30, 0xF3	; 243
    38ca:	f6 4c       	sbci	r31, 0xC6	; 198
    38cc:	10 82       	st	Z, r1

                            //General request
                            } else if (actObj1.lenStr[ACTION_STR1]) {
                                SetResponse(elements++, actObj1.addrStr[ACTION_STR1], actObj1.lenStr[ACTION_STR1], GAME);
                                SetResponse(elements++, A_LF, 2, TEASER);
                                SetResponse(elements++, A_RESPONSE, L_RESPONSE, TEASER);
    38ce:	14 e0       	ldi	r17, 0x04	; 4
    38d0:	94 c1       	rjmp	.+808    	; 0x3bfa <ProcessInput+0xef0>
                                ExtEERead(actObj1.addrStr[ACTION_STR2], actObj1.lenStr[ACTION_STR2], GAME, (uint8_t *)&specialInput[0]);
                                UnflipData(actObj1.lenStr[ACTION_STR2], (uint8_t *)&specialInput[0]);
                                specialInput[actObj1.lenStr[ACTION_STR2]] = 0;
                            
                            //Normal action    
                            } else if (CheckState(actObj1.byteField[ACTION_ACL])){
    38d2:	80 91 e4 38 	lds	r24, 0x38E4	; 0x8038e4 <actObj1.3989+0x7>
    38d6:	0e 94 15 0a 	call	0x142a	; 0x142a <CheckState>
    38da:	88 23       	and	r24, r24
    38dc:	01 f1       	breq	.+64     	; 0x391e <ProcessInput+0xc14>
                                SetResponse(elements++, actObj1.addrStr[ACTION_MSG], actObj1.lenStr[ACTION_MSG], GAME);
    38de:	80 91 03 39 	lds	r24, 0x3903	; 0x803903 <actObj1.3989+0x26>
    38e2:	90 91 04 39 	lds	r25, 0x3904	; 0x803904 <actObj1.3989+0x27>
    return 0;
}

//
void SetResponse(uint8_t number, uint16_t address, uint16_t length, uint8_t type){
    reactStr[0][number]=address;
    38e6:	20 91 f5 38 	lds	r18, 0x38F5	; 0x8038f5 <actObj1.3989+0x18>
    38ea:	30 91 f6 38 	lds	r19, 0x38F6	; 0x8038f6 <actObj1.3989+0x19>
    38ee:	20 93 20 39 	sts	0x3920, r18	; 0x803920 <reactStr+0x2>
    38f2:	30 93 21 39 	sts	0x3921, r19	; 0x803921 <reactStr+0x3>
    reactStr[1][number]=length;
    38f6:	80 93 60 39 	sts	0x3960, r24	; 0x803960 <reactStr+0x42>
    38fa:	90 93 61 39 	sts	0x3961, r25	; 0x803961 <reactStr+0x43>
    reactStr[2][number]=type;
    38fe:	10 92 a0 39 	sts	0x39A0, r1	; 0x8039a0 <reactStr+0x82>
    3902:	10 92 a1 39 	sts	0x39A1, r1	; 0x8039a1 <reactStr+0x83>
                                specialInput[actObj1.lenStr[ACTION_STR2]] = 0;
                            
                            //Normal action    
                            } else if (CheckState(actObj1.byteField[ACTION_ACL])){
                                SetResponse(elements++, actObj1.addrStr[ACTION_MSG], actObj1.lenStr[ACTION_MSG], GAME);
                                effect = actObj1.effect[2];
    3906:	80 91 07 39 	lds	r24, 0x3907	; 0x803907 <actObj1.3989+0x2a>
    390a:	90 e0       	ldi	r25, 0x00	; 0
    390c:	80 93 3c 38 	sts	0x383C, r24	; 0x80383c <effect>
    3910:	90 93 3d 38 	sts	0x383D, r25	; 0x80383d <effect+0x1>
                                UpdateState(actObj1.byteField[ACTION_STATE]);
    3914:	80 91 e7 38 	lds	r24, 0x38E7	; 0x8038e7 <actObj1.3989+0xa>
    3918:	0e 94 f4 09 	call	0x13e8	; 0x13e8 <UpdateState>
    391c:	d5 ca       	rjmp	.-2646   	; 0x2ec8 <ProcessInput+0x1be>
                            } else {
                                SetResponse(elements++, actObj1.addrStr[ACTION_ACL_MSG], actObj1.lenStr[ACTION_ACL_MSG], GAME);
    391e:	80 91 01 39 	lds	r24, 0x3901	; 0x803901 <actObj1.3989+0x24>
    3922:	90 91 02 39 	lds	r25, 0x3902	; 0x803902 <actObj1.3989+0x25>
    return 0;
}

//
void SetResponse(uint8_t number, uint16_t address, uint16_t length, uint8_t type){
    reactStr[0][number]=address;
    3926:	20 91 f3 38 	lds	r18, 0x38F3	; 0x8038f3 <actObj1.3989+0x16>
    392a:	30 91 f4 38 	lds	r19, 0x38F4	; 0x8038f4 <actObj1.3989+0x17>
    392e:	20 93 20 39 	sts	0x3920, r18	; 0x803920 <reactStr+0x2>
    3932:	30 93 21 39 	sts	0x3921, r19	; 0x803921 <reactStr+0x3>
    reactStr[1][number]=length;
    3936:	80 93 60 39 	sts	0x3960, r24	; 0x803960 <reactStr+0x42>
    393a:	90 93 61 39 	sts	0x3961, r25	; 0x803961 <reactStr+0x43>
    reactStr[2][number]=type;
    393e:	10 92 a0 39 	sts	0x39A0, r1	; 0x8039a0 <reactStr+0x82>
    3942:	10 92 a1 39 	sts	0x39A1, r1	; 0x8039a1 <reactStr+0x83>
                                SetResponse(elements++, actObj1.addrStr[ACTION_MSG], actObj1.lenStr[ACTION_MSG], GAME);
                                effect = actObj1.effect[2];
                                UpdateState(actObj1.byteField[ACTION_STATE]);
                            } else {
                                SetResponse(elements++, actObj1.addrStr[ACTION_ACL_MSG], actObj1.lenStr[ACTION_ACL_MSG], GAME);
                                effect = actObj1.effect[1];
    3946:	80 91 06 39 	lds	r24, 0x3906	; 0x803906 <actObj1.3989+0x29>
    394a:	90 e0       	ldi	r25, 0x00	; 0
    394c:	80 93 3c 38 	sts	0x383C, r24	; 0x80383c <effect>
    3950:	90 93 3d 38 	sts	0x383D, r25	; 0x80383d <effect+0x1>
    3954:	b9 ca       	rjmp	.-2702   	; 0x2ec8 <ProcessInput+0x1be>
                        }
                    }

                //Person or object not found
                } else {
                    if ((data[0] == 't')||(data[0] == 'g')){
    3956:	d3 01       	movw	r26, r6
    3958:	8c 91       	ld	r24, X
    395a:	84 37       	cpi	r24, 0x74	; 116
    395c:	11 f0       	breq	.+4      	; 0x3962 <ProcessInput+0xc58>
    395e:	87 36       	cpi	r24, 0x67	; 103
    3960:	19 f4       	brne	.+6      	; 0x3968 <ProcessInput+0xc5e>
    return 0;
}

//
void SetResponse(uint8_t number, uint16_t address, uint16_t length, uint8_t type){
    reactStr[0][number]=address;
    3962:	89 e3       	ldi	r24, 0x39	; 57
    3964:	99 e7       	ldi	r25, 0x79	; 121
    3966:	02 c0       	rjmp	.+4      	; 0x396c <ProcessInput+0xc62>
    3968:	8d e4       	ldi	r24, 0x4D	; 77
    396a:	99 e7       	ldi	r25, 0x79	; 121
    396c:	80 93 20 39 	sts	0x3920, r24	; 0x803920 <reactStr+0x2>
    3970:	90 93 21 39 	sts	0x3921, r25	; 0x803921 <reactStr+0x3>
    reactStr[1][number]=length;
    3974:	84 e1       	ldi	r24, 0x14	; 20
    3976:	90 e0       	ldi	r25, 0x00	; 0
    3978:	9d ca       	rjmp	.-2758   	; 0x2eb4 <ProcessInput+0x1aa>
                    }
                }
            }
        
        //Special answer given
        } else if (data[0] == 'a'){
    397a:	81 36       	cpi	r24, 0x61	; 97
    397c:	09 f0       	breq	.+2      	; 0x3980 <ProcessInput+0xc76>
    397e:	4f cc       	rjmp	.-1890   	; 0x321e <ProcessInput+0x514>
            
            //Priest offerings
            if (specialPassed >= 2) {
    3980:	80 91 0c 39 	lds	r24, 0x390C	; 0x80390c <specialPassed>
    3984:	82 30       	cpi	r24, 0x02	; 2
    3986:	08 f4       	brcc	.+2      	; 0x398a <ProcessInput+0xc80>
    3988:	c7 c0       	rjmp	.+398    	; 0x3b18 <ProcessInput+0xe0e>
                if (data[1] > 0) {
    398a:	f3 01       	movw	r30, r6
    398c:	21 81       	ldd	r18, Z+1	; 0x01
    398e:	22 23       	and	r18, r18
    3990:	09 f4       	brne	.+2      	; 0x3994 <ProcessInput+0xc8a>
    3992:	af c0       	rjmp	.+350    	; 0x3af2 <ProcessInput+0xde8>

                    //uint8_t  digit[10] = {0, 0, 0, 0, 0, 0, 0, 0, 0, 0};
                    uint8_t  digit[8] = {0, 0, 0, 0, 0, 0, 0, 0};
    3994:	ce 01       	movw	r24, r28
    3996:	01 96       	adiw	r24, 0x01	; 1
    3998:	7c 01       	movw	r14, r24
    399a:	88 e0       	ldi	r24, 0x08	; 8
    399c:	d7 01       	movw	r26, r14
    399e:	1d 92       	st	X+, r1
    39a0:	8a 95       	dec	r24
    39a2:	e9 f7       	brne	.-6      	; 0x399e <ProcessInput+0xc94>
                        answer = ((offering  & 2) << 19) + ((offering  & 1) << 8) + \
                        ((element   & 2) << 15) + ((element   & 1) << 4) + \
                        ((kneelings & 2) << 11) + ((kneelings & 1))
                        answer = answer << (3-person)
                    */
                    data[1]-='0'; // item 31 needs to become something that results in 0 when doing %4
    39a4:	20 53       	subi	r18, 0x30	; 48
    39a6:	21 83       	std	Z+1, r18	; 0x01
                    data[2]-='1';
    39a8:	32 81       	ldd	r19, Z+2	; 0x02
    39aa:	31 53       	subi	r19, 0x31	; 49
    39ac:	32 83       	std	Z+2, r19	; 0x02
                    if (data[3] == 'a') data[3] = 1;
    39ae:	83 81       	ldd	r24, Z+3	; 0x03
    39b0:	81 36       	cpi	r24, 0x61	; 97
    39b2:	11 f4       	brne	.+4      	; 0x39b8 <ProcessInput+0xcae>
    39b4:	81 e0       	ldi	r24, 0x01	; 1
    39b6:	0c c0       	rjmp	.+24     	; 0x39d0 <ProcessInput+0xcc6>
                    else if (data[3] == 'e') data[3] = 0;
    39b8:	85 36       	cpi	r24, 0x65	; 101
    39ba:	19 f4       	brne	.+6      	; 0x39c2 <ProcessInput+0xcb8>
    39bc:	f3 01       	movw	r30, r6
    39be:	13 82       	std	Z+3, r1	; 0x03
    39c0:	08 c0       	rjmp	.+16     	; 0x39d2 <ProcessInput+0xcc8>
                    else if (data[3] == 'f') data[3] = 3;
    39c2:	86 36       	cpi	r24, 0x66	; 102
    39c4:	19 f4       	brne	.+6      	; 0x39cc <ProcessInput+0xcc2>
    39c6:	83 e0       	ldi	r24, 0x03	; 3
    39c8:	83 83       	std	Z+3, r24	; 0x03
    39ca:	03 c0       	rjmp	.+6      	; 0x39d2 <ProcessInput+0xcc8>
                    else data[3] = 2;
    39cc:	82 e0       	ldi	r24, 0x02	; 2
    39ce:	f3 01       	movw	r30, r6
    39d0:	83 83       	std	Z+3, r24	; 0x03

                    if (data[1] & 2) answer += (1UL << 20);
    39d2:	21 fd       	sbrc	r18, 1
    39d4:	04 c0       	rjmp	.+8      	; 0x39de <ProcessInput+0xcd4>
            if (specialPassed >= 2) {
                if (data[1] > 0) {

                    //uint8_t  digit[10] = {0, 0, 0, 0, 0, 0, 0, 0, 0, 0};
                    uint8_t  digit[8] = {0, 0, 0, 0, 0, 0, 0, 0};
                    uint32_t answer = 0;
    39d6:	80 e0       	ldi	r24, 0x00	; 0
    39d8:	90 e0       	ldi	r25, 0x00	; 0
    39da:	dc 01       	movw	r26, r24
    39dc:	04 c0       	rjmp	.+8      	; 0x39e6 <ProcessInput+0xcdc>
                    if (data[3] == 'a') data[3] = 1;
                    else if (data[3] == 'e') data[3] = 0;
                    else if (data[3] == 'f') data[3] = 3;
                    else data[3] = 2;

                    if (data[1] & 2) answer += (1UL << 20);
    39de:	80 e0       	ldi	r24, 0x00	; 0
    39e0:	90 e0       	ldi	r25, 0x00	; 0
    39e2:	a0 e1       	ldi	r26, 0x10	; 16
    39e4:	b0 e0       	ldi	r27, 0x00	; 0
                    if (data[1] & 1) answer += (1 << 8);
    39e6:	20 ff       	sbrs	r18, 0
    39e8:	03 c0       	rjmp	.+6      	; 0x39f0 <ProcessInput+0xce6>
    39ea:	9f 5f       	subi	r25, 0xFF	; 255
    39ec:	af 4f       	sbci	r26, 0xFF	; 255
    39ee:	bf 4f       	sbci	r27, 0xFF	; 255
                    if (data[3] & 2) answer += (1UL << 16);
    39f0:	f3 01       	movw	r30, r6
    39f2:	23 81       	ldd	r18, Z+3	; 0x03
    39f4:	21 fd       	sbrc	r18, 1
    39f6:	11 96       	adiw	r26, 0x01	; 1
                    if (data[3] & 1) answer += (1 << 4);
    39f8:	20 ff       	sbrs	r18, 0
    39fa:	03 c0       	rjmp	.+6      	; 0x3a02 <ProcessInput+0xcf8>
    39fc:	40 96       	adiw	r24, 0x10	; 16
    39fe:	a1 1d       	adc	r26, r1
    3a00:	b1 1d       	adc	r27, r1
                    if (data[2] & 2) answer += (1 << 12);
    3a02:	31 ff       	sbrs	r19, 1
    3a04:	03 c0       	rjmp	.+6      	; 0x3a0c <ProcessInput+0xd02>
    3a06:	90 5f       	subi	r25, 0xF0	; 240
    3a08:	af 4f       	sbci	r26, 0xFF	; 255
    3a0a:	bf 4f       	sbci	r27, 0xFF	; 255
                    if (data[2] & 1) answer += 1;
    3a0c:	30 ff       	sbrs	r19, 0
    3a0e:	03 c0       	rjmp	.+6      	; 0x3a16 <ProcessInput+0xd0c>
    3a10:	01 96       	adiw	r24, 0x01	; 1
    3a12:	a1 1d       	adc	r26, r1
    3a14:	b1 1d       	adc	r27, r1
                    answer <<= (4 - whoami);            
    3a16:	40 91 3f 38 	lds	r20, 0x383F	; 0x80383f <whoami>
    3a1a:	24 e0       	ldi	r18, 0x04	; 4
    3a1c:	30 e0       	ldi	r19, 0x00	; 0
    3a1e:	24 1b       	sub	r18, r20
    3a20:	31 09       	sbc	r19, r1
    3a22:	04 c0       	rjmp	.+8      	; 0x3a2c <ProcessInput+0xd22>
    3a24:	88 0f       	add	r24, r24
    3a26:	99 1f       	adc	r25, r25
    3a28:	aa 1f       	adc	r26, r26
    3a2a:	bb 1f       	adc	r27, r27
    3a2c:	2a 95       	dec	r18
    3a2e:	d2 f7       	brpl	.-12     	; 0x3a24 <ProcessInput+0xd1a>
    return 0;
}

//
void SetResponse(uint8_t number, uint16_t address, uint16_t length, uint8_t type){
    reactStr[0][number]=address;
    3a30:	28 ec       	ldi	r18, 0xC8	; 200
    3a32:	34 e7       	ldi	r19, 0x74	; 116
    3a34:	20 93 20 39 	sts	0x3920, r18	; 0x803920 <reactStr+0x2>
    3a38:	30 93 21 39 	sts	0x3921, r19	; 0x803921 <reactStr+0x3>
    reactStr[1][number]=length;
    3a3c:	20 e2       	ldi	r18, 0x20	; 32
    3a3e:	30 e0       	ldi	r19, 0x00	; 0
    3a40:	20 93 60 39 	sts	0x3960, r18	; 0x803960 <reactStr+0x42>
    3a44:	30 93 61 39 	sts	0x3961, r19	; 0x803961 <reactStr+0x43>
    reactStr[2][number]=type;
    3a48:	21 e0       	ldi	r18, 0x01	; 1
    3a4a:	30 e0       	ldi	r19, 0x00	; 0
    3a4c:	20 93 a0 39 	sts	0x39A0, r18	; 0x8039a0 <reactStr+0x82>
    3a50:	30 93 a1 39 	sts	0x39A1, r19	; 0x8039a1 <reactStr+0x83>
    return 0;
}

//
void SetResponse(uint8_t number, uint16_t address, uint16_t length, uint8_t type){
    reactStr[0][number]=address;
    3a54:	4d e9       	ldi	r20, 0x9D	; 157
    3a56:	54 e7       	ldi	r21, 0x74	; 116
    3a58:	40 93 22 39 	sts	0x3922, r20	; 0x803922 <reactStr+0x4>
    3a5c:	50 93 23 39 	sts	0x3923, r21	; 0x803923 <reactStr+0x5>
    reactStr[1][number]=length;
    3a60:	42 e0       	ldi	r20, 0x02	; 2
    3a62:	50 e0       	ldi	r21, 0x00	; 0
    3a64:	40 93 62 39 	sts	0x3962, r20	; 0x803962 <reactStr+0x44>
    3a68:	50 93 63 39 	sts	0x3963, r21	; 0x803963 <reactStr+0x45>
    reactStr[2][number]=type;
    3a6c:	20 93 a2 39 	sts	0x39A2, r18	; 0x8039a2 <reactStr+0x84>
    3a70:	30 93 a3 39 	sts	0x39A3, r19	; 0x8039a3 <reactStr+0x85>

                    SetResponse(elements++, A_YOURPART, L_YOURPART, TEASER);
                    SetResponse(elements++, A_HEXPREFIX, L_HEXPREFIX, TEASER);
                    
                    //Set up sending out number
                    for (n=7; n>=0; --n) {
    3a74:	07 e0       	ldi	r16, 0x07	; 7
                        digit[n] = answer % 16;
    3a76:	f7 01       	movw	r30, r14
    3a78:	e0 0f       	add	r30, r16
    3a7a:	f1 1d       	adc	r31, r1
    3a7c:	28 2f       	mov	r18, r24
    3a7e:	2f 70       	andi	r18, 0x0F	; 15
    3a80:	20 83       	st	Z, r18
                        answer /= 16;
    3a82:	44 e0       	ldi	r20, 0x04	; 4
    3a84:	b6 95       	lsr	r27
    3a86:	a7 95       	ror	r26
    3a88:	97 95       	ror	r25
    3a8a:	87 95       	ror	r24
    3a8c:	4a 95       	dec	r20
    3a8e:	d1 f7       	brne	.-12     	; 0x3a84 <ProcessInput+0xd7a>
                        if (answer == 0) break;
    3a90:	00 97       	sbiw	r24, 0x00	; 0
    3a92:	a1 05       	cpc	r26, r1
    3a94:	b1 05       	cpc	r27, r1
    3a96:	49 f4       	brne	.+18     	; 0x3aaa <ProcessInput+0xda0>
    3a98:	2e e1       	ldi	r18, 0x1E	; 30
    3a9a:	c2 2e       	mov	r12, r18
    3a9c:	29 e3       	ldi	r18, 0x39	; 57
    3a9e:	d2 2e       	mov	r13, r18
    3aa0:	13 e0       	ldi	r17, 0x03	; 3
}

//
void SetResponse(uint8_t number, uint16_t address, uint16_t length, uint8_t type){
    reactStr[0][number]=address;
    reactStr[1][number]=length;
    3aa2:	aa 24       	eor	r10, r10
    3aa4:	a3 94       	inc	r10
    3aa6:	b1 2c       	mov	r11, r1
    3aa8:	02 c0       	rjmp	.+4      	; 0x3aae <ProcessInput+0xda4>

                    SetResponse(elements++, A_YOURPART, L_YOURPART, TEASER);
                    SetResponse(elements++, A_HEXPREFIX, L_HEXPREFIX, TEASER);
                    
                    //Set up sending out number
                    for (n=7; n>=0; --n) {
    3aaa:	01 50       	subi	r16, 0x01	; 1
                        digit[n] = answer % 16;
                        answer /= 16;
                        if (answer == 0) break;
                    }
    3aac:	e4 cf       	rjmp	.-56     	; 0x3a76 <ProcessInput+0xd6c>
    3aae:	b2 e0       	ldi	r27, 0x02	; 2
    3ab0:	cb 0e       	add	r12, r27
    3ab2:	d1 1c       	adc	r13, r1

                    for (; n<8; ++n) {
    3ab4:	08 30       	cpi	r16, 0x08	; 8
    3ab6:	08 f0       	brcs	.+2      	; 0x3aba <ProcessInput+0xdb0>
    3ab8:	9e c0       	rjmp	.+316    	; 0x3bf6 <ProcessInput+0xeec>
                        SetResponse(elements++, A_DIGITS+digit[n], 1, TEASER);
    3aba:	1f 5f       	subi	r17, 0xFF	; 255
    3abc:	f7 01       	movw	r30, r14
    3abe:	e0 0f       	add	r30, r16
    3ac0:	f1 1d       	adc	r31, r1
    return 0;
}

//
void SetResponse(uint8_t number, uint16_t address, uint16_t length, uint8_t type){
    reactStr[0][number]=address;
    3ac2:	80 81       	ld	r24, Z
    3ac4:	90 e0       	ldi	r25, 0x00	; 0
    3ac6:	83 57       	subi	r24, 0x73	; 115
    3ac8:	9b 48       	sbci	r25, 0x8B	; 139
    3aca:	d6 01       	movw	r26, r12
    3acc:	14 96       	adiw	r26, 0x04	; 4
    3ace:	8d 93       	st	X+, r24
    3ad0:	9c 93       	st	X, r25
    3ad2:	15 97       	sbiw	r26, 0x05	; 5
    reactStr[1][number]=length;
    3ad4:	f6 01       	movw	r30, r12
    3ad6:	ec 5b       	subi	r30, 0xBC	; 188
    3ad8:	ff 4f       	sbci	r31, 0xFF	; 255
    3ada:	a0 82       	st	Z, r10
    3adc:	b1 82       	std	Z+1, r11	; 0x01
    reactStr[2][number]=type;
    3ade:	e0 5c       	subi	r30, 0xC0	; 192
    3ae0:	ff 4f       	sbci	r31, 0xFF	; 255
    3ae2:	a0 82       	st	Z, r10
    3ae4:	b1 82       	std	Z+1, r11	; 0x01
                        if (answer == 0) break;
                    }

                    for (; n<8; ++n) {
                        SetResponse(elements++, A_DIGITS+digit[n], 1, TEASER);
                        UpdateState(actObj1.byteField[ACTION_STATE]);
    3ae6:	80 91 e7 38 	lds	r24, 0x38E7	; 0x8038e7 <actObj1.3989+0xa>
    3aea:	0e 94 f4 09 	call	0x13e8	; 0x13e8 <UpdateState>
                        digit[n] = answer % 16;
                        answer /= 16;
                        if (answer == 0) break;
                    }

                    for (; n<8; ++n) {
    3aee:	0f 5f       	subi	r16, 0xFF	; 255
    3af0:	de cf       	rjmp	.-68     	; 0x3aae <ProcessInput+0xda4>
    return 0;
}

//
void SetResponse(uint8_t number, uint16_t address, uint16_t length, uint8_t type){
    reactStr[0][number]=address;
    3af2:	88 ee       	ldi	r24, 0xE8	; 232
    3af4:	94 e7       	ldi	r25, 0x74	; 116
    3af6:	80 93 20 39 	sts	0x3920, r24	; 0x803920 <reactStr+0x2>
    3afa:	90 93 21 39 	sts	0x3921, r25	; 0x803921 <reactStr+0x3>
    reactStr[1][number]=length;
    3afe:	8d e3       	ldi	r24, 0x3D	; 61
    3b00:	90 e0       	ldi	r25, 0x00	; 0
    3b02:	80 93 60 39 	sts	0x3960, r24	; 0x803960 <reactStr+0x42>
    3b06:	90 93 61 39 	sts	0x3961, r25	; 0x803961 <reactStr+0x43>
    reactStr[2][number]=type;
    3b0a:	81 e0       	ldi	r24, 0x01	; 1
    3b0c:	90 e0       	ldi	r25, 0x00	; 0
    3b0e:	80 93 a0 39 	sts	0x39A0, r24	; 0x8039a0 <reactStr+0x82>
    3b12:	90 93 a1 39 	sts	0x39A1, r25	; 0x8039a1 <reactStr+0x83>
    3b16:	6e c0       	rjmp	.+220    	; 0x3bf4 <ProcessInput+0xeea>
    3b18:	e0 91 31 38 	lds	r30, 0x3831	; 0x803831 <currDepth>
                    SetResponse(elements++, A_BADOFFERING, L_BADOFFERING, TEASER);
                }
            
            //Other questions    
            } else if (specialPassed == 1) {
                PopulateObject(route[currDepth+1], &actObj1);
    3b1c:	f0 e0       	ldi	r31, 0x00	; 0
    3b1e:	ee 0f       	add	r30, r30
    3b20:	ff 1f       	adc	r31, r31
    3b22:	e0 52       	subi	r30, 0x20	; 32
    3b24:	f6 4c       	sbci	r31, 0xC6	; 198
    3b26:	6d ed       	ldi	r22, 0xDD	; 221
    3b28:	78 e3       	ldi	r23, 0x38	; 56
                } else {
                    SetResponse(elements++, A_BADOFFERING, L_BADOFFERING, TEASER);
                }
            
            //Other questions    
            } else if (specialPassed == 1) {
    3b2a:	81 30       	cpi	r24, 0x01	; 1
    3b2c:	09 f0       	breq	.+2      	; 0x3b30 <ProcessInput+0xe26>
    3b2e:	46 c0       	rjmp	.+140    	; 0x3bbc <ProcessInput+0xeb2>
                PopulateObject(route[currDepth+1], &actObj1);
    3b30:	80 81       	ld	r24, Z
    3b32:	91 81       	ldd	r25, Z+1	; 0x01
    3b34:	0e 94 f0 11 	call	0x23e0	; 0x23e0 <PopulateObject>
                if (CheckState(actObj1.byteField[ACTION_ACL])){
    3b38:	80 91 e4 38 	lds	r24, 0x38E4	; 0x8038e4 <actObj1.3989+0x7>
    3b3c:	0e 94 15 0a 	call	0x142a	; 0x142a <CheckState>
    3b40:	88 23       	and	r24, r24
    3b42:	01 f1       	breq	.+64     	; 0x3b84 <ProcessInput+0xe7a>
                    SetResponse(elements++, actObj1.addrStr[ACTION_MSG], actObj1.lenStr[ACTION_MSG], GAME);
    3b44:	80 91 03 39 	lds	r24, 0x3903	; 0x803903 <actObj1.3989+0x26>
    3b48:	90 91 04 39 	lds	r25, 0x3904	; 0x803904 <actObj1.3989+0x27>
    return 0;
}

//
void SetResponse(uint8_t number, uint16_t address, uint16_t length, uint8_t type){
    reactStr[0][number]=address;
    3b4c:	20 91 f5 38 	lds	r18, 0x38F5	; 0x8038f5 <actObj1.3989+0x18>
    3b50:	30 91 f6 38 	lds	r19, 0x38F6	; 0x8038f6 <actObj1.3989+0x19>
    3b54:	20 93 20 39 	sts	0x3920, r18	; 0x803920 <reactStr+0x2>
    3b58:	30 93 21 39 	sts	0x3921, r19	; 0x803921 <reactStr+0x3>
    reactStr[1][number]=length;
    3b5c:	80 93 60 39 	sts	0x3960, r24	; 0x803960 <reactStr+0x42>
    3b60:	90 93 61 39 	sts	0x3961, r25	; 0x803961 <reactStr+0x43>
    reactStr[2][number]=type;
    3b64:	10 92 a0 39 	sts	0x39A0, r1	; 0x8039a0 <reactStr+0x82>
    3b68:	10 92 a1 39 	sts	0x39A1, r1	; 0x8039a1 <reactStr+0x83>
            //Other questions    
            } else if (specialPassed == 1) {
                PopulateObject(route[currDepth+1], &actObj1);
                if (CheckState(actObj1.byteField[ACTION_ACL])){
                    SetResponse(elements++, actObj1.addrStr[ACTION_MSG], actObj1.lenStr[ACTION_MSG], GAME);
                    effect = actObj1.effect[2];
    3b6c:	80 91 07 39 	lds	r24, 0x3907	; 0x803907 <actObj1.3989+0x2a>
    3b70:	90 e0       	ldi	r25, 0x00	; 0
    3b72:	80 93 3c 38 	sts	0x383C, r24	; 0x80383c <effect>
    3b76:	90 93 3d 38 	sts	0x383D, r25	; 0x80383d <effect+0x1>
                    UpdateState(actObj1.byteField[ACTION_STATE]);
    3b7a:	80 91 e7 38 	lds	r24, 0x38E7	; 0x8038e7 <actObj1.3989+0xa>
    3b7e:	0e 94 f4 09 	call	0x13e8	; 0x13e8 <UpdateState>
    3b82:	38 c0       	rjmp	.+112    	; 0x3bf4 <ProcessInput+0xeea>
                } else {
                    SetResponse(elements++, actObj1.addrStr[ACTION_ACL_MSG], actObj1.lenStr[ACTION_ACL_MSG], GAME);
    3b84:	80 91 01 39 	lds	r24, 0x3901	; 0x803901 <actObj1.3989+0x24>
    3b88:	90 91 02 39 	lds	r25, 0x3902	; 0x803902 <actObj1.3989+0x25>
    return 0;
}

//
void SetResponse(uint8_t number, uint16_t address, uint16_t length, uint8_t type){
    reactStr[0][number]=address;
    3b8c:	20 91 f3 38 	lds	r18, 0x38F3	; 0x8038f3 <actObj1.3989+0x16>
    3b90:	30 91 f4 38 	lds	r19, 0x38F4	; 0x8038f4 <actObj1.3989+0x17>
    3b94:	20 93 20 39 	sts	0x3920, r18	; 0x803920 <reactStr+0x2>
    3b98:	30 93 21 39 	sts	0x3921, r19	; 0x803921 <reactStr+0x3>
    reactStr[1][number]=length;
    3b9c:	80 93 60 39 	sts	0x3960, r24	; 0x803960 <reactStr+0x42>
    3ba0:	90 93 61 39 	sts	0x3961, r25	; 0x803961 <reactStr+0x43>
    reactStr[2][number]=type;
    3ba4:	10 92 a0 39 	sts	0x39A0, r1	; 0x8039a0 <reactStr+0x82>
    3ba8:	10 92 a1 39 	sts	0x39A1, r1	; 0x8039a1 <reactStr+0x83>
                    SetResponse(elements++, actObj1.addrStr[ACTION_MSG], actObj1.lenStr[ACTION_MSG], GAME);
                    effect = actObj1.effect[2];
                    UpdateState(actObj1.byteField[ACTION_STATE]);
                } else {
                    SetResponse(elements++, actObj1.addrStr[ACTION_ACL_MSG], actObj1.lenStr[ACTION_ACL_MSG], GAME);
                    effect = actObj1.effect[1];
    3bac:	80 91 06 39 	lds	r24, 0x3906	; 0x803906 <actObj1.3989+0x29>
    3bb0:	90 e0       	ldi	r25, 0x00	; 0
    3bb2:	80 93 3c 38 	sts	0x383C, r24	; 0x80383c <effect>
    3bb6:	90 93 3d 38 	sts	0x383D, r25	; 0x80383d <effect+0x1>
    3bba:	1c c0       	rjmp	.+56     	; 0x3bf4 <ProcessInput+0xeea>
                }

            } else {
                PopulateObject(route[currDepth+1], &actObj1);
    3bbc:	80 81       	ld	r24, Z
    3bbe:	91 81       	ldd	r25, Z+1	; 0x01
    3bc0:	0e 94 f0 11 	call	0x23e0	; 0x23e0 <PopulateObject>
    return 0;
}

//
void SetResponse(uint8_t number, uint16_t address, uint16_t length, uint8_t type){
    reactStr[0][number]=address;
    3bc4:	80 e6       	ldi	r24, 0x60	; 96
    3bc6:	98 e7       	ldi	r25, 0x78	; 120
    3bc8:	80 93 20 39 	sts	0x3920, r24	; 0x803920 <reactStr+0x2>
    3bcc:	90 93 21 39 	sts	0x3921, r25	; 0x803921 <reactStr+0x3>
    reactStr[1][number]=length;
    3bd0:	8d e4       	ldi	r24, 0x4D	; 77
    3bd2:	90 e0       	ldi	r25, 0x00	; 0
    3bd4:	80 93 60 39 	sts	0x3960, r24	; 0x803960 <reactStr+0x42>
    3bd8:	90 93 61 39 	sts	0x3961, r25	; 0x803961 <reactStr+0x43>
    reactStr[2][number]=type;
    3bdc:	81 e0       	ldi	r24, 0x01	; 1
    3bde:	90 e0       	ldi	r25, 0x00	; 0
    3be0:	80 93 a0 39 	sts	0x39A0, r24	; 0x8039a0 <reactStr+0x82>
    3be4:	90 93 a1 39 	sts	0x39A1, r25	; 0x8039a1 <reactStr+0x83>
                }

            } else {
                PopulateObject(route[currDepth+1], &actObj1);
                SetResponse(elements++, A_INCORRECT, L_INCORRECT, TEASER);
                PunishmentTime = getClock();
    3be8:	0e 94 0f 0e 	call	0x1c1e	; 0x1c1e <getClock>
    3bec:	80 93 0a 39 	sts	0x390A, r24	; 0x80390a <PunishmentTime>
    3bf0:	90 93 0b 39 	sts	0x390B, r25	; 0x80390b <PunishmentTime+0x1>
                    effect = actObj1.effect[1];
                }

            } else {
                PopulateObject(route[currDepth+1], &actObj1);
                SetResponse(elements++, A_INCORRECT, L_INCORRECT, TEASER);
    3bf4:	12 e0       	ldi	r17, 0x02	; 2
                PunishmentTime = getClock();
            }
            specialInput[0] = 0;
    3bf6:	10 92 0d 39 	sts	0x390D, r1	; 0x80390d <specialInput>

        }
                    
        //Input handled
        if (specialInput[0]) responseList = elements; else responseList = SetStandardResponse(elements);
    3bfa:	80 91 0d 39 	lds	r24, 0x390D	; 0x80390d <specialInput>
    3bfe:	88 23       	and	r24, r24
    3c00:	19 f0       	breq	.+6      	; 0x3c08 <ProcessInput+0xefe>
    3c02:	10 93 1d 39 	sts	0x391D, r17	; 0x80391d <responseList>
    3c06:	8b c0       	rjmp	.+278    	; 0x3d1e <ProcessInput+0x1014>
    3c08:	81 2f       	mov	r24, r17
    3c0a:	01 c0       	rjmp	.+2      	; 0x3c0e <ProcessInput+0xf04>

    } else {

        responseList = SetStandardResponse(1);
    3c0c:	81 e0       	ldi	r24, 0x01	; 1
    3c0e:	0e 94 74 11 	call	0x22e8	; 0x22e8 <SetStandardResponse>
    3c12:	80 93 1d 39 	sts	0x391D, r24	; 0x80391d <responseList>
    3c16:	83 c0       	rjmp	.+262    	; 0x3d1e <ProcessInput+0x1014>
    return 0;
}

//
void SetResponse(uint8_t number, uint16_t address, uint16_t length, uint8_t type){
    reactStr[0][number]=address;
    3c18:	81 ed       	ldi	r24, 0xD1	; 209
    3c1a:	99 e7       	ldi	r25, 0x79	; 121
    3c1c:	80 93 20 39 	sts	0x3920, r24	; 0x803920 <reactStr+0x2>
    3c20:	90 93 21 39 	sts	0x3921, r25	; 0x803921 <reactStr+0x3>
    reactStr[1][number]=length;
    3c24:	8a e1       	ldi	r24, 0x1A	; 26
    3c26:	90 e0       	ldi	r25, 0x00	; 0
    3c28:	45 c9       	rjmp	.-3446   	; 0x2eb4 <ProcessInput+0x1aa>

        //Drop item if in inventory
        if (data[0] == 'd') {
            if ((inventory[0] == 0)&&(inventory[1] == 0)){
                SetResponse(elements++, A_EMPTYHANDS, L_EMPTYHANDS, TEASER);
            } else if (inputLen != 2) {
    3c2a:	f2 e0       	ldi	r31, 0x02	; 2
    3c2c:	ff 12       	cpse	r15, r31
    3c2e:	ad c8       	rjmp	.-3750   	; 0x2d8a <ProcessInput+0x80>
                SetResponse(elements++, A_NOTPOSSIBLE, L_NOTPOSSIBLE, TEASER);
            } else {
                for (uint8_t x=0; x<2; ++x) {
                    if (inventory[x]) {
                        if (CheckLetter(inventory[x], data[1])) {
    3c30:	f3 01       	movw	r30, r6
    3c32:	61 81       	ldd	r22, Z+1	; 0x01
    3c34:	0e 94 69 12 	call	0x24d2	; 0x24d2 <CheckLetter>
    3c38:	88 23       	and	r24, r24
    3c3a:	09 f4       	brne	.+2      	; 0x3c3e <ProcessInput+0xf34>
    3c3c:	58 c0       	rjmp	.+176    	; 0x3cee <ProcessInput+0xfe4>
                SetResponse(elements++, A_EMPTYHANDS, L_EMPTYHANDS, TEASER);
            } else if (inputLen != 2) {
                SetResponse(elements++, A_NOTPOSSIBLE, L_NOTPOSSIBLE, TEASER);
            } else {
                for (uint8_t x=0; x<2; ++x) {
                    if (inventory[x]) {
    3c3e:	00 e0       	ldi	r16, 0x00	; 0
    3c40:	10 e0       	ldi	r17, 0x00	; 0
                        if (CheckLetter(inventory[x], data[1])) {
                            PopulateObject(inventory[x], &actObj1);
    3c42:	00 0f       	add	r16, r16
    3c44:	11 1f       	adc	r17, r17
    3c46:	00 5c       	subi	r16, 0xC0	; 192
    3c48:	17 4c       	sbci	r17, 0xC7	; 199
    3c4a:	6d ed       	ldi	r22, 0xDD	; 221
    3c4c:	78 e3       	ldi	r23, 0x38	; 56
    3c4e:	d8 01       	movw	r26, r16
    3c50:	8d 91       	ld	r24, X+
    3c52:	9c 91       	ld	r25, X
    3c54:	0e 94 f0 11 	call	0x23e0	; 0x23e0 <PopulateObject>
    return 0;
}

//
void SetResponse(uint8_t number, uint16_t address, uint16_t length, uint8_t type){
    reactStr[0][number]=address;
    3c58:	86 e9       	ldi	r24, 0x96	; 150
    3c5a:	97 e7       	ldi	r25, 0x77	; 119
    3c5c:	80 93 20 39 	sts	0x3920, r24	; 0x803920 <reactStr+0x2>
    3c60:	90 93 21 39 	sts	0x3921, r25	; 0x803921 <reactStr+0x3>
    reactStr[1][number]=length;
    3c64:	80 e1       	ldi	r24, 0x10	; 16
    3c66:	90 e0       	ldi	r25, 0x00	; 0
    3c68:	80 93 60 39 	sts	0x3960, r24	; 0x803960 <reactStr+0x42>
    3c6c:	90 93 61 39 	sts	0x3961, r25	; 0x803961 <reactStr+0x43>
    reactStr[2][number]=type;
    3c70:	81 e0       	ldi	r24, 0x01	; 1
    3c72:	90 e0       	ldi	r25, 0x00	; 0
    3c74:	80 93 a0 39 	sts	0x39A0, r24	; 0x8039a0 <reactStr+0x82>
    3c78:	90 93 a1 39 	sts	0x39A1, r25	; 0x8039a1 <reactStr+0x83>
                for (uint8_t x=0; x<2; ++x) {
                    if (inventory[x]) {
                        if (CheckLetter(inventory[x], data[1])) {
                            PopulateObject(inventory[x], &actObj1);
                            SetResponse(elements++, A_DROPPING, L_DROPPING, TEASER);
                            SetResponse(elements++, actObj1.addrStr[NAME], actObj1.lenStr[NAME], GAME);
    3c7c:	20 91 f7 38 	lds	r18, 0x38F7	; 0x8038f7 <actObj1.3989+0x1a>
    3c80:	30 91 f8 38 	lds	r19, 0x38F8	; 0x8038f8 <actObj1.3989+0x1b>
    return 0;
}

//
void SetResponse(uint8_t number, uint16_t address, uint16_t length, uint8_t type){
    reactStr[0][number]=address;
    3c84:	40 91 e9 38 	lds	r20, 0x38E9	; 0x8038e9 <actObj1.3989+0xc>
    3c88:	50 91 ea 38 	lds	r21, 0x38EA	; 0x8038ea <actObj1.3989+0xd>
    3c8c:	40 93 22 39 	sts	0x3922, r20	; 0x803922 <reactStr+0x4>
    3c90:	50 93 23 39 	sts	0x3923, r21	; 0x803923 <reactStr+0x5>
    reactStr[1][number]=length;
    3c94:	20 93 62 39 	sts	0x3962, r18	; 0x803962 <reactStr+0x44>
    3c98:	30 93 63 39 	sts	0x3963, r19	; 0x803963 <reactStr+0x45>
    reactStr[2][number]=type;
    3c9c:	10 92 a2 39 	sts	0x39A2, r1	; 0x8039a2 <reactStr+0x84>
    3ca0:	10 92 a3 39 	sts	0x39A3, r1	; 0x8039a3 <reactStr+0x85>
    return 0;
}

//
void SetResponse(uint8_t number, uint16_t address, uint16_t length, uint8_t type){
    reactStr[0][number]=address;
    3ca4:	29 e5       	ldi	r18, 0x59	; 89
    3ca6:	3a e7       	ldi	r19, 0x7A	; 122
    3ca8:	20 93 24 39 	sts	0x3924, r18	; 0x803924 <reactStr+0x6>
    3cac:	30 93 25 39 	sts	0x3925, r19	; 0x803925 <reactStr+0x7>
    reactStr[1][number]=length;
    3cb0:	22 e0       	ldi	r18, 0x02	; 2
    3cb2:	30 e0       	ldi	r19, 0x00	; 0
    3cb4:	20 93 64 39 	sts	0x3964, r18	; 0x803964 <reactStr+0x46>
    3cb8:	30 93 65 39 	sts	0x3965, r19	; 0x803965 <reactStr+0x47>
    reactStr[2][number]=type;
    3cbc:	80 93 a4 39 	sts	0x39A4, r24	; 0x8039a4 <reactStr+0x86>
    3cc0:	90 93 a5 39 	sts	0x39A5, r25	; 0x8039a5 <reactStr+0x87>
    return 0;
}

//
void SetResponse(uint8_t number, uint16_t address, uint16_t length, uint8_t type){
    reactStr[0][number]=address;
    3cc4:	29 e5       	ldi	r18, 0x59	; 89
    3cc6:	37 e7       	ldi	r19, 0x77	; 119
    3cc8:	20 93 26 39 	sts	0x3926, r18	; 0x803926 <reactStr+0x8>
    3ccc:	30 93 27 39 	sts	0x3927, r19	; 0x803927 <reactStr+0x9>
    reactStr[1][number]=length;
    3cd0:	2d e3       	ldi	r18, 0x3D	; 61
    3cd2:	30 e0       	ldi	r19, 0x00	; 0
    3cd4:	20 93 66 39 	sts	0x3966, r18	; 0x803966 <reactStr+0x48>
    3cd8:	30 93 67 39 	sts	0x3967, r19	; 0x803967 <reactStr+0x49>
    reactStr[2][number]=type;
    3cdc:	80 93 a6 39 	sts	0x39A6, r24	; 0x8039a6 <reactStr+0x88>
    3ce0:	90 93 a7 39 	sts	0x39A7, r25	; 0x8039a7 <reactStr+0x89>
                            PopulateObject(inventory[x], &actObj1);
                            SetResponse(elements++, A_DROPPING, L_DROPPING, TEASER);
                            SetResponse(elements++, actObj1.addrStr[NAME], actObj1.lenStr[NAME], GAME);
                            SetResponse(elements++, A_LF, 2, TEASER);
                            SetResponse(elements++, A_RETURNING, L_RETURNING, TEASER);
                            inventory[x] = 0;
    3ce4:	f8 01       	movw	r30, r16
    3ce6:	10 82       	st	Z, r1
    3ce8:	11 82       	std	Z+1, r1	; 0x01
                        if (CheckLetter(inventory[x], data[1])) {
                            PopulateObject(inventory[x], &actObj1);
                            SetResponse(elements++, A_DROPPING, L_DROPPING, TEASER);
                            SetResponse(elements++, actObj1.addrStr[NAME], actObj1.lenStr[NAME], GAME);
                            SetResponse(elements++, A_LF, 2, TEASER);
                            SetResponse(elements++, A_RETURNING, L_RETURNING, TEASER);
    3cea:	15 e0       	ldi	r17, 0x05	; 5
                            inventory[x] = 0;
                            break;
    3cec:	86 cf       	rjmp	.-244    	; 0x3bfa <ProcessInput+0xef0>
                SetResponse(elements++, A_EMPTYHANDS, L_EMPTYHANDS, TEASER);
            } else if (inputLen != 2) {
                SetResponse(elements++, A_NOTPOSSIBLE, L_NOTPOSSIBLE, TEASER);
            } else {
                for (uint8_t x=0; x<2; ++x) {
                    if (inventory[x]) {
    3cee:	80 91 42 38 	lds	r24, 0x3842	; 0x803842 <inventory+0x2>
    3cf2:	90 91 43 38 	lds	r25, 0x3843	; 0x803843 <inventory+0x3>
    3cf6:	00 97       	sbiw	r24, 0x00	; 0
    3cf8:	49 f0       	breq	.+18     	; 0x3d0c <ProcessInput+0x1002>
                        if (CheckLetter(inventory[x], data[1])) {
    3cfa:	f3 01       	movw	r30, r6
    3cfc:	61 81       	ldd	r22, Z+1	; 0x01
    3cfe:	0e 94 69 12 	call	0x24d2	; 0x24d2 <CheckLetter>
    3d02:	88 23       	and	r24, r24
    3d04:	19 f0       	breq	.+6      	; 0x3d0c <ProcessInput+0x1002>
                SetResponse(elements++, A_EMPTYHANDS, L_EMPTYHANDS, TEASER);
            } else if (inputLen != 2) {
                SetResponse(elements++, A_NOTPOSSIBLE, L_NOTPOSSIBLE, TEASER);
            } else {
                for (uint8_t x=0; x<2; ++x) {
                    if (inventory[x]) {
    3d06:	01 e0       	ldi	r16, 0x01	; 1
    3d08:	10 e0       	ldi	r17, 0x00	; 0
    3d0a:	9b cf       	rjmp	.-202    	; 0x3c42 <ProcessInput+0xf38>
    return 0;
}

//
void SetResponse(uint8_t number, uint16_t address, uint16_t length, uint8_t type){
    reactStr[0][number]=address;
    3d0c:	81 e6       	ldi	r24, 0x61	; 97
    3d0e:	99 e7       	ldi	r25, 0x79	; 121
    3d10:	80 93 20 39 	sts	0x3920, r24	; 0x803920 <reactStr+0x2>
    3d14:	90 93 21 39 	sts	0x3921, r25	; 0x803921 <reactStr+0x3>
    reactStr[1][number]=length;
    3d18:	81 e2       	ldi	r24, 0x21	; 33
    3d1a:	90 e0       	ldi	r25, 0x00	; 0
    3d1c:	cb c8       	rjmp	.-3690   	; 0x2eb4 <ProcessInput+0x1aa>
    } else {

        responseList = SetStandardResponse(1);
    }

    data[0] = 0;
    3d1e:	f3 01       	movw	r30, r6
    3d20:	10 82       	st	Z, r1
    serRxDone = 0;
    3d22:	10 92 46 38 	sts	0x3846, r1	; 0x803846 <serRxDone>
    RXCNT = 0;    
    3d26:	1d ba       	out	0x1d, r1	; 29
    return 0;
}
    3d28:	80 e0       	ldi	r24, 0x00	; 0
    3d2a:	28 96       	adiw	r28, 0x08	; 8
    3d2c:	cd bf       	out	0x3d, r28	; 61
    3d2e:	de bf       	out	0x3e, r29	; 62
    3d30:	df 91       	pop	r29
    3d32:	cf 91       	pop	r28
    3d34:	1f 91       	pop	r17
    3d36:	0f 91       	pop	r16
    3d38:	ff 90       	pop	r15
    3d3a:	ef 90       	pop	r14
    3d3c:	df 90       	pop	r13
    3d3e:	cf 90       	pop	r12
    3d40:	bf 90       	pop	r11
    3d42:	af 90       	pop	r10
    3d44:	9f 90       	pop	r9
    3d46:	8f 90       	pop	r8
    3d48:	7f 90       	pop	r7
    3d4a:	6f 90       	pop	r6
    3d4c:	08 95       	ret

00003d4e <TextAdventure>:


//MAIN GAME STRUCTURE
uint8_t TextAdventure(){
    3d4e:	cf 93       	push	r28
    static uint8_t serInput[RXLEN];
    uint16_t PunishmentCount;
    
    /* Count down PunishmentTime on WING LEDs */
    if (PunishmentTime != 0) {
    3d50:	80 91 0a 39 	lds	r24, 0x390A	; 0x80390a <PunishmentTime>
    3d54:	90 91 0b 39 	lds	r25, 0x390B	; 0x80390b <PunishmentTime+0x1>
    3d58:	89 2b       	or	r24, r25
    3d5a:	09 f1       	breq	.+66     	; 0x3d9e <TextAdventure+0x50>
        PunishmentCount = getClock();
    3d5c:	0e 94 0f 0e 	call	0x1c1e	; 0x1c1e <getClock>
        if (PunishmentCount < PunishmentTime)
    3d60:	20 91 0a 39 	lds	r18, 0x390A	; 0x80390a <PunishmentTime>
    3d64:	30 91 0b 39 	lds	r19, 0x390B	; 0x80390b <PunishmentTime+0x1>
    3d68:	82 17       	cp	r24, r18
    3d6a:	93 07       	cpc	r25, r19
    3d6c:	08 f4       	brcc	.+2      	; 0x3d70 <TextAdventure+0x22>
            PunishmentCount += 256 * 60;
    3d6e:	94 5c       	subi	r25, 0xC4	; 196
        PunishmentCount -= PunishmentTime;
    3d70:	ac 01       	movw	r20, r24
    3d72:	42 1b       	sub	r20, r18
    3d74:	53 0b       	sbc	r21, r19
    3d76:	9a 01       	movw	r18, r20
        if (PunishmentCount > 10) {
    3d78:	4b 30       	cpi	r20, 0x0B	; 11
    3d7a:	51 05       	cpc	r21, r1
    3d7c:	30 f0       	brcs	.+12     	; 0x3d8a <TextAdventure+0x3c>
            PunishmentTime = 0;
    3d7e:	10 92 0a 39 	sts	0x390A, r1	; 0x80390a <PunishmentTime>
    3d82:	10 92 0b 39 	sts	0x390B, r1	; 0x80390b <PunishmentTime+0x1>
            PunishmentCount = 10;
    3d86:	2a e0       	ldi	r18, 0x0A	; 10
    3d88:	30 e0       	ldi	r19, 0x00	; 0
        }
        if (gameNow == TEXT ) {
    3d8a:	80 91 3e 38 	lds	r24, 0x383E	; 0x80383e <gameNow>
    3d8e:	81 11       	cpse	r24, r1
    3d90:	06 c0       	rjmp	.+12     	; 0x3d9e <TextAdventure+0x50>
            WingBar(10-PunishmentCount,5-PunishmentCount);
    3d92:	65 e0       	ldi	r22, 0x05	; 5
    3d94:	62 1b       	sub	r22, r18
    3d96:	8a e0       	ldi	r24, 0x0A	; 10
    3d98:	82 1b       	sub	r24, r18
    3d9a:	0e 94 e6 0a 	call	0x15cc	; 0x15cc <WingBar>
        }
    }

    //Still sending data to serial?
    if (CheckSend()) return 1;
    3d9e:	0e 94 4e 13 	call	0x269c	; 0x269c <CheckSend>
    3da2:	88 23       	and	r24, r24
    3da4:	11 f0       	breq	.+4      	; 0x3daa <TextAdventure+0x5c>
    3da6:	c1 e0       	ldi	r28, 0x01	; 1
    3da8:	18 c0       	rjmp	.+48     	; 0x3dda <TextAdventure+0x8c>

    //Not sending? Process next response part to send, if any.
    if (CheckResponse()) return 1;        
    3daa:	0e 94 a4 13 	call	0x2748	; 0x2748 <CheckResponse>
    3dae:	c8 2f       	mov	r28, r24
    3db0:	81 11       	cpse	r24, r1
    3db2:	f9 cf       	rjmp	.-14     	; 0x3da6 <TextAdventure+0x58>

    if (PunishmentTime == 0) {
    3db4:	80 91 0a 39 	lds	r24, 0x390A	; 0x80390a <PunishmentTime>
    3db8:	90 91 0b 39 	lds	r25, 0x390B	; 0x80390b <PunishmentTime+0x1>
    3dbc:	89 2b       	or	r24, r25
    3dbe:	69 f4       	brne	.+26     	; 0x3dda <TextAdventure+0x8c>
        //No responses to send, check if there is user input.
        if (CheckInput(&serInput[0])) return 2; 
    3dc0:	81 e7       	ldi	r24, 0x71	; 113
    3dc2:	98 e3       	ldi	r25, 0x38	; 56
    3dc4:	0e 94 e4 13 	call	0x27c8	; 0x27c8 <CheckInput>
    3dc8:	c8 2f       	mov	r28, r24
    3dca:	81 11       	cpse	r24, r1
    3dcc:	05 c0       	rjmp	.+10     	; 0x3dd8 <TextAdventure+0x8a>

        //Input found, process and save (changes only)
        ProcessInput(&serInput[0]);
    3dce:	81 e7       	ldi	r24, 0x71	; 113
    3dd0:	98 e3       	ldi	r25, 0x38	; 56
    3dd2:	0e 94 85 16 	call	0x2d0a	; 0x2d0a <ProcessInput>
    3dd6:	01 c0       	rjmp	.+2      	; 0x3dda <TextAdventure+0x8c>
    //Not sending? Process next response part to send, if any.
    if (CheckResponse()) return 1;        

    if (PunishmentTime == 0) {
        //No responses to send, check if there is user input.
        if (CheckInput(&serInput[0])) return 2; 
    3dd8:	c2 e0       	ldi	r28, 0x02	; 2
        //Input found, process and save (changes only)
        ProcessInput(&serInput[0]);
    }

    return 0;
}
    3dda:	8c 2f       	mov	r24, r28
    3ddc:	cf 91       	pop	r28
    3dde:	08 95       	ret

00003de0 <main>:


//This is where it begins, inits first and main program in while(1) loop.
int main(void)
{
    Setup();
    3de0:	0e 94 c0 04 	call	0x980	; 0x980 <Setup>
    LoadGameState();
    3de4:	0e 94 54 0a 	call	0x14a8	; 0x14a8 <LoadGameState>
    SelfTest();
    3de8:	0e 94 36 0e 	call	0x1c6c	; 0x1c6c <SelfTest>
            if (adcPhot < 10) UpdateState(116);
            if (adcPhot > 100) UpdateState(128+116);

            dimValueSum -= (dimValueSum>>6);
            dimValueSum += 256;
            dimValueSum -= QSINE[31-(adcPhot>>7)];
    3dec:	cf e1       	ldi	r28, 0x1F	; 31
    3dee:	d0 e0       	ldi	r29, 0x00	; 0
    Setup();
    LoadGameState();
    SelfTest();

    while (TRUE) {
        if (GenerateAudio()) {
    3df0:	0e 94 98 0c 	call	0x1930	; 0x1930 <GenerateAudio>
    3df4:	88 23       	and	r24, r24
    3df6:	e1 f3       	breq	.-8      	; 0x3df0 <main+0x10>
            lastButtonState = buttonState;
    3df8:	80 91 08 38 	lds	r24, 0x3808	; 0x803808 <buttonState>
    3dfc:	80 93 07 38 	sts	0x3807, r24	; 0x803807 <lastButtonState>
            buttonState = CheckButtons();
    3e00:	0e 94 bc 08 	call	0x1178	; 0x1178 <CheckButtons>
    3e04:	80 93 08 38 	sts	0x3808, r24	; 0x803808 <buttonState>
            buttonMark = 0;
    3e08:	10 92 44 38 	sts	0x3844, r1	; 0x803844 <buttonMark>

            if (VREF_CTRLA == 0x12) SelectAuIn(); else SelectTSens();
    3e0c:	80 91 a0 00 	lds	r24, 0x00A0	; 0x8000a0 <__TEXT_REGION_LENGTH__+0x7000a0>
    3e10:	82 31       	cpi	r24, 0x12	; 18
    3e12:	19 f4       	brne	.+6      	; 0x3e1a <main+0x3a>
    3e14:	0e 94 ad 08 	call	0x115a	; 0x115a <SelectAuIn>
    3e18:	02 c0       	rjmp	.+4      	; 0x3e1e <main+0x3e>
    3e1a:	0e 94 9e 08 	call	0x113c	; 0x113c <SelectTSens>

            GenerateBlinks();
    3e1e:	0e 94 3b 0b 	call	0x1676	; 0x1676 <GenerateBlinks>

            //Main game, to complete: Finish sub-game MagnetMaze and MakeFriends too.
            TextAdventure();
    3e22:	95 df       	rcall	.-214    	; 0x3d4e <TextAdventure>

            //Other games & user interaction checks
            MagnetMaze();
    3e24:	0e 94 c3 03 	call	0x786	; 0x786 <MagnetMaze>
            LanyardCode();
    3e28:	0e 94 cd 02 	call	0x59a	; 0x59a <LanyardCode>
            BastetDictates();
    3e2c:	0e 94 4a 0f 	call	0x1e94	; 0x1e94 <BastetDictates>
            MakeFriends();
    3e30:	0e 94 7d 00 	call	0xfa	; 0xfa <MakeFriends>

            //Save progress
            SaveGameState();
    3e34:	0e 94 6d 09 	call	0x12da	; 0x12da <SaveGameState>

            //Check light sensor status (added hysteresis to preserve writing cycles to internal EEPROM)
            if (adcPhot < 10) UpdateState(116);
    3e38:	80 91 c0 3a 	lds	r24, 0x3AC0	; 0x803ac0 <adcPhot>
    3e3c:	90 91 c1 3a 	lds	r25, 0x3AC1	; 0x803ac1 <adcPhot+0x1>
    3e40:	0a 97       	sbiw	r24, 0x0a	; 10
    3e42:	18 f4       	brcc	.+6      	; 0x3e4a <main+0x6a>
    3e44:	84 e7       	ldi	r24, 0x74	; 116
    3e46:	0e 94 f4 09 	call	0x13e8	; 0x13e8 <UpdateState>
            if (adcPhot > 100) UpdateState(128+116);
    3e4a:	80 91 c0 3a 	lds	r24, 0x3AC0	; 0x803ac0 <adcPhot>
    3e4e:	90 91 c1 3a 	lds	r25, 0x3AC1	; 0x803ac1 <adcPhot+0x1>
    3e52:	85 36       	cpi	r24, 0x65	; 101
    3e54:	91 05       	cpc	r25, r1
    3e56:	18 f0       	brcs	.+6      	; 0x3e5e <main+0x7e>
    3e58:	84 ef       	ldi	r24, 0xF4	; 244
    3e5a:	0e 94 f4 09 	call	0x13e8	; 0x13e8 <UpdateState>

            dimValueSum -= (dimValueSum>>6);
    3e5e:	20 91 0a 38 	lds	r18, 0x380A	; 0x80380a <dimValueSum>
    3e62:	30 91 0b 38 	lds	r19, 0x380B	; 0x80380b <dimValueSum+0x1>
    3e66:	80 91 0a 38 	lds	r24, 0x380A	; 0x80380a <dimValueSum>
    3e6a:	90 91 0b 38 	lds	r25, 0x380B	; 0x80380b <dimValueSum+0x1>
    3e6e:	46 e0       	ldi	r20, 0x06	; 6
    3e70:	36 95       	lsr	r19
    3e72:	27 95       	ror	r18
    3e74:	4a 95       	dec	r20
    3e76:	e1 f7       	brne	.-8      	; 0x3e70 <main+0x90>
    3e78:	82 1b       	sub	r24, r18
    3e7a:	93 0b       	sbc	r25, r19
    3e7c:	80 93 0a 38 	sts	0x380A, r24	; 0x80380a <dimValueSum>
    3e80:	90 93 0b 38 	sts	0x380B, r25	; 0x80380b <dimValueSum+0x1>
            dimValueSum += 256;
    3e84:	80 91 0a 38 	lds	r24, 0x380A	; 0x80380a <dimValueSum>
    3e88:	90 91 0b 38 	lds	r25, 0x380B	; 0x80380b <dimValueSum+0x1>
    3e8c:	93 95       	inc	r25
    3e8e:	80 93 0a 38 	sts	0x380A, r24	; 0x80380a <dimValueSum>
    3e92:	90 93 0b 38 	sts	0x380B, r25	; 0x80380b <dimValueSum+0x1>
            dimValueSum -= QSINE[31-(adcPhot>>7)];
    3e96:	20 91 c0 3a 	lds	r18, 0x3AC0	; 0x803ac0 <adcPhot>
    3e9a:	30 91 c1 3a 	lds	r19, 0x3AC1	; 0x803ac1 <adcPhot+0x1>
    3e9e:	80 91 0a 38 	lds	r24, 0x380A	; 0x80380a <dimValueSum>
    3ea2:	90 91 0b 38 	lds	r25, 0x380B	; 0x80380b <dimValueSum+0x1>
    3ea6:	22 0f       	add	r18, r18
    3ea8:	23 2f       	mov	r18, r19
    3eaa:	22 1f       	adc	r18, r18
    3eac:	33 0b       	sbc	r19, r19
    3eae:	31 95       	neg	r19
    3eb0:	fe 01       	movw	r30, r28
    3eb2:	e2 1b       	sub	r30, r18
    3eb4:	f3 0b       	sbc	r31, r19
    3eb6:	e6 5c       	subi	r30, 0xC6	; 198
    3eb8:	f0 44       	sbci	r31, 0x40	; 64
    3eba:	20 81       	ld	r18, Z
    3ebc:	82 1b       	sub	r24, r18
    3ebe:	91 09       	sbc	r25, r1
    3ec0:	80 93 0a 38 	sts	0x380A, r24	; 0x80380a <dimValueSum>
    3ec4:	90 93 0b 38 	sts	0x380B, r25	; 0x80380b <dimValueSum+0x1>
            dimValue     = dimValueSum>>6;
    3ec8:	80 91 0a 38 	lds	r24, 0x380A	; 0x80380a <dimValueSum>
    3ecc:	90 91 0b 38 	lds	r25, 0x380B	; 0x80380b <dimValueSum+0x1>
    3ed0:	66 e0       	ldi	r22, 0x06	; 6
    3ed2:	96 95       	lsr	r25
    3ed4:	87 95       	ror	r24
    3ed6:	6a 95       	dec	r22
    3ed8:	e1 f7       	brne	.-8      	; 0x3ed2 <main+0xf2>
    3eda:	80 93 0c 38 	sts	0x380C, r24	; 0x80380c <dimValue>

            //Check temperature
            HotSummer();
    3ede:	0e 94 81 0a 	call	0x1502	; 0x1502 <HotSummer>
    3ee2:	86 cf       	rjmp	.-244    	; 0x3df0 <main+0x10>

00003ee4 <__tablejump2__>:
    3ee4:	ee 0f       	add	r30, r30
    3ee6:	ff 1f       	adc	r31, r31
    3ee8:	05 90       	lpm	r0, Z+
    3eea:	f4 91       	lpm	r31, Z
    3eec:	e0 2d       	mov	r30, r0
    3eee:	09 94       	ijmp

00003ef0 <_exit>:
    3ef0:	f8 94       	cli

00003ef2 <__stop_program>:
    3ef2:	ff cf       	rjmp	.-2      	; 0x3ef2 <__stop_program>
