
ISR_IO.elf:     file format elf32-avr

Sections:
Idx Name          Size      VMA       LMA       File off  Algn
  0 .data         00000036  00803800  00003ff2  000040a6  2**0
                  CONTENTS, ALLOC, LOAD, DATA
  1 .text         00003f36  00000000  00000000  000000b4  2**1
                  CONTENTS, ALLOC, LOAD, READONLY, CODE
  2 .rodata       000000bc  0000bf36  00003f36  00003fea  2**0
                  CONTENTS, ALLOC, LOAD, READONLY, DATA
  3 .bss          000002e2  00803836  00803836  000040dc  2**0
                  ALLOC
  4 .comment      00000030  00000000  00000000  000040dc  2**0
                  CONTENTS, READONLY
  5 .note.gnu.avr.deviceinfo 00000040  00000000  00000000  0000410c  2**2
                  CONTENTS, READONLY
  6 .debug_aranges 00000338  00000000  00000000  0000414c  2**0
                  CONTENTS, READONLY, DEBUGGING
  7 .debug_info   00006c6b  00000000  00000000  00004484  2**0
                  CONTENTS, READONLY, DEBUGGING
  8 .debug_abbrev 0000286e  00000000  00000000  0000b0ef  2**0
                  CONTENTS, READONLY, DEBUGGING
  9 .debug_line   00003dcb  00000000  00000000  0000d95d  2**0
                  CONTENTS, READONLY, DEBUGGING
 10 .debug_frame  000009f8  00000000  00000000  00011728  2**2
                  CONTENTS, READONLY, DEBUGGING
 11 .debug_str    00001a86  00000000  00000000  00012120  2**0
                  CONTENTS, READONLY, DEBUGGING
 12 .debug_loc    00004190  00000000  00000000  00013ba6  2**0
                  CONTENTS, READONLY, DEBUGGING
 13 .debug_ranges 000003a8  00000000  00000000  00017d36  2**0
                  CONTENTS, READONLY, DEBUGGING

Disassembly of section .text:

00000000 <__vectors>:
       0:	46 c0       	rjmp	.+140    	; 0x8e <__ctors_end>
       2:	00 00       	nop
       4:	61 c0       	rjmp	.+194    	; 0xc8 <__bad_interrupt>
       6:	00 00       	nop
       8:	5f c0       	rjmp	.+190    	; 0xc8 <__bad_interrupt>
       a:	00 00       	nop
       c:	5d c0       	rjmp	.+186    	; 0xc8 <__bad_interrupt>
       e:	00 00       	nop
      10:	5b c0       	rjmp	.+182    	; 0xc8 <__bad_interrupt>
      12:	00 00       	nop
      14:	59 c0       	rjmp	.+178    	; 0xc8 <__bad_interrupt>
      16:	00 00       	nop
      18:	83 c7       	rjmp	.+3846   	; 0xf20 <__vector_6>
      1a:	00 00       	nop
      1c:	d8 c7       	rjmp	.+4016   	; 0xfce <__vector_7>
      1e:	00 00       	nop
      20:	c0 c5       	rjmp	.+2944   	; 0xba2 <__vector_8>
      22:	00 00       	nop
      24:	51 c0       	rjmp	.+162    	; 0xc8 <__bad_interrupt>
      26:	00 00       	nop
      28:	4f c0       	rjmp	.+158    	; 0xc8 <__bad_interrupt>
      2a:	00 00       	nop
      2c:	4d c0       	rjmp	.+154    	; 0xc8 <__bad_interrupt>
      2e:	00 00       	nop
      30:	4b c0       	rjmp	.+150    	; 0xc8 <__bad_interrupt>
      32:	00 00       	nop
      34:	07 c6       	rjmp	.+3086   	; 0xc44 <__vector_13>
      36:	00 00       	nop
      38:	38 c6       	rjmp	.+3184   	; 0xcaa <__vector_14>
      3a:	00 00       	nop
      3c:	45 c0       	rjmp	.+138    	; 0xc8 <__bad_interrupt>
      3e:	00 00       	nop
      40:	43 c0       	rjmp	.+134    	; 0xc8 <__bad_interrupt>
      42:	00 00       	nop
      44:	41 c0       	rjmp	.+130    	; 0xc8 <__bad_interrupt>
      46:	00 00       	nop
      48:	3f c0       	rjmp	.+126    	; 0xc8 <__bad_interrupt>
      4a:	00 00       	nop
      4c:	3d c0       	rjmp	.+122    	; 0xc8 <__bad_interrupt>
      4e:	00 00       	nop
      50:	f3 c6       	rjmp	.+3558   	; 0xe38 <__vector_20>
      52:	00 00       	nop
      54:	39 c0       	rjmp	.+114    	; 0xc8 <__bad_interrupt>
      56:	00 00       	nop
      58:	1b c7       	rjmp	.+3638   	; 0xe90 <__vector_22>
      5a:	00 00       	nop
      5c:	35 c0       	rjmp	.+106    	; 0xc8 <__bad_interrupt>
      5e:	00 00       	nop
      60:	33 c0       	rjmp	.+102    	; 0xc8 <__bad_interrupt>
      62:	00 00       	nop
      64:	31 c0       	rjmp	.+98     	; 0xc8 <__bad_interrupt>
      66:	00 00       	nop
      68:	2f c0       	rjmp	.+94     	; 0xc8 <__bad_interrupt>
      6a:	00 00       	nop
      6c:	6e c6       	rjmp	.+3292   	; 0xd4a <__vector_27>
      6e:	00 00       	nop
      70:	c7 c6       	rjmp	.+3470   	; 0xe00 <__vector_28>
      72:	00 00       	nop
      74:	29 c0       	rjmp	.+82     	; 0xc8 <__bad_interrupt>
      76:	00 00       	nop
      78:	27 c0       	rjmp	.+78     	; 0xc8 <__bad_interrupt>
      7a:	00 00       	nop
      7c:	ad 0b       	sbc	r26, r29
      7e:	db 0b       	sbc	r29, r27
      80:	e2 0b       	sbc	r30, r18
      82:	ab 0c       	add	r10, r11
      84:	ab 0c       	add	r10, r11
      86:	f8 0b       	sbc	r31, r24
      88:	0c 0c       	add	r0, r12
      8a:	4a 0c       	add	r4, r10
      8c:	71 0c       	add	r7, r1

0000008e <__ctors_end>:
      8e:	11 24       	eor	r1, r1
      90:	1f be       	out	0x3f, r1	; 63
      92:	cf ef       	ldi	r28, 0xFF	; 255
      94:	cd bf       	out	0x3d, r28	; 61
      96:	df e3       	ldi	r29, 0x3F	; 63
      98:	de bf       	out	0x3e, r29	; 62

0000009a <__do_copy_data>:
      9a:	18 e3       	ldi	r17, 0x38	; 56
      9c:	a0 e0       	ldi	r26, 0x00	; 0
      9e:	b8 e3       	ldi	r27, 0x38	; 56
      a0:	e2 ef       	ldi	r30, 0xF2	; 242
      a2:	ff e3       	ldi	r31, 0x3F	; 63
      a4:	02 c0       	rjmp	.+4      	; 0xaa <__do_copy_data+0x10>
      a6:	05 90       	lpm	r0, Z+
      a8:	0d 92       	st	X+, r0
      aa:	a6 33       	cpi	r26, 0x36	; 54
      ac:	b1 07       	cpc	r27, r17
      ae:	d9 f7       	brne	.-10     	; 0xa6 <__do_copy_data+0xc>

000000b0 <__do_clear_bss>:
      b0:	2b e3       	ldi	r18, 0x3B	; 59
      b2:	a6 e3       	ldi	r26, 0x36	; 54
      b4:	b8 e3       	ldi	r27, 0x38	; 56
      b6:	01 c0       	rjmp	.+2      	; 0xba <.do_clear_bss_start>

000000b8 <.do_clear_bss_loop>:
      b8:	1d 92       	st	X+, r1

000000ba <.do_clear_bss_start>:
      ba:	a8 31       	cpi	r26, 0x18	; 24
      bc:	b2 07       	cpc	r27, r18
      be:	e1 f7       	brne	.-8      	; 0xb8 <.do_clear_bss_loop>
      c0:	0e 94 0c 1f 	call	0x3e18	; 0x3e18 <main>
      c4:	0c 94 99 1f 	jmp	0x3f32	; 0x3f32 <_exit>

000000c8 <__bad_interrupt>:
      c8:	9b cf       	rjmp	.-202    	; 0x0 <__vectors>

000000ca <chkVolt250>:
#include <main_def.h>
#include <resources.h>
#include <I2C.h>

//Returns measured voltage * 4 (2V returns 8) if it is in the expected range (DELTA)
uint8_t chkVolt250(){
      ca:	28 ed       	ldi	r18, 0xD8	; 216
      cc:	30 e0       	ldi	r19, 0x00	; 0
    uint8_t avgVolt = 9;
      ce:	89 e0       	ldi	r24, 0x09	; 9
        
    for (uint8_t x=225; x>24; x-=25) {
        if ((auIn > (x-DELTA)) && (auIn < (x+DELTA))) {
      d0:	40 91 c8 3a 	lds	r20, 0x3AC8	; 0x803ac8 <auIn>
      d4:	50 e0       	ldi	r21, 0x00	; 0
      d6:	42 17       	cp	r20, r18
      d8:	53 07       	cpc	r21, r19
      da:	4c f0       	brlt	.+18     	; 0xee <chkVolt250+0x24>
      dc:	40 91 c8 3a 	lds	r20, 0x3AC8	; 0x803ac8 <auIn>
      e0:	50 e0       	ldi	r21, 0x00	; 0
      e2:	b9 01       	movw	r22, r18
      e4:	6e 5e       	subi	r22, 0xEE	; 238
      e6:	7f 4f       	sbci	r23, 0xFF	; 255
      e8:	64 17       	cp	r22, r20
      ea:	75 07       	cpc	r23, r21
      ec:	2c f4       	brge	.+10     	; 0xf8 <chkVolt250+0x2e>
            break;
        }
        --avgVolt;
      ee:	81 50       	subi	r24, 0x01	; 1
      f0:	29 51       	subi	r18, 0x19	; 25
      f2:	31 09       	sbc	r19, r1

//Returns measured voltage * 4 (2V returns 8) if it is in the expected range (DELTA)
uint8_t chkVolt250(){
    uint8_t avgVolt = 9;
        
    for (uint8_t x=225; x>24; x-=25) {
      f4:	81 11       	cpse	r24, r1
      f6:	ec cf       	rjmp	.-40     	; 0xd0 <chkVolt250+0x6>
            break;
        }
        --avgVolt;
    }
    return avgVolt;
}
      f8:	08 95       	ret

000000fa <MakeFriends>:

// Main game loop
uint8_t MakeFriends(){
      fa:	cf 93       	push	r28
      fc:	df 93       	push	r29
    static uint8_t setDAC[2] = {255, 0};
    static uint8_t chkTmr = 0;
    static uint8_t jackIn = 0;
    static uint8_t candidate = 0;

    ++chkTmr;
      fe:	80 91 39 38 	lds	r24, 0x3839	; 0x803839 <chkTmr.3790>
     102:	8f 5f       	subi	r24, 0xFF	; 255
     104:	80 93 39 38 	sts	0x3839, r24	; 0x803839 <chkTmr.3790>
     108:	c4 e6       	ldi	r28, 0x64	; 100

    //Check if badge has found 3 friends
    uint8_t foundAll = 1;
     10a:	d1 e0       	ldi	r29, 0x01	; 1
    for (uint8_t x=0; x<4; ++x){
        if (CheckState(100+x) == 0) foundAll = 0;
     10c:	8c 2f       	mov	r24, r28
     10e:	0e 94 15 0a 	call	0x142a	; 0x142a <CheckState>
     112:	81 11       	cpse	r24, r1
     114:	01 c0       	rjmp	.+2      	; 0x118 <MakeFriends+0x1e>
     116:	d0 e0       	ldi	r29, 0x00	; 0
     118:	cf 5f       	subi	r28, 0xFF	; 255

    ++chkTmr;

    //Check if badge has found 3 friends
    uint8_t foundAll = 1;
    for (uint8_t x=0; x<4; ++x){
     11a:	c8 36       	cpi	r28, 0x68	; 104
     11c:	b9 f7       	brne	.-18     	; 0x10c <MakeFriends+0x12>
        if (CheckState(100+x) == 0) foundAll = 0;
    }
    if (foundAll) UpdateState(124);
     11e:	dd 23       	and	r29, r29
     120:	19 f0       	breq	.+6      	; 0x128 <MakeFriends+0x2e>
     122:	8c e7       	ldi	r24, 0x7C	; 124
     124:	0e 94 f4 09 	call	0x13e8	; 0x13e8 <UpdateState>

    //Set game state, must be able to hijack from other games.
    if (progress > FIRST_CONTACT) { 
     128:	80 91 38 38 	lds	r24, 0x3838	; 0x803838 <progress.3788>
     12c:	82 30       	cpi	r24, 0x02	; 2
     12e:	20 f0       	brcs	.+8      	; 0x138 <MakeFriends+0x3e>
        gameNow = FRIENDS; 
     130:	94 e0       	ldi	r25, 0x04	; 4
     132:	90 93 42 38 	sts	0x3842, r25	; 0x803842 <gameNow>
     136:	0d c0       	rjmp	.+26     	; 0x152 <MakeFriends+0x58>
    }
    
    //Clear game state if not communicating properly or headphones detected
    if (((progress == NO_OTHER) || detHdPh) && (gameNow == FRIENDS)) {
     138:	81 11       	cpse	r24, r1
     13a:	0b c0       	rjmp	.+22     	; 0x152 <MakeFriends+0x58>
     13c:	90 91 42 38 	lds	r25, 0x3842	; 0x803842 <gameNow>
     140:	94 30       	cpi	r25, 0x04	; 4
     142:	61 f4       	brne	.+24     	; 0x15c <MakeFriends+0x62>
        gameNow = TEXT; 
     144:	10 92 42 38 	sts	0x3842, r1	; 0x803842 <gameNow>
        effect = 0;
     148:	10 92 40 38 	sts	0x3840, r1	; 0x803840 <effect>
     14c:	10 92 41 38 	sts	0x3841, r1	; 0x803841 <effect+0x1>
     150:	05 c0       	rjmp	.+10     	; 0x15c <MakeFriends+0x62>
    if (progress > FIRST_CONTACT) { 
        gameNow = FRIENDS; 
    }
    
    //Clear game state if not communicating properly or headphones detected
    if (((progress == NO_OTHER) || detHdPh) && (gameNow == FRIENDS)) {
     152:	90 91 c5 3a 	lds	r25, 0x3AC5	; 0x803ac5 <detHdPh>
     156:	91 11       	cpse	r25, r1
     158:	f1 cf       	rjmp	.-30     	; 0x13c <MakeFriends+0x42>
     15a:	18 c0       	rjmp	.+48     	; 0x18c <MakeFriends+0x92>
        gameNow = TEXT; 
        effect = 0;
    }

    //Audio off, set voltage level (setDAC[0]*10mV)
    if ((progress == NO_OTHER) && (detHdPh == 0)) {
     15c:	81 11       	cpse	r24, r1
     15e:	16 c0       	rjmp	.+44     	; 0x18c <MakeFriends+0x92>
     160:	90 91 c5 3a 	lds	r25, 0x3AC5	; 0x803ac5 <detHdPh>
     164:	91 11       	cpse	r25, r1
     166:	12 c0       	rjmp	.+36     	; 0x18c <MakeFriends+0x92>
        setDAC[0] = whoami * 51;
     168:	80 91 43 38 	lds	r24, 0x3843	; 0x803843 <whoami>
     16c:	93 e3       	ldi	r25, 0x33	; 51
     16e:	89 9f       	mul	r24, r25
     170:	80 2d       	mov	r24, r0
     172:	11 24       	eor	r1, r1
     174:	80 93 00 38 	sts	0x3800, r24	; 0x803800 <__data_start>
        auRepAddr = &setDAC[0];
     178:	80 e0       	ldi	r24, 0x00	; 0
     17a:	98 e3       	ldi	r25, 0x38	; 56
     17c:	80 93 03 38 	sts	0x3803, r24	; 0x803803 <auRepAddr>
     180:	90 93 04 38 	sts	0x3804, r25	; 0x803804 <auRepAddr+0x1>
        auVolume = 255;
     184:	8f ef       	ldi	r24, 0xFF	; 255
     186:	80 93 bc 3a 	sts	0x3ABC, r24	; 0x803abc <auVolume>
     18a:	09 c0       	rjmp	.+18     	; 0x19e <MakeFriends+0xa4>
    } else {
        if (progress & NEXT){
     18c:	98 2f       	mov	r25, r24
     18e:	90 7f       	andi	r25, 0xF0	; 240
     190:	31 f0       	breq	.+12     	; 0x19e <MakeFriends+0xa4>
            progress++;
            progress&=0x0f;
     192:	8f 5f       	subi	r24, 0xFF	; 255
     194:	8f 70       	andi	r24, 0x0F	; 15
     196:	80 93 38 38 	sts	0x3838, r24	; 0x803838 <progress.3788>
            chkTmr = 0;
     19a:	10 92 39 38 	sts	0x3839, r1	; 0x803839 <chkTmr.3790>
        }
    }

    //Check for other badges ()
    if ((auIn < (setDAC[0] - DELTA)) || (auIn > (setDAC[0] + DELTA)) || (progress > FIRST_CONTACT)) {
     19e:	40 91 c8 3a 	lds	r20, 0x3AC8	; 0x803ac8 <auIn>
     1a2:	20 91 00 38 	lds	r18, 0x3800	; 0x803800 <__data_start>
     1a6:	30 e0       	ldi	r19, 0x00	; 0
     1a8:	50 e0       	ldi	r21, 0x00	; 0
     1aa:	b9 01       	movw	r22, r18
     1ac:	6a 50       	subi	r22, 0x0A	; 10
     1ae:	71 09       	sbc	r23, r1
     1b0:	80 91 38 38 	lds	r24, 0x3838	; 0x803838 <progress.3788>
     1b4:	46 17       	cp	r20, r22
     1b6:	57 07       	cpc	r21, r23
     1b8:	5c f0       	brlt	.+22     	; 0x1d0 <MakeFriends+0xd6>
     1ba:	40 91 c8 3a 	lds	r20, 0x3AC8	; 0x803ac8 <auIn>
     1be:	50 e0       	ldi	r21, 0x00	; 0
     1c0:	26 5f       	subi	r18, 0xF6	; 246
     1c2:	3f 4f       	sbci	r19, 0xFF	; 255
     1c4:	24 17       	cp	r18, r20
     1c6:	35 07       	cpc	r19, r21
     1c8:	1c f0       	brlt	.+6      	; 0x1d0 <MakeFriends+0xd6>
     1ca:	82 30       	cpi	r24, 0x02	; 2
     1cc:	08 f4       	brcc	.+2      	; 0x1d0 <MakeFriends+0xd6>
     1ce:	43 c0       	rjmp	.+134    	; 0x256 <MakeFriends+0x15c>
        if ((progress == NO_OTHER) && (detHdPh == 0)) {
     1d0:	81 11       	cpse	r24, r1
     1d2:	0b c0       	rjmp	.+22     	; 0x1ea <MakeFriends+0xf0>
     1d4:	80 91 c5 3a 	lds	r24, 0x3AC5	; 0x803ac5 <detHdPh>
     1d8:	81 11       	cpse	r24, r1
     1da:	95 c0       	rjmp	.+298    	; 0x306 <MakeFriends+0x20c>
            if (chkTmr >= 8) {
     1dc:	80 91 39 38 	lds	r24, 0x3839	; 0x803839 <chkTmr.3790>
     1e0:	88 30       	cpi	r24, 0x08	; 8
     1e2:	08 f4       	brcc	.+2      	; 0x1e6 <MakeFriends+0xec>
     1e4:	90 c0       	rjmp	.+288    	; 0x306 <MakeFriends+0x20c>
                progress |= NEXT;
     1e6:	80 ef       	ldi	r24, 0xF0	; 240
     1e8:	63 c0       	rjmp	.+198    	; 0x2b0 <MakeFriends+0x1b6>
            }
        }

        //Candidate found, check ranges
        else if (progress == FIRST_CONTACT) {
     1ea:	81 30       	cpi	r24, 0x01	; 1
     1ec:	41 f5       	brne	.+80     	; 0x23e <MakeFriends+0x144>
            jackIn = chkVolt250();
     1ee:	6d df       	rcall	.-294    	; 0xca <chkVolt250>
     1f0:	80 93 37 38 	sts	0x3837, r24	; 0x803837 <jackIn.3791>
            if (jackIn) {
     1f4:	88 23       	and	r24, r24
     1f6:	79 f1       	breq	.+94     	; 0x256 <MakeFriends+0x15c>
                if (chkTmr >= SHORT_WAIT){
     1f8:	90 91 39 38 	lds	r25, 0x3839	; 0x803839 <chkTmr.3790>
     1fc:	98 30       	cpi	r25, 0x08	; 8
     1fe:	08 f4       	brcc	.+2      	; 0x202 <MakeFriends+0x108>
     200:	82 c0       	rjmp	.+260    	; 0x306 <MakeFriends+0x20c>
                    if (   ((whoami == 1)&&((jackIn >= 3)&&(jackIn <= 5))) 
     202:	90 91 43 38 	lds	r25, 0x3843	; 0x803843 <whoami>
     206:	91 30       	cpi	r25, 0x01	; 1
     208:	11 f4       	brne	.+4      	; 0x20e <MakeFriends+0x114>
     20a:	83 50       	subi	r24, 0x03	; 3
     20c:	14 c0       	rjmp	.+40     	; 0x236 <MakeFriends+0x13c>
                    || ((whoami == 2)&&((jackIn == 3)||(jackIn == 5)||(jackIn == 6)))  
     20e:	92 30       	cpi	r25, 0x02	; 2
     210:	31 f4       	brne	.+12     	; 0x21e <MakeFriends+0x124>
     212:	83 30       	cpi	r24, 0x03	; 3
     214:	91 f0       	breq	.+36     	; 0x23a <MakeFriends+0x140>
     216:	85 50       	subi	r24, 0x05	; 5
     218:	82 30       	cpi	r24, 0x02	; 2
     21a:	e8 f4       	brcc	.+58     	; 0x256 <MakeFriends+0x15c>
     21c:	0e c0       	rjmp	.+28     	; 0x23a <MakeFriends+0x140>
                    || ((whoami == 3)&&((jackIn == 4)||(jackIn == 5)||(jackIn == 7))) 
     21e:	93 30       	cpi	r25, 0x03	; 3
     220:	39 f4       	brne	.+14     	; 0x230 <MakeFriends+0x136>
     222:	9c ef       	ldi	r25, 0xFC	; 252
     224:	98 0f       	add	r25, r24
     226:	92 30       	cpi	r25, 0x02	; 2
     228:	40 f0       	brcs	.+16     	; 0x23a <MakeFriends+0x140>
     22a:	87 30       	cpi	r24, 0x07	; 7
     22c:	a1 f4       	brne	.+40     	; 0x256 <MakeFriends+0x15c>
     22e:	05 c0       	rjmp	.+10     	; 0x23a <MakeFriends+0x140>
                    || ((whoami == 4)&&((jackIn >= 5)&&(jackIn <= 7)))   ) {
     230:	94 30       	cpi	r25, 0x04	; 4
     232:	89 f4       	brne	.+34     	; 0x256 <MakeFriends+0x15c>
     234:	85 50       	subi	r24, 0x05	; 5
     236:	83 30       	cpi	r24, 0x03	; 3
     238:	70 f4       	brcc	.+28     	; 0x256 <MakeFriends+0x15c>
                        progress |= NEXT;
     23a:	81 ef       	ldi	r24, 0xF1	; 241
     23c:	39 c0       	rjmp	.+114    	; 0x2b0 <MakeFriends+0x1b6>
                progress = NO_OTHER;
            }
        }

        //Wait for the other badge (and a bit longer for effect)
        else if (progress == SECOND_LOVE){
     23e:	82 30       	cpi	r24, 0x02	; 2
     240:	69 f0       	breq	.+26     	; 0x25c <MakeFriends+0x162>
                progress |= NEXT;
            }
        } 
        
        //Wait a bit, check Voltage again, if ok show who you connected with and your own number, save, exit
        else if (progress == THIRD_KISS) {
     242:	83 30       	cpi	r24, 0x03	; 3
     244:	c1 f1       	breq	.+112    	; 0x2b6 <MakeFriends+0x1bc>
                    progress |= NEXT;
                } else progress = NO_OTHER;                
            }

        //Wait for quit
        } else if (progress == FOURTH_BASE) {
     246:	84 30       	cpi	r24, 0x04	; 4
     248:	09 f0       	breq	.+2      	; 0x24c <MakeFriends+0x152>
     24a:	5d c0       	rjmp	.+186    	; 0x306 <MakeFriends+0x20c>
            if (chkTmr >= (SHORT_WAIT<<3)) {
     24c:	80 91 39 38 	lds	r24, 0x3839	; 0x803839 <chkTmr.3790>
     250:	80 34       	cpi	r24, 0x40	; 64
     252:	08 f4       	brcc	.+2      	; 0x256 <MakeFriends+0x15c>
     254:	58 c0       	rjmp	.+176    	; 0x306 <MakeFriends+0x20c>
                    if (   ((whoami == 1)&&((jackIn >= 3)&&(jackIn <= 5))) 
                    || ((whoami == 2)&&((jackIn == 3)||(jackIn == 5)||(jackIn == 6)))  
                    || ((whoami == 3)&&((jackIn == 4)||(jackIn == 5)||(jackIn == 7))) 
                    || ((whoami == 4)&&((jackIn >= 5)&&(jackIn <= 7)))   ) {
                        progress |= NEXT;
                    } else progress = NO_OTHER;
     256:	10 92 38 38 	sts	0x3838, r1	; 0x803838 <progress.3788>
     25a:	55 c0       	rjmp	.+170    	; 0x306 <MakeFriends+0x20c>
        }

        //Wait for the other badge (and a bit longer for effect)
        else if (progress == SECOND_LOVE){
            
            effect = 7;
     25c:	87 e0       	ldi	r24, 0x07	; 7
     25e:	90 e0       	ldi	r25, 0x00	; 0
     260:	80 93 40 38 	sts	0x3840, r24	; 0x803840 <effect>
     264:	90 93 41 38 	sts	0x3841, r25	; 0x803841 <effect+0x1>
            if (chkTmr >= SHORT_WAIT) {
     268:	80 91 39 38 	lds	r24, 0x3839	; 0x803839 <chkTmr.3790>
     26c:	88 30       	cpi	r24, 0x08	; 8
     26e:	38 f0       	brcs	.+14     	; 0x27e <MakeFriends+0x184>
                setDAC[0] = floatAround(0x80, 8, 100, 255); 
     270:	2f ef       	ldi	r18, 0xFF	; 255
     272:	44 e6       	ldi	r20, 0x64	; 100
     274:	68 e0       	ldi	r22, 0x08	; 8
     276:	80 e8       	ldi	r24, 0x80	; 128
     278:	fe d7       	rcall	.+4092   	; 0x1276 <floatAround>
     27a:	80 93 00 38 	sts	0x3800, r24	; 0x803800 <__data_start>
            }

            //The badge with the lowest voltage will now go to 2.5V (impedance check, for people tricking the things with a power supply)
            if (chkTmr >= LONG_WAIT){
     27e:	80 91 39 38 	lds	r24, 0x3839	; 0x803839 <chkTmr.3790>
     282:	8a 3f       	cpi	r24, 0xFA	; 250
     284:	08 f4       	brcc	.+2      	; 0x288 <MakeFriends+0x18e>
     286:	3f c0       	rjmp	.+126    	; 0x306 <MakeFriends+0x20c>
                candidate = jackIn-whoami;
     288:	80 91 43 38 	lds	r24, 0x3843	; 0x803843 <whoami>
     28c:	90 91 37 38 	lds	r25, 0x3837	; 0x803837 <jackIn.3791>
     290:	98 1b       	sub	r25, r24
     292:	90 93 36 38 	sts	0x3836, r25	; 0x803836 <__data_end>
                if (candidate > whoami) {
     296:	89 17       	cp	r24, r25
     298:	10 f4       	brcc	.+4      	; 0x29e <MakeFriends+0x1a4>
                    setDAC[0] = 249;
     29a:	89 ef       	ldi	r24, 0xF9	; 249
     29c:	04 c0       	rjmp	.+8      	; 0x2a6 <MakeFriends+0x1ac>
                } else {
                    setDAC[0] = whoami * 51;
     29e:	93 e3       	ldi	r25, 0x33	; 51
     2a0:	89 9f       	mul	r24, r25
     2a2:	80 2d       	mov	r24, r0
     2a4:	11 24       	eor	r1, r1
     2a6:	80 93 00 38 	sts	0x3800, r24	; 0x803800 <__data_start>
                }
                progress |= NEXT;
     2aa:	80 91 38 38 	lds	r24, 0x3838	; 0x803838 <progress.3788>
     2ae:	80 6f       	ori	r24, 0xF0	; 240
     2b0:	80 93 38 38 	sts	0x3838, r24	; 0x803838 <progress.3788>
     2b4:	28 c0       	rjmp	.+80     	; 0x306 <MakeFriends+0x20c>
            }
        } 
        
        //Wait a bit, check Voltage again, if ok show who you connected with and your own number, save, exit
        else if (progress == THIRD_KISS) {
            if (chkTmr >= SHORT_WAIT) {
     2b6:	80 91 39 38 	lds	r24, 0x3839	; 0x803839 <chkTmr.3790>
     2ba:	88 30       	cpi	r24, 0x08	; 8
                jackIn = chkVolt250();
     2bc:	20 f1       	brcs	.+72     	; 0x306 <MakeFriends+0x20c>
     2be:	05 df       	rcall	.-502    	; 0xca <chkVolt250>
     2c0:	80 93 37 38 	sts	0x3837, r24	; 0x803837 <jackIn.3791>
                if (jackIn == (((candidate > whoami)?candidate:whoami) + 5)) {
     2c4:	90 91 36 38 	lds	r25, 0x3836	; 0x803836 <__data_end>
     2c8:	48 2f       	mov	r20, r24
     2ca:	50 e0       	ldi	r21, 0x00	; 0
     2cc:	20 91 43 38 	lds	r18, 0x3843	; 0x803843 <whoami>
     2d0:	29 17       	cp	r18, r25
     2d2:	08 f4       	brcc	.+2      	; 0x2d6 <MakeFriends+0x1dc>
     2d4:	29 2f       	mov	r18, r25
     2d6:	30 e0       	ldi	r19, 0x00	; 0
     2d8:	2b 5f       	subi	r18, 0xFB	; 251
     2da:	3f 4f       	sbci	r19, 0xFF	; 255
     2dc:	42 17       	cp	r20, r18
     2de:	53 07       	cpc	r21, r19
     2e0:	09 f0       	breq	.+2      	; 0x2e4 <MakeFriends+0x1ea>
     2e2:	b9 cf       	rjmp	.-142    	; 0x256 <MakeFriends+0x15c>
                    UpdateState(99+candidate);
     2e4:	83 e6       	ldi	r24, 0x63	; 99
     2e6:	89 0f       	add	r24, r25
     2e8:	0e 94 f4 09 	call	0x13e8	; 0x13e8 <UpdateState>
                 
                    effect = 31;
     2ec:	8f e1       	ldi	r24, 0x1F	; 31
     2ee:	90 e0       	ldi	r25, 0x00	; 0
     2f0:	80 93 40 38 	sts	0x3840, r24	; 0x803840 <effect>
     2f4:	90 93 41 38 	sts	0x3841, r25	; 0x803841 <effect+0x1>
                    WingBar(candidate, whoami);
     2f8:	60 91 43 38 	lds	r22, 0x3843	; 0x803843 <whoami>
     2fc:	80 91 36 38 	lds	r24, 0x3836	; 0x803836 <__data_end>
     300:	0e 94 e4 0a 	call	0x15c8	; 0x15c8 <WingBar>
     304:	d2 cf       	rjmp	.-92     	; 0x2aa <MakeFriends+0x1b0>
    } else {
        progress = NO_OTHER;
    }
      
    return 0;
}
     306:	80 e0       	ldi	r24, 0x00	; 0
     308:	df 91       	pop	r29
     30a:	cf 91       	pop	r28
     30c:	08 95       	ret

0000030e <I2C_init>:
// the Atmel device documentation mentions a special command for repeated start TWI_MCMD_REPSTART_gc,
// but this is not used in Atmel's demo code, so we don't use it either

void I2C_rep_start(uint8_t shifted_addr)						    // send repeated start, device_addr + LSB set if READ
{
	TWI0.MADDR = shifted_addr;	
     30e:	81 e0       	ldi	r24, 0x01	; 1
     310:	80 93 22 04 	sts	0x0422, r24	; 0x800422 <__TEXT_REGION_LENGTH__+0x700422>
     314:	e6 e2       	ldi	r30, 0x26	; 38
     316:	f4 e0       	ldi	r31, 0x04	; 4
     318:	80 83       	st	Z, r24
     31a:	10 92 30 04 	sts	0x0430, r1	; 0x800430 <__TEXT_REGION_LENGTH__+0x700430>
     31e:	a1 e2       	ldi	r26, 0x21	; 33
     320:	b4 e0       	ldi	r27, 0x04	; 4
     322:	92 e0       	ldi	r25, 0x02	; 2
     324:	9c 93       	st	X, r25
     326:	90 83       	st	Z, r25
     328:	10 92 31 04 	sts	0x0431, r1	; 0x800431 <__TEXT_REGION_LENGTH__+0x700431>
     32c:	e0 e1       	ldi	r30, 0x10	; 16
     32e:	f8 e0       	ldi	r31, 0x08	; 8
     330:	97 e0       	ldi	r25, 0x07	; 7
     332:	96 83       	std	Z+6, r25	; 0x06
     334:	98 e0       	ldi	r25, 0x08	; 8
     336:	94 83       	std	Z+4, r25	; 0x04
     338:	83 83       	std	Z+3, r24	; 0x03
     33a:	8c 93       	st	X, r24
     33c:	85 81       	ldd	r24, Z+5	; 0x05
     33e:	81 60       	ori	r24, 0x01	; 1
     340:	85 83       	std	Z+5, r24	; 0x05
     342:	85 81       	ldd	r24, Z+5	; 0x05
     344:	84 6c       	ori	r24, 0xC4	; 196
     346:	85 83       	std	Z+5, r24	; 0x05
     348:	08 95       	ret

0000034a <I2C_recover>:
     34a:	80 91 14 08 	lds	r24, 0x0814	; 0x800814 <__TEXT_REGION_LENGTH__+0x700814>
     34e:	88 60       	ori	r24, 0x08	; 8
     350:	80 93 14 08 	sts	0x0814, r24	; 0x800814 <__TEXT_REGION_LENGTH__+0x700814>
     354:	10 92 13 08 	sts	0x0813, r1	; 0x800813 <__TEXT_REGION_LENGTH__+0x700813>
     358:	82 e0       	ldi	r24, 0x02	; 2
     35a:	80 93 22 04 	sts	0x0422, r24	; 0x800422 <__TEXT_REGION_LENGTH__+0x700422>
     35e:	99 e0       	ldi	r25, 0x09	; 9
     360:	21 e0       	ldi	r18, 0x01	; 1
     362:	81 e0       	ldi	r24, 0x01	; 1
     364:	20 93 21 04 	sts	0x0421, r18	; 0x800421 <__TEXT_REGION_LENGTH__+0x700421>
     368:	30 e1       	ldi	r19, 0x10	; 16
     36a:	3a 95       	dec	r19
     36c:	f1 f7       	brne	.-4      	; 0x36a <I2C_recover+0x20>
     36e:	00 c0       	rjmp	.+0      	; 0x370 <I2C_recover+0x26>
     370:	20 93 22 04 	sts	0x0422, r18	; 0x800422 <__TEXT_REGION_LENGTH__+0x700422>
     374:	30 e1       	ldi	r19, 0x10	; 16
     376:	3a 95       	dec	r19
     378:	f1 f7       	brne	.-4      	; 0x376 <I2C_recover+0x2c>
     37a:	00 c0       	rjmp	.+0      	; 0x37c <I2C_recover+0x32>
     37c:	91 50       	subi	r25, 0x01	; 1
     37e:	89 f7       	brne	.-30     	; 0x362 <I2C_recover+0x18>
     380:	28 e0       	ldi	r18, 0x08	; 8
     382:	20 93 14 08 	sts	0x0814, r18	; 0x800814 <__TEXT_REGION_LENGTH__+0x700814>
     386:	80 93 13 08 	sts	0x0813, r24	; 0x800813 <__TEXT_REGION_LENGTH__+0x700813>
     38a:	92 e0       	ldi	r25, 0x02	; 2
     38c:	90 93 21 04 	sts	0x0421, r25	; 0x800421 <__TEXT_REGION_LENGTH__+0x700421>
     390:	90 91 15 08 	lds	r25, 0x0815	; 0x800815 <__TEXT_REGION_LENGTH__+0x700815>
     394:	91 60       	ori	r25, 0x01	; 1
     396:	90 93 15 08 	sts	0x0815, r25	; 0x800815 <__TEXT_REGION_LENGTH__+0x700815>
     39a:	90 91 15 08 	lds	r25, 0x0815	; 0x800815 <__TEXT_REGION_LENGTH__+0x700815>
     39e:	94 6c       	ori	r25, 0xC4	; 196
     3a0:	90 93 15 08 	sts	0x0815, r25	; 0x800815 <__TEXT_REGION_LENGTH__+0x700815>
     3a4:	20 93 14 08 	sts	0x0814, r18	; 0x800814 <__TEXT_REGION_LENGTH__+0x700814>
     3a8:	80 93 13 08 	sts	0x0813, r24	; 0x800813 <__TEXT_REGION_LENGTH__+0x700813>
     3ac:	80 93 21 04 	sts	0x0421, r24	; 0x800421 <__TEXT_REGION_LENGTH__+0x700421>
     3b0:	80 91 15 08 	lds	r24, 0x0815	; 0x800815 <__TEXT_REGION_LENGTH__+0x700815>
     3b4:	81 60       	ori	r24, 0x01	; 1
     3b6:	80 93 15 08 	sts	0x0815, r24	; 0x800815 <__TEXT_REGION_LENGTH__+0x700815>
     3ba:	80 91 15 08 	lds	r24, 0x0815	; 0x800815 <__TEXT_REGION_LENGTH__+0x700815>
     3be:	84 6c       	ori	r24, 0xC4	; 196
     3c0:	80 93 15 08 	sts	0x0815, r24	; 0x800815 <__TEXT_REGION_LENGTH__+0x700815>
     3c4:	08 95       	ret

000003c6 <I2C_start>:
     3c6:	28 2f       	mov	r18, r24
     3c8:	90 91 15 08 	lds	r25, 0x0815	; 0x800815 <__TEXT_REGION_LENGTH__+0x700815>
     3cc:	90 6c       	ori	r25, 0xC0	; 192
     3ce:	90 93 15 08 	sts	0x0815, r25	; 0x800815 <__TEXT_REGION_LENGTH__+0x700815>
     3d2:	90 91 15 08 	lds	r25, 0x0815	; 0x800815 <__TEXT_REGION_LENGTH__+0x700815>
     3d6:	89 2f       	mov	r24, r25
     3d8:	84 70       	andi	r24, 0x04	; 4
     3da:	92 fd       	sbrc	r25, 2
     3dc:	03 c0       	rjmp	.+6      	; 0x3e4 <I2C_start+0x1e>
     3de:	20 93 17 08 	sts	0x0817, r18	; 0x800817 <__TEXT_REGION_LENGTH__+0x700817>
     3e2:	08 95       	ret
     3e4:	84 e0       	ldi	r24, 0x04	; 4
     3e6:	08 95       	ret

000003e8 <I2C_wait_ACK>:
     3e8:	8c e0       	ldi	r24, 0x0C	; 12
     3ea:	80 93 66 3a 	sts	0x3A66, r24	; 0x803a66 <timeout_I2C>
     3ee:	80 91 15 08 	lds	r24, 0x0815	; 0x800815 <__TEXT_REGION_LENGTH__+0x700815>
     3f2:	87 fd       	sbrc	r24, 7
     3f4:	0a c0       	rjmp	.+20     	; 0x40a <__LOCK_REGION_LENGTH__+0xa>
     3f6:	80 91 15 08 	lds	r24, 0x0815	; 0x800815 <__TEXT_REGION_LENGTH__+0x700815>
     3fa:	86 fd       	sbrc	r24, 6
     3fc:	06 c0       	rjmp	.+12     	; 0x40a <__LOCK_REGION_LENGTH__+0xa>
     3fe:	80 91 66 3a 	lds	r24, 0x3A66	; 0x803a66 <timeout_I2C>
     402:	81 11       	cpse	r24, r1
     404:	f4 cf       	rjmp	.-24     	; 0x3ee <I2C_wait_ACK+0x6>
     406:	8f ef       	ldi	r24, 0xFF	; 255
     408:	08 95       	ret
     40a:	80 91 15 08 	lds	r24, 0x0815	; 0x800815 <__TEXT_REGION_LENGTH__+0x700815>
     40e:	80 6c       	ori	r24, 0xC0	; 192
     410:	80 93 15 08 	sts	0x0815, r24	; 0x800815 <__TEXT_REGION_LENGTH__+0x700815>
     414:	80 91 15 08 	lds	r24, 0x0815	; 0x800815 <__TEXT_REGION_LENGTH__+0x700815>
     418:	82 fd       	sbrc	r24, 2
     41a:	09 c0       	rjmp	.+18     	; 0x42e <__LOCK_REGION_LENGTH__+0x2e>
     41c:	80 91 15 08 	lds	r24, 0x0815	; 0x800815 <__TEXT_REGION_LENGTH__+0x700815>
     420:	83 fd       	sbrc	r24, 3
     422:	07 c0       	rjmp	.+14     	; 0x432 <__LOCK_REGION_LENGTH__+0x32>
     424:	80 91 15 08 	lds	r24, 0x0815	; 0x800815 <__TEXT_REGION_LENGTH__+0x700815>
     428:	82 95       	swap	r24
     42a:	81 70       	andi	r24, 0x01	; 1
     42c:	08 95       	ret
     42e:	84 e0       	ldi	r24, 0x04	; 4
     430:	08 95       	ret
     432:	82 e0       	ldi	r24, 0x02	; 2
     434:	08 95       	ret

00000436 <I2C_read>:
}

uint8_t	I2C_read(uint8_t *data, uint8_t ack_flag)					// read data, ack_flag 0: send ACK, 1: send NACK, returns status
{
     436:	fc 01       	movw	r30, r24
	timeout_I2C = READ_TIMEOUT;										// reset timeout counter, will be decremented by LED matrix interrupt
     438:	8c e0       	ldi	r24, 0x0C	; 12
     43a:	80 93 66 3a 	sts	0x3A66, r24	; 0x803a66 <timeout_I2C>
	if ((TWI0.MSTATUS & TWI_BUSSTATE_gm) == TWI_BUSSTATE_OWNER_gc)	// if master controls bus
     43e:	90 91 15 08 	lds	r25, 0x0815	; 0x800815 <__TEXT_REGION_LENGTH__+0x700815>
     442:	89 2f       	mov	r24, r25
     444:	83 70       	andi	r24, 0x03	; 3
     446:	82 30       	cpi	r24, 0x02	; 2
     448:	11 f0       	breq	.+4      	; 0x44e <I2C_read+0x18>
		else		TWI0.MCTRLB |= TWI_ACKACT_NACK_gc;				// setup NACK (last byte read)
		*data = TWI0.MDATA;
		if (ack_flag == 0) TWI0.MCTRLB |= TWI_MCMD_RECVTRANS_gc;	// send ACK, more bytes to follow					
		return 0;
	}
	else return 8;													// master does not control bus
     44a:	88 e0       	ldi	r24, 0x08	; 8
     44c:	08 95       	ret
uint8_t	I2C_read(uint8_t *data, uint8_t ack_flag)					// read data, ack_flag 0: send ACK, 1: send NACK, returns status
{
	timeout_I2C = READ_TIMEOUT;										// reset timeout counter, will be decremented by LED matrix interrupt
	if ((TWI0.MSTATUS & TWI_BUSSTATE_gm) == TWI_BUSSTATE_OWNER_gc)	// if master controls bus
	{		
		while (!(TWI0.MSTATUS & TWI_RIF_bm))						// wait for RIF set (data byte received)
     44e:	90 91 15 08 	lds	r25, 0x0815	; 0x800815 <__TEXT_REGION_LENGTH__+0x700815>
     452:	97 fd       	sbrc	r25, 7
     454:	06 c0       	rjmp	.+12     	; 0x462 <I2C_read+0x2c>
		{
			if (!(timeout_I2C)) return 0xff;			            // return timeout error
     456:	90 91 66 3a 	lds	r25, 0x3A66	; 0x803a66 <timeout_I2C>
     45a:	91 11       	cpse	r25, r1
     45c:	f8 cf       	rjmp	.-16     	; 0x44e <I2C_read+0x18>
     45e:	8f ef       	ldi	r24, 0xFF	; 255
     460:	08 95       	ret
		}
		TWI0.MSTATUS |= (TWI_RIF_bm | TWI_WIF_bm);					// clear Read and Write interrupt flags	
     462:	90 91 15 08 	lds	r25, 0x0815	; 0x800815 <__TEXT_REGION_LENGTH__+0x700815>
     466:	90 6c       	ori	r25, 0xC0	; 192
     468:	90 93 15 08 	sts	0x0815, r25	; 0x800815 <__TEXT_REGION_LENGTH__+0x700815>
		if (TWI0.MSTATUS & TWI_BUSERR_bm) return 4;					// Bus Error, abort
     46c:	90 91 15 08 	lds	r25, 0x0815	; 0x800815 <__TEXT_REGION_LENGTH__+0x700815>
     470:	92 fd       	sbrc	r25, 2
     472:	1e c0       	rjmp	.+60     	; 0x4b0 <I2C_read+0x7a>
		if (TWI0.MSTATUS & TWI_ARBLOST_bm) return 2;				// Arbitration Lost, abort
     474:	90 91 15 08 	lds	r25, 0x0815	; 0x800815 <__TEXT_REGION_LENGTH__+0x700815>
     478:	93 fd       	sbrc	r25, 3
     47a:	1d c0       	rjmp	.+58     	; 0x4b6 <I2C_read+0x80>
		if (TWI0.MSTATUS & TWI_RXACK_bm) return 1;					// Slave replied with NACK, abort				
     47c:	90 91 15 08 	lds	r25, 0x0815	; 0x800815 <__TEXT_REGION_LENGTH__+0x700815>
     480:	89 2f       	mov	r24, r25
     482:	80 71       	andi	r24, 0x10	; 16
     484:	94 fd       	sbrc	r25, 4
     486:	16 c0       	rjmp	.+44     	; 0x4b4 <I2C_read+0x7e>
		if (ack_flag == 0) TWI0.MCTRLB &= ~(1 << TWI_ACKACT_bp);	// setup ACK
     488:	90 91 14 08 	lds	r25, 0x0814	; 0x800814 <__TEXT_REGION_LENGTH__+0x700814>
     48c:	61 11       	cpse	r22, r1
     48e:	02 c0       	rjmp	.+4      	; 0x494 <I2C_read+0x5e>
     490:	9b 7f       	andi	r25, 0xFB	; 251
     492:	01 c0       	rjmp	.+2      	; 0x496 <I2C_read+0x60>
		else		TWI0.MCTRLB |= TWI_ACKACT_NACK_gc;				// setup NACK (last byte read)
     494:	94 60       	ori	r25, 0x04	; 4
     496:	90 93 14 08 	sts	0x0814, r25	; 0x800814 <__TEXT_REGION_LENGTH__+0x700814>
		*data = TWI0.MDATA;
     49a:	90 91 18 08 	lds	r25, 0x0818	; 0x800818 <__TEXT_REGION_LENGTH__+0x700818>
     49e:	90 83       	st	Z, r25
		if (ack_flag == 0) TWI0.MCTRLB |= TWI_MCMD_RECVTRANS_gc;	// send ACK, more bytes to follow					
     4a0:	61 11       	cpse	r22, r1
     4a2:	09 c0       	rjmp	.+18     	; 0x4b6 <I2C_read+0x80>
     4a4:	90 91 14 08 	lds	r25, 0x0814	; 0x800814 <__TEXT_REGION_LENGTH__+0x700814>
     4a8:	92 60       	ori	r25, 0x02	; 2
     4aa:	90 93 14 08 	sts	0x0814, r25	; 0x800814 <__TEXT_REGION_LENGTH__+0x700814>
     4ae:	08 95       	ret
		while (!(TWI0.MSTATUS & TWI_RIF_bm))						// wait for RIF set (data byte received)
		{
			if (!(timeout_I2C)) return 0xff;			            // return timeout error
		}
		TWI0.MSTATUS |= (TWI_RIF_bm | TWI_WIF_bm);					// clear Read and Write interrupt flags	
		if (TWI0.MSTATUS & TWI_BUSERR_bm) return 4;					// Bus Error, abort
     4b0:	84 e0       	ldi	r24, 0x04	; 4
     4b2:	08 95       	ret
		if (TWI0.MSTATUS & TWI_ARBLOST_bm) return 2;				// Arbitration Lost, abort
		if (TWI0.MSTATUS & TWI_RXACK_bm) return 1;					// Slave replied with NACK, abort				
     4b4:	81 e0       	ldi	r24, 0x01	; 1
		*data = TWI0.MDATA;
		if (ack_flag == 0) TWI0.MCTRLB |= TWI_MCMD_RECVTRANS_gc;	// send ACK, more bytes to follow					
		return 0;
	}
	else return 8;													// master does not control bus
}
     4b6:	08 95       	ret

000004b8 <I2C_write>:

uint8_t I2C_write(uint8_t *data)									// write data, return status
{
     4b8:	fc 01       	movw	r30, r24
	timeout_I2C = WRITE_TIMEOUT;									// reset timeout counter, will be decremented by LED matrix interrupt
     4ba:	8c e0       	ldi	r24, 0x0C	; 12
     4bc:	80 93 66 3a 	sts	0x3A66, r24	; 0x803a66 <timeout_I2C>
	if ((TWI0.MSTATUS & TWI_BUSSTATE_gm) == TWI_BUSSTATE_OWNER_gc)	// if master controls bus
     4c0:	90 91 15 08 	lds	r25, 0x0815	; 0x800815 <__TEXT_REGION_LENGTH__+0x700815>
     4c4:	93 70       	andi	r25, 0x03	; 3
     4c6:	92 30       	cpi	r25, 0x02	; 2
     4c8:	b1 f4       	brne	.+44     	; 0x4f6 <I2C_write+0x3e>
	{
		TWI0.MDATA = *data;		
     4ca:	80 81       	ld	r24, Z
     4cc:	80 93 18 08 	sts	0x0818, r24	; 0x800818 <__TEXT_REGION_LENGTH__+0x700818>
		while (!(TWI0.MSTATUS & TWI_WIF_bm))						// wait until WIF set, status register contains ACK/NACK bit
     4d0:	80 91 15 08 	lds	r24, 0x0815	; 0x800815 <__TEXT_REGION_LENGTH__+0x700815>
     4d4:	86 fd       	sbrc	r24, 6
     4d6:	06 c0       	rjmp	.+12     	; 0x4e4 <I2C_write+0x2c>
		{
			if (!(timeout_I2C)) return 0xff;			            // return timeout error
     4d8:	80 91 66 3a 	lds	r24, 0x3A66	; 0x803a66 <timeout_I2C>
     4dc:	81 11       	cpse	r24, r1
     4de:	f8 cf       	rjmp	.-16     	; 0x4d0 <I2C_write+0x18>
     4e0:	8f ef       	ldi	r24, 0xFF	; 255
     4e2:	08 95       	ret
		}
		if (TWI0.MSTATUS & TWI_BUSERR_bm) return 4;					// Bus Error, abort
     4e4:	80 91 15 08 	lds	r24, 0x0815	; 0x800815 <__TEXT_REGION_LENGTH__+0x700815>
     4e8:	82 fd       	sbrc	r24, 2
     4ea:	07 c0       	rjmp	.+14     	; 0x4fa <I2C_write+0x42>
		if (TWI0.MSTATUS & TWI_RXACK_bm) return 1;					// Slave replied with NACK, abort
     4ec:	80 91 15 08 	lds	r24, 0x0815	; 0x800815 <__TEXT_REGION_LENGTH__+0x700815>
	if ((TWI0.MSTATUS & TWI_BUSSTATE_gm) == TWI_BUSSTATE_OWNER_gc)	// if master controls bus
	{
		TWI0.MDATA = *data;		
		while (!(TWI0.MSTATUS & TWI_WIF_bm))						// wait until WIF set, status register contains ACK/NACK bit
		{
			if (!(timeout_I2C)) return 0xff;			            // return timeout error
     4f0:	82 95       	swap	r24
     4f2:	81 70       	andi	r24, 0x01	; 1
     4f4:	08 95       	ret
		}
		if (TWI0.MSTATUS & TWI_BUSERR_bm) return 4;					// Bus Error, abort
		if (TWI0.MSTATUS & TWI_RXACK_bm) return 1;					// Slave replied with NACK, abort
		return 0;													// no error	
	}
	else return 8;													// master does not control bus
     4f6:	88 e0       	ldi	r24, 0x08	; 8
     4f8:	08 95       	ret
		TWI0.MDATA = *data;		
		while (!(TWI0.MSTATUS & TWI_WIF_bm))						// wait until WIF set, status register contains ACK/NACK bit
		{
			if (!(timeout_I2C)) return 0xff;			            // return timeout error
		}
		if (TWI0.MSTATUS & TWI_BUSERR_bm) return 4;					// Bus Error, abort
     4fa:	84 e0       	ldi	r24, 0x04	; 4
		if (TWI0.MSTATUS & TWI_RXACK_bm) return 1;					// Slave replied with NACK, abort
		return 0;													// no error	
	}
	else return 8;													// master does not control bus
}
     4fc:	08 95       	ret

000004fe <I2C_stop>:

void I2C_stop()
{
	TWI0.MCTRLB |= TWI_MCMD_STOP_gc;
     4fe:	e0 e1       	ldi	r30, 0x10	; 16
     500:	f8 e0       	ldi	r31, 0x08	; 8
     502:	84 81       	ldd	r24, Z+4	; 0x04
     504:	83 60       	ori	r24, 0x03	; 3
     506:	84 83       	std	Z+4, r24	; 0x04
     508:	08 95       	ret

0000050a <I2C_read_bytes>:
// addr_ptr		address of first array element to transfer
// slave reg	starting slave register
// num_bytes	number of bytes to transfer

uint8_t	I2C_read_bytes(uint8_t slave_addr, uint8_t *reg_ptr, uint8_t reg_len, uint8_t *dat_ptr, uint8_t dat_len)
{
     50a:	cf 92       	push	r12
     50c:	df 92       	push	r13
     50e:	ff 92       	push	r15
     510:	0f 93       	push	r16
     512:	1f 93       	push	r17
     514:	cf 93       	push	r28
     516:	df 93       	push	r29
     518:	6b 01       	movw	r12, r22
     51a:	f4 2e       	mov	r15, r20
     51c:	e9 01       	movw	r28, r18
	uint8_t status;
	if (dat_len > MAX_LEN) dat_len = MAX_LEN;
	status = I2C_start(slave_addr << 1);							// slave write address, LSB 0
     51e:	18 2f       	mov	r17, r24
     520:	11 0f       	add	r17, r17
     522:	81 2f       	mov	r24, r17
     524:	50 df       	rcall	.-352    	; 0x3c6 <I2C_start>
	if (status != 0) goto error;
     526:	81 11       	cpse	r24, r1
	status = I2C_wait_ACK();										// wait for slave ACK
     528:	2b c0       	rjmp	.+86     	; 0x580 <I2C_read_bytes+0x76>
     52a:	5e df       	rcall	.-324    	; 0x3e8 <I2C_wait_ACK>
	if (status == 1) {
     52c:	81 30       	cpi	r24, 0x01	; 1
		I2C_stop();													// NACK, abort
     52e:	19 f4       	brne	.+6      	; 0x536 <I2C_read_bytes+0x2c>
     530:	e6 df       	rcall	.-52     	; 0x4fe <I2C_stop>
		return 1;
     532:	81 e0       	ldi	r24, 0x01	; 1
     534:	27 c0       	rjmp	.+78     	; 0x584 <I2C_read_bytes+0x7a>
	}
	if (status != 0) goto error;
     536:	81 11       	cpse	r24, r1
     538:	23 c0       	rjmp	.+70     	; 0x580 <I2C_read_bytes+0x76>
    while(reg_len > 0){
     53a:	ff 20       	and	r15, r15
	    status = I2C_write(reg_ptr);    							// send slave start register
     53c:	49 f0       	breq	.+18     	; 0x550 <I2C_read_bytes+0x46>
     53e:	c6 01       	movw	r24, r12
     540:	bb df       	rcall	.-138    	; 0x4b8 <I2C_write>
	    if (status != 0) goto error;
     542:	81 11       	cpse	r24, r1
     544:	1d c0       	rjmp	.+58     	; 0x580 <I2C_read_bytes+0x76>
        ++reg_ptr;
     546:	8f ef       	ldi	r24, 0xFF	; 255
     548:	c8 1a       	sub	r12, r24
     54a:	d8 0a       	sbc	r13, r24
        --reg_len;
     54c:	fa 94       	dec	r15
     54e:	f5 cf       	rjmp	.-22     	; 0x53a <I2C_read_bytes+0x30>
     550:	01 34       	cpi	r16, 0x41	; 65
     552:	08 f0       	brcs	.+2      	; 0x556 <I2C_read_bytes+0x4c>
     554:	00 e4       	ldi	r16, 0x40	; 64
    }
	I2C_rep_start((slave_addr << 1) + 1);							// slave read address, LSB 1
     556:	1f 5f       	subi	r17, 0xFF	; 255
// the Atmel device documentation mentions a special command for repeated start TWI_MCMD_REPSTART_gc,
// but this is not used in Atmel's demo code, so we don't use it either

void I2C_rep_start(uint8_t shifted_addr)						    // send repeated start, device_addr + LSB set if READ
{
	TWI0.MADDR = shifted_addr;	
     558:	10 93 17 08 	sts	0x0817, r17	; 0x800817 <__TEXT_REGION_LENGTH__+0x700817>
	    if (status != 0) goto error;
        ++reg_ptr;
        --reg_len;
    }
	I2C_rep_start((slave_addr << 1) + 1);							// slave read address, LSB 1
	while (dat_len > 1) {
     55c:	02 30       	cpi	r16, 0x02	; 2
		status = I2C_read(dat_ptr, 0);								// first bytes, send ACK
     55e:	40 f0       	brcs	.+16     	; 0x570 <I2C_read_bytes+0x66>
     560:	60 e0       	ldi	r22, 0x00	; 0
     562:	ce 01       	movw	r24, r28
     564:	68 df       	rcall	.-304    	; 0x436 <I2C_read>
		if (status != 0) goto error;
     566:	81 11       	cpse	r24, r1
     568:	0b c0       	rjmp	.+22     	; 0x580 <I2C_read_bytes+0x76>
		++dat_ptr;
		--dat_len;
     56a:	21 96       	adiw	r28, 0x01	; 1
     56c:	01 50       	subi	r16, 0x01	; 1
	}
	status = I2C_read(dat_ptr, 1);									// single or last byte, send NACK
     56e:	f6 cf       	rjmp	.-20     	; 0x55c <I2C_read_bytes+0x52>
     570:	61 e0       	ldi	r22, 0x01	; 1
     572:	ce 01       	movw	r24, r28
	if (status != 0) goto error;
     574:	60 df       	rcall	.-320    	; 0x436 <I2C_read>
     576:	81 11       	cpse	r24, r1
	I2C_stop();
     578:	03 c0       	rjmp	.+6      	; 0x580 <I2C_read_bytes+0x76>
     57a:	c1 df       	rcall	.-126    	; 0x4fe <I2C_stop>
	return 0;
     57c:	80 e0       	ldi	r24, 0x00	; 0
     57e:	02 c0       	rjmp	.+4      	; 0x584 <I2C_read_bytes+0x7a>
	
error:
	I2C_recover();													// clock out possibly stuck slave, reset master
     580:	e4 de       	rcall	.-568    	; 0x34a <I2C_recover>
     582:	8f ef       	ldi	r24, 0xFF	; 255
	return 0xff;													// flag error
     584:	df 91       	pop	r29
}
     586:	cf 91       	pop	r28
     588:	1f 91       	pop	r17
     58a:	0f 91       	pop	r16
     58c:	ff 90       	pop	r15
     58e:	df 90       	pop	r13
     590:	cf 90       	pop	r12
     592:	08 95       	ret

00000594 <initLanyard>:
uint8_t         lanyardCnt = 0;
uint8_t         lanyardState = TRUE;
uint16_t        lanyardLastActive = 0;

void initLanyard() {
    lanyardPos      = 0;
     594:	10 92 3d 38 	sts	0x383D, r1	; 0x80383d <lanyardPos>
    lanyardCnt      = 0;
     598:	10 92 3c 38 	sts	0x383C, r1	; 0x80383c <lanyardCnt>
    lanyardState    = TRUE;
     59c:	81 e0       	ldi	r24, 0x01	; 1
     59e:	80 93 02 38 	sts	0x3802, r24	; 0x803802 <lanyardState>
    ClearHackerLeds();
     5a2:	0c 94 22 0b 	jmp	0x1644	; 0x1644 <ClearHackerLeds>

000005a6 <LanyardCode>:
}

// Main game loop
uint8_t LanyardCode(){
     5a6:	cf 93       	push	r28
    if (gameNow == LANYARD && idleTimeout(lanyardLastActive,LANYARD_MAX_IDLE)) {
     5a8:	80 91 42 38 	lds	r24, 0x3842	; 0x803842 <gameNow>
     5ac:	83 30       	cpi	r24, 0x03	; 3
     5ae:	81 f4       	brne	.+32     	; 0x5d0 <LanyardCode+0x2a>
     5b0:	6a e0       	ldi	r22, 0x0A	; 10
     5b2:	70 e0       	ldi	r23, 0x00	; 0
     5b4:	80 91 3a 38 	lds	r24, 0x383A	; 0x80383a <lanyardLastActive>
     5b8:	90 91 3b 38 	lds	r25, 0x383B	; 0x80383b <lanyardLastActive+0x1>
     5bc:	0e 94 61 0e 	call	0x1cc2	; 0x1cc2 <idleTimeout>
     5c0:	88 23       	and	r24, r24
     5c2:	31 f0       	breq	.+12     	; 0x5d0 <LanyardCode+0x2a>
        /* clean up maze game and go back to text game */
        initLanyard();
     5c4:	e7 df       	rcall	.-50     	; 0x594 <initLanyard>
        gameNow = TEXT;
     5c6:	10 92 42 38 	sts	0x3842, r1	; 0x803842 <gameNow>
        ClearHackerLeds();
     5ca:	0e 94 22 0b 	call	0x1644	; 0x1644 <ClearHackerLeds>
        return 0;
     5ce:	9b c0       	rjmp	.+310    	; 0x706 <LanyardCode+0x160>
    }

    if (CheckState(LANYARD_COMPLETED))
     5d0:	8b e7       	ldi	r24, 0x7B	; 123
     5d2:	2b d7       	rcall	.+3670   	; 0x142a <CheckState>
     5d4:	81 11       	cpse	r24, r1
     5d6:	97 c0       	rjmp	.+302    	; 0x706 <LanyardCode+0x160>
        return 0;

    if ( gameNow != TEXT && gameNow != LANYARD )
     5d8:	80 91 42 38 	lds	r24, 0x3842	; 0x803842 <gameNow>
     5dc:	88 23       	and	r24, r24
     5de:	19 f0       	breq	.+6      	; 0x5e6 <LanyardCode+0x40>
     5e0:	83 30       	cpi	r24, 0x03	; 3
     5e2:	09 f0       	breq	.+2      	; 0x5e6 <LanyardCode+0x40>
     5e4:	90 c0       	rjmp	.+288    	; 0x706 <LanyardCode+0x160>
        return 0;

    /* activate led for buttonstate */
    iLED[CAT] = (buttonState==0xff ? 0 : dimValue);
     5e6:	c0 91 5e bf 	lds	r28, 0xBF5E	; 0x80bf5e <__bss_end+0x8446>
     5ea:	ec 2f       	mov	r30, r28
     5ec:	f0 e0       	ldi	r31, 0x00	; 0
     5ee:	80 91 08 38 	lds	r24, 0x3808	; 0x803808 <buttonState>
     5f2:	8f 3f       	cpi	r24, 0xFF	; 255
     5f4:	19 f0       	breq	.+6      	; 0x5fc <LanyardCode+0x56>
     5f6:	90 91 0c 38 	lds	r25, 0x380C	; 0x80380c <dimValue>
     5fa:	01 c0       	rjmp	.+2      	; 0x5fe <LanyardCode+0x58>
     5fc:	90 e0       	ldi	r25, 0x00	; 0
     5fe:	e7 53       	subi	r30, 0x37	; 55
     600:	f5 4c       	sbci	r31, 0xC5	; 197
     602:	90 83       	st	Z, r25

    if (buttonState == 0xff)
     604:	8f 3f       	cpi	r24, 0xFF	; 255
     606:	09 f4       	brne	.+2      	; 0x60a <LanyardCode+0x64>
     608:	7e c0       	rjmp	.+252    	; 0x706 <LanyardCode+0x160>
        return 0;

    if (buttonState == lastButtonState)
     60a:	90 91 07 38 	lds	r25, 0x3807	; 0x803807 <lastButtonState>
     60e:	89 17       	cp	r24, r25
     610:	09 f4       	brne	.+2      	; 0x614 <LanyardCode+0x6e>
     612:	79 c0       	rjmp	.+242    	; 0x706 <LanyardCode+0x160>
        return 0;

    lanyardLastActive = getClock();
     614:	0e 94 52 0e 	call	0x1ca4	; 0x1ca4 <getClock>
     618:	80 93 3a 38 	sts	0x383A, r24	; 0x80383a <lanyardLastActive>
     61c:	90 93 3b 38 	sts	0x383B, r25	; 0x80383b <lanyardLastActive+0x1>

    if (lastButtonState == 0xff){
     620:	80 91 07 38 	lds	r24, 0x3807	; 0x803807 <lastButtonState>
     624:	8f 3f       	cpi	r24, 0xFF	; 255
     626:	09 f0       	breq	.+2      	; 0x62a <LanyardCode+0x84>
     628:	6e c0       	rjmp	.+220    	; 0x706 <LanyardCode+0x160>
        effect = 0x13f + (buttonState << 5);
     62a:	80 91 08 38 	lds	r24, 0x3808	; 0x803808 <buttonState>
     62e:	20 e2       	ldi	r18, 0x20	; 32
     630:	82 9f       	mul	r24, r18
     632:	c0 01       	movw	r24, r0
     634:	11 24       	eor	r1, r1
     636:	81 5c       	subi	r24, 0xC1	; 193
     638:	9e 4f       	sbci	r25, 0xFE	; 254
     63a:	80 93 40 38 	sts	0x3840, r24	; 0x803840 <effect>
     63e:	90 93 41 38 	sts	0x3841, r25	; 0x803841 <effect+0x1>

        if (gameNow != LANYARD)
     642:	80 91 42 38 	lds	r24, 0x3842	; 0x803842 <gameNow>
     646:	83 30       	cpi	r24, 0x03	; 3
            initLanyard();
     648:	09 f0       	breq	.+2      	; 0x64c <LanyardCode+0xa6>
     64a:	a4 df       	rcall	.-184    	; 0x594 <initLanyard>
        gameNow = LANYARD;
     64c:	83 e0       	ldi	r24, 0x03	; 3
     64e:	80 93 42 38 	sts	0x3842, r24	; 0x803842 <gameNow>

        if (buttonState == lanyardCode[lanyardPos]) {
     652:	80 91 3d 38 	lds	r24, 0x383D	; 0x80383d <lanyardPos>
     656:	e8 2f       	mov	r30, r24
     658:	f0 e0       	ldi	r31, 0x00	; 0
     65a:	ea 5b       	subi	r30, 0xBA	; 186
     65c:	f0 44       	sbci	r31, 0x40	; 64
     65e:	20 81       	ld	r18, Z
     660:	90 91 08 38 	lds	r25, 0x3808	; 0x803808 <buttonState>
     664:	29 13       	cpse	r18, r25
     666:	12 c0       	rjmp	.+36     	; 0x68c <LanyardCode+0xe6>
            lanyardState &= TRUE;
     668:	90 91 02 38 	lds	r25, 0x3802	; 0x803802 <lanyardState>
     66c:	91 70       	andi	r25, 0x01	; 1
     66e:	90 93 02 38 	sts	0x3802, r25	; 0x803802 <lanyardState>
            iLED[EYE[R][L]] = 0;
     672:	e0 91 6d bf 	lds	r30, 0xBF6D	; 0x80bf6d <__bss_end+0x8455>
     676:	f0 e0       	ldi	r31, 0x00	; 0
     678:	e7 53       	subi	r30, 0x37	; 55
     67a:	f5 4c       	sbci	r31, 0xC5	; 197
     67c:	10 82       	st	Z, r1
            iLED[EYE[R][R]] = 0;
     67e:	e0 91 6c bf 	lds	r30, 0xBF6C	; 0x80bf6c <__bss_end+0x8454>
     682:	f0 e0       	ldi	r31, 0x00	; 0
     684:	e7 53       	subi	r30, 0x37	; 55
     686:	f5 4c       	sbci	r31, 0xC5	; 197
     688:	10 82       	st	Z, r1
     68a:	09 c0       	rjmp	.+18     	; 0x69e <LanyardCode+0xf8>
        } else {
            lanyardState = FALSE;
     68c:	10 92 02 38 	sts	0x3802, r1	; 0x803802 <lanyardState>
            if (lanyardPos < 4 ) {
     690:	84 30       	cpi	r24, 0x04	; 4
                initLanyard();
     692:	28 f4       	brcc	.+10     	; 0x69e <LanyardCode+0xf8>
     694:	7f df       	rcall	.-258    	; 0x594 <initLanyard>
                gameNow         = BASTET;
     696:	82 e0       	ldi	r24, 0x02	; 2
     698:	80 93 42 38 	sts	0x3842, r24	; 0x803842 <gameNow>
                return 0;
     69c:	34 c0       	rjmp	.+104    	; 0x706 <LanyardCode+0x160>
            }
        }
        lanyardPos++;
     69e:	8f 5f       	subi	r24, 0xFF	; 255
     6a0:	80 93 3d 38 	sts	0x383D, r24	; 0x80383d <lanyardPos>
        lanyardCnt++;            
     6a4:	90 91 3c 38 	lds	r25, 0x383C	; 0x80383c <lanyardCnt>
     6a8:	9f 5f       	subi	r25, 0xFF	; 255
        if (lanyardCnt >= 4) {
     6aa:	94 30       	cpi	r25, 0x04	; 4
     6ac:	18 f4       	brcc	.+6      	; 0x6b4 <LanyardCode+0x10e>
                gameNow         = BASTET;
                return 0;
            }
        }
        lanyardPos++;
        lanyardCnt++;            
     6ae:	90 93 3c 38 	sts	0x383C, r25	; 0x80383c <lanyardCnt>
     6b2:	29 c0       	rjmp	.+82     	; 0x706 <LanyardCode+0x160>
        if (lanyardCnt >= 4) {
            lanyardCnt = 0;
     6b4:	10 92 3c 38 	sts	0x383C, r1	; 0x80383c <lanyardCnt>
            if (lanyardState == TRUE) {
     6b8:	90 91 02 38 	lds	r25, 0x3802	; 0x803802 <lanyardState>
     6bc:	91 30       	cpi	r25, 0x01	; 1
     6be:	e1 f4       	brne	.+56     	; 0x6f8 <LanyardCode+0x152>
                if ((lanyardPos % 4) == 0) {
     6c0:	98 2f       	mov	r25, r24
     6c2:	93 70       	andi	r25, 0x03	; 3
     6c4:	69 f4       	brne	.+26     	; 0x6e0 <LanyardCode+0x13a>
                    iLED[HCKR[G][(lanyardPos>>2)-1]] = dimValue;
     6c6:	e8 2f       	mov	r30, r24
     6c8:	e6 95       	lsr	r30
     6ca:	e6 95       	lsr	r30
     6cc:	f0 e0       	ldi	r31, 0x00	; 0
     6ce:	e0 59       	subi	r30, 0x90	; 144
     6d0:	f0 44       	sbci	r31, 0x40	; 64
     6d2:	e5 81       	ldd	r30, Z+5	; 0x05
     6d4:	f0 e0       	ldi	r31, 0x00	; 0
     6d6:	90 91 0c 38 	lds	r25, 0x380C	; 0x80380c <dimValue>
     6da:	e7 53       	subi	r30, 0x37	; 55
     6dc:	f5 4c       	sbci	r31, 0xC5	; 197
                }
                if (lanyardPos == LANYARD_LEN) {
     6de:	90 83       	st	Z, r25
     6e0:	88 31       	cpi	r24, 0x18	; 24
                    UpdateState(LANYARD_COMPLETED);
     6e2:	89 f4       	brne	.+34     	; 0x706 <LanyardCode+0x160>
     6e4:	8b e7       	ldi	r24, 0x7B	; 123
     6e6:	80 d6       	rcall	.+3328   	; 0x13e8 <UpdateState>
                    iLED[CAT]       = 0;
     6e8:	ec 2f       	mov	r30, r28
     6ea:	f0 e0       	ldi	r31, 0x00	; 0
     6ec:	e7 53       	subi	r30, 0x37	; 55
     6ee:	f5 4c       	sbci	r31, 0xC5	; 197
                    effect = 0x42;
     6f0:	10 82       	st	Z, r1
     6f2:	82 e4       	ldi	r24, 0x42	; 66
     6f4:	90 e0       	ldi	r25, 0x00	; 0
                    /*TODO state = STATE_MUSIC;*/
                }
            } else {
                initLanyard();
     6f6:	03 c0       	rjmp	.+6      	; 0x6fe <LanyardCode+0x158>
     6f8:	4d df       	rcall	.-358    	; 0x594 <initLanyard>
                effect = 0x21;
     6fa:	81 e2       	ldi	r24, 0x21	; 33
     6fc:	90 e0       	ldi	r25, 0x00	; 0
     6fe:	80 93 40 38 	sts	0x3840, r24	; 0x803840 <effect>
     702:	90 93 41 38 	sts	0x3841, r25	; 0x803841 <effect+0x1>
            }
        }
    }

    return 0;
}
     706:	80 e0       	ldi	r24, 0x00	; 0
     708:	cf 91       	pop	r28
     70a:	08 95       	ret

0000070c <initMaze>:
uint8_t         mazeState = TRUE;
uint8_t         inverted  = FALSE;
uint16_t        mazeLastActive = 0;

void initMaze() {
    mazeHckrPos = 0;
     70c:	10 92 4f 38 	sts	0x384F, r1	; 0x80384f <mazeHckrPos>
    mazePos = 0;
     710:	10 92 50 38 	sts	0x3850, r1	; 0x803850 <mazePos>
    mazeCnt = 0;
     714:	10 92 4e 38 	sts	0x384E, r1	; 0x80384e <mazeCnt>
    mazeState = TRUE;
     718:	81 e0       	ldi	r24, 0x01	; 1
     71a:	80 93 0d 38 	sts	0x380D, r24	; 0x80380d <mazeState>
    inverted  = FALSE;
     71e:	10 92 4d 38 	sts	0x384D, r1	; 0x80384d <inverted>
    ClearHackerLeds();
     722:	90 c7       	rjmp	.+3872   	; 0x1644 <ClearHackerLeds>

00000724 <showFieldStrength>:
}

void showFieldStrength(int16_t val) {
    int16_t field;
 
    field = abs(val);
     724:	97 ff       	sbrs	r25, 7
     726:	03 c0       	rjmp	.+6      	; 0x72e <showFieldStrength+0xa>
     728:	91 95       	neg	r25
     72a:	81 95       	neg	r24
     72c:	91 09       	sbc	r25, r1
 
    if ( field > HALL_FIELD_0 )
     72e:	8d 33       	cpi	r24, 0x3D	; 61
     730:	91 05       	cpc	r25, r1
     732:	1c f0       	brlt	.+6      	; 0x73a <showFieldStrength+0x16>
         gameNow = MAZE;
     734:	21 e0       	ldi	r18, 0x01	; 1
     736:	20 93 42 38 	sts	0x3842, r18	; 0x803842 <gameNow>

    if (gameNow == MAZE) {
     73a:	20 91 42 38 	lds	r18, 0x3842	; 0x803842 <gameNow>
     73e:	21 30       	cpi	r18, 0x01	; 1
     740:	09 f5       	brne	.+66     	; 0x784 <showFieldStrength+0x60>
        if ( field < HALL_FIELD_0 )
     742:	8c 33       	cpi	r24, 0x3C	; 60
     744:	91 05       	cpc	r25, r1
     746:	1c f4       	brge	.+6      	; 0x74e <showFieldStrength+0x2a>
            WingBar(0,0);
     748:	60 e0       	ldi	r22, 0x00	; 0
     74a:	80 e0       	ldi	r24, 0x00	; 0
     74c:	1a c0       	rjmp	.+52     	; 0x782 <showFieldStrength+0x5e>
        else if ( field < HALL_FIELD_1 )
     74e:	88 37       	cpi	r24, 0x78	; 120
     750:	91 05       	cpc	r25, r1
     752:	1c f4       	brge	.+6      	; 0x75a <showFieldStrength+0x36>
            WingBar(1,1);
     754:	61 e0       	ldi	r22, 0x01	; 1
     756:	81 e0       	ldi	r24, 0x01	; 1
     758:	14 c0       	rjmp	.+40     	; 0x782 <showFieldStrength+0x5e>
        else if ( field < HALL_FIELD_2 )
     75a:	86 39       	cpi	r24, 0x96	; 150
     75c:	91 05       	cpc	r25, r1
     75e:	1c f4       	brge	.+6      	; 0x766 <showFieldStrength+0x42>
            WingBar(2,2);
     760:	62 e0       	ldi	r22, 0x02	; 2
     762:	82 e0       	ldi	r24, 0x02	; 2
     764:	0e c0       	rjmp	.+28     	; 0x782 <showFieldStrength+0x5e>
        else if ( field < HALL_FIELD_3 )
     766:	88 3c       	cpi	r24, 0xC8	; 200
     768:	91 05       	cpc	r25, r1
     76a:	1c f4       	brge	.+6      	; 0x772 <showFieldStrength+0x4e>
            WingBar(3,3);
     76c:	63 e0       	ldi	r22, 0x03	; 3
     76e:	83 e0       	ldi	r24, 0x03	; 3
     770:	08 c0       	rjmp	.+16     	; 0x782 <showFieldStrength+0x5e>
        else if ( field < HALL_FIELD_4 )
     772:	8c 32       	cpi	r24, 0x2C	; 44
     774:	91 40       	sbci	r25, 0x01	; 1
     776:	1c f4       	brge	.+6      	; 0x77e <showFieldStrength+0x5a>
            WingBar(4,4);
     778:	64 e0       	ldi	r22, 0x04	; 4
     77a:	84 e0       	ldi	r24, 0x04	; 4
     77c:	02 c0       	rjmp	.+4      	; 0x782 <showFieldStrength+0x5e>
        else
            WingBar(5,5);
     77e:	65 e0       	ldi	r22, 0x05	; 5
     780:	85 e0       	ldi	r24, 0x05	; 5
     782:	22 c7       	rjmp	.+3652   	; 0x15c8 <WingBar>
     784:	08 95       	ret

00000786 <MagnetMaze>:
    }
}

// Main game loop
uint8_t MagnetMaze(){
     786:	cf 93       	push	r28
     788:	df 93       	push	r29
    if (gameNow == MAZE && idleTimeout(mazeLastActive,MAZE_MAX_IDLE)) {
     78a:	80 91 42 38 	lds	r24, 0x3842	; 0x803842 <gameNow>
     78e:	81 30       	cpi	r24, 0x01	; 1
     790:	71 f4       	brne	.+28     	; 0x7ae <MagnetMaze+0x28>
     792:	6a e0       	ldi	r22, 0x0A	; 10
     794:	70 e0       	ldi	r23, 0x00	; 0
     796:	80 91 4b 38 	lds	r24, 0x384B	; 0x80384b <mazeLastActive>
     79a:	90 91 4c 38 	lds	r25, 0x384C	; 0x80384c <mazeLastActive+0x1>
     79e:	0e 94 61 0e 	call	0x1cc2	; 0x1cc2 <idleTimeout>
     7a2:	88 23       	and	r24, r24
     7a4:	21 f0       	breq	.+8      	; 0x7ae <MagnetMaze+0x28>
        /* clean up maze game and go back to text game */
        initMaze();
     7a6:	b2 df       	rcall	.-156    	; 0x70c <initMaze>
        gameNow = TEXT;
     7a8:	10 92 42 38 	sts	0x3842, r1	; 0x803842 <gameNow>
        return 0;
     7ac:	e5 c0       	rjmp	.+458    	; 0x978 <MagnetMaze+0x1f2>
    }
        
    if (CheckState(MAZE_INACTIVE))
     7ae:	87 ef       	ldi	r24, 0xF7	; 247
     7b0:	3c d6       	rcall	.+3192   	; 0x142a <CheckState>
     7b2:	81 11       	cpse	r24, r1
     7b4:	e1 c0       	rjmp	.+450    	; 0x978 <MagnetMaze+0x1f2>
        return 0;

    if (CheckState(MAZE_COMPLETED))
     7b6:	8d e7       	ldi	r24, 0x7D	; 125
     7b8:	38 d6       	rcall	.+3184   	; 0x142a <CheckState>
     7ba:	81 11       	cpse	r24, r1
     7bc:	dd c0       	rjmp	.+442    	; 0x978 <MagnetMaze+0x1f2>
     7be:	80 91 42 38 	lds	r24, 0x3842	; 0x803842 <gameNow>
        return 0;

    if ( (gameNow != TEXT) && (gameNow != MAZE) )
     7c2:	82 30       	cpi	r24, 0x02	; 2
     7c4:	08 f0       	brcs	.+2      	; 0x7c8 <MagnetMaze+0x42>
     7c6:	d8 c0       	rjmp	.+432    	; 0x978 <MagnetMaze+0x1f2>
     7c8:	80 91 f1 3a 	lds	r24, 0x3AF1	; 0x803af1 <calHall>
        return 0;

    if (calHall == 0)
     7cc:	90 91 f2 3a 	lds	r25, 0x3AF2	; 0x803af2 <calHall+0x1>
     7d0:	89 2b       	or	r24, r25
     7d2:	41 f4       	brne	.+16     	; 0x7e4 <MagnetMaze+0x5e>
     7d4:	80 91 c1 3a 	lds	r24, 0x3AC1	; 0x803ac1 <adcHall>
        calHall = adcHall;
     7d8:	90 91 c2 3a 	lds	r25, 0x3AC2	; 0x803ac2 <adcHall+0x1>
     7dc:	80 93 f1 3a 	sts	0x3AF1, r24	; 0x803af1 <calHall>
     7e0:	90 93 f2 3a 	sts	0x3AF2, r25	; 0x803af2 <calHall+0x1>
     7e4:	c0 91 c1 3a 	lds	r28, 0x3AC1	; 0x803ac1 <adcHall>

    int16_t valHall = adcHall - calHall;
     7e8:	d0 91 c2 3a 	lds	r29, 0x3AC2	; 0x803ac2 <adcHall+0x1>
     7ec:	80 91 f1 3a 	lds	r24, 0x3AF1	; 0x803af1 <calHall>
     7f0:	90 91 f2 3a 	lds	r25, 0x3AF2	; 0x803af2 <calHall+0x1>
     7f4:	c8 1b       	sub	r28, r24
     7f6:	d9 0b       	sbc	r29, r25
    showFieldStrength(valHall);
     7f8:	ce 01       	movw	r24, r28
     7fa:	94 df       	rcall	.-216    	; 0x724 <showFieldStrength>
     7fc:	80 91 52 38 	lds	r24, 0x3852	; 0x803852 <curHallState>

    switch (curHallState) {
     800:	81 30       	cpi	r24, 0x01	; 1
     802:	89 f0       	breq	.+34     	; 0x826 <MagnetMaze+0xa0>
     804:	18 f0       	brcs	.+6      	; 0x80c <MagnetMaze+0x86>
     806:	82 30       	cpi	r24, 0x02	; 2
     808:	c1 f0       	breq	.+48     	; 0x83a <MagnetMaze+0xb4>
     80a:	1f c0       	rjmp	.+62     	; 0x84a <MagnetMaze+0xc4>
     80c:	c4 3d       	cpi	r28, 0xD4	; 212
        case 0:
            if ( valHall + HALL_HIGH < 0 ) {
     80e:	9e ef       	ldi	r25, 0xFE	; 254
     810:	d9 07       	cpc	r29, r25
     812:	14 f4       	brge	.+4      	; 0x818 <MagnetMaze+0x92>
     814:	91 e0       	ldi	r25, 0x01	; 1
                newHallState = 1;
     816:	04 c0       	rjmp	.+8      	; 0x820 <MagnetMaze+0x9a>
     818:	cd 32       	cpi	r28, 0x2D	; 45
            } else if ( valHall - HALL_HIGH > 0 ) {
     81a:	d1 40       	sbci	r29, 0x01	; 1
     81c:	5c f0       	brlt	.+22     	; 0x834 <MagnetMaze+0xae>
     81e:	92 e0       	ldi	r25, 0x02	; 2
                newHallState = 2;
     820:	90 93 51 38 	sts	0x3851, r25	; 0x803851 <newHallState>
     824:	12 c0       	rjmp	.+36     	; 0x84a <MagnetMaze+0xc4>
     826:	cd 32       	cpi	r28, 0x2D	; 45
                newHallState = 0;
            }
            break;
        
        case 1:
            if ( valHall - HALL_HIGH > 0 ) {
     828:	91 e0       	ldi	r25, 0x01	; 1
     82a:	d9 07       	cpc	r29, r25
     82c:	c4 f7       	brge	.-16     	; 0x81e <MagnetMaze+0x98>
     82e:	c9 38       	cpi	r28, 0x89	; 137
                newHallState = 2;
            } else if ( valHall + HALL_LOW > 0 ) {
     830:	df 4f       	sbci	r29, 0xFF	; 255
     832:	84 f3       	brlt	.-32     	; 0x814 <MagnetMaze+0x8e>
     834:	10 92 51 38 	sts	0x3851, r1	; 0x803851 <newHallState>
            if ( valHall + HALL_HIGH < 0 ) {
                newHallState = 1;
            } else if ( valHall - HALL_HIGH > 0 ) {
                newHallState = 2;
            } else {
                newHallState = 0;
     838:	08 c0       	rjmp	.+16     	; 0x84a <MagnetMaze+0xc4>
     83a:	c4 3d       	cpi	r28, 0xD4	; 212
                newHallState = 1;
            }
            break;
        
        case 2:
            if ( valHall + HALL_HIGH < 0 ) {
     83c:	9e ef       	ldi	r25, 0xFE	; 254
     83e:	d9 07       	cpc	r29, r25
     840:	4c f3       	brlt	.-46     	; 0x814 <MagnetMaze+0x8e>
     842:	c8 37       	cpi	r28, 0x78	; 120
                newHallState = 1;
            } else if ( valHall - HALL_LOW < 0 ) {
     844:	d1 05       	cpc	r29, r1
     846:	b4 f3       	brlt	.-20     	; 0x834 <MagnetMaze+0xae>
     848:	ea cf       	rjmp	.-44     	; 0x81e <MagnetMaze+0x98>
     84a:	c0 91 5e bf 	lds	r28, 0xBF5E	; 0x80bf5e <__bss_end+0x8446>
            }
            break;
    }

    /* Indicate that the magnet was read succesfully */
    iLED[CAT] = (newHallState ? dimValue : 0);
     84e:	ec 2f       	mov	r30, r28
     850:	f0 e0       	ldi	r31, 0x00	; 0
     852:	90 91 51 38 	lds	r25, 0x3851	; 0x803851 <newHallState>
     856:	99 23       	and	r25, r25
     858:	19 f0       	breq	.+6      	; 0x860 <MagnetMaze+0xda>
     85a:	20 91 0c 38 	lds	r18, 0x380C	; 0x80380c <dimValue>
     85e:	01 c0       	rjmp	.+2      	; 0x862 <MagnetMaze+0xdc>
     860:	20 e0       	ldi	r18, 0x00	; 0
     862:	e7 53       	subi	r30, 0x37	; 55
     864:	f5 4c       	sbci	r31, 0xC5	; 197
     866:	20 83       	st	Z, r18
     868:	2f e9       	ldi	r18, 0x9F	; 159
    effect = 0x19f;
     86a:	31 e0       	ldi	r19, 0x01	; 1
     86c:	20 93 40 38 	sts	0x3840, r18	; 0x803840 <effect>
     870:	30 93 41 38 	sts	0x3841, r19	; 0x803841 <effect+0x1>
     874:	89 17       	cp	r24, r25

    if (newHallState != curHallState) {
     876:	09 f4       	brne	.+2      	; 0x87a <MagnetMaze+0xf4>
     878:	7f c0       	rjmp	.+254    	; 0x978 <MagnetMaze+0x1f2>
     87a:	0e 94 52 0e 	call	0x1ca4	; 0x1ca4 <getClock>
        /* keep track of time to enable an idle timeout to exit the game */
        mazeLastActive = getClock();
     87e:	80 93 4b 38 	sts	0x384B, r24	; 0x80384b <mazeLastActive>
     882:	90 93 4c 38 	sts	0x384C, r25	; 0x80384c <mazeLastActive+0x1>
     886:	90 91 50 38 	lds	r25, 0x3850	; 0x803850 <mazePos>

        /* Make the maze work regardless of badge orientation */
        if ((mazePos == 0) && (newHallState != 0))
     88a:	80 91 51 38 	lds	r24, 0x3851	; 0x803851 <newHallState>
     88e:	91 11       	cpse	r25, r1
     890:	08 c0       	rjmp	.+16     	; 0x8a2 <MagnetMaze+0x11c>
     892:	88 23       	and	r24, r24
     894:	31 f0       	breq	.+12     	; 0x8a2 <MagnetMaze+0x11c>
     896:	91 e0       	ldi	r25, 0x01	; 1
            inverted = (newHallState != mazeCode[0]) ? TRUE : FALSE;
     898:	81 30       	cpi	r24, 0x01	; 1
     89a:	09 f4       	brne	.+2      	; 0x89e <MagnetMaze+0x118>
     89c:	90 e0       	ldi	r25, 0x00	; 0
     89e:	90 93 4d 38 	sts	0x384D, r25	; 0x80384d <inverted>
     8a2:	80 93 52 38 	sts	0x3852, r24	; 0x803852 <curHallState>

        curHallState = newHallState;
     8a6:	88 23       	and	r24, r24
        
        if (curHallState != 0) {
     8a8:	09 f4       	brne	.+2      	; 0x8ac <MagnetMaze+0x126>
     8aa:	66 c0       	rjmp	.+204    	; 0x978 <MagnetMaze+0x1f2>
     8ac:	80 91 42 38 	lds	r24, 0x3842	; 0x803842 <gameNow>
            if (gameNow == TEXT)
     8b0:	81 11       	cpse	r24, r1
     8b2:	01 c0       	rjmp	.+2      	; 0x8b6 <MagnetMaze+0x130>
                initMaze();
     8b4:	2b df       	rcall	.-426    	; 0x70c <initMaze>
     8b6:	81 e0       	ldi	r24, 0x01	; 1
            gameNow = MAZE;
     8b8:	80 93 42 38 	sts	0x3842, r24	; 0x803842 <gameNow>
     8bc:	80 91 4d 38 	lds	r24, 0x384D	; 0x80384d <inverted>

            if ( (inverted ? curHallState^3 : curHallState) == mazeCode[mazePos]) {
     8c0:	20 91 52 38 	lds	r18, 0x3852	; 0x803852 <curHallState>
     8c4:	88 23       	and	r24, r24
     8c6:	11 f0       	breq	.+4      	; 0x8cc <MagnetMaze+0x146>
     8c8:	83 e0       	ldi	r24, 0x03	; 3
     8ca:	28 27       	eor	r18, r24
     8cc:	30 e0       	ldi	r19, 0x00	; 0
     8ce:	80 91 50 38 	lds	r24, 0x3850	; 0x803850 <mazePos>
     8d2:	e8 2f       	mov	r30, r24
     8d4:	f0 e0       	ldi	r31, 0x00	; 0
     8d6:	e4 55       	subi	r30, 0x54	; 84
     8d8:	f0 44       	sbci	r31, 0x40	; 64
     8da:	40 81       	ld	r20, Z
     8dc:	50 e0       	ldi	r21, 0x00	; 0
     8de:	24 17       	cp	r18, r20
     8e0:	35 07       	cpc	r19, r21
     8e2:	91 f4       	brne	.+36     	; 0x908 <MagnetMaze+0x182>
     8e4:	90 91 0d 38 	lds	r25, 0x380D	; 0x80380d <mazeState>
                mazeState &= TRUE;
     8e8:	91 70       	andi	r25, 0x01	; 1
     8ea:	90 93 0d 38 	sts	0x380D, r25	; 0x80380d <mazeState>
     8ee:	e0 91 6d bf 	lds	r30, 0xBF6D	; 0x80bf6d <__bss_end+0x8455>
                iLED[EYE[R][L]] = 0;
     8f2:	f0 e0       	ldi	r31, 0x00	; 0
     8f4:	e7 53       	subi	r30, 0x37	; 55
     8f6:	f5 4c       	sbci	r31, 0xC5	; 197
     8f8:	10 82       	st	Z, r1
     8fa:	e0 91 6c bf 	lds	r30, 0xBF6C	; 0x80bf6c <__bss_end+0x8454>
                iLED[EYE[R][R]] = 0;
     8fe:	f0 e0       	ldi	r31, 0x00	; 0
     900:	e7 53       	subi	r30, 0x37	; 55
     902:	f5 4c       	sbci	r31, 0xC5	; 197
     904:	10 82       	st	Z, r1
     906:	02 c0       	rjmp	.+4      	; 0x90c <MagnetMaze+0x186>
     908:	10 92 0d 38 	sts	0x380D, r1	; 0x80380d <mazeState>
            } else {
                mazeState = FALSE;
     90c:	8f 5f       	subi	r24, 0xFF	; 255
            }
            mazePos++;
     90e:	80 93 50 38 	sts	0x3850, r24	; 0x803850 <mazePos>
     912:	90 91 4e 38 	lds	r25, 0x384E	; 0x80384e <mazeCnt>
            mazeCnt++;            
     916:	9f 5f       	subi	r25, 0xFF	; 255
     918:	93 30       	cpi	r25, 0x03	; 3
            if (mazeCnt >= 3) {
     91a:	18 f4       	brcc	.+6      	; 0x922 <MagnetMaze+0x19c>
     91c:	90 93 4e 38 	sts	0x384E, r25	; 0x80384e <mazeCnt>
                iLED[EYE[R][R]] = 0;
            } else {
                mazeState = FALSE;
            }
            mazePos++;
            mazeCnt++;            
     920:	2b c0       	rjmp	.+86     	; 0x978 <MagnetMaze+0x1f2>
     922:	10 92 4e 38 	sts	0x384E, r1	; 0x80384e <mazeCnt>
            if (mazeCnt >= 3) {
                mazeCnt = 0;
     926:	90 91 0d 38 	lds	r25, 0x380D	; 0x80380d <mazeState>
                if (mazeState == TRUE) {
     92a:	91 30       	cpi	r25, 0x01	; 1
     92c:	e1 f4       	brne	.+56     	; 0x966 <MagnetMaze+0x1e0>
     92e:	90 91 4f 38 	lds	r25, 0x384F	; 0x80384f <mazeHckrPos>
                    iLED[HCKR[G][mazeHckrPos]] = dimValue;
     932:	e9 2f       	mov	r30, r25
     934:	f0 e0       	ldi	r31, 0x00	; 0
     936:	e0 59       	subi	r30, 0x90	; 144
     938:	f0 44       	sbci	r31, 0x40	; 64
     93a:	e6 81       	ldd	r30, Z+6	; 0x06
     93c:	f0 e0       	ldi	r31, 0x00	; 0
     93e:	20 91 0c 38 	lds	r18, 0x380C	; 0x80380c <dimValue>
     942:	e7 53       	subi	r30, 0x37	; 55
     944:	f5 4c       	sbci	r31, 0xC5	; 197
     946:	20 83       	st	Z, r18
     948:	9f 5f       	subi	r25, 0xFF	; 255
                    mazeHckrPos++;
     94a:	90 93 4f 38 	sts	0x384F, r25	; 0x80384f <mazeHckrPos>
                    if (mazePos == sizeof(mazeCode)) {
     94e:	82 31       	cpi	r24, 0x12	; 18
     950:	99 f4       	brne	.+38     	; 0x978 <MagnetMaze+0x1f2>
                        UpdateState(MAZE_COMPLETED);
     952:	8d e7       	ldi	r24, 0x7D	; 125
     954:	49 d5       	rcall	.+2706   	; 0x13e8 <UpdateState>
     956:	ec 2f       	mov	r30, r28
                        iLED[CAT]       = 0;
     958:	f0 e0       	ldi	r31, 0x00	; 0
     95a:	e7 53       	subi	r30, 0x37	; 55
     95c:	f5 4c       	sbci	r31, 0xC5	; 197
     95e:	10 82       	st	Z, r1
                        effect = 0x42;
     960:	82 e4       	ldi	r24, 0x42	; 66
     962:	90 e0       	ldi	r25, 0x00	; 0
     964:	05 c0       	rjmp	.+10     	; 0x970 <MagnetMaze+0x1ea>
                        /*TODO state = STATE_MUSIC;*/
                    }
                } else {
                    initMaze();
     966:	d2 de       	rcall	.-604    	; 0x70c <initMaze>
     968:	10 92 42 38 	sts	0x3842, r1	; 0x803842 <gameNow>
                    gameNow   = TEXT;
     96c:	81 e2       	ldi	r24, 0x21	; 33
                    effect = 0x21;
     96e:	90 e0       	ldi	r25, 0x00	; 0
     970:	80 93 40 38 	sts	0x3840, r24	; 0x803840 <effect>
     974:	90 93 41 38 	sts	0x3841, r25	; 0x803841 <effect+0x1>
     978:	80 e0       	ldi	r24, 0x00	; 0
                }
            }
        }
    }
    return 0;
}
     97a:	df 91       	pop	r29
     97c:	cf 91       	pop	r28
     97e:	08 95       	ret

00000980 <Setup>:
     980:	cf 93       	push	r28
volatile uint16_t tmp16bit;    
volatile uint8_t mask[8] = {0x01, 0x03, 0x07, 0x0f, 0x1f, 0x3f, 0x7f, 0xff};
uint8_t HeartCount = 0;
uint8_t LedCount = 0;

void Setup(){
     982:	df 93       	push	r29
    cli();
     984:	f8 94       	cli

    //Set up clock at 10MHz
    CCP = CCP_IOREG_gc;
     986:	88 ed       	ldi	r24, 0xD8	; 216
     988:	84 bf       	out	0x34, r24	; 52
    CLKCTRL_MCLKCTRLB = 0x01;
     98a:	c1 e0       	ldi	r28, 0x01	; 1
     98c:	c0 93 61 00 	sts	0x0061, r28	; 0x800061 <__TEXT_REGION_LENGTH__+0x700061>

    //Set I/O direction registers
    PORTA_DIR = 0b01001010;
     990:	8a e4       	ldi	r24, 0x4A	; 74
     992:	80 93 00 04 	sts	0x0400, r24	; 0x800400 <__TEXT_REGION_LENGTH__+0x700400>
    PORTB_DIR = 0b01111100;
     996:	8c e7       	ldi	r24, 0x7C	; 124
     998:	80 93 20 04 	sts	0x0420, r24	; 0x800420 <__TEXT_REGION_LENGTH__+0x700420>
    PORTC_DIR = 0b00111111;
     99c:	9f e3       	ldi	r25, 0x3F	; 63
     99e:	90 93 40 04 	sts	0x0440, r25	; 0x800440 <__TEXT_REGION_LENGTH__+0x700440>

    //Invert some pins for correcting LED reversal error
    PORTC_PIN3CTRL |= 0x80;
     9a2:	80 91 53 04 	lds	r24, 0x0453	; 0x800453 <__TEXT_REGION_LENGTH__+0x700453>
     9a6:	80 68       	ori	r24, 0x80	; 128
     9a8:	80 93 53 04 	sts	0x0453, r24	; 0x800453 <__TEXT_REGION_LENGTH__+0x700453>
    PORTC_PIN4CTRL |= 0x80;
     9ac:	80 91 54 04 	lds	r24, 0x0454	; 0x800454 <__TEXT_REGION_LENGTH__+0x700454>
     9b0:	80 68       	ori	r24, 0x80	; 128
     9b2:	80 93 54 04 	sts	0x0454, r24	; 0x800454 <__TEXT_REGION_LENGTH__+0x700454>
    PORTC_PIN5CTRL |= 0x80;
     9b6:	80 91 55 04 	lds	r24, 0x0455	; 0x800455 <__TEXT_REGION_LENGTH__+0x700455>
     9ba:	80 68       	ori	r24, 0x80	; 128
     9bc:	80 93 55 04 	sts	0x0455, r24	; 0x800455 <__TEXT_REGION_LENGTH__+0x700455>
    PORTB_PIN3CTRL |= 0x80;
     9c0:	80 91 33 04 	lds	r24, 0x0433	; 0x800433 <__TEXT_REGION_LENGTH__+0x700433>
     9c4:	80 68       	ori	r24, 0x80	; 128
     9c6:	80 93 33 04 	sts	0x0433, r24	; 0x800433 <__TEXT_REGION_LENGTH__+0x700433>
    PORTB_PIN4CTRL |= 0x80;
     9ca:	80 91 34 04 	lds	r24, 0x0434	; 0x800434 <__TEXT_REGION_LENGTH__+0x700434>
     9ce:	80 68       	ori	r24, 0x80	; 128
     9d0:	80 93 34 04 	sts	0x0434, r24	; 0x800434 <__TEXT_REGION_LENGTH__+0x700434>
    PORTB_PIN5CTRL |= 0x80;
     9d4:	80 91 35 04 	lds	r24, 0x0435	; 0x800435 <__TEXT_REGION_LENGTH__+0x700435>
     9d8:	80 68       	ori	r24, 0x80	; 128
     9da:	80 93 35 04 	sts	0x0435, r24	; 0x800435 <__TEXT_REGION_LENGTH__+0x700435>
    PORTB_PIN2CTRL |= 0x80;
    PORTB_PIN6CTRL |= 0x80;
    */

    //UART (Alternative pins PA1=TxD, PA2=RxD, baudrate 9600, 8n1, RX and Buffer empty interrupts on)
    PORTMUX_CTRLB = 0x01;
     9de:	c0 93 01 02 	sts	0x0201, r28	; 0x800201 <__TEXT_REGION_LENGTH__+0x700201>
    PORTA_OUTSET = 0x02;
     9e2:	d2 e0       	ldi	r29, 0x02	; 2
     9e4:	d0 93 05 04 	sts	0x0405, r29	; 0x800405 <__TEXT_REGION_LENGTH__+0x700405>
    USART0_BAUD = (uint16_t)USART0_BAUD_RATE(115200);
     9e8:	2b e5       	ldi	r18, 0x5B	; 91
     9ea:	31 e0       	ldi	r19, 0x01	; 1
     9ec:	20 93 08 08 	sts	0x0808, r18	; 0x800808 <__TEXT_REGION_LENGTH__+0x700808>
     9f0:	30 93 09 08 	sts	0x0809, r19	; 0x800809 <__TEXT_REGION_LENGTH__+0x700809>
    USART0_CTRLA = 0xA0; //Interrupts on
     9f4:	80 ea       	ldi	r24, 0xA0	; 160
     9f6:	80 93 05 08 	sts	0x0805, r24	; 0x800805 <__TEXT_REGION_LENGTH__+0x700805>
    USART0_CTRLB = 0xC0; //RX and TX on
     9fa:	80 ec       	ldi	r24, 0xC0	; 192
     9fc:	80 93 06 08 	sts	0x0806, r24	; 0x800806 <__TEXT_REGION_LENGTH__+0x700806>
    USART0_CTRLC = 0x03; //8 bits data, no parity, 1 stop bit
     a00:	83 e0       	ldi	r24, 0x03	; 3
     a02:	80 93 07 08 	sts	0x0807, r24	; 0x800807 <__TEXT_REGION_LENGTH__+0x700807>
     
    //GPIO registers 0..3 can be used for global variables used in ISR routines (ASM capability: IN, OUT, SBI, CBI, SBIS, SBIC)
    L_COL = 0;     //Used in LED array to hold currently driven column value
     a06:	1c ba       	out	0x1c, r1	; 28
    RXCNT = 0;     //Used as UART receive counter
     a08:	1d ba       	out	0x1d, r1	; 29
    GPIOR3 = 0;    //
     a0a:	1f ba       	out	0x1f, r1	; 31

    //Init TCA (split mode, f_CLK/16, PWM on 6 alternative pins, underflow int enabled, synced and started)
    TCA0_SPLIT_CTRLD = 1;
     a0c:	c0 93 03 0a 	sts	0x0A03, r28	; 0x800a03 <__TEXT_REGION_LENGTH__+0x700a03>
    TCA0_SPLIT_CTRLA = (0x4)<<1;
     a10:	88 e0       	ldi	r24, 0x08	; 8
     a12:	80 93 00 0a 	sts	0x0A00, r24	; 0x800a00 <__TEXT_REGION_LENGTH__+0x700a00>
    PORTMUX_CTRLC = 0x3F;
     a16:	90 93 02 02 	sts	0x0202, r25	; 0x800202 <__TEXT_REGION_LENGTH__+0x700202>
    TCA0_SPLIT_CTRLB = 0x77;
     a1a:	87 e7       	ldi	r24, 0x77	; 119
     a1c:	80 93 01 0a 	sts	0x0A01, r24	; 0x800a01 <__TEXT_REGION_LENGTH__+0x700a01>
    TCA0_SPLIT_INTCTRL = 0x1;
     a20:	c0 93 0a 0a 	sts	0x0A0A, r28	; 0x800a0a <__TEXT_REGION_LENGTH__+0x700a0a>
    TCA0_SPLIT_CTRLESET = ((0x2)<<2)|0x3;
     a24:	8b e0       	ldi	r24, 0x0B	; 11
     a26:	80 93 05 0a 	sts	0x0A05, r24	; 0x800a05 <__TEXT_REGION_LENGTH__+0x700a05>
    TCA0_SPLIT_CTRLA |= 1;
     a2a:	80 91 00 0a 	lds	r24, 0x0A00	; 0x800a00 <__TEXT_REGION_LENGTH__+0x700a00>
     a2e:	81 60       	ori	r24, 0x01	; 1
     a30:	80 93 00 0a 	sts	0x0A00, r24	; 0x800a00 <__TEXT_REGION_LENGTH__+0x700a00>
     
    //Init TCB0 (compare value sets serial Tx pause between characters, uses TCA0 prescaler, enabled, interrupt disabled)
    TCB0_CTRLA = ((0x02)<<1)|0x01;
     a34:	85 e0       	ldi	r24, 0x05	; 5
     a36:	80 93 40 0a 	sts	0x0A40, r24	; 0x800a40 <__TEXT_REGION_LENGTH__+0x700a40>
    TCB0_CTRLB = 0;
     a3a:	10 92 41 0a 	sts	0x0A41, r1	; 0x800a41 <__TEXT_REGION_LENGTH__+0x700a41>
    TCB0_CCMP = 0x01FF;
     a3e:	8f ef       	ldi	r24, 0xFF	; 255
     a40:	91 e0       	ldi	r25, 0x01	; 1
     a42:	80 93 4c 0a 	sts	0x0A4C, r24	; 0x800a4c <__TEXT_REGION_LENGTH__+0x700a4c>
     a46:	90 93 4d 0a 	sts	0x0A4D, r25	; 0x800a4d <__TEXT_REGION_LENGTH__+0x700a4d>
    TCB0_INTCTRL = 0x00;     
     a4a:	10 92 45 0a 	sts	0x0A45, r1	; 0x800a45 <__TEXT_REGION_LENGTH__+0x700a45>
     
    //Init TCB1 (compare value sets audio sample rate (0x038B = 11025sps), enabled, interrupt enabled)
    TCB1_CTRLA = 0x01;
     a4e:	c0 93 50 0a 	sts	0x0A50, r28	; 0x800a50 <__TEXT_REGION_LENGTH__+0x700a50>
    TCB1_CTRLB = 0;
     a52:	10 92 51 0a 	sts	0x0A51, r1	; 0x800a51 <__TEXT_REGION_LENGTH__+0x700a51>
    TCB1_CCMP = 0x038B;
     a56:	8b e8       	ldi	r24, 0x8B	; 139
     a58:	93 e0       	ldi	r25, 0x03	; 3
     a5a:	80 93 5c 0a 	sts	0x0A5C, r24	; 0x800a5c <__TEXT_REGION_LENGTH__+0x700a5c>
     a5e:	90 93 5d 0a 	sts	0x0A5D, r25	; 0x800a5d <__TEXT_REGION_LENGTH__+0x700a5d>
    TCB1_INTCTRL = 0x01;
     a62:	c0 93 55 0a 	sts	0x0A55, r28	; 0x800a55 <__TEXT_REGION_LENGTH__+0x700a55>

    //Init I2C (100kHz)
    I2C_init();
     a66:	53 dc       	rcall	.-1882   	; 0x30e <I2C_init>

    //VREF (DAC, ADC's)
    VREF_CTRLA   = 0x12;    //0x22 for audio in/out (2.5V), 0x12 for temperature in, audio out (1.1V/2.5V)
     a68:	82 e1       	ldi	r24, 0x12	; 18
     a6a:	80 93 a0 00 	sts	0x00A0, r24	; 0x8000a0 <__TEXT_REGION_LENGTH__+0x7000a0>
    VREF_CTRLC   = 0x20;    //ADC1 reference at 2.5V
     a6e:	80 e2       	ldi	r24, 0x20	; 32
     a70:	80 93 a2 00 	sts	0x00A2, r24	; 0x8000a2 <__TEXT_REGION_LENGTH__+0x7000a2>
    VREF_CTRLB   = 0x01;    //DAC0 ref forced enabled
     a74:	c0 93 a1 00 	sts	0x00A1, r28	; 0x8000a1 <__TEXT_REGION_LENGTH__+0x7000a1>

    //Init ADC0 (audio in, also controls DAC output rate, internal temperature?)
    ADC0_CTRLA   = 0x02;    //10 bit resolution, free running
     a78:	d0 93 00 06 	sts	0x0600, r29	; 0x800600 <__TEXT_REGION_LENGTH__+0x700600>
    ADC0_CTRLC   = 0x44;    //Reduced sample capacitor, internal reference, clock/32 => 24038sps
     a7c:	84 e4       	ldi	r24, 0x44	; 68
     a7e:	80 93 02 06 	sts	0x0602, r24	; 0x800602 <__TEXT_REGION_LENGTH__+0x700602>
    ADC0_MUXPOS  = 0x1E;    //Audio in: AIN7 at (0x07), Temperature: Internal sensor at (0x1E)
     a82:	8e e1       	ldi	r24, 0x1E	; 30
     a84:	80 93 06 06 	sts	0x0606, r24	; 0x800606 <__TEXT_REGION_LENGTH__+0x700606>
    ADC0_INTCTRL = 0x01;    //Result ready interrupt enabled
     a88:	c0 93 0a 06 	sts	0x060A, r28	; 0x80060a <__TEXT_REGION_LENGTH__+0x70060a>
    ADC0_CTRLA  |= 0x01;    //ADC0 enabled
     a8c:	80 91 00 06 	lds	r24, 0x0600	; 0x800600 <__TEXT_REGION_LENGTH__+0x700600>
     a90:	81 60       	ori	r24, 0x01	; 1
     a92:	80 93 00 06 	sts	0x0600, r24	; 0x800600 <__TEXT_REGION_LENGTH__+0x700600>
    ADC0_COMMAND = 0x01;    //Start first conversion, after that it will run periodically.
     a96:	c0 93 08 06 	sts	0x0608, r28	; 0x800608 <__TEXT_REGION_LENGTH__+0x700608>

    //Init ADC1 (buttons and sensors: CH0=Photo transistor, CH1=Hall, CH4=Buttons)
    ADC1_CTRLA   = 0;
     a9a:	10 92 40 06 	sts	0x0640, r1	; 0x800640 <__TEXT_REGION_LENGTH__+0x700640>
    ADC1_CTRLB   = 0x02;    //4 results automatically accumulated
     a9e:	d0 93 41 06 	sts	0x0641, r29	; 0x800641 <__TEXT_REGION_LENGTH__+0x700641>
    ADC1_CTRLC   = 0x52;    //Reduced sample capacitor, VDD as reference, clock/8
     aa2:	82 e5       	ldi	r24, 0x52	; 82
     aa4:	80 93 42 06 	sts	0x0642, r24	; 0x800642 <__TEXT_REGION_LENGTH__+0x700642>
    ADC1_SAMPCTRL= 0x04;    //Extend sampling time with 4 cycles (6 total)
     aa8:	84 e0       	ldi	r24, 0x04	; 4
     aaa:	80 93 45 06 	sts	0x0645, r24	; 0x800645 <__TEXT_REGION_LENGTH__+0x700645>
    ADC1_MUXPOS  = 0x04;    //Start with Buttons, for sensors, activate sensor power first.
     aae:	80 93 46 06 	sts	0x0646, r24	; 0x800646 <__TEXT_REGION_LENGTH__+0x700646>
    ADC1_INTCTRL = 0x01;    //Result ready interrupt enabled
     ab2:	c0 93 4a 06 	sts	0x064A, r28	; 0x80064a <__TEXT_REGION_LENGTH__+0x70064a>
    ADC1_CTRLA  |= 0x01;    //ADC0 enabled
     ab6:	80 91 40 06 	lds	r24, 0x0640	; 0x800640 <__TEXT_REGION_LENGTH__+0x700640>
     aba:	81 60       	ori	r24, 0x01	; 1
     abc:	80 93 40 06 	sts	0x0640, r24	; 0x800640 <__TEXT_REGION_LENGTH__+0x700640>
    ADC1_COMMAND = 0x01;    //Start single conversion
     ac0:	c0 93 48 06 	sts	0x0648, r28	; 0x800648 <__TEXT_REGION_LENGTH__+0x700648>

    //Init DAC0
    DAC0_CTRLA = 0x40;     //Enable output buffer (connect to pin)
     ac4:	80 e4       	ldi	r24, 0x40	; 64
     ac6:	80 93 a0 06 	sts	0x06A0, r24	; 0x8006a0 <__TEXT_REGION_LENGTH__+0x7006a0>
    DAC0_DATA = 0x80;      //Data value at half point (about 1.25V)
     aca:	80 e8       	ldi	r24, 0x80	; 128
     acc:	80 93 a1 06 	sts	0x06A1, r24	; 0x8006a1 <__TEXT_REGION_LENGTH__+0x7006a1>
    DAC0_CTRLA |= 0x01;    //Enable DAC
     ad0:	80 91 a0 06 	lds	r24, 0x06A0	; 0x8006a0 <__TEXT_REGION_LENGTH__+0x7006a0>
     ad4:	81 60       	ori	r24, 0x01	; 1
     ad6:	80 93 a0 06 	sts	0x06A0, r24	; 0x8006a0 <__TEXT_REGION_LENGTH__+0x7006a0>
     
    //PIT and RTC interrupts
    while(RTC_STATUS & RTC_CTRLABUSY_bm);
     ada:	80 91 41 01 	lds	r24, 0x0141	; 0x800141 <__TEXT_REGION_LENGTH__+0x700141>
     ade:	80 fd       	sbrc	r24, 0
     ae0:	fc cf       	rjmp	.-8      	; 0xada <Setup+0x15a>
    RTC_CTRLA          = (0x6)<<3;                         //Prescaler: /64
     ae2:	80 e3       	ldi	r24, 0x30	; 48
     ae4:	80 93 40 01 	sts	0x0140, r24	; 0x800140 <__TEXT_REGION_LENGTH__+0x700140>
    RTC_CLKSEL         = 0;                                //Clock source: internal 32768Hz clock
     ae8:	10 92 47 01 	sts	0x0147, r1	; 0x800147 <__TEXT_REGION_LENGTH__+0x700147>
    while(RTC_STATUS & RTC_PERBUSY_bm);
     aec:	80 91 41 01 	lds	r24, 0x0141	; 0x800141 <__TEXT_REGION_LENGTH__+0x700141>
     af0:	82 fd       	sbrc	r24, 2
     af2:	fc cf       	rjmp	.-8      	; 0xaec <Setup+0x16c>
    RTC_PER            = 512*60;                           //60 second period (for clocking how long the device has been running?)
     af4:	80 e0       	ldi	r24, 0x00	; 0
     af6:	98 e7       	ldi	r25, 0x78	; 120
     af8:	80 93 4a 01 	sts	0x014A, r24	; 0x80014a <__TEXT_REGION_LENGTH__+0x70014a>
     afc:	90 93 4b 01 	sts	0x014B, r25	; 0x80014b <__TEXT_REGION_LENGTH__+0x70014b>
    tmp16bit = (RTC_CNT + BTN_TMR);
     b00:	80 91 48 01 	lds	r24, 0x0148	; 0x800148 <__TEXT_REGION_LENGTH__+0x700148>
     b04:	90 91 49 01 	lds	r25, 0x0149	; 0x800149 <__TEXT_REGION_LENGTH__+0x700149>
     b08:	82 96       	adiw	r24, 0x22	; 34
     b0a:	80 93 f5 3a 	sts	0x3AF5, r24	; 0x803af5 <tmp16bit>
     b0e:	90 93 f6 3a 	sts	0x3AF6, r25	; 0x803af6 <tmp16bit+0x1>
    if (tmp16bit > RTC_PER) tmp16bit -= RTC_PER;
     b12:	20 91 4a 01 	lds	r18, 0x014A	; 0x80014a <__TEXT_REGION_LENGTH__+0x70014a>
     b16:	30 91 4b 01 	lds	r19, 0x014B	; 0x80014b <__TEXT_REGION_LENGTH__+0x70014b>
     b1a:	80 91 f5 3a 	lds	r24, 0x3AF5	; 0x803af5 <tmp16bit>
     b1e:	90 91 f6 3a 	lds	r25, 0x3AF6	; 0x803af6 <tmp16bit+0x1>
     b22:	28 17       	cp	r18, r24
     b24:	39 07       	cpc	r19, r25
     b26:	70 f4       	brcc	.+28     	; 0xb44 <Setup+0x1c4>
     b28:	20 91 4a 01 	lds	r18, 0x014A	; 0x80014a <__TEXT_REGION_LENGTH__+0x70014a>
     b2c:	30 91 4b 01 	lds	r19, 0x014B	; 0x80014b <__TEXT_REGION_LENGTH__+0x70014b>
     b30:	80 91 f5 3a 	lds	r24, 0x3AF5	; 0x803af5 <tmp16bit>
     b34:	90 91 f6 3a 	lds	r25, 0x3AF6	; 0x803af6 <tmp16bit+0x1>
     b38:	82 1b       	sub	r24, r18
     b3a:	93 0b       	sbc	r25, r19
     b3c:	80 93 f5 3a 	sts	0x3AF5, r24	; 0x803af5 <tmp16bit>
     b40:	90 93 f6 3a 	sts	0x3AF6, r25	; 0x803af6 <tmp16bit+0x1>
    while(RTC_STATUS & RTC_CMPBUSY_bm);
     b44:	80 91 41 01 	lds	r24, 0x0141	; 0x800141 <__TEXT_REGION_LENGTH__+0x700141>
     b48:	83 fd       	sbrc	r24, 3
     b4a:	fc cf       	rjmp	.-8      	; 0xb44 <Setup+0x1c4>
    RTC_CMP            = tmp16bit;                         //Button timing
     b4c:	80 91 f5 3a 	lds	r24, 0x3AF5	; 0x803af5 <tmp16bit>
     b50:	90 91 f6 3a 	lds	r25, 0x3AF6	; 0x803af6 <tmp16bit+0x1>
     b54:	80 93 4c 01 	sts	0x014C, r24	; 0x80014c <__TEXT_REGION_LENGTH__+0x70014c>
     b58:	90 93 4d 01 	sts	0x014D, r25	; 0x80014d <__TEXT_REGION_LENGTH__+0x70014d>
    RTC_INTCTRL        = 0x03;                             //RTC overflow interrupt enabled
     b5c:	83 e0       	ldi	r24, 0x03	; 3
     b5e:	80 93 42 01 	sts	0x0142, r24	; 0x800142 <__TEXT_REGION_LENGTH__+0x700142>
    RTC_PITINTCTRL     = 0x01;                             //PIT interrupt enabled
     b62:	81 e0       	ldi	r24, 0x01	; 1
     b64:	80 93 52 01 	sts	0x0152, r24	; 0x800152 <__TEXT_REGION_LENGTH__+0x700152>
    RTC_PITCTRLA       = (0x1)<<3;                         //Interrupt fires after 4 RTC clock cycles Rate=(RTCCLK/(PRESC*PERIOD)) 32768/256=128Hz
     b68:	88 e0       	ldi	r24, 0x08	; 8
     b6a:	80 93 50 01 	sts	0x0150, r24	; 0x800150 <__TEXT_REGION_LENGTH__+0x700150>
    while(RTC_STATUS & RTC_CTRLABUSY_bm);      
     b6e:	80 91 41 01 	lds	r24, 0x0141	; 0x800141 <__TEXT_REGION_LENGTH__+0x700141>
     b72:	80 fd       	sbrc	r24, 0
     b74:	fc cf       	rjmp	.-8      	; 0xb6e <Setup+0x1ee>
    RTC_CTRLA          |= 0x01;                            //Enable RTC
     b76:	80 91 40 01 	lds	r24, 0x0140	; 0x800140 <__TEXT_REGION_LENGTH__+0x700140>
     b7a:	81 60       	ori	r24, 0x01	; 1
     b7c:	80 93 40 01 	sts	0x0140, r24	; 0x800140 <__TEXT_REGION_LENGTH__+0x700140>
    RTC_PITCTRLA       |= 0x01;                            //Enable PIT
     b80:	80 91 50 01 	lds	r24, 0x0150	; 0x800150 <__TEXT_REGION_LENGTH__+0x700150>
     b84:	81 60       	ori	r24, 0x01	; 1
     b86:	80 93 50 01 	sts	0x0150, r24	; 0x800150 <__TEXT_REGION_LENGTH__+0x700150>
     
    //Other inits
    serRx[0] = 0;           // Empty Rx buffer (first char is enough)
     b8a:	10 92 7b 3a 	sts	0x3A7B, r1	; 0x803a7b <serRx>
    serTxAddr = &serRx[0];  // Point to first address of the Rx buffer
     b8e:	8b e7       	ldi	r24, 0x7B	; 123
     b90:	9a e3       	ldi	r25, 0x3A	; 58
     b92:	80 93 bf 3a 	sts	0x3ABF, r24	; 0x803abf <serTxAddr>
     b96:	90 93 c0 3a 	sts	0x3AC0, r25	; 0x803ac0 <serTxAddr+0x1>

    sei();
     b9a:	78 94       	sei
}
     b9c:	df 91       	pop	r29
     b9e:	cf 91       	pop	r28
     ba0:	08 95       	ret

00000ba2 <__vector_8>:

// TCA0 is used for driving the LED matrix at 488Hz (* 5 columns = 2440Hz). The lower 8 bit underflow interrupt is used to load new values and shift between columns.
ISR(TCA0_LUNF_vect){
     ba2:	1f 92       	push	r1
     ba4:	0f 92       	push	r0
     ba6:	0f b6       	in	r0, 0x3f	; 63
     ba8:	0f 92       	push	r0
     baa:	11 24       	eor	r1, r1
     bac:	8f 93       	push	r24
     bae:	9f 93       	push	r25
     bb0:	af 93       	push	r26
     bb2:	bf 93       	push	r27
     bb4:	ef 93       	push	r30
     bb6:	ff 93       	push	r31
    //Turn off all columns
    PORTC_OUTCLR = 0x07;
     bb8:	87 e0       	ldi	r24, 0x07	; 7
     bba:	80 93 46 04 	sts	0x0446, r24	; 0x800446 <__TEXT_REGION_LENGTH__+0x700446>
    PORTB_OUTCLR = 0x44;
     bbe:	84 e4       	ldi	r24, 0x44	; 68
     bc0:	80 93 26 04 	sts	0x0426, r24	; 0x800426 <__TEXT_REGION_LENGTH__+0x700426>
    "ldi r25, 6        \n"
    "ld r24, %a[arr]+  \n"
    "st %a[wo]+, r24   \n"
    "dec r25           \n"
    "brne .-8          \n"
    :: [wo] "e" (&TCA0_SPLIT_LCMP0), [arr] "e" (&iLED[(L_COL<<3)]) : "r25", "r24", "cc", "memory");
     bc4:	ec b3       	in	r30, 0x1c	; 28
     bc6:	88 e0       	ldi	r24, 0x08	; 8
     bc8:	e8 9f       	mul	r30, r24
     bca:	f0 01       	movw	r30, r0
     bcc:	11 24       	eor	r1, r1
     bce:	e7 53       	subi	r30, 0x37	; 55
     bd0:	f5 4c       	sbci	r31, 0xC5	; 197
    //Turn off all columns
    PORTC_OUTCLR = 0x07;
    PORTB_OUTCLR = 0x44;

    //Write all of the compare registers of TCA0 with PWM values in array (rows)
    asm(
     bd2:	a8 e2       	ldi	r26, 0x28	; 40
     bd4:	ba e0       	ldi	r27, 0x0A	; 10
     bd6:	96 e0       	ldi	r25, 0x06	; 6
     bd8:	81 91       	ld	r24, Z+
     bda:	8d 93       	st	X+, r24
     bdc:	9a 95       	dec	r25
     bde:	e1 f7       	brne	.-8      	; 0xbd8 <__vector_8+0x36>
    "st %a[wo]+, r24   \n"
    "dec r25           \n"
    "brne .-8          \n"
    :: [wo] "e" (&TCA0_SPLIT_LCMP0), [arr] "e" (&iLED[(L_COL<<3)]) : "r25", "r24", "cc", "memory");

    TCA0_SPLIT_CTRLESET = ((0x2)<<2)|0x3; //Sync timers: Moved this below the PWM value loading to fix the data shifting in asm above.
     be0:	8b e0       	ldi	r24, 0x0B	; 11
     be2:	80 93 05 0a 	sts	0x0A05, r24	; 0x800a05 <__TEXT_REGION_LENGTH__+0x700a05>

    //Turn on the right column
    if (L_COL<3) {
     be6:	8c b3       	in	r24, 0x1c	; 28
     be8:	83 30       	cpi	r24, 0x03	; 3
     bea:	58 f4       	brcc	.+22     	; 0xc02 <__vector_8+0x60>
        asm(
     bec:	8c b3       	in	r24, 0x1c	; 28
     bee:	91 e0       	ldi	r25, 0x01	; 1
     bf0:	01 c0       	rjmp	.+2      	; 0xbf4 <__vector_8+0x52>
     bf2:	99 0f       	add	r25, r25
     bf4:	8a 95       	dec	r24
     bf6:	ea f7       	brpl	.-6      	; 0xbf2 <__vector_8+0x50>
     bf8:	99 b9       	out	0x09, r25	; 9
     bfa:	8c b3       	in	r24, 0x1c	; 28
     bfc:	83 95       	inc	r24
     bfe:	8c bb       	out	0x1c, r24	; 28
     c00:	0a c0       	rjmp	.+20     	; 0xc16 <__vector_8+0x74>
        "in r24, %[io0]  \n"
        "inc r24         \n"
        "out %[io0], r24 \n"
        :: [io0] "I" (&L_COL), [vpc] "I" (&VPORTC_OUT) : "r24", "r25", "cc");
        } else {
        asm(
     c02:	8c b3       	in	r24, 0x1c	; 28
     c04:	83 30       	cpi	r24, 0x03	; 3
     c06:	21 f4       	brne	.+8      	; 0xc10 <__vector_8+0x6e>
     c08:	2a 9a       	sbi	0x05, 2	; 5
     c0a:	83 95       	inc	r24
     c0c:	8c bb       	out	0x1c, r24	; 28
     c0e:	03 c0       	rjmp	.+6      	; 0xc16 <__vector_8+0x74>
     c10:	2e 9a       	sbi	0x05, 6	; 5
     c12:	88 27       	eor	r24, r24
     c14:	8c bb       	out	0x1c, r24	; 28
        "clr r24         \n"
        "out %[io0], r24 \n"
        :: [io0] "I" (&L_COL), [vpb] "I" (&VPORTB_OUT) : "r24", "cc");
    }
    
    if(timeout_I2C) --timeout_I2C;
     c16:	80 91 66 3a 	lds	r24, 0x3A66	; 0x803a66 <timeout_I2C>
     c1a:	88 23       	and	r24, r24
     c1c:	29 f0       	breq	.+10     	; 0xc28 <__vector_8+0x86>
     c1e:	80 91 66 3a 	lds	r24, 0x3A66	; 0x803a66 <timeout_I2C>
     c22:	81 50       	subi	r24, 0x01	; 1
     c24:	80 93 66 3a 	sts	0x3A66, r24	; 0x803a66 <timeout_I2C>
    TCA0_SPLIT_INTFLAGS = 0xFF;
     c28:	8f ef       	ldi	r24, 0xFF	; 255
     c2a:	80 93 0b 0a 	sts	0x0A0B, r24	; 0x800a0b <__TEXT_REGION_LENGTH__+0x700a0b>
}
     c2e:	ff 91       	pop	r31
     c30:	ef 91       	pop	r30
     c32:	bf 91       	pop	r27
     c34:	af 91       	pop	r26
     c36:	9f 91       	pop	r25
     c38:	8f 91       	pop	r24
     c3a:	0f 90       	pop	r0
     c3c:	0f be       	out	0x3f, r0	; 63
     c3e:	0f 90       	pop	r0
     c40:	1f 90       	pop	r1
     c42:	18 95       	reti

00000c44 <__vector_13>:

// TCB0 is used for (slowly) sending serial characters. A 0x00 character code is needed to terminate sending or it will leak memory to serial. It's a feature, honest! 
ISR(TCB0_INT_vect){
     c44:	1f 92       	push	r1
     c46:	0f 92       	push	r0
     c48:	0f b6       	in	r0, 0x3f	; 63
     c4a:	0f 92       	push	r0
     c4c:	11 24       	eor	r1, r1
     c4e:	8f 93       	push	r24
     c50:	9f 93       	push	r25
     c52:	ef 93       	push	r30
     c54:	ff 93       	push	r31
    if (*serTxAddr) {
     c56:	e0 91 bf 3a 	lds	r30, 0x3ABF	; 0x803abf <serTxAddr>
     c5a:	f0 91 c0 3a 	lds	r31, 0x3AC0	; 0x803ac0 <serTxAddr+0x1>
     c5e:	80 81       	ld	r24, Z
     c60:	88 23       	and	r24, r24
     c62:	91 f0       	breq	.+36     	; 0xc88 <__vector_13+0x44>
        USART0_TXDATAL = *serTxAddr;
     c64:	80 81       	ld	r24, Z
     c66:	80 93 02 08 	sts	0x0802, r24	; 0x800802 <__TEXT_REGION_LENGTH__+0x700802>
        serTxAddr++;
     c6a:	80 91 bf 3a 	lds	r24, 0x3ABF	; 0x803abf <serTxAddr>
     c6e:	90 91 c0 3a 	lds	r25, 0x3AC0	; 0x803ac0 <serTxAddr+0x1>
     c72:	01 96       	adiw	r24, 0x01	; 1
     c74:	80 93 bf 3a 	sts	0x3ABF, r24	; 0x803abf <serTxAddr>
     c78:	90 93 c0 3a 	sts	0x3AC0, r25	; 0x803ac0 <serTxAddr+0x1>
        USART0_CTRLA |= USART_DREIE_bm;
     c7c:	80 91 05 08 	lds	r24, 0x0805	; 0x800805 <__TEXT_REGION_LENGTH__+0x700805>
     c80:	80 62       	ori	r24, 0x20	; 32
     c82:	80 93 05 08 	sts	0x0805, r24	; 0x800805 <__TEXT_REGION_LENGTH__+0x700805>
     c86:	05 c0       	rjmp	.+10     	; 0xc92 <__vector_13+0x4e>
    } else {
        serTxDone = 1;
     c88:	81 e0       	ldi	r24, 0x01	; 1
     c8a:	80 93 09 38 	sts	0x3809, r24	; 0x803809 <serTxDone>
        TCB0_INTCTRL = 0x00;
     c8e:	10 92 45 0a 	sts	0x0A45, r1	; 0x800a45 <__TEXT_REGION_LENGTH__+0x700a45>
    }
    TCB0_INTFLAGS = TCB_CAPT_bm;
     c92:	81 e0       	ldi	r24, 0x01	; 1
     c94:	80 93 46 0a 	sts	0x0A46, r24	; 0x800a46 <__TEXT_REGION_LENGTH__+0x700a46>
}
     c98:	ff 91       	pop	r31
     c9a:	ef 91       	pop	r30
     c9c:	9f 91       	pop	r25
     c9e:	8f 91       	pop	r24
     ca0:	0f 90       	pop	r0
     ca2:	0f be       	out	0x3f, r0	; 63
     ca4:	0f 90       	pop	r0
     ca6:	1f 90       	pop	r1
     ca8:	18 95       	reti

00000caa <__vector_14>:

// TCB1 is used for audio generation. Keeps playing "data" until 0 is reached. Audio sample data can contain 0x01 to 0xFF, centered around 0x80
ISR(TCB1_INT_vect){
     caa:	1f 92       	push	r1
     cac:	0f 92       	push	r0
     cae:	0f b6       	in	r0, 0x3f	; 63
     cb0:	0f 92       	push	r0
     cb2:	11 24       	eor	r1, r1
     cb4:	2f 93       	push	r18
     cb6:	3f 93       	push	r19
     cb8:	4f 93       	push	r20
     cba:	8f 93       	push	r24
     cbc:	9f 93       	push	r25
     cbe:	ef 93       	push	r30
     cc0:	ff 93       	push	r31
    int16_t volCtrl;
    if (*auSmpAddr == 0) auSmpAddr = auRepAddr;
     cc2:	e0 91 05 38 	lds	r30, 0x3805	; 0x803805 <auSmpAddr>
     cc6:	f0 91 06 38 	lds	r31, 0x3806	; 0x803806 <auSmpAddr+0x1>
     cca:	80 81       	ld	r24, Z
     ccc:	81 11       	cpse	r24, r1
     cce:	08 c0       	rjmp	.+16     	; 0xce0 <__vector_14+0x36>
     cd0:	80 91 03 38 	lds	r24, 0x3803	; 0x803803 <auRepAddr>
     cd4:	90 91 04 38 	lds	r25, 0x3804	; 0x803804 <auRepAddr+0x1>
     cd8:	80 93 05 38 	sts	0x3805, r24	; 0x803805 <auSmpAddr>
     cdc:	90 93 06 38 	sts	0x3806, r25	; 0x803806 <auSmpAddr+0x1>
    if (*auSmpAddr) {
     ce0:	e0 91 05 38 	lds	r30, 0x3805	; 0x803805 <auSmpAddr>
     ce4:	f0 91 06 38 	lds	r31, 0x3806	; 0x803806 <auSmpAddr+0x1>
     ce8:	80 81       	ld	r24, Z
     cea:	88 23       	and	r24, r24
     cec:	e1 f0       	breq	.+56     	; 0xd26 <__vector_14+0x7c>
        volCtrl = ((((int16_t)(*auSmpAddr) - 0x7f) * auVolume) >> 8) + 0x80;
     cee:	20 81       	ld	r18, Z
     cf0:	40 91 bc 3a 	lds	r20, 0x3ABC	; 0x803abc <auVolume>
        DAC0_DATA = (uint8_t)(volCtrl);
     cf4:	30 e0       	ldi	r19, 0x00	; 0
     cf6:	2f 57       	subi	r18, 0x7F	; 127
     cf8:	31 09       	sbc	r19, r1
     cfa:	42 9f       	mul	r20, r18
     cfc:	c0 01       	movw	r24, r0
     cfe:	43 9f       	mul	r20, r19
     d00:	90 0d       	add	r25, r0
     d02:	11 24       	eor	r1, r1
     d04:	89 2f       	mov	r24, r25
     d06:	99 0f       	add	r25, r25
     d08:	99 0b       	sbc	r25, r25
     d0a:	80 58       	subi	r24, 0x80	; 128
     d0c:	9f 4f       	sbci	r25, 0xFF	; 255
     d0e:	80 93 a1 06 	sts	0x06A1, r24	; 0x8006a1 <__TEXT_REGION_LENGTH__+0x7006a1>
        ++auSmpAddr;
     d12:	80 91 05 38 	lds	r24, 0x3805	; 0x803805 <auSmpAddr>
     d16:	90 91 06 38 	lds	r25, 0x3806	; 0x803806 <auSmpAddr+0x1>
     d1a:	01 96       	adiw	r24, 0x01	; 1
     d1c:	80 93 05 38 	sts	0x3805, r24	; 0x803805 <auSmpAddr>
     d20:	90 93 06 38 	sts	0x3806, r25	; 0x803806 <auSmpAddr+0x1>
     d24:	03 c0       	rjmp	.+6      	; 0xd2c <__vector_14+0x82>
    } else {
        DAC0_DATA = 0x80;
     d26:	80 e8       	ldi	r24, 0x80	; 128
     d28:	80 93 a1 06 	sts	0x06A1, r24	; 0x8006a1 <__TEXT_REGION_LENGTH__+0x7006a1>
    }
    TCB1_INTFLAGS = TCB_CAPT_bm;
     d2c:	81 e0       	ldi	r24, 0x01	; 1
     d2e:	80 93 56 0a 	sts	0x0A56, r24	; 0x800a56 <__TEXT_REGION_LENGTH__+0x700a56>
}
     d32:	ff 91       	pop	r31
     d34:	ef 91       	pop	r30
     d36:	9f 91       	pop	r25
     d38:	8f 91       	pop	r24
     d3a:	4f 91       	pop	r20
     d3c:	3f 91       	pop	r19
     d3e:	2f 91       	pop	r18
     d40:	0f 90       	pop	r0
     d42:	0f be       	out	0x3f, r0	; 63
     d44:	0f 90       	pop	r0
     d46:	1f 90       	pop	r1
     d48:	18 95       	reti

00000d4a <__vector_27>:

// Reads up to RXLEN characters until LF is found, LF sets the serRxDone flag and writes 0 instead of LF.
ISR(USART0_RXC_vect){
     d4a:	1f 92       	push	r1
     d4c:	0f 92       	push	r0
     d4e:	0f b6       	in	r0, 0x3f	; 63
     d50:	0f 92       	push	r0
     d52:	11 24       	eor	r1, r1
     d54:	8f 93       	push	r24
     d56:	ef 93       	push	r30
     d58:	ff 93       	push	r31
    if (serRxDone == 0){
     d5a:	80 91 4a 38 	lds	r24, 0x384A	; 0x80384a <serRxDone>
     d5e:	81 11       	cpse	r24, r1
     d60:	44 c0       	rjmp	.+136    	; 0xdea <__vector_27+0xa0>
        serRx[RXCNT] = USART0.RXDATAL;
     d62:	ed b3       	in	r30, 0x1d	; 29
     d64:	f0 e0       	ldi	r31, 0x00	; 0
     d66:	80 91 00 08 	lds	r24, 0x0800	; 0x800800 <__TEXT_REGION_LENGTH__+0x700800>
     d6a:	e5 58       	subi	r30, 0x85	; 133
     d6c:	f5 4c       	sbci	r31, 0xC5	; 197
     d6e:	80 83       	st	Z, r24
        USART0_TXDATAL = serRx[RXCNT];
     d70:	ed b3       	in	r30, 0x1d	; 29
     d72:	f0 e0       	ldi	r31, 0x00	; 0
     d74:	e5 58       	subi	r30, 0x85	; 133
     d76:	f5 4c       	sbci	r31, 0xC5	; 197
     d78:	80 81       	ld	r24, Z
     d7a:	80 93 02 08 	sts	0x0802, r24	; 0x800802 <__TEXT_REGION_LENGTH__+0x700802>
        if ((serRx[RXCNT] == 0x0A)||(serRx[RXCNT] == 0x0D)){
     d7e:	ed b3       	in	r30, 0x1d	; 29
     d80:	f0 e0       	ldi	r31, 0x00	; 0
     d82:	e5 58       	subi	r30, 0x85	; 133
     d84:	f5 4c       	sbci	r31, 0xC5	; 197
     d86:	80 81       	ld	r24, Z
     d88:	8a 30       	cpi	r24, 0x0A	; 10
     d8a:	39 f0       	breq	.+14     	; 0xd9a <__vector_27+0x50>
     d8c:	ed b3       	in	r30, 0x1d	; 29
     d8e:	f0 e0       	ldi	r31, 0x00	; 0
     d90:	e5 58       	subi	r30, 0x85	; 133
     d92:	f5 4c       	sbci	r31, 0xC5	; 197
     d94:	80 81       	ld	r24, Z
     d96:	8d 30       	cpi	r24, 0x0D	; 13
     d98:	49 f4       	brne	.+18     	; 0xdac <__vector_27+0x62>
            serRx[RXCNT] = 0;
     d9a:	ed b3       	in	r30, 0x1d	; 29
     d9c:	f0 e0       	ldi	r31, 0x00	; 0
     d9e:	e5 58       	subi	r30, 0x85	; 133
     da0:	f5 4c       	sbci	r31, 0xC5	; 197
     da2:	10 82       	st	Z, r1
            serRxDone = 1;
     da4:	81 e0       	ldi	r24, 0x01	; 1
     da6:	80 93 4a 38 	sts	0x384A, r24	; 0x80384a <serRxDone>
     daa:	1f c0       	rjmp	.+62     	; 0xdea <__vector_27+0xa0>
        } else if (((serRx[RXCNT] == 0x08)||(serRx[RXCNT] == 0x7F))&&(RXCNT > 0)) {
     dac:	ed b3       	in	r30, 0x1d	; 29
     dae:	f0 e0       	ldi	r31, 0x00	; 0
     db0:	e5 58       	subi	r30, 0x85	; 133
     db2:	f5 4c       	sbci	r31, 0xC5	; 197
     db4:	80 81       	ld	r24, Z
     db6:	88 30       	cpi	r24, 0x08	; 8
     db8:	39 f0       	breq	.+14     	; 0xdc8 <__vector_27+0x7e>
     dba:	ed b3       	in	r30, 0x1d	; 29
     dbc:	f0 e0       	ldi	r31, 0x00	; 0
     dbe:	e5 58       	subi	r30, 0x85	; 133
     dc0:	f5 4c       	sbci	r31, 0xC5	; 197
     dc2:	80 81       	ld	r24, Z
     dc4:	8f 37       	cpi	r24, 0x7F	; 127
     dc6:	59 f4       	brne	.+22     	; 0xdde <__vector_27+0x94>
     dc8:	8d b3       	in	r24, 0x1d	; 29
     dca:	88 23       	and	r24, r24
     dcc:	41 f0       	breq	.+16     	; 0xdde <__vector_27+0x94>
            serRx[RXCNT] = 0;
     dce:	ed b3       	in	r30, 0x1d	; 29
     dd0:	f0 e0       	ldi	r31, 0x00	; 0
     dd2:	e5 58       	subi	r30, 0x85	; 133
     dd4:	f5 4c       	sbci	r31, 0xC5	; 197
     dd6:	10 82       	st	Z, r1
            --RXCNT;
     dd8:	8d b3       	in	r24, 0x1d	; 29
     dda:	81 50       	subi	r24, 0x01	; 1
     ddc:	05 c0       	rjmp	.+10     	; 0xde8 <__vector_27+0x9e>
        } else if (RXCNT < (RXLEN-1)) ++RXCNT;
     dde:	8d b3       	in	r24, 0x1d	; 29
     de0:	80 34       	cpi	r24, 0x40	; 64
     de2:	18 f4       	brcc	.+6      	; 0xdea <__vector_27+0xa0>
     de4:	8d b3       	in	r24, 0x1d	; 29
     de6:	8f 5f       	subi	r24, 0xFF	; 255
     de8:	8d bb       	out	0x1d, r24	; 29
    }
    USART0_STATUS = USART_RXCIF_bm;
     dea:	80 e8       	ldi	r24, 0x80	; 128
     dec:	80 93 04 08 	sts	0x0804, r24	; 0x800804 <__TEXT_REGION_LENGTH__+0x700804>
};
     df0:	ff 91       	pop	r31
     df2:	ef 91       	pop	r30
     df4:	8f 91       	pop	r24
     df6:	0f 90       	pop	r0
     df8:	0f be       	out	0x3f, r0	; 63
     dfa:	0f 90       	pop	r0
     dfc:	1f 90       	pop	r1
     dfe:	18 95       	reti

00000e00 <__vector_28>:

// Trigger new data write and turn off DRE interrupt.
ISR(USART0_DRE_vect){
     e00:	1f 92       	push	r1
     e02:	0f 92       	push	r0
     e04:	0f b6       	in	r0, 0x3f	; 63
     e06:	0f 92       	push	r0
     e08:	11 24       	eor	r1, r1
     e0a:	8f 93       	push	r24
     e0c:	ef 93       	push	r30
     e0e:	ff 93       	push	r31
    TCB0_CNT = 0;
     e10:	10 92 4a 0a 	sts	0x0A4A, r1	; 0x800a4a <__TEXT_REGION_LENGTH__+0x700a4a>
     e14:	10 92 4b 0a 	sts	0x0A4B, r1	; 0x800a4b <__TEXT_REGION_LENGTH__+0x700a4b>
    TCB0_INTCTRL = 0x01;
     e18:	81 e0       	ldi	r24, 0x01	; 1
     e1a:	80 93 45 0a 	sts	0x0A45, r24	; 0x800a45 <__TEXT_REGION_LENGTH__+0x700a45>
    USART0_CTRLA &= ~(USART_DREIE_bm);
     e1e:	e5 e0       	ldi	r30, 0x05	; 5
     e20:	f8 e0       	ldi	r31, 0x08	; 8
     e22:	80 81       	ld	r24, Z
     e24:	8f 7d       	andi	r24, 0xDF	; 223
     e26:	80 83       	st	Z, r24
};
     e28:	ff 91       	pop	r31
     e2a:	ef 91       	pop	r30
     e2c:	8f 91       	pop	r24
     e2e:	0f 90       	pop	r0
     e30:	0f be       	out	0x3f, r0	; 63
     e32:	0f 90       	pop	r0
     e34:	1f 90       	pop	r1
     e36:	18 95       	reti

00000e38 <__vector_20>:

// ADC used for audio input and temperature sensor.
ISR(ADC0_RESRDY_vect){
     e38:	1f 92       	push	r1
     e3a:	0f 92       	push	r0
     e3c:	0f b6       	in	r0, 0x3f	; 63
     e3e:	0f 92       	push	r0
     e40:	11 24       	eor	r1, r1
     e42:	8f 93       	push	r24
     e44:	9f 93       	push	r25
    //If just switched reference, discard first few samples
    if (adc0Chg == 0){
     e46:	80 91 3e 38 	lds	r24, 0x383E	; 0x80383e <adc0Chg>
     e4a:	81 11       	cpse	r24, r1
     e4c:	12 c0       	rjmp	.+36     	; 0xe72 <__vector_20+0x3a>
        if (ADC0_MUXPOS == 0x1E) adcTemp = ADC0_RES; else auIn=ADC0_RESL;
     e4e:	80 91 06 06 	lds	r24, 0x0606	; 0x800606 <__TEXT_REGION_LENGTH__+0x700606>
     e52:	8e 31       	cpi	r24, 0x1E	; 30
     e54:	49 f4       	brne	.+18     	; 0xe68 <__vector_20+0x30>
     e56:	80 91 10 06 	lds	r24, 0x0610	; 0x800610 <__TEXT_REGION_LENGTH__+0x700610>
     e5a:	90 91 11 06 	lds	r25, 0x0611	; 0x800611 <__TEXT_REGION_LENGTH__+0x700611>
     e5e:	80 93 f3 3a 	sts	0x3AF3, r24	; 0x803af3 <adcTemp>
     e62:	90 93 f4 3a 	sts	0x3AF4, r25	; 0x803af4 <adcTemp+0x1>
     e66:	0a c0       	rjmp	.+20     	; 0xe7c <__vector_20+0x44>
     e68:	80 91 10 06 	lds	r24, 0x0610	; 0x800610 <__TEXT_REGION_LENGTH__+0x700610>
     e6c:	80 93 c8 3a 	sts	0x3AC8, r24	; 0x803ac8 <auIn>
     e70:	05 c0       	rjmp	.+10     	; 0xe7c <__vector_20+0x44>
    } else --adc0Chg;
     e72:	80 91 3e 38 	lds	r24, 0x383E	; 0x80383e <adc0Chg>
     e76:	81 50       	subi	r24, 0x01	; 1
     e78:	80 93 3e 38 	sts	0x383E, r24	; 0x80383e <adc0Chg>
    ADC0_INTFLAGS = ADC_RESRDY_bm;
     e7c:	81 e0       	ldi	r24, 0x01	; 1
     e7e:	80 93 0b 06 	sts	0x060B, r24	; 0x80060b <__TEXT_REGION_LENGTH__+0x70060b>
}
     e82:	9f 91       	pop	r25
     e84:	8f 91       	pop	r24
     e86:	0f 90       	pop	r0
     e88:	0f be       	out	0x3f, r0	; 63
     e8a:	0f 90       	pop	r0
     e8c:	1f 90       	pop	r1
     e8e:	18 95       	reti

00000e90 <__vector_22>:

// Reads out sensors at 8Hz and buttons at 42Hz (timed by PIT), power for the sensors is on 1/8th of the time to save power.
ISR(ADC1_RESRDY_vect){
     e90:	1f 92       	push	r1
     e92:	0f 92       	push	r0
     e94:	0f b6       	in	r0, 0x3f	; 63
     e96:	0f 92       	push	r0
     e98:	11 24       	eor	r1, r1
     e9a:	8f 93       	push	r24
     e9c:	9f 93       	push	r25
    if (ADC1_MUXPOS == 0) {
     e9e:	80 91 46 06 	lds	r24, 0x0646	; 0x800646 <__TEXT_REGION_LENGTH__+0x700646>
     ea2:	81 11       	cpse	r24, r1
     ea4:	0a c0       	rjmp	.+20     	; 0xeba <__vector_22+0x2a>
        adcPhot = ADC1_RES;
     ea6:	80 91 50 06 	lds	r24, 0x0650	; 0x800650 <__TEXT_REGION_LENGTH__+0x700650>
     eaa:	90 91 51 06 	lds	r25, 0x0651	; 0x800651 <__TEXT_REGION_LENGTH__+0x700651>
     eae:	80 93 c3 3a 	sts	0x3AC3, r24	; 0x803ac3 <adcPhot>
     eb2:	90 93 c4 3a 	sts	0x3AC4, r25	; 0x803ac4 <adcPhot+0x1>
        ADC1_MUXPOS = 0x01;             //Select Hall sensor
     eb6:	81 e0       	ldi	r24, 0x01	; 1
     eb8:	10 c0       	rjmp	.+32     	; 0xeda <__vector_22+0x4a>
    } else if (ADC1_MUXPOS == 1){
     eba:	80 91 46 06 	lds	r24, 0x0646	; 0x800646 <__TEXT_REGION_LENGTH__+0x700646>
     ebe:	81 30       	cpi	r24, 0x01	; 1
     ec0:	79 f4       	brne	.+30     	; 0xee0 <__vector_22+0x50>
        PORTA_OUTCLR = 0b00001000;      //Turn off sensor power
     ec2:	88 e0       	ldi	r24, 0x08	; 8
     ec4:	80 93 06 04 	sts	0x0406, r24	; 0x800406 <__TEXT_REGION_LENGTH__+0x700406>
        adcHall = ADC1_RES;
     ec8:	80 91 50 06 	lds	r24, 0x0650	; 0x800650 <__TEXT_REGION_LENGTH__+0x700650>
     ecc:	90 91 51 06 	lds	r25, 0x0651	; 0x800651 <__TEXT_REGION_LENGTH__+0x700651>
     ed0:	80 93 c1 3a 	sts	0x3AC1, r24	; 0x803ac1 <adcHall>
     ed4:	90 93 c2 3a 	sts	0x3AC2, r25	; 0x803ac2 <adcHall+0x1>
        ADC1_MUXPOS = 0x04;             //select buttons
     ed8:	84 e0       	ldi	r24, 0x04	; 4
     eda:	80 93 46 06 	sts	0x0646, r24	; 0x800646 <__TEXT_REGION_LENGTH__+0x700646>
     ede:	10 c0       	rjmp	.+32     	; 0xf00 <__vector_22+0x70>
    } else {
        adcBtns = ADC1_RES;
     ee0:	80 91 50 06 	lds	r24, 0x0650	; 0x800650 <__TEXT_REGION_LENGTH__+0x700650>
     ee4:	90 91 51 06 	lds	r25, 0x0651	; 0x800651 <__TEXT_REGION_LENGTH__+0x700651>
     ee8:	80 93 bd 3a 	sts	0x3ABD, r24	; 0x803abd <adcBtns>
     eec:	90 93 be 3a 	sts	0x3ABE, r25	; 0x803abe <adcBtns+0x1>
        if (A1CNT == 15){
     ef0:	8f b3       	in	r24, 0x1f	; 31
     ef2:	8f 30       	cpi	r24, 0x0F	; 15
     ef4:	29 f4       	brne	.+10     	; 0xf00 <__vector_22+0x70>
            ADC1_MUXPOS = 0x00;         //Select photo transistor
     ef6:	10 92 46 06 	sts	0x0646, r1	; 0x800646 <__TEXT_REGION_LENGTH__+0x700646>
            PORTA_OUTSET = 0b00001000;  //Turn on sensor power
     efa:	88 e0       	ldi	r24, 0x08	; 8
     efc:	80 93 05 04 	sts	0x0405, r24	; 0x800405 <__TEXT_REGION_LENGTH__+0x700405>
        }
    }

    A1CNT=(A1CNT+1)%16;        
     f00:	8f b3       	in	r24, 0x1f	; 31
     f02:	90 e0       	ldi	r25, 0x00	; 0
     f04:	01 96       	adiw	r24, 0x01	; 1
     f06:	8f 70       	andi	r24, 0x0F	; 15
     f08:	99 27       	eor	r25, r25
     f0a:	8f bb       	out	0x1f, r24	; 31
    ADC1_INTFLAGS = ADC_RESRDY_bm;
     f0c:	81 e0       	ldi	r24, 0x01	; 1
     f0e:	80 93 4b 06 	sts	0x064B, r24	; 0x80064b <__TEXT_REGION_LENGTH__+0x70064b>
}
     f12:	9f 91       	pop	r25
     f14:	8f 91       	pop	r24
     f16:	0f 90       	pop	r0
     f18:	0f be       	out	0x3f, r0	; 63
     f1a:	0f 90       	pop	r0
     f1c:	1f 90       	pop	r1
     f1e:	18 95       	reti

00000f20 <__vector_6>:

// RTC compare interrupt, triggers at 512/BTN_TMR rate, also RTC overflow interrupt, triggers once a minute
ISR(RTC_CNT_vect) {
     f20:	1f 92       	push	r1
     f22:	0f 92       	push	r0
     f24:	0f b6       	in	r0, 0x3f	; 63
     f26:	0f 92       	push	r0
     f28:	11 24       	eor	r1, r1
     f2a:	2f 93       	push	r18
     f2c:	3f 93       	push	r19
     f2e:	8f 93       	push	r24
     f30:	9f 93       	push	r25
    if (RTC_INTFLAGS & RTC_CMP_bm){
     f32:	80 91 43 01 	lds	r24, 0x0143	; 0x800143 <__TEXT_REGION_LENGTH__+0x700143>
     f36:	81 ff       	sbrs	r24, 1
     f38:	39 c0       	rjmp	.+114    	; 0xfac <__vector_6+0x8c>
        if (buttonMark<0xff) buttonMark++;   // For button timing purposes
     f3a:	80 91 48 38 	lds	r24, 0x3848	; 0x803848 <buttonMark>
     f3e:	8f 3f       	cpi	r24, 0xFF	; 255
     f40:	29 f0       	breq	.+10     	; 0xf4c <__vector_6+0x2c>
     f42:	80 91 48 38 	lds	r24, 0x3848	; 0x803848 <buttonMark>
     f46:	8f 5f       	subi	r24, 0xFF	; 255
     f48:	80 93 48 38 	sts	0x3848, r24	; 0x803848 <buttonMark>
        //tmp16bit = (RTC_CNT + BTN_TMR)%RTC_PER;
        tmp16bit = (RTC_CNT + BTN_TMR);
     f4c:	80 91 48 01 	lds	r24, 0x0148	; 0x800148 <__TEXT_REGION_LENGTH__+0x700148>
     f50:	90 91 49 01 	lds	r25, 0x0149	; 0x800149 <__TEXT_REGION_LENGTH__+0x700149>
     f54:	82 96       	adiw	r24, 0x22	; 34
     f56:	80 93 f5 3a 	sts	0x3AF5, r24	; 0x803af5 <tmp16bit>
     f5a:	90 93 f6 3a 	sts	0x3AF6, r25	; 0x803af6 <tmp16bit+0x1>
        if (tmp16bit > RTC_PER) tmp16bit -= RTC_PER;
     f5e:	20 91 4a 01 	lds	r18, 0x014A	; 0x80014a <__TEXT_REGION_LENGTH__+0x70014a>
     f62:	30 91 4b 01 	lds	r19, 0x014B	; 0x80014b <__TEXT_REGION_LENGTH__+0x70014b>
     f66:	80 91 f5 3a 	lds	r24, 0x3AF5	; 0x803af5 <tmp16bit>
     f6a:	90 91 f6 3a 	lds	r25, 0x3AF6	; 0x803af6 <tmp16bit+0x1>
     f6e:	28 17       	cp	r18, r24
     f70:	39 07       	cpc	r19, r25
     f72:	70 f4       	brcc	.+28     	; 0xf90 <__vector_6+0x70>
     f74:	20 91 4a 01 	lds	r18, 0x014A	; 0x80014a <__TEXT_REGION_LENGTH__+0x70014a>
     f78:	30 91 4b 01 	lds	r19, 0x014B	; 0x80014b <__TEXT_REGION_LENGTH__+0x70014b>
     f7c:	80 91 f5 3a 	lds	r24, 0x3AF5	; 0x803af5 <tmp16bit>
     f80:	90 91 f6 3a 	lds	r25, 0x3AF6	; 0x803af6 <tmp16bit+0x1>
     f84:	82 1b       	sub	r24, r18
     f86:	93 0b       	sbc	r25, r19
     f88:	80 93 f5 3a 	sts	0x3AF5, r24	; 0x803af5 <tmp16bit>
     f8c:	90 93 f6 3a 	sts	0x3AF6, r25	; 0x803af6 <tmp16bit+0x1>
        while(RTC_STATUS & RTC_CMPBUSY_bm);
     f90:	80 91 41 01 	lds	r24, 0x0141	; 0x800141 <__TEXT_REGION_LENGTH__+0x700141>
     f94:	83 fd       	sbrc	r24, 3
     f96:	fc cf       	rjmp	.-8      	; 0xf90 <__vector_6+0x70>
        RTC_CMP = tmp16bit;                 // Button timing: next interrupt set
     f98:	80 91 f5 3a 	lds	r24, 0x3AF5	; 0x803af5 <tmp16bit>
     f9c:	90 91 f6 3a 	lds	r25, 0x3AF6	; 0x803af6 <tmp16bit+0x1>
     fa0:	80 93 4c 01 	sts	0x014C, r24	; 0x80014c <__TEXT_REGION_LENGTH__+0x70014c>
     fa4:	90 93 4d 01 	sts	0x014D, r25	; 0x80014d <__TEXT_REGION_LENGTH__+0x70014d>
        RTC_INTFLAGS = RTC_CMP_bm;		    // clear interrupt flag
     fa8:	82 e0       	ldi	r24, 0x02	; 2
     faa:	06 c0       	rjmp	.+12     	; 0xfb8 <__vector_6+0x98>
    } else {
        minuteMark++;                       // For very slow timing purposes, overflows to 0
     fac:	80 91 49 38 	lds	r24, 0x3849	; 0x803849 <minuteMark>
     fb0:	8f 5f       	subi	r24, 0xFF	; 255
     fb2:	80 93 49 38 	sts	0x3849, r24	; 0x803849 <minuteMark>
        RTC_INTFLAGS = RTC_OVF_bm;		    // clear interrupt flag
     fb6:	81 e0       	ldi	r24, 0x01	; 1
     fb8:	80 93 43 01 	sts	0x0143, r24	; 0x800143 <__TEXT_REGION_LENGTH__+0x700143>
    }
}
     fbc:	9f 91       	pop	r25
     fbe:	8f 91       	pop	r24
     fc0:	3f 91       	pop	r19
     fc2:	2f 91       	pop	r18
     fc4:	0f 90       	pop	r0
     fc6:	0f be       	out	0x3f, r0	; 63
     fc8:	0f 90       	pop	r0
     fca:	1f 90       	pop	r1
     fcc:	18 95       	reti

00000fce <__vector_7>:

// PIT interrupt (timing of ADC1: sensor values)
ISR(RTC_PIT_vect) {						// PIT interrupt handling code
     fce:	1f 92       	push	r1
     fd0:	0f 92       	push	r0
     fd2:	0f b6       	in	r0, 0x3f	; 63
     fd4:	0f 92       	push	r0
     fd6:	11 24       	eor	r1, r1
     fd8:	8f 93       	push	r24
    ADC1_COMMAND = 0x01;
     fda:	81 e0       	ldi	r24, 0x01	; 1
     fdc:	80 93 48 06 	sts	0x0648, r24	; 0x800648 <__TEXT_REGION_LENGTH__+0x700648>
    RTC_PITINTFLAGS = RTC_PI_bm;		// clear interrupt flag
     fe0:	80 93 53 01 	sts	0x0153, r24	; 0x800153 <__TEXT_REGION_LENGTH__+0x700153>
}
     fe4:	8f 91       	pop	r24
     fe6:	0f 90       	pop	r0
     fe8:	0f be       	out	0x3f, r0	; 63
     fea:	0f 90       	pop	r0
     fec:	1f 90       	pop	r1
     fee:	18 95       	reti

00000ff0 <EERead>:

// Read bytes from EEPROM
void EERead(uint8_t eeAddr, uint8_t *eeValues, uint8_t size)
{
    while(NVMCTRL_STATUS & NVMCTRL_EEBUSY_bm);              // Wait until any write operation has finished
     ff0:	90 91 02 10 	lds	r25, 0x1002	; 0x801002 <__TEXT_REGION_LENGTH__+0x701002>
     ff4:	91 fd       	sbrc	r25, 1
     ff6:	fc cf       	rjmp	.-8      	; 0xff0 <EERead>
     ff8:	fb 01       	movw	r30, r22
     ffa:	48 0f       	add	r20, r24

    while(size){
     ffc:	84 17       	cp	r24, r20
     ffe:	39 f0       	breq	.+14     	; 0x100e <EERead+0x1e>
        *eeValues++ = *(uint8_t *)(EEPROM_START+eeAddr++);  // Read data from buffer
    1000:	a8 2f       	mov	r26, r24
    1002:	b0 e0       	ldi	r27, 0x00	; 0
    1004:	bc 5e       	subi	r27, 0xEC	; 236
    1006:	9c 91       	ld	r25, X
    1008:	91 93       	st	Z+, r25
    100a:	8f 5f       	subi	r24, 0xFF	; 255
    100c:	f7 cf       	rjmp	.-18     	; 0xffc <EERead+0xc>
        --size;
    }
}
    100e:	08 95       	ret

00001010 <EEWrite>:
{
    uint8_t lastByteOfPage;
    while(size){
        lastByteOfPage = 0;
        while(NVMCTRL_STATUS & NVMCTRL_EEBUSY_bm);              // Wait until any write operation has finished
        CCP = CCP_SPM_gc;                                       // Gain access to NVMCTRL_CTRLA
    1010:	9d e9       	ldi	r25, 0x9D	; 157
        NVMCTRL_CTRLA = NVMCTRL_CMD_PAGEBUFCLR_gc;              // Clear page buffer
    1012:	24 e0       	ldi	r18, 0x04	; 4
            if ((eeAddr % EEPROM_PAGE_SIZE) == (EEPROM_PAGE_SIZE-1)) lastByteOfPage = 1;
            *(uint8_t *)(EEPROM_START+eeAddr++) = *eeValues++;  // Write data to buffer
            --size;
        }
        CCP = CCP_SPM_gc;
        NVMCTRL_CTRLA = NVMCTRL_CMD_PAGEERASEWRITE_gc;          // Erase old data and write new data to EEPROM
    1014:	33 e0       	ldi	r19, 0x03	; 3

// Write bytes to the EEPROM, if address exceeds EEPROM space data wraps around
uint8_t EEWrite(uint8_t eeAddr, uint8_t *eeValues, uint8_t size)
{
    uint8_t lastByteOfPage;
    while(size){
    1016:	44 23       	and	r20, r20
    1018:	09 f1       	breq	.+66     	; 0x105c <EEWrite+0x4c>
        lastByteOfPage = 0;
        while(NVMCTRL_STATUS & NVMCTRL_EEBUSY_bm);              // Wait until any write operation has finished
    101a:	50 91 02 10 	lds	r21, 0x1002	; 0x801002 <__TEXT_REGION_LENGTH__+0x701002>
    101e:	51 fd       	sbrc	r21, 1
    1020:	fc cf       	rjmp	.-8      	; 0x101a <EEWrite+0xa>
        CCP = CCP_SPM_gc;                                       // Gain access to NVMCTRL_CTRLA
    1022:	94 bf       	out	0x34, r25	; 52
        NVMCTRL_CTRLA = NVMCTRL_CMD_PAGEBUFCLR_gc;              // Clear page buffer
    1024:	20 93 00 10 	sts	0x1000, r18	; 0x801000 <__TEXT_REGION_LENGTH__+0x701000>
    1028:	e8 2f       	mov	r30, r24
        while((size) && (lastByteOfPage == 0)){
            if ((eeAddr % EEPROM_PAGE_SIZE) == (EEPROM_PAGE_SIZE-1)) lastByteOfPage = 1;
    102a:	58 2f       	mov	r21, r24
    102c:	5f 71       	andi	r21, 0x1F	; 31
            *(uint8_t *)(EEPROM_START+eeAddr++) = *eeValues++;  // Write data to buffer
    102e:	8f 5f       	subi	r24, 0xFF	; 255
    1030:	6f 5f       	subi	r22, 0xFF	; 255
    1032:	7f 4f       	sbci	r23, 0xFF	; 255
    1034:	db 01       	movw	r26, r22
    1036:	11 97       	sbiw	r26, 0x01	; 1
    1038:	ac 91       	ld	r26, X
    103a:	f0 e0       	ldi	r31, 0x00	; 0
    103c:	fc 5e       	subi	r31, 0xEC	; 236
    103e:	a0 83       	st	Z, r26
            --size;
    1040:	41 50       	subi	r20, 0x01	; 1
    while(size){
        lastByteOfPage = 0;
        while(NVMCTRL_STATUS & NVMCTRL_EEBUSY_bm);              // Wait until any write operation has finished
        CCP = CCP_SPM_gc;                                       // Gain access to NVMCTRL_CTRLA
        NVMCTRL_CTRLA = NVMCTRL_CMD_PAGEBUFCLR_gc;              // Clear page buffer
        while((size) && (lastByteOfPage == 0)){
    1042:	19 f0       	breq	.+6      	; 0x104a <EEWrite+0x3a>
            if ((eeAddr % EEPROM_PAGE_SIZE) == (EEPROM_PAGE_SIZE-1)) lastByteOfPage = 1;
            *(uint8_t *)(EEPROM_START+eeAddr++) = *eeValues++;  // Write data to buffer
    1044:	e8 2f       	mov	r30, r24
    while(size){
        lastByteOfPage = 0;
        while(NVMCTRL_STATUS & NVMCTRL_EEBUSY_bm);              // Wait until any write operation has finished
        CCP = CCP_SPM_gc;                                       // Gain access to NVMCTRL_CTRLA
        NVMCTRL_CTRLA = NVMCTRL_CMD_PAGEBUFCLR_gc;              // Clear page buffer
        while((size) && (lastByteOfPage == 0)){
    1046:	5f 31       	cpi	r21, 0x1F	; 31
    1048:	81 f7       	brne	.-32     	; 0x102a <EEWrite+0x1a>
            if ((eeAddr % EEPROM_PAGE_SIZE) == (EEPROM_PAGE_SIZE-1)) lastByteOfPage = 1;
            *(uint8_t *)(EEPROM_START+eeAddr++) = *eeValues++;  // Write data to buffer
            --size;
        }
        CCP = CCP_SPM_gc;
    104a:	94 bf       	out	0x34, r25	; 52
        NVMCTRL_CTRLA = NVMCTRL_CMD_PAGEERASEWRITE_gc;          // Erase old data and write new data to EEPROM
    104c:	30 93 00 10 	sts	0x1000, r19	; 0x801000 <__TEXT_REGION_LENGTH__+0x701000>
        if (NVMCTRL_STATUS & NVMCTRL_WRERROR_bm) return 1;
    1050:	50 91 02 10 	lds	r21, 0x1002	; 0x801002 <__TEXT_REGION_LENGTH__+0x701002>
    1054:	52 ff       	sbrs	r21, 2
    1056:	df cf       	rjmp	.-66     	; 0x1016 <EEWrite+0x6>
    1058:	81 e0       	ldi	r24, 0x01	; 1
    }
    return 0;
}
    105a:	08 95       	ret
        }
        CCP = CCP_SPM_gc;
        NVMCTRL_CTRLA = NVMCTRL_CMD_PAGEERASEWRITE_gc;          // Erase old data and write new data to EEPROM
        if (NVMCTRL_STATUS & NVMCTRL_WRERROR_bm) return 1;
    }
    return 0;
    105c:	80 e0       	ldi	r24, 0x00	; 0
    105e:	08 95       	ret

00001060 <DecryptData>:
}

//Decrypts data read from I2C EEPROM, max 255 bytes at a time
void DecryptData(uint16_t offset, uint8_t length, uint8_t type, uint8_t *data){
    1060:	f9 01       	movw	r30, r18
    //offset += L_BOILER;
    while(length){
        *data ^= xor_key[type][(uint8_t)(offset%KEY_LENGTH)];
    1062:	9c 01       	movw	r18, r24
    1064:	2e 1b       	sub	r18, r30
    1066:	3f 0b       	sbc	r19, r31
    1068:	88 e0       	ldi	r24, 0x08	; 8
    106a:	48 9f       	mul	r20, r24
    106c:	a0 01       	movw	r20, r0
    106e:	11 24       	eor	r1, r1
    1070:	44 56       	subi	r20, 0x64	; 100
    1072:	50 44       	sbci	r21, 0x40	; 64
}

//Decrypts data read from I2C EEPROM, max 255 bytes at a time
void DecryptData(uint16_t offset, uint8_t length, uint8_t type, uint8_t *data){
    //offset += L_BOILER;
    while(length){
    1074:	66 23       	and	r22, r22
    1076:	69 f0       	breq	.+26     	; 0x1092 <DecryptData+0x32>
        *data ^= xor_key[type][(uint8_t)(offset%KEY_LENGTH)];
    1078:	df 01       	movw	r26, r30
    107a:	a2 0f       	add	r26, r18
    107c:	b3 1f       	adc	r27, r19
    107e:	a7 70       	andi	r26, 0x07	; 7
    1080:	bb 27       	eor	r27, r27
    1082:	a4 0f       	add	r26, r20
    1084:	b5 1f       	adc	r27, r21
    1086:	80 81       	ld	r24, Z
    1088:	9c 91       	ld	r25, X
    108a:	98 27       	eor	r25, r24
    108c:	91 93       	st	Z+, r25
        ++data;
        ++offset;
        --length;
    108e:	61 50       	subi	r22, 0x01	; 1
    1090:	f1 cf       	rjmp	.-30     	; 0x1074 <DecryptData+0x14>
    }
}
    1092:	08 95       	ret

00001094 <ExtEERead>:

//Game data: Read a number of bytes and decrypt
uint8_t ExtEERead(uint16_t offset, uint8_t length, uint8_t type, uint8_t *data){
    1094:	af 92       	push	r10
    1096:	bf 92       	push	r11
    1098:	cf 92       	push	r12
    109a:	df 92       	push	r13
    109c:	ef 92       	push	r14
    109e:	ff 92       	push	r15
    10a0:	0f 93       	push	r16
    10a2:	1f 93       	push	r17
    10a4:	cf 93       	push	r28
    10a6:	df 93       	push	r29
    10a8:	00 d0       	rcall	.+0      	; 0x10aa <ExtEERead+0x16>
    10aa:	cd b7       	in	r28, 0x3d	; 61
    10ac:	de b7       	in	r29, 0x3e	; 62
    10ae:	d6 2e       	mov	r13, r22
    10b0:	c4 2e       	mov	r12, r20
    10b2:	59 01       	movw	r10, r18
    offset &=EXT_EE_MAX;
    10b4:	7c 01       	movw	r14, r24
    10b6:	e8 94       	clt
    10b8:	f7 f8       	bld	r15, 7
    uint8_t reg[2] = {(uint8_t)(offset>>8), (uint8_t)(offset&0xff)};
    10ba:	f9 82       	std	Y+1, r15	; 0x01
    10bc:	ea 82       	std	Y+2, r14	; 0x02
    uint8_t error = (I2C_read_bytes(EE_I2C_ADDR, &reg[0], 2, data, length));
    10be:	06 2f       	mov	r16, r22
    10c0:	42 e0       	ldi	r20, 0x02	; 2
    10c2:	be 01       	movw	r22, r28
    10c4:	6f 5f       	subi	r22, 0xFF	; 255
    10c6:	7f 4f       	sbci	r23, 0xFF	; 255
    10c8:	80 e5       	ldi	r24, 0x50	; 80
    10ca:	1f da       	rcall	.-3010   	; 0x50a <I2C_read_bytes>
    10cc:	18 2f       	mov	r17, r24
    if (error) return error;
    10ce:	81 11       	cpse	r24, r1
    10d0:	05 c0       	rjmp	.+10     	; 0x10dc <ExtEERead+0x48>
    DecryptData(offset, length, type, data);
    10d2:	95 01       	movw	r18, r10
    10d4:	4c 2d       	mov	r20, r12
    10d6:	6d 2d       	mov	r22, r13
    10d8:	c7 01       	movw	r24, r14
    10da:	c2 df       	rcall	.-124    	; 0x1060 <DecryptData>
    return 0;
}
    10dc:	81 2f       	mov	r24, r17
    10de:	0f 90       	pop	r0
    10e0:	0f 90       	pop	r0
    10e2:	df 91       	pop	r29
    10e4:	cf 91       	pop	r28
    10e6:	1f 91       	pop	r17
    10e8:	0f 91       	pop	r16
    10ea:	ff 90       	pop	r15
    10ec:	ef 90       	pop	r14
    10ee:	df 90       	pop	r13
    10f0:	cf 90       	pop	r12
    10f2:	bf 90       	pop	r11
    10f4:	af 90       	pop	r10
    10f6:	08 95       	ret

000010f8 <SerSend>:

// Sends a set of characters to the serial port, stops only when character value 0 is reached.
uint8_t SerSend(unsigned char *addr){
    if (serTxDone){
    10f8:	20 91 09 38 	lds	r18, 0x3809	; 0x803809 <serTxDone>
    10fc:	22 23       	and	r18, r18
    10fe:	59 f0       	breq	.+22     	; 0x1116 <SerSend+0x1e>
        serTxAddr = addr;
    1100:	80 93 bf 3a 	sts	0x3ABF, r24	; 0x803abf <serTxAddr>
    1104:	90 93 c0 3a 	sts	0x3AC0, r25	; 0x803ac0 <serTxAddr+0x1>
        serTxDone = 0;
    1108:	10 92 09 38 	sts	0x3809, r1	; 0x803809 <serTxDone>
        TCB0_INTCTRL = 0x01;
    110c:	81 e0       	ldi	r24, 0x01	; 1
    110e:	80 93 45 0a 	sts	0x0A45, r24	; 0x800a45 <__TEXT_REGION_LENGTH__+0x700a45>
        return 0;
    1112:	80 e0       	ldi	r24, 0x00	; 0
    1114:	08 95       	ret
    } else return 1;    //Error: Still sending data
    1116:	81 e0       	ldi	r24, 0x01	; 1
};
    1118:	08 95       	ret

0000111a <SerSpeed>:

// Set serial character output speed, 255-0 (0.8 to 100ms delay between characters)
void SerSpeed(uint8_t serSpd){
    111a:	28 2f       	mov	r18, r24
    if (serSpd<1) serSpd = 1;
    111c:	81 11       	cpse	r24, r1
    111e:	01 c0       	rjmp	.+2      	; 0x1122 <SerSpeed+0x8>
    1120:	21 e0       	ldi	r18, 0x01	; 1
    TCB0_CCMP = ((uint16_t)(0xFF-serSpd)<<8) + 0xFF;
    1122:	8f ef       	ldi	r24, 0xFF	; 255
    1124:	90 e0       	ldi	r25, 0x00	; 0
    1126:	82 1b       	sub	r24, r18
    1128:	91 09       	sbc	r25, r1
    112a:	98 2f       	mov	r25, r24
    112c:	88 27       	eor	r24, r24
    112e:	81 50       	subi	r24, 0x01	; 1
    1130:	9f 4f       	sbci	r25, 0xFF	; 255
    1132:	80 93 4c 0a 	sts	0x0A4C, r24	; 0x800a4c <__TEXT_REGION_LENGTH__+0x700a4c>
    1136:	90 93 4d 0a 	sts	0x0A4D, r25	; 0x800a4d <__TEXT_REGION_LENGTH__+0x700a4d>
    113a:	08 95       	ret

0000113c <SelectTSens>:
};

// Select temperature sensor
void SelectTSens(){
     VREF_CTRLA   = 0x12;    //0x22 for audio in/out (2.5V), 0x12 for temperature in, audio out (1.1V/2.5V)
    113c:	82 e1       	ldi	r24, 0x12	; 18
    113e:	80 93 a0 00 	sts	0x00A0, r24	; 0x8000a0 <__TEXT_REGION_LENGTH__+0x7000a0>
     ADC0_CTRLA   &= ~(ADC_RESSEL_bm);
    1142:	e0 e0       	ldi	r30, 0x00	; 0
    1144:	f6 e0       	ldi	r31, 0x06	; 6
    1146:	80 81       	ld	r24, Z
    1148:	8b 7f       	andi	r24, 0xFB	; 251
    114a:	80 83       	st	Z, r24
     ADC0_MUXPOS  = 0x1E;    //Audio in: AIN7 at (0x07), Temperature: Internal sensor at (0x1E)
    114c:	8e e1       	ldi	r24, 0x1E	; 30
    114e:	80 93 06 06 	sts	0x0606, r24	; 0x800606 <__TEXT_REGION_LENGTH__+0x700606>
     adc0Chg = 3;
    1152:	83 e0       	ldi	r24, 0x03	; 3
    1154:	80 93 3e 38 	sts	0x383E, r24	; 0x80383e <adc0Chg>
    1158:	08 95       	ret

0000115a <SelectAuIn>:
};

// Select "audio" input (0-2.5V)
void SelectAuIn(){
     VREF_CTRLA   = 0x22;    //0x22 for audio in/out (2.5V), 0x12 for temperature in, audio out (1.1V/2.5V)
    115a:	82 e2       	ldi	r24, 0x22	; 34
    115c:	80 93 a0 00 	sts	0x00A0, r24	; 0x8000a0 <__TEXT_REGION_LENGTH__+0x7000a0>
     ADC0_CTRLA   |= ADC_RESSEL_bm;
    1160:	e0 e0       	ldi	r30, 0x00	; 0
    1162:	f6 e0       	ldi	r31, 0x06	; 6
    1164:	80 81       	ld	r24, Z
    1166:	84 60       	ori	r24, 0x04	; 4
    1168:	80 83       	st	Z, r24
     ADC0_MUXPOS  = 0x07;    //Audio in: AIN7 at (0x07), Temperature: Internal sensor at (0x1E)
    116a:	87 e0       	ldi	r24, 0x07	; 7
    116c:	80 93 06 06 	sts	0x0606, r24	; 0x800606 <__TEXT_REGION_LENGTH__+0x700606>
     adc0Chg = 3;
    1170:	83 e0       	ldi	r24, 0x03	; 3
    1172:	80 93 3e 38 	sts	0x383E, r24	; 0x80383e <adc0Chg>
    1176:	08 95       	ret

00001178 <CheckButtons>:
};

// Returns button combination (4LSB) and number of consecutive times this combination is detected. First read should always be ignored! 
uint8_t CheckButtons(){
    static uint8_t previousValue = 0xFF;
    uint8_t bADC = (uint8_t)(adcBtns>>4);
    1178:	80 91 bd 3a 	lds	r24, 0x3ABD	; 0x803abd <adcBtns>
    117c:	90 91 be 3a 	lds	r25, 0x3ABE	; 0x803abe <adcBtns+0x1>
    uint8_t button = 0xFF;     //FF = released or error

        switch(bADC){
    1180:	24 e0       	ldi	r18, 0x04	; 4
    1182:	96 95       	lsr	r25
    1184:	87 95       	ror	r24
    1186:	2a 95       	dec	r18
    1188:	e1 f7       	brne	.-8      	; 0x1182 <CheckButtons+0xa>
    118a:	99 27       	eor	r25, r25
    118c:	80 36       	cpi	r24, 0x60	; 96
    118e:	91 05       	cpc	r25, r1
    1190:	40 f4       	brcc	.+16     	; 0x11a2 <CheckButtons+0x2a>
    1192:	8f 34       	cpi	r24, 0x4F	; 79
    1194:	91 05       	cpc	r25, r1
    1196:	88 f4       	brcc	.+34     	; 0x11ba <CheckButtons+0x42>
    1198:	c0 97       	sbiw	r24, 0x30	; 48
    119a:	09 97       	sbiw	r24, 0x09	; 9
    119c:	90 f4       	brcc	.+36     	; 0x11c2 <CheckButtons+0x4a>

            case 48 ... 56:          //52: Bottom left (+/-4)
            button = 2;
    119e:	92 e0       	ldi	r25, 0x02	; 2
    11a0:	11 c0       	rjmp	.+34     	; 0x11c4 <CheckButtons+0x4c>
uint8_t CheckButtons(){
    static uint8_t previousValue = 0xFF;
    uint8_t bADC = (uint8_t)(adcBtns>>4);
    uint8_t button = 0xFF;     //FF = released or error

        switch(bADC){
    11a2:	85 37       	cpi	r24, 0x75	; 117
    11a4:	91 05       	cpc	r25, r1
    11a6:	68 f0       	brcs	.+26     	; 0x11c2 <CheckButtons+0x4a>
    11a8:	8e 38       	cpi	r24, 0x8E	; 142
    11aa:	91 05       	cpc	r25, r1
    11ac:	40 f0       	brcs	.+16     	; 0x11be <CheckButtons+0x46>
    11ae:	8e 59       	subi	r24, 0x9E	; 158
    11b0:	91 09       	sbc	r25, r1
    11b2:	81 97       	sbiw	r24, 0x21	; 33
    11b4:	30 f4       	brcc	.+12     	; 0x11c2 <CheckButtons+0x4a>
            case 117 ... 141:        //129: Top right (+/- 12)
            button = 1;
            break;

            case 158 ... 190:        //174: Bottom right (+/- 16)
            button = 0;
    11b6:	90 e0       	ldi	r25, 0x00	; 0
            break;
    11b8:	05 c0       	rjmp	.+10     	; 0x11c4 <CheckButtons+0x4c>
            case 48 ... 56:          //52: Bottom left (+/-4)
            button = 2;
            break;

            case 79 ... 95:          //87: Top left (+/-8)
            button = 3;
    11ba:	93 e0       	ldi	r25, 0x03	; 3
            break;
    11bc:	03 c0       	rjmp	.+6      	; 0x11c4 <CheckButtons+0x4c>

            case 117 ... 141:        //129: Top right (+/- 12)
            button = 1;
    11be:	91 e0       	ldi	r25, 0x01	; 1
            break;
    11c0:	01 c0       	rjmp	.+2      	; 0x11c4 <CheckButtons+0x4c>

// Returns button combination (4LSB) and number of consecutive times this combination is detected. First read should always be ignored! 
uint8_t CheckButtons(){
    static uint8_t previousValue = 0xFF;
    uint8_t bADC = (uint8_t)(adcBtns>>4);
    uint8_t button = 0xFF;     //FF = released or error
    11c2:	9f ef       	ldi	r25, 0xFF	; 255
            case 158 ... 190:        //174: Bottom right (+/- 16)
            button = 0;
            break;
        }

        if (((previousValue+1)== 0) || (button != previousValue)) {
    11c4:	80 91 2a 38 	lds	r24, 0x382A	; 0x80382a <previousValue.3900>
    11c8:	98 17       	cp	r25, r24
    11ca:	19 f0       	breq	.+6      	; 0x11d2 <CheckButtons+0x5a>
            previousValue = button;
    11cc:	90 93 2a 38 	sts	0x382A, r25	; 0x80382a <previousValue.3900>
            return 0xFF;
    11d0:	8f ef       	ldi	r24, 0xFF	; 255
        } else return button;

}
    11d2:	08 95       	ret

000011d4 <lfsr>:

uint8_t lfsr(){
    static uint16_t state = 0xd401;
    state ^= (state << 13);
    11d4:	80 91 28 38 	lds	r24, 0x3828	; 0x803828 <state.3910>
    11d8:	90 91 29 38 	lds	r25, 0x3829	; 0x803829 <state.3910+0x1>
    11dc:	9c 01       	movw	r18, r24
    11de:	32 2f       	mov	r19, r18
    11e0:	22 27       	eor	r18, r18
    11e2:	32 95       	swap	r19
    11e4:	33 0f       	add	r19, r19
    11e6:	30 7e       	andi	r19, 0xE0	; 224
    11e8:	82 27       	eor	r24, r18
    11ea:	93 27       	eor	r25, r19
    state ^= (state >> 9);
    11ec:	9c 01       	movw	r18, r24
    11ee:	23 2f       	mov	r18, r19
    11f0:	33 27       	eor	r19, r19
    11f2:	26 95       	lsr	r18
    11f4:	82 27       	eor	r24, r18
    11f6:	93 27       	eor	r25, r19
    state ^= (state << 7);
    11f8:	9c 01       	movw	r18, r24
    11fa:	36 95       	lsr	r19
    11fc:	32 2f       	mov	r19, r18
    11fe:	22 27       	eor	r18, r18
    1200:	37 95       	ror	r19
    1202:	27 95       	ror	r18
    1204:	82 27       	eor	r24, r18
    1206:	93 27       	eor	r25, r19
    1208:	80 93 28 38 	sts	0x3828, r24	; 0x803828 <state.3910>
    120c:	90 93 29 38 	sts	0x3829, r25	; 0x803829 <state.3910+0x1>
    return (state & 0xff);
}
    1210:	08 95       	ret

00001212 <floatSpeed>:

void floatSpeed(uint8_t bits, uint16_t min, uint16_t max){
    1212:	df 92       	push	r13
    1214:	ef 92       	push	r14
    1216:	ff 92       	push	r15
    1218:	0f 93       	push	r16
    121a:	1f 93       	push	r17
    121c:	cf 93       	push	r28
    121e:	df 93       	push	r29
    1220:	7b 01       	movw	r14, r22
    1222:	8a 01       	movw	r16, r20
    uint16_t val = TCB1_CCMP;
    1224:	c0 91 5c 0a 	lds	r28, 0x0A5C	; 0x800a5c <__TEXT_REGION_LENGTH__+0x700a5c>
    1228:	d0 91 5d 0a 	lds	r29, 0x0A5D	; 0x800a5d <__TEXT_REGION_LENGTH__+0x700a5d>
    bits = mask[(bits-1)&0x07];
    122c:	e8 2f       	mov	r30, r24
    122e:	f0 e0       	ldi	r31, 0x00	; 0
    1230:	31 97       	sbiw	r30, 0x01	; 1
    1232:	e7 70       	andi	r30, 0x07	; 7
    1234:	ff 27       	eor	r31, r31
    1236:	e5 5d       	subi	r30, 0xD5	; 213
    1238:	f7 4c       	sbci	r31, 0xC7	; 199
    123a:	d0 80       	ld	r13, Z
    val += (lfsr()&bits);
    123c:	cb df       	rcall	.-106    	; 0x11d4 <lfsr>
    123e:	8d 21       	and	r24, r13
    1240:	c8 0f       	add	r28, r24
    1242:	d1 1d       	adc	r29, r1
    val -= (lfsr()&bits);
    1244:	c7 df       	rcall	.-114    	; 0x11d4 <lfsr>
    1246:	8d 21       	and	r24, r13
    1248:	c8 1b       	sub	r28, r24
    124a:	d1 09       	sbc	r29, r1
    124c:	0c 17       	cp	r16, r28
    124e:	1d 07       	cpc	r17, r29
    1250:	08 f4       	brcc	.+2      	; 0x1254 <floatSpeed+0x42>
    1252:	e8 01       	movw	r28, r16
    1254:	c7 01       	movw	r24, r14
    1256:	ec 16       	cp	r14, r28
    1258:	fd 06       	cpc	r15, r29
    125a:	08 f4       	brcc	.+2      	; 0x125e <floatSpeed+0x4c>
    125c:	ce 01       	movw	r24, r28
    125e:	80 93 5c 0a 	sts	0x0A5C, r24	; 0x800a5c <__TEXT_REGION_LENGTH__+0x700a5c>
    if (val > max) val = max;    
    if (val < min) val = min;  
    TCB1_CCMP = val;
    1262:	90 93 5d 0a 	sts	0x0A5D, r25	; 0x800a5d <__TEXT_REGION_LENGTH__+0x700a5d>
    1266:	df 91       	pop	r29
}
    1268:	cf 91       	pop	r28
    126a:	1f 91       	pop	r17
    126c:	0f 91       	pop	r16
    126e:	ff 90       	pop	r15
    1270:	ef 90       	pop	r14
    1272:	df 90       	pop	r13
    1274:	08 95       	ret

00001276 <floatAround>:
    1276:	0f 93       	push	r16

uint8_t floatAround(uint8_t sample, uint8_t bits, uint8_t min, uint8_t max){
    1278:	1f 93       	push	r17
    127a:	cf 93       	push	r28
    127c:	df 93       	push	r29
    127e:	c8 2f       	mov	r28, r24
    1280:	d4 2f       	mov	r29, r20
    1282:	02 2f       	mov	r16, r18
    bits = mask[(bits-1)&0x07];
    1284:	e6 2f       	mov	r30, r22
    1286:	f0 e0       	ldi	r31, 0x00	; 0
    1288:	31 97       	sbiw	r30, 0x01	; 1
    128a:	e7 70       	andi	r30, 0x07	; 7
    128c:	ff 27       	eor	r31, r31
    128e:	e5 5d       	subi	r30, 0xD5	; 213
    1290:	f7 4c       	sbci	r31, 0xC7	; 199
    1292:	10 81       	ld	r17, Z
    sample += lfsr()&bits;
    1294:	9f df       	rcall	.-194    	; 0x11d4 <lfsr>
    1296:	81 23       	and	r24, r17
    1298:	c8 0f       	add	r28, r24
    sample -= lfsr()&bits;
    129a:	9c df       	rcall	.-200    	; 0x11d4 <lfsr>
    129c:	81 23       	and	r24, r17
    129e:	c8 1b       	sub	r28, r24
    12a0:	8c 2f       	mov	r24, r28
    12a2:	00 23       	and	r16, r16
    if (max){
    12a4:	41 f0       	breq	.+16     	; 0x12b6 <floatAround+0x40>
    12a6:	9c 2f       	mov	r25, r28
    12a8:	0c 17       	cp	r16, r28
    12aa:	08 f4       	brcc	.+2      	; 0x12ae <floatAround+0x38>
    12ac:	90 2f       	mov	r25, r16
    12ae:	8d 2f       	mov	r24, r29
    12b0:	d9 17       	cp	r29, r25
    12b2:	08 f4       	brcc	.+2      	; 0x12b6 <floatAround+0x40>
    12b4:	89 2f       	mov	r24, r25
    12b6:	41 e0       	ldi	r20, 0x01	; 1
        if (sample > max) sample = max;
        if (sample < min) sample = min;
    }
    if (min & (sample < min)) sample = min;
    12b8:	50 e0       	ldi	r21, 0x00	; 0
    12ba:	8d 17       	cp	r24, r29
    12bc:	10 f0       	brcs	.+4      	; 0x12c2 <floatAround+0x4c>
    12be:	40 e0       	ldi	r20, 0x00	; 0
    12c0:	50 e0       	ldi	r21, 0x00	; 0
    12c2:	2d 2f       	mov	r18, r29
    12c4:	30 e0       	ldi	r19, 0x00	; 0
    12c6:	24 23       	and	r18, r20
    12c8:	35 23       	and	r19, r21
    12ca:	23 2b       	or	r18, r19
    12cc:	09 f0       	breq	.+2      	; 0x12d0 <floatAround+0x5a>
    12ce:	8d 2f       	mov	r24, r29
    12d0:	df 91       	pop	r29

    return sample;
}
    12d2:	cf 91       	pop	r28
    12d4:	1f 91       	pop	r17
    12d6:	0f 91       	pop	r16
    12d8:	08 95       	ret

000012da <SaveGameState>:
    12da:	cf 92       	push	r12
    inventory[0] = (gameState[INVADDR]<<8|gameState[INVADDR+1]);
    inventory[1] = (gameState[INVADDR+2]<<8|gameState[INVADDR+3]);
}

//Save changed data to EEPROM
uint8_t SaveGameState(){
    12dc:	df 92       	push	r13
    12de:	ff 92       	push	r15
    12e0:	0f 93       	push	r16
    12e2:	1f 93       	push	r17
    12e4:	cf 93       	push	r28
    12e6:	df 93       	push	r29
    12e8:	cd b7       	in	r28, 0x3d	; 61
    12ea:	de b7       	in	r29, 0x3e	; 62
    12ec:	64 97       	sbiw	r28, 0x14	; 20
    12ee:	cd bf       	out	0x3d, r28	; 61
    12f0:	de bf       	out	0x3e, r29	; 62
    uint8_t gameCheck[BOOTCHK];

    //Read all data up to the boot/check result address from EEPROM
    EERead(0, &gameCheck[0], BOOTCHK);
    12f2:	44 e1       	ldi	r20, 0x14	; 20
    12f4:	be 01       	movw	r22, r28
    12f6:	6f 5f       	subi	r22, 0xFF	; 255
    12f8:	7f 4f       	sbci	r23, 0xFF	; 255
    12fa:	80 e0       	ldi	r24, 0x00	; 0
    12fc:	79 de       	rcall	.-782    	; 0xff0 <EERead>
    12fe:	87 e6       	ldi	r24, 0x67	; 103
    1300:	c8 2e       	mov	r12, r24
    1302:	8a e3       	ldi	r24, 0x3A	; 58
    1304:	d8 2e       	mov	r13, r24
    1306:	8e 01       	movw	r16, r28
    1308:	0f 5f       	subi	r16, 0xFF	; 255
    130a:	1f 4f       	sbci	r17, 0xFF	; 255

    //Check game status bits
    for (uint8_t x=0; x<STATLEN; ++x){
    130c:	f1 2c       	mov	r15, r1
        if (gameState[x] != gameCheck[x]){
    130e:	f8 01       	movw	r30, r16
    1310:	81 91       	ld	r24, Z+
    1312:	8f 01       	movw	r16, r30
    1314:	f6 01       	movw	r30, r12
    1316:	90 81       	ld	r25, Z
    1318:	98 13       	cpse	r25, r24
    131a:	08 c0       	rjmp	.+16     	; 0x132c <SaveGameState+0x52>

    //Read all data up to the boot/check result address from EEPROM
    EERead(0, &gameCheck[0], BOOTCHK);

    //Check game status bits
    for (uint8_t x=0; x<STATLEN; ++x){
    131c:	f3 94       	inc	r15
    131e:	ff ef       	ldi	r31, 0xFF	; 255
    1320:	cf 1a       	sub	r12, r31
    1322:	df 0a       	sbc	r13, r31
    1324:	80 e1       	ldi	r24, 0x10	; 16
    1326:	f8 12       	cpse	r15, r24
    1328:	f2 cf       	rjmp	.-28     	; 0x130e <SaveGameState+0x34>
    132a:	08 c0       	rjmp	.+16     	; 0x133c <SaveGameState+0x62>
        if (gameState[x] != gameCheck[x]){
            if (EEWrite(x, &gameState[x], 1)) return 1;
    132c:	41 e0       	ldi	r20, 0x01	; 1
    132e:	b6 01       	movw	r22, r12
    1330:	8f 2d       	mov	r24, r15
    1332:	6e de       	rcall	.-804    	; 0x1010 <EEWrite>
    1334:	88 23       	and	r24, r24
    1336:	91 f3       	breq	.-28     	; 0x131c <SaveGameState+0x42>
    1338:	91 e0       	ldi	r25, 0x01	; 1
    133a:	36 c0       	rjmp	.+108    	; 0x13a8 <SaveGameState+0xce>
        }
    }

    //Check the inventory too
    gameState[INVADDR] = (uint8_t)(inventory[0]>>8);
    133c:	20 91 44 38 	lds	r18, 0x3844	; 0x803844 <inventory>
    1340:	30 91 45 38 	lds	r19, 0x3845	; 0x803845 <inventory+0x1>
    1344:	30 93 77 3a 	sts	0x3A77, r19	; 0x803a77 <gameState+0x10>
    gameState[INVADDR+1] = (uint8_t)(inventory[0]&0xff);
    1348:	20 93 78 3a 	sts	0x3A78, r18	; 0x803a78 <gameState+0x11>
    gameState[INVADDR+2] = (uint8_t)(inventory[1]>>8);
    134c:	80 91 46 38 	lds	r24, 0x3846	; 0x803846 <inventory+0x2>
    1350:	90 91 47 38 	lds	r25, 0x3847	; 0x803847 <inventory+0x3>
    1354:	90 93 79 3a 	sts	0x3A79, r25	; 0x803a79 <gameState+0x12>
    gameState[INVADDR+3] = (uint8_t)(inventory[1]&0xff);
    1358:	80 93 7a 3a 	sts	0x3A7A, r24	; 0x803a7a <gameState+0x13>
    if (inventory[0] != (gameCheck[INVADDR]<<8|gameCheck[INVADDR+1])) {
    135c:	89 89       	ldd	r24, Y+17	; 0x11
    135e:	9a 89       	ldd	r25, Y+18	; 0x12
    1360:	98 27       	eor	r25, r24
    1362:	89 27       	eor	r24, r25
    1364:	98 27       	eor	r25, r24
    1366:	28 17       	cp	r18, r24
    1368:	39 07       	cpc	r19, r25
    136a:	69 f4       	brne	.+26     	; 0x1386 <SaveGameState+0xac>
        if (EEWrite(INVADDR, &gameState[INVADDR], 2)) return 1;
    }
    if (inventory[1] != (gameCheck[INVADDR+2]<<8|gameCheck[INVADDR+3])) {
    136c:	8b 89       	ldd	r24, Y+19	; 0x13
    136e:	9c 89       	ldd	r25, Y+20	; 0x14
    1370:	98 27       	eor	r25, r24
    1372:	89 27       	eor	r24, r25
    1374:	98 27       	eor	r25, r24
    1376:	20 91 46 38 	lds	r18, 0x3846	; 0x803846 <inventory+0x2>
    137a:	30 91 47 38 	lds	r19, 0x3847	; 0x803847 <inventory+0x3>
    137e:	28 17       	cp	r18, r24
    1380:	39 07       	cpc	r19, r25
    1382:	49 f4       	brne	.+18     	; 0x1396 <SaveGameState+0xbc>
    1384:	10 c0       	rjmp	.+32     	; 0x13a6 <SaveGameState+0xcc>
    gameState[INVADDR] = (uint8_t)(inventory[0]>>8);
    gameState[INVADDR+1] = (uint8_t)(inventory[0]&0xff);
    gameState[INVADDR+2] = (uint8_t)(inventory[1]>>8);
    gameState[INVADDR+3] = (uint8_t)(inventory[1]&0xff);
    if (inventory[0] != (gameCheck[INVADDR]<<8|gameCheck[INVADDR+1])) {
        if (EEWrite(INVADDR, &gameState[INVADDR], 2)) return 1;
    1386:	42 e0       	ldi	r20, 0x02	; 2
    1388:	67 e7       	ldi	r22, 0x77	; 119
    138a:	7a e3       	ldi	r23, 0x3A	; 58
    138c:	80 e1       	ldi	r24, 0x10	; 16
    138e:	40 de       	rcall	.-896    	; 0x1010 <EEWrite>
    1390:	88 23       	and	r24, r24
    1392:	61 f3       	breq	.-40     	; 0x136c <SaveGameState+0x92>
    1394:	d1 cf       	rjmp	.-94     	; 0x1338 <SaveGameState+0x5e>
    }
    if (inventory[1] != (gameCheck[INVADDR+2]<<8|gameCheck[INVADDR+3])) {
        if (EEWrite(INVADDR+2, &gameState[INVADDR+2], 2)) return 1;
    1396:	42 e0       	ldi	r20, 0x02	; 2
    1398:	69 e7       	ldi	r22, 0x79	; 121
    139a:	7a e3       	ldi	r23, 0x3A	; 58
    139c:	82 e1       	ldi	r24, 0x12	; 18
    139e:	38 de       	rcall	.-912    	; 0x1010 <EEWrite>
    EERead(0, &gameCheck[0], BOOTCHK);

    //Check game status bits
    for (uint8_t x=0; x<STATLEN; ++x){
        if (gameState[x] != gameCheck[x]){
            if (EEWrite(x, &gameState[x], 1)) return 1;
    13a0:	91 e0       	ldi	r25, 0x01	; 1
    13a2:	81 11       	cpse	r24, r1
    13a4:	01 c0       	rjmp	.+2      	; 0x13a8 <SaveGameState+0xce>
    13a6:	90 e0       	ldi	r25, 0x00	; 0
    if (inventory[1] != (gameCheck[INVADDR+2]<<8|gameCheck[INVADDR+3])) {
        if (EEWrite(INVADDR+2, &gameState[INVADDR+2], 2)) return 1;
    }

    return 0;
}
    13a8:	89 2f       	mov	r24, r25
    13aa:	64 96       	adiw	r28, 0x14	; 20
    13ac:	cd bf       	out	0x3d, r28	; 61
    13ae:	de bf       	out	0x3e, r29	; 62
    13b0:	df 91       	pop	r29
    13b2:	cf 91       	pop	r28
    13b4:	1f 91       	pop	r17
    13b6:	0f 91       	pop	r16
    13b8:	ff 90       	pop	r15
    13ba:	df 90       	pop	r13
    13bc:	cf 90       	pop	r12
    13be:	08 95       	ret

000013c0 <ReadStatusBit>:

uint8_t ReadStatusBit(uint8_t number){
    number &= 0x7f;
    if (gameState[number>>3] & (1<<(number&7))) return 1; else return 0;
    13c0:	e8 2f       	mov	r30, r24
    13c2:	ef 77       	andi	r30, 0x7F	; 127
    13c4:	e6 95       	lsr	r30
    13c6:	e6 95       	lsr	r30
    13c8:	e6 95       	lsr	r30
    13ca:	f0 e0       	ldi	r31, 0x00	; 0
    13cc:	e9 59       	subi	r30, 0x99	; 153
    13ce:	f5 4c       	sbci	r31, 0xC5	; 197
    13d0:	20 81       	ld	r18, Z
    13d2:	30 e0       	ldi	r19, 0x00	; 0
    13d4:	87 70       	andi	r24, 0x07	; 7
    13d6:	a9 01       	movw	r20, r18
    13d8:	02 c0       	rjmp	.+4      	; 0x13de <ReadStatusBit+0x1e>
    13da:	55 95       	asr	r21
    13dc:	47 95       	ror	r20
    13de:	8a 95       	dec	r24
    13e0:	e2 f7       	brpl	.-8      	; 0x13da <ReadStatusBit+0x1a>
    13e2:	ca 01       	movw	r24, r20
}
    13e4:	81 70       	andi	r24, 0x01	; 1
    13e6:	08 95       	ret

000013e8 <UpdateState>:

//Update game state: num -> vBBBBbbb v=value(0 is set!), BBBB=Byte number, bbb=bit number
void UpdateState(uint8_t num){
    uint8_t clearBit = num & 0x80;
    num &= 0x7f;
    13e8:	e8 2f       	mov	r30, r24
    13ea:	ef 77       	andi	r30, 0x7F	; 127
    
    if (num) {
    13ec:	e9 f0       	breq	.+58     	; 0x1428 <UpdateState+0x40>
    13ee:	e6 95       	lsr	r30
    13f0:	e6 95       	lsr	r30
    13f2:	e6 95       	lsr	r30
    13f4:	28 2f       	mov	r18, r24
    13f6:	27 70       	andi	r18, 0x07	; 7
        if (clearBit) {
            gameState[num>>3] &= ~(1<<(num&7));
    13f8:	f0 e0       	ldi	r31, 0x00	; 0
    13fa:	e9 59       	subi	r30, 0x99	; 153
    13fc:	f5 4c       	sbci	r31, 0xC5	; 197
void UpdateState(uint8_t num){
    uint8_t clearBit = num & 0x80;
    num &= 0x7f;
    
    if (num) {
        if (clearBit) {
    13fe:	87 ff       	sbrs	r24, 7
    1400:	0a c0       	rjmp	.+20     	; 0x1416 <UpdateState+0x2e>
            gameState[num>>3] &= ~(1<<(num&7));
    1402:	81 e0       	ldi	r24, 0x01	; 1
    1404:	90 e0       	ldi	r25, 0x00	; 0
    1406:	01 c0       	rjmp	.+2      	; 0x140a <UpdateState+0x22>
    1408:	88 0f       	add	r24, r24
    140a:	2a 95       	dec	r18
    140c:	ea f7       	brpl	.-6      	; 0x1408 <UpdateState+0x20>
    140e:	80 95       	com	r24
    1410:	90 81       	ld	r25, Z
    1412:	89 23       	and	r24, r25
    1414:	08 c0       	rjmp	.+16     	; 0x1426 <UpdateState+0x3e>
        } else {
            gameState[num>>3] |= 1<<(num&7);
    1416:	81 e0       	ldi	r24, 0x01	; 1
    1418:	90 e0       	ldi	r25, 0x00	; 0
    141a:	01 c0       	rjmp	.+2      	; 0x141e <UpdateState+0x36>
    141c:	88 0f       	add	r24, r24
    141e:	2a 95       	dec	r18
    1420:	ea f7       	brpl	.-6      	; 0x141c <UpdateState+0x34>
    1422:	90 81       	ld	r25, Z
    1424:	89 2b       	or	r24, r25
    1426:	80 83       	st	Z, r24
    1428:	08 95       	ret

0000142a <CheckState>:
        }
    }
}

//Checks if state of bit BBBBbbb matches with v (inverted) bit
uint8_t CheckState(uint8_t num){
    142a:	cf 93       	push	r28
    142c:	c8 2f       	mov	r28, r24
    uint8_t bitSet = 0;
    if (ReadStatusBit(num & 0x7f)){
    142e:	8f 77       	andi	r24, 0x7F	; 127
    1430:	c7 df       	rcall	.-114    	; 0x13c0 <ReadStatusBit>
    1432:	2c 2f       	mov	r18, r28
    1434:	22 1f       	adc	r18, r18
    1436:	22 27       	eor	r18, r18
    1438:	22 1f       	adc	r18, r18
    143a:	91 e0       	ldi	r25, 0x01	; 1
    143c:	81 11       	cpse	r24, r1
    143e:	01 c0       	rjmp	.+2      	; 0x1442 <CheckState+0x18>
    1440:	90 e0       	ldi	r25, 0x00	; 0
    }
    if (((num & 0x80)>0)^(bitSet>0)){
        return 1;
    }
    return 0;
}
    1442:	82 2f       	mov	r24, r18
    1444:	89 27       	eor	r24, r25
    1446:	cf 91       	pop	r28
    1448:	08 95       	ret

0000144a <getID>:

//Give out a number 0..3, calculated using serial number fields
uint8_t getID(){
    uint8_t id = 0;
    uint8_t *serNum;
    serNum = (uint8_t*)&SIGROW_SERNUM0;
    144a:	e3 e0       	ldi	r30, 0x03	; 3
    144c:	f1 e1       	ldi	r31, 0x11	; 17
    return 0;
}

//Give out a number 0..3, calculated using serial number fields
uint8_t getID(){
    uint8_t id = 0;
    144e:	80 e0       	ldi	r24, 0x00	; 0
    uint8_t *serNum;
    serNum = (uint8_t*)&SIGROW_SERNUM0;

    for (uint8_t x=0; x<10; ++x){
        id += *serNum;
    1450:	91 91       	ld	r25, Z+
    1452:	89 0f       	add	r24, r25
uint8_t getID(){
    uint8_t id = 0;
    uint8_t *serNum;
    serNum = (uint8_t*)&SIGROW_SERNUM0;

    for (uint8_t x=0; x<10; ++x){
    1454:	ed 30       	cpi	r30, 0x0D	; 13
    1456:	91 e1       	ldi	r25, 0x11	; 17
    1458:	f9 07       	cpc	r31, r25
    145a:	d1 f7       	brne	.-12     	; 0x1450 <getID+0x6>
        id += *serNum;
        ++serNum;
    }
    id %= 4;
    145c:	83 70       	andi	r24, 0x03	; 3
    whoami = id+1;
    145e:	91 e0       	ldi	r25, 0x01	; 1
    1460:	98 0f       	add	r25, r24
    1462:	90 93 43 38 	sts	0x3843, r25	; 0x803843 <whoami>
    return id;
}
    1466:	08 95       	ret

00001468 <Reset>:

void Reset(){
    1468:	cf 93       	push	r28
    146a:	e7 e6       	ldi	r30, 0x67	; 103
    146c:	fa e3       	ldi	r31, 0x3A	; 58
    //# 110   set to 1 by FW if badge UUID mod 4 == 0
    //# 111   set to 1 by FW if badge UUID mod 4 == 1
    //# 112   set to 1 by FW if badge UUID mod 4 == 2
    //# 113   set to 1 by FW if badge UUID mod 4 == 3
    for (uint8_t x=0; x<sizeof(gameState); ++x){
        gameState[x] = 0;
    146e:	11 92       	st	Z+, r1
    //Reset game progress (all zeros) and load some bits:
    //# 110   set to 1 by FW if badge UUID mod 4 == 0
    //# 111   set to 1 by FW if badge UUID mod 4 == 1
    //# 112   set to 1 by FW if badge UUID mod 4 == 2
    //# 113   set to 1 by FW if badge UUID mod 4 == 3
    for (uint8_t x=0; x<sizeof(gameState); ++x){
    1470:	8a e3       	ldi	r24, 0x3A	; 58
    1472:	eb 37       	cpi	r30, 0x7B	; 123
    1474:	f8 07       	cpc	r31, r24
    1476:	d9 f7       	brne	.-10     	; 0x146e <Reset+0x6>
        gameState[x] = 0;
    }

    uint8_t id = getID();
    1478:	e8 df       	rcall	.-48     	; 0x144a <getID>
    147a:	c8 2f       	mov	r28, r24

    //Write bit in gameState location 110..113
    if (id == 0) UpdateState(110);
    147c:	81 11       	cpse	r24, r1
    147e:	02 c0       	rjmp	.+4      	; 0x1484 <Reset+0x1c>
    1480:	8e e6       	ldi	r24, 0x6E	; 110
    1482:	0b c0       	rjmp	.+22     	; 0x149a <Reset+0x32>
    else if (id == 1) UpdateState(111);
    1484:	81 30       	cpi	r24, 0x01	; 1
    1486:	11 f4       	brne	.+4      	; 0x148c <Reset+0x24>
    1488:	8f e6       	ldi	r24, 0x6F	; 111
    148a:	07 c0       	rjmp	.+14     	; 0x149a <Reset+0x32>
    else if (id == 2) UpdateState(112);
    148c:	82 30       	cpi	r24, 0x02	; 2
    148e:	11 f4       	brne	.+4      	; 0x1494 <Reset+0x2c>
    1490:	80 e7       	ldi	r24, 0x70	; 112
    1492:	03 c0       	rjmp	.+6      	; 0x149a <Reset+0x32>
    else if (id == 3) UpdateState(113);
    1494:	83 30       	cpi	r24, 0x03	; 3
    1496:	11 f4       	brne	.+4      	; 0x149c <Reset+0x34>
    1498:	81 e7       	ldi	r24, 0x71	; 113
    149a:	a6 df       	rcall	.-180    	; 0x13e8 <UpdateState>
    UpdateState(100+id);
    149c:	84 e6       	ldi	r24, 0x64	; 100

    //Write bit 0, must always be 1!

}
    149e:	8c 0f       	add	r24, r28
    //Write bit in gameState location 110..113
    if (id == 0) UpdateState(110);
    else if (id == 1) UpdateState(111);
    else if (id == 2) UpdateState(112);
    else if (id == 3) UpdateState(113);
    UpdateState(100+id);
    14a0:	cf 91       	pop	r28
    14a2:	a2 cf       	rjmp	.-188    	; 0x13e8 <UpdateState>

000014a4 <LoadGameState>:

    return sample;
}

//Load game status
void LoadGameState(){
    14a4:	cf 93       	push	r28
    14a6:	df 93       	push	r29
    EERead(0, &gameState[0], BOOTCHK);   //Load game status bits from EEPROM
    14a8:	44 e1       	ldi	r20, 0x14	; 20
    14aa:	67 e6       	ldi	r22, 0x67	; 103
    14ac:	7a e3       	ldi	r23, 0x3A	; 58
    14ae:	80 e0       	ldi	r24, 0x00	; 0
    14b0:	9f dd       	rcall	.-1218   	; 0xff0 <EERead>
    14b2:	ce e6       	ldi	r28, 0x6E	; 110

    uint8_t idSet = 0;
    14b4:	d0 e0       	ldi	r29, 0x00	; 0
    for (uint8_t x=0; x<4; ++x){
        idSet += ReadStatusBit(110+x);
    14b6:	8c 2f       	mov	r24, r28
    14b8:	83 df       	rcall	.-250    	; 0x13c0 <ReadStatusBit>
    14ba:	d8 0f       	add	r29, r24
    14bc:	cf 5f       	subi	r28, 0xFF	; 255
//Load game status
void LoadGameState(){
    EERead(0, &gameState[0], BOOTCHK);   //Load game status bits from EEPROM

    uint8_t idSet = 0;
    for (uint8_t x=0; x<4; ++x){
    14be:	c2 37       	cpi	r28, 0x72	; 114
    14c0:	d1 f7       	brne	.-12     	; 0x14b6 <LoadGameState+0x12>
        idSet += ReadStatusBit(110+x);
    }

    //Check if badge is reset(0 = cheated!) or new(3) or error(2)
    if (idSet != 1) {
    14c2:	d1 30       	cpi	r29, 0x01	; 1
        Reset();
    14c4:	11 f0       	breq	.+4      	; 0x14ca <LoadGameState+0x26>
    14c6:	d0 df       	rcall	.-96     	; 0x1468 <Reset>
    } else getID();
    14c8:	01 c0       	rjmp	.+2      	; 0x14cc <LoadGameState+0x28>
    14ca:	bf df       	rcall	.-130    	; 0x144a <getID>

    inventory[0] = (gameState[INVADDR]<<8|gameState[INVADDR+1]);
    14cc:	80 91 77 3a 	lds	r24, 0x3A77	; 0x803a77 <gameState+0x10>
    14d0:	90 91 78 3a 	lds	r25, 0x3A78	; 0x803a78 <gameState+0x11>
    14d4:	98 27       	eor	r25, r24
    14d6:	89 27       	eor	r24, r25
    14d8:	98 27       	eor	r25, r24
    14da:	80 93 44 38 	sts	0x3844, r24	; 0x803844 <inventory>
    14de:	90 93 45 38 	sts	0x3845, r25	; 0x803845 <inventory+0x1>
    inventory[1] = (gameState[INVADDR+2]<<8|gameState[INVADDR+3]);
    14e2:	80 91 79 3a 	lds	r24, 0x3A79	; 0x803a79 <gameState+0x12>
    14e6:	90 91 7a 3a 	lds	r25, 0x3A7A	; 0x803a7a <gameState+0x13>
    14ea:	98 27       	eor	r25, r24
    14ec:	89 27       	eor	r24, r25
    14ee:	98 27       	eor	r25, r24
    14f0:	80 93 46 38 	sts	0x3846, r24	; 0x803846 <inventory+0x2>
    14f4:	90 93 47 38 	sts	0x3847, r25	; 0x803847 <inventory+0x3>
}
    14f8:	df 91       	pop	r29
    14fa:	cf 91       	pop	r28
    14fc:	08 95       	ret

000014fe <HotSummer>:
    //Write bit 0, must always be 1!

}

//Sets specific game bits after the badge is heated for one and two times.
uint8_t HotSummer(){
    14fe:	cf 93       	push	r28
    static uint8_t cooledDown = 0;

    if (CheckState(SUMMERS_COMPLETED)){
    1500:	86 e7       	ldi	r24, 0x76	; 118
    1502:	93 df       	rcall	.-218    	; 0x142a <CheckState>
    1504:	c8 2f       	mov	r28, r24
    1506:	88 23       	and	r24, r24
    1508:	81 f0       	breq	.+32     	; 0x152a <HotSummer+0x2c>
        iLED[SCARAB[R]] = 0;
    150a:	e0 91 60 bf 	lds	r30, 0xBF60	; 0x80bf60 <__bss_end+0x8448>
    150e:	f0 e0       	ldi	r31, 0x00	; 0
    1510:	e7 53       	subi	r30, 0x37	; 55
    1512:	f5 4c       	sbci	r31, 0xC5	; 197
    1514:	10 82       	st	Z, r1
        iLED[SCARAB[G]] = dimValue;
    1516:	e0 91 61 bf 	lds	r30, 0xBF61	; 0x80bf61 <__bss_end+0x8449>
    151a:	f0 e0       	ldi	r31, 0x00	; 0
    151c:	80 91 0c 38 	lds	r24, 0x380C	; 0x80380c <dimValue>
    1520:	e7 53       	subi	r30, 0x37	; 55
    1522:	f5 4c       	sbci	r31, 0xC5	; 197
    1524:	80 83       	st	Z, r24
        return 1;
    1526:	c1 e0       	ldi	r28, 0x01	; 1
    1528:	4c c0       	rjmp	.+152    	; 0x15c2 <HotSummer+0xc4>
    }

    if (CheckState(FIRST_SUMMER)) {
    152a:	85 e7       	ldi	r24, 0x75	; 117
    152c:	7e df       	rcall	.-260    	; 0x142a <CheckState>
    152e:	88 23       	and	r24, r24
    1530:	59 f1       	breq	.+86     	; 0x1588 <HotSummer+0x8a>
        iLED[SCARAB[R]] = dimValue;
    1532:	e0 91 60 bf 	lds	r30, 0xBF60	; 0x80bf60 <__bss_end+0x8448>
    1536:	f0 e0       	ldi	r31, 0x00	; 0
    1538:	80 91 0c 38 	lds	r24, 0x380C	; 0x80380c <dimValue>
    153c:	e7 53       	subi	r30, 0x37	; 55
    153e:	f5 4c       	sbci	r31, 0xC5	; 197
    1540:	80 83       	st	Z, r24
        if ((cooledDown) && (adcTemp >= (calTemp + 32))) {
    1542:	80 91 5f 38 	lds	r24, 0x385F	; 0x80385f <cooledDown.3965>
    1546:	88 23       	and	r24, r24
    1548:	79 f0       	breq	.+30     	; 0x1568 <HotSummer+0x6a>
    154a:	80 91 c6 3a 	lds	r24, 0x3AC6	; 0x803ac6 <calTemp>
    154e:	90 91 c7 3a 	lds	r25, 0x3AC7	; 0x803ac7 <calTemp+0x1>
    1552:	20 91 f3 3a 	lds	r18, 0x3AF3	; 0x803af3 <adcTemp>
    1556:	30 91 f4 3a 	lds	r19, 0x3AF4	; 0x803af4 <adcTemp+0x1>
    155a:	80 96       	adiw	r24, 0x20	; 32
    155c:	28 17       	cp	r18, r24
    155e:	39 07       	cpc	r19, r25
            UpdateState(SUMMERS_COMPLETED);
    1560:	18 f0       	brcs	.+6      	; 0x1568 <HotSummer+0x6a>
    1562:	86 e7       	ldi	r24, 0x76	; 118
    1564:	41 df       	rcall	.-382    	; 0x13e8 <UpdateState>
            return 0;
    1566:	2d c0       	rjmp	.+90     	; 0x15c2 <HotSummer+0xc4>
        }
        if (adcTemp <= (calTemp + 8)) cooledDown = 1;
    1568:	80 91 c6 3a 	lds	r24, 0x3AC6	; 0x803ac6 <calTemp>
    156c:	90 91 c7 3a 	lds	r25, 0x3AC7	; 0x803ac7 <calTemp+0x1>
    1570:	20 91 f3 3a 	lds	r18, 0x3AF3	; 0x803af3 <adcTemp>
    1574:	30 91 f4 3a 	lds	r19, 0x3AF4	; 0x803af4 <adcTemp+0x1>
    1578:	08 96       	adiw	r24, 0x08	; 8
    157a:	82 17       	cp	r24, r18
    157c:	93 07       	cpc	r25, r19
    157e:	08 f1       	brcs	.+66     	; 0x15c2 <HotSummer+0xc4>
    1580:	81 e0       	ldi	r24, 0x01	; 1
    1582:	80 93 5f 38 	sts	0x385F, r24	; 0x80385f <cooledDown.3965>
    1586:	1d c0       	rjmp	.+58     	; 0x15c2 <HotSummer+0xc4>
                   
    } else {
        if (calTemp == 0) calTemp = adcTemp;
    1588:	80 91 c6 3a 	lds	r24, 0x3AC6	; 0x803ac6 <calTemp>
    158c:	90 91 c7 3a 	lds	r25, 0x3AC7	; 0x803ac7 <calTemp+0x1>
    1590:	89 2b       	or	r24, r25
    1592:	41 f4       	brne	.+16     	; 0x15a4 <HotSummer+0xa6>
    1594:	80 91 f3 3a 	lds	r24, 0x3AF3	; 0x803af3 <adcTemp>
    1598:	90 91 f4 3a 	lds	r25, 0x3AF4	; 0x803af4 <adcTemp+0x1>
    159c:	80 93 c6 3a 	sts	0x3AC6, r24	; 0x803ac6 <calTemp>
    15a0:	90 93 c7 3a 	sts	0x3AC7, r25	; 0x803ac7 <calTemp+0x1>
        if (adcTemp >= (calTemp + 32)) {
    15a4:	80 91 c6 3a 	lds	r24, 0x3AC6	; 0x803ac6 <calTemp>
    15a8:	90 91 c7 3a 	lds	r25, 0x3AC7	; 0x803ac7 <calTemp+0x1>
    15ac:	20 91 f3 3a 	lds	r18, 0x3AF3	; 0x803af3 <adcTemp>
    15b0:	30 91 f4 3a 	lds	r19, 0x3AF4	; 0x803af4 <adcTemp+0x1>
    15b4:	80 96       	adiw	r24, 0x20	; 32
    15b6:	28 17       	cp	r18, r24
    15b8:	39 07       	cpc	r19, r25
            UpdateState(FIRST_SUMMER);
    15ba:	18 f0       	brcs	.+6      	; 0x15c2 <HotSummer+0xc4>
    15bc:	85 e7       	ldi	r24, 0x75	; 117
    15be:	14 df       	rcall	.-472    	; 0x13e8 <UpdateState>
        }
    }
    return 0;
    15c0:	c0 e0       	ldi	r28, 0x00	; 0
}
    15c2:	8c 2f       	mov	r24, r28
    15c4:	cf 91       	pop	r28
    15c6:	08 95       	ret

000015c8 <WingBar>:

void WingBar(int8_t l, int8_t r) {
    15c8:	e2 e6       	ldi	r30, 0x62	; 98
    15ca:	ff eb       	ldi	r31, 0xBF	; 191
    for (int8_t i=0; i<5; i++) {
    15cc:	90 e0       	ldi	r25, 0x00	; 0
        if (i<l)
            iLED[WING[L][i]] = dimValue;
    15ce:	a5 81       	ldd	r26, Z+5	; 0x05
    15d0:	b0 e0       	ldi	r27, 0x00	; 0
    return 0;
}

void WingBar(int8_t l, int8_t r) {
    for (int8_t i=0; i<5; i++) {
        if (i<l)
    15d2:	98 17       	cp	r25, r24
    15d4:	34 f4       	brge	.+12     	; 0x15e2 <WingBar+0x1a>
            iLED[WING[L][i]] = dimValue;
    15d6:	20 91 0c 38 	lds	r18, 0x380C	; 0x80380c <dimValue>
    15da:	a7 53       	subi	r26, 0x37	; 55
    15dc:	b5 4c       	sbci	r27, 0xC5	; 197
    15de:	2c 93       	st	X, r18
    15e0:	03 c0       	rjmp	.+6      	; 0x15e8 <WingBar+0x20>
        else
            iLED[WING[L][i]] = 0;
    15e2:	a7 53       	subi	r26, 0x37	; 55
    15e4:	b5 4c       	sbci	r27, 0xC5	; 197
    15e6:	1c 92       	st	X, r1
        if (i<r)
            iLED[WING[R][i]] = dimValue;
    15e8:	a0 81       	ld	r26, Z
    15ea:	b0 e0       	ldi	r27, 0x00	; 0
    for (int8_t i=0; i<5; i++) {
        if (i<l)
            iLED[WING[L][i]] = dimValue;
        else
            iLED[WING[L][i]] = 0;
        if (i<r)
    15ec:	96 17       	cp	r25, r22
    15ee:	34 f4       	brge	.+12     	; 0x15fc <WingBar+0x34>
            iLED[WING[R][i]] = dimValue;
    15f0:	20 91 0c 38 	lds	r18, 0x380C	; 0x80380c <dimValue>
    15f4:	a7 53       	subi	r26, 0x37	; 55
    15f6:	b5 4c       	sbci	r27, 0xC5	; 197
    15f8:	2c 93       	st	X, r18
    15fa:	03 c0       	rjmp	.+6      	; 0x1602 <WingBar+0x3a>
        else
            iLED[WING[R][i]] = 0;
    15fc:	a7 53       	subi	r26, 0x37	; 55
    15fe:	b5 4c       	sbci	r27, 0xC5	; 197
    1600:	1c 92       	st	X, r1
    1602:	9f 5f       	subi	r25, 0xFF	; 255
    1604:	31 96       	adiw	r30, 0x01	; 1
    }
    return 0;
}

void WingBar(int8_t l, int8_t r) {
    for (int8_t i=0; i<5; i++) {
    1606:	95 30       	cpi	r25, 0x05	; 5
    1608:	11 f7       	brne	.-60     	; 0x15ce <WingBar+0x6>
        if (i<r)
            iLED[WING[R][i]] = dimValue;
        else
            iLED[WING[R][i]] = 0;
    }
}
    160a:	08 95       	ret

0000160c <SetBothEyes>:

void SetBothEyes(uint8_t r, uint8_t g) {
    for (uint8_t i=0; i<2; i++) {
        iLED[EYE[R][i]] = r;
    160c:	ac e6       	ldi	r26, 0x6C	; 108
    160e:	bf eb       	ldi	r27, 0xBF	; 191
    1610:	ec 91       	ld	r30, X
    1612:	f0 e0       	ldi	r31, 0x00	; 0
    1614:	e7 53       	subi	r30, 0x37	; 55
    1616:	f5 4c       	sbci	r31, 0xC5	; 197
    1618:	80 83       	st	Z, r24
        iLED[EYE[G][i]] = g;
    161a:	12 96       	adiw	r26, 0x02	; 2
    161c:	ec 91       	ld	r30, X
    161e:	12 97       	sbiw	r26, 0x02	; 2
    1620:	f0 e0       	ldi	r31, 0x00	; 0
    1622:	e7 53       	subi	r30, 0x37	; 55
    1624:	f5 4c       	sbci	r31, 0xC5	; 197
    1626:	60 83       	st	Z, r22
    }
}

void SetBothEyes(uint8_t r, uint8_t g) {
    for (uint8_t i=0; i<2; i++) {
        iLED[EYE[R][i]] = r;
    1628:	11 96       	adiw	r26, 0x01	; 1
    162a:	ec 91       	ld	r30, X
    162c:	11 97       	sbiw	r26, 0x01	; 1
    162e:	f0 e0       	ldi	r31, 0x00	; 0
    1630:	e7 53       	subi	r30, 0x37	; 55
    1632:	f5 4c       	sbci	r31, 0xC5	; 197
    1634:	80 83       	st	Z, r24
        iLED[EYE[G][i]] = g;
    1636:	13 96       	adiw	r26, 0x03	; 3
    1638:	ec 91       	ld	r30, X
    163a:	f0 e0       	ldi	r31, 0x00	; 0
    163c:	e7 53       	subi	r30, 0x37	; 55
    163e:	f5 4c       	sbci	r31, 0xC5	; 197
    1640:	60 83       	st	Z, r22
    1642:	08 95       	ret

00001644 <ClearHackerLeds>:
    }
}

void ClearHackerLeds() {
    1644:	cf 93       	push	r28
    1646:	df 93       	push	r29
    1648:	e0 e7       	ldi	r30, 0x70	; 112
    164a:	ff eb       	ldi	r31, 0xBF	; 191
    164c:	ef 01       	movw	r28, r30
    for (uint8_t i=0;i<6;i++) {
        iLED[HCKR[G][i]] = 0;
    164e:	a6 81       	ldd	r26, Z+6	; 0x06
    1650:	b0 e0       	ldi	r27, 0x00	; 0
    1652:	a7 53       	subi	r26, 0x37	; 55
    1654:	b5 4c       	sbci	r27, 0xC5	; 197
    1656:	1c 92       	st	X, r1
    1658:	31 96       	adiw	r30, 0x01	; 1
        iLED[HCKR[R][i]] = 0;
    165a:	a8 81       	ld	r26, Y
    165c:	b0 e0       	ldi	r27, 0x00	; 0
    165e:	a7 53       	subi	r26, 0x37	; 55
    1660:	b5 4c       	sbci	r27, 0xC5	; 197
    1662:	1c 92       	st	X, r1
        iLED[EYE[G][i]] = g;
    }
}

void ClearHackerLeds() {
    for (uint8_t i=0;i<6;i++) {
    1664:	8f eb       	ldi	r24, 0xBF	; 191
    1666:	e6 37       	cpi	r30, 0x76	; 118
    1668:	f8 07       	cpc	r31, r24
    166a:	81 f7       	brne	.-32     	; 0x164c <ClearHackerLeds+0x8>
        iLED[HCKR[G][i]] = 0;
        iLED[HCKR[R][i]] = 0;
    }
}
    166c:	df 91       	pop	r29
    166e:	cf 91       	pop	r28
    1670:	08 95       	ret

00001672 <GenerateBlinks>:


void GenerateBlinks(){
    1672:	cf 92       	push	r12
    1674:	df 92       	push	r13
    1676:	ef 92       	push	r14
    1678:	ff 92       	push	r15
    167a:	0f 93       	push	r16
    167c:	1f 93       	push	r17
    167e:	cf 93       	push	r28
    1680:	df 93       	push	r29
    used by the games, the other LEDs can be used by setting 
    effect (or be set directly)
    */

    //Activate HCKR & BADGER leds based on the state-bits
    if (gameNow == 0){ //TEXT) {
    1682:	80 91 42 38 	lds	r24, 0x3842	; 0x803842 <gameNow>
    1686:	88 23       	and	r24, r24
    1688:	29 f0       	breq	.+10     	; 0x1694 <GenerateBlinks+0x22>
                iLED[HCKR[R][i]] = dimValue;
            }
        }
    }

    if (CheckState(GEM_STATE)) {
    168a:	80 e4       	ldi	r24, 0x40	; 64
    168c:	ce de       	rcall	.-612    	; 0x142a <CheckState>
    168e:	81 11       	cpse	r24, r1
    1690:	24 c0       	rjmp	.+72     	; 0x16da <GenerateBlinks+0x68>
    1692:	50 c0       	rjmp	.+160    	; 0x1734 <GenerateBlinks+0xc2>
    1694:	c0 e7       	ldi	r28, 0x70	; 112
    1696:	df eb       	ldi	r29, 0xBF	; 191
    used by the games, the other LEDs can be used by setting 
    effect (or be set directly)
    */

    //Activate HCKR & BADGER leds based on the state-bits
    if (gameNow == 0){ //TEXT) {
    1698:	1a e7       	ldi	r17, 0x7A	; 122
        for (uint8_t i=0;i<6;i++) {
            if(CheckState(HACKER_STATES + i)) {
    169a:	81 2f       	mov	r24, r17
    169c:	c6 de       	rcall	.-628    	; 0x142a <CheckState>
                iLED[HCKR[G][i]] = dimValue;
    169e:	ee 81       	ldd	r30, Y+6	; 0x06
    16a0:	f0 e0       	ldi	r31, 0x00	; 0
    */

    //Activate HCKR & BADGER leds based on the state-bits
    if (gameNow == 0){ //TEXT) {
        for (uint8_t i=0;i<6;i++) {
            if(CheckState(HACKER_STATES + i)) {
    16a2:	88 23       	and	r24, r24
    16a4:	59 f0       	breq	.+22     	; 0x16bc <GenerateBlinks+0x4a>
                iLED[HCKR[G][i]] = dimValue;
    16a6:	80 91 0c 38 	lds	r24, 0x380C	; 0x80380c <dimValue>
    16aa:	e7 53       	subi	r30, 0x37	; 55
    16ac:	f5 4c       	sbci	r31, 0xC5	; 197
    16ae:	80 83       	st	Z, r24
                iLED[HCKR[R][i]] = 0;
    16b0:	e8 81       	ld	r30, Y
    16b2:	f0 e0       	ldi	r31, 0x00	; 0
    16b4:	e7 53       	subi	r30, 0x37	; 55
    16b6:	f5 4c       	sbci	r31, 0xC5	; 197
    16b8:	10 82       	st	Z, r1
    16ba:	0a c0       	rjmp	.+20     	; 0x16d0 <GenerateBlinks+0x5e>
            } else {
                iLED[HCKR[G][i]] = 0;
    16bc:	e7 53       	subi	r30, 0x37	; 55
    16be:	f5 4c       	sbci	r31, 0xC5	; 197
    16c0:	10 82       	st	Z, r1
                iLED[HCKR[R][i]] = dimValue;
    16c2:	e8 81       	ld	r30, Y
    16c4:	f0 e0       	ldi	r31, 0x00	; 0
    16c6:	80 91 0c 38 	lds	r24, 0x380C	; 0x80380c <dimValue>
    16ca:	e7 53       	subi	r30, 0x37	; 55
    16cc:	f5 4c       	sbci	r31, 0xC5	; 197
    16ce:	80 83       	st	Z, r24
    16d0:	1f 5f       	subi	r17, 0xFF	; 255
    16d2:	21 96       	adiw	r28, 0x01	; 1
    effect (or be set directly)
    */

    //Activate HCKR & BADGER leds based on the state-bits
    if (gameNow == 0){ //TEXT) {
        for (uint8_t i=0;i<6;i++) {
    16d4:	10 38       	cpi	r17, 0x80	; 128
    16d6:	09 f7       	brne	.-62     	; 0x169a <GenerateBlinks+0x28>
    16d8:	d8 cf       	rjmp	.-80     	; 0x168a <GenerateBlinks+0x18>
            }
        }
    }

    if (CheckState(GEM_STATE)) {
        if ( HeartCount == 1 || HeartCount == 3 || HeartCount == 5 )
    16da:	80 91 61 38 	lds	r24, 0x3861	; 0x803861 <HeartCount>
    16de:	98 2f       	mov	r25, r24
    16e0:	9d 7f       	andi	r25, 0xFD	; 253
    16e2:	e0 91 5f bf 	lds	r30, 0xBF5F	; 0x80bf5f <__bss_end+0x8447>
            iLED[BADGER] = dimValue>>1 ;
    16e6:	f0 e0       	ldi	r31, 0x00	; 0
            }
        }
    }

    if (CheckState(GEM_STATE)) {
        if ( HeartCount == 1 || HeartCount == 3 || HeartCount == 5 )
    16e8:	91 30       	cpi	r25, 0x01	; 1
    16ea:	11 f0       	breq	.+4      	; 0x16f0 <GenerateBlinks+0x7e>
    16ec:	85 30       	cpi	r24, 0x05	; 5
    16ee:	21 f4       	brne	.+8      	; 0x16f8 <GenerateBlinks+0x86>
            iLED[BADGER] = dimValue>>1 ;
    16f0:	90 91 0c 38 	lds	r25, 0x380C	; 0x80380c <dimValue>
    16f4:	96 95       	lsr	r25
    16f6:	06 c0       	rjmp	.+12     	; 0x1704 <GenerateBlinks+0x92>
        else if ( HeartCount == 2 || HeartCount == 4 )
    16f8:	82 30       	cpi	r24, 0x02	; 2
    16fa:	11 f0       	breq	.+4      	; 0x1700 <GenerateBlinks+0x8e>
    16fc:	84 30       	cpi	r24, 0x04	; 4
    16fe:	31 f4       	brne	.+12     	; 0x170c <GenerateBlinks+0x9a>
            iLED[BADGER] = dimValue;
    1700:	90 91 0c 38 	lds	r25, 0x380C	; 0x80380c <dimValue>
    1704:	e7 53       	subi	r30, 0x37	; 55
    1706:	f5 4c       	sbci	r31, 0xC5	; 197
    1708:	90 83       	st	Z, r25
    170a:	0c c0       	rjmp	.+24     	; 0x1724 <GenerateBlinks+0xb2>
        else if ( HeartCount == 0 || HeartCount == 6 )
    170c:	88 23       	and	r24, r24
    170e:	11 f0       	breq	.+4      	; 0x1714 <GenerateBlinks+0xa2>
    1710:	86 30       	cpi	r24, 0x06	; 6
    1712:	29 f4       	brne	.+10     	; 0x171e <GenerateBlinks+0xac>
            iLED[BADGER] = dimValue>>2;
    1714:	90 91 0c 38 	lds	r25, 0x380C	; 0x80380c <dimValue>
    1718:	96 95       	lsr	r25
    171a:	96 95       	lsr	r25
    171c:	f3 cf       	rjmp	.-26     	; 0x1704 <GenerateBlinks+0x92>
        else
            iLED[BADGER] = 0;
    171e:	e7 53       	subi	r30, 0x37	; 55
    1720:	f5 4c       	sbci	r31, 0xC5	; 197
    1722:	10 82       	st	Z, r1
        if (HeartCount<32)
    1724:	80 32       	cpi	r24, 0x20	; 32
    1726:	20 f4       	brcc	.+8      	; 0x1730 <GenerateBlinks+0xbe>
            HeartCount++;
    1728:	8f 5f       	subi	r24, 0xFF	; 255
    172a:	80 93 61 38 	sts	0x3861, r24	; 0x803861 <HeartCount>
    172e:	02 c0       	rjmp	.+4      	; 0x1734 <GenerateBlinks+0xc2>
        else
            HeartCount = 0;
    1730:	10 92 61 38 	sts	0x3861, r1	; 0x803861 <HeartCount>
    }

    //LEDs effects for all games
    // Keep a counter for dynamic effects
    LedCount++;
    1734:	90 91 60 38 	lds	r25, 0x3860	; 0x803860 <LedCount>
    1738:	9f 5f       	subi	r25, 0xFF	; 255
    173a:	90 93 60 38 	sts	0x3860, r25	; 0x803860 <LedCount>
    
    switch (effect&0x1f) {
    173e:	e0 91 40 38 	lds	r30, 0x3840	; 0x803840 <effect>
    1742:	f0 91 41 38 	lds	r31, 0x3841	; 0x803841 <effect+0x1>
    1746:	ef 71       	andi	r30, 0x1F	; 31
    1748:	ff 27       	eor	r31, r31
    174a:	e9 30       	cpi	r30, 0x09	; 9
    174c:	f1 05       	cpc	r31, r1
    174e:	08 f0       	brcs	.+2      	; 0x1752 <GenerateBlinks+0xe0>
    1750:	02 c1       	rjmp	.+516    	; 0x1956 <GenerateBlinks+0x2e4>
    1752:	e2 5c       	subi	r30, 0xC2	; 194
    1754:	ff 4f       	sbci	r31, 0xFF	; 255
    1756:	0c 94 93 1f 	jmp	0x3f26	; 0x3f26 <__tablejump2__>
        // All LEDs off
        case 0:
            WingBar(0,0);
    175a:	60 e0       	ldi	r22, 0x00	; 0
    175c:	80 e0       	ldi	r24, 0x00	; 0
    175e:	34 df       	rcall	.-408    	; 0x15c8 <WingBar>
            for (uint8_t i=0; i<2; i++) {
                iLED[EYE[R][i]] = 0;
    1760:	e0 91 6c bf 	lds	r30, 0xBF6C	; 0x80bf6c <__bss_end+0x8454>
    1764:	f0 e0       	ldi	r31, 0x00	; 0
    1766:	e7 53       	subi	r30, 0x37	; 55
    1768:	f5 4c       	sbci	r31, 0xC5	; 197
    176a:	10 82       	st	Z, r1
                iLED[EYE[G][i]] = 0; 
    176c:	e0 91 6e bf 	lds	r30, 0xBF6E	; 0x80bf6e <__bss_end+0x8456>
    1770:	f0 e0       	ldi	r31, 0x00	; 0
    1772:	e7 53       	subi	r30, 0x37	; 55
    1774:	f5 4c       	sbci	r31, 0xC5	; 197
    1776:	10 82       	st	Z, r1
                iLED[SCARAB[i]] = 0;
    1778:	e0 91 60 bf 	lds	r30, 0xBF60	; 0x80bf60 <__bss_end+0x8448>
    177c:	f0 e0       	ldi	r31, 0x00	; 0
    177e:	e7 53       	subi	r30, 0x37	; 55
    1780:	f5 4c       	sbci	r31, 0xC5	; 197
    1782:	10 82       	st	Z, r1
    switch (effect&0x1f) {
        // All LEDs off
        case 0:
            WingBar(0,0);
            for (uint8_t i=0; i<2; i++) {
                iLED[EYE[R][i]] = 0;
    1784:	e0 91 6d bf 	lds	r30, 0xBF6D	; 0x80bf6d <__bss_end+0x8455>
    1788:	f0 e0       	ldi	r31, 0x00	; 0
    178a:	e7 53       	subi	r30, 0x37	; 55
    178c:	f5 4c       	sbci	r31, 0xC5	; 197
    178e:	10 82       	st	Z, r1
                iLED[EYE[G][i]] = 0; 
    1790:	e0 91 6f bf 	lds	r30, 0xBF6F	; 0x80bf6f <__bss_end+0x8457>
    1794:	f0 e0       	ldi	r31, 0x00	; 0
    1796:	e7 53       	subi	r30, 0x37	; 55
    1798:	f5 4c       	sbci	r31, 0xC5	; 197
    179a:	10 82       	st	Z, r1
                iLED[SCARAB[i]] = 0;
    179c:	e0 91 61 bf 	lds	r30, 0xBF61	; 0x80bf61 <__bss_end+0x8449>
    17a0:	f0 e0       	ldi	r31, 0x00	; 0
    17a2:	e7 53       	subi	r30, 0x37	; 55
    17a4:	f5 4c       	sbci	r31, 0xC5	; 197
    17a6:	10 82       	st	Z, r1
            }
            iLED[CAT] = 0;
    17a8:	e0 91 5e bf 	lds	r30, 0xBF5E	; 0x80bf5e <__bss_end+0x8446>
    17ac:	f0 e0       	ldi	r31, 0x00	; 0
    17ae:	e7 53       	subi	r30, 0x37	; 55
    17b0:	f5 4c       	sbci	r31, 0xC5	; 197
    17b2:	10 82       	st	Z, r1
            break;
    17b4:	d0 c0       	rjmp	.+416    	; 0x1956 <GenerateBlinks+0x2e4>

        //'flashing red eyes',       # 1 can be used when a bad answer is given
        case 1:
            SetBothEyes((LedCount & 1 ? dimValue : 0),0);
    17b6:	89 2f       	mov	r24, r25
    17b8:	81 70       	andi	r24, 0x01	; 1
    17ba:	90 fd       	sbrc	r25, 0
    17bc:	80 91 0c 38 	lds	r24, 0x380C	; 0x80380c <dimValue>
    17c0:	60 e0       	ldi	r22, 0x00	; 0
    17c2:	0d c0       	rjmp	.+26     	; 0x17de <GenerateBlinks+0x16c>
    17c4:	69 2f       	mov	r22, r25
    17c6:	70 e0       	ldi	r23, 0x00	; 0
            break;

        //'flashing green eyes',     # 2 can be used when a good answer is given
        case 2:
            SetBothEyes(0, 0x1f + (((LedCount & 0x08) ? ((LedCount&0x07)^0x07) : (LedCount&0x07))<<5));
    17c8:	93 ff       	sbrs	r25, 3
    17ca:	02 c0       	rjmp	.+4      	; 0x17d0 <GenerateBlinks+0x15e>
    17cc:	60 95       	com	r22
    17ce:	70 95       	com	r23
    17d0:	95 e0       	ldi	r25, 0x05	; 5
    17d2:	66 0f       	add	r22, r22
    17d4:	77 1f       	adc	r23, r23
    17d6:	9a 95       	dec	r25
    17d8:	e1 f7       	brne	.-8      	; 0x17d2 <GenerateBlinks+0x160>
    17da:	61 5e       	subi	r22, 0xE1	; 225
    17dc:	80 e0       	ldi	r24, 0x00	; 0
        case 31:
        default:
            break;
            
    }
}
    17de:	df 91       	pop	r29
    17e0:	cf 91       	pop	r28
    17e2:	1f 91       	pop	r17
    17e4:	0f 91       	pop	r16
    17e6:	ff 90       	pop	r15
    17e8:	ef 90       	pop	r14
    17ea:	df 90       	pop	r13
            SetBothEyes((LedCount & 1 ? dimValue : 0),0);
            break;

        //'flashing green eyes',     # 2 can be used when a good answer is given
        case 2:
            SetBothEyes(0, 0x1f + (((LedCount & 0x08) ? ((LedCount&0x07)^0x07) : (LedCount&0x07))<<5));
    17ec:	cf 90       	pop	r12
    17ee:	0e cf       	rjmp	.-484    	; 0x160c <SetBothEyes>
            break;

        //'flash both wings'
        case 5:
            if ((LedCount & 3) == 0) {
    17f0:	89 2f       	mov	r24, r25
    17f2:	83 70       	andi	r24, 0x03	; 3
    17f4:	09 f0       	breq	.+2      	; 0x17f8 <GenerateBlinks+0x186>
    17f6:	af c0       	rjmp	.+350    	; 0x1956 <GenerateBlinks+0x2e4>
                if (LedCount & 4)
    17f8:	92 ff       	sbrs	r25, 2
    17fa:	03 c0       	rjmp	.+6      	; 0x1802 <GenerateBlinks+0x190>
                    WingBar(5,5);
    17fc:	65 e0       	ldi	r22, 0x05	; 5
    17fe:	85 e0       	ldi	r24, 0x05	; 5
    1800:	02 c0       	rjmp	.+4      	; 0x1806 <GenerateBlinks+0x194>
                else
                    WingBar(0,0);
    1802:	60 e0       	ldi	r22, 0x00	; 0
    1804:	80 e0       	ldi	r24, 0x00	; 0
        case 31:
        default:
            break;
            
    }
}
    1806:	df 91       	pop	r29
    1808:	cf 91       	pop	r28
    180a:	1f 91       	pop	r17
    180c:	0f 91       	pop	r16
    180e:	ff 90       	pop	r15
    1810:	ef 90       	pop	r14
    1812:	df 90       	pop	r13
        case 5:
            if ((LedCount & 3) == 0) {
                if (LedCount & 4)
                    WingBar(5,5);
                else
                    WingBar(0,0);
    1814:	cf 90       	pop	r12
    1816:	d8 ce       	rjmp	.-592    	; 0x15c8 <WingBar>
            }
            break;

        //'circle the wing leds'
        case 6:
            if (LedCount > 4) LedCount = 0;
    1818:	95 30       	cpi	r25, 0x05	; 5
    181a:	10 f0       	brcs	.+4      	; 0x1820 <GenerateBlinks+0x1ae>
    181c:	10 92 60 38 	sts	0x3860, r1	; 0x803860 <LedCount>
            iLED[WING[L][LedCount]] = 0;
    1820:	40 91 60 38 	lds	r20, 0x3860	; 0x803860 <LedCount>
    1824:	24 2f       	mov	r18, r20
    1826:	30 e0       	ldi	r19, 0x00	; 0
    1828:	f9 01       	movw	r30, r18
    182a:	ee 59       	subi	r30, 0x9E	; 158
    182c:	f0 44       	sbci	r31, 0x40	; 64
    182e:	e5 81       	ldd	r30, Z+5	; 0x05
    1830:	f0 e0       	ldi	r31, 0x00	; 0
    1832:	e7 53       	subi	r30, 0x37	; 55
    1834:	f5 4c       	sbci	r31, 0xC5	; 197
    1836:	10 82       	st	Z, r1
            iLED[WING[L][LedCount == 4 ? 0 : LedCount+1]] = dimValue;
    1838:	44 30       	cpi	r20, 0x04	; 4
    183a:	19 f0       	breq	.+6      	; 0x1842 <GenerateBlinks+0x1d0>
    183c:	c9 01       	movw	r24, r18
    183e:	01 96       	adiw	r24, 0x01	; 1
    1840:	02 c0       	rjmp	.+4      	; 0x1846 <GenerateBlinks+0x1d4>
    1842:	80 e0       	ldi	r24, 0x00	; 0
    1844:	90 e0       	ldi	r25, 0x00	; 0
    1846:	fc 01       	movw	r30, r24
    1848:	ee 59       	subi	r30, 0x9E	; 158
    184a:	f0 44       	sbci	r31, 0x40	; 64
    184c:	e5 81       	ldd	r30, Z+5	; 0x05
    184e:	f0 e0       	ldi	r31, 0x00	; 0
    1850:	80 91 0c 38 	lds	r24, 0x380C	; 0x80380c <dimValue>
    1854:	e7 53       	subi	r30, 0x37	; 55
    1856:	f5 4c       	sbci	r31, 0xC5	; 197
    1858:	80 83       	st	Z, r24
            iLED[WING[R][4-LedCount]] = 0;
    185a:	e6 e6       	ldi	r30, 0x66	; 102
    185c:	ff eb       	ldi	r31, 0xBF	; 191
    185e:	e2 1b       	sub	r30, r18
    1860:	f3 0b       	sbc	r31, r19
    1862:	e0 81       	ld	r30, Z
    1864:	f0 e0       	ldi	r31, 0x00	; 0
    1866:	e7 53       	subi	r30, 0x37	; 55
    1868:	f5 4c       	sbci	r31, 0xC5	; 197
    186a:	10 82       	st	Z, r1
            iLED[WING[R][LedCount == 4 ? 4 : 3-LedCount]] = dimValue;
    186c:	44 30       	cpi	r20, 0x04	; 4
    186e:	29 f0       	breq	.+10     	; 0x187a <GenerateBlinks+0x208>
    1870:	83 e0       	ldi	r24, 0x03	; 3
    1872:	90 e0       	ldi	r25, 0x00	; 0
    1874:	82 1b       	sub	r24, r18
    1876:	93 0b       	sbc	r25, r19
    1878:	02 c0       	rjmp	.+4      	; 0x187e <GenerateBlinks+0x20c>
    187a:	84 e0       	ldi	r24, 0x04	; 4
    187c:	90 e0       	ldi	r25, 0x00	; 0
    187e:	fc 01       	movw	r30, r24
    1880:	ee 59       	subi	r30, 0x9E	; 158
    1882:	f0 44       	sbci	r31, 0x40	; 64
    1884:	e0 81       	ld	r30, Z
    1886:	f0 e0       	ldi	r31, 0x00	; 0
    1888:	80 91 0c 38 	lds	r24, 0x380C	; 0x80380c <dimValue>
    188c:	e7 53       	subi	r30, 0x37	; 55
    188e:	f5 4c       	sbci	r31, 0xC5	; 197
    1890:	80 83       	st	Z, r24
            break;
    1892:	61 c0       	rjmp	.+194    	; 0x1956 <GenerateBlinks+0x2e4>
    1894:	c2 e6       	ldi	r28, 0x62	; 98
    1896:	df eb       	ldi	r29, 0xBF	; 191
    1898:	87 e6       	ldi	r24, 0x67	; 103
    189a:	e8 2e       	mov	r14, r24
    189c:	8f eb       	ldi	r24, 0xBF	; 191
    189e:	f8 2e       	mov	r15, r24

        //'random wing leds'
        case 7:
            for (uint8_t x=0; x<5; ++x){
                iLED[WING[L][x]] = (lfsr() > 127)?dimValue:0;
    18a0:	6e 01       	movw	r12, r28
    18a2:	0d 81       	ldd	r16, Y+5	; 0x05
    18a4:	10 e0       	ldi	r17, 0x00	; 0
    18a6:	96 dc       	rcall	.-1748   	; 0x11d4 <lfsr>
    18a8:	87 ff       	sbrs	r24, 7
    18aa:	03 c0       	rjmp	.+6      	; 0x18b2 <GenerateBlinks+0x240>
    18ac:	80 91 0c 38 	lds	r24, 0x380C	; 0x80380c <dimValue>
    18b0:	01 c0       	rjmp	.+2      	; 0x18b4 <GenerateBlinks+0x242>
    18b2:	80 e0       	ldi	r24, 0x00	; 0
    18b4:	f8 01       	movw	r30, r16
    18b6:	e7 53       	subi	r30, 0x37	; 55
    18b8:	f5 4c       	sbci	r31, 0xC5	; 197
    18ba:	80 83       	st	Z, r24
                iLED[WING[R][x]] = (lfsr() > 127)?dimValue:0;
    18bc:	21 96       	adiw	r28, 0x01	; 1
    18be:	f6 01       	movw	r30, r12
    18c0:	00 81       	ld	r16, Z
    18c2:	10 e0       	ldi	r17, 0x00	; 0
    18c4:	87 dc       	rcall	.-1778   	; 0x11d4 <lfsr>
    18c6:	87 ff       	sbrs	r24, 7
    18c8:	03 c0       	rjmp	.+6      	; 0x18d0 <GenerateBlinks+0x25e>
    18ca:	80 91 0c 38 	lds	r24, 0x380C	; 0x80380c <dimValue>
    18ce:	01 c0       	rjmp	.+2      	; 0x18d2 <GenerateBlinks+0x260>
    18d0:	80 e0       	ldi	r24, 0x00	; 0
    18d2:	f8 01       	movw	r30, r16
    18d4:	e7 53       	subi	r30, 0x37	; 55
    18d6:	f5 4c       	sbci	r31, 0xC5	; 197
    18d8:	80 83       	st	Z, r24
            iLED[WING[R][LedCount == 4 ? 4 : 3-LedCount]] = dimValue;
            break;

        //'random wing leds'
        case 7:
            for (uint8_t x=0; x<5; ++x){
    18da:	ec 16       	cp	r14, r28
    18dc:	fd 06       	cpc	r15, r29
    18de:	01 f7       	brne	.-64     	; 0x18a0 <GenerateBlinks+0x22e>
    18e0:	3a c0       	rjmp	.+116    	; 0x1956 <GenerateBlinks+0x2e4>
            }
            break;

        //'falling rain'
        case 8:
            if ((LedCount & 1) == 0) {
    18e2:	90 fd       	sbrc	r25, 0
    18e4:	38 c0       	rjmp	.+112    	; 0x1956 <GenerateBlinks+0x2e4>
    18e6:	e2 e6       	ldi	r30, 0x62	; 98
    18e8:	ff eb       	ldi	r31, 0xBF	; 191
    18ea:	86 e6       	ldi	r24, 0x66	; 102
    18ec:	9f eb       	ldi	r25, 0xBF	; 191
    18ee:	9f 01       	movw	r18, r30
                for (uint8_t x=0; x<4; ++x){
                    iLED[WING[L][x]] = iLED[WING[L][x+1]];
    18f0:	a5 81       	ldd	r26, Z+5	; 0x05
    18f2:	b0 e0       	ldi	r27, 0x00	; 0
    18f4:	c6 81       	ldd	r28, Z+6	; 0x06
    18f6:	d0 e0       	ldi	r29, 0x00	; 0
    18f8:	c7 53       	subi	r28, 0x37	; 55
    18fa:	d5 4c       	sbci	r29, 0xC5	; 197
    18fc:	48 81       	ld	r20, Y
    18fe:	a7 53       	subi	r26, 0x37	; 55
    1900:	b5 4c       	sbci	r27, 0xC5	; 197
    1902:	4c 93       	st	X, r20
    1904:	31 96       	adiw	r30, 0x01	; 1
                    iLED[WING[R][x]] = iLED[WING[R][x+1]];
    1906:	e9 01       	movw	r28, r18
    1908:	a8 81       	ld	r26, Y
    190a:	b0 e0       	ldi	r27, 0x00	; 0
    190c:	c0 81       	ld	r28, Z
    190e:	d0 e0       	ldi	r29, 0x00	; 0
    1910:	c7 53       	subi	r28, 0x37	; 55
    1912:	d5 4c       	sbci	r29, 0xC5	; 197
    1914:	28 81       	ld	r18, Y
    1916:	a7 53       	subi	r26, 0x37	; 55
    1918:	b5 4c       	sbci	r27, 0xC5	; 197
            break;

        //'falling rain'
        case 8:
            if ((LedCount & 1) == 0) {
                for (uint8_t x=0; x<4; ++x){
    191a:	2c 93       	st	X, r18
    191c:	8e 17       	cp	r24, r30
    191e:	9f 07       	cpc	r25, r31
                    iLED[WING[L][x]] = iLED[WING[L][x+1]];
                    iLED[WING[R][x]] = iLED[WING[R][x+1]];
                }
                iLED[WING[L][4]] = (lfsr() > 224)?dimValue:0;
    1920:	31 f7       	brne	.-52     	; 0x18ee <GenerateBlinks+0x27c>
    1922:	c0 91 6b bf 	lds	r28, 0xBF6B	; 0x80bf6b <__bss_end+0x8453>
    1926:	d0 e0       	ldi	r29, 0x00	; 0
    1928:	55 dc       	rcall	.-1878   	; 0x11d4 <lfsr>
    192a:	81 3e       	cpi	r24, 0xE1	; 225
    192c:	18 f0       	brcs	.+6      	; 0x1934 <GenerateBlinks+0x2c2>
    192e:	80 91 0c 38 	lds	r24, 0x380C	; 0x80380c <dimValue>
    1932:	01 c0       	rjmp	.+2      	; 0x1936 <GenerateBlinks+0x2c4>
    1934:	80 e0       	ldi	r24, 0x00	; 0
    1936:	c7 53       	subi	r28, 0x37	; 55
    1938:	d5 4c       	sbci	r29, 0xC5	; 197
                iLED[WING[R][4]] = (lfsr() > 224)?dimValue:0;
    193a:	88 83       	st	Y, r24
    193c:	c0 91 66 bf 	lds	r28, 0xBF66	; 0x80bf66 <__bss_end+0x844e>
    1940:	d0 e0       	ldi	r29, 0x00	; 0
    1942:	48 dc       	rcall	.-1904   	; 0x11d4 <lfsr>
    1944:	81 3e       	cpi	r24, 0xE1	; 225
    1946:	18 f0       	brcs	.+6      	; 0x194e <GenerateBlinks+0x2dc>
    1948:	80 91 0c 38 	lds	r24, 0x380C	; 0x80380c <dimValue>
    194c:	01 c0       	rjmp	.+2      	; 0x1950 <GenerateBlinks+0x2de>
    194e:	80 e0       	ldi	r24, 0x00	; 0
    1950:	c7 53       	subi	r28, 0x37	; 55
    1952:	d5 4c       	sbci	r29, 0xC5	; 197
    1954:	88 83       	st	Y, r24
        case 31:
        default:
            break;
            
    }
}
    1956:	df 91       	pop	r29
    1958:	cf 91       	pop	r28
    195a:	1f 91       	pop	r17
    195c:	0f 91       	pop	r16
    195e:	ff 90       	pop	r15
    1960:	ef 90       	pop	r14
    1962:	df 90       	pop	r13
    1964:	cf 90       	pop	r12
    1966:	08 95       	ret

00001968 <GenerateAudio>:


uint8_t GenerateAudio(){
    1968:	0f 93       	push	r16
    196a:	1f 93       	push	r17
    196c:	cf 93       	push	r28

    if (auIn < HPLVL) {
    196e:	80 91 c8 3a 	lds	r24, 0x3AC8	; 0x803ac8 <auIn>
    1972:	89 31       	cpi	r24, 0x19	; 25
    1974:	08 f0       	brcs	.+2      	; 0x1978 <GenerateAudio+0x10>
    1976:	8e c1       	rjmp	.+796    	; 0x1c94 <GenerateAudio+0x32c>

        detHdPh = 1;
    1978:	c1 e0       	ldi	r28, 0x01	; 1
    197a:	c0 93 c5 3a 	sts	0x3AC5, r28	; 0x803ac5 <detHdPh>

        //Audio for text adventure
        if ((effect&0xff00)==0) {
    197e:	80 91 40 38 	lds	r24, 0x3840	; 0x803840 <effect>
    1982:	90 91 41 38 	lds	r25, 0x3841	; 0x803841 <effect+0x1>
    1986:	88 27       	eor	r24, r24
    1988:	89 2b       	or	r24, r25
    198a:	09 f0       	breq	.+2      	; 0x198e <GenerateAudio+0x26>
    198c:	2d c1       	rjmp	.+602    	; 0x1be8 <GenerateAudio+0x280>

            //Silence
            if ((effect&0xE0)==0){
    198e:	80 91 40 38 	lds	r24, 0x3840	; 0x803840 <effect>
    1992:	90 91 41 38 	lds	r25, 0x3841	; 0x803841 <effect+0x1>
    1996:	80 7e       	andi	r24, 0xE0	; 224
    1998:	99 27       	eor	r25, r25
    199a:	89 2b       	or	r24, r25
    199c:	31 f4       	brne	.+12     	; 0x19aa <GenerateAudio+0x42>
                auRepAddr = &zero;
    199e:	8f e3       	ldi	r24, 0x3F	; 63
    19a0:	98 e3       	ldi	r25, 0x38	; 56
    19a2:	80 93 03 38 	sts	0x3803, r24	; 0x803803 <auRepAddr>
    19a6:	90 93 04 38 	sts	0x3804, r25	; 0x803804 <auRepAddr+0x1>
            }

            //Bad (buzzer)
            if ((effect&0xE0)==32){
    19aa:	80 91 40 38 	lds	r24, 0x3840	; 0x803840 <effect>
    19ae:	90 91 41 38 	lds	r25, 0x3841	; 0x803841 <effect+0x1>
    19b2:	80 7e       	andi	r24, 0xE0	; 224
    19b4:	99 27       	eor	r25, r25
    19b6:	80 97       	sbiw	r24, 0x20	; 32
    19b8:	09 f0       	breq	.+2      	; 0x19bc <GenerateAudio+0x54>
    19ba:	53 c0       	rjmp	.+166    	; 0x1a62 <GenerateAudio+0xfa>
                static uint8_t auBuffer[17] = {1, 255, 128, 128, 192, 255, 64, 255, 192, 128, 64, 1, 192, 1, 64, 128, 0}; 
                static uint8_t duration, start;
                floatSpeed(1, 0x2000, 0x2200);
    19bc:	40 e0       	ldi	r20, 0x00	; 0
    19be:	52 e2       	ldi	r21, 0x22	; 34
    19c0:	60 e0       	ldi	r22, 0x00	; 0
    19c2:	70 e2       	ldi	r23, 0x20	; 32
    19c4:	81 e0       	ldi	r24, 0x01	; 1
    19c6:	25 dc       	rcall	.-1974   	; 0x1212 <floatSpeed>
                auBuffer[2] = floatAround(0x80, 5, 0x01, 0x00);
    19c8:	20 e0       	ldi	r18, 0x00	; 0
    19ca:	41 e0       	ldi	r20, 0x01	; 1
    19cc:	65 e0       	ldi	r22, 0x05	; 5
    19ce:	80 e8       	ldi	r24, 0x80	; 128
    19d0:	52 dc       	rcall	.-1884   	; 0x1276 <floatAround>
    19d2:	80 93 19 38 	sts	0x3819, r24	; 0x803819 <auBuffer.4018+0x2>

                if (buttonMark){
    19d6:	80 91 48 38 	lds	r24, 0x3848	; 0x803848 <buttonMark>
    19da:	88 23       	and	r24, r24
    19dc:	09 f4       	brne	.+2      	; 0x19e0 <GenerateAudio+0x78>
    19de:	41 c0       	rjmp	.+130    	; 0x1a62 <GenerateAudio+0xfa>
                    if (start == 0) {
    19e0:	80 91 5e 38 	lds	r24, 0x385E	; 0x80385e <start.4020>
    19e4:	81 11       	cpse	r24, r1
    19e6:	0f c0       	rjmp	.+30     	; 0x1a06 <GenerateAudio+0x9e>
                        duration = 4;
    19e8:	84 e0       	ldi	r24, 0x04	; 4
    19ea:	80 93 5d 38 	sts	0x385D, r24	; 0x80385d <duration.4019>
                        auVolume = 255;
    19ee:	8f ef       	ldi	r24, 0xFF	; 255
    19f0:	80 93 bc 3a 	sts	0x3ABC, r24	; 0x803abc <auVolume>
                        auRepAddr = &auBuffer[0];
    19f4:	87 e1       	ldi	r24, 0x17	; 23
    19f6:	98 e3       	ldi	r25, 0x38	; 56
    19f8:	80 93 03 38 	sts	0x3803, r24	; 0x803803 <auRepAddr>
    19fc:	90 93 04 38 	sts	0x3804, r25	; 0x803804 <auRepAddr+0x1>
                        start = 1;
    1a00:	81 e0       	ldi	r24, 0x01	; 1
    1a02:	80 93 5e 38 	sts	0x385E, r24	; 0x80385e <start.4020>
                    }
                    
                    if ((auVolume)&&(duration == 0)) auVolume >>= 1; 
    1a06:	80 91 bc 3a 	lds	r24, 0x3ABC	; 0x803abc <auVolume>
    1a0a:	88 23       	and	r24, r24
    1a0c:	49 f0       	breq	.+18     	; 0x1a20 <GenerateAudio+0xb8>
    1a0e:	80 91 5d 38 	lds	r24, 0x385D	; 0x80385d <duration.4019>
    1a12:	81 11       	cpse	r24, r1
    1a14:	05 c0       	rjmp	.+10     	; 0x1a20 <GenerateAudio+0xb8>
    1a16:	80 91 bc 3a 	lds	r24, 0x3ABC	; 0x803abc <auVolume>
    1a1a:	86 95       	lsr	r24
    1a1c:	80 93 bc 3a 	sts	0x3ABC, r24	; 0x803abc <auVolume>

                    if (auVolume == 0){
    1a20:	80 91 bc 3a 	lds	r24, 0x3ABC	; 0x803abc <auVolume>
    1a24:	81 11       	cpse	r24, r1
    1a26:	16 c0       	rjmp	.+44     	; 0x1a54 <GenerateAudio+0xec>
                        start = 0;
    1a28:	10 92 5e 38 	sts	0x385E, r1	; 0x80385e <start.4020>
                        auRepAddr = &zero;
    1a2c:	8f e3       	ldi	r24, 0x3F	; 63
    1a2e:	98 e3       	ldi	r25, 0x38	; 56
    1a30:	80 93 03 38 	sts	0x3803, r24	; 0x803803 <auRepAddr>
    1a34:	90 93 04 38 	sts	0x3804, r25	; 0x803804 <auRepAddr+0x1>
                        effect &= 0x1f;
    1a38:	80 91 40 38 	lds	r24, 0x3840	; 0x803840 <effect>
    1a3c:	90 91 41 38 	lds	r25, 0x3841	; 0x803841 <effect+0x1>
    1a40:	8f 71       	andi	r24, 0x1F	; 31
    1a42:	99 27       	eor	r25, r25
    1a44:	80 93 40 38 	sts	0x3840, r24	; 0x803840 <effect>
    1a48:	90 93 41 38 	sts	0x3841, r25	; 0x803841 <effect+0x1>
                        auVolume = 255;
    1a4c:	8f ef       	ldi	r24, 0xFF	; 255
    1a4e:	80 93 bc 3a 	sts	0x3ABC, r24	; 0x803abc <auVolume>
    1a52:	07 c0       	rjmp	.+14     	; 0x1a62 <GenerateAudio+0xfa>
                    } else if (duration) --duration;
    1a54:	80 91 5d 38 	lds	r24, 0x385D	; 0x80385d <duration.4019>
    1a58:	88 23       	and	r24, r24
    1a5a:	19 f0       	breq	.+6      	; 0x1a62 <GenerateAudio+0xfa>
    1a5c:	81 50       	subi	r24, 0x01	; 1
    1a5e:	80 93 5d 38 	sts	0x385D, r24	; 0x80385d <duration.4019>

                }
            }

            //Good (bell)
            if (((effect&0xE0)==64)||((effect&0xE0)==160)){
    1a62:	80 91 40 38 	lds	r24, 0x3840	; 0x803840 <effect>
    1a66:	90 91 41 38 	lds	r25, 0x3841	; 0x803841 <effect+0x1>
    1a6a:	80 7e       	andi	r24, 0xE0	; 224
    1a6c:	99 27       	eor	r25, r25
    1a6e:	80 34       	cpi	r24, 0x40	; 64
    1a70:	91 05       	cpc	r25, r1
    1a72:	51 f0       	breq	.+20     	; 0x1a88 <GenerateAudio+0x120>
    1a74:	80 91 40 38 	lds	r24, 0x3840	; 0x803840 <effect>
    1a78:	90 91 41 38 	lds	r25, 0x3841	; 0x803841 <effect+0x1>
    1a7c:	80 7e       	andi	r24, 0xE0	; 224
    1a7e:	99 27       	eor	r25, r25
    1a80:	80 3a       	cpi	r24, 0xA0	; 160
    1a82:	91 05       	cpc	r25, r1
    1a84:	09 f0       	breq	.+2      	; 0x1a88 <GenerateAudio+0x120>
    1a86:	47 c0       	rjmp	.+142    	; 0x1b16 <GenerateAudio+0x1ae>
                static uint8_t start, auBuffer[3] = {255, 1, 0};
                
                if (buttonMark){
    1a88:	80 91 48 38 	lds	r24, 0x3848	; 0x803848 <buttonMark>
    1a8c:	88 23       	and	r24, r24
    1a8e:	09 f4       	brne	.+2      	; 0x1a92 <GenerateAudio+0x12a>
    1a90:	42 c0       	rjmp	.+132    	; 0x1b16 <GenerateAudio+0x1ae>
                    if (start == 0) {
    1a92:	80 91 5c 38 	lds	r24, 0x385C	; 0x80385c <start.4021>
    1a96:	81 11       	cpse	r24, r1
    1a98:	12 c0       	rjmp	.+36     	; 0x1abe <GenerateAudio+0x156>
                        auVolume = 255;
    1a9a:	8f ef       	ldi	r24, 0xFF	; 255
    1a9c:	80 93 bc 3a 	sts	0x3ABC, r24	; 0x803abc <auVolume>
                        TCB1_CCMP = 0x0a00;
    1aa0:	80 e0       	ldi	r24, 0x00	; 0
    1aa2:	9a e0       	ldi	r25, 0x0A	; 10
    1aa4:	80 93 5c 0a 	sts	0x0A5C, r24	; 0x800a5c <__TEXT_REGION_LENGTH__+0x700a5c>
    1aa8:	90 93 5d 0a 	sts	0x0A5D, r25	; 0x800a5d <__TEXT_REGION_LENGTH__+0x700a5d>
                        auRepAddr = &auBuffer[0];
    1aac:	84 e1       	ldi	r24, 0x14	; 20
    1aae:	98 e3       	ldi	r25, 0x38	; 56
    1ab0:	80 93 03 38 	sts	0x3803, r24	; 0x803803 <auRepAddr>
    1ab4:	90 93 04 38 	sts	0x3804, r25	; 0x803804 <auRepAddr+0x1>
                        start = 1;
    1ab8:	81 e0       	ldi	r24, 0x01	; 1
    1aba:	80 93 5c 38 	sts	0x385C, r24	; 0x80385c <start.4021>
                    }
                     
                    TCB1_CCMP -= (0x080<<((uint8_t)(effect>64)?2:0));                    
    1abe:	80 91 40 38 	lds	r24, 0x3840	; 0x803840 <effect>
    1ac2:	90 91 41 38 	lds	r25, 0x3841	; 0x803841 <effect+0x1>
    1ac6:	81 34       	cpi	r24, 0x41	; 65
    1ac8:	91 05       	cpc	r25, r1
    1aca:	18 f4       	brcc	.+6      	; 0x1ad2 <GenerateAudio+0x16a>
    1acc:	20 e8       	ldi	r18, 0x80	; 128
    1ace:	30 e0       	ldi	r19, 0x00	; 0
    1ad0:	02 c0       	rjmp	.+4      	; 0x1ad6 <GenerateAudio+0x16e>
    1ad2:	20 e0       	ldi	r18, 0x00	; 0
    1ad4:	32 e0       	ldi	r19, 0x02	; 2
    1ad6:	80 91 5c 0a 	lds	r24, 0x0A5C	; 0x800a5c <__TEXT_REGION_LENGTH__+0x700a5c>
    1ada:	90 91 5d 0a 	lds	r25, 0x0A5D	; 0x800a5d <__TEXT_REGION_LENGTH__+0x700a5d>
    1ade:	82 1b       	sub	r24, r18
    1ae0:	93 0b       	sbc	r25, r19
    1ae2:	80 93 5c 0a 	sts	0x0A5C, r24	; 0x800a5c <__TEXT_REGION_LENGTH__+0x700a5c>
    1ae6:	90 93 5d 0a 	sts	0x0A5D, r25	; 0x800a5d <__TEXT_REGION_LENGTH__+0x700a5d>
                    if (auVolume > 32) auVolume -=32; else 
    1aea:	80 91 bc 3a 	lds	r24, 0x3ABC	; 0x803abc <auVolume>
    1aee:	81 32       	cpi	r24, 0x21	; 33
    1af0:	30 f0       	brcs	.+12     	; 0x1afe <GenerateAudio+0x196>
    1af2:	80 91 bc 3a 	lds	r24, 0x3ABC	; 0x803abc <auVolume>
    1af6:	80 52       	subi	r24, 0x20	; 32
    1af8:	80 93 bc 3a 	sts	0x3ABC, r24	; 0x803abc <auVolume>
    1afc:	0c c0       	rjmp	.+24     	; 0x1b16 <GenerateAudio+0x1ae>
                    {
                        start = 0;
    1afe:	10 92 5c 38 	sts	0x385C, r1	; 0x80385c <start.4021>
                        auRepAddr = &zero;
    1b02:	8f e3       	ldi	r24, 0x3F	; 63
    1b04:	98 e3       	ldi	r25, 0x38	; 56
    1b06:	80 93 03 38 	sts	0x3803, r24	; 0x803803 <auRepAddr>
    1b0a:	90 93 04 38 	sts	0x3804, r25	; 0x803804 <auRepAddr+0x1>
                        effect = 0;
    1b0e:	10 92 40 38 	sts	0x3840, r1	; 0x803840 <effect>
    1b12:	10 92 41 38 	sts	0x3841, r1	; 0x803841 <effect+0x1>
                    }
                }
            }

            //Rain storm with whistling wind
            if ((effect&0xE0)==96){
    1b16:	80 91 40 38 	lds	r24, 0x3840	; 0x803840 <effect>
    1b1a:	90 91 41 38 	lds	r25, 0x3841	; 0x803841 <effect+0x1>
    1b1e:	80 7e       	andi	r24, 0xE0	; 224
    1b20:	99 27       	eor	r25, r25
    1b22:	80 36       	cpi	r24, 0x60	; 96
    1b24:	91 05       	cpc	r25, r1
    1b26:	a9 f5       	brne	.+106    	; 0x1b92 <GenerateAudio+0x22a>
                static uint8_t auBuffer[7];
                auBuffer[6]= 0;        
    1b28:	10 92 5b 38 	sts	0x385B, r1	; 0x80385b <auBuffer.4023+0x6>
                auRepAddr = &auBuffer[0];
    1b2c:	85 e5       	ldi	r24, 0x55	; 85
    1b2e:	98 e3       	ldi	r25, 0x38	; 56
    1b30:	80 93 03 38 	sts	0x3803, r24	; 0x803803 <auRepAddr>
    1b34:	90 93 04 38 	sts	0x3804, r25	; 0x803804 <auRepAddr+0x1>
    1b38:	8c 01       	movw	r16, r24

                //Noise is to be generated fast, outside of buttonMark loop
                for (uint8_t x=1; x<6; ++x){
    1b3a:	c1 e0       	ldi	r28, 0x01	; 1
                    if ((x>0) && (x!=3)) auBuffer[x] = floatAround(0x80, 5, 0x01, 0x00);
    1b3c:	c3 30       	cpi	r28, 0x03	; 3
    1b3e:	39 f0       	breq	.+14     	; 0x1b4e <GenerateAudio+0x1e6>
    1b40:	20 e0       	ldi	r18, 0x00	; 0
    1b42:	41 e0       	ldi	r20, 0x01	; 1
    1b44:	65 e0       	ldi	r22, 0x05	; 5
    1b46:	80 e8       	ldi	r24, 0x80	; 128
    1b48:	96 db       	rcall	.-2260   	; 0x1276 <floatAround>
    1b4a:	f8 01       	movw	r30, r16
    1b4c:	81 83       	std	Z+1, r24	; 0x01
                static uint8_t auBuffer[7];
                auBuffer[6]= 0;        
                auRepAddr = &auBuffer[0];

                //Noise is to be generated fast, outside of buttonMark loop
                for (uint8_t x=1; x<6; ++x){
    1b4e:	cf 5f       	subi	r28, 0xFF	; 255
    1b50:	0f 5f       	subi	r16, 0xFF	; 255
    1b52:	1f 4f       	sbci	r17, 0xFF	; 255
    1b54:	c6 30       	cpi	r28, 0x06	; 6
    1b56:	91 f7       	brne	.-28     	; 0x1b3c <GenerateAudio+0x1d4>
                    if ((x>0) && (x!=3)) auBuffer[x] = floatAround(0x80, 5, 0x01, 0x00);
                }

                if (buttonMark){
    1b58:	80 91 48 38 	lds	r24, 0x3848	; 0x803848 <buttonMark>
    1b5c:	88 23       	and	r24, r24
    1b5e:	c9 f0       	breq	.+50     	; 0x1b92 <GenerateAudio+0x22a>
                    //"Floating" speed for howl (and noise, but that's hardly audible)
                    floatSpeed(5, 0x0280, 0x0400);
    1b60:	40 e0       	ldi	r20, 0x00	; 0
    1b62:	54 e0       	ldi	r21, 0x04	; 4
    1b64:	60 e8       	ldi	r22, 0x80	; 128
    1b66:	72 e0       	ldi	r23, 0x02	; 2
    1b68:	85 e0       	ldi	r24, 0x05	; 5
    1b6a:	53 db       	rcall	.-2394   	; 0x1212 <floatSpeed>
            
                    //"Floating" volume and wind howl during 8 bit rainstorm needs some randomness
                    auVolume = floatAround(auVolume, 2, 0x10, 0xA0);
    1b6c:	80 91 bc 3a 	lds	r24, 0x3ABC	; 0x803abc <auVolume>
    1b70:	20 ea       	ldi	r18, 0xA0	; 160
    1b72:	40 e1       	ldi	r20, 0x10	; 16
    1b74:	62 e0       	ldi	r22, 0x02	; 2
    1b76:	7f db       	rcall	.-2306   	; 0x1276 <floatAround>
    1b78:	80 93 bc 3a 	sts	0x3ABC, r24	; 0x803abc <auVolume>
                    auBuffer[0] = floatAround(auBuffer[0], 2, 0x70, 0x90);
    1b7c:	20 e9       	ldi	r18, 0x90	; 144
    1b7e:	40 e7       	ldi	r20, 0x70	; 112
    1b80:	62 e0       	ldi	r22, 0x02	; 2
    1b82:	80 91 55 38 	lds	r24, 0x3855	; 0x803855 <auBuffer.4023>
    1b86:	77 db       	rcall	.-2322   	; 0x1276 <floatAround>
    1b88:	80 93 55 38 	sts	0x3855, r24	; 0x803855 <auBuffer.4023>
                    auBuffer[3] = 0xFF-auBuffer[0];  //Inverse value of wind[0] produces a whistle
    1b8c:	80 95       	com	r24
    1b8e:	80 93 58 38 	sts	0x3858, r24	; 0x803858 <auBuffer.4023+0x3>
                }
            }

            //Footsteps
            if ((effect&0xE0)==128){
    1b92:	80 91 40 38 	lds	r24, 0x3840	; 0x803840 <effect>
    1b96:	90 91 41 38 	lds	r25, 0x3841	; 0x803841 <effect+0x1>

            }

            //Bleeps
            if ((effect&0xE0)==160){
    1b9a:	80 91 40 38 	lds	r24, 0x3840	; 0x803840 <effect>
    1b9e:	90 91 41 38 	lds	r25, 0x3841	; 0x803841 <effect+0x1>
    1ba2:	80 7e       	andi	r24, 0xE0	; 224
    1ba4:	99 27       	eor	r25, r25
    1ba6:	80 3a       	cpi	r24, 0xA0	; 160
    1ba8:	91 05       	cpc	r25, r1
    1baa:	c9 f4       	brne	.+50     	; 0x1bde <GenerateAudio+0x276>
                static uint8_t auBuffer[3] = {255, 1, 0};
                auRepAddr = &auBuffer[0];
    1bac:	81 e1       	ldi	r24, 0x11	; 17
    1bae:	98 e3       	ldi	r25, 0x38	; 56
    1bb0:	80 93 03 38 	sts	0x3803, r24	; 0x803803 <auRepAddr>
    1bb4:	90 93 04 38 	sts	0x3804, r25	; 0x803804 <auRepAddr+0x1>
                if (buttonMark){
    1bb8:	80 91 48 38 	lds	r24, 0x3848	; 0x803848 <buttonMark>
    1bbc:	88 23       	and	r24, r24
                    floatSpeed(6, 0x0500, 0x0fff);
    1bbe:	79 f0       	breq	.+30     	; 0x1bde <GenerateAudio+0x276>
    1bc0:	4f ef       	ldi	r20, 0xFF	; 255
    1bc2:	5f e0       	ldi	r21, 0x0F	; 15
    1bc4:	60 e0       	ldi	r22, 0x00	; 0
    1bc6:	75 e0       	ldi	r23, 0x05	; 5
    1bc8:	86 e0       	ldi	r24, 0x06	; 6
    1bca:	23 db       	rcall	.-2490   	; 0x1212 <floatSpeed>
                    if (auVolume) --auVolume;
    1bcc:	80 91 bc 3a 	lds	r24, 0x3ABC	; 0x803abc <auVolume>
    1bd0:	88 23       	and	r24, r24
    1bd2:	29 f0       	breq	.+10     	; 0x1bde <GenerateAudio+0x276>
    1bd4:	80 91 bc 3a 	lds	r24, 0x3ABC	; 0x803abc <auVolume>
    1bd8:	81 50       	subi	r24, 0x01	; 1
    1bda:	80 93 bc 3a 	sts	0x3ABC, r24	; 0x803abc <auVolume>
                }
            }

            //
            if ((effect&0xE0)==192){
    1bde:	80 91 40 38 	lds	r24, 0x3840	; 0x803840 <effect>
    1be2:	90 91 41 38 	lds	r25, 0x3841	; 0x803841 <effect+0x1>
    1be6:	58 c0       	rjmp	.+176    	; 0x1c98 <GenerateAudio+0x330>
            }

            //
            else {
            }
        } else if ((effect&0xff00)==0x0100) {
    1be8:	80 91 40 38 	lds	r24, 0x3840	; 0x803840 <effect>
    1bec:	90 91 41 38 	lds	r25, 0x3841	; 0x803841 <effect+0x1>
    1bf0:	88 27       	eor	r24, r24
    1bf2:	81 15       	cp	r24, r1
    1bf4:	91 40       	sbci	r25, 0x01	; 1
    1bf6:	09 f0       	breq	.+2      	; 0x1bfa <GenerateAudio+0x292>
    1bf8:	4f c0       	rjmp	.+158    	; 0x1c98 <GenerateAudio+0x330>
            if ((effect&0xE0) <= 0x90) {
    1bfa:	80 91 40 38 	lds	r24, 0x3840	; 0x803840 <effect>
    1bfe:	90 91 41 38 	lds	r25, 0x3841	; 0x803841 <effect+0x1>
    1c02:	80 7e       	andi	r24, 0xE0	; 224
    1c04:	99 27       	eor	r25, r25
    1c06:	81 39       	cpi	r24, 0x91	; 145
    1c08:	91 05       	cpc	r25, r1
    1c0a:	08 f0       	brcs	.+2      	; 0x1c0e <GenerateAudio+0x2a6>
    1c0c:	45 c0       	rjmp	.+138    	; 0x1c98 <GenerateAudio+0x330>
                
                static uint8_t auBuffer[3] = {255, 1, 0};
                static uint8_t duration, start;
                uint16_t freq = ((effect&0xE0)+1)<<6;
    1c0e:	60 91 40 38 	lds	r22, 0x3840	; 0x803840 <effect>
    1c12:	70 91 41 38 	lds	r23, 0x3841	; 0x803841 <effect+0x1>
    1c16:	60 7e       	andi	r22, 0xE0	; 224
    1c18:	77 27       	eor	r23, r23
    1c1a:	6f 5f       	subi	r22, 0xFF	; 255
    1c1c:	7f 4f       	sbci	r23, 0xFF	; 255
    1c1e:	86 e0       	ldi	r24, 0x06	; 6
    1c20:	66 0f       	add	r22, r22
    1c22:	77 1f       	adc	r23, r23
    1c24:	8a 95       	dec	r24
                floatSpeed(1, freq+0x0200, freq+0x0300);
    1c26:	e1 f7       	brne	.-8      	; 0x1c20 <GenerateAudio+0x2b8>
    1c28:	ab 01       	movw	r20, r22
    1c2a:	5d 5f       	subi	r21, 0xFD	; 253
    1c2c:	7e 5f       	subi	r23, 0xFE	; 254
    1c2e:	81 e0       	ldi	r24, 0x01	; 1
    1c30:	f0 da       	rcall	.-2592   	; 0x1212 <floatSpeed>
                //auBuffer[] = floatAround(0x80, 5, 0x01, 0x00);

                if (buttonMark) {
    1c32:	80 91 48 38 	lds	r24, 0x3848	; 0x803848 <buttonMark>
    1c36:	88 23       	and	r24, r24
    1c38:	79 f1       	breq	.+94     	; 0x1c98 <GenerateAudio+0x330>
                    if (start == 0) {
    1c3a:	80 91 54 38 	lds	r24, 0x3854	; 0x803854 <start.4031>
    1c3e:	81 11       	cpse	r24, r1
    1c40:	0e c0       	rjmp	.+28     	; 0x1c5e <GenerateAudio+0x2f6>
                        duration = 3;
    1c42:	83 e0       	ldi	r24, 0x03	; 3
    1c44:	80 93 53 38 	sts	0x3853, r24	; 0x803853 <duration.4030>
                        auRepAddr = &auBuffer[0];
    1c48:	8e e0       	ldi	r24, 0x0E	; 14
    1c4a:	98 e3       	ldi	r25, 0x38	; 56
    1c4c:	80 93 03 38 	sts	0x3803, r24	; 0x803803 <auRepAddr>
    1c50:	90 93 04 38 	sts	0x3804, r25	; 0x803804 <auRepAddr+0x1>
                        auVolume = 255;
    1c54:	8f ef       	ldi	r24, 0xFF	; 255
    1c56:	80 93 bc 3a 	sts	0x3ABC, r24	; 0x803abc <auVolume>
                        start = 1;
    1c5a:	c0 93 54 38 	sts	0x3854, r28	; 0x803854 <start.4031>
                    }   if (duration == 0) {
    1c5e:	80 91 53 38 	lds	r24, 0x3853	; 0x803853 <duration.4030>
    1c62:	81 11       	cpse	r24, r1
    1c64:	13 c0       	rjmp	.+38     	; 0x1c8c <GenerateAudio+0x324>
                        effect &= 0x1f;
    1c66:	80 91 40 38 	lds	r24, 0x3840	; 0x803840 <effect>
    1c6a:	90 91 41 38 	lds	r25, 0x3841	; 0x803841 <effect+0x1>
    1c6e:	8f 71       	andi	r24, 0x1F	; 31
    1c70:	99 27       	eor	r25, r25
    1c72:	80 93 40 38 	sts	0x3840, r24	; 0x803840 <effect>
    1c76:	90 93 41 38 	sts	0x3841, r25	; 0x803841 <effect+0x1>
                        auRepAddr = &zero;
    1c7a:	8f e3       	ldi	r24, 0x3F	; 63
    1c7c:	98 e3       	ldi	r25, 0x38	; 56
    1c7e:	80 93 03 38 	sts	0x3803, r24	; 0x803803 <auRepAddr>
    1c82:	90 93 04 38 	sts	0x3804, r25	; 0x803804 <auRepAddr+0x1>
                        //auSmpAddr = &zero;
                        //auVolume = 0xff;
                        start = 0;
    1c86:	10 92 54 38 	sts	0x3854, r1	; 0x803854 <start.4031>
    1c8a:	06 c0       	rjmp	.+12     	; 0x1c98 <GenerateAudio+0x330>
                    } else duration--;
    1c8c:	81 50       	subi	r24, 0x01	; 1
    1c8e:	80 93 53 38 	sts	0x3853, r24	; 0x803853 <duration.4030>
    1c92:	02 c0       	rjmp	.+4      	; 0x1c98 <GenerateAudio+0x330>
                }
            }
        }
    } else {
        detHdPh = 0;
    1c94:	10 92 c5 3a 	sts	0x3AC5, r1	; 0x803ac5 <detHdPh>
    }
    return buttonMark;
    1c98:	80 91 48 38 	lds	r24, 0x3848	; 0x803848 <buttonMark>
}
    1c9c:	cf 91       	pop	r28
    1c9e:	1f 91       	pop	r17
    1ca0:	0f 91       	pop	r16
    1ca2:	08 95       	ret

00001ca4 <getClock>:

uint16_t getClock() {
    uint16_t tmp = RTC_CNT;
    1ca4:	80 91 48 01 	lds	r24, 0x0148	; 0x800148 <__TEXT_REGION_LENGTH__+0x700148>
    1ca8:	90 91 49 01 	lds	r25, 0x0149	; 0x800149 <__TEXT_REGION_LENGTH__+0x700149>
    return 60 * minuteMark + (tmp>>9);
    1cac:	20 91 49 38 	lds	r18, 0x3849	; 0x803849 <minuteMark>
    1cb0:	89 2f       	mov	r24, r25
    1cb2:	99 27       	eor	r25, r25
    1cb4:	86 95       	lsr	r24
}
    1cb6:	3c e3       	ldi	r19, 0x3C	; 60
    1cb8:	23 9f       	mul	r18, r19
    1cba:	80 0d       	add	r24, r0
    1cbc:	91 1d       	adc	r25, r1
    1cbe:	11 24       	eor	r1, r1
    1cc0:	08 95       	ret

00001cc2 <idleTimeout>:

uint8_t idleTimeout(uint16_t lastActive, uint16_t maxIdle) {
    1cc2:	0f 93       	push	r16
    1cc4:	1f 93       	push	r17
    1cc6:	cf 93       	push	r28
    1cc8:	df 93       	push	r29
    1cca:	8c 01       	movw	r16, r24
    1ccc:	eb 01       	movw	r28, r22
    uint16_t curClock;

    curClock = getClock();
    1cce:	ea df       	rcall	.-44     	; 0x1ca4 <getClock>
    1cd0:	9c 01       	movw	r18, r24
    if (curClock < lastActive)
    1cd2:	80 17       	cp	r24, r16
    1cd4:	91 07       	cpc	r25, r17
    1cd6:	08 f4       	brcc	.+2      	; 0x1cda <idleTimeout+0x18>
        curClock += 256 * 60;
    1cd8:	34 5c       	subi	r19, 0xC4	; 196

    return (curClock > (lastActive + maxIdle));
    1cda:	c0 0f       	add	r28, r16
    1cdc:	d1 1f       	adc	r29, r17
    1cde:	81 e0       	ldi	r24, 0x01	; 1
    1ce0:	c2 17       	cp	r28, r18
    1ce2:	d3 07       	cpc	r29, r19
    1ce4:	08 f0       	brcs	.+2      	; 0x1ce8 <idleTimeout+0x26>
    1ce6:	80 e0       	ldi	r24, 0x00	; 0
}
    1ce8:	df 91       	pop	r29
    1cea:	cf 91       	pop	r28
    1cec:	1f 91       	pop	r17
    1cee:	0f 91       	pop	r16
    1cf0:	08 95       	ret

00001cf2 <SelfTest>:

uint8_t SelfTest(){
    1cf2:	1f 93       	push	r17
    1cf4:	cf 93       	push	r28
    1cf6:	df 93       	push	r29
    1cf8:	00 d0       	rcall	.+0      	; 0x1cfa <SelfTest+0x8>
    1cfa:	00 d0       	rcall	.+0      	; 0x1cfc <SelfTest+0xa>
    1cfc:	cd b7       	in	r28, 0x3d	; 61
    1cfe:	de b7       	in	r29, 0x3e	; 62
    uint8_t tstVal[4] = {0x01, 0};
    1d00:	19 82       	std	Y+1, r1	; 0x01
    1d02:	1a 82       	std	Y+2, r1	; 0x02
    1d04:	1b 82       	std	Y+3, r1	; 0x03
    1d06:	1c 82       	std	Y+4, r1	; 0x04
    1d08:	a0 e7       	ldi	r26, 0x70	; 112
    1d0a:	bf eb       	ldi	r27, 0xBF	; 191
    1d0c:	86 e7       	ldi	r24, 0x76	; 118
    1d0e:	9f eb       	ldi	r25, 0xBF	; 191

    //Red HCKR all on 100%
    for (uint8_t x=0; x<6; ++x) {
        iLED[HCKR[R][x]] = 0xff;
    1d10:	2f ef       	ldi	r18, 0xFF	; 255
    1d12:	ed 91       	ld	r30, X+
    1d14:	f0 e0       	ldi	r31, 0x00	; 0
    1d16:	e7 53       	subi	r30, 0x37	; 55
    1d18:	f5 4c       	sbci	r31, 0xC5	; 197
    1d1a:	20 83       	st	Z, r18

uint8_t SelfTest(){
    uint8_t tstVal[4] = {0x01, 0};

    //Red HCKR all on 100%
    for (uint8_t x=0; x<6; ++x) {
    1d1c:	8a 17       	cp	r24, r26
    1d1e:	9b 07       	cpc	r25, r27
    1d20:	c1 f7       	brne	.-16     	; 0x1d12 <SelfTest+0x20>
        iLED[HCKR[R][x]] = 0xff;
    }

    //Light sensor
    tstVal[0] = adcPhot&0xff;
    1d22:	80 91 c3 3a 	lds	r24, 0x3AC3	; 0x803ac3 <adcPhot>
    1d26:	90 91 c4 3a 	lds	r25, 0x3AC4	; 0x803ac4 <adcPhot+0x1>
    1d2a:	89 83       	std	Y+1, r24	; 0x01
    while (tstVal[0] == (adcPhot&0xff)) ;
    1d2c:	99 27       	eor	r25, r25
    1d2e:	20 91 c3 3a 	lds	r18, 0x3AC3	; 0x803ac3 <adcPhot>
    1d32:	30 91 c4 3a 	lds	r19, 0x3AC4	; 0x803ac4 <adcPhot+0x1>
    1d36:	33 27       	eor	r19, r19
    1d38:	28 17       	cp	r18, r24
    1d3a:	39 07       	cpc	r19, r25
    1d3c:	c1 f3       	breq	.-16     	; 0x1d2e <SelfTest+0x3c>
    iLED[HCKR[R][1]] = 0x00;
    1d3e:	e0 91 71 bf 	lds	r30, 0xBF71	; 0x80bf71 <__bss_end+0x8459>
    1d42:	f0 e0       	ldi	r31, 0x00	; 0
    1d44:	e7 53       	subi	r30, 0x37	; 55
    1d46:	f5 4c       	sbci	r31, 0xC5	; 197
    1d48:	10 82       	st	Z, r1

    //Buttons (none pressed / shorted)
    while ((adcBtns>>4) < 200) ;
    1d4a:	80 91 bd 3a 	lds	r24, 0x3ABD	; 0x803abd <adcBtns>
    1d4e:	90 91 be 3a 	lds	r25, 0x3ABE	; 0x803abe <adcBtns+0x1>
    1d52:	80 38       	cpi	r24, 0x80	; 128
    1d54:	9c 40       	sbci	r25, 0x0C	; 12
    1d56:	c8 f3       	brcs	.-14     	; 0x1d4a <SelfTest+0x58>
    iLED[HCKR[R][4]] = 0x00;
    1d58:	e0 91 74 bf 	lds	r30, 0xBF74	; 0x80bf74 <__bss_end+0x845c>
    1d5c:	f0 e0       	ldi	r31, 0x00	; 0
    1d5e:	e7 53       	subi	r30, 0x37	; 55
    1d60:	f5 4c       	sbci	r31, 0xC5	; 197
    1d62:	10 82       	st	Z, r1
    
    ExtEERead(0x3CCC, 4, 0, (uint8_t *)&tstVal[0]);
    1d64:	9e 01       	movw	r18, r28
    1d66:	2f 5f       	subi	r18, 0xFF	; 255
    1d68:	3f 4f       	sbci	r19, 0xFF	; 255
    1d6a:	40 e0       	ldi	r20, 0x00	; 0
    1d6c:	64 e0       	ldi	r22, 0x04	; 4
    1d6e:	8c ec       	ldi	r24, 0xCC	; 204
    1d70:	9c e3       	ldi	r25, 0x3C	; 60
    1d72:	90 d9       	rcall	.-3296   	; 0x1094 <ExtEERead>
    if ((tstVal[0] != 63) || (tstVal[1] != 0) || (tstVal[2] != 192) || (tstVal[3] != 20)){
    1d74:	89 81       	ldd	r24, Y+1	; 0x01
    1d76:	8f 33       	cpi	r24, 0x3F	; 63
    1d78:	49 f4       	brne	.+18     	; 0x1d8c <SelfTest+0x9a>
    1d7a:	8a 81       	ldd	r24, Y+2	; 0x02
    1d7c:	81 11       	cpse	r24, r1
    1d7e:	06 c0       	rjmp	.+12     	; 0x1d8c <SelfTest+0x9a>
    1d80:	8b 81       	ldd	r24, Y+3	; 0x03
    1d82:	80 3c       	cpi	r24, 0xC0	; 192
    1d84:	19 f4       	brne	.+6      	; 0x1d8c <SelfTest+0x9a>
    1d86:	8c 81       	ldd	r24, Y+4	; 0x04
    1d88:	84 31       	cpi	r24, 0x14	; 20
    1d8a:	09 f0       	breq	.+2      	; 0x1d8e <SelfTest+0x9c>
    1d8c:	ff cf       	rjmp	.-2      	; 0x1d8c <SelfTest+0x9a>
    1d8e:	80 e0       	ldi	r24, 0x00	; 0
    1d90:	90 e0       	ldi	r25, 0x00	; 0
        while(1);
    }
    
    //All LEDs off
    for (uint8_t x=0; x<40; ++x) {
        iLED[x]=0;
    1d92:	fc 01       	movw	r30, r24
    1d94:	e7 53       	subi	r30, 0x37	; 55
    1d96:	f5 4c       	sbci	r31, 0xC5	; 197
    1d98:	10 82       	st	Z, r1
    1d9a:	01 96       	adiw	r24, 0x01	; 1
    if ((tstVal[0] != 63) || (tstVal[1] != 0) || (tstVal[2] != 192) || (tstVal[3] != 20)){
        while(1);
    }
    
    //All LEDs off
    for (uint8_t x=0; x<40; ++x) {
    1d9c:	88 32       	cpi	r24, 0x28	; 40
    1d9e:	91 05       	cpc	r25, r1
    1da0:	c1 f7       	brne	.-16     	; 0x1d92 <SelfTest+0xa0>
    1da2:	10 e0       	ldi	r17, 0x00	; 0
        iLED[x]=0;
    }

    for(uint8_t x=0; x<(adcPhot&0x3f); ++x) lfsr();
    1da4:	80 91 c3 3a 	lds	r24, 0x3AC3	; 0x803ac3 <adcPhot>
    1da8:	90 91 c4 3a 	lds	r25, 0x3AC4	; 0x803ac4 <adcPhot+0x1>
    1dac:	21 2f       	mov	r18, r17
    1dae:	30 e0       	ldi	r19, 0x00	; 0
    1db0:	8f 73       	andi	r24, 0x3F	; 63
    1db2:	99 27       	eor	r25, r25
    1db4:	28 17       	cp	r18, r24
    1db6:	39 07       	cpc	r19, r25
    1db8:	18 f4       	brcc	.+6      	; 0x1dc0 <SelfTest+0xce>
    1dba:	0c da       	rcall	.-3048   	; 0x11d4 <lfsr>
    1dbc:	1f 5f       	subi	r17, 0xFF	; 255
    1dbe:	f2 cf       	rjmp	.-28     	; 0x1da4 <SelfTest+0xb2>

    return 0;
}
    1dc0:	80 e0       	ldi	r24, 0x00	; 0
    1dc2:	24 96       	adiw	r28, 0x04	; 4
    1dc4:	cd bf       	out	0x3d, r28	; 61
    1dc6:	de bf       	out	0x3e, r29	; 62
    1dc8:	df 91       	pop	r29
    1dca:	cf 91       	pop	r28
    1dcc:	1f 91       	pop	r17
    1dce:	08 95       	ret

00001dd0 <simonLed>:

/**
 * Set the wing LED blocks to selected option
 * @param val
 */
void simonLed(uint8_t val) {
    1dd0:	cf 93       	push	r28
    1dd2:	df 93       	push	r29
    1dd4:	e2 e6       	ldi	r30, 0x62	; 98
    1dd6:	ff eb       	ldi	r31, 0xBF	; 191
    1dd8:	ef 01       	movw	r28, r30
    for (uint8_t n = 0; n < 5; n++) {
        iLED[WING[L][n]] = 0;
    1dda:	a5 81       	ldd	r26, Z+5	; 0x05
    1ddc:	b0 e0       	ldi	r27, 0x00	; 0
    1dde:	a7 53       	subi	r26, 0x37	; 55
    1de0:	b5 4c       	sbci	r27, 0xC5	; 197
    1de2:	1c 92       	st	X, r1
    1de4:	31 96       	adiw	r30, 0x01	; 1
        iLED[WING[R][n]] = 0;
    1de6:	a8 81       	ld	r26, Y
    1de8:	b0 e0       	ldi	r27, 0x00	; 0
    1dea:	a7 53       	subi	r26, 0x37	; 55
    1dec:	b5 4c       	sbci	r27, 0xC5	; 197
    1dee:	1c 92       	st	X, r1
/**
 * Set the wing LED blocks to selected option
 * @param val
 */
void simonLed(uint8_t val) {
    for (uint8_t n = 0; n < 5; n++) {
    1df0:	9f eb       	ldi	r25, 0xBF	; 191
    1df2:	e7 36       	cpi	r30, 0x67	; 103
    1df4:	f9 07       	cpc	r31, r25
    1df6:	81 f7       	brne	.-32     	; 0x1dd8 <simonLed+0x8>
        iLED[WING[L][n]] = 0;
        iLED[WING[R][n]] = 0;
    }
    if (val == 3) {         // II
    1df8:	83 30       	cpi	r24, 0x03	; 3
    1dfa:	d9 f4       	brne	.+54     	; 0x1e32 <simonLed+0x62>
        iLED[WING[L][0]] = dimValue;
    1dfc:	e0 91 67 bf 	lds	r30, 0xBF67	; 0x80bf67 <__bss_end+0x844f>
    1e00:	f0 e0       	ldi	r31, 0x00	; 0
    1e02:	80 91 0c 38 	lds	r24, 0x380C	; 0x80380c <dimValue>
    1e06:	e7 53       	subi	r30, 0x37	; 55
    1e08:	f5 4c       	sbci	r31, 0xC5	; 197
    1e0a:	80 83       	st	Z, r24
        iLED[WING[L][1]] = dimValue;
    1e0c:	e0 91 68 bf 	lds	r30, 0xBF68	; 0x80bf68 <__bss_end+0x8450>
    1e10:	f0 e0       	ldi	r31, 0x00	; 0
    1e12:	80 91 0c 38 	lds	r24, 0x380C	; 0x80380c <dimValue>
    1e16:	e7 53       	subi	r30, 0x37	; 55
    1e18:	f5 4c       	sbci	r31, 0xC5	; 197
    1e1a:	80 83       	st	Z, r24
        iLED[WING[L][2]] = dimValue;
    1e1c:	e0 91 69 bf 	lds	r30, 0xBF69	; 0x80bf69 <__bss_end+0x8451>
    1e20:	f0 e0       	ldi	r31, 0x00	; 0
    1e22:	80 91 0c 38 	lds	r24, 0x380C	; 0x80380c <dimValue>
    1e26:	e7 53       	subi	r30, 0x37	; 55
    1e28:	f5 4c       	sbci	r31, 0xC5	; 197
    1e2a:	80 83       	st	Z, r24
        effect = 0x013f;
    1e2c:	8f e3       	ldi	r24, 0x3F	; 63
    1e2e:	91 e0       	ldi	r25, 0x01	; 1
    1e30:	46 c0       	rjmp	.+140    	; 0x1ebe <simonLed+0xee>
    } else if (val == 1) {  //
    1e32:	81 30       	cpi	r24, 0x01	; 1
    1e34:	99 f4       	brne	.+38     	; 0x1e5c <simonLed+0x8c>
        iLED[WING[L][3]] = dimValue;
    1e36:	e0 91 6a bf 	lds	r30, 0xBF6A	; 0x80bf6a <__bss_end+0x8452>
    1e3a:	f0 e0       	ldi	r31, 0x00	; 0
    1e3c:	80 91 0c 38 	lds	r24, 0x380C	; 0x80380c <dimValue>
    1e40:	e7 53       	subi	r30, 0x37	; 55
    1e42:	f5 4c       	sbci	r31, 0xC5	; 197
    1e44:	80 83       	st	Z, r24
        iLED[WING[L][4]] = dimValue;
    1e46:	e0 91 6b bf 	lds	r30, 0xBF6B	; 0x80bf6b <__bss_end+0x8453>
    1e4a:	f0 e0       	ldi	r31, 0x00	; 0
    1e4c:	80 91 0c 38 	lds	r24, 0x380C	; 0x80380c <dimValue>
    1e50:	e7 53       	subi	r30, 0x37	; 55
    1e52:	f5 4c       	sbci	r31, 0xC5	; 197
    1e54:	80 83       	st	Z, r24
        effect = 0x015f;
    1e56:	8f e5       	ldi	r24, 0x5F	; 95
    1e58:	91 e0       	ldi	r25, 0x01	; 1
    1e5a:	31 c0       	rjmp	.+98     	; 0x1ebe <simonLed+0xee>
    } else if (val == 4) {  // III
    1e5c:	84 30       	cpi	r24, 0x04	; 4
    1e5e:	d9 f4       	brne	.+54     	; 0x1e96 <simonLed+0xc6>
        iLED[WING[R][0]] = dimValue;
    1e60:	e0 91 62 bf 	lds	r30, 0xBF62	; 0x80bf62 <__bss_end+0x844a>
    1e64:	f0 e0       	ldi	r31, 0x00	; 0
    1e66:	80 91 0c 38 	lds	r24, 0x380C	; 0x80380c <dimValue>
    1e6a:	e7 53       	subi	r30, 0x37	; 55
    1e6c:	f5 4c       	sbci	r31, 0xC5	; 197
    1e6e:	80 83       	st	Z, r24
        iLED[WING[R][1]] = dimValue;
    1e70:	e0 91 63 bf 	lds	r30, 0xBF63	; 0x80bf63 <__bss_end+0x844b>
    1e74:	f0 e0       	ldi	r31, 0x00	; 0
    1e76:	80 91 0c 38 	lds	r24, 0x380C	; 0x80380c <dimValue>
    1e7a:	e7 53       	subi	r30, 0x37	; 55
    1e7c:	f5 4c       	sbci	r31, 0xC5	; 197
    1e7e:	80 83       	st	Z, r24
        iLED[WING[R][2]] = dimValue;
    1e80:	e0 91 64 bf 	lds	r30, 0xBF64	; 0x80bf64 <__bss_end+0x844c>
    1e84:	f0 e0       	ldi	r31, 0x00	; 0
    1e86:	80 91 0c 38 	lds	r24, 0x380C	; 0x80380c <dimValue>
    1e8a:	e7 53       	subi	r30, 0x37	; 55
    1e8c:	f5 4c       	sbci	r31, 0xC5	; 197
    1e8e:	80 83       	st	Z, r24
        effect = 0x017f;
    1e90:	8f e7       	ldi	r24, 0x7F	; 127
    1e92:	91 e0       	ldi	r25, 0x01	; 1
    1e94:	14 c0       	rjmp	.+40     	; 0x1ebe <simonLed+0xee>
    } else if (val == 2) {  // I
    1e96:	82 30       	cpi	r24, 0x02	; 2
    1e98:	b1 f4       	brne	.+44     	; 0x1ec6 <simonLed+0xf6>
        iLED[WING[R][3]] = dimValue;
    1e9a:	e0 91 65 bf 	lds	r30, 0xBF65	; 0x80bf65 <__bss_end+0x844d>
    1e9e:	f0 e0       	ldi	r31, 0x00	; 0
    1ea0:	80 91 0c 38 	lds	r24, 0x380C	; 0x80380c <dimValue>
    1ea4:	e7 53       	subi	r30, 0x37	; 55
    1ea6:	f5 4c       	sbci	r31, 0xC5	; 197
    1ea8:	80 83       	st	Z, r24
        iLED[WING[R][4]] = dimValue;
    1eaa:	e0 91 66 bf 	lds	r30, 0xBF66	; 0x80bf66 <__bss_end+0x844e>
    1eae:	f0 e0       	ldi	r31, 0x00	; 0
    1eb0:	80 91 0c 38 	lds	r24, 0x380C	; 0x80380c <dimValue>
    1eb4:	e7 53       	subi	r30, 0x37	; 55
    1eb6:	f5 4c       	sbci	r31, 0xC5	; 197
    1eb8:	80 83       	st	Z, r24
        effect = 0x019f;
    1eba:	8f e9       	ldi	r24, 0x9F	; 159
    1ebc:	91 e0       	ldi	r25, 0x01	; 1
    1ebe:	80 93 40 38 	sts	0x3840, r24	; 0x803840 <effect>
    1ec2:	90 93 41 38 	sts	0x3841, r25	; 0x803841 <effect+0x1>
    }
}
    1ec6:	df 91       	pop	r29
    1ec8:	cf 91       	pop	r28
    1eca:	08 95       	ret

00001ecc <BastetDictates>:

/**
 * Main game loop
 * @return 0
 */
uint8_t BastetDictates() {
    1ecc:	cf 93       	push	r28
    1ece:	df 93       	push	r29
    if ((TEXT != gameNow) && (BASTET != gameNow))
    1ed0:	80 91 42 38 	lds	r24, 0x3842	; 0x803842 <gameNow>
    1ed4:	8d 7f       	andi	r24, 0xFD	; 253
    1ed6:	09 f0       	breq	.+2      	; 0x1eda <BastetDictates+0xe>
    1ed8:	73 c1       	rjmp	.+742    	; 0x21c0 <BastetDictates+0x2f4>
        return 0;

    if (CheckState(BASTET_COMPLETED)) {
    1eda:	8a e7       	ldi	r24, 0x7A	; 122
    1edc:	a6 da       	rcall	.-2740   	; 0x142a <CheckState>
    1ede:	88 23       	and	r24, r24
    1ee0:	41 f0       	breq	.+16     	; 0x1ef2 <BastetDictates+0x26>
        if (BASTET == gameNow) {
    1ee2:	80 91 42 38 	lds	r24, 0x3842	; 0x803842 <gameNow>
    1ee6:	82 30       	cpi	r24, 0x02	; 2
    1ee8:	09 f0       	breq	.+2      	; 0x1eec <BastetDictates+0x20>
    1eea:	6a c1       	rjmp	.+724    	; 0x21c0 <BastetDictates+0x2f4>
            gameNow = TEXT;
    1eec:	10 92 42 38 	sts	0x3842, r1	; 0x803842 <gameNow>
    1ef0:	67 c1       	rjmp	.+718    	; 0x21c0 <BastetDictates+0x2f4>
        }
        return 0;
    }

    if (CheckState(LANYARD_COMPLETED))
    1ef2:	8b e7       	ldi	r24, 0x7B	; 123
    1ef4:	9a da       	rcall	.-2764   	; 0x142a <CheckState>
    1ef6:	90 91 08 38 	lds	r25, 0x3808	; 0x803808 <buttonState>
    1efa:	88 23       	and	r24, r24
    1efc:	29 f0       	breq	.+10     	; 0x1f08 <BastetDictates+0x3c>
        if (buttonState!=0xff)
    1efe:	9f 3f       	cpi	r25, 0xFF	; 255
    1f00:	19 f0       	breq	.+6      	; 0x1f08 <BastetDictates+0x3c>
            gameNow = BASTET;
    1f02:	82 e0       	ldi	r24, 0x02	; 2
    1f04:	80 93 42 38 	sts	0x3842, r24	; 0x803842 <gameNow>

    iLED[CAT] = (buttonState==0xff ? 0 : dimValue);
    1f08:	e0 91 5e bf 	lds	r30, 0xBF5E	; 0x80bf5e <__bss_end+0x8446>
    1f0c:	f0 e0       	ldi	r31, 0x00	; 0
    1f0e:	9f 3f       	cpi	r25, 0xFF	; 255
    1f10:	19 f0       	breq	.+6      	; 0x1f18 <BastetDictates+0x4c>
    1f12:	80 91 0c 38 	lds	r24, 0x380C	; 0x80380c <dimValue>
    1f16:	01 c0       	rjmp	.+2      	; 0x1f1a <BastetDictates+0x4e>
    1f18:	80 e0       	ldi	r24, 0x00	; 0
    1f1a:	e7 53       	subi	r30, 0x37	; 55
    1f1c:	f5 4c       	sbci	r31, 0xC5	; 197
    1f1e:	80 83       	st	Z, r24

    if (BASTET_BOOT == simonGameState) {
    1f20:	80 91 62 38 	lds	r24, 0x3862	; 0x803862 <simonGameState>
    1f24:	81 11       	cpse	r24, r1
    1f26:	0c c0       	rjmp	.+24     	; 0x1f40 <BastetDictates+0x74>
    1f28:	c8 e6       	ldi	r28, 0x68	; 104
        for (uint8_t i = 0; i < BASTET_LENGTH; i++) {
            simonState[i] = (lfsr() % 4);
    1f2a:	d8 e3       	ldi	r29, 0x38	; 56
    1f2c:	53 d9       	rcall	.-3418   	; 0x11d4 <lfsr>
    1f2e:	83 70       	andi	r24, 0x03	; 3
    1f30:	89 93       	st	Y+, r24
            gameNow = BASTET;

    iLED[CAT] = (buttonState==0xff ? 0 : dimValue);

    if (BASTET_BOOT == simonGameState) {
        for (uint8_t i = 0; i < BASTET_LENGTH; i++) {
    1f32:	88 e3       	ldi	r24, 0x38	; 56
    1f34:	c4 37       	cpi	r28, 0x74	; 116
    1f36:	d8 07       	cpc	r29, r24
    1f38:	c9 f7       	brne	.-14     	; 0x1f2c <BastetDictates+0x60>
            simonState[i] = (lfsr() % 4);
        }
        simonGameState = BASTET_GAME_START;
    1f3a:	81 e0       	ldi	r24, 0x01	; 1
    1f3c:	80 93 62 38 	sts	0x3862, r24	; 0x803862 <simonGameState>
    }

    if (BASTET_GAME_START == simonGameState && BASTET == gameNow) {
    1f40:	80 91 62 38 	lds	r24, 0x3862	; 0x803862 <simonGameState>
    1f44:	81 30       	cpi	r24, 0x01	; 1
    1f46:	71 f4       	brne	.+28     	; 0x1f64 <BastetDictates+0x98>
    1f48:	80 91 42 38 	lds	r24, 0x3842	; 0x803842 <gameNow>
    1f4c:	82 30       	cpi	r24, 0x02	; 2
    1f4e:	51 f4       	brne	.+20     	; 0x1f64 <BastetDictates+0x98>
        simonGameState = BASTET_GAME_INTRO;
    1f50:	80 93 62 38 	sts	0x3862, r24	; 0x803862 <simonGameState>
        simonPos = 0;
    1f54:	10 92 67 38 	sts	0x3867, r1	; 0x803867 <simonPos>
        simonInputPos = 0;
    1f58:	10 92 66 38 	sts	0x3866, r1	; 0x803866 <simonInputPos>
        simonTimer = 0;
    1f5c:	10 92 65 38 	sts	0x3865, r1	; 0x803865 <simonTimer>
        simonCounter = 0;
    1f60:	10 92 63 38 	sts	0x3863, r1	; 0x803863 <simonCounter>
    }

    if (BASTET_GAME_INTRO == simonGameState) {
    1f64:	80 91 62 38 	lds	r24, 0x3862	; 0x803862 <simonGameState>
    1f68:	82 30       	cpi	r24, 0x02	; 2
    1f6a:	19 f5       	brne	.+70     	; 0x1fb2 <BastetDictates+0xe6>
        if (simonTimer > 5) {   // .33 seconds
    1f6c:	80 91 65 38 	lds	r24, 0x3865	; 0x803865 <simonTimer>
    1f70:	86 30       	cpi	r24, 0x06	; 6
    1f72:	38 f0       	brcs	.+14     	; 0x1f82 <BastetDictates+0xb6>
            simonCounter++;
    1f74:	80 91 63 38 	lds	r24, 0x3863	; 0x803863 <simonCounter>
    1f78:	8f 5f       	subi	r24, 0xFF	; 255
    1f7a:	80 93 63 38 	sts	0x3863, r24	; 0x803863 <simonCounter>
            simonTimer = 0;
    1f7e:	10 92 65 38 	sts	0x3865, r1	; 0x803865 <simonTimer>
        }
        if (simonCounter > 5) {
    1f82:	e0 91 63 38 	lds	r30, 0x3863	; 0x803863 <simonCounter>
    1f86:	e6 30       	cpi	r30, 0x06	; 6
    1f88:	48 f0       	brcs	.+18     	; 0x1f9c <BastetDictates+0xd0>
            simonGameState = BASTET_GAME_SHOW_PATTERN;
    1f8a:	83 e0       	ldi	r24, 0x03	; 3
    1f8c:	80 93 62 38 	sts	0x3862, r24	; 0x803862 <simonGameState>
            simonTimer = 0;
    1f90:	10 92 65 38 	sts	0x3865, r1	; 0x803865 <simonTimer>
            simonCounter = 0;
    1f94:	10 92 63 38 	sts	0x3863, r1	; 0x803863 <simonCounter>
            ClearHackerLeds();
    1f98:	55 db       	rcall	.-2390   	; 0x1644 <ClearHackerLeds>
            return 0;
    1f9a:	12 c1       	rjmp	.+548    	; 0x21c0 <BastetDictates+0x2f4>
        }
        iLED[HCKR[R][simonCounter]] = dimValue;
    1f9c:	f0 e0       	ldi	r31, 0x00	; 0
    1f9e:	e0 59       	subi	r30, 0x90	; 144
    1fa0:	f0 44       	sbci	r31, 0x40	; 64
    1fa2:	e0 81       	ld	r30, Z
    1fa4:	f0 e0       	ldi	r31, 0x00	; 0
    1fa6:	80 91 0c 38 	lds	r24, 0x380C	; 0x80380c <dimValue>
    1faa:	e7 53       	subi	r30, 0x37	; 55
    1fac:	f5 4c       	sbci	r31, 0xC5	; 197
    1fae:	80 83       	st	Z, r24
    1fb0:	2b c0       	rjmp	.+86     	; 0x2008 <BastetDictates+0x13c>
    }

    if (BASTET_GAME_SHOW_PATTERN == simonGameState) {
    1fb2:	83 30       	cpi	r24, 0x03	; 3
    1fb4:	49 f5       	brne	.+82     	; 0x2008 <BastetDictates+0x13c>
        if (simonTimer > 7) {   // .5 second
    1fb6:	80 91 65 38 	lds	r24, 0x3865	; 0x803865 <simonTimer>
    1fba:	88 30       	cpi	r24, 0x08	; 8
    1fbc:	38 f0       	brcs	.+14     	; 0x1fcc <BastetDictates+0x100>
            simonCounter++;
    1fbe:	80 91 63 38 	lds	r24, 0x3863	; 0x803863 <simonCounter>
    1fc2:	8f 5f       	subi	r24, 0xFF	; 255
    1fc4:	80 93 63 38 	sts	0x3863, r24	; 0x803863 <simonCounter>
            simonTimer = 0;
    1fc8:	10 92 65 38 	sts	0x3865, r1	; 0x803865 <simonTimer>
        }
        if (simonCounter > simonPos) {
    1fcc:	e0 91 63 38 	lds	r30, 0x3863	; 0x803863 <simonCounter>
    1fd0:	80 91 67 38 	lds	r24, 0x3867	; 0x803867 <simonPos>
    1fd4:	8e 17       	cp	r24, r30
    1fd6:	40 f4       	brcc	.+16     	; 0x1fe8 <BastetDictates+0x11c>
            simonInputPos = 0;
    1fd8:	10 92 66 38 	sts	0x3866, r1	; 0x803866 <simonInputPos>
            simonGameState = BASTET_GAME_INPUT;
    1fdc:	85 e0       	ldi	r24, 0x05	; 5
    1fde:	80 93 62 38 	sts	0x3862, r24	; 0x803862 <simonGameState>
            simonLed(0);
    1fe2:	80 e0       	ldi	r24, 0x00	; 0
    1fe4:	f5 de       	rcall	.-534    	; 0x1dd0 <simonLed>
    1fe6:	98 c0       	rjmp	.+304    	; 0x2118 <BastetDictates+0x24c>
            simonTimer = 0;
            return 0;
        }
        if (simonTimer < 3) {
    1fe8:	80 91 65 38 	lds	r24, 0x3865	; 0x803865 <simonTimer>
    1fec:	83 30       	cpi	r24, 0x03	; 3
    1fee:	30 f4       	brcc	.+12     	; 0x1ffc <BastetDictates+0x130>
            simonLed(simonState[simonCounter] + 1);
    1ff0:	f0 e0       	ldi	r31, 0x00	; 0
    1ff2:	e8 59       	subi	r30, 0x98	; 152
    1ff4:	f7 4c       	sbci	r31, 0xC7	; 199
    1ff6:	80 81       	ld	r24, Z
    1ff8:	8f 5f       	subi	r24, 0xFF	; 255
    1ffa:	ea de       	rcall	.-556    	; 0x1dd0 <simonLed>
        }
        if (simonTimer > 6) {
    1ffc:	80 91 65 38 	lds	r24, 0x3865	; 0x803865 <simonTimer>
    2000:	87 30       	cpi	r24, 0x07	; 7
    2002:	10 f0       	brcs	.+4      	; 0x2008 <BastetDictates+0x13c>
            simonLed(0);
    2004:	80 e0       	ldi	r24, 0x00	; 0
    2006:	e4 de       	rcall	.-568    	; 0x1dd0 <simonLed>
    2008:	c0 91 62 38 	lds	r28, 0x3862	; 0x803862 <simonGameState>
        }
    }

    if (BASTET_GAME_INPUT == simonGameState) {
    200c:	c5 30       	cpi	r28, 0x05	; 5
    200e:	09 f0       	breq	.+2      	; 0x2012 <BastetDictates+0x146>
    2010:	86 c0       	rjmp	.+268    	; 0x211e <BastetDictates+0x252>
    2012:	80 91 08 38 	lds	r24, 0x3808	; 0x803808 <buttonState>
        //Button pressed
        if (lastButtonState != buttonState && (buttonState+1) > 0) {
    2016:	90 91 07 38 	lds	r25, 0x3807	; 0x803807 <lastButtonState>
    201a:	98 17       	cp	r25, r24
    201c:	09 f4       	brne	.+2      	; 0x2020 <BastetDictates+0x154>
    201e:	71 c0       	rjmp	.+226    	; 0x2102 <BastetDictates+0x236>
    2020:	90 91 64 38 	lds	r25, 0x3864	; 0x803864 <simonWait>
            if (simonWait == 0 && buttonState < 4) {
    2024:	91 11       	cpse	r25, r1
    2026:	6f c0       	rjmp	.+222    	; 0x2106 <BastetDictates+0x23a>
    2028:	84 30       	cpi	r24, 0x04	; 4
    202a:	08 f0       	brcs	.+2      	; 0x202e <BastetDictates+0x162>
    202c:	6c c0       	rjmp	.+216    	; 0x2106 <BastetDictates+0x23a>
                simonWait = 1;
    202e:	91 e0       	ldi	r25, 0x01	; 1
    2030:	90 93 64 38 	sts	0x3864, r25	; 0x803864 <simonWait>
                simonTimer = 0;
    2034:	10 92 65 38 	sts	0x3865, r1	; 0x803865 <simonTimer>
                simonLed(buttonState+1);
    2038:	8f 5f       	subi	r24, 0xFF	; 255
    203a:	ca de       	rcall	.-620    	; 0x1dd0 <simonLed>
    203c:	84 e0       	ldi	r24, 0x04	; 4
                simonGameState = BASTET_GAME_WAIT_LEDS;
    203e:	80 93 62 38 	sts	0x3862, r24	; 0x803862 <simonGameState>
    2042:	c0 93 33 38 	sts	0x3833, r28	; 0x803833 <simonNextGameState>
                simonNextGameState = BASTET_GAME_INPUT;
    2046:	80 91 66 38 	lds	r24, 0x3866	; 0x803866 <simonInputPos>

                if (simonState[simonInputPos] == buttonState) {
    204a:	e8 2f       	mov	r30, r24
    204c:	f0 e0       	ldi	r31, 0x00	; 0
    204e:	e8 59       	subi	r30, 0x98	; 152
    2050:	f7 4c       	sbci	r31, 0xC7	; 199
    2052:	20 81       	ld	r18, Z
    2054:	90 91 08 38 	lds	r25, 0x3808	; 0x803808 <buttonState>
    2058:	29 13       	cpse	r18, r25
    205a:	1d c0       	rjmp	.+58     	; 0x2096 <BastetDictates+0x1ca>
    205c:	8f 5f       	subi	r24, 0xFF	; 255
                    simonInputPos++;
    205e:	80 93 66 38 	sts	0x3866, r24	; 0x803866 <simonInputPos>
    2062:	e0 91 67 38 	lds	r30, 0x3867	; 0x803867 <simonPos>
                    if (simonInputPos > simonPos) {
    2066:	e8 17       	cp	r30, r24
    2068:	a0 f5       	brcc	.+104    	; 0x20d2 <BastetDictates+0x206>
    206a:	ef 5f       	subi	r30, 0xFF	; 255
                        simonPos++;
    206c:	e0 93 67 38 	sts	0x3867, r30	; 0x803867 <simonPos>
    2070:	10 92 65 38 	sts	0x3865, r1	; 0x803865 <simonTimer>
                        simonTimer = 0;
    2074:	10 92 63 38 	sts	0x3863, r1	; 0x803863 <simonCounter>
                        simonCounter = 0;
    2078:	e1 30       	cpi	r30, 0x01	; 1
                        if (simonPos > 1) { // BASTET_LENGTH = 12
    207a:	59 f0       	breq	.+22     	; 0x2092 <BastetDictates+0x1c6>
    207c:	e6 95       	lsr	r30
                            iLED[HCKR[G][(simonPos / 2) - 1]] = dimValue;
    207e:	f0 e0       	ldi	r31, 0x00	; 0
    2080:	e0 59       	subi	r30, 0x90	; 144
    2082:	f0 44       	sbci	r31, 0x40	; 64
    2084:	e5 81       	ldd	r30, Z+5	; 0x05
    2086:	f0 e0       	ldi	r31, 0x00	; 0
    2088:	80 91 0c 38 	lds	r24, 0x380C	; 0x80380c <dimValue>
    208c:	e7 53       	subi	r30, 0x37	; 55
    208e:	f5 4c       	sbci	r31, 0xC5	; 197
    2090:	80 83       	st	Z, r24
    2092:	83 e0       	ldi	r24, 0x03	; 3
                        }
                        simonNextGameState = BASTET_GAME_SHOW_PATTERN;
    2094:	1c c0       	rjmp	.+56     	; 0x20ce <BastetDictates+0x202>
    2096:	80 e2       	ldi	r24, 0x20	; 32
                    }
                } else {
                    effect = 32;
    2098:	90 e0       	ldi	r25, 0x00	; 0
    209a:	80 93 40 38 	sts	0x3840, r24	; 0x803840 <effect>
    209e:	90 93 41 38 	sts	0x3841, r25	; 0x803841 <effect+0x1>
    20a2:	a0 e7       	ldi	r26, 0x70	; 112
    20a4:	bf eb       	ldi	r27, 0xBF	; 191
    20a6:	ed 91       	ld	r30, X+
                    for (uint8_t n=0; n<6; n++){
                        iLED[HCKR[R][n]] = dimValue;
    20a8:	f0 e0       	ldi	r31, 0x00	; 0
    20aa:	80 91 0c 38 	lds	r24, 0x380C	; 0x80380c <dimValue>
    20ae:	e7 53       	subi	r30, 0x37	; 55
    20b0:	f5 4c       	sbci	r31, 0xC5	; 197
    20b2:	80 83       	st	Z, r24
    20b4:	8f eb       	ldi	r24, 0xBF	; 191
                        }
                        simonNextGameState = BASTET_GAME_SHOW_PATTERN;
                    }
                } else {
                    effect = 32;
                    for (uint8_t n=0; n<6; n++){
    20b6:	a6 37       	cpi	r26, 0x76	; 118
    20b8:	b8 07       	cpc	r27, r24
    20ba:	a9 f7       	brne	.-22     	; 0x20a6 <BastetDictates+0x1da>
    20bc:	10 92 66 38 	sts	0x3866, r1	; 0x803866 <simonInputPos>
                        iLED[HCKR[R][n]] = dimValue;
                    }
                    simonInputPos = 0;
    20c0:	10 92 67 38 	sts	0x3867, r1	; 0x803867 <simonPos>
                    simonPos = 0;
    20c4:	10 92 65 38 	sts	0x3865, r1	; 0x803865 <simonTimer>
                    simonTimer = 0;
    20c8:	10 92 63 38 	sts	0x3863, r1	; 0x803863 <simonCounter>
                    simonCounter = 0;
    20cc:	86 e0       	ldi	r24, 0x06	; 6
                    simonNextGameState = BASTET_GAME_OUTRO;
    20ce:	80 93 33 38 	sts	0x3833, r24	; 0x803833 <simonNextGameState>
    20d2:	80 91 66 38 	lds	r24, 0x3866	; 0x803866 <simonInputPos>
                }

                if (simonInputPos >= BASTET_LENGTH || simonPos >= BASTET_LENGTH) { // beetje dubbel
    20d6:	8c 30       	cpi	r24, 0x0C	; 12
    20d8:	20 f4       	brcc	.+8      	; 0x20e2 <BastetDictates+0x216>
    20da:	80 91 67 38 	lds	r24, 0x3867	; 0x803867 <simonPos>
    20de:	8c 30       	cpi	r24, 0x0C	; 12
    20e0:	90 f0       	brcs	.+36     	; 0x2106 <BastetDictates+0x23a>
                    effect = 64|2;
    20e2:	82 e4       	ldi	r24, 0x42	; 66
    20e4:	90 e0       	ldi	r25, 0x00	; 0
    20e6:	80 93 40 38 	sts	0x3840, r24	; 0x803840 <effect>
    20ea:	90 93 41 38 	sts	0x3841, r25	; 0x803841 <effect+0x1>
                    UpdateState(BASTET_COMPLETED);
    20ee:	8a e7       	ldi	r24, 0x7A	; 122
    20f0:	7b d9       	rcall	.-3338   	; 0x13e8 <UpdateState>
    20f2:	10 92 65 38 	sts	0x3865, r1	; 0x803865 <simonTimer>
                    simonTimer = 0;
    20f6:	10 92 63 38 	sts	0x3863, r1	; 0x803863 <simonCounter>
                    simonCounter = 0;
    20fa:	87 e0       	ldi	r24, 0x07	; 7
                    simonNextGameState = BASTET_GAME_OVER;
    20fc:	80 93 33 38 	sts	0x3833, r24	; 0x803833 <simonNextGameState>
    2100:	02 c0       	rjmp	.+4      	; 0x2106 <BastetDictates+0x23a>
    2102:	10 92 64 38 	sts	0x3864, r1	; 0x803864 <simonWait>
                }
            }
        
        //Button released, next or reset!
        } else {
            simonWait = 0;
    2106:	80 91 65 38 	lds	r24, 0x3865	; 0x803865 <simonTimer>
        }

        if (simonTimer == 200) {    // did you forget about Bastet?
    210a:	88 3c       	cpi	r24, 0xC8	; 200
    210c:	41 f4       	brne	.+16     	; 0x211e <BastetDictates+0x252>
    210e:	83 e0       	ldi	r24, 0x03	; 3
            simonGameState = BASTET_GAME_SHOW_PATTERN;
    2110:	80 93 62 38 	sts	0x3862, r24	; 0x803862 <simonGameState>
    2114:	10 92 63 38 	sts	0x3863, r1	; 0x803863 <simonCounter>
            simonCounter = 0;
    2118:	10 92 65 38 	sts	0x3865, r1	; 0x803865 <simonTimer>
            simonTimer = 0;
    211c:	51 c0       	rjmp	.+162    	; 0x21c0 <BastetDictates+0x2f4>
            return 0;
    211e:	80 91 62 38 	lds	r24, 0x3862	; 0x803862 <simonGameState>
        }
    }

    if (BASTET_GAME_WAIT_LEDS == simonGameState) {
    2122:	84 30       	cpi	r24, 0x04	; 4
    2124:	81 f4       	brne	.+32     	; 0x2146 <BastetDictates+0x27a>
        if (simonTimer >= 7) {
    2126:	80 91 65 38 	lds	r24, 0x3865	; 0x803865 <simonTimer>
    212a:	87 30       	cpi	r24, 0x07	; 7
    212c:	60 f0       	brcs	.+24     	; 0x2146 <BastetDictates+0x27a>
            // on to next state after .5 second
            simonLed(0);  // LEDs off
    212e:	80 e0       	ldi	r24, 0x00	; 0
    2130:	4f de       	rcall	.-866    	; 0x1dd0 <simonLed>
    2132:	10 92 64 38 	sts	0x3864, r1	; 0x803864 <simonWait>
            simonWait = 0;
    2136:	10 92 65 38 	sts	0x3865, r1	; 0x803865 <simonTimer>
            simonTimer = 0;
    213a:	10 92 63 38 	sts	0x3863, r1	; 0x803863 <simonCounter>
            simonCounter = 0;
    213e:	80 91 33 38 	lds	r24, 0x3833	; 0x803833 <simonNextGameState>
            simonGameState = simonNextGameState;
    2142:	80 93 62 38 	sts	0x3862, r24	; 0x803862 <simonGameState>
    2146:	80 91 62 38 	lds	r24, 0x3862	; 0x803862 <simonGameState>
        }
    }

    if (BASTET_GAME_OUTRO == simonGameState) {
    214a:	86 30       	cpi	r24, 0x06	; 6
    214c:	41 f5       	brne	.+80     	; 0x219e <BastetDictates+0x2d2>
    214e:	80 91 65 38 	lds	r24, 0x3865	; 0x803865 <simonTimer>
        if (simonTimer > 3) {
    2152:	84 30       	cpi	r24, 0x04	; 4
    2154:	38 f0       	brcs	.+14     	; 0x2164 <BastetDictates+0x298>
    2156:	80 91 63 38 	lds	r24, 0x3863	; 0x803863 <simonCounter>
            simonCounter++;
    215a:	8f 5f       	subi	r24, 0xFF	; 255
    215c:	80 93 63 38 	sts	0x3863, r24	; 0x803863 <simonCounter>
    2160:	10 92 65 38 	sts	0x3865, r1	; 0x803865 <simonTimer>
            simonTimer = 0;
    2164:	80 91 63 38 	lds	r24, 0x3863	; 0x803863 <simonCounter>
        }
        if (simonCounter > 5) {
    2168:	86 30       	cpi	r24, 0x06	; 6
    216a:	40 f0       	brcs	.+16     	; 0x217c <BastetDictates+0x2b0>
    216c:	10 92 65 38 	sts	0x3865, r1	; 0x803865 <simonTimer>
            simonTimer = 0;
    2170:	10 92 63 38 	sts	0x3863, r1	; 0x803863 <simonCounter>
            simonCounter = 0;
    2174:	87 e0       	ldi	r24, 0x07	; 7
            simonGameState = BASTET_GAME_OVER;
    2176:	80 93 62 38 	sts	0x3862, r24	; 0x803862 <simonGameState>
    217a:	22 c0       	rjmp	.+68     	; 0x21c0 <BastetDictates+0x2f4>
            return 0;
    217c:	e5 e0       	ldi	r30, 0x05	; 5
        }
        iLED[HCKR[R][5-simonCounter]] = 0;
    217e:	f0 e0       	ldi	r31, 0x00	; 0
    2180:	e8 1b       	sub	r30, r24
    2182:	f1 09       	sbc	r31, r1
    2184:	e0 59       	subi	r30, 0x90	; 144
    2186:	f0 44       	sbci	r31, 0x40	; 64
    2188:	a0 81       	ld	r26, Z
    218a:	b0 e0       	ldi	r27, 0x00	; 0
    218c:	a7 53       	subi	r26, 0x37	; 55
    218e:	b5 4c       	sbci	r27, 0xC5	; 197
    2190:	1c 92       	st	X, r1
    2192:	e6 81       	ldd	r30, Z+6	; 0x06
        iLED[HCKR[G][5-simonCounter]] = 0;
    2194:	f0 e0       	ldi	r31, 0x00	; 0
    2196:	e7 53       	subi	r30, 0x37	; 55
    2198:	f5 4c       	sbci	r31, 0xC5	; 197
    219a:	10 82       	st	Z, r1
    219c:	0c c0       	rjmp	.+24     	; 0x21b6 <BastetDictates+0x2ea>
    219e:	87 30       	cpi	r24, 0x07	; 7
    }

    if (BASTET_GAME_OVER == simonGameState) {
    21a0:	51 f4       	brne	.+20     	; 0x21b6 <BastetDictates+0x2ea>
        simonInputPos = 0;
    21a2:	10 92 66 38 	sts	0x3866, r1	; 0x803866 <simonInputPos>
        simonPos = 0;
    21a6:	10 92 67 38 	sts	0x3867, r1	; 0x803867 <simonPos>
        simonGameState = BASTET_BOOT; // BASTET_GAME_START for stale "field" s
    21aa:	10 92 62 38 	sts	0x3862, r1	; 0x803862 <simonGameState>
        gameNow = TEXT;
    21ae:	10 92 42 38 	sts	0x3842, r1	; 0x803842 <gameNow>
        simonLed(0);
    21b2:	80 e0       	ldi	r24, 0x00	; 0
    21b4:	0d de       	rcall	.-998    	; 0x1dd0 <simonLed>
    21b6:	80 91 65 38 	lds	r24, 0x3865	; 0x803865 <simonTimer>
    }

    ++simonTimer;
    21ba:	8f 5f       	subi	r24, 0xFF	; 255
    21bc:	80 93 65 38 	sts	0x3865, r24	; 0x803865 <simonTimer>
    21c0:	80 e0       	ldi	r24, 0x00	; 0
    return 0;
}
    21c2:	df 91       	pop	r29
    21c4:	cf 91       	pop	r28
    21c6:	08 95       	ret

000021c8 <Cheat>:
    21c8:	1f 93       	push	r17

//
void SetResponse(uint8_t number, uint16_t address, uint16_t length, uint8_t type){
    reactStr[0][number]=address;
    reactStr[1][number]=length;
    reactStr[2][number]=type;
    21ca:	cf 93       	push	r28
    21cc:	df 93       	push	r29
    21ce:	cd b7       	in	r28, 0x3d	; 61
    21d0:	de b7       	in	r29, 0x3e	; 62
    21d2:	62 97       	sbiw	r28, 0x12	; 18
    21d4:	cd bf       	out	0x3d, r28	; 61
    21d6:	de bf       	out	0x3e, r29	; 62
    21d8:	8a 8b       	std	Y+18, r24	; 0x12
    21da:	80 e1       	ldi	r24, 0x10	; 16
    21dc:	e6 e3       	ldi	r30, 0x36	; 54
    21de:	ff eb       	ldi	r31, 0xBF	; 191
    21e0:	de 01       	movw	r26, r28
    21e2:	11 96       	adiw	r26, 0x01	; 1
    21e4:	01 90       	ld	r0, Z+
    21e6:	0d 92       	st	X+, r0
    21e8:	8a 95       	dec	r24
    21ea:	e1 f7       	brne	.-8      	; 0x21e4 <Cheat+0x1c>
    21ec:	fe 01       	movw	r30, r28
    21ee:	31 96       	adiw	r30, 0x01	; 1
    21f0:	90 e0       	ldi	r25, 0x00	; 0
    21f2:	8f ef       	ldi	r24, 0xFF	; 255
    21f4:	21 91       	ld	r18, Z+
    21f6:	31 91       	ld	r19, Z+
    21f8:	26 17       	cp	r18, r22
    21fa:	37 07       	cpc	r19, r23
    21fc:	09 f4       	brne	.+2      	; 0x2200 <Cheat+0x38>
    21fe:	89 2f       	mov	r24, r25
    2200:	9f 5f       	subi	r25, 0xFF	; 255
    2202:	98 30       	cpi	r25, 0x08	; 8
    2204:	b9 f7       	brne	.-18     	; 0x21f4 <Cheat+0x2c>
    2206:	88 30       	cpi	r24, 0x08	; 8
    2208:	10 f0       	brcs	.+4      	; 0x220e <Cheat+0x46>
    220a:	80 e0       	ldi	r24, 0x00	; 0
    220c:	14 c0       	rjmp	.+40     	; 0x2236 <Cheat+0x6e>
    220e:	18 e1       	ldi	r17, 0x18	; 24
    2210:	18 0f       	add	r17, r24
    2212:	41 e0       	ldi	r20, 0x01	; 1
    2214:	be 01       	movw	r22, r28
    2216:	6f 5e       	subi	r22, 0xEF	; 239
    2218:	7f 4f       	sbci	r23, 0xFF	; 255
    221a:	81 2f       	mov	r24, r17
    221c:	0e 94 f8 07 	call	0xff0	; 0xff0 <EERead>
    2220:	89 89       	ldd	r24, Y+17	; 0x11
    2222:	8f 3f       	cpi	r24, 0xFF	; 255
    2224:	91 f7       	brne	.-28     	; 0x220a <Cheat+0x42>
    2226:	41 e0       	ldi	r20, 0x01	; 1
    2228:	be 01       	movw	r22, r28
    222a:	6e 5e       	subi	r22, 0xEE	; 238
    222c:	7f 4f       	sbci	r23, 0xFF	; 255
    222e:	81 2f       	mov	r24, r17
    2230:	0e 94 08 08 	call	0x1010	; 0x1010 <EEWrite>
    2234:	81 e0       	ldi	r24, 0x01	; 1
    2236:	62 96       	adiw	r28, 0x12	; 18
    2238:	cd bf       	out	0x3d, r28	; 61
    223a:	de bf       	out	0x3e, r29	; 62
    223c:	df 91       	pop	r29
    223e:	cf 91       	pop	r28
    2240:	1f 91       	pop	r17
    2242:	08 95       	ret

00002244 <UnflipData>:
    2244:	26 2f       	mov	r18, r22
    2246:	fb 01       	movw	r30, r22
    2248:	35 e5       	ldi	r19, 0x55	; 85
    224a:	9e 2f       	mov	r25, r30
    224c:	92 1b       	sub	r25, r18
    224e:	98 17       	cp	r25, r24
    2250:	28 f4       	brcc	.+10     	; 0x225c <UnflipData+0x18>
    2252:	90 81       	ld	r25, Z
    2254:	92 95       	swap	r25
    2256:	93 27       	eor	r25, r19
    2258:	91 93       	st	Z+, r25
    225a:	f7 cf       	rjmp	.-18     	; 0x224a <UnflipData+0x6>
    225c:	08 95       	ret

0000225e <ClearTxAfter>:
    225e:	8f 5f       	subi	r24, 0xFF	; 255
    2260:	88 30       	cpi	r24, 0x08	; 8
    2262:	30 f4       	brcc	.+12     	; 0x2270 <ClearTxAfter+0x12>
    2264:	e8 2f       	mov	r30, r24
    2266:	f0 e0       	ldi	r31, 0x00	; 0
    2268:	e2 5b       	subi	r30, 0xB2	; 178
    226a:	f5 4c       	sbci	r31, 0xC5	; 197
    226c:	10 82       	st	Z, r1
    226e:	f7 cf       	rjmp	.-18     	; 0x225e <ClearTxAfter>
    2270:	08 95       	ret

00002272 <StartsWith>:
    2272:	ac 01       	movw	r20, r24
    2274:	90 e0       	ldi	r25, 0x00	; 0
    2276:	e9 2f       	mov	r30, r25
    2278:	f0 e0       	ldi	r31, 0x00	; 0
    227a:	da 01       	movw	r26, r20
    227c:	ae 0f       	add	r26, r30
    227e:	bf 1f       	adc	r27, r31
    2280:	3c 91       	ld	r19, X
    2282:	e6 0f       	add	r30, r22
    2284:	f7 1f       	adc	r31, r23
    2286:	31 11       	cpse	r19, r1
    2288:	05 c0       	rjmp	.+10     	; 0x2294 <StartsWith+0x22>
    228a:	81 e0       	ldi	r24, 0x01	; 1
    228c:	90 81       	ld	r25, Z
    228e:	99 23       	and	r25, r25
    2290:	49 f0       	breq	.+18     	; 0x22a4 <StartsWith+0x32>
    2292:	07 c0       	rjmp	.+14     	; 0x22a2 <StartsWith+0x30>
    2294:	20 81       	ld	r18, Z
    2296:	22 23       	and	r18, r18
    2298:	c1 f3       	breq	.-16     	; 0x228a <StartsWith+0x18>
    229a:	32 13       	cpse	r19, r18
    229c:	02 c0       	rjmp	.+4      	; 0x22a2 <StartsWith+0x30>
    229e:	9f 5f       	subi	r25, 0xFF	; 255
    22a0:	ea cf       	rjmp	.-44     	; 0x2276 <StartsWith+0x4>
    22a2:	80 e0       	ldi	r24, 0x00	; 0
    22a4:	08 95       	ret

000022a6 <PrepareSending>:
    22a6:	cf 93       	push	r28
    22a8:	df 93       	push	r29
    22aa:	fc 01       	movw	r30, r24
    22ac:	61 15       	cp	r22, r1
    22ae:	71 05       	cpc	r23, r1
    22b0:	59 f1       	breq	.+86     	; 0x2308 <PrepareSending+0x62>
    22b2:	a6 e5       	ldi	r26, 0x56	; 86
    22b4:	ba e3       	ldi	r27, 0x3A	; 58
    22b6:	ce e4       	ldi	r28, 0x4E	; 78
    22b8:	da e3       	ldi	r29, 0x3A	; 58
    22ba:	80 e0       	ldi	r24, 0x00	; 0
    22bc:	9f ef       	ldi	r25, 0xFF	; 255
    22be:	6f 3f       	cpi	r22, 0xFF	; 255
    22c0:	71 05       	cpc	r23, r1
    22c2:	69 f0       	breq	.+26     	; 0x22de <PrepareSending+0x38>
    22c4:	60 f0       	brcs	.+24     	; 0x22de <PrepareSending+0x38>
    22c6:	ed 93       	st	X+, r30
    22c8:	fd 93       	st	X+, r31
    22ca:	99 93       	st	Y+, r25
    22cc:	e1 50       	subi	r30, 0x01	; 1
    22ce:	ff 4f       	sbci	r31, 0xFF	; 255
    22d0:	6f 5f       	subi	r22, 0xFF	; 255
    22d2:	71 09       	sbc	r23, r1
    22d4:	8f 5f       	subi	r24, 0xFF	; 255
    22d6:	87 30       	cpi	r24, 0x07	; 7
    22d8:	91 f7       	brne	.-28     	; 0x22be <PrepareSending+0x18>
    22da:	81 e0       	ldi	r24, 0x01	; 1
    22dc:	1e c0       	rjmp	.+60     	; 0x231a <PrepareSending+0x74>
    22de:	28 2f       	mov	r18, r24
    22e0:	30 e0       	ldi	r19, 0x00	; 0
    22e2:	d9 01       	movw	r26, r18
    22e4:	aa 0f       	add	r26, r26
    22e6:	bb 1f       	adc	r27, r27
    22e8:	aa 5a       	subi	r26, 0xAA	; 170
    22ea:	b5 4c       	sbci	r27, 0xC5	; 197
    22ec:	ed 93       	st	X+, r30
    22ee:	fc 93       	st	X, r31
    22f0:	6f 3f       	cpi	r22, 0xFF	; 255
    22f2:	71 05       	cpc	r23, r1
    22f4:	11 f4       	brne	.+4      	; 0x22fa <PrepareSending+0x54>
    22f6:	6e ef       	ldi	r22, 0xFE	; 254
    22f8:	70 e0       	ldi	r23, 0x00	; 0
    22fa:	f9 01       	movw	r30, r18
    22fc:	e2 5b       	subi	r30, 0xB2	; 178
    22fe:	f5 4c       	sbci	r31, 0xC5	; 197
    2300:	60 83       	st	Z, r22
    2302:	40 93 4c 3a 	sts	0x3A4C, r20	; 0x803a4c <txTypeNow>
    2306:	05 c0       	rjmp	.+10     	; 0x2312 <PrepareSending+0x6c>
    2308:	10 92 56 3a 	sts	0x3A56, r1	; 0x803a56 <txAddrList>
    230c:	10 92 57 3a 	sts	0x3A57, r1	; 0x803a57 <txAddrList+0x1>
    2310:	80 e0       	ldi	r24, 0x00	; 0
    2312:	a5 df       	rcall	.-182    	; 0x225e <ClearTxAfter>
    2314:	10 92 4d 3a 	sts	0x3A4D, r1	; 0x803a4d <txAddrNow>
    2318:	80 e0       	ldi	r24, 0x00	; 0
    231a:	df 91       	pop	r29
    231c:	cf 91       	pop	r28
    231e:	08 95       	ret

00002320 <SetStandardResponse>:
}

//
uint8_t SetStandardResponse(uint8_t custStrEnd){
    2320:	cf 93       	push	r28
    2322:	df 93       	push	r29
    return 0;
}

//
void SetResponse(uint8_t number, uint16_t address, uint16_t length, uint8_t type){
    reactStr[0][number]=address;
    2324:	28 2f       	mov	r18, r24
    2326:	30 e0       	ldi	r19, 0x00	; 0
    2328:	f9 01       	movw	r30, r18
    232a:	ee 0f       	add	r30, r30
    232c:	ff 1f       	adc	r31, r31
    232e:	ef 5d       	subi	r30, 0xDF	; 223
    2330:	f6 4c       	sbci	r31, 0xC6	; 198
    2332:	a9 e5       	ldi	r26, 0x59	; 89
    2334:	ba e7       	ldi	r27, 0x7A	; 122
    2336:	a0 83       	st	Z, r26
    2338:	b1 83       	std	Z+1, r27	; 0x01
    reactStr[1][number]=length;
    233a:	f9 01       	movw	r30, r18
    233c:	ee 0f       	add	r30, r30
    233e:	ff 1f       	adc	r31, r31
    2340:	ef 59       	subi	r30, 0x9F	; 159
    2342:	f6 4c       	sbci	r31, 0xC6	; 198
    2344:	62 e0       	ldi	r22, 0x02	; 2
    2346:	70 e0       	ldi	r23, 0x00	; 0
    2348:	60 83       	st	Z, r22
    234a:	71 83       	std	Z+1, r23	; 0x01
    reactStr[2][number]=type;
    234c:	22 0f       	add	r18, r18
    234e:	33 1f       	adc	r19, r19
    2350:	f9 01       	movw	r30, r18
    2352:	ef 55       	subi	r30, 0x5F	; 95
    2354:	f6 4c       	sbci	r31, 0xC6	; 198
    2356:	41 e0       	ldi	r20, 0x01	; 1
    2358:	50 e0       	ldi	r21, 0x00	; 0
    235a:	40 83       	st	Z, r20
    235c:	51 83       	std	Z+1, r21	; 0x01
    return 0;
}

//
void SetResponse(uint8_t number, uint16_t address, uint16_t length, uint8_t type){
    reactStr[0][number]=address;
    235e:	21 e0       	ldi	r18, 0x01	; 1
    2360:	28 0f       	add	r18, r24
    2362:	30 e0       	ldi	r19, 0x00	; 0
    2364:	f9 01       	movw	r30, r18
    2366:	ee 0f       	add	r30, r30
    2368:	ff 1f       	adc	r31, r31
    236a:	ef 5d       	subi	r30, 0xDF	; 223
    236c:	f6 4c       	sbci	r31, 0xC6	; 198
    236e:	c2 e6       	ldi	r28, 0x62	; 98
    2370:	da e7       	ldi	r29, 0x7A	; 122
    2372:	c0 83       	st	Z, r28
    2374:	d1 83       	std	Z+1, r29	; 0x01
    reactStr[1][number]=length;
    2376:	f9 01       	movw	r30, r18
    2378:	ee 0f       	add	r30, r30
    237a:	ff 1f       	adc	r31, r31
    237c:	ef 59       	subi	r30, 0x9F	; 159
    237e:	f6 4c       	sbci	r31, 0xC6	; 198
    2380:	cc e0       	ldi	r28, 0x0C	; 12
    2382:	d0 e0       	ldi	r29, 0x00	; 0
    2384:	c0 83       	st	Z, r28
    2386:	d1 83       	std	Z+1, r29	; 0x01
    reactStr[2][number]=type;
    2388:	22 0f       	add	r18, r18
    238a:	33 1f       	adc	r19, r19
    238c:	f9 01       	movw	r30, r18
    238e:	ef 55       	subi	r30, 0x5F	; 95
    2390:	f6 4c       	sbci	r31, 0xC6	; 198
    2392:	40 83       	st	Z, r20
    2394:	51 83       	std	Z+1, r21	; 0x01
//
uint8_t SetStandardResponse(uint8_t custStrEnd){

    SetResponse(custStrEnd++, A_LF, 2, TEASER);
    SetResponse(custStrEnd++, A_LOCATION, L_LOCATION, TEASER);
    reactStr[0][custStrEnd++] = CURR_LOC;
    2396:	e2 e0       	ldi	r30, 0x02	; 2
    2398:	e8 0f       	add	r30, r24
    239a:	f0 e0       	ldi	r31, 0x00	; 0
    239c:	ee 0f       	add	r30, r30
    239e:	ff 1f       	adc	r31, r31
    23a0:	ef 5d       	subi	r30, 0xDF	; 223
    23a2:	f6 4c       	sbci	r31, 0xC6	; 198
    23a4:	20 ef       	ldi	r18, 0xF0	; 240
    23a6:	3f ef       	ldi	r19, 0xFF	; 255
    23a8:	20 83       	st	Z, r18
    23aa:	31 83       	std	Z+1, r19	; 0x01
    return 0;
}

//
void SetResponse(uint8_t number, uint16_t address, uint16_t length, uint8_t type){
    reactStr[0][number]=address;
    23ac:	23 e0       	ldi	r18, 0x03	; 3
    23ae:	28 0f       	add	r18, r24
    23b0:	30 e0       	ldi	r19, 0x00	; 0
    23b2:	f9 01       	movw	r30, r18
    23b4:	ee 0f       	add	r30, r30
    23b6:	ff 1f       	adc	r31, r31
    23b8:	ef 5d       	subi	r30, 0xDF	; 223
    23ba:	f6 4c       	sbci	r31, 0xC6	; 198
    23bc:	a0 83       	st	Z, r26
    23be:	b1 83       	std	Z+1, r27	; 0x01
    reactStr[1][number]=length;
    23c0:	f9 01       	movw	r30, r18
    23c2:	ee 0f       	add	r30, r30
    23c4:	ff 1f       	adc	r31, r31
    23c6:	ef 59       	subi	r30, 0x9F	; 159
    23c8:	f6 4c       	sbci	r31, 0xC6	; 198
    23ca:	60 83       	st	Z, r22
    23cc:	71 83       	std	Z+1, r23	; 0x01
    reactStr[2][number]=type;
    23ce:	22 0f       	add	r18, r18
    23d0:	33 1f       	adc	r19, r19
    23d2:	f9 01       	movw	r30, r18
    23d4:	ef 55       	subi	r30, 0x5F	; 95
    23d6:	f6 4c       	sbci	r31, 0xC6	; 198
    23d8:	40 83       	st	Z, r20
    23da:	51 83       	std	Z+1, r21	; 0x01
    return 0;
}

//
void SetResponse(uint8_t number, uint16_t address, uint16_t length, uint8_t type){
    reactStr[0][number]=address;
    23dc:	24 e0       	ldi	r18, 0x04	; 4
    23de:	28 0f       	add	r18, r24
    23e0:	30 e0       	ldi	r19, 0x00	; 0
    23e2:	f9 01       	movw	r30, r18
    23e4:	ee 0f       	add	r30, r30
    23e6:	ff 1f       	adc	r31, r31
    23e8:	ef 5d       	subi	r30, 0xDF	; 223
    23ea:	f6 4c       	sbci	r31, 0xC6	; 198
    23ec:	a5 e5       	ldi	r26, 0x55	; 85
    23ee:	ba e7       	ldi	r27, 0x7A	; 122
    23f0:	a0 83       	st	Z, r26
    23f2:	b1 83       	std	Z+1, r27	; 0x01
    reactStr[1][number]=length;
    23f4:	f9 01       	movw	r30, r18
    23f6:	ee 0f       	add	r30, r30
    23f8:	ff 1f       	adc	r31, r31
    23fa:	ef 59       	subi	r30, 0x9F	; 159
    23fc:	f6 4c       	sbci	r31, 0xC6	; 198
    23fe:	60 83       	st	Z, r22
    2400:	71 83       	std	Z+1, r23	; 0x01
    reactStr[2][number]=type;
    2402:	22 0f       	add	r18, r18
    2404:	33 1f       	adc	r19, r19
    2406:	f9 01       	movw	r30, r18
    2408:	ef 55       	subi	r30, 0x5F	; 95
    240a:	f6 4c       	sbci	r31, 0xC6	; 198
    240c:	40 83       	st	Z, r20
    240e:	51 83       	std	Z+1, r21	; 0x01
    reactStr[0][custStrEnd++] = CURR_LOC;
    SetResponse(custStrEnd++, A_LF, 2, TEASER);
    SetResponse(custStrEnd++, A_PROMPT, L_PROMPT, TEASER);

    return custStrEnd;
}
    2410:	8b 5f       	subi	r24, 0xFB	; 251
    2412:	df 91       	pop	r29
    2414:	cf 91       	pop	r28
    2416:	08 95       	ret

00002418 <PopulateObject>:

//Get all the relevant data and string addresses of an object
void PopulateObject(uint16_t offset, object_model_t *object){
    2418:	af 92       	push	r10
    241a:	bf 92       	push	r11
    241c:	df 92       	push	r13
    241e:	ef 92       	push	r14
    2420:	ff 92       	push	r15
    2422:	0f 93       	push	r16
    2424:	1f 93       	push	r17
    2426:	cf 93       	push	r28
    2428:	df 93       	push	r29
    242a:	cd b7       	in	r28, 0x3d	; 61
    242c:	de b7       	in	r29, 0x3e	; 62
    242e:	2c 97       	sbiw	r28, 0x0c	; 12
    2430:	cd bf       	out	0x3d, r28	; 61
    2432:	de bf       	out	0x3e, r29	; 62
    2434:	7c 01       	movw	r14, r24
    2436:	8b 01       	movw	r16, r22
    uint16_t parStr;
    offset += L_BOILER;

    //Fill things with fixed distance to offset
    uint8_t data[OFF_STRINGFLDS];
    ExtEERead(offset, OFF_STRINGFLDS, GAME, &data[0]);
    2438:	9e 01       	movw	r18, r28
    243a:	2f 5f       	subi	r18, 0xFF	; 255
    243c:	3f 4f       	sbci	r19, 0xFF	; 255
    243e:	40 e0       	ldi	r20, 0x00	; 0
    2440:	6c e0       	ldi	r22, 0x0C	; 12
    2442:	80 96       	adiw	r24, 0x20	; 32
    2444:	0e 94 4a 08 	call	0x1094	; 0x1094 <ExtEERead>
    object->addrNextObj = (data[OFF_NEXTOBJ]<<8|data[OFF_NEXTOBJ+1])+L_BOILER;
    2448:	89 81       	ldd	r24, Y+1	; 0x01
    244a:	9a 81       	ldd	r25, Y+2	; 0x02
    244c:	98 27       	eor	r25, r24
    244e:	89 27       	eor	r24, r25
    2450:	98 27       	eor	r25, r24
    2452:	80 96       	adiw	r24, 0x20	; 32
    2454:	f8 01       	movw	r30, r16
    2456:	80 83       	st	Z, r24
    2458:	91 83       	std	Z+1, r25	; 0x01
    object->addrNextLvl = (data[OFF_NEXTLVL]<<8|data[OFF_NEXTLVL+1])+L_BOILER;
    245a:	8b 81       	ldd	r24, Y+3	; 0x03
    245c:	9c 81       	ldd	r25, Y+4	; 0x04
    245e:	98 27       	eor	r25, r24
    2460:	89 27       	eor	r24, r25
    2462:	98 27       	eor	r25, r24
    2464:	80 96       	adiw	r24, 0x20	; 32
    2466:	82 83       	std	Z+2, r24	; 0x02
    2468:	93 83       	std	Z+3, r25	; 0x03
    246a:	de 01       	movw	r26, r28
    246c:	15 96       	adiw	r26, 0x05	; 5
    246e:	34 96       	adiw	r30, 0x04	; 4
    2470:	c8 01       	movw	r24, r16
    2472:	0c 96       	adiw	r24, 0x0c	; 12
    for (uint8_t x=0; x<BYTE_FIELDS_LEN; ++x){
        object->byteField[x]=data[x+OFF_BYTEFLDS];
    2474:	2d 91       	ld	r18, X+
    2476:	21 93       	st	Z+, r18
    //Fill things with fixed distance to offset
    uint8_t data[OFF_STRINGFLDS];
    ExtEERead(offset, OFF_STRINGFLDS, GAME, &data[0]);
    object->addrNextObj = (data[OFF_NEXTOBJ]<<8|data[OFF_NEXTOBJ+1])+L_BOILER;
    object->addrNextLvl = (data[OFF_NEXTLVL]<<8|data[OFF_NEXTLVL+1])+L_BOILER;
    for (uint8_t x=0; x<BYTE_FIELDS_LEN; ++x){
    2478:	e8 17       	cp	r30, r24
    247a:	f9 07       	cpc	r31, r25
    247c:	d9 f7       	brne	.-10     	; 0x2474 <PopulateObject+0x5c>
        object->byteField[x]=data[x+OFF_BYTEFLDS];
    }

    //Find out where all of the strings begin and how long they are
    offset += OFF_STRINGFLDS;
    247e:	fc e2       	ldi	r31, 0x2C	; 44
    2480:	ef 0e       	add	r14, r31
    2482:	f1 1c       	adc	r15, r1
    2484:	58 01       	movw	r10, r16
    for(uint8_t x=0; x<STRING_FIELDS_LEN; ++x){
    2486:	d1 2c       	mov	r13, r1
        
        //Determine length
        ExtEERead(offset, 3, GAME, &data[0]);
    2488:	9e 01       	movw	r18, r28
    248a:	2f 5f       	subi	r18, 0xFF	; 255
    248c:	3f 4f       	sbci	r19, 0xFF	; 255
    248e:	40 e0       	ldi	r20, 0x00	; 0
    2490:	63 e0       	ldi	r22, 0x03	; 3
    2492:	c7 01       	movw	r24, r14
    2494:	0e 94 4a 08 	call	0x1094	; 0x1094 <ExtEERead>
    2498:	89 81       	ldd	r24, Y+1	; 0x01
    249a:	9a 81       	ldd	r25, Y+2	; 0x02
    249c:	98 27       	eor	r25, r24
    249e:	89 27       	eor	r24, r25
    24a0:	98 27       	eor	r25, r24
        parStr = (data[0]<<8|data[1]);
        offset += 2;
    24a2:	97 01       	movw	r18, r14
    24a4:	2e 5f       	subi	r18, 0xFE	; 254
    24a6:	3f 4f       	sbci	r19, 0xFF	; 255
        if (x >= OPEN_ACL_MSG){
    24a8:	43 e0       	ldi	r20, 0x03	; 3
    24aa:	4d 15       	cp	r20, r13
    24ac:	80 f4       	brcc	.+32     	; 0x24ce <PopulateObject+0xb6>
            object->lenStr[x]= parStr-1;
    24ae:	ac 01       	movw	r20, r24
    24b0:	41 50       	subi	r20, 0x01	; 1
    24b2:	51 09       	sbc	r21, r1
    24b4:	f8 01       	movw	r30, r16
    24b6:	42 8f       	std	Z+26, r20	; 0x1a
    24b8:	53 8f       	std	Z+27, r21	; 0x1b
            object->addrStr[x]=offset+1;
    24ba:	f3 e0       	ldi	r31, 0x03	; 3
    24bc:	ef 0e       	add	r14, r31
    24be:	f1 1c       	adc	r15, r1
    24c0:	f8 01       	movw	r30, r16
    24c2:	e4 86       	std	Z+12, r14	; 0x0c
    24c4:	f5 86       	std	Z+13, r15	; 0x0d
            object->effect[x-OPEN_ACL_MSG] = data[2];
    24c6:	4b 81       	ldd	r20, Y+3	; 0x03
    24c8:	f5 01       	movw	r30, r10
    24ca:	44 a3       	std	Z+36, r20	; 0x24
    24cc:	05 c0       	rjmp	.+10     	; 0x24d8 <PopulateObject+0xc0>
        } else {
            object->lenStr[x]= parStr;
    24ce:	f8 01       	movw	r30, r16
    24d0:	82 8f       	std	Z+26, r24	; 0x1a
    24d2:	93 8f       	std	Z+27, r25	; 0x1b
            object->addrStr[x]=offset;
    24d4:	24 87       	std	Z+12, r18	; 0x0c
    24d6:	35 87       	std	Z+13, r19	; 0x0d
        }
        
        //Determine string start location for next field
        offset += parStr;
    24d8:	7c 01       	movw	r14, r24
    24da:	e2 0e       	add	r14, r18
    24dc:	f3 1e       	adc	r15, r19
        object->byteField[x]=data[x+OFF_BYTEFLDS];
    }

    //Find out where all of the strings begin and how long they are
    offset += OFF_STRINGFLDS;
    for(uint8_t x=0; x<STRING_FIELDS_LEN; ++x){
    24de:	d3 94       	inc	r13
    24e0:	0e 5f       	subi	r16, 0xFE	; 254
    24e2:	1f 4f       	sbci	r17, 0xFF	; 255
    24e4:	ff ef       	ldi	r31, 0xFF	; 255
    24e6:	af 1a       	sub	r10, r31
    24e8:	bf 0a       	sbc	r11, r31
    24ea:	47 e0       	ldi	r20, 0x07	; 7
    24ec:	d4 12       	cpse	r13, r20
    24ee:	cc cf       	rjmp	.-104    	; 0x2488 <PopulateObject+0x70>
        }
        
        //Determine string start location for next field
        offset += parStr;
    }    
}
    24f0:	2c 96       	adiw	r28, 0x0c	; 12
    24f2:	cd bf       	out	0x3d, r28	; 61
    24f4:	de bf       	out	0x3e, r29	; 62
    24f6:	df 91       	pop	r29
    24f8:	cf 91       	pop	r28
    24fa:	1f 91       	pop	r17
    24fc:	0f 91       	pop	r16
    24fe:	ff 90       	pop	r15
    2500:	ef 90       	pop	r14
    2502:	df 90       	pop	r13
    2504:	bf 90       	pop	r11
    2506:	af 90       	pop	r10
    2508:	08 95       	ret

0000250a <CheckLetter>:

//Check if the entered letter corresponds with a name
uint8_t CheckLetter(uint16_t object, uint8_t letter){
    250a:	cf 92       	push	r12
    250c:	df 92       	push	r13
    250e:	ef 92       	push	r14
    2510:	ff 92       	push	r15
    2512:	0f 93       	push	r16
    2514:	1f 93       	push	r17
    2516:	cf 93       	push	r28
    2518:	df 93       	push	r29
    251a:	cd b7       	in	r28, 0x3d	; 61
    251c:	de b7       	in	r29, 0x3e	; 62
    251e:	a0 97       	sbiw	r28, 0x20	; 32
    2520:	cd bf       	out	0x3d, r28	; 61
    2522:	de bf       	out	0x3e, r29	; 62
    2524:	c6 2e       	mov	r12, r22
    
    uint8_t found = 0;
    uint8_t data[32];

    object += L_BOILER;
    2526:	7c 01       	movw	r14, r24
    2528:	20 e2       	ldi	r18, 0x20	; 32
    252a:	e2 0e       	add	r14, r18
    252c:	f1 1c       	adc	r15, r1
    ExtEERead(object+OFF_STRINGFLDS, 2, GAME, &data[0]);
    252e:	9e 01       	movw	r18, r28
    2530:	2f 5f       	subi	r18, 0xFF	; 255
    2532:	3f 4f       	sbci	r19, 0xFF	; 255
    2534:	40 e0       	ldi	r20, 0x00	; 0
    2536:	62 e0       	ldi	r22, 0x02	; 2
    2538:	8c 96       	adiw	r24, 0x2c	; 44
    253a:	0e 94 4a 08 	call	0x1094	; 0x1094 <ExtEERead>
    uint8_t x = data[1]; //Assuming a name is not longer than 255 characters.
    253e:	1a 81       	ldd	r17, Y+2	; 0x02
}

//Check if the entered letter corresponds with a name
uint8_t CheckLetter(uint16_t object, uint8_t letter){
    
    uint8_t found = 0;
    2540:	d1 2c       	mov	r13, r1

    object += L_BOILER;
    ExtEERead(object+OFF_STRINGFLDS, 2, GAME, &data[0]);
    uint8_t x = data[1]; //Assuming a name is not longer than 255 characters.

    while (x){
    2542:	11 23       	and	r17, r17
    2544:	59 f1       	breq	.+86     	; 0x259c <CheckLetter+0x92>
    2546:	01 2f       	mov	r16, r17
    2548:	11 32       	cpi	r17, 0x21	; 33
    254a:	08 f0       	brcs	.+2      	; 0x254e <CheckLetter+0x44>
    254c:	00 e2       	ldi	r16, 0x20	; 32
        uint8_t max;
        if (x>32) max = 32; else max = x;
        ExtEERead(object+OFF_STRINGFLDS+2, max, GAME, &data[0]);
    254e:	9e 01       	movw	r18, r28
    2550:	2f 5f       	subi	r18, 0xFF	; 255
    2552:	3f 4f       	sbci	r19, 0xFF	; 255
    2554:	40 e0       	ldi	r20, 0x00	; 0
    2556:	60 2f       	mov	r22, r16
    2558:	c7 01       	movw	r24, r14
    255a:	0e 96       	adiw	r24, 0x0e	; 14
    255c:	0e 94 4a 08 	call	0x1094	; 0x1094 <ExtEERead>
    2560:	fe 01       	movw	r30, r28
    2562:	31 96       	adiw	r30, 0x01	; 1
        for (uint8_t y=0; y<max; ++y){
    2564:	80 e0       	ldi	r24, 0x00	; 0
            if (found){
    2566:	dd 20       	and	r13, r13
    2568:	61 f0       	breq	.+24     	; 0x2582 <CheckLetter+0x78>
                if ((data[y]|0x20) == letter) return 1; else return 0;
    256a:	e1 e0       	ldi	r30, 0x01	; 1
    256c:	f0 e0       	ldi	r31, 0x00	; 0
    256e:	ec 0f       	add	r30, r28
    2570:	fd 1f       	adc	r31, r29
    2572:	e8 0f       	add	r30, r24
    2574:	f1 1d       	adc	r31, r1
    2576:	90 81       	ld	r25, Z
    2578:	90 62       	ori	r25, 0x20	; 32
    257a:	81 e0       	ldi	r24, 0x01	; 1
    257c:	9c 11       	cpse	r25, r12
    257e:	0e c0       	rjmp	.+28     	; 0x259c <CheckLetter+0x92>
    2580:	0e c0       	rjmp	.+28     	; 0x259e <CheckLetter+0x94>
            }
            if (data[y] == '[') found = 1;
    2582:	91 91       	ld	r25, Z+
    2584:	dd 24       	eor	r13, r13
    2586:	d3 94       	inc	r13
    2588:	9b 35       	cpi	r25, 0x5B	; 91
    258a:	09 f0       	breq	.+2      	; 0x258e <CheckLetter+0x84>
    258c:	d1 2c       	mov	r13, r1

    while (x){
        uint8_t max;
        if (x>32) max = 32; else max = x;
        ExtEERead(object+OFF_STRINGFLDS+2, max, GAME, &data[0]);
        for (uint8_t y=0; y<max; ++y){
    258e:	8f 5f       	subi	r24, 0xFF	; 255
    2590:	80 17       	cp	r24, r16
    2592:	48 f3       	brcs	.-46     	; 0x2566 <CheckLetter+0x5c>
            if (found){
                if ((data[y]|0x20) == letter) return 1; else return 0;
            }
            if (data[y] == '[') found = 1;
        }
        object += max;
    2594:	e0 0e       	add	r14, r16
    2596:	f1 1c       	adc	r15, r1
        x -= max;
    2598:	10 1b       	sub	r17, r16
    259a:	d3 cf       	rjmp	.-90     	; 0x2542 <CheckLetter+0x38>
    }
    return 0;
    259c:	80 e0       	ldi	r24, 0x00	; 0
}
    259e:	a0 96       	adiw	r28, 0x20	; 32
    25a0:	cd bf       	out	0x3d, r28	; 61
    25a2:	de bf       	out	0x3e, r29	; 62
    25a4:	df 91       	pop	r29
    25a6:	cf 91       	pop	r28
    25a8:	1f 91       	pop	r17
    25aa:	0f 91       	pop	r16
    25ac:	ff 90       	pop	r15
    25ae:	ef 90       	pop	r14
    25b0:	df 90       	pop	r13
    25b2:	cf 90       	pop	r12
    25b4:	08 95       	ret

000025b6 <FindChild>:

//Returns the child's address if the child is visible and the search letter matches
uint16_t FindChild(uint16_t parent, uint8_t letter, uint16_t start){
    25b6:	af 92       	push	r10
    25b8:	bf 92       	push	r11
    25ba:	df 92       	push	r13
    25bc:	ef 92       	push	r14
    25be:	ff 92       	push	r15
    25c0:	0f 93       	push	r16
    25c2:	1f 93       	push	r17
    25c4:	cf 93       	push	r28
    25c6:	df 93       	push	r29
    25c8:	00 d0       	rcall	.+0      	; 0x25ca <FindChild+0x14>
    25ca:	00 d0       	rcall	.+0      	; 0x25cc <FindChild+0x16>
    25cc:	cd b7       	in	r28, 0x3d	; 61
    25ce:	de b7       	in	r29, 0x3e	; 62
    25d0:	d6 2e       	mov	r13, r22
    25d2:	5a 01       	movw	r10, r20
    
    uint16_t child = parent;
    uint8_t data[4];

    ExtEERead(child+L_BOILER, 4, GAME, &data[0]);
    25d4:	9e 01       	movw	r18, r28
    25d6:	2f 5f       	subi	r18, 0xFF	; 255
    25d8:	3f 4f       	sbci	r19, 0xFF	; 255
    25da:	40 e0       	ldi	r20, 0x00	; 0
    25dc:	64 e0       	ldi	r22, 0x04	; 4
    25de:	80 96       	adiw	r24, 0x20	; 32
    25e0:	0e 94 4a 08 	call	0x1094	; 0x1094 <ExtEERead>
    25e4:	e9 80       	ldd	r14, Y+1	; 0x01
    25e6:	fa 80       	ldd	r15, Y+2	; 0x02
    25e8:	fe 24       	eor	r15, r14
    25ea:	ef 24       	eor	r14, r15
    25ec:	fe 24       	eor	r15, r14
    25ee:	0b 81       	ldd	r16, Y+3	; 0x03
    25f0:	1c 81       	ldd	r17, Y+4	; 0x04
    25f2:	10 27       	eor	r17, r16
    25f4:	01 27       	eor	r16, r17
    25f6:	10 27       	eor	r17, r16
    parent = (data[0]<<8|data[1]);    //Next object on parent level
    child =  (data[2]<<8|data[3]);    //First object on child level

    //As long as the child is within the parent's range
    while (parent>child){
    25f8:	0e 15       	cp	r16, r14
    25fa:	1f 05       	cpc	r17, r15
    25fc:	48 f5       	brcc	.+82     	; 0x2650 <FindChild+0x9a>

        //If child's address is higher than the start address, perform search for letter
        if (child>start){
    25fe:	a0 16       	cp	r10, r16
    2600:	b1 06       	cpc	r11, r17
    2602:	60 f0       	brcs	.+24     	; 0x261c <FindChild+0x66>
                if ((letter == 0)||(CheckLetter(child, letter))) return child;
            }
        }

        //Not visible or name not right
        ExtEERead(child+L_BOILER, 2, GAME, &data[0]);
    2604:	9e 01       	movw	r18, r28
    2606:	2f 5f       	subi	r18, 0xFF	; 255
    2608:	3f 4f       	sbci	r19, 0xFF	; 255
    260a:	40 e0       	ldi	r20, 0x00	; 0
    260c:	62 e0       	ldi	r22, 0x02	; 2
    260e:	c8 01       	movw	r24, r16
    2610:	80 96       	adiw	r24, 0x20	; 32
    2612:	0e 94 4a 08 	call	0x1094	; 0x1094 <ExtEERead>
    2616:	09 81       	ldd	r16, Y+1	; 0x01
    2618:	1a 81       	ldd	r17, Y+2	; 0x02
    261a:	eb cf       	rjmp	.-42     	; 0x25f2 <FindChild+0x3c>
    //As long as the child is within the parent's range
    while (parent>child){

        //If child's address is higher than the start address, perform search for letter
        if (child>start){
            ExtEERead(child+OFF_BYTEFLDS+VISIBLE_ACL+L_BOILER, 1, GAME, &data[0]);
    261c:	9e 01       	movw	r18, r28
    261e:	2f 5f       	subi	r18, 0xFF	; 255
    2620:	3f 4f       	sbci	r19, 0xFF	; 255
    2622:	40 e0       	ldi	r20, 0x00	; 0
    2624:	61 e0       	ldi	r22, 0x01	; 1
    2626:	c8 01       	movw	r24, r16
    2628:	85 96       	adiw	r24, 0x25	; 37
    262a:	0e 94 4a 08 	call	0x1094	; 0x1094 <ExtEERead>
            if ((data[0] == 0)||(CheckState(data[0]))) {
    262e:	89 81       	ldd	r24, Y+1	; 0x01
    2630:	81 11       	cpse	r24, r1
    2632:	03 c0       	rjmp	.+6      	; 0x263a <FindChild+0x84>
                if ((letter == 0)||(CheckLetter(child, letter))) return child;
    2634:	d1 10       	cpse	r13, r1
    2636:	06 c0       	rjmp	.+12     	; 0x2644 <FindChild+0x8e>
    2638:	0e c0       	rjmp	.+28     	; 0x2656 <FindChild+0xa0>
    while (parent>child){

        //If child's address is higher than the start address, perform search for letter
        if (child>start){
            ExtEERead(child+OFF_BYTEFLDS+VISIBLE_ACL+L_BOILER, 1, GAME, &data[0]);
            if ((data[0] == 0)||(CheckState(data[0]))) {
    263a:	0e 94 15 0a 	call	0x142a	; 0x142a <CheckState>
    263e:	81 11       	cpse	r24, r1
    2640:	f9 cf       	rjmp	.-14     	; 0x2634 <FindChild+0x7e>
    2642:	e0 cf       	rjmp	.-64     	; 0x2604 <FindChild+0x4e>
                if ((letter == 0)||(CheckLetter(child, letter))) return child;
    2644:	6d 2d       	mov	r22, r13
    2646:	c8 01       	movw	r24, r16
    2648:	60 df       	rcall	.-320    	; 0x250a <CheckLetter>
    264a:	88 23       	and	r24, r24
    264c:	d9 f2       	breq	.-74     	; 0x2604 <FindChild+0x4e>
    264e:	03 c0       	rjmp	.+6      	; 0x2656 <FindChild+0xa0>

        //Not visible or name not right
        ExtEERead(child+L_BOILER, 2, GAME, &data[0]);
        child = (data[0]<<8|data[1]);    //Next object on child level
        
    } return 0;
    2650:	80 e0       	ldi	r24, 0x00	; 0
    2652:	90 e0       	ldi	r25, 0x00	; 0
    2654:	01 c0       	rjmp	.+2      	; 0x2658 <FindChild+0xa2>
    2656:	c8 01       	movw	r24, r16
}
    2658:	24 96       	adiw	r28, 0x04	; 4
    265a:	cd bf       	out	0x3d, r28	; 61
    265c:	de bf       	out	0x3e, r29	; 62
    265e:	df 91       	pop	r29
    2660:	cf 91       	pop	r28
    2662:	1f 91       	pop	r17
    2664:	0f 91       	pop	r16
    2666:	ff 90       	pop	r15
    2668:	ef 90       	pop	r14
    266a:	df 90       	pop	r13
    266c:	bf 90       	pop	r11
    266e:	af 90       	pop	r10
    2670:	08 95       	ret

00002672 <InpOkChk>:

//Allow only a(A) to z(Z) and 0 to 9 as input
uint8_t InpOkChk(uint8_t test){
    test |= 0x20;
    2672:	80 62       	ori	r24, 0x20	; 32
    if ((test>='a')&&(test<='z')) return 1;
    2674:	9f e9       	ldi	r25, 0x9F	; 159
    2676:	98 0f       	add	r25, r24
    2678:	9a 31       	cpi	r25, 0x1A	; 26
    267a:	38 f0       	brcs	.+14     	; 0x268a <InpOkChk+0x18>
    267c:	90 ed       	ldi	r25, 0xD0	; 208
    267e:	98 0f       	add	r25, r24
    2680:	81 e0       	ldi	r24, 0x01	; 1
    2682:	9a 30       	cpi	r25, 0x0A	; 10
    2684:	18 f0       	brcs	.+6      	; 0x268c <InpOkChk+0x1a>
    2686:	80 e0       	ldi	r24, 0x00	; 0
    2688:	08 95       	ret
    268a:	81 e0       	ldi	r24, 0x01	; 1
    if ((test>='0')&&(test<='9')) return 1;
    return 0;
}
    268c:	08 95       	ret

0000268e <CleanInput>:

//Cleans input of garbage and returns length of cleaned input "o->d2  !\0" becomes "od2\0"
uint8_t CleanInput(uint8_t *data){
    268e:	0f 93       	push	r16
    2690:	1f 93       	push	r17
    2692:	cf 93       	push	r28
    2694:	df 93       	push	r29
    2696:	8c 01       	movw	r16, r24
    uint8_t cnt = 0;
    for (uint8_t x=0; data[x]!=0; ++x){
    2698:	d0 e0       	ldi	r29, 0x00	; 0
    return 0;
}

//Cleans input of garbage and returns length of cleaned input "o->d2  !\0" becomes "od2\0"
uint8_t CleanInput(uint8_t *data){
    uint8_t cnt = 0;
    269a:	c0 e0       	ldi	r28, 0x00	; 0
    for (uint8_t x=0; data[x]!=0; ++x){
    269c:	f8 01       	movw	r30, r16
    269e:	ed 0f       	add	r30, r29
    26a0:	f1 1d       	adc	r31, r1
    26a2:	20 81       	ld	r18, Z
    26a4:	8c 2f       	mov	r24, r28
    26a6:	90 e0       	ldi	r25, 0x00	; 0
    26a8:	22 23       	and	r18, r18
    26aa:	51 f0       	breq	.+20     	; 0x26c0 <CleanInput+0x32>
        data[cnt] = data[x];
    26ac:	d8 01       	movw	r26, r16
    26ae:	a8 0f       	add	r26, r24
    26b0:	b9 1f       	adc	r27, r25
    26b2:	2c 93       	st	X, r18
        if (InpOkChk(data[x])) ++cnt;
    26b4:	80 81       	ld	r24, Z
    26b6:	dd df       	rcall	.-70     	; 0x2672 <InpOkChk>
    26b8:	81 11       	cpse	r24, r1
    26ba:	cf 5f       	subi	r28, 0xFF	; 255
}

//Cleans input of garbage and returns length of cleaned input "o->d2  !\0" becomes "od2\0"
uint8_t CleanInput(uint8_t *data){
    uint8_t cnt = 0;
    for (uint8_t x=0; data[x]!=0; ++x){
    26bc:	df 5f       	subi	r29, 0xFF	; 255
    26be:	ee cf       	rjmp	.-36     	; 0x269c <CleanInput+0xe>
        data[cnt] = data[x];
        if (InpOkChk(data[x])) ++cnt;
    }
    data[cnt] = 0;
    26c0:	f8 01       	movw	r30, r16
    26c2:	e8 0f       	add	r30, r24
    26c4:	f9 1f       	adc	r31, r25
    26c6:	10 82       	st	Z, r1
    return cnt;
}
    26c8:	8c 2f       	mov	r24, r28
    26ca:	df 91       	pop	r29
    26cc:	cf 91       	pop	r28
    26ce:	1f 91       	pop	r17
    26d0:	0f 91       	pop	r16
    26d2:	08 95       	ret

000026d4 <CheckSend>:

//Send routine, optimized for low memory usage
uint8_t CheckSend(){
    26d4:	cf 93       	push	r28
    /*if (effect == 0){
        effect = currObj.byteField[EFFECTS];
    }*/

    //Check if more string(part)s have to be sent to the serial output if previous send operation is completed
    if ((txAddrNow < TXLISTLEN) && serTxDone){
    26d6:	20 91 4d 3a 	lds	r18, 0x3A4D	; 0x803a4d <txAddrNow>
    26da:	28 30       	cpi	r18, 0x08	; 8
    26dc:	08 f0       	brcs	.+2      	; 0x26e0 <CheckSend+0xc>
    26de:	49 c0       	rjmp	.+146    	; 0x2772 <CheckSend+0x9e>
    26e0:	80 91 09 38 	lds	r24, 0x3809	; 0x803809 <serTxDone>
    26e4:	88 23       	and	r24, r24
    26e6:	09 f4       	brne	.+2      	; 0x26ea <CheckSend+0x16>
    26e8:	44 c0       	rjmp	.+136    	; 0x2772 <CheckSend+0x9e>
        if (txStrLen[txAddrNow] == 0){
    26ea:	82 2f       	mov	r24, r18
    26ec:	90 e0       	ldi	r25, 0x00	; 0
    26ee:	fc 01       	movw	r30, r24
    26f0:	e2 5b       	subi	r30, 0xB2	; 178
    26f2:	f5 4c       	sbci	r31, 0xC5	; 197
    26f4:	e0 81       	ld	r30, Z
    26f6:	e1 11       	cpse	r30, r1
    26f8:	06 c0       	rjmp	.+12     	; 0x2706 <CheckSend+0x32>
            txPart = 0;
    26fa:	10 92 0c 39 	sts	0x390C, r1	; 0x80390c <txPart.3937>
            txAddrNow = TXLISTLEN;
    26fe:	88 e0       	ldi	r24, 0x08	; 8
    2700:	80 93 4d 3a 	sts	0x3A4D, r24	; 0x803a4d <txAddrNow>
    2704:	2e c0       	rjmp	.+92     	; 0x2762 <CheckSend+0x8e>
        } else if (txPart < txStrLen[txAddrNow]){
    2706:	50 91 0c 39 	lds	r21, 0x390C	; 0x80390c <txPart.3937>
    270a:	5e 17       	cp	r21, r30
    270c:	60 f5       	brcc	.+88     	; 0x2766 <CheckSend+0x92>
            EEreadLength = txStrLen[txAddrNow]-txPart;
    270e:	ce 2f       	mov	r28, r30
    2710:	c5 1b       	sub	r28, r21
    2712:	c1 32       	cpi	r28, 0x21	; 33
    2714:	08 f0       	brcs	.+2      	; 0x2718 <CheckSend+0x44>
    2716:	c0 e2       	ldi	r28, 0x20	; 32
            if (EEreadLength>=TXLEN) EEreadLength = TXLEN-1;
            ExtEERead(txAddrList[txAddrNow]+txPart, EEreadLength, txTypeNow, &txBuffer[0]);
    2718:	88 0f       	add	r24, r24
    271a:	99 1f       	adc	r25, r25
    271c:	fc 01       	movw	r30, r24
    271e:	ea 5a       	subi	r30, 0xAA	; 170
    2720:	f5 4c       	sbci	r31, 0xC5	; 197
    2722:	80 81       	ld	r24, Z
    2724:	91 81       	ldd	r25, Z+1	; 0x01
    2726:	27 ef       	ldi	r18, 0xF7	; 247
    2728:	3a e3       	ldi	r19, 0x3A	; 58
    272a:	40 91 4c 3a 	lds	r20, 0x3A4C	; 0x803a4c <txTypeNow>
    272e:	6c 2f       	mov	r22, r28
    2730:	85 0f       	add	r24, r21
    2732:	91 1d       	adc	r25, r1
    2734:	0e 94 4a 08 	call	0x1094	; 0x1094 <ExtEERead>
            txPart += EEreadLength;
    2738:	80 91 0c 39 	lds	r24, 0x390C	; 0x80390c <txPart.3937>
    273c:	8c 0f       	add	r24, r28
    273e:	80 93 0c 39 	sts	0x390C, r24	; 0x80390c <txPart.3937>
            txBuffer[EEreadLength] = 0; //Add string terminator after piece to send to plug memory leak
    2742:	ec 2f       	mov	r30, r28
    2744:	f0 e0       	ldi	r31, 0x00	; 0
    2746:	e9 50       	subi	r30, 0x09	; 9
    2748:	f5 4c       	sbci	r31, 0xC5	; 197
    274a:	10 82       	st	Z, r1
            if ((txBuffer[0] == 0) && (EEreadLength)) txBuffer[0] = 0xDB; //Block character when data wrong.
    274c:	80 91 f7 3a 	lds	r24, 0x3AF7	; 0x803af7 <txBuffer>
    2750:	81 11       	cpse	r24, r1
    2752:	03 c0       	rjmp	.+6      	; 0x275a <CheckSend+0x86>
    2754:	8b ed       	ldi	r24, 0xDB	; 219
    2756:	80 93 f7 3a 	sts	0x3AF7, r24	; 0x803af7 <txBuffer>
            SerSend(&txBuffer[0]);
    275a:	87 ef       	ldi	r24, 0xF7	; 247
    275c:	9a e3       	ldi	r25, 0x3A	; 58
    275e:	0e 94 7c 08 	call	0x10f8	; 0x10f8 <SerSend>
        } else {
            txPart = 0;
            ++txAddrNow;
        }
    } else if (serTxDone) return 0; //All is sent!
    return 1; //Still sending, do not change the data in the tx variables
    2762:	81 e0       	ldi	r24, 0x01	; 1
    2764:	0b c0       	rjmp	.+22     	; 0x277c <CheckSend+0xa8>
            txPart += EEreadLength;
            txBuffer[EEreadLength] = 0; //Add string terminator after piece to send to plug memory leak
            if ((txBuffer[0] == 0) && (EEreadLength)) txBuffer[0] = 0xDB; //Block character when data wrong.
            SerSend(&txBuffer[0]);
        } else {
            txPart = 0;
    2766:	10 92 0c 39 	sts	0x390C, r1	; 0x80390c <txPart.3937>
            ++txAddrNow;
    276a:	2f 5f       	subi	r18, 0xFF	; 255
    276c:	20 93 4d 3a 	sts	0x3A4D, r18	; 0x803a4d <txAddrNow>
    2770:	f8 cf       	rjmp	.-16     	; 0x2762 <CheckSend+0x8e>
        }
    } else if (serTxDone) return 0; //All is sent!
    2772:	90 91 09 38 	lds	r25, 0x3809	; 0x803809 <serTxDone>
    2776:	81 e0       	ldi	r24, 0x01	; 1
    2778:	91 11       	cpse	r25, r1
    277a:	80 e0       	ldi	r24, 0x00	; 0
    return 1; //Still sending, do not change the data in the tx variables
}
    277c:	cf 91       	pop	r28
    277e:	08 95       	ret

00002780 <CheckResponse>:

//Send another part of the response and play the effect afterwards
uint8_t CheckResponse(){
    2780:	cf 93       	push	r28
    2782:	df 93       	push	r29
    static uint8_t number = 0;
    if (responseList){
    2784:	c0 91 20 39 	lds	r28, 0x3920	; 0x803920 <responseList>
    2788:	cc 23       	and	r28, r28
    278a:	b1 f1       	breq	.+108    	; 0x27f8 <CheckResponse+0x78>
        --responseList;
    278c:	c1 50       	subi	r28, 0x01	; 1
    278e:	c0 93 20 39 	sts	0x3920, r28	; 0x803920 <responseList>
        if (reactStr[0][number] == CURR_LOC) {
    2792:	d0 91 0b 39 	lds	r29, 0x390B	; 0x80390b <number.3941>
    2796:	2d 2f       	mov	r18, r29
    2798:	30 e0       	ldi	r19, 0x00	; 0
    279a:	f9 01       	movw	r30, r18
    279c:	ee 0f       	add	r30, r30
    279e:	ff 1f       	adc	r31, r31
    27a0:	ef 5d       	subi	r30, 0xDF	; 223
    27a2:	f6 4c       	sbci	r31, 0xC6	; 198
    27a4:	80 81       	ld	r24, Z
    27a6:	91 81       	ldd	r25, Z+1	; 0x01
    27a8:	80 3f       	cpi	r24, 0xF0	; 240
    27aa:	4f ef       	ldi	r20, 0xFF	; 255
    27ac:	94 07       	cpc	r25, r20
    27ae:	51 f4       	brne	.+20     	; 0x27c4 <CheckResponse+0x44>
            PrepareSending(currObj.addrStr[NAME], currObj.lenStr[NAME], GAME);
    27b0:	60 91 3b 3a 	lds	r22, 0x3A3B	; 0x803a3b <currObj+0x1a>
    27b4:	70 91 3c 3a 	lds	r23, 0x3A3C	; 0x803a3c <currObj+0x1b>
    27b8:	40 e0       	ldi	r20, 0x00	; 0
    27ba:	80 91 2d 3a 	lds	r24, 0x3A2D	; 0x803a2d <currObj+0xc>
    27be:	90 91 2e 3a 	lds	r25, 0x3A2E	; 0x803a2e <currObj+0xd>
    27c2:	0d c0       	rjmp	.+26     	; 0x27de <CheckResponse+0x5e>
        } else {
            PrepareSending(reactStr[0][number], reactStr[1][number], reactStr[2][number]);
    27c4:	d9 01       	movw	r26, r18
    27c6:	aa 0f       	add	r26, r26
    27c8:	bb 1f       	adc	r27, r27
    27ca:	af 55       	subi	r26, 0x5F	; 95
    27cc:	b6 4c       	sbci	r27, 0xC6	; 198
    27ce:	22 0f       	add	r18, r18
    27d0:	33 1f       	adc	r19, r19
    27d2:	f9 01       	movw	r30, r18
    27d4:	ef 59       	subi	r30, 0x9F	; 159
    27d6:	f6 4c       	sbci	r31, 0xC6	; 198
    27d8:	60 81       	ld	r22, Z
    27da:	71 81       	ldd	r23, Z+1	; 0x01
    27dc:	4c 91       	ld	r20, X
    27de:	63 dd       	rcall	.-1338   	; 0x22a6 <PrepareSending>
        }
        number++;
    27e0:	df 5f       	subi	r29, 0xFF	; 255
    27e2:	d0 93 0b 39 	sts	0x390B, r29	; 0x80390b <number.3941>

        if (responseList == 0) {
    27e6:	c1 11       	cpse	r28, r1
    27e8:	06 c0       	rjmp	.+12     	; 0x27f6 <CheckResponse+0x76>
            //effect = currObj.byteField[EFFECTS];
            RXCNT = 0;
    27ea:	1d ba       	out	0x1d, r1	; 29
            serRxDone = 0;
    27ec:	10 92 4a 38 	sts	0x384A, r1	; 0x80384a <serRxDone>
            number = 0;
    27f0:	10 92 0b 39 	sts	0x390B, r1	; 0x80390b <number.3941>
    27f4:	01 c0       	rjmp	.+2      	; 0x27f8 <CheckResponse+0x78>
            return 0;
        }
        return 1;
    27f6:	c1 e0       	ldi	r28, 0x01	; 1
    }
    return 0;
}
    27f8:	8c 2f       	mov	r24, r28
    27fa:	df 91       	pop	r29
    27fc:	cf 91       	pop	r28
    27fe:	08 95       	ret

00002800 <CheckInput>:

//User input check (and validation)
uint8_t CheckInput(uint8_t *data){
    2800:	5f 92       	push	r5
    2802:	6f 92       	push	r6
    2804:	7f 92       	push	r7
    2806:	8f 92       	push	r8
    2808:	9f 92       	push	r9
    280a:	af 92       	push	r10
    280c:	bf 92       	push	r11
    280e:	cf 92       	push	r12
    2810:	df 92       	push	r13
    2812:	ef 92       	push	r14
    2814:	ff 92       	push	r15
    2816:	0f 93       	push	r16
    2818:	1f 93       	push	r17
    281a:	cf 93       	push	r28
    281c:	df 93       	push	r29
    281e:	cd b7       	in	r28, 0x3d	; 61
    2820:	de b7       	in	r29, 0x3e	; 62
    2822:	2a 97       	sbiw	r28, 0x0a	; 10
    2824:	cd bf       	out	0x3d, r28	; 61
    2826:	de bf       	out	0x3e, r29	; 62
    2828:	8c 01       	movw	r16, r24
    
    //Load game data after reboot
    if (currDepth == 0xff) {
    282a:	80 91 34 38 	lds	r24, 0x3834	; 0x803834 <currDepth>
    282e:	8f 3f       	cpi	r24, 0xFF	; 255
    2830:	49 f4       	brne	.+18     	; 0x2844 <CheckInput+0x44>
        //Start at first location
        PopulateObject(route[0], &currObj);
    2832:	61 e2       	ldi	r22, 0x21	; 33
    2834:	7a e3       	ldi	r23, 0x3A	; 58
    2836:	80 91 e1 39 	lds	r24, 0x39E1	; 0x8039e1 <route>
    283a:	90 91 e2 39 	lds	r25, 0x39E2	; 0x8039e2 <route+0x1>
    283e:	ec dd       	rcall	.-1064   	; 0x2418 <PopulateObject>
        currDepth = 0;
    2840:	10 92 34 38 	sts	0x3834, r1	; 0x803834 <currDepth>
    }

    if (serRxDone){
    2844:	80 91 4a 38 	lds	r24, 0x384A	; 0x80384a <serRxDone>
    2848:	88 23       	and	r24, r24
    284a:	09 f4       	brne	.+2      	; 0x284e <CheckInput+0x4e>
    284c:	d4 c1       	rjmp	.+936    	; 0x2bf6 <CheckInput+0x3f6>

        //Special input requested from user by game
        if (specialInput[0]){
    284e:	80 91 10 39 	lds	r24, 0x3910	; 0x803910 <specialInput>
    2852:	88 23       	and	r24, r24
    2854:	09 f4       	brne	.+2      	; 0x2858 <CheckInput+0x58>
    2856:	4f c0       	rjmp	.+158    	; 0x28f6 <CheckInput+0xf6>
            specialPassed = 0;
    2858:	10 92 0f 39 	sts	0x390F, r1	; 0x80390f <specialPassed>
            data[0] = 'a';
    285c:	81 e6       	ldi	r24, 0x61	; 97
    285e:	f8 01       	movw	r30, r16
    2860:	80 83       	st	Z, r24
            
            //Normal code challenge
            if (StartsWith((uint8_t *)&serRx[0], &specialInput[0])) {
    2862:	60 e1       	ldi	r22, 0x10	; 16
    2864:	79 e3       	ldi	r23, 0x39	; 57
    2866:	8b e7       	ldi	r24, 0x7B	; 123
    2868:	9a e3       	ldi	r25, 0x3A	; 58
    286a:	03 dd       	rcall	.-1530   	; 0x2272 <StartsWith>
    286c:	f8 2e       	mov	r15, r24
    286e:	88 23       	and	r24, r24
    2870:	21 f0       	breq	.+8      	; 0x287a <CheckInput+0x7a>
                specialPassed = 1;
    2872:	81 e0       	ldi	r24, 0x01	; 1
    2874:	80 93 0f 39 	sts	0x390F, r24	; 0x80390f <specialPassed>
    2878:	04 c0       	rjmp	.+8      	; 0x2882 <CheckInput+0x82>

            //Special challenge 1
            } else if ((specialInput[0] == '1')&&(specialInput[2] == 0)) {
    287a:	80 91 10 39 	lds	r24, 0x3910	; 0x803910 <specialInput>
    287e:	81 33       	cpi	r24, 0x31	; 49
    2880:	11 f0       	breq	.+4      	; 0x2886 <CheckInput+0x86>
                responseList = SetStandardResponse((3*MAX_CHEATS));
                return 1;
            }
        } 
        //Data received, but not any of the commands above
        return 0;
    2882:	f1 2c       	mov	r15, r1
    2884:	ba c1       	rjmp	.+884    	; 0x2bfa <CheckInput+0x3fa>
            //Normal code challenge
            if (StartsWith((uint8_t *)&serRx[0], &specialInput[0])) {
                specialPassed = 1;

            //Special challenge 1
            } else if ((specialInput[0] == '1')&&(specialInput[2] == 0)) {
    2886:	80 91 12 39 	lds	r24, 0x3912	; 0x803912 <specialInput+0x2>
    288a:	81 11       	cpse	r24, r1
    288c:	fa cf       	rjmp	.-12     	; 0x2882 <CheckInput+0x82>
                uint8_t inputLen = CleanInput((uint8_t *)&serRx[0]);
    288e:	8b e7       	ldi	r24, 0x7B	; 123
    2890:	9a e3       	ldi	r25, 0x3A	; 58
    2892:	fd de       	rcall	.-518    	; 0x268e <CleanInput>
                specialPassed = 2;
    2894:	92 e0       	ldi	r25, 0x02	; 2
    2896:	90 93 0f 39 	sts	0x390F, r25	; 0x80390f <specialPassed>
                data[1] = 0;
    289a:	f8 01       	movw	r30, r16
    289c:	11 82       	std	Z+1, r1	; 0x01

                if (inputLen >= 2) {
    289e:	82 30       	cpi	r24, 0x02	; 2
    28a0:	80 f3       	brcs	.-32     	; 0x2882 <CheckInput+0x82>
                    if ((serRx[0] >= '1') && (serRx[0] <= '4')) {
    28a2:	80 91 7b 3a 	lds	r24, 0x3A7B	; 0x803a7b <serRx>
    28a6:	81 33       	cpi	r24, 0x31	; 49
    28a8:	60 f3       	brcs	.-40     	; 0x2882 <CheckInput+0x82>
    28aa:	80 91 7b 3a 	lds	r24, 0x3A7B	; 0x803a7b <serRx>
    28ae:	85 33       	cpi	r24, 0x35	; 53
    28b0:	40 f7       	brcc	.-48     	; 0x2882 <CheckInput+0x82>
                        serRx[1] |= 0x20;
    28b2:	80 91 7c 3a 	lds	r24, 0x3A7C	; 0x803a7c <serRx+0x1>
    28b6:	80 62       	ori	r24, 0x20	; 32
    28b8:	80 93 7c 3a 	sts	0x3A7C, r24	; 0x803a7c <serRx+0x1>
                        if ((serRx[1] == 'a')||(serRx[1] == 'e')||(serRx[1] == 'f')||(serRx[1] == 'w')) {
    28bc:	80 91 7c 3a 	lds	r24, 0x3A7C	; 0x803a7c <serRx+0x1>
    28c0:	81 36       	cpi	r24, 0x61	; 97
    28c2:	61 f0       	breq	.+24     	; 0x28dc <CheckInput+0xdc>
    28c4:	80 91 7c 3a 	lds	r24, 0x3A7C	; 0x803a7c <serRx+0x1>
    28c8:	85 36       	cpi	r24, 0x65	; 101
    28ca:	41 f0       	breq	.+16     	; 0x28dc <CheckInput+0xdc>
    28cc:	80 91 7c 3a 	lds	r24, 0x3A7C	; 0x803a7c <serRx+0x1>
    28d0:	86 36       	cpi	r24, 0x66	; 102
    28d2:	21 f0       	breq	.+8      	; 0x28dc <CheckInput+0xdc>
    28d4:	80 91 7c 3a 	lds	r24, 0x3A7C	; 0x803a7c <serRx+0x1>
    28d8:	87 37       	cpi	r24, 0x77	; 119
    28da:	99 f6       	brne	.-90     	; 0x2882 <CheckInput+0x82>
                            data[1] = specialInput[1]+0x11;
    28dc:	80 91 11 39 	lds	r24, 0x3911	; 0x803911 <specialInput+0x1>
    28e0:	8f 5e       	subi	r24, 0xEF	; 239
    28e2:	f8 01       	movw	r30, r16
    28e4:	81 83       	std	Z+1, r24	; 0x01
                            data[2] = serRx[0];
    28e6:	80 91 7b 3a 	lds	r24, 0x3A7B	; 0x803a7b <serRx>
    28ea:	82 83       	std	Z+2, r24	; 0x02
                            data[3] = serRx[1];
    28ec:	80 91 7c 3a 	lds	r24, 0x3A7C	; 0x803a7c <serRx+0x1>
    28f0:	83 83       	std	Z+3, r24	; 0x03
                            data[4] = 0;
    28f2:	14 82       	std	Z+4, r1	; 0x04
    28f4:	82 c1       	rjmp	.+772    	; 0x2bfa <CheckInput+0x3fa>
        } else {
      
            //SetResponse(0, A_LF, 4, TEASER);

            //Change status bit
            if ((serRx[0] == '#')&&(RXCNT == 6)){
    28f6:	80 91 7b 3a 	lds	r24, 0x3A7B	; 0x803a7b <serRx>
    28fa:	83 32       	cpi	r24, 0x23	; 35
    28fc:	89 f5       	brne	.+98     	; 0x2960 <CheckInput+0x160>
    28fe:	8d b3       	in	r24, 0x1d	; 29
    2900:	86 30       	cpi	r24, 0x06	; 6
    2902:	71 f5       	brne	.+92     	; 0x2960 <CheckInput+0x160>
    2904:	81 e0       	ldi	r24, 0x01	; 1
    2906:	90 e0       	ldi	r25, 0x00	; 0
    2908:	10 e0       	ldi	r17, 0x00	; 0
                uint8_t bitNr = 0;

                for (uint8_t x=1; x<4; ++x) {
                    serRx[x] -= '0';
    290a:	fc 01       	movw	r30, r24
    290c:	e5 58       	subi	r30, 0x85	; 133
    290e:	f5 4c       	sbci	r31, 0xC5	; 197
    2910:	20 81       	ld	r18, Z
    2912:	20 53       	subi	r18, 0x30	; 48
    2914:	20 83       	st	Z, r18
                    bitNr *= 10;
    2916:	11 0f       	add	r17, r17
    2918:	21 2f       	mov	r18, r17
    291a:	22 0f       	add	r18, r18
    291c:	22 0f       	add	r18, r18
    291e:	12 0f       	add	r17, r18
                    if (serRx[1] > 2) break;
    2920:	20 91 7c 3a 	lds	r18, 0x3A7C	; 0x803a7c <serRx+0x1>
    2924:	23 30       	cpi	r18, 0x03	; 3
    2926:	48 f4       	brcc	.+18     	; 0x293a <CheckInput+0x13a>
                    if (serRx[x] < 10) {
    2928:	20 81       	ld	r18, Z
    292a:	2a 30       	cpi	r18, 0x0A	; 10
    292c:	b8 f4       	brcc	.+46     	; 0x295c <CheckInput+0x15c>
                        bitNr += serRx[x];
    292e:	20 81       	ld	r18, Z
    2930:	12 0f       	add	r17, r18
    2932:	01 96       	adiw	r24, 0x01	; 1

            //Change status bit
            if ((serRx[0] == '#')&&(RXCNT == 6)){
                uint8_t bitNr = 0;

                for (uint8_t x=1; x<4; ++x) {
    2934:	84 30       	cpi	r24, 0x04	; 4
    2936:	91 05       	cpc	r25, r1
    2938:	41 f7       	brne	.-48     	; 0x290a <CheckInput+0x10a>
                        continue;
                    }
                    bitNr = 0;
                    break;
                }
                if ((bitNr)&&(bitNr!=128)) {
    293a:	81 2f       	mov	r24, r17
    293c:	8f 77       	andi	r24, 0x7F	; 127
    293e:	71 f0       	breq	.+28     	; 0x295c <CheckInput+0x15c>
                    if (Cheat(0xff-bitNr, serRx[4]<<8|serRx[5])) UpdateState(bitNr);
    2940:	80 91 7f 3a 	lds	r24, 0x3A7F	; 0x803a7f <serRx+0x4>
    2944:	60 91 80 3a 	lds	r22, 0x3A80	; 0x803a80 <serRx+0x5>
    2948:	70 e0       	ldi	r23, 0x00	; 0
    294a:	78 2b       	or	r23, r24
    294c:	81 2f       	mov	r24, r17
    294e:	80 95       	com	r24
    2950:	3b dc       	rcall	.-1930   	; 0x21c8 <Cheat>
    2952:	88 23       	and	r24, r24
    2954:	19 f0       	breq	.+6      	; 0x295c <CheckInput+0x15c>
    2956:	81 2f       	mov	r24, r17
    2958:	0e 94 f4 09 	call	0x13e8	; 0x13e8 <UpdateState>
                }
                
                responseList = SetStandardResponse(1);
    295c:	81 e0       	ldi	r24, 0x01	; 1
    295e:	48 c1       	rjmp	.+656    	; 0x2bf0 <CheckInput+0x3f0>
    2960:	d8 01       	movw	r26, r16
    2962:	80 e0       	ldi	r24, 0x00	; 0
    2964:	90 e0       	ldi	r25, 0x00	; 0
                return 1;            
            }
            
            //Read up to the \0 character and convert to lower case.
            for (uint8_t x=0; x<RXLEN; ++x){
                if ((serRx[x]<'A')||(serRx[x]>'Z')) data[x]=serRx[x]; else data[x]=serRx[x]|0x20;
    2966:	fc 01       	movw	r30, r24
    2968:	e5 58       	subi	r30, 0x85	; 133
    296a:	f5 4c       	sbci	r31, 0xC5	; 197
    296c:	20 81       	ld	r18, Z
    296e:	21 34       	cpi	r18, 0x41	; 65
    2970:	18 f0       	brcs	.+6      	; 0x2978 <CheckInput+0x178>
    2972:	20 81       	ld	r18, Z
    2974:	2b 35       	cpi	r18, 0x5B	; 91
    2976:	10 f0       	brcs	.+4      	; 0x297c <CheckInput+0x17c>
    2978:	20 81       	ld	r18, Z
    297a:	02 c0       	rjmp	.+4      	; 0x2980 <CheckInput+0x180>
    297c:	20 81       	ld	r18, Z
    297e:	20 62       	ori	r18, 0x20	; 32
    2980:	2c 93       	st	X, r18
                if (serRx[x] == 0) {
    2982:	20 81       	ld	r18, Z
    2984:	21 11       	cpse	r18, r1
    2986:	05 c0       	rjmp	.+10     	; 0x2992 <CheckInput+0x192>
                    data[x] = 0;
    2988:	f8 01       	movw	r30, r16
    298a:	e8 0f       	add	r30, r24
    298c:	f1 1d       	adc	r31, r1
    298e:	10 82       	st	Z, r1
                    break;
    2990:	05 c0       	rjmp	.+10     	; 0x299c <CheckInput+0x19c>
    2992:	01 96       	adiw	r24, 0x01	; 1
    2994:	11 96       	adiw	r26, 0x01	; 1
                
                return 1;            
            }
            
            //Read up to the \0 character and convert to lower case.
            for (uint8_t x=0; x<RXLEN; ++x){
    2996:	81 34       	cpi	r24, 0x41	; 65
    2998:	91 05       	cpc	r25, r1
    299a:	29 f7       	brne	.-54     	; 0x2966 <CheckInput+0x166>
                    break;
                }
            }

            //No text
            if (serRx[0] == 0){
    299c:	80 91 7b 3a 	lds	r24, 0x3A7B	; 0x803a7b <serRx>
                data[0] = 0;
    29a0:	f8 01       	movw	r30, r16
                    break;
                }
            }

            //No text
            if (serRx[0] == 0){
    29a2:	81 11       	cpse	r24, r1
    29a4:	05 c0       	rjmp	.+10     	; 0x29b0 <CheckInput+0x1b0>
                data[0] = 0;
    29a6:	10 82       	st	Z, r1
                RXCNT = 0;
    29a8:	1d ba       	out	0x1d, r1	; 29
                serRxDone = 0;
    29aa:	10 92 4a 38 	sts	0x384A, r1	; 0x80384a <serRxDone>
    29ae:	23 c1       	rjmp	.+582    	; 0x2bf6 <CheckInput+0x3f6>
                return 1;
            }

            //Help text
            if ((data[0] == '?')||(data[0] == 'h')){
    29b0:	80 81       	ld	r24, Z
    29b2:	8f 33       	cpi	r24, 0x3F	; 63
    29b4:	11 f0       	breq	.+4      	; 0x29ba <CheckInput+0x1ba>
    29b6:	88 36       	cpi	r24, 0x68	; 104
    29b8:	49 f4       	brne	.+18     	; 0x29cc <CheckInput+0x1cc>
    return 0;
}

//
void SetResponse(uint8_t number, uint16_t address, uint16_t length, uint8_t type){
    reactStr[0][number]=address;
    29ba:	83 e9       	ldi	r24, 0x93	; 147
    29bc:	9b e7       	ldi	r25, 0x7B	; 123
    29be:	80 93 23 39 	sts	0x3923, r24	; 0x803923 <reactStr+0x2>
    29c2:	90 93 24 39 	sts	0x3924, r25	; 0x803924 <reactStr+0x3>
    reactStr[1][number]=length;
    29c6:	8d e6       	ldi	r24, 0x6D	; 109
    29c8:	94 e0       	ldi	r25, 0x04	; 4
    29ca:	0a c0       	rjmp	.+20     	; 0x29e0 <CheckInput+0x1e0>
                responseList = SetStandardResponse(2);
                return 1;
            }        
        
            //Alphabet text
            if (data[0] == 'a'){
    29cc:	81 36       	cpi	r24, 0x61	; 97
    29ce:	a1 f4       	brne	.+40     	; 0x29f8 <CheckInput+0x1f8>
    return 0;
}

//
void SetResponse(uint8_t number, uint16_t address, uint16_t length, uint8_t type){
    reactStr[0][number]=address;
    29d0:	8e e6       	ldi	r24, 0x6E	; 110
    29d2:	9a e7       	ldi	r25, 0x7A	; 122
    29d4:	80 93 23 39 	sts	0x3923, r24	; 0x803923 <reactStr+0x2>
    29d8:	90 93 24 39 	sts	0x3924, r25	; 0x803924 <reactStr+0x3>
    reactStr[1][number]=length;
    29dc:	85 e2       	ldi	r24, 0x25	; 37
    29de:	91 e0       	ldi	r25, 0x01	; 1
    29e0:	80 93 63 39 	sts	0x3963, r24	; 0x803963 <reactStr+0x42>
    29e4:	90 93 64 39 	sts	0x3964, r25	; 0x803964 <reactStr+0x43>
    reactStr[2][number]=type;
    29e8:	81 e0       	ldi	r24, 0x01	; 1
    29ea:	90 e0       	ldi	r25, 0x00	; 0
    29ec:	80 93 a3 39 	sts	0x39A3, r24	; 0x8039a3 <reactStr+0x82>
    29f0:	90 93 a4 39 	sts	0x39A4, r25	; 0x8039a4 <reactStr+0x83>
            }        
        
            //Alphabet text
            if (data[0] == 'a'){
                SetResponse(1, A_ALPHABET, L_ALPHABET, TEASER);
                responseList = SetStandardResponse(2);
    29f4:	82 e0       	ldi	r24, 0x02	; 2
    29f6:	fc c0       	rjmp	.+504    	; 0x2bf0 <CheckInput+0x3f0>
                return 1;
            }

            //Whoami text
            if (data[0] == 'w'){
    29f8:	87 37       	cpi	r24, 0x77	; 119
    29fa:	09 f0       	breq	.+2      	; 0x29fe <CheckInput+0x1fe>
    29fc:	41 c0       	rjmp	.+130    	; 0x2a80 <CheckInput+0x280>
    return 0;
}

//
void SetResponse(uint8_t number, uint16_t address, uint16_t length, uint8_t type){
    reactStr[0][number]=address;
    29fe:	8d e8       	ldi	r24, 0x8D	; 141
    2a00:	96 e7       	ldi	r25, 0x76	; 118
    2a02:	80 93 23 39 	sts	0x3923, r24	; 0x803923 <reactStr+0x2>
    2a06:	90 93 24 39 	sts	0x3924, r25	; 0x803924 <reactStr+0x3>
    reactStr[1][number]=length;
    2a0a:	82 e1       	ldi	r24, 0x12	; 18
    2a0c:	90 e0       	ldi	r25, 0x00	; 0
    2a0e:	80 93 63 39 	sts	0x3963, r24	; 0x803963 <reactStr+0x42>
    2a12:	90 93 64 39 	sts	0x3964, r25	; 0x803964 <reactStr+0x43>
    reactStr[2][number]=type;
    2a16:	21 e0       	ldi	r18, 0x01	; 1
    2a18:	30 e0       	ldi	r19, 0x00	; 0
    2a1a:	20 93 a3 39 	sts	0x39A3, r18	; 0x8039a3 <reactStr+0x82>
    2a1e:	30 93 a4 39 	sts	0x39A4, r19	; 0x8039a4 <reactStr+0x83>
            }

            //Whoami text
            if (data[0] == 'w'){
                SetResponse(1, A_HELLO, L_HELLO, TEASER);
                SetResponse(2, names[0][whoami-1], names[1][whoami-1], TEASER);
    2a22:	80 91 43 38 	lds	r24, 0x3843	; 0x803843 <whoami>
    2a26:	90 e0       	ldi	r25, 0x00	; 0
    2a28:	fc 01       	movw	r30, r24
    2a2a:	ee 0f       	add	r30, r30
    2a2c:	ff 1f       	adc	r31, r31
    2a2e:	e8 51       	subi	r30, 0x18	; 24
    2a30:	f0 44       	sbci	r31, 0x40	; 64
    2a32:	40 81       	ld	r20, Z
    2a34:	51 81       	ldd	r21, Z+1	; 0x01
    2a36:	88 0f       	add	r24, r24
    2a38:	99 1f       	adc	r25, r25
    2a3a:	fc 01       	movw	r30, r24
    2a3c:	e0 52       	subi	r30, 0x20	; 32
    2a3e:	f0 44       	sbci	r31, 0x40	; 64
    return 0;
}

//
void SetResponse(uint8_t number, uint16_t address, uint16_t length, uint8_t type){
    reactStr[0][number]=address;
    2a40:	80 81       	ld	r24, Z
    2a42:	91 81       	ldd	r25, Z+1	; 0x01
    2a44:	80 93 25 39 	sts	0x3925, r24	; 0x803925 <reactStr+0x4>
    2a48:	90 93 26 39 	sts	0x3926, r25	; 0x803926 <reactStr+0x5>
    reactStr[1][number]=length;
    2a4c:	40 93 65 39 	sts	0x3965, r20	; 0x803965 <reactStr+0x44>
    2a50:	50 93 66 39 	sts	0x3966, r21	; 0x803966 <reactStr+0x45>
    reactStr[2][number]=type;
    2a54:	20 93 a5 39 	sts	0x39A5, r18	; 0x8039a5 <reactStr+0x84>
    2a58:	30 93 a6 39 	sts	0x39A6, r19	; 0x8039a6 <reactStr+0x85>
    return 0;
}

//
void SetResponse(uint8_t number, uint16_t address, uint16_t length, uint8_t type){
    reactStr[0][number]=address;
    2a5c:	8f e5       	ldi	r24, 0x5F	; 95
    2a5e:	96 e7       	ldi	r25, 0x76	; 118
    2a60:	80 93 27 39 	sts	0x3927, r24	; 0x803927 <reactStr+0x6>
    2a64:	90 93 28 39 	sts	0x3928, r25	; 0x803928 <reactStr+0x7>
    reactStr[1][number]=length;
    2a68:	8a e1       	ldi	r24, 0x1A	; 26
    2a6a:	90 e0       	ldi	r25, 0x00	; 0
    2a6c:	80 93 67 39 	sts	0x3967, r24	; 0x803967 <reactStr+0x46>
    2a70:	90 93 68 39 	sts	0x3968, r25	; 0x803968 <reactStr+0x47>
    reactStr[2][number]=type;
    2a74:	20 93 a7 39 	sts	0x39A7, r18	; 0x8039a7 <reactStr+0x86>
    2a78:	30 93 a8 39 	sts	0x39A8, r19	; 0x8039a8 <reactStr+0x87>
                } else {
                    SetResponse(2, A_ERROR, L_ERROR, TEASER);
                }*/

                SetResponse(3, A_PLEASED, L_PLEASED, TEASER);
                responseList = SetStandardResponse(4);
    2a7c:	84 e0       	ldi	r24, 0x04	; 4
                responseList = SetStandardResponse(2);
                return 1;
            }*/

            //Fake cheat = reset badge!
            if (StartsWith(&data[0], "iddqd")){
    2a7e:	b8 c0       	rjmp	.+368    	; 0x2bf0 <CheckInput+0x3f0>
    2a80:	6e eb       	ldi	r22, 0xBE	; 190
    2a82:	7f eb       	ldi	r23, 0xBF	; 191
    2a84:	c8 01       	movw	r24, r16
    2a86:	f5 db       	rcall	.-2070   	; 0x2272 <StartsWith>
    2a88:	88 23       	and	r24, r24
    2a8a:	19 f1       	breq	.+70     	; 0x2ad2 <CheckInput+0x2d2>
            
                //Reset game data by wiping the UUID bits
                for (uint8_t x=0; x<4; ++x){
                    UpdateState(128+110+x);
    2a8c:	8e ee       	ldi	r24, 0xEE	; 238
    2a8e:	0e 94 f4 09 	call	0x13e8	; 0x13e8 <UpdateState>
    2a92:	8f ee       	ldi	r24, 0xEF	; 239
    2a94:	0e 94 f4 09 	call	0x13e8	; 0x13e8 <UpdateState>
    2a98:	80 ef       	ldi	r24, 0xF0	; 240
    2a9a:	0e 94 f4 09 	call	0x13e8	; 0x13e8 <UpdateState>
    2a9e:	81 ef       	ldi	r24, 0xF1	; 241
    2aa0:	0e 94 f4 09 	call	0x13e8	; 0x13e8 <UpdateState>
                }
                SaveGameState();
    2aa4:	0e 94 6d 09 	call	0x12da	; 0x12da <SaveGameState>

                uint8_t cheat[] = "Gotcha! ";
    2aa8:	89 e0       	ldi	r24, 0x09	; 9
    2aaa:	e1 ed       	ldi	r30, 0xD1	; 209
    2aac:	ff eb       	ldi	r31, 0xBF	; 191
    2aae:	de 01       	movw	r26, r28
    2ab0:	11 96       	adiw	r26, 0x01	; 1
    2ab2:	01 90       	ld	r0, Z+
    2ab4:	0d 92       	st	X+, r0
    2ab6:	8a 95       	dec	r24
    2ab8:	e1 f7       	brne	.-8      	; 0x2ab2 <CheckInput+0x2b2>
                SerSpeed(60);
    2aba:	8c e3       	ldi	r24, 0x3C	; 60
    2abc:	0e 94 8d 08 	call	0x111a	; 0x111a <SerSpeed>
                while(1){
                    if (serTxDone) SerSend(&cheat[0]);
    2ac0:	80 91 09 38 	lds	r24, 0x3809	; 0x803809 <serTxDone>
    2ac4:	88 23       	and	r24, r24
    2ac6:	e1 f3       	breq	.-8      	; 0x2ac0 <CheckInput+0x2c0>
    2ac8:	ce 01       	movw	r24, r28
    2aca:	01 96       	adiw	r24, 0x01	; 1
    2acc:	0e 94 7c 08 	call	0x10f8	; 0x10f8 <SerSend>
                }
            }
            
            //Cheat reset
            if (StartsWith(&data[0], "ikillu")){
    2ad0:	f7 cf       	rjmp	.-18     	; 0x2ac0 <CheckInput+0x2c0>
    2ad2:	64 ec       	ldi	r22, 0xC4	; 196
    2ad4:	7f eb       	ldi	r23, 0xBF	; 191
    2ad6:	c8 01       	movw	r24, r16
    2ad8:	cc db       	rcall	.-2152   	; 0x2272 <StartsWith>
    2ada:	88 23       	and	r24, r24
    2adc:	81 f1       	breq	.+96     	; 0x2b3e <CheckInput+0x33e>
                
                //Reset cheat data by resetting the EEPROM bytes
                uint8_t empty=0xff;
    2ade:	8f ef       	ldi	r24, 0xFF	; 255
    2ae0:	8a 87       	std	Y+10, r24	; 0x0a
    2ae2:	18 e1       	ldi	r17, 0x18	; 24
                for (uint8_t x=0; x<MAX_CHEATS; ++x){
                    EEWrite(CHEATS+x, &empty, 1);
    2ae4:	41 e0       	ldi	r20, 0x01	; 1
    2ae6:	be 01       	movw	r22, r28
    2ae8:	66 5f       	subi	r22, 0xF6	; 246
    2aea:	7f 4f       	sbci	r23, 0xFF	; 255
    2aec:	81 2f       	mov	r24, r17
    2aee:	0e 94 08 08 	call	0x1010	; 0x1010 <EEWrite>
    2af2:	1f 5f       	subi	r17, 0xFF	; 255
            //Cheat reset
            if (StartsWith(&data[0], "ikillu")){
                
                //Reset cheat data by resetting the EEPROM bytes
                uint8_t empty=0xff;
                for (uint8_t x=0; x<MAX_CHEATS; ++x){
    2af4:	10 32       	cpi	r17, 0x20	; 32
    2af6:	b1 f7       	brne	.-20     	; 0x2ae4 <CheckInput+0x2e4>
                    EEWrite(CHEATS+x, &empty, 1);
                }
                //Reset game data by wiping the UUID bits
                for (uint8_t x=0; x<4; ++x){
                    UpdateState(128+110+x);
    2af8:	8e ee       	ldi	r24, 0xEE	; 238
    2afa:	0e 94 f4 09 	call	0x13e8	; 0x13e8 <UpdateState>
    2afe:	8f ee       	ldi	r24, 0xEF	; 239
    2b00:	0e 94 f4 09 	call	0x13e8	; 0x13e8 <UpdateState>
    2b04:	80 ef       	ldi	r24, 0xF0	; 240
    2b06:	0e 94 f4 09 	call	0x13e8	; 0x13e8 <UpdateState>
    2b0a:	81 ef       	ldi	r24, 0xF1	; 241
    2b0c:	0e 94 f4 09 	call	0x13e8	; 0x13e8 <UpdateState>
                }
                
                SaveGameState();
    2b10:	0e 94 6d 09 	call	0x12da	; 0x12da <SaveGameState>

                uint8_t cheat[] = "Reset! ";
    2b14:	88 e0       	ldi	r24, 0x08	; 8
    2b16:	ea ed       	ldi	r30, 0xDA	; 218
    2b18:	ff eb       	ldi	r31, 0xBF	; 191
    2b1a:	de 01       	movw	r26, r28
    2b1c:	11 96       	adiw	r26, 0x01	; 1
    2b1e:	01 90       	ld	r0, Z+
    2b20:	0d 92       	st	X+, r0
    2b22:	8a 95       	dec	r24
    2b24:	e1 f7       	brne	.-8      	; 0x2b1e <CheckInput+0x31e>
                SerSpeed(60);
    2b26:	8c e3       	ldi	r24, 0x3C	; 60
    2b28:	0e 94 8d 08 	call	0x111a	; 0x111a <SerSpeed>
                while(1){
                    if (serTxDone) SerSend(&cheat[0]);
    2b2c:	80 91 09 38 	lds	r24, 0x3809	; 0x803809 <serTxDone>
    2b30:	88 23       	and	r24, r24
    2b32:	e1 f3       	breq	.-8      	; 0x2b2c <CheckInput+0x32c>
    2b34:	ce 01       	movw	r24, r28
    2b36:	01 96       	adiw	r24, 0x01	; 1
    2b38:	0e 94 7c 08 	call	0x10f8	; 0x10f8 <SerSend>
                }
            }

            //Show used cheat codes
            if (StartsWith(&data[0], "cheat")){
    2b3c:	f7 cf       	rjmp	.-18     	; 0x2b2c <CheckInput+0x32c>
    2b3e:	6b ec       	ldi	r22, 0xCB	; 203
    2b40:	7f eb       	ldi	r23, 0xBF	; 191
    2b42:	c8 01       	movw	r24, r16
    2b44:	96 db       	rcall	.-2260   	; 0x2272 <StartsWith>
    2b46:	88 23       	and	r24, r24
    2b48:	09 f4       	brne	.+2      	; 0x2b4c <CheckInput+0x34c>
    2b4a:	9b ce       	rjmp	.-714    	; 0x2882 <CheckInput+0x82>
    2b4c:	81 e2       	ldi	r24, 0x21	; 33
    2b4e:	c8 2e       	mov	r12, r24
    2b50:	89 e3       	ldi	r24, 0x39	; 57
    2b52:	d8 2e       	mov	r13, r24
    2b54:	91 e6       	ldi	r25, 0x61	; 97
    2b56:	e9 2e       	mov	r14, r25
    2b58:	99 e3       	ldi	r25, 0x39	; 57
    2b5a:	f9 2e       	mov	r15, r25
    2b5c:	01 ea       	ldi	r16, 0xA1	; 161
    2b5e:	19 e3       	ldi	r17, 0x39	; 57
    2b60:	28 e1       	ldi	r18, 0x18	; 24
    2b62:	52 2e       	mov	r5, r18
}

//
void SetResponse(uint8_t number, uint16_t address, uint16_t length, uint8_t type){
    reactStr[0][number]=address;
    reactStr[1][number]=length;
    2b64:	aa 24       	eor	r10, r10
    2b66:	a3 94       	inc	r10
    2b68:	b1 2c       	mov	r11, r1
    return 0;
}

//
void SetResponse(uint8_t number, uint16_t address, uint16_t length, uint8_t type){
    reactStr[0][number]=address;
    2b6a:	47 e5       	ldi	r20, 0x57	; 87
    2b6c:	84 2e       	mov	r8, r20
    2b6e:	4a e7       	ldi	r20, 0x7A	; 122
    2b70:	94 2e       	mov	r9, r20
    reactStr[1][number]=length;
    2b72:	52 e0       	ldi	r21, 0x02	; 2
    2b74:	65 2e       	mov	r6, r21
    2b76:	71 2c       	mov	r7, r1
            if (StartsWith(&data[0], "cheat")){
                uint8_t bit;
                for (uint8_t x=0; x<MAX_CHEATS; ++x){
                    
                    //Set up sending out number
                    EERead(CHEATS+x, &bit, 1);
    2b78:	41 e0       	ldi	r20, 0x01	; 1
    2b7a:	be 01       	movw	r22, r28
    2b7c:	6f 5f       	subi	r22, 0xFF	; 255
    2b7e:	7f 4f       	sbci	r23, 0xFF	; 255
    2b80:	85 2d       	mov	r24, r5
    2b82:	0e 94 f8 07 	call	0xff0	; 0xff0 <EERead>
                    bit = 0xff-bit;
    2b86:	89 81       	ldd	r24, Y+1	; 0x01
    2b88:	80 95       	com	r24
    2b8a:	89 83       	std	Y+1, r24	; 0x01
    return 0;
}

//
void SetResponse(uint8_t number, uint16_t address, uint16_t length, uint8_t type){
    reactStr[0][number]=address;
    2b8c:	28 2f       	mov	r18, r24
    2b8e:	22 95       	swap	r18
    2b90:	2f 70       	andi	r18, 0x0F	; 15
    2b92:	30 e0       	ldi	r19, 0x00	; 0
    2b94:	23 57       	subi	r18, 0x73	; 115
    2b96:	3b 48       	sbci	r19, 0x8B	; 139
    2b98:	f6 01       	movw	r30, r12
    2b9a:	20 83       	st	Z, r18
    2b9c:	31 83       	std	Z+1, r19	; 0x01
    reactStr[1][number]=length;
    2b9e:	f7 01       	movw	r30, r14
    2ba0:	a0 82       	st	Z, r10
    2ba2:	b1 82       	std	Z+1, r11	; 0x01
    reactStr[2][number]=type;
    2ba4:	f8 01       	movw	r30, r16
    2ba6:	a0 82       	st	Z, r10
    2ba8:	b1 82       	std	Z+1, r11	; 0x01
    return 0;
}

//
void SetResponse(uint8_t number, uint16_t address, uint16_t length, uint8_t type){
    reactStr[0][number]=address;
    2baa:	8f 70       	andi	r24, 0x0F	; 15
    2bac:	90 e0       	ldi	r25, 0x00	; 0
    2bae:	83 57       	subi	r24, 0x73	; 115
    2bb0:	9b 48       	sbci	r25, 0x8B	; 139
    2bb2:	f6 01       	movw	r30, r12
    2bb4:	82 83       	std	Z+2, r24	; 0x02
    2bb6:	93 83       	std	Z+3, r25	; 0x03
    reactStr[1][number]=length;
    2bb8:	f7 01       	movw	r30, r14
    2bba:	a2 82       	std	Z+2, r10	; 0x02
    2bbc:	b3 82       	std	Z+3, r11	; 0x03
    reactStr[2][number]=type;
    2bbe:	f8 01       	movw	r30, r16
    2bc0:	a2 82       	std	Z+2, r10	; 0x02
    2bc2:	b3 82       	std	Z+3, r11	; 0x03
    return 0;
}

//
void SetResponse(uint8_t number, uint16_t address, uint16_t length, uint8_t type){
    reactStr[0][number]=address;
    2bc4:	f6 01       	movw	r30, r12
    2bc6:	84 82       	std	Z+4, r8	; 0x04
    2bc8:	95 82       	std	Z+5, r9	; 0x05
    reactStr[1][number]=length;
    2bca:	f7 01       	movw	r30, r14
    2bcc:	64 82       	std	Z+4, r6	; 0x04
    2bce:	75 82       	std	Z+5, r7	; 0x05
    reactStr[2][number]=type;
    2bd0:	f8 01       	movw	r30, r16
    2bd2:	a4 82       	std	Z+4, r10	; 0x04
    2bd4:	b5 82       	std	Z+5, r11	; 0x05
    2bd6:	53 94       	inc	r5
    2bd8:	f6 e0       	ldi	r31, 0x06	; 6
    2bda:	cf 0e       	add	r12, r31
    2bdc:	d1 1c       	adc	r13, r1
    2bde:	86 e0       	ldi	r24, 0x06	; 6
    2be0:	e8 0e       	add	r14, r24
    2be2:	f1 1c       	adc	r15, r1
    2be4:	0a 5f       	subi	r16, 0xFA	; 250
            }

            //Show used cheat codes
            if (StartsWith(&data[0], "cheat")){
                uint8_t bit;
                for (uint8_t x=0; x<MAX_CHEATS; ++x){
    2be6:	1f 4f       	sbci	r17, 0xFF	; 255
    2be8:	e0 e2       	ldi	r30, 0x20	; 32
    2bea:	5e 12       	cpse	r5, r30
                    //SetResponse(x*4, A_HEXPREFIX, L_HEXPREFIX, TEASER);
                    SetResponse(x*3, A_DIGITS+(bit>>4), 1, TEASER);               
                    SetResponse(x*3+1, A_DIGITS+(bit%16), 1, TEASER);
                    SetResponse(x*3+2, A_COMMA, L_COMMA, TEASER);
                }
                responseList = SetStandardResponse((3*MAX_CHEATS));
    2bec:	c5 cf       	rjmp	.-118    	; 0x2b78 <CheckInput+0x378>
    2bee:	88 e1       	ldi	r24, 0x18	; 24
    2bf0:	97 db       	rcall	.-2258   	; 0x2320 <SetStandardResponse>
    2bf2:	80 93 20 39 	sts	0x3920, r24	; 0x803920 <responseList>
        //Data received, but not any of the commands above
        return 0;
    }

    //Serial input not available yet
    return 1;
    2bf6:	ff 24       	eor	r15, r15
    2bf8:	f3 94       	inc	r15
}
    2bfa:	8f 2d       	mov	r24, r15
    2bfc:	2a 96       	adiw	r28, 0x0a	; 10
    2bfe:	cd bf       	out	0x3d, r28	; 61
    2c00:	de bf       	out	0x3e, r29	; 62
    2c02:	df 91       	pop	r29
    2c04:	cf 91       	pop	r28
    2c06:	1f 91       	pop	r17
    2c08:	0f 91       	pop	r16
    2c0a:	ff 90       	pop	r15
    2c0c:	ef 90       	pop	r14
    2c0e:	df 90       	pop	r13
    2c10:	cf 90       	pop	r12
    2c12:	bf 90       	pop	r11
    2c14:	af 90       	pop	r10
    2c16:	9f 90       	pop	r9
    2c18:	8f 90       	pop	r8
    2c1a:	7f 90       	pop	r7
    2c1c:	6f 90       	pop	r6
    2c1e:	5f 90       	pop	r5
    2c20:	08 95       	ret

00002c22 <ShowInventory>:

uint8_t ShowInventory(uint8_t elements){
    2c22:	9f 92       	push	r9
    2c24:	af 92       	push	r10
    2c26:	bf 92       	push	r11
    2c28:	cf 92       	push	r12
    2c2a:	df 92       	push	r13
    2c2c:	ef 92       	push	r14
    2c2e:	ff 92       	push	r15
    2c30:	0f 93       	push	r16
    2c32:	1f 93       	push	r17
    2c34:	cf 93       	push	r28
    2c36:	df 93       	push	r29
    2c38:	cd b7       	in	r28, 0x3d	; 61
    2c3a:	de b7       	in	r29, 0x3e	; 62
    2c3c:	ab 97       	sbiw	r28, 0x2b	; 43
    2c3e:	cd bf       	out	0x3d, r28	; 61
    2c40:	de bf       	out	0x3e, r29	; 62
    object_model_t actObj1;

    SetResponse(elements++, A_NOWCARRING, L_NOWCARRING, TEASER);
    2c42:	99 24       	eor	r9, r9
    2c44:	93 94       	inc	r9
    2c46:	98 0e       	add	r9, r24
    return 0;
}

//
void SetResponse(uint8_t number, uint16_t address, uint16_t length, uint8_t type){
    reactStr[0][number]=address;
    2c48:	90 e0       	ldi	r25, 0x00	; 0
    2c4a:	fc 01       	movw	r30, r24
    2c4c:	ee 0f       	add	r30, r30
    2c4e:	ff 1f       	adc	r31, r31
    2c50:	ef 5d       	subi	r30, 0xDF	; 223
    2c52:	f6 4c       	sbci	r31, 0xC6	; 198
    2c54:	2c ec       	ldi	r18, 0xCC	; 204
    2c56:	37 e7       	ldi	r19, 0x77	; 119
    2c58:	20 83       	st	Z, r18
    2c5a:	31 83       	std	Z+1, r19	; 0x01
    reactStr[1][number]=length;
    2c5c:	fc 01       	movw	r30, r24
    2c5e:	ee 0f       	add	r30, r30
    2c60:	ff 1f       	adc	r31, r31
    2c62:	ef 59       	subi	r30, 0x9F	; 159
    2c64:	f6 4c       	sbci	r31, 0xC6	; 198
    2c66:	26 e1       	ldi	r18, 0x16	; 22
    2c68:	30 e0       	ldi	r19, 0x00	; 0
    2c6a:	20 83       	st	Z, r18
    2c6c:	31 83       	std	Z+1, r19	; 0x01
    reactStr[2][number]=type;
    2c6e:	88 0f       	add	r24, r24
    2c70:	99 1f       	adc	r25, r25
    2c72:	fc 01       	movw	r30, r24
    2c74:	ef 55       	subi	r30, 0x5F	; 95
    2c76:	f6 4c       	sbci	r31, 0xC6	; 198
    2c78:	81 e0       	ldi	r24, 0x01	; 1
    2c7a:	90 e0       	ldi	r25, 0x00	; 0
    2c7c:	80 83       	st	Z, r24
    2c7e:	91 83       	std	Z+1, r25	; 0x01
    2c80:	04 e4       	ldi	r16, 0x44	; 68
    2c82:	18 e3       	ldi	r17, 0x38	; 56
    return 0;
}

//
void SetResponse(uint8_t number, uint16_t address, uint16_t length, uint8_t type){
    reactStr[0][number]=address;
    2c84:	37 e5       	ldi	r19, 0x57	; 87
    2c86:	e3 2e       	mov	r14, r19
    2c88:	3a e7       	ldi	r19, 0x7A	; 122
    2c8a:	f3 2e       	mov	r15, r19
    reactStr[1][number]=length;
    2c8c:	42 e0       	ldi	r20, 0x02	; 2
    2c8e:	c4 2e       	mov	r12, r20
    2c90:	d1 2c       	mov	r13, r1
    reactStr[2][number]=type;
    2c92:	aa 24       	eor	r10, r10
    2c94:	a3 94       	inc	r10
    2c96:	b1 2c       	mov	r11, r1
    object_model_t actObj1;

    SetResponse(elements++, A_NOWCARRING, L_NOWCARRING, TEASER);

    for (uint8_t x=0; x<2; ++x) {
        if (inventory[x]) {
    2c98:	f8 01       	movw	r30, r16
    2c9a:	81 91       	ld	r24, Z+
    2c9c:	91 91       	ld	r25, Z+
    2c9e:	8f 01       	movw	r16, r30
    2ca0:	00 97       	sbiw	r24, 0x00	; 0
    2ca2:	c9 f1       	breq	.+114    	; 0x2d16 <ShowInventory+0xf4>
            PopulateObject(inventory[x], &actObj1);
    2ca4:	be 01       	movw	r22, r28
    2ca6:	6f 5f       	subi	r22, 0xFF	; 255
    2ca8:	7f 4f       	sbci	r23, 0xFF	; 255
    2caa:	b6 db       	rcall	.-2196   	; 0x2418 <PopulateObject>
            SetResponse(elements++, actObj1.addrStr[NAME], actObj1.lenStr[NAME], GAME);
    2cac:	2b 8d       	ldd	r18, Y+27	; 0x1b
    2cae:	3c 8d       	ldd	r19, Y+28	; 0x1c
    return 0;
}

//
void SetResponse(uint8_t number, uint16_t address, uint16_t length, uint8_t type){
    reactStr[0][number]=address;
    2cb0:	89 2d       	mov	r24, r9
    2cb2:	90 e0       	ldi	r25, 0x00	; 0
    2cb4:	fc 01       	movw	r30, r24
    2cb6:	ee 0f       	add	r30, r30
    2cb8:	ff 1f       	adc	r31, r31
    2cba:	ef 5d       	subi	r30, 0xDF	; 223
    2cbc:	f6 4c       	sbci	r31, 0xC6	; 198
    2cbe:	4d 85       	ldd	r20, Y+13	; 0x0d
    2cc0:	5e 85       	ldd	r21, Y+14	; 0x0e
    2cc2:	40 83       	st	Z, r20
    2cc4:	51 83       	std	Z+1, r21	; 0x01
    reactStr[1][number]=length;
    2cc6:	fc 01       	movw	r30, r24
    2cc8:	ee 0f       	add	r30, r30
    2cca:	ff 1f       	adc	r31, r31
    2ccc:	ef 59       	subi	r30, 0x9F	; 159
    2cce:	f6 4c       	sbci	r31, 0xC6	; 198
    2cd0:	20 83       	st	Z, r18
    2cd2:	31 83       	std	Z+1, r19	; 0x01
    reactStr[2][number]=type;
    2cd4:	88 0f       	add	r24, r24
    2cd6:	99 1f       	adc	r25, r25
    2cd8:	fc 01       	movw	r30, r24
    2cda:	ef 55       	subi	r30, 0x5F	; 95
    2cdc:	f6 4c       	sbci	r31, 0xC6	; 198
    2cde:	10 82       	st	Z, r1
    2ce0:	11 82       	std	Z+1, r1	; 0x01
    return 0;
}

//
void SetResponse(uint8_t number, uint16_t address, uint16_t length, uint8_t type){
    reactStr[0][number]=address;
    2ce2:	81 e0       	ldi	r24, 0x01	; 1
    2ce4:	89 0d       	add	r24, r9
    2ce6:	90 e0       	ldi	r25, 0x00	; 0
    2ce8:	93 94       	inc	r9
    2cea:	93 94       	inc	r9
    2cec:	fc 01       	movw	r30, r24
    2cee:	ee 0f       	add	r30, r30
    2cf0:	ff 1f       	adc	r31, r31
    2cf2:	ef 5d       	subi	r30, 0xDF	; 223
    2cf4:	f6 4c       	sbci	r31, 0xC6	; 198
    2cf6:	e0 82       	st	Z, r14
    2cf8:	f1 82       	std	Z+1, r15	; 0x01
    reactStr[1][number]=length;
    2cfa:	fc 01       	movw	r30, r24
    2cfc:	ee 0f       	add	r30, r30
    2cfe:	ff 1f       	adc	r31, r31
    2d00:	ef 59       	subi	r30, 0x9F	; 159
    2d02:	f6 4c       	sbci	r31, 0xC6	; 198
    2d04:	c0 82       	st	Z, r12
    2d06:	d1 82       	std	Z+1, r13	; 0x01
    reactStr[2][number]=type;
    2d08:	88 0f       	add	r24, r24
    2d0a:	99 1f       	adc	r25, r25
    2d0c:	fc 01       	movw	r30, r24
    2d0e:	ef 55       	subi	r30, 0x5F	; 95
    2d10:	f6 4c       	sbci	r31, 0xC6	; 198
    2d12:	a0 82       	st	Z, r10
    2d14:	b1 82       	std	Z+1, r11	; 0x01
uint8_t ShowInventory(uint8_t elements){
    object_model_t actObj1;

    SetResponse(elements++, A_NOWCARRING, L_NOWCARRING, TEASER);

    for (uint8_t x=0; x<2; ++x) {
    2d16:	f8 e3       	ldi	r31, 0x38	; 56
    2d18:	08 34       	cpi	r16, 0x48	; 72
    2d1a:	1f 07       	cpc	r17, r31
    2d1c:	09 f0       	breq	.+2      	; 0x2d20 <ShowInventory+0xfe>
    2d1e:	bc cf       	rjmp	.-136    	; 0x2c98 <ShowInventory+0x76>
        }
    }
    elements -= 1;
            
    return elements;
}
    2d20:	8f ef       	ldi	r24, 0xFF	; 255
    2d22:	89 0d       	add	r24, r9
    2d24:	ab 96       	adiw	r28, 0x2b	; 43
    2d26:	cd bf       	out	0x3d, r28	; 61
    2d28:	de bf       	out	0x3e, r29	; 62
    2d2a:	df 91       	pop	r29
    2d2c:	cf 91       	pop	r28
    2d2e:	1f 91       	pop	r17
    2d30:	0f 91       	pop	r16
    2d32:	ff 90       	pop	r15
    2d34:	ef 90       	pop	r14
    2d36:	df 90       	pop	r13
    2d38:	cf 90       	pop	r12
    2d3a:	bf 90       	pop	r11
    2d3c:	af 90       	pop	r10
    2d3e:	9f 90       	pop	r9
    2d40:	08 95       	ret

00002d42 <ProcessInput>:

//The game logic!
uint8_t ProcessInput(uint8_t *data){
    2d42:	6f 92       	push	r6
    2d44:	7f 92       	push	r7
    2d46:	8f 92       	push	r8
    2d48:	9f 92       	push	r9
    2d4a:	af 92       	push	r10
    2d4c:	bf 92       	push	r11
    2d4e:	cf 92       	push	r12
    2d50:	df 92       	push	r13
    2d52:	ef 92       	push	r14
    2d54:	ff 92       	push	r15
    2d56:	0f 93       	push	r16
    2d58:	1f 93       	push	r17
    2d5a:	cf 93       	push	r28
    2d5c:	df 93       	push	r29
    2d5e:	cd b7       	in	r28, 0x3d	; 61
    2d60:	de b7       	in	r29, 0x3e	; 62
    2d62:	28 97       	sbiw	r28, 0x08	; 8
    2d64:	cd bf       	out	0x3d, r28	; 61
    2d66:	de bf       	out	0x3e, r29	; 62
    2d68:	3c 01       	movw	r6, r24
    static object_model_t actObj1, actObj2;
    uint8_t elements = 1;

    CleanInput(&data[0]);
    2d6a:	91 dc       	rcall	.-1758   	; 0x268e <CleanInput>
    uint8_t inputLen = CleanInput(&data[0]);
    2d6c:	c3 01       	movw	r24, r6
    2d6e:	8f dc       	rcall	.-1762   	; 0x268e <CleanInput>
    2d70:	f8 2e       	mov	r15, r24
    return 0;
}

//
void SetResponse(uint8_t number, uint16_t address, uint16_t length, uint8_t type){
    reactStr[0][number]=address;
    2d72:	29 e5       	ldi	r18, 0x59	; 89
    2d74:	3a e7       	ldi	r19, 0x7A	; 122
    2d76:	20 93 21 39 	sts	0x3921, r18	; 0x803921 <reactStr>
    2d7a:	30 93 22 39 	sts	0x3922, r19	; 0x803922 <reactStr+0x1>
    reactStr[1][number]=length;
    2d7e:	84 e0       	ldi	r24, 0x04	; 4
    2d80:	90 e0       	ldi	r25, 0x00	; 0
    2d82:	80 93 61 39 	sts	0x3961, r24	; 0x803961 <reactStr+0x40>
    2d86:	90 93 62 39 	sts	0x3962, r25	; 0x803962 <reactStr+0x41>
    reactStr[2][number]=type;
    2d8a:	01 e0       	ldi	r16, 0x01	; 1
    2d8c:	10 e0       	ldi	r17, 0x00	; 0
    2d8e:	00 93 a1 39 	sts	0x39A1, r16	; 0x8039a1 <reactStr+0x80>
    2d92:	10 93 a2 39 	sts	0x39A2, r17	; 0x8039a2 <reactStr+0x81>

    CleanInput(&data[0]);
    uint8_t inputLen = CleanInput(&data[0]);
    SetResponse(0, A_LF, 4, TEASER);

    if (inputLen) {
    2d96:	ff 20       	and	r15, r15
    2d98:	09 f4       	brne	.+2      	; 0x2d9c <ProcessInput+0x5a>
    2d9a:	54 c7       	rjmp	.+3752   	; 0x3c44 <ProcessInput+0xf02>

        //eXit to previous location
        if (data[0] == 'x'){
    2d9c:	d3 01       	movw	r26, r6
    2d9e:	8c 91       	ld	r24, X
    2da0:	88 37       	cpi	r24, 0x78	; 120
    2da2:	09 f0       	breq	.+2      	; 0x2da6 <ProcessInput+0x64>
    2da4:	45 c0       	rjmp	.+138    	; 0x2e30 <ProcessInput+0xee>

            //Standing in the Lobby?
            if ((route[currDepth] == 0)||(currDepth == 0)){
    2da6:	80 91 34 38 	lds	r24, 0x3834	; 0x803834 <currDepth>
    2daa:	e8 2f       	mov	r30, r24
    2dac:	f0 e0       	ldi	r31, 0x00	; 0
    2dae:	ee 0f       	add	r30, r30
    2db0:	ff 1f       	adc	r31, r31
    2db2:	ef 51       	subi	r30, 0x1F	; 31
    2db4:	f6 4c       	sbci	r31, 0xC6	; 198
    2db6:	20 81       	ld	r18, Z
    2db8:	31 81       	ldd	r19, Z+1	; 0x01
    2dba:	23 2b       	or	r18, r19
    2dbc:	11 f0       	breq	.+4      	; 0x2dc2 <ProcessInput+0x80>
    2dbe:	81 11       	cpse	r24, r1
    2dc0:	03 c0       	rjmp	.+6      	; 0x2dc8 <ProcessInput+0x86>
    return 0;
}

//
void SetResponse(uint8_t number, uint16_t address, uint16_t length, uint8_t type){
    reactStr[0][number]=address;
    2dc2:	84 e4       	ldi	r24, 0x44	; 68
    2dc4:	96 e7       	ldi	r25, 0x76	; 118
    2dc6:	13 c5       	rjmp	.+2598   	; 0x37ee <ProcessInput+0xaac>
            //Standing in the Lobby?
            if ((route[currDepth] == 0)||(currDepth == 0)){
                SetResponse(elements++, A_NOTPOSSIBLE, L_NOTPOSSIBLE, TEASER);
            
            //Is there a way to go back?
            } else if (CheckState(currObj.byteField[OPEN_ACL])){
    2dc8:	80 91 27 3a 	lds	r24, 0x3A27	; 0x803a27 <currObj+0x6>
    2dcc:	0e 94 15 0a 	call	0x142a	; 0x142a <CheckState>
    2dd0:	88 23       	and	r24, r24
    2dd2:	b9 f0       	breq	.+46     	; 0x2e02 <ProcessInput+0xc0>
                --currDepth;
    2dd4:	e0 91 34 38 	lds	r30, 0x3834	; 0x803834 <currDepth>
    2dd8:	e1 50       	subi	r30, 0x01	; 1
    2dda:	e0 93 34 38 	sts	0x3834, r30	; 0x803834 <currDepth>
                PopulateObject(route[currDepth], &currObj);
    2dde:	f0 e0       	ldi	r31, 0x00	; 0
    2de0:	ee 0f       	add	r30, r30
    2de2:	ff 1f       	adc	r31, r31
    2de4:	ef 51       	subi	r30, 0x1F	; 31
    2de6:	f6 4c       	sbci	r31, 0xC6	; 198
    2de8:	61 e2       	ldi	r22, 0x21	; 33
    2dea:	7a e3       	ldi	r23, 0x3A	; 58
    2dec:	80 81       	ld	r24, Z
    2dee:	91 81       	ldd	r25, Z+1	; 0x01
    2df0:	13 db       	rcall	.-2522   	; 0x2418 <PopulateObject>
                effect = currObj.byteField[EFFECTS];
    2df2:	80 91 25 3a 	lds	r24, 0x3A25	; 0x803a25 <currObj+0x4>
    2df6:	90 e0       	ldi	r25, 0x00	; 0
    2df8:	80 93 40 38 	sts	0x3840, r24	; 0x803840 <effect>
    2dfc:	90 93 41 38 	sts	0x3841, r25	; 0x803841 <effect+0x1>
    2e00:	2a c2       	rjmp	.+1108   	; 0x3256 <ProcessInput+0x514>
            
            //No way out, print denied message of location
            } else {
                SetResponse(elements++, currObj.addrStr[OPEN_ACL_MSG], currObj.lenStr[OPEN_ACL_MSG], GAME);
    2e02:	80 91 43 3a 	lds	r24, 0x3A43	; 0x803a43 <currObj+0x22>
    2e06:	90 91 44 3a 	lds	r25, 0x3A44	; 0x803a44 <currObj+0x23>
    return 0;
}

//
void SetResponse(uint8_t number, uint16_t address, uint16_t length, uint8_t type){
    reactStr[0][number]=address;
    2e0a:	20 91 35 3a 	lds	r18, 0x3A35	; 0x803a35 <currObj+0x14>
    2e0e:	30 91 36 3a 	lds	r19, 0x3A36	; 0x803a36 <currObj+0x15>
    2e12:	20 93 23 39 	sts	0x3923, r18	; 0x803923 <reactStr+0x2>
    2e16:	30 93 24 39 	sts	0x3924, r19	; 0x803924 <reactStr+0x3>
    reactStr[1][number]=length;
    2e1a:	80 93 63 39 	sts	0x3963, r24	; 0x803963 <reactStr+0x42>
    2e1e:	90 93 64 39 	sts	0x3964, r25	; 0x803964 <reactStr+0x43>
    reactStr[2][number]=type;
    2e22:	10 92 a3 39 	sts	0x39A3, r1	; 0x8039a3 <reactStr+0x82>
    2e26:	10 92 a4 39 	sts	0x39A4, r1	; 0x8039a4 <reactStr+0x83>
                effect = currObj.byteField[EFFECTS];
            
            //No way out, print denied message of location
            } else {
                SetResponse(elements++, currObj.addrStr[OPEN_ACL_MSG], currObj.lenStr[OPEN_ACL_MSG], GAME);
                effect = currObj.effect[0];               
    2e2a:	80 91 49 3a 	lds	r24, 0x3A49	; 0x803a49 <currObj+0x28>
    2e2e:	a9 c5       	rjmp	.+2898   	; 0x3982 <ProcessInput+0xc40>
            }   
        
        //Enter locations or Open objects    
        } else if ((data[0] == 'e')||(data[0] == 'o')) {
    2e30:	85 36       	cpi	r24, 0x65	; 101
    2e32:	19 f0       	breq	.+6      	; 0x2e3a <ProcessInput+0xf8>
    2e34:	8f 36       	cpi	r24, 0x6F	; 111
    2e36:	09 f0       	breq	.+2      	; 0x2e3a <ProcessInput+0xf8>
    2e38:	de c0       	rjmp	.+444    	; 0x2ff6 <ProcessInput+0x2b4>
                
            //Not possible, too many/little characters
            if (inputLen != 2){
    2e3a:	b2 e0       	ldi	r27, 0x02	; 2
    2e3c:	fb 12       	cpse	r15, r27
    2e3e:	c1 cf       	rjmp	.-126    	; 0x2dc2 <ProcessInput+0x80>
                SetResponse(elements++, A_NOTPOSSIBLE, L_NOTPOSSIBLE, TEASER);
            } else {
                uint8_t canDo = 0;
                route[currDepth+1] = FindChild(route[currDepth], data[1], 0);
    2e40:	00 91 34 38 	lds	r16, 0x3834	; 0x803834 <currDepth>
    2e44:	10 e0       	ldi	r17, 0x00	; 0
    2e46:	f8 01       	movw	r30, r16
    2e48:	ee 0f       	add	r30, r30
    2e4a:	ff 1f       	adc	r31, r31
    2e4c:	ef 51       	subi	r30, 0x1F	; 31
    2e4e:	f6 4c       	sbci	r31, 0xC6	; 198
    2e50:	40 e0       	ldi	r20, 0x00	; 0
    2e52:	50 e0       	ldi	r21, 0x00	; 0
    2e54:	d3 01       	movw	r26, r6
    2e56:	11 96       	adiw	r26, 0x01	; 1
    2e58:	6c 91       	ld	r22, X
    2e5a:	80 81       	ld	r24, Z
    2e5c:	91 81       	ldd	r25, Z+1	; 0x01
    2e5e:	ab db       	rcall	.-2218   	; 0x25b6 <FindChild>
    2e60:	00 0f       	add	r16, r16
    2e62:	11 1f       	adc	r17, r17
    2e64:	f8 01       	movw	r30, r16
    2e66:	ed 51       	subi	r30, 0x1D	; 29
    2e68:	f6 4c       	sbci	r31, 0xC6	; 198
    2e6a:	80 83       	st	Z, r24
    2e6c:	91 83       	std	Z+1, r25	; 0x01
                    
                //Child found?
                if (route[currDepth+1]) {
    2e6e:	90 91 34 38 	lds	r25, 0x3834	; 0x803834 <currDepth>
    2e72:	29 2f       	mov	r18, r25
    2e74:	30 e0       	ldi	r19, 0x00	; 0
    2e76:	f9 01       	movw	r30, r18
    2e78:	ee 0f       	add	r30, r30
    2e7a:	ff 1f       	adc	r31, r31
    2e7c:	ed 51       	subi	r30, 0x1D	; 29
    2e7e:	f6 4c       	sbci	r31, 0xC6	; 198
    2e80:	40 81       	ld	r20, Z
    2e82:	51 81       	ldd	r21, Z+1	; 0x01
    2e84:	41 15       	cp	r20, r1
    2e86:	51 05       	cpc	r21, r1
    2e88:	21 f0       	breq	.+8      	; 0x2e92 <ProcessInput+0x150>
                    PopulateObject(route[currDepth+1], &actObj1);
    2e8a:	60 ee       	ldi	r22, 0xE0	; 224
    2e8c:	78 e3       	ldi	r23, 0x38	; 56
    2e8e:	ca 01       	movw	r24, r20
    2e90:	1c c0       	rjmp	.+56     	; 0x2eca <ProcessInput+0x188>
                    canDo = 1;
                //No child, maybe a step back, letter ok?
                } else if (currDepth) {
    2e92:	99 23       	and	r25, r25
    2e94:	09 f4       	brne	.+2      	; 0x2e98 <ProcessInput+0x156>
    2e96:	dc c6       	rjmp	.+3512   	; 0x3c50 <ProcessInput+0xf0e>
                    if (CheckLetter(route[currDepth-1], data[1])) {
    2e98:	22 0f       	add	r18, r18
    2e9a:	33 1f       	adc	r19, r19
    2e9c:	f9 01       	movw	r30, r18
    2e9e:	e1 52       	subi	r30, 0x21	; 33
    2ea0:	f6 4c       	sbci	r31, 0xC6	; 198
    2ea2:	d3 01       	movw	r26, r6
    2ea4:	11 96       	adiw	r26, 0x01	; 1
    2ea6:	6c 91       	ld	r22, X
    2ea8:	80 81       	ld	r24, Z
    2eaa:	91 81       	ldd	r25, Z+1	; 0x01
    2eac:	2e db       	rcall	.-2468   	; 0x250a <CheckLetter>
    2eae:	88 23       	and	r24, r24
    2eb0:	09 f4       	brne	.+2      	; 0x2eb4 <ProcessInput+0x172>
    2eb2:	ce c6       	rjmp	.+3484   	; 0x3c50 <ProcessInput+0xf0e>
                        PopulateObject(route[currDepth-1], &actObj1);
    2eb4:	e0 91 34 38 	lds	r30, 0x3834	; 0x803834 <currDepth>
    2eb8:	f0 e0       	ldi	r31, 0x00	; 0
    2eba:	ee 0f       	add	r30, r30
    2ebc:	ff 1f       	adc	r31, r31
    2ebe:	e1 52       	subi	r30, 0x21	; 33
    2ec0:	f6 4c       	sbci	r31, 0xC6	; 198
    2ec2:	60 ee       	ldi	r22, 0xE0	; 224
    2ec4:	78 e3       	ldi	r23, 0x38	; 56
    2ec6:	80 81       	ld	r24, Z
    2ec8:	91 81       	ldd	r25, Z+1	; 0x01
    2eca:	a6 da       	rcall	.-2740   	; 0x2418 <PopulateObject>
                    }
                }

                //The candidate is found! Let's check if the action is legit
                if (canDo) {
                    if ((data[0] == 'e') && ((actObj1.byteField[ACTION_MASK]&ENTER)==0)) {
    2ecc:	d3 01       	movw	r26, r6
    2ece:	8c 91       	ld	r24, X
    2ed0:	85 36       	cpi	r24, 0x65	; 101
    2ed2:	c1 f4       	brne	.+48     	; 0x2f04 <ProcessInput+0x1c2>
    2ed4:	80 91 e8 38 	lds	r24, 0x38E8	; 0x8038e8 <actObj1.3989+0x8>
    2ed8:	80 fd       	sbrc	r24, 0
    2eda:	1d c0       	rjmp	.+58     	; 0x2f16 <ProcessInput+0x1d4>
    return 0;
}

//
void SetResponse(uint8_t number, uint16_t address, uint16_t length, uint8_t type){
    reactStr[0][number]=address;
    2edc:	8d e9       	ldi	r24, 0x9D	; 157
    2ede:	99 e7       	ldi	r25, 0x79	; 121
    2ee0:	80 93 23 39 	sts	0x3923, r24	; 0x803923 <reactStr+0x2>
    2ee4:	90 93 24 39 	sts	0x3924, r25	; 0x803924 <reactStr+0x3>
    reactStr[1][number]=length;
    2ee8:	8e e1       	ldi	r24, 0x1E	; 30
    2eea:	90 e0       	ldi	r25, 0x00	; 0
    2eec:	80 93 63 39 	sts	0x3963, r24	; 0x803963 <reactStr+0x42>
    2ef0:	90 93 64 39 	sts	0x3964, r25	; 0x803964 <reactStr+0x43>
    reactStr[2][number]=type;
    2ef4:	81 e0       	ldi	r24, 0x01	; 1
    2ef6:	90 e0       	ldi	r25, 0x00	; 0
    2ef8:	80 93 a3 39 	sts	0x39A3, r24	; 0x8039a3 <reactStr+0x82>
    2efc:	90 93 a4 39 	sts	0x39A4, r25	; 0x8039a4 <reactStr+0x83>
                }

                //The candidate is found! Let's check if the action is legit
                if (canDo) {
                    if ((data[0] == 'e') && ((actObj1.byteField[ACTION_MASK]&ENTER)==0)) {
                        SetResponse(elements++, A_CANTENTER, L_CANTENTER, TEASER);
    2f00:	12 e0       	ldi	r17, 0x02	; 2
    2f02:	97 c6       	rjmp	.+3374   	; 0x3c32 <ProcessInput+0xef0>
                    } else if ((data[0] == 'o') && ((actObj1.byteField[ACTION_MASK]&OPEN)==0)) {
    2f04:	8f 36       	cpi	r24, 0x6F	; 111
    2f06:	39 f4       	brne	.+14     	; 0x2f16 <ProcessInput+0x1d4>
    2f08:	80 91 e8 38 	lds	r24, 0x38E8	; 0x8038e8 <actObj1.3989+0x8>
    2f0c:	81 fd       	sbrc	r24, 1
    2f0e:	03 c0       	rjmp	.+6      	; 0x2f16 <ProcessInput+0x1d4>
    return 0;
}

//
void SetResponse(uint8_t number, uint16_t address, uint16_t length, uint8_t type){
    reactStr[0][number]=address;
    2f10:	82 e8       	ldi	r24, 0x82	; 130
    2f12:	99 e7       	ldi	r25, 0x79	; 121
    2f14:	6c c4       	rjmp	.+2264   	; 0x37ee <ProcessInput+0xaac>
                        SetResponse(elements++, A_CANTENTER, L_CANTENTER, TEASER);
                    } else if ((data[0] == 'o') && ((actObj1.byteField[ACTION_MASK]&OPEN)==0)) {
                        SetResponse(elements++, A_CANTOPEN, L_CANTOPEN, TEASER);
                    
                    //Action legit, permission granted?
                    } else if (CheckState(actObj1.byteField[OPEN_ACL])) {
    2f16:	80 91 e6 38 	lds	r24, 0x38E6	; 0x8038e6 <actObj1.3989+0x6>
    2f1a:	0e 94 15 0a 	call	0x142a	; 0x142a <CheckState>
    2f1e:	e0 91 34 38 	lds	r30, 0x3834	; 0x803834 <currDepth>
    2f22:	88 23       	and	r24, r24
    2f24:	09 f4       	brne	.+2      	; 0x2f28 <ProcessInput+0x1e6>
    2f26:	49 c0       	rjmp	.+146    	; 0x2fba <ProcessInput+0x278>
                            
                        //Yes! Check if we must move forward or backwards.
                        if (route[currDepth+1]) ++currDepth; else --currDepth;
    2f28:	ae 2f       	mov	r26, r30
    2f2a:	b0 e0       	ldi	r27, 0x00	; 0
    2f2c:	aa 0f       	add	r26, r26
    2f2e:	bb 1f       	adc	r27, r27
    2f30:	ad 51       	subi	r26, 0x1D	; 29
    2f32:	b6 4c       	sbci	r27, 0xC6	; 198
    2f34:	8d 91       	ld	r24, X+
    2f36:	9c 91       	ld	r25, X
    2f38:	89 2b       	or	r24, r25
    2f3a:	11 f0       	breq	.+4      	; 0x2f40 <ProcessInput+0x1fe>
    2f3c:	ef 5f       	subi	r30, 0xFF	; 255
    2f3e:	01 c0       	rjmp	.+2      	; 0x2f42 <ProcessInput+0x200>
    2f40:	e1 50       	subi	r30, 0x01	; 1
    2f42:	e0 93 34 38 	sts	0x3834, r30	; 0x803834 <currDepth>
                        PopulateObject(route[currDepth], &currObj);
    2f46:	e0 91 34 38 	lds	r30, 0x3834	; 0x803834 <currDepth>
    2f4a:	f0 e0       	ldi	r31, 0x00	; 0
    2f4c:	ee 0f       	add	r30, r30
    2f4e:	ff 1f       	adc	r31, r31
    2f50:	ef 51       	subi	r30, 0x1F	; 31
    2f52:	f6 4c       	sbci	r31, 0xC6	; 198
    2f54:	61 e2       	ldi	r22, 0x21	; 33
    2f56:	7a e3       	ldi	r23, 0x3A	; 58
    2f58:	80 81       	ld	r24, Z
    2f5a:	91 81       	ldd	r25, Z+1	; 0x01
    2f5c:	5d da       	rcall	.-2886   	; 0x2418 <PopulateObject>
                        SetResponse(elements++, currObj.addrStr[DESC], currObj.lenStr[DESC],GAME);
    2f5e:	80 91 3d 3a 	lds	r24, 0x3A3D	; 0x803a3d <currObj+0x1c>
    2f62:	90 91 3e 3a 	lds	r25, 0x3A3E	; 0x803a3e <currObj+0x1d>
    return 0;
}

//
void SetResponse(uint8_t number, uint16_t address, uint16_t length, uint8_t type){
    reactStr[0][number]=address;
    2f66:	20 91 2f 3a 	lds	r18, 0x3A2F	; 0x803a2f <currObj+0xe>
    2f6a:	30 91 30 3a 	lds	r19, 0x3A30	; 0x803a30 <currObj+0xf>
    2f6e:	20 93 23 39 	sts	0x3923, r18	; 0x803923 <reactStr+0x2>
    2f72:	30 93 24 39 	sts	0x3924, r19	; 0x803924 <reactStr+0x3>
    reactStr[1][number]=length;
    2f76:	80 93 63 39 	sts	0x3963, r24	; 0x803963 <reactStr+0x42>
    2f7a:	90 93 64 39 	sts	0x3964, r25	; 0x803964 <reactStr+0x43>
    reactStr[2][number]=type;
    2f7e:	10 92 a3 39 	sts	0x39A3, r1	; 0x8039a3 <reactStr+0x82>
    2f82:	10 92 a4 39 	sts	0x39A4, r1	; 0x8039a4 <reactStr+0x83>
    return 0;
}

//
void SetResponse(uint8_t number, uint16_t address, uint16_t length, uint8_t type){
    reactStr[0][number]=address;
    2f86:	89 e5       	ldi	r24, 0x59	; 89
    2f88:	9a e7       	ldi	r25, 0x7A	; 122
    2f8a:	80 93 25 39 	sts	0x3925, r24	; 0x803925 <reactStr+0x4>
    2f8e:	90 93 26 39 	sts	0x3926, r25	; 0x803926 <reactStr+0x5>
    reactStr[1][number]=length;
    2f92:	82 e0       	ldi	r24, 0x02	; 2
    2f94:	90 e0       	ldi	r25, 0x00	; 0
    2f96:	80 93 65 39 	sts	0x3965, r24	; 0x803965 <reactStr+0x44>
    2f9a:	90 93 66 39 	sts	0x3966, r25	; 0x803966 <reactStr+0x45>
    reactStr[2][number]=type;
    2f9e:	81 e0       	ldi	r24, 0x01	; 1
    2fa0:	90 e0       	ldi	r25, 0x00	; 0
    2fa2:	80 93 a5 39 	sts	0x39A5, r24	; 0x8039a5 <reactStr+0x84>
    2fa6:	90 93 a6 39 	sts	0x39A6, r25	; 0x8039a6 <reactStr+0x85>
                        //Yes! Check if we must move forward or backwards.
                        if (route[currDepth+1]) ++currDepth; else --currDepth;
                        PopulateObject(route[currDepth], &currObj);
                        SetResponse(elements++, currObj.addrStr[DESC], currObj.lenStr[DESC],GAME);
                        SetResponse(elements++, A_LF, 2, TEASER);
                        effect = currObj.byteField[EFFECTS];
    2faa:	80 91 25 3a 	lds	r24, 0x3A25	; 0x803a25 <currObj+0x4>
    2fae:	90 e0       	ldi	r25, 0x00	; 0
    2fb0:	80 93 40 38 	sts	0x3840, r24	; 0x803840 <effect>
    2fb4:	90 93 41 38 	sts	0x3841, r25	; 0x803841 <effect+0x1>
    2fb8:	07 c4       	rjmp	.+2062   	; 0x37c8 <ProcessInput+0xa86>
                                                  
                    //Not granted!
                    } else {
                        route[currDepth+1] = 0;
    2fba:	f0 e0       	ldi	r31, 0x00	; 0
    2fbc:	ee 0f       	add	r30, r30
    2fbe:	ff 1f       	adc	r31, r31
    2fc0:	ed 51       	subi	r30, 0x1D	; 29
    2fc2:	f6 4c       	sbci	r31, 0xC6	; 198
    2fc4:	10 82       	st	Z, r1
    2fc6:	11 82       	std	Z+1, r1	; 0x01
                        SetResponse(elements++, actObj1.addrStr[OPEN_ACL_MSG], actObj1.lenStr[OPEN_ACL_MSG], GAME);
    2fc8:	80 91 02 39 	lds	r24, 0x3902	; 0x803902 <actObj1.3989+0x22>
    2fcc:	90 91 03 39 	lds	r25, 0x3903	; 0x803903 <actObj1.3989+0x23>
    return 0;
}

//
void SetResponse(uint8_t number, uint16_t address, uint16_t length, uint8_t type){
    reactStr[0][number]=address;
    2fd0:	20 91 f4 38 	lds	r18, 0x38F4	; 0x8038f4 <actObj1.3989+0x14>
    2fd4:	30 91 f5 38 	lds	r19, 0x38F5	; 0x8038f5 <actObj1.3989+0x15>
    2fd8:	20 93 23 39 	sts	0x3923, r18	; 0x803923 <reactStr+0x2>
    2fdc:	30 93 24 39 	sts	0x3924, r19	; 0x803924 <reactStr+0x3>
    reactStr[1][number]=length;
    2fe0:	80 93 63 39 	sts	0x3963, r24	; 0x803963 <reactStr+0x42>
    2fe4:	90 93 64 39 	sts	0x3964, r25	; 0x803964 <reactStr+0x43>
    reactStr[2][number]=type;
    2fe8:	10 92 a3 39 	sts	0x39A3, r1	; 0x8039a3 <reactStr+0x82>
    2fec:	10 92 a4 39 	sts	0x39A4, r1	; 0x8039a4 <reactStr+0x83>
                                                  
                    //Not granted!
                    } else {
                        route[currDepth+1] = 0;
                        SetResponse(elements++, actObj1.addrStr[OPEN_ACL_MSG], actObj1.lenStr[OPEN_ACL_MSG], GAME);
                        effect = actObj1.effect[0];              
    2ff0:	80 91 08 39 	lds	r24, 0x3908	; 0x803908 <actObj1.3989+0x28>
    2ff4:	c6 c4       	rjmp	.+2444   	; 0x3982 <ProcessInput+0xc40>
                    SetResponse(elements++, A_DONTSEE, L_DONTSEE, TEASER);                
                }
            }

        //Look around or at objects
        } else if (data[0] == 'l') {
    2ff6:	8c 36       	cpi	r24, 0x6C	; 108
    2ff8:	09 f0       	breq	.+2      	; 0x2ffc <ProcessInput+0x2ba>
    2ffa:	59 c1       	rjmp	.+690    	; 0x32ae <ProcessInput+0x56c>
    2ffc:	e0 91 34 38 	lds	r30, 0x3834	; 0x803834 <currDepth>
            if (inputLen == 1) {
    3000:	b1 e0       	ldi	r27, 0x01	; 1
    3002:	fb 12       	cpse	r15, r27
    3004:	f1 c0       	rjmp	.+482    	; 0x31e8 <ProcessInput+0x4a6>

                //Show info about this area first
                SetResponse(elements++, currObj.addrStr[DESC], currObj.lenStr[DESC],GAME);
    3006:	80 91 3d 3a 	lds	r24, 0x3A3D	; 0x803a3d <currObj+0x1c>
    300a:	90 91 3e 3a 	lds	r25, 0x3A3E	; 0x803a3e <currObj+0x1d>
    return 0;
}

//
void SetResponse(uint8_t number, uint16_t address, uint16_t length, uint8_t type){
    reactStr[0][number]=address;
    300e:	40 91 2f 3a 	lds	r20, 0x3A2F	; 0x803a2f <currObj+0xe>
    3012:	50 91 30 3a 	lds	r21, 0x3A30	; 0x803a30 <currObj+0xf>
    3016:	40 93 23 39 	sts	0x3923, r20	; 0x803923 <reactStr+0x2>
    301a:	50 93 24 39 	sts	0x3924, r21	; 0x803924 <reactStr+0x3>
    reactStr[1][number]=length;
    301e:	80 93 63 39 	sts	0x3963, r24	; 0x803963 <reactStr+0x42>
    3022:	90 93 64 39 	sts	0x3964, r25	; 0x803964 <reactStr+0x43>
    reactStr[2][number]=type;
    3026:	10 92 a3 39 	sts	0x39A3, r1	; 0x8039a3 <reactStr+0x82>
    302a:	10 92 a4 39 	sts	0x39A4, r1	; 0x8039a4 <reactStr+0x83>
    return 0;
}

//
void SetResponse(uint8_t number, uint16_t address, uint16_t length, uint8_t type){
    reactStr[0][number]=address;
    302e:	20 93 25 39 	sts	0x3925, r18	; 0x803925 <reactStr+0x4>
    3032:	30 93 26 39 	sts	0x3926, r19	; 0x803926 <reactStr+0x5>
    reactStr[1][number]=length;
    3036:	82 e0       	ldi	r24, 0x02	; 2
    3038:	90 e0       	ldi	r25, 0x00	; 0
    303a:	80 93 65 39 	sts	0x3965, r24	; 0x803965 <reactStr+0x44>
    303e:	90 93 66 39 	sts	0x3966, r25	; 0x803966 <reactStr+0x45>
    reactStr[2][number]=type;
    3042:	00 93 a5 39 	sts	0x39A5, r16	; 0x8039a5 <reactStr+0x84>
    3046:	10 93 a6 39 	sts	0x39A6, r17	; 0x8039a6 <reactStr+0x85>
    return 0;
}

//
void SetResponse(uint8_t number, uint16_t address, uint16_t length, uint8_t type){
    reactStr[0][number]=address;
    304a:	8b ee       	ldi	r24, 0xEB	; 235
    304c:	99 e7       	ldi	r25, 0x79	; 121
    304e:	80 93 27 39 	sts	0x3927, r24	; 0x803927 <reactStr+0x6>
    3052:	90 93 28 39 	sts	0x3928, r25	; 0x803928 <reactStr+0x7>
    reactStr[1][number]=length;
    3056:	85 e1       	ldi	r24, 0x15	; 21
    3058:	90 e0       	ldi	r25, 0x00	; 0
    305a:	80 93 67 39 	sts	0x3967, r24	; 0x803967 <reactStr+0x46>
    305e:	90 93 68 39 	sts	0x3968, r25	; 0x803968 <reactStr+0x47>
    reactStr[2][number]=type;
    3062:	00 93 a7 39 	sts	0x39A7, r16	; 0x8039a7 <reactStr+0x86>
    3066:	10 93 a8 39 	sts	0x39A8, r17	; 0x8039a8 <reactStr+0x87>
                SetResponse(elements++, currObj.addrStr[DESC], currObj.lenStr[DESC],GAME);
                SetResponse(elements++, A_LF, 2, TEASER);
                SetResponse(elements++, A_LOOK, L_LOOK, TEASER);

                //Check the visible children first
                route[currDepth+1] = 0;
    306a:	f0 e0       	ldi	r31, 0x00	; 0
    306c:	ee 0f       	add	r30, r30
    306e:	ff 1f       	adc	r31, r31
    3070:	ed 51       	subi	r30, 0x1D	; 29
    3072:	f6 4c       	sbci	r31, 0xC6	; 198
    3074:	10 82       	st	Z, r1
    3076:	11 82       	std	Z+1, r1	; 0x01
            if (inputLen == 1) {

                //Show info about this area first
                SetResponse(elements++, currObj.addrStr[DESC], currObj.lenStr[DESC],GAME);
                SetResponse(elements++, A_LF, 2, TEASER);
                SetResponse(elements++, A_LOOK, L_LOOK, TEASER);
    3078:	b4 e0       	ldi	r27, 0x04	; 4
    307a:	9b 2e       	mov	r9, r27
    return 0;
}

//
void SetResponse(uint8_t number, uint16_t address, uint16_t length, uint8_t type){
    reactStr[0][number]=address;
    307c:	17 e5       	ldi	r17, 0x57	; 87
    307e:	e1 2e       	mov	r14, r17
    3080:	1a e7       	ldi	r17, 0x7A	; 122
    3082:	f1 2e       	mov	r15, r17
    reactStr[1][number]=length;
    3084:	02 e0       	ldi	r16, 0x02	; 2
    3086:	c0 2e       	mov	r12, r16
    3088:	d1 2c       	mov	r13, r1
    reactStr[2][number]=type;
    308a:	aa 24       	eor	r10, r10
    308c:	a3 94       	inc	r10
    308e:	b1 2c       	mov	r11, r1
                SetResponse(elements++, A_LOOK, L_LOOK, TEASER);

                //Check the visible children first
                route[currDepth+1] = 0;
                do{
                    route[currDepth+1] = FindChild(route[currDepth], 0, route[currDepth+1]);
    3090:	80 91 34 38 	lds	r24, 0x3834	; 0x803834 <currDepth>
    3094:	90 e0       	ldi	r25, 0x00	; 0
    3096:	8c 01       	movw	r16, r24
    3098:	00 0f       	add	r16, r16
    309a:	11 1f       	adc	r17, r17
    309c:	0d 51       	subi	r16, 0x1D	; 29
    309e:	16 4c       	sbci	r17, 0xC6	; 198
    30a0:	f8 01       	movw	r30, r16
    30a2:	40 81       	ld	r20, Z
    30a4:	51 81       	ldd	r21, Z+1	; 0x01
    30a6:	88 0f       	add	r24, r24
    30a8:	99 1f       	adc	r25, r25
    30aa:	fc 01       	movw	r30, r24
    30ac:	ef 51       	subi	r30, 0x1F	; 31
    30ae:	f6 4c       	sbci	r31, 0xC6	; 198
    30b0:	60 e0       	ldi	r22, 0x00	; 0
    30b2:	80 81       	ld	r24, Z
    30b4:	91 81       	ldd	r25, Z+1	; 0x01
    30b6:	7f da       	rcall	.-2818   	; 0x25b6 <FindChild>
    30b8:	d8 01       	movw	r26, r16
    30ba:	8d 93       	st	X+, r24
    30bc:	9c 93       	st	X, r25
                    if (route[currDepth+1]) {
    30be:	e0 91 34 38 	lds	r30, 0x3834	; 0x803834 <currDepth>
    30c2:	f0 e0       	ldi	r31, 0x00	; 0
    30c4:	ee 0f       	add	r30, r30
    30c6:	ff 1f       	adc	r31, r31
    30c8:	ed 51       	subi	r30, 0x1D	; 29
    30ca:	f6 4c       	sbci	r31, 0xC6	; 198
    30cc:	80 81       	ld	r24, Z
    30ce:	91 81       	ldd	r25, Z+1	; 0x01
    30d0:	00 97       	sbiw	r24, 0x00	; 0
    30d2:	09 f4       	brne	.+2      	; 0x30d6 <ProcessInput+0x394>
    30d4:	4a c0       	rjmp	.+148    	; 0x316a <ProcessInput+0x428>
                        if ((route[currDepth+1] != inventory[0])&&(route[currDepth+1] != inventory[1])) {
    30d6:	20 91 44 38 	lds	r18, 0x3844	; 0x803844 <inventory>
    30da:	30 91 45 38 	lds	r19, 0x3845	; 0x803845 <inventory+0x1>
    30de:	82 17       	cp	r24, r18
    30e0:	93 07       	cpc	r25, r19
    30e2:	09 f4       	brne	.+2      	; 0x30e6 <ProcessInput+0x3a4>
    30e4:	42 c0       	rjmp	.+132    	; 0x316a <ProcessInput+0x428>
    30e6:	20 91 46 38 	lds	r18, 0x3846	; 0x803846 <inventory+0x2>
    30ea:	30 91 47 38 	lds	r19, 0x3847	; 0x803847 <inventory+0x3>
    30ee:	82 17       	cp	r24, r18
    30f0:	93 07       	cpc	r25, r19
                            PopulateObject(route[currDepth+1], &actObj1);
    30f2:	d9 f1       	breq	.+118    	; 0x316a <ProcessInput+0x428>
    30f4:	60 ee       	ldi	r22, 0xE0	; 224
    30f6:	78 e3       	ldi	r23, 0x38	; 56
    30f8:	8f d9       	rcall	.-3298   	; 0x2418 <PopulateObject>
                            SetResponse(elements++, actObj1.addrStr[NAME], actObj1.lenStr[NAME],GAME);
    30fa:	80 91 fa 38 	lds	r24, 0x38FA	; 0x8038fa <actObj1.3989+0x1a>
    30fe:	90 91 fb 38 	lds	r25, 0x38FB	; 0x8038fb <actObj1.3989+0x1b>
    return 0;
}

//
void SetResponse(uint8_t number, uint16_t address, uint16_t length, uint8_t type){
    reactStr[0][number]=address;
    3102:	e9 2d       	mov	r30, r9
    3104:	f0 e0       	ldi	r31, 0x00	; 0
    3106:	df 01       	movw	r26, r30
    3108:	aa 0f       	add	r26, r26
    310a:	bb 1f       	adc	r27, r27
    310c:	af 5d       	subi	r26, 0xDF	; 223
    310e:	b6 4c       	sbci	r27, 0xC6	; 198
    3110:	20 91 ec 38 	lds	r18, 0x38EC	; 0x8038ec <actObj1.3989+0xc>
    3114:	30 91 ed 38 	lds	r19, 0x38ED	; 0x8038ed <actObj1.3989+0xd>
    3118:	2d 93       	st	X+, r18
    311a:	3c 93       	st	X, r19
    reactStr[1][number]=length;
    311c:	df 01       	movw	r26, r30
    311e:	aa 0f       	add	r26, r26
    3120:	bb 1f       	adc	r27, r27
    3122:	af 59       	subi	r26, 0x9F	; 159
    3124:	b6 4c       	sbci	r27, 0xC6	; 198
    3126:	8d 93       	st	X+, r24
    3128:	9c 93       	st	X, r25
    reactStr[2][number]=type;
    312a:	ee 0f       	add	r30, r30
    312c:	ff 1f       	adc	r31, r31
    312e:	ef 55       	subi	r30, 0x5F	; 95
    3130:	f6 4c       	sbci	r31, 0xC6	; 198
    3132:	10 82       	st	Z, r1
    3134:	11 82       	std	Z+1, r1	; 0x01
    return 0;
}

//
void SetResponse(uint8_t number, uint16_t address, uint16_t length, uint8_t type){
    reactStr[0][number]=address;
    3136:	81 e0       	ldi	r24, 0x01	; 1
    3138:	89 0d       	add	r24, r9
    313a:	90 e0       	ldi	r25, 0x00	; 0
    313c:	93 94       	inc	r9
    313e:	93 94       	inc	r9
    3140:	fc 01       	movw	r30, r24
    3142:	ee 0f       	add	r30, r30
    3144:	ff 1f       	adc	r31, r31
    3146:	ef 5d       	subi	r30, 0xDF	; 223
    3148:	f6 4c       	sbci	r31, 0xC6	; 198
    314a:	e0 82       	st	Z, r14
    314c:	f1 82       	std	Z+1, r15	; 0x01
    reactStr[1][number]=length;
    314e:	fc 01       	movw	r30, r24
    3150:	ee 0f       	add	r30, r30
    3152:	ff 1f       	adc	r31, r31
    3154:	ef 59       	subi	r30, 0x9F	; 159
    3156:	f6 4c       	sbci	r31, 0xC6	; 198
    3158:	c0 82       	st	Z, r12
    315a:	d1 82       	std	Z+1, r13	; 0x01
    reactStr[2][number]=type;
    315c:	88 0f       	add	r24, r24
    315e:	99 1f       	adc	r25, r25
    3160:	fc 01       	movw	r30, r24
    3162:	ef 55       	subi	r30, 0x5F	; 95
    3164:	f6 4c       	sbci	r31, 0xC6	; 198
    3166:	a0 82       	st	Z, r10
    3168:	b1 82       	std	Z+1, r11	; 0x01
                            PopulateObject(route[currDepth+1], &actObj1);
                            SetResponse(elements++, actObj1.addrStr[NAME], actObj1.lenStr[NAME],GAME);
                            SetResponse(elements++, A_COMMA, L_COMMA, TEASER);
                        }
                    }
                }while (route[currDepth+1]);
    316a:	20 91 34 38 	lds	r18, 0x3834	; 0x803834 <currDepth>
    316e:	82 2f       	mov	r24, r18
    3170:	90 e0       	ldi	r25, 0x00	; 0
    3172:	fc 01       	movw	r30, r24
    3174:	ee 0f       	add	r30, r30
    3176:	ff 1f       	adc	r31, r31
    3178:	ed 51       	subi	r30, 0x1D	; 29
    317a:	f6 4c       	sbci	r31, 0xC6	; 198
    317c:	40 81       	ld	r20, Z
    317e:	51 81       	ldd	r21, Z+1	; 0x01
    3180:	45 2b       	or	r20, r21
    3182:	09 f0       	breq	.+2      	; 0x3186 <ProcessInput+0x444>
    3184:	85 cf       	rjmp	.-246    	; 0x3090 <ProcessInput+0x34e>

                //Look back if not on level 0
                if (currDepth) {
    3186:	22 23       	and	r18, r18
    3188:	61 f1       	breq	.+88     	; 0x31e2 <ProcessInput+0x4a0>
                    PopulateObject(route[currDepth-1], &actObj1);
    318a:	88 0f       	add	r24, r24
    318c:	99 1f       	adc	r25, r25
    318e:	fc 01       	movw	r30, r24
    3190:	e1 52       	subi	r30, 0x21	; 33
    3192:	f6 4c       	sbci	r31, 0xC6	; 198
    3194:	60 ee       	ldi	r22, 0xE0	; 224
    3196:	78 e3       	ldi	r23, 0x38	; 56
    3198:	80 81       	ld	r24, Z
    319a:	91 81       	ldd	r25, Z+1	; 0x01
    319c:	3d d9       	rcall	.-3462   	; 0x2418 <PopulateObject>
                    SetResponse(elements++, actObj1.addrStr[NAME], actObj1.lenStr[NAME],GAME);
    319e:	20 91 fa 38 	lds	r18, 0x38FA	; 0x8038fa <actObj1.3989+0x1a>
    31a2:	30 91 fb 38 	lds	r19, 0x38FB	; 0x8038fb <actObj1.3989+0x1b>
    31a6:	11 e0       	ldi	r17, 0x01	; 1
    31a8:	19 0d       	add	r17, r9
    return 0;
}

//
void SetResponse(uint8_t number, uint16_t address, uint16_t length, uint8_t type){
    reactStr[0][number]=address;
    31aa:	89 2d       	mov	r24, r9
    31ac:	90 e0       	ldi	r25, 0x00	; 0
    31ae:	fc 01       	movw	r30, r24
    31b0:	ee 0f       	add	r30, r30
    31b2:	ff 1f       	adc	r31, r31
    31b4:	ef 5d       	subi	r30, 0xDF	; 223
    31b6:	f6 4c       	sbci	r31, 0xC6	; 198
    31b8:	40 91 ec 38 	lds	r20, 0x38EC	; 0x8038ec <actObj1.3989+0xc>
    31bc:	50 91 ed 38 	lds	r21, 0x38ED	; 0x8038ed <actObj1.3989+0xd>
    31c0:	40 83       	st	Z, r20
    31c2:	51 83       	std	Z+1, r21	; 0x01
    reactStr[1][number]=length;
    31c4:	fc 01       	movw	r30, r24
    31c6:	ee 0f       	add	r30, r30
    31c8:	ff 1f       	adc	r31, r31
    31ca:	ef 59       	subi	r30, 0x9F	; 159
    31cc:	f6 4c       	sbci	r31, 0xC6	; 198
    31ce:	20 83       	st	Z, r18
    31d0:	31 83       	std	Z+1, r19	; 0x01
    reactStr[2][number]=type;
    31d2:	88 0f       	add	r24, r24
    31d4:	99 1f       	adc	r25, r25
    31d6:	fc 01       	movw	r30, r24
    31d8:	ef 55       	subi	r30, 0x5F	; 95
    31da:	f6 4c       	sbci	r31, 0xC6	; 198
    31dc:	10 82       	st	Z, r1
    31de:	11 82       	std	Z+1, r1	; 0x01
    31e0:	28 c5       	rjmp	.+2640   	; 0x3c32 <ProcessInput+0xef0>

                //Look back if not on level 0
                if (currDepth) {
                    PopulateObject(route[currDepth-1], &actObj1);
                    SetResponse(elements++, actObj1.addrStr[NAME], actObj1.lenStr[NAME],GAME);
                } else elements-=1;
    31e2:	1f ef       	ldi	r17, 0xFF	; 255
    31e4:	19 0d       	add	r17, r9
    31e6:	25 c5       	rjmp	.+2634   	; 0x3c32 <ProcessInput+0xef0>

            } else {
                route[currDepth+1] = FindChild(route[currDepth], data[1], 0);
    31e8:	ee 2e       	mov	r14, r30
    31ea:	f1 2c       	mov	r15, r1
    31ec:	f7 01       	movw	r30, r14
    31ee:	ee 0f       	add	r30, r30
    31f0:	ff 1f       	adc	r31, r31
    31f2:	ef 51       	subi	r30, 0x1F	; 31
    31f4:	f6 4c       	sbci	r31, 0xC6	; 198
    31f6:	40 e0       	ldi	r20, 0x00	; 0
    31f8:	50 e0       	ldi	r21, 0x00	; 0
    31fa:	d3 01       	movw	r26, r6
    31fc:	11 96       	adiw	r26, 0x01	; 1
    31fe:	6c 91       	ld	r22, X
    3200:	80 81       	ld	r24, Z
    3202:	91 81       	ldd	r25, Z+1	; 0x01
    3204:	d8 d9       	rcall	.-3152   	; 0x25b6 <FindChild>
    3206:	f7 01       	movw	r30, r14
    3208:	ee 0f       	add	r30, r30
    320a:	ff 1f       	adc	r31, r31
    320c:	ed 51       	subi	r30, 0x1D	; 29
    320e:	f6 4c       	sbci	r31, 0xC6	; 198
    3210:	80 83       	st	Z, r24
    3212:	91 83       	std	Z+1, r25	; 0x01
                if (route[currDepth+1]) {
    3214:	90 91 34 38 	lds	r25, 0x3834	; 0x803834 <currDepth>
    3218:	29 2f       	mov	r18, r25
    321a:	30 e0       	ldi	r19, 0x00	; 0
    321c:	f9 01       	movw	r30, r18
    321e:	ee 0f       	add	r30, r30
    3220:	ff 1f       	adc	r31, r31
    3222:	ed 51       	subi	r30, 0x1D	; 29
    3224:	f6 4c       	sbci	r31, 0xC6	; 198
    3226:	40 81       	ld	r20, Z
    3228:	51 81       	ldd	r21, Z+1	; 0x01
    322a:	41 15       	cp	r20, r1
    322c:	51 05       	cpc	r21, r1
    322e:	21 f0       	breq	.+8      	; 0x3238 <ProcessInput+0x4f6>
                    PopulateObject(route[currDepth+1], &actObj1);
    3230:	60 ee       	ldi	r22, 0xE0	; 224
    3232:	78 e3       	ldi	r23, 0x38	; 56
    3234:	ca 01       	movw	r24, r20
    3236:	1c c0       	rjmp	.+56     	; 0x3270 <ProcessInput+0x52e>
                    SetResponse(elements++, actObj1.addrStr[DESC], actObj1.lenStr[DESC],GAME);   
                } else if (currDepth) {
    3238:	99 23       	and	r25, r25
                    if (CheckLetter(route[currDepth-1], data[1])) {
    323a:	81 f1       	breq	.+96     	; 0x329c <ProcessInput+0x55a>
    323c:	22 0f       	add	r18, r18
    323e:	33 1f       	adc	r19, r19
    3240:	f9 01       	movw	r30, r18
    3242:	e1 52       	subi	r30, 0x21	; 33
    3244:	f6 4c       	sbci	r31, 0xC6	; 198
    3246:	d3 01       	movw	r26, r6
    3248:	11 96       	adiw	r26, 0x01	; 1
    324a:	6c 91       	ld	r22, X
    324c:	80 81       	ld	r24, Z
    324e:	91 81       	ldd	r25, Z+1	; 0x01
    3250:	5c d9       	rcall	.-3400   	; 0x250a <CheckLetter>
    3252:	81 11       	cpse	r24, r1
    3254:	02 c0       	rjmp	.+4      	; 0x325a <ProcessInput+0x518>
}

//The game logic!
uint8_t ProcessInput(uint8_t *data){
    static object_model_t actObj1, actObj2;
    uint8_t elements = 1;
    3256:	11 e0       	ldi	r17, 0x01	; 1
                if (route[currDepth+1]) {
                    PopulateObject(route[currDepth+1], &actObj1);
                    SetResponse(elements++, actObj1.addrStr[DESC], actObj1.lenStr[DESC],GAME);   
                } else if (currDepth) {
                    if (CheckLetter(route[currDepth-1], data[1])) {
                        PopulateObject(route[currDepth-1], &actObj1);
    3258:	ec c4       	rjmp	.+2520   	; 0x3c32 <ProcessInput+0xef0>
    325a:	e0 91 34 38 	lds	r30, 0x3834	; 0x803834 <currDepth>
    325e:	f0 e0       	ldi	r31, 0x00	; 0
    3260:	ee 0f       	add	r30, r30
    3262:	ff 1f       	adc	r31, r31
    3264:	e1 52       	subi	r30, 0x21	; 33
    3266:	f6 4c       	sbci	r31, 0xC6	; 198
    3268:	60 ee       	ldi	r22, 0xE0	; 224
    326a:	78 e3       	ldi	r23, 0x38	; 56
    326c:	80 81       	ld	r24, Z
    326e:	91 81       	ldd	r25, Z+1	; 0x01
    3270:	d3 d8       	rcall	.-3674   	; 0x2418 <PopulateObject>
                        SetResponse(elements++, actObj1.addrStr[DESC], actObj1.lenStr[DESC],GAME);
    3272:	80 91 fc 38 	lds	r24, 0x38FC	; 0x8038fc <actObj1.3989+0x1c>
    3276:	90 91 fd 38 	lds	r25, 0x38FD	; 0x8038fd <actObj1.3989+0x1d>
    return 0;
}

//
void SetResponse(uint8_t number, uint16_t address, uint16_t length, uint8_t type){
    reactStr[0][number]=address;
    327a:	20 91 ee 38 	lds	r18, 0x38EE	; 0x8038ee <actObj1.3989+0xe>
    327e:	30 91 ef 38 	lds	r19, 0x38EF	; 0x8038ef <actObj1.3989+0xf>
    3282:	20 93 23 39 	sts	0x3923, r18	; 0x803923 <reactStr+0x2>
    3286:	30 93 24 39 	sts	0x3924, r19	; 0x803924 <reactStr+0x3>
    reactStr[1][number]=length;
    328a:	80 93 63 39 	sts	0x3963, r24	; 0x803963 <reactStr+0x42>
    328e:	90 93 64 39 	sts	0x3964, r25	; 0x803964 <reactStr+0x43>
    reactStr[2][number]=type;
    3292:	10 92 a3 39 	sts	0x39A3, r1	; 0x8039a3 <reactStr+0x82>
    3296:	10 92 a4 39 	sts	0x39A4, r1	; 0x8039a4 <reactStr+0x83>
    329a:	32 ce       	rjmp	.-924    	; 0x2f00 <ProcessInput+0x1be>
    return 0;
}

//
void SetResponse(uint8_t number, uint16_t address, uint16_t length, uint8_t type){
    reactStr[0][number]=address;
    329c:	81 ed       	ldi	r24, 0xD1	; 209
    329e:	99 e7       	ldi	r25, 0x79	; 121
    32a0:	80 93 23 39 	sts	0x3923, r24	; 0x803923 <reactStr+0x2>
    32a4:	90 93 24 39 	sts	0x3924, r25	; 0x803924 <reactStr+0x3>
    reactStr[1][number]=length;
    32a8:	8a e1       	ldi	r24, 0x1A	; 26
    32aa:	90 e0       	ldi	r25, 0x00	; 0
    32ac:	c9 c2       	rjmp	.+1426   	; 0x3840 <ProcessInput+0xafe>
                    SetResponse(elements++, A_DONTSEE, L_DONTSEE, TEASER);
                }
            }
        
        //Pick up an object
        } else if (data[0] == 'p') {
    32ae:	80 37       	cpi	r24, 0x70	; 112
    32b0:	09 f0       	breq	.+2      	; 0x32b4 <ProcessInput+0x572>
    32b2:	92 c0       	rjmp	.+292    	; 0x33d8 <ProcessInput+0x696>
            if (inventory[0]&&inventory[1]) {
    32b4:	80 91 44 38 	lds	r24, 0x3844	; 0x803844 <inventory>
    32b8:	90 91 45 38 	lds	r25, 0x3845	; 0x803845 <inventory+0x1>
    32bc:	89 2b       	or	r24, r25
    32be:	79 f0       	breq	.+30     	; 0x32de <ProcessInput+0x59c>
    32c0:	80 91 46 38 	lds	r24, 0x3846	; 0x803846 <inventory+0x2>
    32c4:	90 91 47 38 	lds	r25, 0x3847	; 0x803847 <inventory+0x3>
    32c8:	89 2b       	or	r24, r25
    32ca:	49 f0       	breq	.+18     	; 0x32de <ProcessInput+0x59c>
    return 0;
}

//
void SetResponse(uint8_t number, uint16_t address, uint16_t length, uint8_t type){
    reactStr[0][number]=address;
    32cc:	87 e0       	ldi	r24, 0x07	; 7
    32ce:	98 e7       	ldi	r25, 0x78	; 120
    32d0:	80 93 23 39 	sts	0x3923, r24	; 0x803923 <reactStr+0x2>
    32d4:	90 93 24 39 	sts	0x3924, r25	; 0x803924 <reactStr+0x3>
    reactStr[1][number]=length;
    32d8:	89 e5       	ldi	r24, 0x59	; 89
    32da:	90 e0       	ldi	r25, 0x00	; 0
    32dc:	b1 c2       	rjmp	.+1378   	; 0x3840 <ProcessInput+0xafe>
        
        //Pick up an object
        } else if (data[0] == 'p') {
            if (inventory[0]&&inventory[1]) {
                SetResponse(elements++, A_CARRYTWO, L_CARRYTWO, TEASER);
            } else if (inputLen != 2) {
    32de:	b2 e0       	ldi	r27, 0x02	; 2
    32e0:	fb 12       	cpse	r15, r27
    32e2:	6f cd       	rjmp	.-1314   	; 0x2dc2 <ProcessInput+0x80>
                SetResponse(elements++, A_NOTPOSSIBLE, L_NOTPOSSIBLE, TEASER);
            } else {
                route[currDepth+1] = FindChild(route[currDepth], data[1], 0);
    32e4:	00 91 34 38 	lds	r16, 0x3834	; 0x803834 <currDepth>
    32e8:	10 e0       	ldi	r17, 0x00	; 0
    32ea:	f8 01       	movw	r30, r16
    32ec:	ee 0f       	add	r30, r30
    32ee:	ff 1f       	adc	r31, r31
    32f0:	ef 51       	subi	r30, 0x1F	; 31
    32f2:	f6 4c       	sbci	r31, 0xC6	; 198
    32f4:	40 e0       	ldi	r20, 0x00	; 0
    32f6:	50 e0       	ldi	r21, 0x00	; 0
    32f8:	d3 01       	movw	r26, r6
    32fa:	11 96       	adiw	r26, 0x01	; 1
    32fc:	6c 91       	ld	r22, X
    32fe:	80 81       	ld	r24, Z
    3300:	91 81       	ldd	r25, Z+1	; 0x01
    3302:	59 d9       	rcall	.-3406   	; 0x25b6 <FindChild>
    3304:	00 0f       	add	r16, r16
    3306:	11 1f       	adc	r17, r17
    3308:	f8 01       	movw	r30, r16
    330a:	ed 51       	subi	r30, 0x1D	; 29
    330c:	f6 4c       	sbci	r31, 0xC6	; 198
    330e:	80 83       	st	Z, r24
    3310:	91 83       	std	Z+1, r25	; 0x01
                if (route[currDepth+1]) {
    3312:	20 91 34 38 	lds	r18, 0x3834	; 0x803834 <currDepth>
    3316:	30 e0       	ldi	r19, 0x00	; 0
    3318:	2f 5f       	subi	r18, 0xFF	; 255
    331a:	3f 4f       	sbci	r19, 0xFF	; 255
    331c:	22 0f       	add	r18, r18
    331e:	33 1f       	adc	r19, r19
    3320:	f9 01       	movw	r30, r18
    3322:	ef 51       	subi	r30, 0x1F	; 31
    3324:	f6 4c       	sbci	r31, 0xC6	; 198
    3326:	80 81       	ld	r24, Z
    3328:	91 81       	ldd	r25, Z+1	; 0x01
    332a:	00 97       	sbiw	r24, 0x00	; 0
    332c:	09 f4       	brne	.+2      	; 0x3330 <ProcessInput+0x5ee>
    332e:	38 c3       	rjmp	.+1648   	; 0x39a0 <ProcessInput+0xc5e>
                    if ((route[currDepth+1] == inventory[0])||(route[currDepth+1] == inventory[1])) {
    3330:	40 91 44 38 	lds	r20, 0x3844	; 0x803844 <inventory>
    3334:	50 91 45 38 	lds	r21, 0x3845	; 0x803845 <inventory+0x1>
    3338:	84 17       	cp	r24, r20
    333a:	95 07       	cpc	r25, r21
    333c:	39 f0       	breq	.+14     	; 0x334c <ProcessInput+0x60a>
    333e:	40 91 46 38 	lds	r20, 0x3846	; 0x803846 <inventory+0x2>
    3342:	50 91 47 38 	lds	r21, 0x3847	; 0x803847 <inventory+0x3>
    3346:	84 17       	cp	r24, r20
    3348:	95 07       	cpc	r25, r21
    334a:	c1 f4       	brne	.+48     	; 0x337c <ProcessInput+0x63a>
    return 0;
}

//
void SetResponse(uint8_t number, uint16_t address, uint16_t length, uint8_t type){
    reactStr[0][number]=address;
    334c:	82 ee       	ldi	r24, 0xE2	; 226
    334e:	97 e7       	ldi	r25, 0x77	; 119
    3350:	80 93 23 39 	sts	0x3923, r24	; 0x803923 <reactStr+0x2>
    3354:	90 93 24 39 	sts	0x3924, r25	; 0x803924 <reactStr+0x3>
    reactStr[1][number]=length;
    3358:	85 e2       	ldi	r24, 0x25	; 37
    335a:	90 e0       	ldi	r25, 0x00	; 0
    335c:	80 93 63 39 	sts	0x3963, r24	; 0x803963 <reactStr+0x42>
    3360:	90 93 64 39 	sts	0x3964, r25	; 0x803964 <reactStr+0x43>
    reactStr[2][number]=type;
    3364:	81 e0       	ldi	r24, 0x01	; 1
    3366:	90 e0       	ldi	r25, 0x00	; 0
    3368:	80 93 a3 39 	sts	0x39A3, r24	; 0x8039a3 <reactStr+0x82>
    336c:	90 93 a4 39 	sts	0x39A4, r25	; 0x8039a4 <reactStr+0x83>
            } else {
                route[currDepth+1] = FindChild(route[currDepth], data[1], 0);
                if (route[currDepth+1]) {
                    if ((route[currDepth+1] == inventory[0])||(route[currDepth+1] == inventory[1])) {
                        SetResponse(elements++, A_ALREADYCARRYING, L_ALREADYCARRYING, TEASER);
                        route[currDepth+1] = 0;
    3370:	f9 01       	movw	r30, r18
    3372:	ef 51       	subi	r30, 0x1F	; 31
    3374:	f6 4c       	sbci	r31, 0xC6	; 198
    3376:	10 82       	st	Z, r1
    3378:	11 82       	std	Z+1, r1	; 0x01
                    } else {
                        //Put item in the inventory if possible
                        PopulateObject(route[currDepth+1], &actObj1);  
    337a:	c2 cd       	rjmp	.-1148   	; 0x2f00 <ProcessInput+0x1be>
    337c:	60 ee       	ldi	r22, 0xE0	; 224
    337e:	78 e3       	ldi	r23, 0x38	; 56
    3380:	4b d8       	rcall	.-3946   	; 0x2418 <PopulateObject>
                        if (CheckState(actObj1.byteField[ACTION_ACL])) {
    3382:	80 91 e7 38 	lds	r24, 0x38E7	; 0x8038e7 <actObj1.3989+0x7>
    3386:	0e 94 15 0a 	call	0x142a	; 0x142a <CheckState>
    338a:	88 23       	and	r24, r24
    338c:	09 f4       	brne	.+2      	; 0x3390 <ProcessInput+0x64e>
    338e:	e3 c2       	rjmp	.+1478   	; 0x3956 <ProcessInput+0xc14>
                            if (actObj1.byteField[ITEM_NR]) {
    3390:	80 91 eb 38 	lds	r24, 0x38EB	; 0x8038eb <actObj1.3989+0xb>
    3394:	88 23       	and	r24, r24
    3396:	09 f4       	brne	.+2      	; 0x339a <ProcessInput+0x658>
    3398:	14 cd       	rjmp	.-1496   	; 0x2dc2 <ProcessInput+0x80>
                                if (inventory[0]) {
    339a:	80 91 44 38 	lds	r24, 0x3844	; 0x803844 <inventory>
    339e:	90 91 45 38 	lds	r25, 0x3845	; 0x803845 <inventory+0x1>
    33a2:	e0 91 34 38 	lds	r30, 0x3834	; 0x803834 <currDepth>
                                    inventory[1] = route[currDepth+1];
    33a6:	f0 e0       	ldi	r31, 0x00	; 0
    33a8:	ee 0f       	add	r30, r30
    33aa:	ff 1f       	adc	r31, r31
    33ac:	ed 51       	subi	r30, 0x1D	; 29
    33ae:	f6 4c       	sbci	r31, 0xC6	; 198
                    } else {
                        //Put item in the inventory if possible
                        PopulateObject(route[currDepth+1], &actObj1);  
                        if (CheckState(actObj1.byteField[ACTION_ACL])) {
                            if (actObj1.byteField[ITEM_NR]) {
                                if (inventory[0]) {
    33b0:	89 2b       	or	r24, r25
    33b2:	39 f0       	breq	.+14     	; 0x33c2 <ProcessInput+0x680>
                                    inventory[1] = route[currDepth+1];
    33b4:	80 81       	ld	r24, Z
    33b6:	91 81       	ldd	r25, Z+1	; 0x01
    33b8:	80 93 46 38 	sts	0x3846, r24	; 0x803846 <inventory+0x2>
    33bc:	90 93 47 38 	sts	0x3847, r25	; 0x803847 <inventory+0x3>
    33c0:	06 c0       	rjmp	.+12     	; 0x33ce <ProcessInput+0x68c>
                                } else {
                                    inventory[0] = route[currDepth+1];
    33c2:	80 81       	ld	r24, Z
    33c4:	91 81       	ldd	r25, Z+1	; 0x01
    33c6:	80 93 44 38 	sts	0x3844, r24	; 0x803844 <inventory>
    33ca:	90 93 45 38 	sts	0x3845, r25	; 0x803845 <inventory+0x1>
                                }
                                UpdateState(actObj1.byteField[ACTION_STATE]);
    33ce:	80 91 ea 38 	lds	r24, 0x38EA	; 0x8038ea <actObj1.3989+0xa>
    33d2:	0e 94 f4 09 	call	0x13e8	; 0x13e8 <UpdateState>
    33d6:	2b c0       	rjmp	.+86     	; 0x342e <ProcessInput+0x6ec>
                } else SetResponse(elements++, A_NOSUCHOBJECT, L_NOSUCHOBJECT, TEASER);
            }
        } else

        //Drop item if in inventory
        if (data[0] == 'd') {
    33d8:	84 36       	cpi	r24, 0x64	; 100
    33da:	d9 f4       	brne	.+54     	; 0x3412 <ProcessInput+0x6d0>
            if ((inventory[0] == 0)&&(inventory[1] == 0)){
    33dc:	80 91 44 38 	lds	r24, 0x3844	; 0x803844 <inventory>
    33e0:	90 91 45 38 	lds	r25, 0x3845	; 0x803845 <inventory+0x1>
    33e4:	00 97       	sbiw	r24, 0x00	; 0
    33e6:	09 f0       	breq	.+2      	; 0x33ea <ProcessInput+0x6a8>
    33e8:	3c c4       	rjmp	.+2168   	; 0x3c62 <ProcessInput+0xf20>
    33ea:	80 91 46 38 	lds	r24, 0x3846	; 0x803846 <inventory+0x2>
    33ee:	90 91 47 38 	lds	r25, 0x3847	; 0x803847 <inventory+0x3>
    33f2:	89 2b       	or	r24, r25
    33f4:	49 f4       	brne	.+18     	; 0x3408 <ProcessInput+0x6c6>
    return 0;
}

//
void SetResponse(uint8_t number, uint16_t address, uint16_t length, uint8_t type){
    reactStr[0][number]=address;
    33f6:	86 ea       	ldi	r24, 0xA6	; 166
    33f8:	97 e7       	ldi	r25, 0x77	; 119
    33fa:	80 93 23 39 	sts	0x3923, r24	; 0x803923 <reactStr+0x2>
    33fe:	90 93 24 39 	sts	0x3924, r25	; 0x803924 <reactStr+0x3>
    reactStr[1][number]=length;
    3402:	86 e2       	ldi	r24, 0x26	; 38
    3404:	90 e0       	ldi	r25, 0x00	; 0
    3406:	72 cd       	rjmp	.-1308   	; 0x2eec <ProcessInput+0x1aa>

        //Drop item if in inventory
        if (data[0] == 'd') {
            if ((inventory[0] == 0)&&(inventory[1] == 0)){
                SetResponse(elements++, A_EMPTYHANDS, L_EMPTYHANDS, TEASER);
            } else if (inputLen != 2) {
    3408:	b2 e0       	ldi	r27, 0x02	; 2
    340a:	fb 16       	cp	r15, r27
    340c:	09 f4       	brne	.+2      	; 0x3410 <ProcessInput+0x6ce>
    340e:	8b c4       	rjmp	.+2326   	; 0x3d26 <ProcessInput+0xfe4>
    3410:	d8 cc       	rjmp	.-1616   	; 0x2dc2 <ProcessInput+0x80>
                }
            }
        } 

        //Inventory list
        else if (data[0] == 'i') {
    3412:	89 36       	cpi	r24, 0x69	; 105
            if ((inventory[0] == 0)&&(inventory[1] == 0)){
    3414:	81 f4       	brne	.+32     	; 0x3436 <ProcessInput+0x6f4>
    3416:	80 91 44 38 	lds	r24, 0x3844	; 0x803844 <inventory>
    341a:	90 91 45 38 	lds	r25, 0x3845	; 0x803845 <inventory+0x1>
    341e:	89 2b       	or	r24, r25
    3420:	31 f4       	brne	.+12     	; 0x342e <ProcessInput+0x6ec>
    3422:	80 91 46 38 	lds	r24, 0x3846	; 0x803846 <inventory+0x2>
    3426:	90 91 47 38 	lds	r25, 0x3847	; 0x803847 <inventory+0x3>
    342a:	89 2b       	or	r24, r25
                SetResponse(elements++, A_EMPTYHANDS, L_EMPTYHANDS, TEASER);
                } else {
                    elements = ShowInventory(elements);
    342c:	21 f3       	breq	.-56     	; 0x33f6 <ProcessInput+0x6b4>
    342e:	81 e0       	ldi	r24, 0x01	; 1
    3430:	f8 db       	rcall	.-2064   	; 0x2c22 <ShowInventory>
    3432:	18 2f       	mov	r17, r24
    3434:	fe c3       	rjmp	.+2044   	; 0x3c32 <ProcessInput+0xef0>
                }        
        
        //Talk, use, give, read
        } else if ((data[0] == 't')||(data[0] == 'u')||(data[0] == 'g')||(data[0] == 'r')) {
    3436:	9c e8       	ldi	r25, 0x8C	; 140
    3438:	98 0f       	add	r25, r24
    343a:	92 30       	cpi	r25, 0x02	; 2
    343c:	28 f0       	brcs	.+10     	; 0x3448 <ProcessInput+0x706>
    343e:	87 36       	cpi	r24, 0x67	; 103
    3440:	19 f0       	breq	.+6      	; 0x3448 <ProcessInput+0x706>
    3442:	82 37       	cpi	r24, 0x72	; 114
    3444:	09 f0       	breq	.+2      	; 0x3448 <ProcessInput+0x706>
    3446:	b5 c2       	rjmp	.+1386   	; 0x39b2 <ProcessInput+0xc70>
            if ((inputLen<2)||(inputLen>3)) {
    3448:	8e ef       	ldi	r24, 0xFE	; 254
    344a:	8f 0d       	add	r24, r15
    344c:	82 30       	cpi	r24, 0x02	; 2
    344e:	08 f0       	brcs	.+2      	; 0x3452 <ProcessInput+0x710>
    3450:	b8 cc       	rjmp	.-1680   	; 0x2dc2 <ProcessInput+0x80>
                SetResponse(elements++, A_NOTPOSSIBLE, L_NOTPOSSIBLE, TEASER);                
            
            //Check for visible person or object first
            } else {
                route[currDepth+1] = FindChild(route[currDepth], data[inputLen-1], 0);
    3452:	e0 91 34 38 	lds	r30, 0x3834	; 0x803834 <currDepth>
    3456:	0e 2f       	mov	r16, r30
    3458:	10 e0       	ldi	r17, 0x00	; 0
    345a:	d3 01       	movw	r26, r6
    345c:	af 0d       	add	r26, r15
    345e:	b1 1d       	adc	r27, r1
    3460:	11 97       	sbiw	r26, 0x01	; 1
    3462:	f8 01       	movw	r30, r16
    3464:	ee 0f       	add	r30, r30
    3466:	ff 1f       	adc	r31, r31
    3468:	ef 51       	subi	r30, 0x1F	; 31
    346a:	f6 4c       	sbci	r31, 0xC6	; 198
    346c:	40 e0       	ldi	r20, 0x00	; 0
    346e:	50 e0       	ldi	r21, 0x00	; 0
    3470:	6c 91       	ld	r22, X
    3472:	80 81       	ld	r24, Z
    3474:	91 81       	ldd	r25, Z+1	; 0x01
    3476:	9f d8       	rcall	.-3778   	; 0x25b6 <FindChild>
    3478:	f8 01       	movw	r30, r16
    347a:	ee 0f       	add	r30, r30
    347c:	ff 1f       	adc	r31, r31
    347e:	ed 51       	subi	r30, 0x1D	; 29
    3480:	f6 4c       	sbci	r31, 0xC6	; 198
    3482:	80 83       	st	Z, r24
    3484:	91 83       	std	Z+1, r25	; 0x01
                if (route[currDepth+1]) {
    3486:	e0 91 34 38 	lds	r30, 0x3834	; 0x803834 <currDepth>
    348a:	f0 e0       	ldi	r31, 0x00	; 0
    348c:	ee 0f       	add	r30, r30
    348e:	ff 1f       	adc	r31, r31
    3490:	ed 51       	subi	r30, 0x1D	; 29
    3492:	f6 4c       	sbci	r31, 0xC6	; 198
    3494:	80 81       	ld	r24, Z
    3496:	91 81       	ldd	r25, Z+1	; 0x01
    3498:	00 97       	sbiw	r24, 0x00	; 0
    349a:	09 f4       	brne	.+2      	; 0x349e <ProcessInput+0x75c>
    349c:	78 c2       	rjmp	.+1264   	; 0x398e <ProcessInput+0xc4c>
                    
                    //Give item to person / use item on object 
                    if ((inputLen == 3)&&((data[0] == 'u')||(data[0] == 'g'))) {
    349e:	f3 e0       	ldi	r31, 0x03	; 3
    34a0:	ff 12       	cpse	r15, r31
    34a2:	60 c1       	rjmp	.+704    	; 0x3764 <ProcessInput+0xa22>
    34a4:	d3 01       	movw	r26, r6
    34a6:	2c 91       	ld	r18, X
    34a8:	25 37       	cpi	r18, 0x75	; 117
    34aa:	19 f0       	breq	.+6      	; 0x34b2 <ProcessInput+0x770>
    34ac:	27 36       	cpi	r18, 0x67	; 103
    34ae:	09 f0       	breq	.+2      	; 0x34b2 <ProcessInput+0x770>
    34b0:	59 c1       	rjmp	.+690    	; 0x3764 <ProcessInput+0xa22>
    34b2:	00 e0       	ldi	r16, 0x00	; 0
    34b4:	11 e0       	ldi	r17, 0x01	; 1
    return 0;
}

//
void SetResponse(uint8_t number, uint16_t address, uint16_t length, uint8_t type){
    reactStr[0][number]=address;
    34b6:	41 e6       	ldi	r20, 0x61	; 97
    34b8:	c4 2e       	mov	r12, r20
    34ba:	49 e7       	ldi	r20, 0x79	; 121
    34bc:	d4 2e       	mov	r13, r20
    reactStr[1][number]=length;
    34be:	51 e2       	ldi	r21, 0x21	; 33
    34c0:	a5 2e       	mov	r10, r21
    34c2:	b1 2c       	mov	r11, r1
    reactStr[2][number]=type;
    34c4:	88 24       	eor	r8, r8
    34c6:	83 94       	inc	r8
                if (route[currDepth+1]) {
                    
                    //Give item to person / use item on object 
                    if ((inputLen == 3)&&((data[0] == 'u')||(data[0] == 'g'))) {
                        for (uint8_t x=0; x<2; x++) {
                            if (inventory[x]) { 
    34c8:	91 2c       	mov	r9, r1
    34ca:	e0 2e       	mov	r14, r16
    34cc:	f1 2c       	mov	r15, r1
    34ce:	c7 01       	movw	r24, r14
    34d0:	88 0f       	add	r24, r24
    34d2:	99 1f       	adc	r25, r25
    34d4:	fc 01       	movw	r30, r24
    34d6:	ec 5b       	subi	r30, 0xBC	; 188
    34d8:	f7 4c       	sbci	r31, 0xC7	; 199
    34da:	7f 01       	movw	r14, r30
    34dc:	80 81       	ld	r24, Z
    34de:	91 81       	ldd	r25, Z+1	; 0x01
    34e0:	00 97       	sbiw	r24, 0x00	; 0
                                if (CheckLetter(inventory[x], data[1])) {
    34e2:	79 f0       	breq	.+30     	; 0x3502 <ProcessInput+0x7c0>
    34e4:	d3 01       	movw	r26, r6
    34e6:	11 96       	adiw	r26, 0x01	; 1
    34e8:	6c 91       	ld	r22, X
    34ea:	0f d8       	rcall	.-4066   	; 0x250a <CheckLetter>
    34ec:	88 23       	and	r24, r24
    34ee:	49 f0       	breq	.+18     	; 0x3502 <ProcessInput+0x7c0>
                                    PopulateObject(inventory[x], &actObj2);
    34f0:	65 eb       	ldi	r22, 0xB5	; 181
    34f2:	78 e3       	ldi	r23, 0x38	; 56
    34f4:	f7 01       	movw	r30, r14
    34f6:	80 81       	ld	r24, Z
    34f8:	91 81       	ldd	r25, Z+1	; 0x01
    34fa:	0e 94 0c 12 	call	0x2418	; 0x2418 <PopulateObject>
                                    x = 2;
    34fe:	02 e0       	ldi	r16, 0x02	; 2
    3500:	1d c0       	rjmp	.+58     	; 0x353c <ProcessInput+0x7fa>
                                }
                            }
                            if (x == 1) { 
    3502:	01 30       	cpi	r16, 0x01	; 1
    3504:	d1 f4       	brne	.+52     	; 0x353a <ProcessInput+0x7f8>
    return 0;
}

//
void SetResponse(uint8_t number, uint16_t address, uint16_t length, uint8_t type){
    reactStr[0][number]=address;
    3506:	e1 2f       	mov	r30, r17
    3508:	f0 e0       	ldi	r31, 0x00	; 0
    350a:	df 01       	movw	r26, r30
    350c:	aa 0f       	add	r26, r26
    350e:	bb 1f       	adc	r27, r27
    3510:	af 5d       	subi	r26, 0xDF	; 223
    3512:	b6 4c       	sbci	r27, 0xC6	; 198
    3514:	cd 92       	st	X+, r12
    3516:	dc 92       	st	X, r13
    reactStr[1][number]=length;
    3518:	df 01       	movw	r26, r30
    351a:	aa 0f       	add	r26, r26
    351c:	bb 1f       	adc	r27, r27
    351e:	af 59       	subi	r26, 0x9F	; 159
    3520:	b6 4c       	sbci	r27, 0xC6	; 198
    3522:	ad 92       	st	X+, r10
    3524:	bc 92       	st	X, r11
    reactStr[2][number]=type;
    3526:	ee 0f       	add	r30, r30
    3528:	ff 1f       	adc	r31, r31
    352a:	ef 55       	subi	r30, 0x5F	; 95
    352c:	f6 4c       	sbci	r31, 0xC6	; 198
    352e:	80 82       	st	Z, r8
    3530:	91 82       	std	Z+1, r9	; 0x01
                                    x = 2;
                                }
                            }
                            if (x == 1) { 
                                SetResponse(elements++, A_NOTCARRYING, L_NOTCARRYING, TEASER);
                                data[0] = 0;
    3532:	d3 01       	movw	r26, r6
    3534:	1c 92       	st	X, r1
                                    PopulateObject(inventory[x], &actObj2);
                                    x = 2;
                                }
                            }
                            if (x == 1) { 
                                SetResponse(elements++, A_NOTCARRYING, L_NOTCARRYING, TEASER);
    3536:	1f 5f       	subi	r17, 0xFF	; 255
    3538:	01 c0       	rjmp	.+2      	; 0x353c <ProcessInput+0x7fa>
    353a:	00 e0       	ldi	r16, 0x00	; 0
                route[currDepth+1] = FindChild(route[currDepth], data[inputLen-1], 0);
                if (route[currDepth+1]) {
                    
                    //Give item to person / use item on object 
                    if ((inputLen == 3)&&((data[0] == 'u')||(data[0] == 'g'))) {
                        for (uint8_t x=0; x<2; x++) {
    353c:	0f 5f       	subi	r16, 0xFF	; 255
    353e:	01 30       	cpi	r16, 0x01	; 1
    3540:	21 f2       	breq	.-120    	; 0x34ca <ProcessInput+0x788>
                                data[0] = 0;
                            }
                        }

                        //Both the item and person/object are found, check if action is legit
                        if (data[0]){
    3542:	f3 01       	movw	r30, r6
    3544:	80 81       	ld	r24, Z
    3546:	88 23       	and	r24, r24
    3548:	09 f4       	brne	.+2      	; 0x354c <ProcessInput+0x80a>
    354a:	73 c3       	rjmp	.+1766   	; 0x3c32 <ProcessInput+0xef0>
                            PopulateObject(route[currDepth+1], &actObj1);
    354c:	e0 91 34 38 	lds	r30, 0x3834	; 0x803834 <currDepth>
    3550:	f0 e0       	ldi	r31, 0x00	; 0
    3552:	ee 0f       	add	r30, r30
    3554:	ff 1f       	adc	r31, r31
    3556:	ed 51       	subi	r30, 0x1D	; 29
    3558:	f6 4c       	sbci	r31, 0xC6	; 198
    355a:	60 ee       	ldi	r22, 0xE0	; 224
    355c:	78 e3       	ldi	r23, 0x38	; 56
    355e:	80 81       	ld	r24, Z
    3560:	91 81       	ldd	r25, Z+1	; 0x01
    3562:	0e 94 0c 12 	call	0x2418	; 0x2418 <PopulateObject>

                            //Special game
                            if (actObj1.lenStr[ACTION_STR1] == 1) {
    3566:	e0 90 fe 38 	lds	r14, 0x38FE	; 0x8038fe <actObj1.3989+0x1e>
    356a:	f0 90 ff 38 	lds	r15, 0x38FF	; 0x8038ff <actObj1.3989+0x1f>
    356e:	f1 e0       	ldi	r31, 0x01	; 1
    3570:	ef 16       	cp	r14, r31
    3572:	f1 04       	cpc	r15, r1
    3574:	09 f0       	breq	.+2      	; 0x3578 <ProcessInput+0x836>
    3576:	89 c0       	rjmp	.+274    	; 0x368a <ProcessInput+0x948>
                                ExtEERead(actObj1.addrStr[ACTION_STR1], 1, GAME, &data[2]);
    3578:	93 01       	movw	r18, r6
    357a:	2e 5f       	subi	r18, 0xFE	; 254
    357c:	3f 4f       	sbci	r19, 0xFF	; 255
    357e:	40 e0       	ldi	r20, 0x00	; 0
    3580:	61 e0       	ldi	r22, 0x01	; 1
    3582:	80 91 f0 38 	lds	r24, 0x38F0	; 0x8038f0 <actObj1.3989+0x10>
    3586:	90 91 f1 38 	lds	r25, 0x38F1	; 0x8038f1 <actObj1.3989+0x11>
    358a:	0e 94 4a 08 	call	0x1094	; 0x1094 <ExtEERead>
                                if (data[2] == '1') {
    358e:	d3 01       	movw	r26, r6
    3590:	12 96       	adiw	r26, 0x02	; 2
    3592:	3c 91       	ld	r19, X
    3594:	31 33       	cpi	r19, 0x31	; 49
    3596:	09 f0       	breq	.+2      	; 0x359a <ProcessInput+0x858>
    3598:	4c c3       	rjmp	.+1688   	; 0x3c32 <ProcessInput+0xef0>
                                    uint8_t item = actObj2.byteField[ITEM_NR];
    359a:	20 91 c0 38 	lds	r18, 0x38C0	; 0x8038c0 <actObj2.3990+0xb>
                                    if ((item < 31)||(item > 34)) {
    359e:	51 ee       	ldi	r21, 0xE1	; 225
    35a0:	52 0f       	add	r21, r18
    35a2:	41 e0       	ldi	r20, 0x01	; 1
    35a4:	41 0f       	add	r20, r17
    35a6:	81 2f       	mov	r24, r17
    35a8:	90 e0       	ldi	r25, 0x00	; 0
    return 0;
}

//
void SetResponse(uint8_t number, uint16_t address, uint16_t length, uint8_t type){
    reactStr[0][number]=address;
    35aa:	fc 01       	movw	r30, r24
    35ac:	ee 0f       	add	r30, r30
    35ae:	ff 1f       	adc	r31, r31
    35b0:	ef 5d       	subi	r30, 0xDF	; 223
    35b2:	f6 4c       	sbci	r31, 0xC6	; 198
                            //Special game
                            if (actObj1.lenStr[ACTION_STR1] == 1) {
                                ExtEERead(actObj1.addrStr[ACTION_STR1], 1, GAME, &data[2]);
                                if (data[2] == '1') {
                                    uint8_t item = actObj2.byteField[ITEM_NR];
                                    if ((item < 31)||(item > 34)) {
    35b4:	54 30       	cpi	r21, 0x04	; 4
    35b6:	b0 f0       	brcs	.+44     	; 0x35e4 <ProcessInput+0x8a2>
    return 0;
}

//
void SetResponse(uint8_t number, uint16_t address, uint16_t length, uint8_t type){
    reactStr[0][number]=address;
    35b8:	21 e0       	ldi	r18, 0x01	; 1
    35ba:	39 e7       	ldi	r19, 0x79	; 121
    35bc:	20 83       	st	Z, r18
    35be:	31 83       	std	Z+1, r19	; 0x01
    reactStr[1][number]=length;
    35c0:	fc 01       	movw	r30, r24
    35c2:	ee 0f       	add	r30, r30
    35c4:	ff 1f       	adc	r31, r31
    35c6:	ef 59       	subi	r30, 0x9F	; 159
    35c8:	f6 4c       	sbci	r31, 0xC6	; 198
    35ca:	2a e1       	ldi	r18, 0x1A	; 26
    35cc:	30 e0       	ldi	r19, 0x00	; 0
    35ce:	20 83       	st	Z, r18
    35d0:	31 83       	std	Z+1, r19	; 0x01
    reactStr[2][number]=type;
    35d2:	88 0f       	add	r24, r24
    35d4:	99 1f       	adc	r25, r25
    35d6:	fc 01       	movw	r30, r24
    35d8:	ef 55       	subi	r30, 0x5F	; 95
    35da:	f6 4c       	sbci	r31, 0xC6	; 198
    35dc:	e0 82       	st	Z, r14
    35de:	f1 82       	std	Z+1, r15	; 0x01
                            if (actObj1.lenStr[ACTION_STR1] == 1) {
                                ExtEERead(actObj1.addrStr[ACTION_STR1], 1, GAME, &data[2]);
                                if (data[2] == '1') {
                                    uint8_t item = actObj2.byteField[ITEM_NR];
                                    if ((item < 31)||(item > 34)) {
                                        SetResponse(elements++, A_CANTUSE, L_CANTUSE, TEASER);
    35e0:	14 2f       	mov	r17, r20
    35e2:	27 c3       	rjmp	.+1614   	; 0x3c32 <ProcessInput+0xef0>
    return 0;
}

//
void SetResponse(uint8_t number, uint16_t address, uint16_t length, uint8_t type){
    reactStr[0][number]=address;
    35e4:	60 e5       	ldi	r22, 0x50	; 80
    35e6:	75 e7       	ldi	r23, 0x75	; 117
    35e8:	60 83       	st	Z, r22
    35ea:	71 83       	std	Z+1, r23	; 0x01
    reactStr[1][number]=length;
    35ec:	fc 01       	movw	r30, r24
    35ee:	ee 0f       	add	r30, r30
    35f0:	ff 1f       	adc	r31, r31
    35f2:	ef 59       	subi	r30, 0x9F	; 159
    35f4:	f6 4c       	sbci	r31, 0xC6	; 198
    35f6:	62 eb       	ldi	r22, 0xB2	; 178
    35f8:	70 e0       	ldi	r23, 0x00	; 0
    35fa:	60 83       	st	Z, r22
    35fc:	71 83       	std	Z+1, r23	; 0x01
    reactStr[2][number]=type;
    35fe:	88 0f       	add	r24, r24
    3600:	99 1f       	adc	r25, r25
    3602:	fc 01       	movw	r30, r24
    3604:	ef 55       	subi	r30, 0x5F	; 95
    3606:	f6 4c       	sbci	r31, 0xC6	; 198
    3608:	e0 82       	st	Z, r14
    360a:	f1 82       	std	Z+1, r15	; 0x01
    return 0;
}

//
void SetResponse(uint8_t number, uint16_t address, uint16_t length, uint8_t type){
    reactStr[0][number]=address;
    360c:	84 2f       	mov	r24, r20
    360e:	90 e0       	ldi	r25, 0x00	; 0
    3610:	fc 01       	movw	r30, r24
    3612:	ee 0f       	add	r30, r30
    3614:	ff 1f       	adc	r31, r31
    3616:	ef 5d       	subi	r30, 0xDF	; 223
    3618:	f6 4c       	sbci	r31, 0xC6	; 198
    361a:	49 e5       	ldi	r20, 0x59	; 89
    361c:	5a e7       	ldi	r21, 0x7A	; 122
    361e:	40 83       	st	Z, r20
    3620:	51 83       	std	Z+1, r21	; 0x01
    reactStr[1][number]=length;
    3622:	fc 01       	movw	r30, r24
    3624:	ee 0f       	add	r30, r30
    3626:	ff 1f       	adc	r31, r31
    3628:	ef 59       	subi	r30, 0x9F	; 159
    362a:	f6 4c       	sbci	r31, 0xC6	; 198
    362c:	42 e0       	ldi	r20, 0x02	; 2
    362e:	50 e0       	ldi	r21, 0x00	; 0
    3630:	40 83       	st	Z, r20
    3632:	51 83       	std	Z+1, r21	; 0x01
    reactStr[2][number]=type;
    3634:	88 0f       	add	r24, r24
    3636:	99 1f       	adc	r25, r25
    3638:	fc 01       	movw	r30, r24
    363a:	ef 55       	subi	r30, 0x5F	; 95
    363c:	f6 4c       	sbci	r31, 0xC6	; 198
    363e:	e0 82       	st	Z, r14
    3640:	f1 82       	std	Z+1, r15	; 0x01
    return 0;
}

//
void SetResponse(uint8_t number, uint16_t address, uint16_t length, uint8_t type){
    reactStr[0][number]=address;
    3642:	82 e0       	ldi	r24, 0x02	; 2
    3644:	81 0f       	add	r24, r17
    3646:	90 e0       	ldi	r25, 0x00	; 0
    3648:	1d 5f       	subi	r17, 0xFD	; 253
    364a:	fc 01       	movw	r30, r24
    364c:	ee 0f       	add	r30, r30
    364e:	ff 1f       	adc	r31, r31
    3650:	ef 5d       	subi	r30, 0xDF	; 223
    3652:	f6 4c       	sbci	r31, 0xC6	; 198
    3654:	4d ea       	ldi	r20, 0xAD	; 173
    3656:	58 e7       	ldi	r21, 0x78	; 120
    3658:	40 83       	st	Z, r20
    365a:	51 83       	std	Z+1, r21	; 0x01
    reactStr[1][number]=length;
    365c:	fc 01       	movw	r30, r24
    365e:	ee 0f       	add	r30, r30
    3660:	ff 1f       	adc	r31, r31
    3662:	ef 59       	subi	r30, 0x9F	; 159
    3664:	f6 4c       	sbci	r31, 0xC6	; 198
    3666:	42 e1       	ldi	r20, 0x12	; 18
    3668:	50 e0       	ldi	r21, 0x00	; 0
    366a:	40 83       	st	Z, r20
    366c:	51 83       	std	Z+1, r21	; 0x01
    reactStr[2][number]=type;
    366e:	88 0f       	add	r24, r24
    3670:	99 1f       	adc	r25, r25
    3672:	fc 01       	movw	r30, r24
    3674:	ef 55       	subi	r30, 0x5F	; 95
    3676:	f6 4c       	sbci	r31, 0xC6	; 198
    3678:	e0 82       	st	Z, r14
    367a:	f1 82       	std	Z+1, r15	; 0x01
                                        SetResponse(elements++, A_CANTUSE, L_CANTUSE, TEASER);
                                    } else {
                                        SetResponse(elements++, A_PRIEST, L_PRIEST, TEASER);
                                        SetResponse(elements++, A_LF, 2, TEASER);
                                        SetResponse(elements++, A_RESPONSE, L_RESPONSE, TEASER);
                                        specialInput[0] = '1';
    367c:	30 93 10 39 	sts	0x3910, r19	; 0x803910 <specialInput>
                                        specialInput[1] = item;
    3680:	20 93 11 39 	sts	0x3911, r18	; 0x803911 <specialInput+0x1>
                                        specialInput[2] = 0;
    3684:	10 92 12 39 	sts	0x3912, r1	; 0x803912 <specialInput+0x2>
    3688:	d4 c2       	rjmp	.+1448   	; 0x3c32 <ProcessInput+0xef0>
                                    }
                                }

                            //Normal "use ... on ..." or "give ... to ..." action
                            } else if (actObj1.byteField[ACTION_ITEM] == actObj2.byteField[ITEM_NR]) {
    368a:	90 91 e9 38 	lds	r25, 0x38E9	; 0x8038e9 <actObj1.3989+0x9>
    368e:	80 91 c0 38 	lds	r24, 0x38C0	; 0x8038c0 <actObj2.3990+0xb>
    3692:	98 13       	cpse	r25, r24
    3694:	2e c0       	rjmp	.+92     	; 0x36f2 <ProcessInput+0x9b0>
                                SetResponse(elements++, actObj1.addrStr[ACTION_MSG], actObj1.lenStr[ACTION_MSG], GAME);
    3696:	20 91 06 39 	lds	r18, 0x3906	; 0x803906 <actObj1.3989+0x26>
    369a:	30 91 07 39 	lds	r19, 0x3907	; 0x803907 <actObj1.3989+0x27>
    369e:	01 e0       	ldi	r16, 0x01	; 1
    36a0:	01 0f       	add	r16, r17
    return 0;
}

//
void SetResponse(uint8_t number, uint16_t address, uint16_t length, uint8_t type){
    reactStr[0][number]=address;
    36a2:	81 2f       	mov	r24, r17
    36a4:	90 e0       	ldi	r25, 0x00	; 0
    36a6:	fc 01       	movw	r30, r24
    36a8:	ee 0f       	add	r30, r30
    36aa:	ff 1f       	adc	r31, r31
    36ac:	ef 5d       	subi	r30, 0xDF	; 223
    36ae:	f6 4c       	sbci	r31, 0xC6	; 198
    36b0:	40 91 f8 38 	lds	r20, 0x38F8	; 0x8038f8 <actObj1.3989+0x18>
    36b4:	50 91 f9 38 	lds	r21, 0x38F9	; 0x8038f9 <actObj1.3989+0x19>
    36b8:	40 83       	st	Z, r20
    36ba:	51 83       	std	Z+1, r21	; 0x01
    reactStr[1][number]=length;
    36bc:	fc 01       	movw	r30, r24
    36be:	ee 0f       	add	r30, r30
    36c0:	ff 1f       	adc	r31, r31
    36c2:	ef 59       	subi	r30, 0x9F	; 159
    36c4:	f6 4c       	sbci	r31, 0xC6	; 198
    36c6:	20 83       	st	Z, r18
    36c8:	31 83       	std	Z+1, r19	; 0x01
    reactStr[2][number]=type;
    36ca:	88 0f       	add	r24, r24
    36cc:	99 1f       	adc	r25, r25
    36ce:	fc 01       	movw	r30, r24
    36d0:	ef 55       	subi	r30, 0x5F	; 95
    36d2:	f6 4c       	sbci	r31, 0xC6	; 198
    36d4:	10 82       	st	Z, r1
    36d6:	11 82       	std	Z+1, r1	; 0x01
                                }

                            //Normal "use ... on ..." or "give ... to ..." action
                            } else if (actObj1.byteField[ACTION_ITEM] == actObj2.byteField[ITEM_NR]) {
                                SetResponse(elements++, actObj1.addrStr[ACTION_MSG], actObj1.lenStr[ACTION_MSG], GAME);
                                effect = actObj1.effect[2];
    36d8:	80 91 0a 39 	lds	r24, 0x390A	; 0x80390a <actObj1.3989+0x2a>
    36dc:	90 e0       	ldi	r25, 0x00	; 0
    36de:	80 93 40 38 	sts	0x3840, r24	; 0x803840 <effect>
    36e2:	90 93 41 38 	sts	0x3841, r25	; 0x803841 <effect+0x1>
                                UpdateState(actObj1.byteField[ACTION_STATE]);
    36e6:	80 91 ea 38 	lds	r24, 0x38EA	; 0x8038ea <actObj1.3989+0xa>
    36ea:	0e 94 f4 09 	call	0x13e8	; 0x13e8 <UpdateState>
                                    }
                                }

                            //Normal "use ... on ..." or "give ... to ..." action
                            } else if (actObj1.byteField[ACTION_ITEM] == actObj2.byteField[ITEM_NR]) {
                                SetResponse(elements++, actObj1.addrStr[ACTION_MSG], actObj1.lenStr[ACTION_MSG], GAME);
    36ee:	10 2f       	mov	r17, r16
    36f0:	a0 c2       	rjmp	.+1344   	; 0x3c32 <ProcessInput+0xef0>
                                effect = actObj1.effect[2];
                                UpdateState(actObj1.byteField[ACTION_STATE]);
                                
                            } else {
                                if (data[0] == 'u') {
    36f2:	f3 01       	movw	r30, r6
    36f4:	80 81       	ld	r24, Z
    36f6:	85 37       	cpi	r24, 0x75	; 117
    36f8:	99 f4       	brne	.+38     	; 0x3720 <ProcessInput+0x9de>
    return 0;
}

//
void SetResponse(uint8_t number, uint16_t address, uint16_t length, uint8_t type){
    reactStr[0][number]=address;
    36fa:	81 2f       	mov	r24, r17
    36fc:	90 e0       	ldi	r25, 0x00	; 0
    36fe:	fc 01       	movw	r30, r24
    3700:	ee 0f       	add	r30, r30
    3702:	ff 1f       	adc	r31, r31
    3704:	ef 5d       	subi	r30, 0xDF	; 223
    3706:	f6 4c       	sbci	r31, 0xC6	; 198
    3708:	21 e0       	ldi	r18, 0x01	; 1
    370a:	39 e7       	ldi	r19, 0x79	; 121
    370c:	20 83       	st	Z, r18
    370e:	31 83       	std	Z+1, r19	; 0x01
    reactStr[1][number]=length;
    3710:	fc 01       	movw	r30, r24
    3712:	ee 0f       	add	r30, r30
    3714:	ff 1f       	adc	r31, r31
    3716:	ef 59       	subi	r30, 0x9F	; 159
    3718:	f6 4c       	sbci	r31, 0xC6	; 198
    371a:	2a e1       	ldi	r18, 0x1A	; 26
    371c:	30 e0       	ldi	r19, 0x00	; 0
    371e:	15 c0       	rjmp	.+42     	; 0x374a <ProcessInput+0xa08>
                                UpdateState(actObj1.byteField[ACTION_STATE]);
                                
                            } else {
                                if (data[0] == 'u') {
                                    SetResponse(elements++, A_CANTUSE, L_CANTUSE, TEASER);
                                } else if (data[0] == 'g') {
    3720:	87 36       	cpi	r24, 0x67	; 103
    3722:	09 f0       	breq	.+2      	; 0x3726 <ProcessInput+0x9e4>
    3724:	86 c2       	rjmp	.+1292   	; 0x3c32 <ProcessInput+0xef0>
    return 0;
}

//
void SetResponse(uint8_t number, uint16_t address, uint16_t length, uint8_t type){
    reactStr[0][number]=address;
    3726:	81 2f       	mov	r24, r17
    3728:	90 e0       	ldi	r25, 0x00	; 0
    372a:	fc 01       	movw	r30, r24
    372c:	ee 0f       	add	r30, r30
    372e:	ff 1f       	adc	r31, r31
    3730:	ef 5d       	subi	r30, 0xDF	; 223
    3732:	f6 4c       	sbci	r31, 0xC6	; 198
    3734:	2f e9       	ldi	r18, 0x9F	; 159
    3736:	36 e7       	ldi	r19, 0x76	; 118
    3738:	20 83       	st	Z, r18
    373a:	31 83       	std	Z+1, r19	; 0x01
    reactStr[1][number]=length;
    373c:	fc 01       	movw	r30, r24
    373e:	ee 0f       	add	r30, r30
    3740:	ff 1f       	adc	r31, r31
    3742:	ef 59       	subi	r30, 0x9F	; 159
    3744:	f6 4c       	sbci	r31, 0xC6	; 198
    3746:	28 e2       	ldi	r18, 0x28	; 40
    3748:	30 e0       	ldi	r19, 0x00	; 0
    374a:	20 83       	st	Z, r18
    374c:	31 83       	std	Z+1, r19	; 0x01
    reactStr[2][number]=type;
    374e:	88 0f       	add	r24, r24
    3750:	99 1f       	adc	r25, r25
    3752:	fc 01       	movw	r30, r24
    3754:	ef 55       	subi	r30, 0x5F	; 95
    3756:	f6 4c       	sbci	r31, 0xC6	; 198
    3758:	81 e0       	ldi	r24, 0x01	; 1
    375a:	90 e0       	ldi	r25, 0x00	; 0
    375c:	80 83       	st	Z, r24
    375e:	91 83       	std	Z+1, r25	; 0x01
                                
                            } else {
                                if (data[0] == 'u') {
                                    SetResponse(elements++, A_CANTUSE, L_CANTUSE, TEASER);
                                } else if (data[0] == 'g') {
                                    SetResponse(elements++, A_CANTGIVE, L_CANTGIVE, TEASER);                                    
    3760:	1f 5f       	subi	r17, 0xFF	; 255
    3762:	67 c2       	rjmp	.+1230   	; 0x3c32 <ProcessInput+0xef0>
                            }
                        }
                    
                    //Talk to person, read or use object (without item)                          
                    } else {
                        PopulateObject(route[currDepth+1], &actObj1);
    3764:	60 ee       	ldi	r22, 0xE0	; 224
    3766:	78 e3       	ldi	r23, 0x38	; 56
    3768:	0e 94 0c 12 	call	0x2418	; 0x2418 <PopulateObject>
                        if ((data[0] == 't')&&((actObj1.byteField[ACTION_MASK]&TALK) == 0)) {
    376c:	d3 01       	movw	r26, r6
    376e:	8c 91       	ld	r24, X
    3770:	84 37       	cpi	r24, 0x74	; 116
    3772:	61 f5       	brne	.+88     	; 0x37cc <ProcessInput+0xa8a>
    3774:	80 91 e8 38 	lds	r24, 0x38E8	; 0x8038e8 <actObj1.3989+0x8>
    3778:	83 fd       	sbrc	r24, 3
    377a:	43 c0       	rjmp	.+134    	; 0x3802 <ProcessInput+0xac0>
    return 0;
}

//
void SetResponse(uint8_t number, uint16_t address, uint16_t length, uint8_t type){
    reactStr[0][number]=address;
    377c:	8b e1       	ldi	r24, 0x1B	; 27
    377e:	99 e7       	ldi	r25, 0x79	; 121
    3780:	80 93 23 39 	sts	0x3923, r24	; 0x803923 <reactStr+0x2>
    3784:	90 93 24 39 	sts	0x3924, r25	; 0x803924 <reactStr+0x3>
    reactStr[1][number]=length;
    3788:	8e e1       	ldi	r24, 0x1E	; 30
    378a:	90 e0       	ldi	r25, 0x00	; 0
    378c:	80 93 63 39 	sts	0x3963, r24	; 0x803963 <reactStr+0x42>
    3790:	90 93 64 39 	sts	0x3964, r25	; 0x803964 <reactStr+0x43>
    reactStr[2][number]=type;
    3794:	81 e0       	ldi	r24, 0x01	; 1
    3796:	90 e0       	ldi	r25, 0x00	; 0
    3798:	80 93 a3 39 	sts	0x39A3, r24	; 0x8039a3 <reactStr+0x82>
    379c:	90 93 a4 39 	sts	0x39A4, r25	; 0x8039a4 <reactStr+0x83>
                    //Talk to person, read or use object (without item)                          
                    } else {
                        PopulateObject(route[currDepth+1], &actObj1);
                        if ((data[0] == 't')&&((actObj1.byteField[ACTION_MASK]&TALK) == 0)) {
                            SetResponse(elements++, A_WHYTALK, L_WHYTALK, TEASER);
                            SetResponse(elements++, actObj1.addrStr[NAME], actObj1.lenStr[NAME], GAME);
    37a0:	80 91 fa 38 	lds	r24, 0x38FA	; 0x8038fa <actObj1.3989+0x1a>
    37a4:	90 91 fb 38 	lds	r25, 0x38FB	; 0x8038fb <actObj1.3989+0x1b>
    return 0;
}

//
void SetResponse(uint8_t number, uint16_t address, uint16_t length, uint8_t type){
    reactStr[0][number]=address;
    37a8:	20 91 ec 38 	lds	r18, 0x38EC	; 0x8038ec <actObj1.3989+0xc>
    37ac:	30 91 ed 38 	lds	r19, 0x38ED	; 0x8038ed <actObj1.3989+0xd>
    37b0:	20 93 25 39 	sts	0x3925, r18	; 0x803925 <reactStr+0x4>
    37b4:	30 93 26 39 	sts	0x3926, r19	; 0x803926 <reactStr+0x5>
    reactStr[1][number]=length;
    37b8:	80 93 65 39 	sts	0x3965, r24	; 0x803965 <reactStr+0x44>
    37bc:	90 93 66 39 	sts	0x3966, r25	; 0x803966 <reactStr+0x45>
    reactStr[2][number]=type;
    37c0:	10 92 a5 39 	sts	0x39A5, r1	; 0x8039a5 <reactStr+0x84>
    37c4:	10 92 a6 39 	sts	0x39A6, r1	; 0x8039a6 <reactStr+0x85>
                    //Talk to person, read or use object (without item)                          
                    } else {
                        PopulateObject(route[currDepth+1], &actObj1);
                        if ((data[0] == 't')&&((actObj1.byteField[ACTION_MASK]&TALK) == 0)) {
                            SetResponse(elements++, A_WHYTALK, L_WHYTALK, TEASER);
                            SetResponse(elements++, actObj1.addrStr[NAME], actObj1.lenStr[NAME], GAME);
    37c8:	13 e0       	ldi	r17, 0x03	; 3
    37ca:	33 c2       	rjmp	.+1126   	; 0x3c32 <ProcessInput+0xef0>
                        } else if ((data[0] == 'u')&&((actObj1.byteField[ACTION_MASK]&USE) == 0)) {
    37cc:	85 37       	cpi	r24, 0x75	; 117
    37ce:	39 f4       	brne	.+14     	; 0x37de <ProcessInput+0xa9c>
    37d0:	80 91 e8 38 	lds	r24, 0x38E8	; 0x8038e8 <actObj1.3989+0x8>
    37d4:	84 fd       	sbrc	r24, 4
    37d6:	15 c0       	rjmp	.+42     	; 0x3802 <ProcessInput+0xac0>
    return 0;
}

//
void SetResponse(uint8_t number, uint16_t address, uint16_t length, uint8_t type){
    reactStr[0][number]=address;
    37d8:	81 e0       	ldi	r24, 0x01	; 1
    37da:	99 e7       	ldi	r25, 0x79	; 121
    37dc:	3b c2       	rjmp	.+1142   	; 0x3c54 <ProcessInput+0xf12>
                        if ((data[0] == 't')&&((actObj1.byteField[ACTION_MASK]&TALK) == 0)) {
                            SetResponse(elements++, A_WHYTALK, L_WHYTALK, TEASER);
                            SetResponse(elements++, actObj1.addrStr[NAME], actObj1.lenStr[NAME], GAME);
                        } else if ((data[0] == 'u')&&((actObj1.byteField[ACTION_MASK]&USE) == 0)) {
                            SetResponse(elements++, A_CANTUSE, L_CANTUSE, TEASER);
                        } else if ((data[0] == 'r')&&((actObj1.byteField[ACTION_MASK]&READ) == 0)) {
    37de:	82 37       	cpi	r24, 0x72	; 114
    37e0:	69 f4       	brne	.+26     	; 0x37fc <ProcessInput+0xaba>
    37e2:	80 91 e8 38 	lds	r24, 0x38E8	; 0x8038e8 <actObj1.3989+0x8>
    37e6:	85 fd       	sbrc	r24, 5
    37e8:	0c c0       	rjmp	.+24     	; 0x3802 <ProcessInput+0xac0>
    return 0;
}

//
void SetResponse(uint8_t number, uint16_t address, uint16_t length, uint8_t type){
    reactStr[0][number]=address;
    37ea:	86 ee       	ldi	r24, 0xE6	; 230
    37ec:	98 e7       	ldi	r25, 0x78	; 120
    37ee:	80 93 23 39 	sts	0x3923, r24	; 0x803923 <reactStr+0x2>
    37f2:	90 93 24 39 	sts	0x3924, r25	; 0x803924 <reactStr+0x3>
    reactStr[1][number]=length;
    37f6:	8b e1       	ldi	r24, 0x1B	; 27
    37f8:	90 e0       	ldi	r25, 0x00	; 0
    37fa:	78 cb       	rjmp	.-2320   	; 0x2eec <ProcessInput+0x1aa>
                            SetResponse(elements++, actObj1.addrStr[NAME], actObj1.lenStr[NAME], GAME);
                        } else if ((data[0] == 'u')&&((actObj1.byteField[ACTION_MASK]&USE) == 0)) {
                            SetResponse(elements++, A_CANTUSE, L_CANTUSE, TEASER);
                        } else if ((data[0] == 'r')&&((actObj1.byteField[ACTION_MASK]&READ) == 0)) {
                            SetResponse(elements++, A_CANTREAD, L_CANTREAD, TEASER);
                        } else if (data[0] == 'g'){ 
    37fc:	87 36       	cpi	r24, 0x67	; 103
    37fe:	09 f4       	brne	.+2      	; 0x3802 <ProcessInput+0xac0>
    3800:	e0 ca       	rjmp	.-2624   	; 0x2dc2 <ProcessInput+0x80>
                            SetResponse(elements++, A_NOTPOSSIBLE, L_NOTPOSSIBLE, TEASER);  
                        } else {

                            //Special game, not enough characters
                            if (actObj1.lenStr[ACTION_STR1] == 1) {
    3802:	00 91 fe 38 	lds	r16, 0x38FE	; 0x8038fe <actObj1.3989+0x1e>
    3806:	10 91 ff 38 	lds	r17, 0x38FF	; 0x8038ff <actObj1.3989+0x1f>
    380a:	01 30       	cpi	r16, 0x01	; 1
    380c:	11 05       	cpc	r17, r1
    380e:	09 f5       	brne	.+66     	; 0x3852 <ProcessInput+0xb10>
                                ExtEERead(actObj1.addrStr[ACTION_STR1], 1, GAME, &data[2]);
    3810:	93 01       	movw	r18, r6
    3812:	2e 5f       	subi	r18, 0xFE	; 254
    3814:	3f 4f       	sbci	r19, 0xFF	; 255
    3816:	40 e0       	ldi	r20, 0x00	; 0
    3818:	61 e0       	ldi	r22, 0x01	; 1
    381a:	80 91 f0 38 	lds	r24, 0x38F0	; 0x8038f0 <actObj1.3989+0x10>
    381e:	90 91 f1 38 	lds	r25, 0x38F1	; 0x8038f1 <actObj1.3989+0x11>
    3822:	0e 94 4a 08 	call	0x1094	; 0x1094 <ExtEERead>
                                if (data[2] == '1') {
    3826:	f3 01       	movw	r30, r6
    3828:	82 81       	ldd	r24, Z+2	; 0x02
    382a:	81 33       	cpi	r24, 0x31	; 49
    382c:	09 f0       	breq	.+2      	; 0x3830 <ProcessInput+0xaee>
    382e:	13 cd       	rjmp	.-1498   	; 0x3256 <ProcessInput+0x514>
    return 0;
}

//
void SetResponse(uint8_t number, uint16_t address, uint16_t length, uint8_t type){
    reactStr[0][number]=address;
    3830:	85 e2       	ldi	r24, 0x25	; 37
    3832:	95 e7       	ldi	r25, 0x75	; 117
    3834:	80 93 23 39 	sts	0x3923, r24	; 0x803923 <reactStr+0x2>
    3838:	90 93 24 39 	sts	0x3924, r25	; 0x803924 <reactStr+0x3>
    reactStr[1][number]=length;
    383c:	8b e2       	ldi	r24, 0x2B	; 43
    383e:	90 e0       	ldi	r25, 0x00	; 0
    3840:	80 93 63 39 	sts	0x3963, r24	; 0x803963 <reactStr+0x42>
    3844:	90 93 64 39 	sts	0x3964, r25	; 0x803964 <reactStr+0x43>
    reactStr[2][number]=type;
    3848:	00 93 a3 39 	sts	0x39A3, r16	; 0x8039a3 <reactStr+0x82>
    384c:	10 93 a4 39 	sts	0x39A4, r17	; 0x8039a4 <reactStr+0x83>
    3850:	57 cb       	rjmp	.-2386   	; 0x2f00 <ProcessInput+0x1be>
                                if (data[2] == '1') {
                                    SetResponse(elements++, A_PLEASEOFFER, L_PLEASEOFFER, TEASER);
                                }

                            //General request
                            } else if (actObj1.lenStr[ACTION_STR1]) {
    3852:	01 15       	cp	r16, r1
    3854:	11 05       	cpc	r17, r1
    3856:	09 f4       	brne	.+2      	; 0x385a <ProcessInput+0xb18>
    3858:	58 c0       	rjmp	.+176    	; 0x390a <ProcessInput+0xbc8>
    return 0;
}

//
void SetResponse(uint8_t number, uint16_t address, uint16_t length, uint8_t type){
    reactStr[0][number]=address;
    385a:	80 91 f0 38 	lds	r24, 0x38F0	; 0x8038f0 <actObj1.3989+0x10>
    385e:	90 91 f1 38 	lds	r25, 0x38F1	; 0x8038f1 <actObj1.3989+0x11>
    3862:	80 93 23 39 	sts	0x3923, r24	; 0x803923 <reactStr+0x2>
    3866:	90 93 24 39 	sts	0x3924, r25	; 0x803924 <reactStr+0x3>
    reactStr[1][number]=length;
    386a:	00 93 63 39 	sts	0x3963, r16	; 0x803963 <reactStr+0x42>
    386e:	10 93 64 39 	sts	0x3964, r17	; 0x803964 <reactStr+0x43>
    reactStr[2][number]=type;
    3872:	10 92 a3 39 	sts	0x39A3, r1	; 0x8039a3 <reactStr+0x82>
    3876:	10 92 a4 39 	sts	0x39A4, r1	; 0x8039a4 <reactStr+0x83>
    return 0;
}

//
void SetResponse(uint8_t number, uint16_t address, uint16_t length, uint8_t type){
    reactStr[0][number]=address;
    387a:	89 e5       	ldi	r24, 0x59	; 89
    387c:	9a e7       	ldi	r25, 0x7A	; 122
    387e:	80 93 25 39 	sts	0x3925, r24	; 0x803925 <reactStr+0x4>
    3882:	90 93 26 39 	sts	0x3926, r25	; 0x803926 <reactStr+0x5>
    reactStr[1][number]=length;
    3886:	82 e0       	ldi	r24, 0x02	; 2
    3888:	90 e0       	ldi	r25, 0x00	; 0
    388a:	80 93 65 39 	sts	0x3965, r24	; 0x803965 <reactStr+0x44>
    388e:	90 93 66 39 	sts	0x3966, r25	; 0x803966 <reactStr+0x45>
    reactStr[2][number]=type;
    3892:	81 e0       	ldi	r24, 0x01	; 1
    3894:	90 e0       	ldi	r25, 0x00	; 0
    3896:	80 93 a5 39 	sts	0x39A5, r24	; 0x8039a5 <reactStr+0x84>
    389a:	90 93 a6 39 	sts	0x39A6, r25	; 0x8039a6 <reactStr+0x85>
    return 0;
}

//
void SetResponse(uint8_t number, uint16_t address, uint16_t length, uint8_t type){
    reactStr[0][number]=address;
    389e:	2d ea       	ldi	r18, 0xAD	; 173
    38a0:	38 e7       	ldi	r19, 0x78	; 120
    38a2:	20 93 27 39 	sts	0x3927, r18	; 0x803927 <reactStr+0x6>
    38a6:	30 93 28 39 	sts	0x3928, r19	; 0x803928 <reactStr+0x7>
    reactStr[1][number]=length;
    38aa:	22 e1       	ldi	r18, 0x12	; 18
    38ac:	30 e0       	ldi	r19, 0x00	; 0
    38ae:	20 93 67 39 	sts	0x3967, r18	; 0x803967 <reactStr+0x46>
    38b2:	30 93 68 39 	sts	0x3968, r19	; 0x803968 <reactStr+0x47>
    reactStr[2][number]=type;
    38b6:	80 93 a7 39 	sts	0x39A7, r24	; 0x8039a7 <reactStr+0x86>
    38ba:	90 93 a8 39 	sts	0x39A8, r25	; 0x8039a8 <reactStr+0x87>
                            //General request
                            } else if (actObj1.lenStr[ACTION_STR1]) {
                                SetResponse(elements++, actObj1.addrStr[ACTION_STR1], actObj1.lenStr[ACTION_STR1], GAME);
                                SetResponse(elements++, A_LF, 2, TEASER);
                                SetResponse(elements++, A_RESPONSE, L_RESPONSE, TEASER);
                                if (actObj1.lenStr[ACTION_STR2]>(INP_LENGTH-1)) actObj1.lenStr[ACTION_STR2] = (INP_LENGTH-1);
    38be:	80 91 00 39 	lds	r24, 0x3900	; 0x803900 <actObj1.3989+0x20>
    38c2:	90 91 01 39 	lds	r25, 0x3901	; 0x803901 <actObj1.3989+0x21>
    38c6:	40 97       	sbiw	r24, 0x10	; 16
    38c8:	30 f0       	brcs	.+12     	; 0x38d6 <ProcessInput+0xb94>
    38ca:	8f e0       	ldi	r24, 0x0F	; 15
    38cc:	90 e0       	ldi	r25, 0x00	; 0
    38ce:	80 93 00 39 	sts	0x3900, r24	; 0x803900 <actObj1.3989+0x20>
    38d2:	90 93 01 39 	sts	0x3901, r25	; 0x803901 <actObj1.3989+0x21>
                                ExtEERead(actObj1.addrStr[ACTION_STR2], actObj1.lenStr[ACTION_STR2], GAME, (uint8_t *)&specialInput[0]);
    38d6:	20 e1       	ldi	r18, 0x10	; 16
    38d8:	39 e3       	ldi	r19, 0x39	; 57
    38da:	40 e0       	ldi	r20, 0x00	; 0
    38dc:	60 91 00 39 	lds	r22, 0x3900	; 0x803900 <actObj1.3989+0x20>
    38e0:	80 91 f2 38 	lds	r24, 0x38F2	; 0x8038f2 <actObj1.3989+0x12>
    38e4:	90 91 f3 38 	lds	r25, 0x38F3	; 0x8038f3 <actObj1.3989+0x13>
    38e8:	0e 94 4a 08 	call	0x1094	; 0x1094 <ExtEERead>
                                UnflipData(actObj1.lenStr[ACTION_STR2], (uint8_t *)&specialInput[0]);
    38ec:	60 e1       	ldi	r22, 0x10	; 16
    38ee:	79 e3       	ldi	r23, 0x39	; 57
    38f0:	80 91 00 39 	lds	r24, 0x3900	; 0x803900 <actObj1.3989+0x20>
    38f4:	0e 94 22 11 	call	0x2244	; 0x2244 <UnflipData>
                                specialInput[actObj1.lenStr[ACTION_STR2]] = 0;
    38f8:	e0 91 00 39 	lds	r30, 0x3900	; 0x803900 <actObj1.3989+0x20>
    38fc:	f0 91 01 39 	lds	r31, 0x3901	; 0x803901 <actObj1.3989+0x21>
    3900:	e0 5f       	subi	r30, 0xF0	; 240
    3902:	f6 4c       	sbci	r31, 0xC6	; 198
    3904:	10 82       	st	Z, r1

                            //General request
                            } else if (actObj1.lenStr[ACTION_STR1]) {
                                SetResponse(elements++, actObj1.addrStr[ACTION_STR1], actObj1.lenStr[ACTION_STR1], GAME);
                                SetResponse(elements++, A_LF, 2, TEASER);
                                SetResponse(elements++, A_RESPONSE, L_RESPONSE, TEASER);
    3906:	14 e0       	ldi	r17, 0x04	; 4
    3908:	94 c1       	rjmp	.+808    	; 0x3c32 <ProcessInput+0xef0>
                                ExtEERead(actObj1.addrStr[ACTION_STR2], actObj1.lenStr[ACTION_STR2], GAME, (uint8_t *)&specialInput[0]);
                                UnflipData(actObj1.lenStr[ACTION_STR2], (uint8_t *)&specialInput[0]);
                                specialInput[actObj1.lenStr[ACTION_STR2]] = 0;
                            
                            //Normal action    
                            } else if (CheckState(actObj1.byteField[ACTION_ACL])){
    390a:	80 91 e7 38 	lds	r24, 0x38E7	; 0x8038e7 <actObj1.3989+0x7>
    390e:	0e 94 15 0a 	call	0x142a	; 0x142a <CheckState>
    3912:	88 23       	and	r24, r24
    3914:	01 f1       	breq	.+64     	; 0x3956 <ProcessInput+0xc14>
                                SetResponse(elements++, actObj1.addrStr[ACTION_MSG], actObj1.lenStr[ACTION_MSG], GAME);
    3916:	80 91 06 39 	lds	r24, 0x3906	; 0x803906 <actObj1.3989+0x26>
    391a:	90 91 07 39 	lds	r25, 0x3907	; 0x803907 <actObj1.3989+0x27>
    return 0;
}

//
void SetResponse(uint8_t number, uint16_t address, uint16_t length, uint8_t type){
    reactStr[0][number]=address;
    391e:	20 91 f8 38 	lds	r18, 0x38F8	; 0x8038f8 <actObj1.3989+0x18>
    3922:	30 91 f9 38 	lds	r19, 0x38F9	; 0x8038f9 <actObj1.3989+0x19>
    3926:	20 93 23 39 	sts	0x3923, r18	; 0x803923 <reactStr+0x2>
    392a:	30 93 24 39 	sts	0x3924, r19	; 0x803924 <reactStr+0x3>
    reactStr[1][number]=length;
    392e:	80 93 63 39 	sts	0x3963, r24	; 0x803963 <reactStr+0x42>
    3932:	90 93 64 39 	sts	0x3964, r25	; 0x803964 <reactStr+0x43>
    reactStr[2][number]=type;
    3936:	10 92 a3 39 	sts	0x39A3, r1	; 0x8039a3 <reactStr+0x82>
    393a:	10 92 a4 39 	sts	0x39A4, r1	; 0x8039a4 <reactStr+0x83>
                                specialInput[actObj1.lenStr[ACTION_STR2]] = 0;
                            
                            //Normal action    
                            } else if (CheckState(actObj1.byteField[ACTION_ACL])){
                                SetResponse(elements++, actObj1.addrStr[ACTION_MSG], actObj1.lenStr[ACTION_MSG], GAME);
                                effect = actObj1.effect[2];
    393e:	80 91 0a 39 	lds	r24, 0x390A	; 0x80390a <actObj1.3989+0x2a>
    3942:	90 e0       	ldi	r25, 0x00	; 0
    3944:	80 93 40 38 	sts	0x3840, r24	; 0x803840 <effect>
    3948:	90 93 41 38 	sts	0x3841, r25	; 0x803841 <effect+0x1>
                                UpdateState(actObj1.byteField[ACTION_STATE]);
    394c:	80 91 ea 38 	lds	r24, 0x38EA	; 0x8038ea <actObj1.3989+0xa>
    3950:	0e 94 f4 09 	call	0x13e8	; 0x13e8 <UpdateState>
    3954:	d5 ca       	rjmp	.-2646   	; 0x2f00 <ProcessInput+0x1be>
                            } else {
                                SetResponse(elements++, actObj1.addrStr[ACTION_ACL_MSG], actObj1.lenStr[ACTION_ACL_MSG], GAME);
    3956:	80 91 04 39 	lds	r24, 0x3904	; 0x803904 <actObj1.3989+0x24>
    395a:	90 91 05 39 	lds	r25, 0x3905	; 0x803905 <actObj1.3989+0x25>
    return 0;
}

//
void SetResponse(uint8_t number, uint16_t address, uint16_t length, uint8_t type){
    reactStr[0][number]=address;
    395e:	20 91 f6 38 	lds	r18, 0x38F6	; 0x8038f6 <actObj1.3989+0x16>
    3962:	30 91 f7 38 	lds	r19, 0x38F7	; 0x8038f7 <actObj1.3989+0x17>
    3966:	20 93 23 39 	sts	0x3923, r18	; 0x803923 <reactStr+0x2>
    396a:	30 93 24 39 	sts	0x3924, r19	; 0x803924 <reactStr+0x3>
    reactStr[1][number]=length;
    396e:	80 93 63 39 	sts	0x3963, r24	; 0x803963 <reactStr+0x42>
    3972:	90 93 64 39 	sts	0x3964, r25	; 0x803964 <reactStr+0x43>
    reactStr[2][number]=type;
    3976:	10 92 a3 39 	sts	0x39A3, r1	; 0x8039a3 <reactStr+0x82>
    397a:	10 92 a4 39 	sts	0x39A4, r1	; 0x8039a4 <reactStr+0x83>
                                SetResponse(elements++, actObj1.addrStr[ACTION_MSG], actObj1.lenStr[ACTION_MSG], GAME);
                                effect = actObj1.effect[2];
                                UpdateState(actObj1.byteField[ACTION_STATE]);
                            } else {
                                SetResponse(elements++, actObj1.addrStr[ACTION_ACL_MSG], actObj1.lenStr[ACTION_ACL_MSG], GAME);
                                effect = actObj1.effect[1];
    397e:	80 91 09 39 	lds	r24, 0x3909	; 0x803909 <actObj1.3989+0x29>
    3982:	90 e0       	ldi	r25, 0x00	; 0
    3984:	80 93 40 38 	sts	0x3840, r24	; 0x803840 <effect>
    3988:	90 93 41 38 	sts	0x3841, r25	; 0x803841 <effect+0x1>
    398c:	b9 ca       	rjmp	.-2702   	; 0x2f00 <ProcessInput+0x1be>
                        }
                    }

                //Person or object not found
                } else {
                    if ((data[0] == 't')||(data[0] == 'g')){
    398e:	d3 01       	movw	r26, r6
    3990:	8c 91       	ld	r24, X
    3992:	84 37       	cpi	r24, 0x74	; 116
    3994:	11 f0       	breq	.+4      	; 0x399a <ProcessInput+0xc58>
    3996:	87 36       	cpi	r24, 0x67	; 103
    3998:	19 f4       	brne	.+6      	; 0x39a0 <ProcessInput+0xc5e>
    return 0;
}

//
void SetResponse(uint8_t number, uint16_t address, uint16_t length, uint8_t type){
    reactStr[0][number]=address;
    399a:	89 e3       	ldi	r24, 0x39	; 57
    399c:	99 e7       	ldi	r25, 0x79	; 121
    399e:	02 c0       	rjmp	.+4      	; 0x39a4 <ProcessInput+0xc62>
    39a0:	8d e4       	ldi	r24, 0x4D	; 77
    39a2:	99 e7       	ldi	r25, 0x79	; 121
    39a4:	80 93 23 39 	sts	0x3923, r24	; 0x803923 <reactStr+0x2>
    39a8:	90 93 24 39 	sts	0x3924, r25	; 0x803924 <reactStr+0x3>
    reactStr[1][number]=length;
    39ac:	84 e1       	ldi	r24, 0x14	; 20
    39ae:	90 e0       	ldi	r25, 0x00	; 0
    39b0:	9d ca       	rjmp	.-2758   	; 0x2eec <ProcessInput+0x1aa>
                    }
                }
            }
        
        //Special answer given
        } else if (data[0] == 'a'){
    39b2:	81 36       	cpi	r24, 0x61	; 97
    39b4:	09 f0       	breq	.+2      	; 0x39b8 <ProcessInput+0xc76>
    39b6:	4f cc       	rjmp	.-1890   	; 0x3256 <ProcessInput+0x514>
            
            //Priest offerings
            if (specialPassed >= 2) {
    39b8:	80 91 0f 39 	lds	r24, 0x390F	; 0x80390f <specialPassed>
    39bc:	82 30       	cpi	r24, 0x02	; 2
    39be:	08 f4       	brcc	.+2      	; 0x39c2 <ProcessInput+0xc80>
    39c0:	c7 c0       	rjmp	.+398    	; 0x3b50 <ProcessInput+0xe0e>
                if (data[1] > 0) {
    39c2:	f3 01       	movw	r30, r6
    39c4:	21 81       	ldd	r18, Z+1	; 0x01
    39c6:	22 23       	and	r18, r18
    39c8:	09 f4       	brne	.+2      	; 0x39cc <ProcessInput+0xc8a>
    39ca:	af c0       	rjmp	.+350    	; 0x3b2a <ProcessInput+0xde8>

                    //uint8_t  digit[10] = {0, 0, 0, 0, 0, 0, 0, 0, 0, 0};
                    uint8_t  digit[8] = {0, 0, 0, 0, 0, 0, 0, 0};
    39cc:	ce 01       	movw	r24, r28
    39ce:	01 96       	adiw	r24, 0x01	; 1
    39d0:	7c 01       	movw	r14, r24
    39d2:	88 e0       	ldi	r24, 0x08	; 8
    39d4:	d7 01       	movw	r26, r14
    39d6:	1d 92       	st	X+, r1
    39d8:	8a 95       	dec	r24
    39da:	e9 f7       	brne	.-6      	; 0x39d6 <ProcessInput+0xc94>
                        answer = ((offering  & 2) << 19) + ((offering  & 1) << 8) + \
                        ((element   & 2) << 15) + ((element   & 1) << 4) + \
                        ((kneelings & 2) << 11) + ((kneelings & 1))
                        answer = answer << (3-person)
                    */
                    data[1]-='0'; // item 31 needs to become something that results in 0 when doing %4
    39dc:	20 53       	subi	r18, 0x30	; 48
    39de:	21 83       	std	Z+1, r18	; 0x01
                    data[2]-='1';
    39e0:	32 81       	ldd	r19, Z+2	; 0x02
    39e2:	31 53       	subi	r19, 0x31	; 49
    39e4:	32 83       	std	Z+2, r19	; 0x02
                    if (data[3] == 'a') data[3] = 1;
    39e6:	83 81       	ldd	r24, Z+3	; 0x03
    39e8:	81 36       	cpi	r24, 0x61	; 97
    39ea:	11 f4       	brne	.+4      	; 0x39f0 <ProcessInput+0xcae>
    39ec:	81 e0       	ldi	r24, 0x01	; 1
    39ee:	0c c0       	rjmp	.+24     	; 0x3a08 <ProcessInput+0xcc6>
                    else if (data[3] == 'e') data[3] = 0;
    39f0:	85 36       	cpi	r24, 0x65	; 101
    39f2:	19 f4       	brne	.+6      	; 0x39fa <ProcessInput+0xcb8>
    39f4:	f3 01       	movw	r30, r6
    39f6:	13 82       	std	Z+3, r1	; 0x03
    39f8:	08 c0       	rjmp	.+16     	; 0x3a0a <ProcessInput+0xcc8>
                    else if (data[3] == 'f') data[3] = 3;
    39fa:	86 36       	cpi	r24, 0x66	; 102
    39fc:	19 f4       	brne	.+6      	; 0x3a04 <ProcessInput+0xcc2>
    39fe:	83 e0       	ldi	r24, 0x03	; 3
    3a00:	83 83       	std	Z+3, r24	; 0x03
    3a02:	03 c0       	rjmp	.+6      	; 0x3a0a <ProcessInput+0xcc8>
                    else data[3] = 2;
    3a04:	82 e0       	ldi	r24, 0x02	; 2
    3a06:	f3 01       	movw	r30, r6
    3a08:	83 83       	std	Z+3, r24	; 0x03

                    if (data[1] & 2) answer += (1UL << 20);
    3a0a:	21 fd       	sbrc	r18, 1
    3a0c:	04 c0       	rjmp	.+8      	; 0x3a16 <ProcessInput+0xcd4>
            if (specialPassed >= 2) {
                if (data[1] > 0) {

                    //uint8_t  digit[10] = {0, 0, 0, 0, 0, 0, 0, 0, 0, 0};
                    uint8_t  digit[8] = {0, 0, 0, 0, 0, 0, 0, 0};
                    uint32_t answer = 0;
    3a0e:	80 e0       	ldi	r24, 0x00	; 0
    3a10:	90 e0       	ldi	r25, 0x00	; 0
    3a12:	dc 01       	movw	r26, r24
    3a14:	04 c0       	rjmp	.+8      	; 0x3a1e <ProcessInput+0xcdc>
                    if (data[3] == 'a') data[3] = 1;
                    else if (data[3] == 'e') data[3] = 0;
                    else if (data[3] == 'f') data[3] = 3;
                    else data[3] = 2;

                    if (data[1] & 2) answer += (1UL << 20);
    3a16:	80 e0       	ldi	r24, 0x00	; 0
    3a18:	90 e0       	ldi	r25, 0x00	; 0
    3a1a:	a0 e1       	ldi	r26, 0x10	; 16
    3a1c:	b0 e0       	ldi	r27, 0x00	; 0
                    if (data[1] & 1) answer += (1 << 8);
    3a1e:	20 ff       	sbrs	r18, 0
    3a20:	03 c0       	rjmp	.+6      	; 0x3a28 <ProcessInput+0xce6>
    3a22:	9f 5f       	subi	r25, 0xFF	; 255
    3a24:	af 4f       	sbci	r26, 0xFF	; 255
    3a26:	bf 4f       	sbci	r27, 0xFF	; 255
                    if (data[3] & 2) answer += (1UL << 16);
    3a28:	f3 01       	movw	r30, r6
    3a2a:	23 81       	ldd	r18, Z+3	; 0x03
    3a2c:	21 fd       	sbrc	r18, 1
    3a2e:	11 96       	adiw	r26, 0x01	; 1
                    if (data[3] & 1) answer += (1 << 4);
    3a30:	20 ff       	sbrs	r18, 0
    3a32:	03 c0       	rjmp	.+6      	; 0x3a3a <ProcessInput+0xcf8>
    3a34:	40 96       	adiw	r24, 0x10	; 16
    3a36:	a1 1d       	adc	r26, r1
    3a38:	b1 1d       	adc	r27, r1
                    if (data[2] & 2) answer += (1 << 12);
    3a3a:	31 ff       	sbrs	r19, 1
    3a3c:	03 c0       	rjmp	.+6      	; 0x3a44 <ProcessInput+0xd02>
    3a3e:	90 5f       	subi	r25, 0xF0	; 240
    3a40:	af 4f       	sbci	r26, 0xFF	; 255
    3a42:	bf 4f       	sbci	r27, 0xFF	; 255
                    if (data[2] & 1) answer += 1;
    3a44:	30 ff       	sbrs	r19, 0
    3a46:	03 c0       	rjmp	.+6      	; 0x3a4e <ProcessInput+0xd0c>
    3a48:	01 96       	adiw	r24, 0x01	; 1
    3a4a:	a1 1d       	adc	r26, r1
    3a4c:	b1 1d       	adc	r27, r1
                    answer <<= (4 - whoami);            
    3a4e:	40 91 43 38 	lds	r20, 0x3843	; 0x803843 <whoami>
    3a52:	24 e0       	ldi	r18, 0x04	; 4
    3a54:	30 e0       	ldi	r19, 0x00	; 0
    3a56:	24 1b       	sub	r18, r20
    3a58:	31 09       	sbc	r19, r1
    3a5a:	04 c0       	rjmp	.+8      	; 0x3a64 <ProcessInput+0xd22>
    3a5c:	88 0f       	add	r24, r24
    3a5e:	99 1f       	adc	r25, r25
    3a60:	aa 1f       	adc	r26, r26
    3a62:	bb 1f       	adc	r27, r27
    3a64:	2a 95       	dec	r18
    3a66:	d2 f7       	brpl	.-12     	; 0x3a5c <ProcessInput+0xd1a>
    return 0;
}

//
void SetResponse(uint8_t number, uint16_t address, uint16_t length, uint8_t type){
    reactStr[0][number]=address;
    3a68:	28 ec       	ldi	r18, 0xC8	; 200
    3a6a:	34 e7       	ldi	r19, 0x74	; 116
    3a6c:	20 93 23 39 	sts	0x3923, r18	; 0x803923 <reactStr+0x2>
    3a70:	30 93 24 39 	sts	0x3924, r19	; 0x803924 <reactStr+0x3>
    reactStr[1][number]=length;
    3a74:	20 e2       	ldi	r18, 0x20	; 32
    3a76:	30 e0       	ldi	r19, 0x00	; 0
    3a78:	20 93 63 39 	sts	0x3963, r18	; 0x803963 <reactStr+0x42>
    3a7c:	30 93 64 39 	sts	0x3964, r19	; 0x803964 <reactStr+0x43>
    reactStr[2][number]=type;
    3a80:	21 e0       	ldi	r18, 0x01	; 1
    3a82:	30 e0       	ldi	r19, 0x00	; 0
    3a84:	20 93 a3 39 	sts	0x39A3, r18	; 0x8039a3 <reactStr+0x82>
    3a88:	30 93 a4 39 	sts	0x39A4, r19	; 0x8039a4 <reactStr+0x83>
    return 0;
}

//
void SetResponse(uint8_t number, uint16_t address, uint16_t length, uint8_t type){
    reactStr[0][number]=address;
    3a8c:	4d e9       	ldi	r20, 0x9D	; 157
    3a8e:	54 e7       	ldi	r21, 0x74	; 116
    3a90:	40 93 25 39 	sts	0x3925, r20	; 0x803925 <reactStr+0x4>
    3a94:	50 93 26 39 	sts	0x3926, r21	; 0x803926 <reactStr+0x5>
    reactStr[1][number]=length;
    3a98:	42 e0       	ldi	r20, 0x02	; 2
    3a9a:	50 e0       	ldi	r21, 0x00	; 0
    3a9c:	40 93 65 39 	sts	0x3965, r20	; 0x803965 <reactStr+0x44>
    3aa0:	50 93 66 39 	sts	0x3966, r21	; 0x803966 <reactStr+0x45>
    reactStr[2][number]=type;
    3aa4:	20 93 a5 39 	sts	0x39A5, r18	; 0x8039a5 <reactStr+0x84>
    3aa8:	30 93 a6 39 	sts	0x39A6, r19	; 0x8039a6 <reactStr+0x85>

                    SetResponse(elements++, A_YOURPART, L_YOURPART, TEASER);
                    SetResponse(elements++, A_HEXPREFIX, L_HEXPREFIX, TEASER);
                    
                    //Set up sending out number
                    for (n=7; n>=0; --n) {
    3aac:	07 e0       	ldi	r16, 0x07	; 7
                        digit[n] = answer % 16;
    3aae:	f7 01       	movw	r30, r14
    3ab0:	e0 0f       	add	r30, r16
    3ab2:	f1 1d       	adc	r31, r1
    3ab4:	28 2f       	mov	r18, r24
    3ab6:	2f 70       	andi	r18, 0x0F	; 15
    3ab8:	20 83       	st	Z, r18
                        answer /= 16;
    3aba:	44 e0       	ldi	r20, 0x04	; 4
    3abc:	b6 95       	lsr	r27
    3abe:	a7 95       	ror	r26
    3ac0:	97 95       	ror	r25
    3ac2:	87 95       	ror	r24
    3ac4:	4a 95       	dec	r20
    3ac6:	d1 f7       	brne	.-12     	; 0x3abc <ProcessInput+0xd7a>
                        if (answer == 0) break;
    3ac8:	00 97       	sbiw	r24, 0x00	; 0
    3aca:	a1 05       	cpc	r26, r1
    3acc:	b1 05       	cpc	r27, r1
    3ace:	49 f4       	brne	.+18     	; 0x3ae2 <ProcessInput+0xda0>
    3ad0:	21 e2       	ldi	r18, 0x21	; 33
    3ad2:	c2 2e       	mov	r12, r18
    3ad4:	29 e3       	ldi	r18, 0x39	; 57
    3ad6:	d2 2e       	mov	r13, r18
    3ad8:	13 e0       	ldi	r17, 0x03	; 3
}

//
void SetResponse(uint8_t number, uint16_t address, uint16_t length, uint8_t type){
    reactStr[0][number]=address;
    reactStr[1][number]=length;
    3ada:	aa 24       	eor	r10, r10
    3adc:	a3 94       	inc	r10
    3ade:	b1 2c       	mov	r11, r1
    3ae0:	02 c0       	rjmp	.+4      	; 0x3ae6 <ProcessInput+0xda4>

                    SetResponse(elements++, A_YOURPART, L_YOURPART, TEASER);
                    SetResponse(elements++, A_HEXPREFIX, L_HEXPREFIX, TEASER);
                    
                    //Set up sending out number
                    for (n=7; n>=0; --n) {
    3ae2:	01 50       	subi	r16, 0x01	; 1
                        digit[n] = answer % 16;
                        answer /= 16;
                        if (answer == 0) break;
                    }
    3ae4:	e4 cf       	rjmp	.-56     	; 0x3aae <ProcessInput+0xd6c>
    3ae6:	b2 e0       	ldi	r27, 0x02	; 2
    3ae8:	cb 0e       	add	r12, r27
    3aea:	d1 1c       	adc	r13, r1

                    for (; n<8; ++n) {
    3aec:	08 30       	cpi	r16, 0x08	; 8
    3aee:	08 f0       	brcs	.+2      	; 0x3af2 <ProcessInput+0xdb0>
    3af0:	9e c0       	rjmp	.+316    	; 0x3c2e <ProcessInput+0xeec>
                        SetResponse(elements++, A_DIGITS+digit[n], 1, TEASER);
    3af2:	1f 5f       	subi	r17, 0xFF	; 255
    3af4:	f7 01       	movw	r30, r14
    3af6:	e0 0f       	add	r30, r16
    3af8:	f1 1d       	adc	r31, r1
    return 0;
}

//
void SetResponse(uint8_t number, uint16_t address, uint16_t length, uint8_t type){
    reactStr[0][number]=address;
    3afa:	80 81       	ld	r24, Z
    3afc:	90 e0       	ldi	r25, 0x00	; 0
    3afe:	83 57       	subi	r24, 0x73	; 115
    3b00:	9b 48       	sbci	r25, 0x8B	; 139
    3b02:	d6 01       	movw	r26, r12
    3b04:	14 96       	adiw	r26, 0x04	; 4
    3b06:	8d 93       	st	X+, r24
    3b08:	9c 93       	st	X, r25
    3b0a:	15 97       	sbiw	r26, 0x05	; 5
    reactStr[1][number]=length;
    3b0c:	f6 01       	movw	r30, r12
    3b0e:	ec 5b       	subi	r30, 0xBC	; 188
    3b10:	ff 4f       	sbci	r31, 0xFF	; 255
    3b12:	a0 82       	st	Z, r10
    3b14:	b1 82       	std	Z+1, r11	; 0x01
    reactStr[2][number]=type;
    3b16:	e0 5c       	subi	r30, 0xC0	; 192
    3b18:	ff 4f       	sbci	r31, 0xFF	; 255
    3b1a:	a0 82       	st	Z, r10
    3b1c:	b1 82       	std	Z+1, r11	; 0x01
                        if (answer == 0) break;
                    }

                    for (; n<8; ++n) {
                        SetResponse(elements++, A_DIGITS+digit[n], 1, TEASER);
                        UpdateState(actObj1.byteField[ACTION_STATE]);
    3b1e:	80 91 ea 38 	lds	r24, 0x38EA	; 0x8038ea <actObj1.3989+0xa>
    3b22:	0e 94 f4 09 	call	0x13e8	; 0x13e8 <UpdateState>
                        digit[n] = answer % 16;
                        answer /= 16;
                        if (answer == 0) break;
                    }

                    for (; n<8; ++n) {
    3b26:	0f 5f       	subi	r16, 0xFF	; 255
    3b28:	de cf       	rjmp	.-68     	; 0x3ae6 <ProcessInput+0xda4>
    return 0;
}

//
void SetResponse(uint8_t number, uint16_t address, uint16_t length, uint8_t type){
    reactStr[0][number]=address;
    3b2a:	88 ee       	ldi	r24, 0xE8	; 232
    3b2c:	94 e7       	ldi	r25, 0x74	; 116
    3b2e:	80 93 23 39 	sts	0x3923, r24	; 0x803923 <reactStr+0x2>
    3b32:	90 93 24 39 	sts	0x3924, r25	; 0x803924 <reactStr+0x3>
    reactStr[1][number]=length;
    3b36:	8d e3       	ldi	r24, 0x3D	; 61
    3b38:	90 e0       	ldi	r25, 0x00	; 0
    3b3a:	80 93 63 39 	sts	0x3963, r24	; 0x803963 <reactStr+0x42>
    3b3e:	90 93 64 39 	sts	0x3964, r25	; 0x803964 <reactStr+0x43>
    reactStr[2][number]=type;
    3b42:	81 e0       	ldi	r24, 0x01	; 1
    3b44:	90 e0       	ldi	r25, 0x00	; 0
    3b46:	80 93 a3 39 	sts	0x39A3, r24	; 0x8039a3 <reactStr+0x82>
    3b4a:	90 93 a4 39 	sts	0x39A4, r25	; 0x8039a4 <reactStr+0x83>
    3b4e:	6e c0       	rjmp	.+220    	; 0x3c2c <ProcessInput+0xeea>
    3b50:	e0 91 34 38 	lds	r30, 0x3834	; 0x803834 <currDepth>
                    SetResponse(elements++, A_BADOFFERING, L_BADOFFERING, TEASER);
                }
            
            //Other questions    
            } else if (specialPassed == 1) {
                PopulateObject(route[currDepth+1], &actObj1);
    3b54:	f0 e0       	ldi	r31, 0x00	; 0
    3b56:	ee 0f       	add	r30, r30
    3b58:	ff 1f       	adc	r31, r31
    3b5a:	ed 51       	subi	r30, 0x1D	; 29
    3b5c:	f6 4c       	sbci	r31, 0xC6	; 198
    3b5e:	60 ee       	ldi	r22, 0xE0	; 224
    3b60:	78 e3       	ldi	r23, 0x38	; 56
                } else {
                    SetResponse(elements++, A_BADOFFERING, L_BADOFFERING, TEASER);
                }
            
            //Other questions    
            } else if (specialPassed == 1) {
    3b62:	81 30       	cpi	r24, 0x01	; 1
    3b64:	09 f0       	breq	.+2      	; 0x3b68 <ProcessInput+0xe26>
    3b66:	46 c0       	rjmp	.+140    	; 0x3bf4 <ProcessInput+0xeb2>
                PopulateObject(route[currDepth+1], &actObj1);
    3b68:	80 81       	ld	r24, Z
    3b6a:	91 81       	ldd	r25, Z+1	; 0x01
    3b6c:	0e 94 0c 12 	call	0x2418	; 0x2418 <PopulateObject>
                if (CheckState(actObj1.byteField[ACTION_ACL])){
    3b70:	80 91 e7 38 	lds	r24, 0x38E7	; 0x8038e7 <actObj1.3989+0x7>
    3b74:	0e 94 15 0a 	call	0x142a	; 0x142a <CheckState>
    3b78:	88 23       	and	r24, r24
    3b7a:	01 f1       	breq	.+64     	; 0x3bbc <ProcessInput+0xe7a>
                    SetResponse(elements++, actObj1.addrStr[ACTION_MSG], actObj1.lenStr[ACTION_MSG], GAME);
    3b7c:	80 91 06 39 	lds	r24, 0x3906	; 0x803906 <actObj1.3989+0x26>
    3b80:	90 91 07 39 	lds	r25, 0x3907	; 0x803907 <actObj1.3989+0x27>
    return 0;
}

//
void SetResponse(uint8_t number, uint16_t address, uint16_t length, uint8_t type){
    reactStr[0][number]=address;
    3b84:	20 91 f8 38 	lds	r18, 0x38F8	; 0x8038f8 <actObj1.3989+0x18>
    3b88:	30 91 f9 38 	lds	r19, 0x38F9	; 0x8038f9 <actObj1.3989+0x19>
    3b8c:	20 93 23 39 	sts	0x3923, r18	; 0x803923 <reactStr+0x2>
    3b90:	30 93 24 39 	sts	0x3924, r19	; 0x803924 <reactStr+0x3>
    reactStr[1][number]=length;
    3b94:	80 93 63 39 	sts	0x3963, r24	; 0x803963 <reactStr+0x42>
    3b98:	90 93 64 39 	sts	0x3964, r25	; 0x803964 <reactStr+0x43>
    reactStr[2][number]=type;
    3b9c:	10 92 a3 39 	sts	0x39A3, r1	; 0x8039a3 <reactStr+0x82>
    3ba0:	10 92 a4 39 	sts	0x39A4, r1	; 0x8039a4 <reactStr+0x83>
            //Other questions    
            } else if (specialPassed == 1) {
                PopulateObject(route[currDepth+1], &actObj1);
                if (CheckState(actObj1.byteField[ACTION_ACL])){
                    SetResponse(elements++, actObj1.addrStr[ACTION_MSG], actObj1.lenStr[ACTION_MSG], GAME);
                    effect = actObj1.effect[2];
    3ba4:	80 91 0a 39 	lds	r24, 0x390A	; 0x80390a <actObj1.3989+0x2a>
    3ba8:	90 e0       	ldi	r25, 0x00	; 0
    3baa:	80 93 40 38 	sts	0x3840, r24	; 0x803840 <effect>
    3bae:	90 93 41 38 	sts	0x3841, r25	; 0x803841 <effect+0x1>
                    UpdateState(actObj1.byteField[ACTION_STATE]);
    3bb2:	80 91 ea 38 	lds	r24, 0x38EA	; 0x8038ea <actObj1.3989+0xa>
    3bb6:	0e 94 f4 09 	call	0x13e8	; 0x13e8 <UpdateState>
    3bba:	38 c0       	rjmp	.+112    	; 0x3c2c <ProcessInput+0xeea>
                } else {
                    SetResponse(elements++, actObj1.addrStr[ACTION_ACL_MSG], actObj1.lenStr[ACTION_ACL_MSG], GAME);
    3bbc:	80 91 04 39 	lds	r24, 0x3904	; 0x803904 <actObj1.3989+0x24>
    3bc0:	90 91 05 39 	lds	r25, 0x3905	; 0x803905 <actObj1.3989+0x25>
    return 0;
}

//
void SetResponse(uint8_t number, uint16_t address, uint16_t length, uint8_t type){
    reactStr[0][number]=address;
    3bc4:	20 91 f6 38 	lds	r18, 0x38F6	; 0x8038f6 <actObj1.3989+0x16>
    3bc8:	30 91 f7 38 	lds	r19, 0x38F7	; 0x8038f7 <actObj1.3989+0x17>
    3bcc:	20 93 23 39 	sts	0x3923, r18	; 0x803923 <reactStr+0x2>
    3bd0:	30 93 24 39 	sts	0x3924, r19	; 0x803924 <reactStr+0x3>
    reactStr[1][number]=length;
    3bd4:	80 93 63 39 	sts	0x3963, r24	; 0x803963 <reactStr+0x42>
    3bd8:	90 93 64 39 	sts	0x3964, r25	; 0x803964 <reactStr+0x43>
    reactStr[2][number]=type;
    3bdc:	10 92 a3 39 	sts	0x39A3, r1	; 0x8039a3 <reactStr+0x82>
    3be0:	10 92 a4 39 	sts	0x39A4, r1	; 0x8039a4 <reactStr+0x83>
                    SetResponse(elements++, actObj1.addrStr[ACTION_MSG], actObj1.lenStr[ACTION_MSG], GAME);
                    effect = actObj1.effect[2];
                    UpdateState(actObj1.byteField[ACTION_STATE]);
                } else {
                    SetResponse(elements++, actObj1.addrStr[ACTION_ACL_MSG], actObj1.lenStr[ACTION_ACL_MSG], GAME);
                    effect = actObj1.effect[1];
    3be4:	80 91 09 39 	lds	r24, 0x3909	; 0x803909 <actObj1.3989+0x29>
    3be8:	90 e0       	ldi	r25, 0x00	; 0
    3bea:	80 93 40 38 	sts	0x3840, r24	; 0x803840 <effect>
    3bee:	90 93 41 38 	sts	0x3841, r25	; 0x803841 <effect+0x1>
    3bf2:	1c c0       	rjmp	.+56     	; 0x3c2c <ProcessInput+0xeea>
                }

            } else {
                PopulateObject(route[currDepth+1], &actObj1);
    3bf4:	80 81       	ld	r24, Z
    3bf6:	91 81       	ldd	r25, Z+1	; 0x01
    3bf8:	0e 94 0c 12 	call	0x2418	; 0x2418 <PopulateObject>
    return 0;
}

//
void SetResponse(uint8_t number, uint16_t address, uint16_t length, uint8_t type){
    reactStr[0][number]=address;
    3bfc:	80 e6       	ldi	r24, 0x60	; 96
    3bfe:	98 e7       	ldi	r25, 0x78	; 120
    3c00:	80 93 23 39 	sts	0x3923, r24	; 0x803923 <reactStr+0x2>
    3c04:	90 93 24 39 	sts	0x3924, r25	; 0x803924 <reactStr+0x3>
    reactStr[1][number]=length;
    3c08:	8d e4       	ldi	r24, 0x4D	; 77
    3c0a:	90 e0       	ldi	r25, 0x00	; 0
    3c0c:	80 93 63 39 	sts	0x3963, r24	; 0x803963 <reactStr+0x42>
    3c10:	90 93 64 39 	sts	0x3964, r25	; 0x803964 <reactStr+0x43>
    reactStr[2][number]=type;
    3c14:	81 e0       	ldi	r24, 0x01	; 1
    3c16:	90 e0       	ldi	r25, 0x00	; 0
    3c18:	80 93 a3 39 	sts	0x39A3, r24	; 0x8039a3 <reactStr+0x82>
    3c1c:	90 93 a4 39 	sts	0x39A4, r25	; 0x8039a4 <reactStr+0x83>
                }

            } else {
                PopulateObject(route[currDepth+1], &actObj1);
                SetResponse(elements++, A_INCORRECT, L_INCORRECT, TEASER);
                PunishmentTime = getClock();
    3c20:	0e 94 52 0e 	call	0x1ca4	; 0x1ca4 <getClock>
    3c24:	80 93 0d 39 	sts	0x390D, r24	; 0x80390d <PunishmentTime>
    3c28:	90 93 0e 39 	sts	0x390E, r25	; 0x80390e <PunishmentTime+0x1>
                    effect = actObj1.effect[1];
                }

            } else {
                PopulateObject(route[currDepth+1], &actObj1);
                SetResponse(elements++, A_INCORRECT, L_INCORRECT, TEASER);
    3c2c:	12 e0       	ldi	r17, 0x02	; 2
                PunishmentTime = getClock();
            }
            specialInput[0] = 0;
    3c2e:	10 92 10 39 	sts	0x3910, r1	; 0x803910 <specialInput>

        }
                    
        //Input handled
        if (specialInput[0]) responseList = elements; else responseList = SetStandardResponse(elements);
    3c32:	80 91 10 39 	lds	r24, 0x3910	; 0x803910 <specialInput>
    3c36:	88 23       	and	r24, r24
    3c38:	19 f0       	breq	.+6      	; 0x3c40 <ProcessInput+0xefe>
    3c3a:	10 93 20 39 	sts	0x3920, r17	; 0x803920 <responseList>
    3c3e:	8b c0       	rjmp	.+278    	; 0x3d56 <ProcessInput+0x1014>
    3c40:	81 2f       	mov	r24, r17
    3c42:	01 c0       	rjmp	.+2      	; 0x3c46 <ProcessInput+0xf04>

    } else {

        responseList = SetStandardResponse(1);
    3c44:	81 e0       	ldi	r24, 0x01	; 1
    3c46:	0e 94 90 11 	call	0x2320	; 0x2320 <SetStandardResponse>
    3c4a:	80 93 20 39 	sts	0x3920, r24	; 0x803920 <responseList>
    3c4e:	83 c0       	rjmp	.+262    	; 0x3d56 <ProcessInput+0x1014>
    return 0;
}

//
void SetResponse(uint8_t number, uint16_t address, uint16_t length, uint8_t type){
    reactStr[0][number]=address;
    3c50:	81 ed       	ldi	r24, 0xD1	; 209
    3c52:	99 e7       	ldi	r25, 0x79	; 121
    3c54:	80 93 23 39 	sts	0x3923, r24	; 0x803923 <reactStr+0x2>
    3c58:	90 93 24 39 	sts	0x3924, r25	; 0x803924 <reactStr+0x3>
    reactStr[1][number]=length;
    3c5c:	8a e1       	ldi	r24, 0x1A	; 26
    3c5e:	90 e0       	ldi	r25, 0x00	; 0
    3c60:	45 c9       	rjmp	.-3446   	; 0x2eec <ProcessInput+0x1aa>

        //Drop item if in inventory
        if (data[0] == 'd') {
            if ((inventory[0] == 0)&&(inventory[1] == 0)){
                SetResponse(elements++, A_EMPTYHANDS, L_EMPTYHANDS, TEASER);
            } else if (inputLen != 2) {
    3c62:	f2 e0       	ldi	r31, 0x02	; 2
    3c64:	ff 12       	cpse	r15, r31
    3c66:	ad c8       	rjmp	.-3750   	; 0x2dc2 <ProcessInput+0x80>
                SetResponse(elements++, A_NOTPOSSIBLE, L_NOTPOSSIBLE, TEASER);
            } else {
                for (uint8_t x=0; x<2; ++x) {
                    if (inventory[x]) {
                        if (CheckLetter(inventory[x], data[1])) {
    3c68:	f3 01       	movw	r30, r6
    3c6a:	61 81       	ldd	r22, Z+1	; 0x01
    3c6c:	0e 94 85 12 	call	0x250a	; 0x250a <CheckLetter>
    3c70:	88 23       	and	r24, r24
    3c72:	09 f4       	brne	.+2      	; 0x3c76 <ProcessInput+0xf34>
    3c74:	58 c0       	rjmp	.+176    	; 0x3d26 <ProcessInput+0xfe4>
                SetResponse(elements++, A_EMPTYHANDS, L_EMPTYHANDS, TEASER);
            } else if (inputLen != 2) {
                SetResponse(elements++, A_NOTPOSSIBLE, L_NOTPOSSIBLE, TEASER);
            } else {
                for (uint8_t x=0; x<2; ++x) {
                    if (inventory[x]) {
    3c76:	00 e0       	ldi	r16, 0x00	; 0
    3c78:	10 e0       	ldi	r17, 0x00	; 0
                        if (CheckLetter(inventory[x], data[1])) {
                            PopulateObject(inventory[x], &actObj1);
    3c7a:	00 0f       	add	r16, r16
    3c7c:	11 1f       	adc	r17, r17
    3c7e:	0c 5b       	subi	r16, 0xBC	; 188
    3c80:	17 4c       	sbci	r17, 0xC7	; 199
    3c82:	60 ee       	ldi	r22, 0xE0	; 224
    3c84:	78 e3       	ldi	r23, 0x38	; 56
    3c86:	d8 01       	movw	r26, r16
    3c88:	8d 91       	ld	r24, X+
    3c8a:	9c 91       	ld	r25, X
    3c8c:	0e 94 0c 12 	call	0x2418	; 0x2418 <PopulateObject>
    return 0;
}

//
void SetResponse(uint8_t number, uint16_t address, uint16_t length, uint8_t type){
    reactStr[0][number]=address;
    3c90:	86 e9       	ldi	r24, 0x96	; 150
    3c92:	97 e7       	ldi	r25, 0x77	; 119
    3c94:	80 93 23 39 	sts	0x3923, r24	; 0x803923 <reactStr+0x2>
    3c98:	90 93 24 39 	sts	0x3924, r25	; 0x803924 <reactStr+0x3>
    reactStr[1][number]=length;
    3c9c:	80 e1       	ldi	r24, 0x10	; 16
    3c9e:	90 e0       	ldi	r25, 0x00	; 0
    3ca0:	80 93 63 39 	sts	0x3963, r24	; 0x803963 <reactStr+0x42>
    3ca4:	90 93 64 39 	sts	0x3964, r25	; 0x803964 <reactStr+0x43>
    reactStr[2][number]=type;
    3ca8:	81 e0       	ldi	r24, 0x01	; 1
    3caa:	90 e0       	ldi	r25, 0x00	; 0
    3cac:	80 93 a3 39 	sts	0x39A3, r24	; 0x8039a3 <reactStr+0x82>
    3cb0:	90 93 a4 39 	sts	0x39A4, r25	; 0x8039a4 <reactStr+0x83>
                for (uint8_t x=0; x<2; ++x) {
                    if (inventory[x]) {
                        if (CheckLetter(inventory[x], data[1])) {
                            PopulateObject(inventory[x], &actObj1);
                            SetResponse(elements++, A_DROPPING, L_DROPPING, TEASER);
                            SetResponse(elements++, actObj1.addrStr[NAME], actObj1.lenStr[NAME], GAME);
    3cb4:	20 91 fa 38 	lds	r18, 0x38FA	; 0x8038fa <actObj1.3989+0x1a>
    3cb8:	30 91 fb 38 	lds	r19, 0x38FB	; 0x8038fb <actObj1.3989+0x1b>
    return 0;
}

//
void SetResponse(uint8_t number, uint16_t address, uint16_t length, uint8_t type){
    reactStr[0][number]=address;
    3cbc:	40 91 ec 38 	lds	r20, 0x38EC	; 0x8038ec <actObj1.3989+0xc>
    3cc0:	50 91 ed 38 	lds	r21, 0x38ED	; 0x8038ed <actObj1.3989+0xd>
    3cc4:	40 93 25 39 	sts	0x3925, r20	; 0x803925 <reactStr+0x4>
    3cc8:	50 93 26 39 	sts	0x3926, r21	; 0x803926 <reactStr+0x5>
    reactStr[1][number]=length;
    3ccc:	20 93 65 39 	sts	0x3965, r18	; 0x803965 <reactStr+0x44>
    3cd0:	30 93 66 39 	sts	0x3966, r19	; 0x803966 <reactStr+0x45>
    reactStr[2][number]=type;
    3cd4:	10 92 a5 39 	sts	0x39A5, r1	; 0x8039a5 <reactStr+0x84>
    3cd8:	10 92 a6 39 	sts	0x39A6, r1	; 0x8039a6 <reactStr+0x85>
    return 0;
}

//
void SetResponse(uint8_t number, uint16_t address, uint16_t length, uint8_t type){
    reactStr[0][number]=address;
    3cdc:	29 e5       	ldi	r18, 0x59	; 89
    3cde:	3a e7       	ldi	r19, 0x7A	; 122
    3ce0:	20 93 27 39 	sts	0x3927, r18	; 0x803927 <reactStr+0x6>
    3ce4:	30 93 28 39 	sts	0x3928, r19	; 0x803928 <reactStr+0x7>
    reactStr[1][number]=length;
    3ce8:	22 e0       	ldi	r18, 0x02	; 2
    3cea:	30 e0       	ldi	r19, 0x00	; 0
    3cec:	20 93 67 39 	sts	0x3967, r18	; 0x803967 <reactStr+0x46>
    3cf0:	30 93 68 39 	sts	0x3968, r19	; 0x803968 <reactStr+0x47>
    reactStr[2][number]=type;
    3cf4:	80 93 a7 39 	sts	0x39A7, r24	; 0x8039a7 <reactStr+0x86>
    3cf8:	90 93 a8 39 	sts	0x39A8, r25	; 0x8039a8 <reactStr+0x87>
    return 0;
}

//
void SetResponse(uint8_t number, uint16_t address, uint16_t length, uint8_t type){
    reactStr[0][number]=address;
    3cfc:	29 e5       	ldi	r18, 0x59	; 89
    3cfe:	37 e7       	ldi	r19, 0x77	; 119
    3d00:	20 93 29 39 	sts	0x3929, r18	; 0x803929 <reactStr+0x8>
    3d04:	30 93 2a 39 	sts	0x392A, r19	; 0x80392a <reactStr+0x9>
    reactStr[1][number]=length;
    3d08:	2d e3       	ldi	r18, 0x3D	; 61
    3d0a:	30 e0       	ldi	r19, 0x00	; 0
    3d0c:	20 93 69 39 	sts	0x3969, r18	; 0x803969 <reactStr+0x48>
    3d10:	30 93 6a 39 	sts	0x396A, r19	; 0x80396a <reactStr+0x49>
    reactStr[2][number]=type;
    3d14:	80 93 a9 39 	sts	0x39A9, r24	; 0x8039a9 <reactStr+0x88>
    3d18:	90 93 aa 39 	sts	0x39AA, r25	; 0x8039aa <reactStr+0x89>
                            PopulateObject(inventory[x], &actObj1);
                            SetResponse(elements++, A_DROPPING, L_DROPPING, TEASER);
                            SetResponse(elements++, actObj1.addrStr[NAME], actObj1.lenStr[NAME], GAME);
                            SetResponse(elements++, A_LF, 2, TEASER);
                            SetResponse(elements++, A_RETURNING, L_RETURNING, TEASER);
                            inventory[x] = 0;
    3d1c:	f8 01       	movw	r30, r16
    3d1e:	10 82       	st	Z, r1
    3d20:	11 82       	std	Z+1, r1	; 0x01
                        if (CheckLetter(inventory[x], data[1])) {
                            PopulateObject(inventory[x], &actObj1);
                            SetResponse(elements++, A_DROPPING, L_DROPPING, TEASER);
                            SetResponse(elements++, actObj1.addrStr[NAME], actObj1.lenStr[NAME], GAME);
                            SetResponse(elements++, A_LF, 2, TEASER);
                            SetResponse(elements++, A_RETURNING, L_RETURNING, TEASER);
    3d22:	15 e0       	ldi	r17, 0x05	; 5
                            inventory[x] = 0;
                            break;
    3d24:	86 cf       	rjmp	.-244    	; 0x3c32 <ProcessInput+0xef0>
                SetResponse(elements++, A_EMPTYHANDS, L_EMPTYHANDS, TEASER);
            } else if (inputLen != 2) {
                SetResponse(elements++, A_NOTPOSSIBLE, L_NOTPOSSIBLE, TEASER);
            } else {
                for (uint8_t x=0; x<2; ++x) {
                    if (inventory[x]) {
    3d26:	80 91 46 38 	lds	r24, 0x3846	; 0x803846 <inventory+0x2>
    3d2a:	90 91 47 38 	lds	r25, 0x3847	; 0x803847 <inventory+0x3>
    3d2e:	00 97       	sbiw	r24, 0x00	; 0
    3d30:	49 f0       	breq	.+18     	; 0x3d44 <ProcessInput+0x1002>
                        if (CheckLetter(inventory[x], data[1])) {
    3d32:	f3 01       	movw	r30, r6
    3d34:	61 81       	ldd	r22, Z+1	; 0x01
    3d36:	0e 94 85 12 	call	0x250a	; 0x250a <CheckLetter>
    3d3a:	88 23       	and	r24, r24
    3d3c:	19 f0       	breq	.+6      	; 0x3d44 <ProcessInput+0x1002>
                SetResponse(elements++, A_EMPTYHANDS, L_EMPTYHANDS, TEASER);
            } else if (inputLen != 2) {
                SetResponse(elements++, A_NOTPOSSIBLE, L_NOTPOSSIBLE, TEASER);
            } else {
                for (uint8_t x=0; x<2; ++x) {
                    if (inventory[x]) {
    3d3e:	01 e0       	ldi	r16, 0x01	; 1
    3d40:	10 e0       	ldi	r17, 0x00	; 0
    3d42:	9b cf       	rjmp	.-202    	; 0x3c7a <ProcessInput+0xf38>
    return 0;
}

//
void SetResponse(uint8_t number, uint16_t address, uint16_t length, uint8_t type){
    reactStr[0][number]=address;
    3d44:	81 e6       	ldi	r24, 0x61	; 97
    3d46:	99 e7       	ldi	r25, 0x79	; 121
    3d48:	80 93 23 39 	sts	0x3923, r24	; 0x803923 <reactStr+0x2>
    3d4c:	90 93 24 39 	sts	0x3924, r25	; 0x803924 <reactStr+0x3>
    reactStr[1][number]=length;
    3d50:	81 e2       	ldi	r24, 0x21	; 33
    3d52:	90 e0       	ldi	r25, 0x00	; 0
    3d54:	cb c8       	rjmp	.-3690   	; 0x2eec <ProcessInput+0x1aa>
    } else {

        responseList = SetStandardResponse(1);
    }

    data[0] = 0;
    3d56:	f3 01       	movw	r30, r6
    3d58:	10 82       	st	Z, r1
    serRxDone = 0;
    3d5a:	10 92 4a 38 	sts	0x384A, r1	; 0x80384a <serRxDone>
    RXCNT = 0;    
    3d5e:	1d ba       	out	0x1d, r1	; 29
    return 0;
}
    3d60:	80 e0       	ldi	r24, 0x00	; 0
    3d62:	28 96       	adiw	r28, 0x08	; 8
    3d64:	cd bf       	out	0x3d, r28	; 61
    3d66:	de bf       	out	0x3e, r29	; 62
    3d68:	df 91       	pop	r29
    3d6a:	cf 91       	pop	r28
    3d6c:	1f 91       	pop	r17
    3d6e:	0f 91       	pop	r16
    3d70:	ff 90       	pop	r15
    3d72:	ef 90       	pop	r14
    3d74:	df 90       	pop	r13
    3d76:	cf 90       	pop	r12
    3d78:	bf 90       	pop	r11
    3d7a:	af 90       	pop	r10
    3d7c:	9f 90       	pop	r9
    3d7e:	8f 90       	pop	r8
    3d80:	7f 90       	pop	r7
    3d82:	6f 90       	pop	r6
    3d84:	08 95       	ret

00003d86 <TextAdventure>:


//MAIN GAME STRUCTURE
uint8_t TextAdventure(){
    3d86:	cf 93       	push	r28
    static uint8_t serInput[RXLEN];
    uint16_t PunishmentCount;
    
    /* Count down PunishmentTime on WING LEDs */
    if (PunishmentTime != 0) {
    3d88:	80 91 0d 39 	lds	r24, 0x390D	; 0x80390d <PunishmentTime>
    3d8c:	90 91 0e 39 	lds	r25, 0x390E	; 0x80390e <PunishmentTime+0x1>
    3d90:	89 2b       	or	r24, r25
    3d92:	09 f1       	breq	.+66     	; 0x3dd6 <TextAdventure+0x50>
        PunishmentCount = getClock();
    3d94:	0e 94 52 0e 	call	0x1ca4	; 0x1ca4 <getClock>
        if (PunishmentCount < PunishmentTime)
    3d98:	20 91 0d 39 	lds	r18, 0x390D	; 0x80390d <PunishmentTime>
    3d9c:	30 91 0e 39 	lds	r19, 0x390E	; 0x80390e <PunishmentTime+0x1>
    3da0:	82 17       	cp	r24, r18
    3da2:	93 07       	cpc	r25, r19
    3da4:	08 f4       	brcc	.+2      	; 0x3da8 <TextAdventure+0x22>
            PunishmentCount += 256 * 60;
    3da6:	94 5c       	subi	r25, 0xC4	; 196
        PunishmentCount -= PunishmentTime;
    3da8:	ac 01       	movw	r20, r24
    3daa:	42 1b       	sub	r20, r18
    3dac:	53 0b       	sbc	r21, r19
    3dae:	9a 01       	movw	r18, r20
        if (PunishmentCount > 10) {
    3db0:	4b 30       	cpi	r20, 0x0B	; 11
    3db2:	51 05       	cpc	r21, r1
    3db4:	30 f0       	brcs	.+12     	; 0x3dc2 <TextAdventure+0x3c>
            PunishmentTime = 0;
    3db6:	10 92 0d 39 	sts	0x390D, r1	; 0x80390d <PunishmentTime>
    3dba:	10 92 0e 39 	sts	0x390E, r1	; 0x80390e <PunishmentTime+0x1>
            PunishmentCount = 10;
    3dbe:	2a e0       	ldi	r18, 0x0A	; 10
    3dc0:	30 e0       	ldi	r19, 0x00	; 0
        }
        if (gameNow == TEXT ) {
    3dc2:	80 91 42 38 	lds	r24, 0x3842	; 0x803842 <gameNow>
    3dc6:	81 11       	cpse	r24, r1
    3dc8:	06 c0       	rjmp	.+12     	; 0x3dd6 <TextAdventure+0x50>
            WingBar(10-PunishmentCount,5-PunishmentCount);
    3dca:	65 e0       	ldi	r22, 0x05	; 5
    3dcc:	62 1b       	sub	r22, r18
    3dce:	8a e0       	ldi	r24, 0x0A	; 10
    3dd0:	82 1b       	sub	r24, r18
    3dd2:	0e 94 e4 0a 	call	0x15c8	; 0x15c8 <WingBar>
        }
    }

    //Still sending data to serial?
    if (CheckSend()) return 1;
    3dd6:	0e 94 6a 13 	call	0x26d4	; 0x26d4 <CheckSend>
    3dda:	88 23       	and	r24, r24
    3ddc:	11 f0       	breq	.+4      	; 0x3de2 <TextAdventure+0x5c>
    3dde:	c1 e0       	ldi	r28, 0x01	; 1
    3de0:	18 c0       	rjmp	.+48     	; 0x3e12 <TextAdventure+0x8c>

    //Not sending? Process next response part to send, if any.
    if (CheckResponse()) return 1;        
    3de2:	0e 94 c0 13 	call	0x2780	; 0x2780 <CheckResponse>
    3de6:	c8 2f       	mov	r28, r24
    3de8:	81 11       	cpse	r24, r1
    3dea:	f9 cf       	rjmp	.-14     	; 0x3dde <TextAdventure+0x58>

    if (PunishmentTime == 0) {
    3dec:	80 91 0d 39 	lds	r24, 0x390D	; 0x80390d <PunishmentTime>
    3df0:	90 91 0e 39 	lds	r25, 0x390E	; 0x80390e <PunishmentTime+0x1>
    3df4:	89 2b       	or	r24, r25
    3df6:	69 f4       	brne	.+26     	; 0x3e12 <TextAdventure+0x8c>
        //No responses to send, check if there is user input.
        if (CheckInput(&serInput[0])) return 2; 
    3df8:	84 e7       	ldi	r24, 0x74	; 116
    3dfa:	98 e3       	ldi	r25, 0x38	; 56
    3dfc:	0e 94 00 14 	call	0x2800	; 0x2800 <CheckInput>
    3e00:	c8 2f       	mov	r28, r24
    3e02:	81 11       	cpse	r24, r1
    3e04:	05 c0       	rjmp	.+10     	; 0x3e10 <TextAdventure+0x8a>

        //Input found, process and save (changes only)
        ProcessInput(&serInput[0]);
    3e06:	84 e7       	ldi	r24, 0x74	; 116
    3e08:	98 e3       	ldi	r25, 0x38	; 56
    3e0a:	0e 94 a1 16 	call	0x2d42	; 0x2d42 <ProcessInput>
    3e0e:	01 c0       	rjmp	.+2      	; 0x3e12 <TextAdventure+0x8c>
    //Not sending? Process next response part to send, if any.
    if (CheckResponse()) return 1;        

    if (PunishmentTime == 0) {
        //No responses to send, check if there is user input.
        if (CheckInput(&serInput[0])) return 2; 
    3e10:	c2 e0       	ldi	r28, 0x02	; 2
        //Input found, process and save (changes only)
        ProcessInput(&serInput[0]);
    }

    return 0;
}
    3e12:	8c 2f       	mov	r24, r28
    3e14:	cf 91       	pop	r28
    3e16:	08 95       	ret

00003e18 <main>:


//This is where it begins, inits first and main program in while(1) loop.
int main(void)
{
    Setup();
    3e18:	0e 94 c0 04 	call	0x980	; 0x980 <Setup>
    LoadGameState();
    3e1c:	0e 94 52 0a 	call	0x14a4	; 0x14a4 <LoadGameState>
    gameState[0]|=1;
    3e20:	80 91 67 3a 	lds	r24, 0x3A67	; 0x803a67 <gameState>
    3e24:	81 60       	ori	r24, 0x01	; 1
    3e26:	80 93 67 3a 	sts	0x3A67, r24	; 0x803a67 <gameState>
    SelfTest();
    3e2a:	0e 94 79 0e 	call	0x1cf2	; 0x1cf2 <SelfTest>
            if (adcPhot < 10) UpdateState(116);
            if (adcPhot > 100) UpdateState(128+116);

            dimValueSum -= (dimValueSum>>6);
            dimValueSum += 256;
            dimValueSum -= QSINE[31-(adcPhot>>7)];
    3e2e:	cf e1       	ldi	r28, 0x1F	; 31
    3e30:	d0 e0       	ldi	r29, 0x00	; 0
    LoadGameState();
    gameState[0]|=1;
    SelfTest();

    while (TRUE) {
        if (GenerateAudio()) {
    3e32:	0e 94 b4 0c 	call	0x1968	; 0x1968 <GenerateAudio>
    3e36:	88 23       	and	r24, r24
    3e38:	e1 f3       	breq	.-8      	; 0x3e32 <main+0x1a>
            lastButtonState = buttonState;
    3e3a:	80 91 08 38 	lds	r24, 0x3808	; 0x803808 <buttonState>
    3e3e:	80 93 07 38 	sts	0x3807, r24	; 0x803807 <lastButtonState>
            buttonState = CheckButtons();
    3e42:	0e 94 bc 08 	call	0x1178	; 0x1178 <CheckButtons>
    3e46:	80 93 08 38 	sts	0x3808, r24	; 0x803808 <buttonState>
            buttonMark = 0;
    3e4a:	10 92 48 38 	sts	0x3848, r1	; 0x803848 <buttonMark>

            if (VREF_CTRLA == 0x12) SelectAuIn(); else SelectTSens();
    3e4e:	80 91 a0 00 	lds	r24, 0x00A0	; 0x8000a0 <__TEXT_REGION_LENGTH__+0x7000a0>
    3e52:	82 31       	cpi	r24, 0x12	; 18
    3e54:	19 f4       	brne	.+6      	; 0x3e5c <main+0x44>
    3e56:	0e 94 ad 08 	call	0x115a	; 0x115a <SelectAuIn>
    3e5a:	02 c0       	rjmp	.+4      	; 0x3e60 <main+0x48>
    3e5c:	0e 94 9e 08 	call	0x113c	; 0x113c <SelectTSens>

            GenerateBlinks();
    3e60:	0e 94 39 0b 	call	0x1672	; 0x1672 <GenerateBlinks>

            //Main game, to complete: Finish sub-game MagnetMaze and MakeFriends too.
            TextAdventure();
    3e64:	90 df       	rcall	.-224    	; 0x3d86 <TextAdventure>

            //Other games & user interaction checks
            MagnetMaze();
    3e66:	0e 94 c3 03 	call	0x786	; 0x786 <MagnetMaze>
            LanyardCode();
    3e6a:	0e 94 d3 02 	call	0x5a6	; 0x5a6 <LanyardCode>
            BastetDictates();
    3e6e:	0e 94 66 0f 	call	0x1ecc	; 0x1ecc <BastetDictates>
            MakeFriends();
    3e72:	0e 94 7d 00 	call	0xfa	; 0xfa <MakeFriends>

            //Save progress
            SaveGameState();
    3e76:	0e 94 6d 09 	call	0x12da	; 0x12da <SaveGameState>

            //Check light sensor status (added hysteresis to preserve writing cycles to internal EEPROM)
            if (adcPhot < 10) UpdateState(116);
    3e7a:	80 91 c3 3a 	lds	r24, 0x3AC3	; 0x803ac3 <adcPhot>
    3e7e:	90 91 c4 3a 	lds	r25, 0x3AC4	; 0x803ac4 <adcPhot+0x1>
    3e82:	0a 97       	sbiw	r24, 0x0a	; 10
    3e84:	18 f4       	brcc	.+6      	; 0x3e8c <main+0x74>
    3e86:	84 e7       	ldi	r24, 0x74	; 116
    3e88:	0e 94 f4 09 	call	0x13e8	; 0x13e8 <UpdateState>
            if (adcPhot > 100) UpdateState(128+116);
    3e8c:	80 91 c3 3a 	lds	r24, 0x3AC3	; 0x803ac3 <adcPhot>
    3e90:	90 91 c4 3a 	lds	r25, 0x3AC4	; 0x803ac4 <adcPhot+0x1>
    3e94:	85 36       	cpi	r24, 0x65	; 101
    3e96:	91 05       	cpc	r25, r1
    3e98:	18 f0       	brcs	.+6      	; 0x3ea0 <main+0x88>
    3e9a:	84 ef       	ldi	r24, 0xF4	; 244
    3e9c:	0e 94 f4 09 	call	0x13e8	; 0x13e8 <UpdateState>

            dimValueSum -= (dimValueSum>>6);
    3ea0:	20 91 0a 38 	lds	r18, 0x380A	; 0x80380a <dimValueSum>
    3ea4:	30 91 0b 38 	lds	r19, 0x380B	; 0x80380b <dimValueSum+0x1>
    3ea8:	80 91 0a 38 	lds	r24, 0x380A	; 0x80380a <dimValueSum>
    3eac:	90 91 0b 38 	lds	r25, 0x380B	; 0x80380b <dimValueSum+0x1>
    3eb0:	46 e0       	ldi	r20, 0x06	; 6
    3eb2:	36 95       	lsr	r19
    3eb4:	27 95       	ror	r18
    3eb6:	4a 95       	dec	r20
    3eb8:	e1 f7       	brne	.-8      	; 0x3eb2 <main+0x9a>
    3eba:	82 1b       	sub	r24, r18
    3ebc:	93 0b       	sbc	r25, r19
    3ebe:	80 93 0a 38 	sts	0x380A, r24	; 0x80380a <dimValueSum>
    3ec2:	90 93 0b 38 	sts	0x380B, r25	; 0x80380b <dimValueSum+0x1>
            dimValueSum += 256;
    3ec6:	80 91 0a 38 	lds	r24, 0x380A	; 0x80380a <dimValueSum>
    3eca:	90 91 0b 38 	lds	r25, 0x380B	; 0x80380b <dimValueSum+0x1>
    3ece:	93 95       	inc	r25
    3ed0:	80 93 0a 38 	sts	0x380A, r24	; 0x80380a <dimValueSum>
    3ed4:	90 93 0b 38 	sts	0x380B, r25	; 0x80380b <dimValueSum+0x1>
            dimValueSum -= QSINE[31-(adcPhot>>7)];
    3ed8:	20 91 c3 3a 	lds	r18, 0x3AC3	; 0x803ac3 <adcPhot>
    3edc:	30 91 c4 3a 	lds	r19, 0x3AC4	; 0x803ac4 <adcPhot+0x1>
    3ee0:	80 91 0a 38 	lds	r24, 0x380A	; 0x80380a <dimValueSum>
    3ee4:	90 91 0b 38 	lds	r25, 0x380B	; 0x80380b <dimValueSum+0x1>
    3ee8:	22 0f       	add	r18, r18
    3eea:	23 2f       	mov	r18, r19
    3eec:	22 1f       	adc	r18, r18
    3eee:	33 0b       	sbc	r19, r19
    3ef0:	31 95       	neg	r19
    3ef2:	fe 01       	movw	r30, r28
    3ef4:	e2 1b       	sub	r30, r18
    3ef6:	f3 0b       	sbc	r31, r19
    3ef8:	e4 58       	subi	r30, 0x84	; 132
    3efa:	f0 44       	sbci	r31, 0x40	; 64
    3efc:	20 81       	ld	r18, Z
    3efe:	82 1b       	sub	r24, r18
    3f00:	91 09       	sbc	r25, r1
    3f02:	80 93 0a 38 	sts	0x380A, r24	; 0x80380a <dimValueSum>
    3f06:	90 93 0b 38 	sts	0x380B, r25	; 0x80380b <dimValueSum+0x1>
            dimValue     = dimValueSum>>6;
    3f0a:	80 91 0a 38 	lds	r24, 0x380A	; 0x80380a <dimValueSum>
    3f0e:	90 91 0b 38 	lds	r25, 0x380B	; 0x80380b <dimValueSum+0x1>
    3f12:	66 e0       	ldi	r22, 0x06	; 6
    3f14:	96 95       	lsr	r25
    3f16:	87 95       	ror	r24
    3f18:	6a 95       	dec	r22
    3f1a:	e1 f7       	brne	.-8      	; 0x3f14 <main+0xfc>
    3f1c:	80 93 0c 38 	sts	0x380C, r24	; 0x80380c <dimValue>

            //Check temperature
            HotSummer();
    3f20:	0e 94 7f 0a 	call	0x14fe	; 0x14fe <HotSummer>
    3f24:	86 cf       	rjmp	.-244    	; 0x3e32 <main+0x1a>

00003f26 <__tablejump2__>:
    3f26:	ee 0f       	add	r30, r30
    3f28:	ff 1f       	adc	r31, r31
    3f2a:	05 90       	lpm	r0, Z+
    3f2c:	f4 91       	lpm	r31, Z
    3f2e:	e0 2d       	mov	r30, r0
    3f30:	09 94       	ijmp

00003f32 <_exit>:
    3f32:	f8 94       	cli

00003f34 <__stop_program>:
    3f34:	ff cf       	rjmp	.-2      	; 0x3f34 <__stop_program>
