
ISR_IO.elf:     file format elf32-avr

Sections:
Idx Name          Size      VMA       LMA       File off  Algn
  0 .data         00000006  00803800  0000138f  00001443  2**0
                  CONTENTS, ALLOC, LOAD, DATA
  1 .text         00001346  00000000  00000000  000000b4  2**1
                  CONTENTS, ALLOC, LOAD, READONLY, CODE
  2 .rodata       00000049  00009346  00001346  000013fa  2**0
                  CONTENTS, ALLOC, LOAD, READONLY, DATA
  3 .bss          00000195  00803806  00803806  00001449  2**0
                  ALLOC
  4 .comment      00000030  00000000  00000000  00001449  2**0
                  CONTENTS, READONLY
  5 .note.gnu.avr.deviceinfo 00000040  00000000  00000000  0000147c  2**2
                  CONTENTS, READONLY
  6 .debug_aranges 000001e8  00000000  00000000  000014bc  2**0
                  CONTENTS, READONLY, DEBUGGING
  7 .debug_info   00003a89  00000000  00000000  000016a4  2**0
                  CONTENTS, READONLY, DEBUGGING
  8 .debug_abbrev 000021e9  00000000  00000000  0000512d  2**0
                  CONTENTS, READONLY, DEBUGGING
  9 .debug_line   000018e7  00000000  00000000  00007316  2**0
                  CONTENTS, READONLY, DEBUGGING
 10 .debug_frame  00000614  00000000  00000000  00008c00  2**2
                  CONTENTS, READONLY, DEBUGGING
 11 .debug_str    000015c1  00000000  00000000  00009214  2**0
                  CONTENTS, READONLY, DEBUGGING
 12 .debug_loc    00001b4c  00000000  00000000  0000a7d5  2**0
                  CONTENTS, READONLY, DEBUGGING
 13 .debug_ranges 000001d8  00000000  00000000  0000c321  2**0
                  CONTENTS, READONLY, DEBUGGING

Disassembly of section .text:

00000000 <__vectors>:
       0:	3d c0       	rjmp	.+122    	; 0x7c <__ctors_end>
       2:	00 00       	nop
       4:	58 c0       	rjmp	.+176    	; 0xb6 <__bad_interrupt>
       6:	00 00       	nop
       8:	56 c0       	rjmp	.+172    	; 0xb6 <__bad_interrupt>
       a:	00 00       	nop
       c:	54 c0       	rjmp	.+168    	; 0xb6 <__bad_interrupt>
       e:	00 00       	nop
      10:	52 c0       	rjmp	.+164    	; 0xb6 <__bad_interrupt>
      12:	00 00       	nop
      14:	50 c0       	rjmp	.+160    	; 0xb6 <__bad_interrupt>
      16:	00 00       	nop
      18:	23 c4       	rjmp	.+2118   	; 0x860 <__vector_6>
      1a:	00 00       	nop
      1c:	75 c4       	rjmp	.+2282   	; 0x908 <__vector_7>
      1e:	00 00       	nop
      20:	77 c2       	rjmp	.+1262   	; 0x510 <__vector_8>
      22:	00 00       	nop
      24:	48 c0       	rjmp	.+144    	; 0xb6 <__bad_interrupt>
      26:	00 00       	nop
      28:	46 c0       	rjmp	.+140    	; 0xb6 <__bad_interrupt>
      2a:	00 00       	nop
      2c:	44 c0       	rjmp	.+136    	; 0xb6 <__bad_interrupt>
      2e:	00 00       	nop
      30:	42 c0       	rjmp	.+132    	; 0xb6 <__bad_interrupt>
      32:	00 00       	nop
      34:	c1 c2       	rjmp	.+1410   	; 0x5b8 <__vector_13>
      36:	00 00       	nop
      38:	f2 c2       	rjmp	.+1508   	; 0x61e <__vector_14>
      3a:	00 00       	nop
      3c:	3c c0       	rjmp	.+120    	; 0xb6 <__bad_interrupt>
      3e:	00 00       	nop
      40:	3a c0       	rjmp	.+116    	; 0xb6 <__bad_interrupt>
      42:	00 00       	nop
      44:	38 c0       	rjmp	.+112    	; 0xb6 <__bad_interrupt>
      46:	00 00       	nop
      48:	36 c0       	rjmp	.+108    	; 0xb6 <__bad_interrupt>
      4a:	00 00       	nop
      4c:	34 c0       	rjmp	.+104    	; 0xb6 <__bad_interrupt>
      4e:	00 00       	nop
      50:	89 c3       	rjmp	.+1810   	; 0x764 <__vector_20>
      52:	00 00       	nop
      54:	30 c0       	rjmp	.+96     	; 0xb6 <__bad_interrupt>
      56:	00 00       	nop
      58:	b3 c3       	rjmp	.+1894   	; 0x7c0 <__vector_22>
      5a:	00 00       	nop
      5c:	2c c0       	rjmp	.+88     	; 0xb6 <__bad_interrupt>
      5e:	00 00       	nop
      60:	2a c0       	rjmp	.+84     	; 0xb6 <__bad_interrupt>
      62:	00 00       	nop
      64:	28 c0       	rjmp	.+80     	; 0xb6 <__bad_interrupt>
      66:	00 00       	nop
      68:	26 c0       	rjmp	.+76     	; 0xb6 <__bad_interrupt>
      6a:	00 00       	nop
      6c:	2b c3       	rjmp	.+1622   	; 0x6c4 <__vector_27>
      6e:	00 00       	nop
      70:	5d c3       	rjmp	.+1722   	; 0x72c <__vector_28>
      72:	00 00       	nop
      74:	20 c0       	rjmp	.+64     	; 0xb6 <__bad_interrupt>
      76:	00 00       	nop
      78:	1e c0       	rjmp	.+60     	; 0xb6 <__bad_interrupt>
	...

0000007c <__ctors_end>:
      7c:	11 24       	eor	r1, r1
      7e:	1f be       	out	0x3f, r1	; 63
      80:	cf ef       	ldi	r28, 0xFF	; 255
      82:	cd bf       	out	0x3d, r28	; 61
      84:	df e3       	ldi	r29, 0x3F	; 63
      86:	de bf       	out	0x3e, r29	; 62

00000088 <__do_copy_data>:
      88:	18 e3       	ldi	r17, 0x38	; 56
      8a:	a0 e0       	ldi	r26, 0x00	; 0
      8c:	b8 e3       	ldi	r27, 0x38	; 56
      8e:	ef e8       	ldi	r30, 0x8F	; 143
      90:	f3 e1       	ldi	r31, 0x13	; 19
      92:	02 c0       	rjmp	.+4      	; 0x98 <__do_copy_data+0x10>
      94:	05 90       	lpm	r0, Z+
      96:	0d 92       	st	X+, r0
      98:	a6 30       	cpi	r26, 0x06	; 6
      9a:	b1 07       	cpc	r27, r17
      9c:	d9 f7       	brne	.-10     	; 0x94 <__do_copy_data+0xc>

0000009e <__do_clear_bss>:
      9e:	29 e3       	ldi	r18, 0x39	; 57
      a0:	a6 e0       	ldi	r26, 0x06	; 6
      a2:	b8 e3       	ldi	r27, 0x38	; 56
      a4:	01 c0       	rjmp	.+2      	; 0xa8 <.do_clear_bss_start>

000000a6 <.do_clear_bss_loop>:
      a6:	1d 92       	st	X+, r1

000000a8 <.do_clear_bss_start>:
      a8:	ab 39       	cpi	r26, 0x9B	; 155
      aa:	b2 07       	cpc	r27, r18
      ac:	e1 f7       	brne	.-8      	; 0xa6 <.do_clear_bss_loop>
      ae:	0e 94 0e 09 	call	0x121c	; 0x121c <main>
      b2:	0c 94 a1 09 	jmp	0x1342	; 0x1342 <_exit>

000000b6 <__bad_interrupt>:
      b6:	a4 cf       	rjmp	.-184    	; 0x0 <__vectors>

000000b8 <I2C_init>:
// the Atmel device documentation mentions a special command for repeated start TWI_MCMD_REPSTART_gc,
// but this is not used in Atmel's demo code, so we don't use it either

void I2C_rep_start(uint8_t shifted_addr)						    // send repeated start, device_addr + LSB set if READ
{
	TWI0.MADDR = shifted_addr;	
      b8:	81 e0       	ldi	r24, 0x01	; 1
      ba:	80 93 22 04 	sts	0x0422, r24	; 0x800422 <__TEXT_REGION_LENGTH__+0x700422>
      be:	e6 e2       	ldi	r30, 0x26	; 38
      c0:	f4 e0       	ldi	r31, 0x04	; 4
      c2:	80 83       	st	Z, r24
      c4:	10 92 30 04 	sts	0x0430, r1	; 0x800430 <__TEXT_REGION_LENGTH__+0x700430>
      c8:	a1 e2       	ldi	r26, 0x21	; 33
      ca:	b4 e0       	ldi	r27, 0x04	; 4
      cc:	92 e0       	ldi	r25, 0x02	; 2
      ce:	9c 93       	st	X, r25
      d0:	90 83       	st	Z, r25
      d2:	10 92 31 04 	sts	0x0431, r1	; 0x800431 <__TEXT_REGION_LENGTH__+0x700431>
      d6:	e0 e1       	ldi	r30, 0x10	; 16
      d8:	f8 e0       	ldi	r31, 0x08	; 8
      da:	9d e2       	ldi	r25, 0x2D	; 45
      dc:	96 83       	std	Z+6, r25	; 0x06
      de:	98 e0       	ldi	r25, 0x08	; 8
      e0:	94 83       	std	Z+4, r25	; 0x04
      e2:	83 83       	std	Z+3, r24	; 0x03
      e4:	8c 93       	st	X, r24
      e6:	85 81       	ldd	r24, Z+5	; 0x05
      e8:	81 60       	ori	r24, 0x01	; 1
      ea:	85 83       	std	Z+5, r24	; 0x05
      ec:	85 81       	ldd	r24, Z+5	; 0x05
      ee:	84 6c       	ori	r24, 0xC4	; 196
      f0:	85 83       	std	Z+5, r24	; 0x05
      f2:	08 95       	ret

000000f4 <I2C_recover>:
      f4:	e0 e1       	ldi	r30, 0x10	; 16
      f6:	f8 e0       	ldi	r31, 0x08	; 8
      f8:	84 81       	ldd	r24, Z+4	; 0x04
      fa:	88 60       	ori	r24, 0x08	; 8
      fc:	84 83       	std	Z+4, r24	; 0x04
      fe:	13 82       	std	Z+3, r1	; 0x03
     100:	82 e0       	ldi	r24, 0x02	; 2
     102:	80 93 22 04 	sts	0x0422, r24	; 0x800422 <__TEXT_REGION_LENGTH__+0x700422>
     106:	89 e0       	ldi	r24, 0x09	; 9
     108:	a1 e2       	ldi	r26, 0x21	; 33
     10a:	b4 e0       	ldi	r27, 0x04	; 4
     10c:	91 e0       	ldi	r25, 0x01	; 1
     10e:	e2 e2       	ldi	r30, 0x22	; 34
     110:	f4 e0       	ldi	r31, 0x04	; 4
     112:	9c 93       	st	X, r25
     114:	20 e1       	ldi	r18, 0x10	; 16
     116:	2a 95       	dec	r18
     118:	f1 f7       	brne	.-4      	; 0x116 <I2C_recover+0x22>
     11a:	00 c0       	rjmp	.+0      	; 0x11c <I2C_recover+0x28>
     11c:	90 83       	st	Z, r25
     11e:	20 e1       	ldi	r18, 0x10	; 16
     120:	2a 95       	dec	r18
     122:	f1 f7       	brne	.-4      	; 0x120 <I2C_recover+0x2c>
     124:	00 c0       	rjmp	.+0      	; 0x126 <I2C_recover+0x32>
     126:	81 50       	subi	r24, 0x01	; 1
     128:	a1 f7       	brne	.-24     	; 0x112 <I2C_recover+0x1e>
     12a:	e0 e1       	ldi	r30, 0x10	; 16
     12c:	f8 e0       	ldi	r31, 0x08	; 8
     12e:	28 e0       	ldi	r18, 0x08	; 8
     130:	24 83       	std	Z+4, r18	; 0x04
     132:	81 e0       	ldi	r24, 0x01	; 1
     134:	83 83       	std	Z+3, r24	; 0x03
     136:	a1 e2       	ldi	r26, 0x21	; 33
     138:	b4 e0       	ldi	r27, 0x04	; 4
     13a:	92 e0       	ldi	r25, 0x02	; 2
     13c:	9c 93       	st	X, r25
     13e:	95 81       	ldd	r25, Z+5	; 0x05
     140:	91 60       	ori	r25, 0x01	; 1
     142:	95 83       	std	Z+5, r25	; 0x05
     144:	95 81       	ldd	r25, Z+5	; 0x05
     146:	94 6c       	ori	r25, 0xC4	; 196
     148:	95 83       	std	Z+5, r25	; 0x05
     14a:	24 83       	std	Z+4, r18	; 0x04
     14c:	83 83       	std	Z+3, r24	; 0x03
     14e:	8c 93       	st	X, r24
     150:	85 81       	ldd	r24, Z+5	; 0x05
     152:	81 60       	ori	r24, 0x01	; 1
     154:	85 83       	std	Z+5, r24	; 0x05
     156:	85 81       	ldd	r24, Z+5	; 0x05
     158:	84 6c       	ori	r24, 0xC4	; 196
     15a:	85 83       	std	Z+5, r24	; 0x05
     15c:	08 95       	ret

0000015e <I2C_start>:
     15e:	28 2f       	mov	r18, r24
     160:	e0 e1       	ldi	r30, 0x10	; 16
     162:	f8 e0       	ldi	r31, 0x08	; 8
     164:	95 81       	ldd	r25, Z+5	; 0x05
     166:	90 6c       	ori	r25, 0xC0	; 192
     168:	95 83       	std	Z+5, r25	; 0x05
     16a:	95 81       	ldd	r25, Z+5	; 0x05
     16c:	89 2f       	mov	r24, r25
     16e:	84 70       	andi	r24, 0x04	; 4
     170:	92 fd       	sbrc	r25, 2
     172:	03 c0       	rjmp	.+6      	; 0x17a <I2C_start+0x1c>
     174:	20 93 17 08 	sts	0x0817, r18	; 0x800817 <__TEXT_REGION_LENGTH__+0x700817>
     178:	08 95       	ret
     17a:	84 e0       	ldi	r24, 0x04	; 4
     17c:	08 95       	ret

0000017e <I2C_wait_ACK>:
     17e:	8c e0       	ldi	r24, 0x0C	; 12
     180:	80 93 cb 38 	sts	0x38CB, r24	; 0x8038cb <timeout_I2C>
     184:	e0 e1       	ldi	r30, 0x10	; 16
     186:	f8 e0       	ldi	r31, 0x08	; 8
     188:	04 c0       	rjmp	.+8      	; 0x192 <I2C_wait_ACK+0x14>
     18a:	80 91 cb 38 	lds	r24, 0x38CB	; 0x8038cb <timeout_I2C>
     18e:	88 23       	and	r24, r24
     190:	b9 f0       	breq	.+46     	; 0x1c0 <I2C_wait_ACK+0x42>
     192:	85 81       	ldd	r24, Z+5	; 0x05
     194:	88 23       	and	r24, r24
     196:	1c f0       	brlt	.+6      	; 0x19e <I2C_wait_ACK+0x20>
     198:	85 81       	ldd	r24, Z+5	; 0x05
     19a:	86 ff       	sbrs	r24, 6
     19c:	f6 cf       	rjmp	.-20     	; 0x18a <I2C_wait_ACK+0xc>
     19e:	e0 e1       	ldi	r30, 0x10	; 16
     1a0:	f8 e0       	ldi	r31, 0x08	; 8
     1a2:	85 81       	ldd	r24, Z+5	; 0x05
     1a4:	80 6c       	ori	r24, 0xC0	; 192
     1a6:	85 83       	std	Z+5, r24	; 0x05
     1a8:	85 81       	ldd	r24, Z+5	; 0x05
     1aa:	82 fd       	sbrc	r24, 2
     1ac:	0b c0       	rjmp	.+22     	; 0x1c4 <I2C_wait_ACK+0x46>
     1ae:	80 91 15 08 	lds	r24, 0x0815	; 0x800815 <__TEXT_REGION_LENGTH__+0x700815>
     1b2:	83 fd       	sbrc	r24, 3
     1b4:	09 c0       	rjmp	.+18     	; 0x1c8 <I2C_wait_ACK+0x4a>
     1b6:	80 91 15 08 	lds	r24, 0x0815	; 0x800815 <__TEXT_REGION_LENGTH__+0x700815>
     1ba:	82 95       	swap	r24
     1bc:	81 70       	andi	r24, 0x01	; 1
     1be:	08 95       	ret
     1c0:	8f ef       	ldi	r24, 0xFF	; 255
     1c2:	08 95       	ret
     1c4:	84 e0       	ldi	r24, 0x04	; 4
     1c6:	08 95       	ret
     1c8:	82 e0       	ldi	r24, 0x02	; 2
     1ca:	08 95       	ret

000001cc <I2C_read>:
}

uint8_t	I2C_read(uint8_t *data, uint8_t ack_flag)					// read data, ack_flag 0: send ACK, 1: send NACK, returns status
{
     1cc:	dc 01       	movw	r26, r24
	timeout_I2C = READ_TIMEOUT;										// reset timeout counter, will be decremented by LED matrix interrupt
     1ce:	9c e0       	ldi	r25, 0x0C	; 12
     1d0:	90 93 cb 38 	sts	0x38CB, r25	; 0x8038cb <timeout_I2C>
	if ((TWI0.MSTATUS & TWI_BUSSTATE_gm) == TWI_BUSSTATE_OWNER_gc)	// if master controls bus
     1d4:	90 91 15 08 	lds	r25, 0x0815	; 0x800815 <__TEXT_REGION_LENGTH__+0x700815>
     1d8:	89 2f       	mov	r24, r25
     1da:	83 70       	andi	r24, 0x03	; 3
     1dc:	82 30       	cpi	r24, 0x02	; 2
     1de:	39 f0       	breq	.+14     	; 0x1ee <I2C_read+0x22>
		else		TWI0.MCTRLB |= TWI_ACKACT_NACK_gc;				// setup NACK (last byte read)
		*data = TWI0.MDATA;
		if (ack_flag == 0) TWI0.MCTRLB |= TWI_MCMD_RECVTRANS_gc;	// send ACK, more bytes to follow					
		return 0;
	}
	else return 8;													// master does not control bus
     1e0:	88 e0       	ldi	r24, 0x08	; 8
     1e2:	08 95       	ret
	timeout_I2C = READ_TIMEOUT;										// reset timeout counter, will be decremented by LED matrix interrupt
	if ((TWI0.MSTATUS & TWI_BUSSTATE_gm) == TWI_BUSSTATE_OWNER_gc)	// if master controls bus
	{		
		while (!(TWI0.MSTATUS & TWI_RIF_bm))						// wait for RIF set (data byte received)
		{
			if (!(timeout_I2C)) return 0xff;			            // return timeout error
     1e4:	90 91 cb 38 	lds	r25, 0x38CB	; 0x8038cb <timeout_I2C>
     1e8:	91 11       	cpse	r25, r1
     1ea:	03 c0       	rjmp	.+6      	; 0x1f2 <I2C_read+0x26>
     1ec:	2a c0       	rjmp	.+84     	; 0x242 <I2C_read+0x76>
uint8_t	I2C_read(uint8_t *data, uint8_t ack_flag)					// read data, ack_flag 0: send ACK, 1: send NACK, returns status
{
	timeout_I2C = READ_TIMEOUT;										// reset timeout counter, will be decremented by LED matrix interrupt
	if ((TWI0.MSTATUS & TWI_BUSSTATE_gm) == TWI_BUSSTATE_OWNER_gc)	// if master controls bus
	{		
		while (!(TWI0.MSTATUS & TWI_RIF_bm))						// wait for RIF set (data byte received)
     1ee:	e0 e1       	ldi	r30, 0x10	; 16
     1f0:	f8 e0       	ldi	r31, 0x08	; 8
     1f2:	95 81       	ldd	r25, Z+5	; 0x05
     1f4:	99 23       	and	r25, r25
     1f6:	b4 f7       	brge	.-20     	; 0x1e4 <I2C_read+0x18>
		{
			if (!(timeout_I2C)) return 0xff;			            // return timeout error
		}
		TWI0.MSTATUS |= (TWI_RIF_bm | TWI_WIF_bm);					// clear Read and Write interrupt flags	
     1f8:	e0 e1       	ldi	r30, 0x10	; 16
     1fa:	f8 e0       	ldi	r31, 0x08	; 8
     1fc:	95 81       	ldd	r25, Z+5	; 0x05
     1fe:	90 6c       	ori	r25, 0xC0	; 192
     200:	95 83       	std	Z+5, r25	; 0x05
		if (TWI0.MSTATUS & TWI_BUSERR_bm) return 4;					// Bus Error, abort
     202:	95 81       	ldd	r25, Z+5	; 0x05
     204:	92 fd       	sbrc	r25, 2
     206:	1f c0       	rjmp	.+62     	; 0x246 <I2C_read+0x7a>
		if (TWI0.MSTATUS & TWI_ARBLOST_bm) return 2;				// Arbitration Lost, abort
     208:	90 91 15 08 	lds	r25, 0x0815	; 0x800815 <__TEXT_REGION_LENGTH__+0x700815>
     20c:	93 fd       	sbrc	r25, 3
     20e:	1e c0       	rjmp	.+60     	; 0x24c <I2C_read+0x80>
		if (TWI0.MSTATUS & TWI_RXACK_bm) return 1;					// Slave replied with NACK, abort				
     210:	90 91 15 08 	lds	r25, 0x0815	; 0x800815 <__TEXT_REGION_LENGTH__+0x700815>
     214:	89 2f       	mov	r24, r25
     216:	80 71       	andi	r24, 0x10	; 16
     218:	94 fd       	sbrc	r25, 4
     21a:	17 c0       	rjmp	.+46     	; 0x24a <I2C_read+0x7e>
		if (ack_flag == 0) TWI0.MCTRLB &= ~(1 << TWI_ACKACT_bp);	// setup ACK
     21c:	61 11       	cpse	r22, r1
     21e:	09 c0       	rjmp	.+18     	; 0x232 <I2C_read+0x66>
     220:	94 81       	ldd	r25, Z+4	; 0x04
     222:	9b 7f       	andi	r25, 0xFB	; 251
     224:	94 83       	std	Z+4, r25	; 0x04
		else		TWI0.MCTRLB |= TWI_ACKACT_NACK_gc;				// setup NACK (last byte read)
		*data = TWI0.MDATA;
     226:	90 85       	ldd	r25, Z+8	; 0x08
     228:	9c 93       	st	X, r25
		if (ack_flag == 0) TWI0.MCTRLB |= TWI_MCMD_RECVTRANS_gc;	// send ACK, more bytes to follow					
     22a:	94 81       	ldd	r25, Z+4	; 0x04
     22c:	92 60       	ori	r25, 0x02	; 2
     22e:	94 83       	std	Z+4, r25	; 0x04
     230:	08 95       	ret
		TWI0.MSTATUS |= (TWI_RIF_bm | TWI_WIF_bm);					// clear Read and Write interrupt flags	
		if (TWI0.MSTATUS & TWI_BUSERR_bm) return 4;					// Bus Error, abort
		if (TWI0.MSTATUS & TWI_ARBLOST_bm) return 2;				// Arbitration Lost, abort
		if (TWI0.MSTATUS & TWI_RXACK_bm) return 1;					// Slave replied with NACK, abort				
		if (ack_flag == 0) TWI0.MCTRLB &= ~(1 << TWI_ACKACT_bp);	// setup ACK
		else		TWI0.MCTRLB |= TWI_ACKACT_NACK_gc;				// setup NACK (last byte read)
     232:	e0 e1       	ldi	r30, 0x10	; 16
     234:	f8 e0       	ldi	r31, 0x08	; 8
     236:	94 81       	ldd	r25, Z+4	; 0x04
     238:	94 60       	ori	r25, 0x04	; 4
     23a:	94 83       	std	Z+4, r25	; 0x04
		*data = TWI0.MDATA;
     23c:	90 85       	ldd	r25, Z+8	; 0x08
     23e:	9c 93       	st	X, r25
     240:	08 95       	ret
	timeout_I2C = READ_TIMEOUT;										// reset timeout counter, will be decremented by LED matrix interrupt
	if ((TWI0.MSTATUS & TWI_BUSSTATE_gm) == TWI_BUSSTATE_OWNER_gc)	// if master controls bus
	{		
		while (!(TWI0.MSTATUS & TWI_RIF_bm))						// wait for RIF set (data byte received)
		{
			if (!(timeout_I2C)) return 0xff;			            // return timeout error
     242:	8f ef       	ldi	r24, 0xFF	; 255
     244:	08 95       	ret
		}
		TWI0.MSTATUS |= (TWI_RIF_bm | TWI_WIF_bm);					// clear Read and Write interrupt flags	
		if (TWI0.MSTATUS & TWI_BUSERR_bm) return 4;					// Bus Error, abort
     246:	84 e0       	ldi	r24, 0x04	; 4
     248:	08 95       	ret
		if (TWI0.MSTATUS & TWI_ARBLOST_bm) return 2;				// Arbitration Lost, abort
		if (TWI0.MSTATUS & TWI_RXACK_bm) return 1;					// Slave replied with NACK, abort				
     24a:	81 e0       	ldi	r24, 0x01	; 1
		*data = TWI0.MDATA;
		if (ack_flag == 0) TWI0.MCTRLB |= TWI_MCMD_RECVTRANS_gc;	// send ACK, more bytes to follow					
		return 0;
	}
	else return 8;													// master does not control bus
}
     24c:	08 95       	ret

0000024e <I2C_write>:

uint8_t I2C_write(uint8_t *data)									// write data, return status
{
     24e:	fc 01       	movw	r30, r24
	timeout_I2C = WRITE_TIMEOUT;									// reset timeout counter, will be decremented by LED matrix interrupt
     250:	9c e0       	ldi	r25, 0x0C	; 12
     252:	90 93 cb 38 	sts	0x38CB, r25	; 0x8038cb <timeout_I2C>
	if ((TWI0.MSTATUS & TWI_BUSSTATE_gm) == TWI_BUSSTATE_OWNER_gc)	// if master controls bus
     256:	90 91 15 08 	lds	r25, 0x0815	; 0x800815 <__TEXT_REGION_LENGTH__+0x700815>
     25a:	93 70       	andi	r25, 0x03	; 3
     25c:	92 30       	cpi	r25, 0x02	; 2
     25e:	b1 f4       	brne	.+44     	; 0x28c <I2C_write+0x3e>
	{
		TWI0.MDATA = *data;		
     260:	80 81       	ld	r24, Z
     262:	80 93 18 08 	sts	0x0818, r24	; 0x800818 <__TEXT_REGION_LENGTH__+0x700818>
		while (!(TWI0.MSTATUS & TWI_WIF_bm))						// wait until WIF set, status register contains ACK/NACK bit
     266:	e0 e1       	ldi	r30, 0x10	; 16
     268:	f8 e0       	ldi	r31, 0x08	; 8
     26a:	04 c0       	rjmp	.+8      	; 0x274 <I2C_write+0x26>
		{
			if (!(timeout_I2C)) return 0xff;			            // return timeout error
     26c:	80 91 cb 38 	lds	r24, 0x38CB	; 0x8038cb <timeout_I2C>
     270:	88 23       	and	r24, r24
     272:	71 f0       	breq	.+28     	; 0x290 <I2C_write+0x42>
{
	timeout_I2C = WRITE_TIMEOUT;									// reset timeout counter, will be decremented by LED matrix interrupt
	if ((TWI0.MSTATUS & TWI_BUSSTATE_gm) == TWI_BUSSTATE_OWNER_gc)	// if master controls bus
	{
		TWI0.MDATA = *data;		
		while (!(TWI0.MSTATUS & TWI_WIF_bm))						// wait until WIF set, status register contains ACK/NACK bit
     274:	85 81       	ldd	r24, Z+5	; 0x05
     276:	86 ff       	sbrs	r24, 6
     278:	f9 cf       	rjmp	.-14     	; 0x26c <I2C_write+0x1e>
		{
			if (!(timeout_I2C)) return 0xff;			            // return timeout error
		}
		if (TWI0.MSTATUS & TWI_BUSERR_bm) return 4;					// Bus Error, abort
     27a:	80 91 15 08 	lds	r24, 0x0815	; 0x800815 <__TEXT_REGION_LENGTH__+0x700815>
     27e:	82 fd       	sbrc	r24, 2
     280:	09 c0       	rjmp	.+18     	; 0x294 <I2C_write+0x46>
		if (TWI0.MSTATUS & TWI_RXACK_bm) return 1;					// Slave replied with NACK, abort
     282:	80 91 15 08 	lds	r24, 0x0815	; 0x800815 <__TEXT_REGION_LENGTH__+0x700815>
	if ((TWI0.MSTATUS & TWI_BUSSTATE_gm) == TWI_BUSSTATE_OWNER_gc)	// if master controls bus
	{
		TWI0.MDATA = *data;		
		while (!(TWI0.MSTATUS & TWI_WIF_bm))						// wait until WIF set, status register contains ACK/NACK bit
		{
			if (!(timeout_I2C)) return 0xff;			            // return timeout error
     286:	82 95       	swap	r24
     288:	81 70       	andi	r24, 0x01	; 1
     28a:	08 95       	ret
		}
		if (TWI0.MSTATUS & TWI_BUSERR_bm) return 4;					// Bus Error, abort
		if (TWI0.MSTATUS & TWI_RXACK_bm) return 1;					// Slave replied with NACK, abort
		return 0;													// no error	
	}
	else return 8;													// master does not control bus
     28c:	88 e0       	ldi	r24, 0x08	; 8
     28e:	08 95       	ret
	if ((TWI0.MSTATUS & TWI_BUSSTATE_gm) == TWI_BUSSTATE_OWNER_gc)	// if master controls bus
	{
		TWI0.MDATA = *data;		
		while (!(TWI0.MSTATUS & TWI_WIF_bm))						// wait until WIF set, status register contains ACK/NACK bit
		{
			if (!(timeout_I2C)) return 0xff;			            // return timeout error
     290:	8f ef       	ldi	r24, 0xFF	; 255
     292:	08 95       	ret
		}
		if (TWI0.MSTATUS & TWI_BUSERR_bm) return 4;					// Bus Error, abort
     294:	84 e0       	ldi	r24, 0x04	; 4
		if (TWI0.MSTATUS & TWI_RXACK_bm) return 1;					// Slave replied with NACK, abort
		return 0;													// no error	
	}
	else return 8;													// master does not control bus
}
     296:	08 95       	ret

00000298 <I2C_stop>:

void I2C_stop()
{
	TWI0.MCTRLB |= TWI_MCMD_STOP_gc;
     298:	e0 e1       	ldi	r30, 0x10	; 16
     29a:	f8 e0       	ldi	r31, 0x08	; 8
     29c:	84 81       	ldd	r24, Z+4	; 0x04
     29e:	83 60       	ori	r24, 0x03	; 3
     2a0:	84 83       	std	Z+4, r24	; 0x04
     2a2:	08 95       	ret

000002a4 <I2C_read_bytes>:
// addr_ptr		address of first array element to transfer
// slave reg	starting slave register
// num_bytes	number of bytes to transfer

uint8_t	I2C_read_bytes(uint8_t slave_addr, uint8_t *reg_ptr, uint8_t reg_len, uint8_t *dat_ptr, uint8_t dat_len)
{
     2a4:	cf 92       	push	r12
     2a6:	df 92       	push	r13
     2a8:	ef 92       	push	r14
     2aa:	ff 92       	push	r15
     2ac:	0f 93       	push	r16
     2ae:	1f 93       	push	r17
     2b0:	cf 93       	push	r28
     2b2:	df 93       	push	r29
     2b4:	eb 01       	movw	r28, r22
     2b6:	c4 2e       	mov	r12, r20
     2b8:	79 01       	movw	r14, r18
	uint8_t status;
	if (dat_len > MAX_LEN) dat_len = MAX_LEN;
	status = I2C_start(slave_addr << 1);							// slave write address, LSB 0
     2ba:	18 2f       	mov	r17, r24
     2bc:	11 0f       	add	r17, r17
     2be:	81 2f       	mov	r24, r17
     2c0:	4e df       	rcall	.-356    	; 0x15e <I2C_start>
	if (status != 0) goto error;
     2c2:	81 11       	cpse	r24, r1
	status = I2C_wait_ACK();										// wait for slave ACK
     2c4:	3c c0       	rjmp	.+120    	; 0x33e <I2C_read_bytes+0x9a>
     2c6:	5b df       	rcall	.-330    	; 0x17e <I2C_wait_ACK>
	if (status == 1) {
     2c8:	81 30       	cpi	r24, 0x01	; 1
		I2C_stop();													// NACK, abort
     2ca:	19 f4       	brne	.+6      	; 0x2d2 <I2C_read_bytes+0x2e>
     2cc:	e5 df       	rcall	.-54     	; 0x298 <I2C_stop>
		return 1;
     2ce:	81 e0       	ldi	r24, 0x01	; 1
     2d0:	38 c0       	rjmp	.+112    	; 0x342 <I2C_read_bytes+0x9e>
	}
	if (status != 0) goto error;
     2d2:	81 11       	cpse	r24, r1
     2d4:	34 c0       	rjmp	.+104    	; 0x33e <I2C_read_bytes+0x9a>
    while(reg_len > 0){
     2d6:	cc 20       	and	r12, r12
     2d8:	79 f0       	breq	.+30     	; 0x2f8 <I2C_read_bytes+0x54>
     2da:	ca 94       	dec	r12
     2dc:	d1 2c       	mov	r13, r1
     2de:	8f ef       	ldi	r24, 0xFF	; 255
     2e0:	c8 1a       	sub	r12, r24
     2e2:	d8 0a       	sbc	r13, r24
     2e4:	cc 0e       	add	r12, r28
	    status = I2C_write(reg_ptr);    							// send slave start register
     2e6:	dd 1e       	adc	r13, r29
     2e8:	ce 01       	movw	r24, r28
     2ea:	b1 df       	rcall	.-158    	; 0x24e <I2C_write>
	    if (status != 0) goto error;
     2ec:	81 11       	cpse	r24, r1
     2ee:	27 c0       	rjmp	.+78     	; 0x33e <I2C_read_bytes+0x9a>
        ++reg_ptr;
     2f0:	21 96       	adiw	r28, 0x01	; 1
	if (status == 1) {
		I2C_stop();													// NACK, abort
		return 1;
	}
	if (status != 0) goto error;
    while(reg_len > 0){
     2f2:	cc 16       	cp	r12, r28
     2f4:	dd 06       	cpc	r13, r29
     2f6:	c1 f7       	brne	.-16     	; 0x2e8 <I2C_read_bytes+0x44>
     2f8:	01 34       	cpi	r16, 0x41	; 65
     2fa:	08 f0       	brcs	.+2      	; 0x2fe <I2C_read_bytes+0x5a>
     2fc:	00 e4       	ldi	r16, 0x40	; 64
	    status = I2C_write(reg_ptr);    							// send slave start register
	    if (status != 0) goto error;
        ++reg_ptr;
        --reg_len;
    }
	I2C_rep_start((slave_addr << 1) + 1);							// slave read address, LSB 1
     2fe:	1f 5f       	subi	r17, 0xFF	; 255
// the Atmel device documentation mentions a special command for repeated start TWI_MCMD_REPSTART_gc,
// but this is not used in Atmel's demo code, so we don't use it either

void I2C_rep_start(uint8_t shifted_addr)						    // send repeated start, device_addr + LSB set if READ
{
	TWI0.MADDR = shifted_addr;	
     300:	10 93 17 08 	sts	0x0817, r17	; 0x800817 <__TEXT_REGION_LENGTH__+0x700817>
	    if (status != 0) goto error;
        ++reg_ptr;
        --reg_len;
    }
	I2C_rep_start((slave_addr << 1) + 1);							// slave read address, LSB 1
	while (dat_len > 1) {
     304:	02 30       	cpi	r16, 0x02	; 2
     306:	90 f0       	brcs	.+36     	; 0x32c <I2C_read_bytes+0x88>
     308:	02 50       	subi	r16, 0x02	; 2
     30a:	c0 2f       	mov	r28, r16
     30c:	d0 e0       	ldi	r29, 0x00	; 0
     30e:	21 96       	adiw	r28, 0x01	; 1
     310:	ce 0d       	add	r28, r14
		status = I2C_read(dat_ptr, 0);								// first bytes, send ACK
     312:	df 1d       	adc	r29, r15
     314:	60 e0       	ldi	r22, 0x00	; 0
     316:	c7 01       	movw	r24, r14
     318:	59 df       	rcall	.-334    	; 0x1cc <I2C_read>
		if (status != 0) goto error;
     31a:	81 11       	cpse	r24, r1
     31c:	10 c0       	rjmp	.+32     	; 0x33e <I2C_read_bytes+0x9a>
		++dat_ptr;
     31e:	8f ef       	ldi	r24, 0xFF	; 255
     320:	e8 1a       	sub	r14, r24
     322:	f8 0a       	sbc	r15, r24
	    if (status != 0) goto error;
        ++reg_ptr;
        --reg_len;
    }
	I2C_rep_start((slave_addr << 1) + 1);							// slave read address, LSB 1
	while (dat_len > 1) {
     324:	ec 16       	cp	r14, r28
     326:	fd 06       	cpc	r15, r29
     328:	a9 f7       	brne	.-22     	; 0x314 <I2C_read_bytes+0x70>
     32a:	01 c0       	rjmp	.+2      	; 0x32e <I2C_read_bytes+0x8a>
		status = I2C_read(dat_ptr, 0);								// first bytes, send ACK
		if (status != 0) goto error;
		++dat_ptr;
		--dat_len;
	}
	status = I2C_read(dat_ptr, 1);									// single or last byte, send NACK
     32c:	e7 01       	movw	r28, r14
     32e:	61 e0       	ldi	r22, 0x01	; 1
     330:	ce 01       	movw	r24, r28
	if (status != 0) goto error;
     332:	4c df       	rcall	.-360    	; 0x1cc <I2C_read>
     334:	81 11       	cpse	r24, r1
	I2C_stop();
     336:	03 c0       	rjmp	.+6      	; 0x33e <I2C_read_bytes+0x9a>
     338:	af df       	rcall	.-162    	; 0x298 <I2C_stop>
	return 0;
     33a:	80 e0       	ldi	r24, 0x00	; 0
     33c:	02 c0       	rjmp	.+4      	; 0x342 <I2C_read_bytes+0x9e>
	
error:
	I2C_recover();													// clock out possibly stuck slave, reset master
     33e:	da de       	rcall	.-588    	; 0xf4 <I2C_recover>
     340:	8f ef       	ldi	r24, 0xFF	; 255
	return 0xff;													// flag error
     342:	df 91       	pop	r29
}
     344:	cf 91       	pop	r28
     346:	1f 91       	pop	r17
     348:	0f 91       	pop	r16
     34a:	ff 90       	pop	r15
     34c:	ef 90       	pop	r14
     34e:	df 90       	pop	r13
     350:	cf 90       	pop	r12
     352:	08 95       	ret

00000354 <Setup>:
     354:	cf 93       	push	r28
    if ((previousValue&0x0F)==bNibble){
        if ((previousValue&0xF0) < 0xF0) previousValue += 0x10; //Same value? Increase time nibble
        return previousValue;       
    } else if (bNibble == 0) return 0xFF; //Buttons released, 0xFF triggers readout, previousValue holds last button value.
              else return bNibble;  //New value  
}
     356:	df 93       	push	r29
     358:	f8 94       	cli
     35a:	88 ed       	ldi	r24, 0xD8	; 216
     35c:	84 bf       	out	0x34, r24	; 52
     35e:	c1 e0       	ldi	r28, 0x01	; 1
     360:	c0 93 61 00 	sts	0x0061, r28	; 0x800061 <__TEXT_REGION_LENGTH__+0x700061>
     364:	8a e4       	ldi	r24, 0x4A	; 74
     366:	80 93 00 04 	sts	0x0400, r24	; 0x800400 <__TEXT_REGION_LENGTH__+0x700400>
     36a:	8c e7       	ldi	r24, 0x7C	; 124
     36c:	80 93 20 04 	sts	0x0420, r24	; 0x800420 <__TEXT_REGION_LENGTH__+0x700420>
     370:	8f e3       	ldi	r24, 0x3F	; 63
     372:	80 93 40 04 	sts	0x0440, r24	; 0x800440 <__TEXT_REGION_LENGTH__+0x700440>
     376:	c0 93 01 02 	sts	0x0201, r28	; 0x800201 <__TEXT_REGION_LENGTH__+0x700201>
     37a:	d2 e0       	ldi	r29, 0x02	; 2
     37c:	d0 93 05 04 	sts	0x0405, r29	; 0x800405 <__TEXT_REGION_LENGTH__+0x700405>
     380:	2b e5       	ldi	r18, 0x5B	; 91
     382:	31 e0       	ldi	r19, 0x01	; 1
     384:	20 93 08 08 	sts	0x0808, r18	; 0x800808 <__TEXT_REGION_LENGTH__+0x700808>
     388:	30 93 09 08 	sts	0x0809, r19	; 0x800809 <__TEXT_REGION_LENGTH__+0x700809>
     38c:	90 ea       	ldi	r25, 0xA0	; 160
     38e:	90 93 05 08 	sts	0x0805, r25	; 0x800805 <__TEXT_REGION_LENGTH__+0x700805>
     392:	90 ec       	ldi	r25, 0xC0	; 192
     394:	90 93 06 08 	sts	0x0806, r25	; 0x800806 <__TEXT_REGION_LENGTH__+0x700806>
     398:	93 e0       	ldi	r25, 0x03	; 3
     39a:	90 93 07 08 	sts	0x0807, r25	; 0x800807 <__TEXT_REGION_LENGTH__+0x700807>
     39e:	1c ba       	out	0x1c, r1	; 28
     3a0:	1d ba       	out	0x1d, r1	; 29
     3a2:	1e ba       	out	0x1e, r1	; 30
     3a4:	1f ba       	out	0x1f, r1	; 31
     3a6:	c0 93 03 0a 	sts	0x0A03, r28	; 0x800a03 <__TEXT_REGION_LENGTH__+0x700a03>
     3aa:	e0 e0       	ldi	r30, 0x00	; 0
     3ac:	fa e0       	ldi	r31, 0x0A	; 10
     3ae:	98 e0       	ldi	r25, 0x08	; 8
     3b0:	90 83       	st	Z, r25
     3b2:	80 93 02 02 	sts	0x0202, r24	; 0x800202 <__TEXT_REGION_LENGTH__+0x700202>
     3b6:	87 e7       	ldi	r24, 0x77	; 119
     3b8:	80 93 01 0a 	sts	0x0A01, r24	; 0x800a01 <__TEXT_REGION_LENGTH__+0x700a01>
     3bc:	c0 93 0a 0a 	sts	0x0A0A, r28	; 0x800a0a <__TEXT_REGION_LENGTH__+0x700a0a>
     3c0:	8b e0       	ldi	r24, 0x0B	; 11
     3c2:	80 93 05 0a 	sts	0x0A05, r24	; 0x800a05 <__TEXT_REGION_LENGTH__+0x700a05>
     3c6:	80 81       	ld	r24, Z
     3c8:	81 60       	ori	r24, 0x01	; 1
     3ca:	80 83       	st	Z, r24
     3cc:	85 e0       	ldi	r24, 0x05	; 5
     3ce:	80 93 40 0a 	sts	0x0A40, r24	; 0x800a40 <__TEXT_REGION_LENGTH__+0x700a40>
     3d2:	10 92 41 0a 	sts	0x0A41, r1	; 0x800a41 <__TEXT_REGION_LENGTH__+0x700a41>
     3d6:	8f ef       	ldi	r24, 0xFF	; 255
     3d8:	91 e0       	ldi	r25, 0x01	; 1
     3da:	80 93 4c 0a 	sts	0x0A4C, r24	; 0x800a4c <__TEXT_REGION_LENGTH__+0x700a4c>
     3de:	90 93 4d 0a 	sts	0x0A4D, r25	; 0x800a4d <__TEXT_REGION_LENGTH__+0x700a4d>
     3e2:	10 92 45 0a 	sts	0x0A45, r1	; 0x800a45 <__TEXT_REGION_LENGTH__+0x700a45>
     3e6:	c0 93 50 0a 	sts	0x0A50, r28	; 0x800a50 <__TEXT_REGION_LENGTH__+0x700a50>
     3ea:	10 92 51 0a 	sts	0x0A51, r1	; 0x800a51 <__TEXT_REGION_LENGTH__+0x700a51>
     3ee:	8b e8       	ldi	r24, 0x8B	; 139
     3f0:	93 e0       	ldi	r25, 0x03	; 3
     3f2:	80 93 5c 0a 	sts	0x0A5C, r24	; 0x800a5c <__TEXT_REGION_LENGTH__+0x700a5c>
     3f6:	90 93 5d 0a 	sts	0x0A5D, r25	; 0x800a5d <__TEXT_REGION_LENGTH__+0x700a5d>
     3fa:	c0 93 55 0a 	sts	0x0A55, r28	; 0x800a55 <__TEXT_REGION_LENGTH__+0x700a55>
     3fe:	5c de       	rcall	.-840    	; 0xb8 <I2C_init>
     400:	82 e1       	ldi	r24, 0x12	; 18
     402:	80 93 a0 00 	sts	0x00A0, r24	; 0x8000a0 <__TEXT_REGION_LENGTH__+0x7000a0>
     406:	80 e2       	ldi	r24, 0x20	; 32
     408:	80 93 a2 00 	sts	0x00A2, r24	; 0x8000a2 <__TEXT_REGION_LENGTH__+0x7000a2>
     40c:	c0 93 a1 00 	sts	0x00A1, r28	; 0x8000a1 <__TEXT_REGION_LENGTH__+0x7000a1>
     410:	e0 e0       	ldi	r30, 0x00	; 0
     412:	f6 e0       	ldi	r31, 0x06	; 6
     414:	86 e0       	ldi	r24, 0x06	; 6
     416:	80 83       	st	Z, r24
     418:	84 e4       	ldi	r24, 0x44	; 68
     41a:	80 93 02 06 	sts	0x0602, r24	; 0x800602 <__TEXT_REGION_LENGTH__+0x700602>
     41e:	8e e1       	ldi	r24, 0x1E	; 30
     420:	80 93 06 06 	sts	0x0606, r24	; 0x800606 <__TEXT_REGION_LENGTH__+0x700606>
     424:	c0 93 0a 06 	sts	0x060A, r28	; 0x80060a <__TEXT_REGION_LENGTH__+0x70060a>
     428:	80 81       	ld	r24, Z
     42a:	81 60       	ori	r24, 0x01	; 1
     42c:	80 83       	st	Z, r24
     42e:	c0 93 08 06 	sts	0x0608, r28	; 0x800608 <__TEXT_REGION_LENGTH__+0x700608>
     432:	e0 e4       	ldi	r30, 0x40	; 64
     434:	f6 e0       	ldi	r31, 0x06	; 6
     436:	10 82       	st	Z, r1
     438:	d0 93 41 06 	sts	0x0641, r29	; 0x800641 <__TEXT_REGION_LENGTH__+0x700641>
     43c:	82 e5       	ldi	r24, 0x52	; 82
     43e:	80 93 42 06 	sts	0x0642, r24	; 0x800642 <__TEXT_REGION_LENGTH__+0x700642>
     442:	84 e0       	ldi	r24, 0x04	; 4
     444:	80 93 45 06 	sts	0x0645, r24	; 0x800645 <__TEXT_REGION_LENGTH__+0x700645>
     448:	80 93 46 06 	sts	0x0646, r24	; 0x800646 <__TEXT_REGION_LENGTH__+0x700646>
     44c:	c0 93 4a 06 	sts	0x064A, r28	; 0x80064a <__TEXT_REGION_LENGTH__+0x70064a>
     450:	80 81       	ld	r24, Z
     452:	81 60       	ori	r24, 0x01	; 1
     454:	80 83       	st	Z, r24
     456:	c0 93 48 06 	sts	0x0648, r28	; 0x800648 <__TEXT_REGION_LENGTH__+0x700648>
     45a:	e0 ea       	ldi	r30, 0xA0	; 160
     45c:	f6 e0       	ldi	r31, 0x06	; 6
     45e:	80 e4       	ldi	r24, 0x40	; 64
     460:	80 83       	st	Z, r24
     462:	80 e8       	ldi	r24, 0x80	; 128
     464:	80 93 a1 06 	sts	0x06A1, r24	; 0x8006a1 <__TEXT_REGION_LENGTH__+0x7006a1>
     468:	80 81       	ld	r24, Z
     46a:	81 60       	ori	r24, 0x01	; 1
     46c:	80 83       	st	Z, r24
     46e:	e1 e4       	ldi	r30, 0x41	; 65
     470:	f1 e0       	ldi	r31, 0x01	; 1
     472:	80 81       	ld	r24, Z
     474:	80 fd       	sbrc	r24, 0
     476:	fd cf       	rjmp	.-6      	; 0x472 <__LOCK_REGION_LENGTH__+0x72>
     478:	80 e3       	ldi	r24, 0x30	; 48
     47a:	80 93 40 01 	sts	0x0140, r24	; 0x800140 <__TEXT_REGION_LENGTH__+0x700140>
     47e:	10 92 47 01 	sts	0x0147, r1	; 0x800147 <__TEXT_REGION_LENGTH__+0x700147>
     482:	e1 e4       	ldi	r30, 0x41	; 65
     484:	f1 e0       	ldi	r31, 0x01	; 1
     486:	80 81       	ld	r24, Z
     488:	82 fd       	sbrc	r24, 2
     48a:	fd cf       	rjmp	.-6      	; 0x486 <__LOCK_REGION_LENGTH__+0x86>
     48c:	ea e4       	ldi	r30, 0x4A	; 74
     48e:	f1 e0       	ldi	r31, 0x01	; 1
     490:	80 e0       	ldi	r24, 0x00	; 0
     492:	98 e7       	ldi	r25, 0x78	; 120
     494:	80 83       	st	Z, r24
     496:	91 83       	std	Z+1, r25	; 0x01
     498:	80 91 48 01 	lds	r24, 0x0148	; 0x800148 <__TEXT_REGION_LENGTH__+0x700148>
     49c:	90 91 49 01 	lds	r25, 0x0149	; 0x800149 <__TEXT_REGION_LENGTH__+0x700149>
     4a0:	60 81       	ld	r22, Z
     4a2:	71 81       	ldd	r23, Z+1	; 0x01
     4a4:	82 96       	adiw	r24, 0x22	; 34
     4a6:	2a d7       	rcall	.+3668   	; 0x12fc <__udivmodhi4>
     4a8:	80 93 78 39 	sts	0x3978, r24	; 0x803978 <tmp16bit>
     4ac:	90 93 79 39 	sts	0x3979, r25	; 0x803979 <tmp16bit+0x1>
     4b0:	e1 e4       	ldi	r30, 0x41	; 65
     4b2:	f1 e0       	ldi	r31, 0x01	; 1
     4b4:	80 81       	ld	r24, Z
     4b6:	83 fd       	sbrc	r24, 3
     4b8:	fd cf       	rjmp	.-6      	; 0x4b4 <__LOCK_REGION_LENGTH__+0xb4>
     4ba:	80 91 78 39 	lds	r24, 0x3978	; 0x803978 <tmp16bit>
     4be:	90 91 79 39 	lds	r25, 0x3979	; 0x803979 <tmp16bit+0x1>
     4c2:	80 93 4c 01 	sts	0x014C, r24	; 0x80014c <__TEXT_REGION_LENGTH__+0x70014c>
     4c6:	90 93 4d 01 	sts	0x014D, r25	; 0x80014d <__TEXT_REGION_LENGTH__+0x70014d>
     4ca:	83 e0       	ldi	r24, 0x03	; 3
     4cc:	80 93 42 01 	sts	0x0142, r24	; 0x800142 <__TEXT_REGION_LENGTH__+0x700142>
     4d0:	81 e0       	ldi	r24, 0x01	; 1
     4d2:	80 93 52 01 	sts	0x0152, r24	; 0x800152 <__TEXT_REGION_LENGTH__+0x700152>
     4d6:	88 e0       	ldi	r24, 0x08	; 8
     4d8:	80 93 50 01 	sts	0x0150, r24	; 0x800150 <__TEXT_REGION_LENGTH__+0x700150>
     4dc:	e1 e4       	ldi	r30, 0x41	; 65
     4de:	f1 e0       	ldi	r31, 0x01	; 1
     4e0:	80 81       	ld	r24, Z
     4e2:	80 fd       	sbrc	r24, 0
     4e4:	fd cf       	rjmp	.-6      	; 0x4e0 <__LOCK_REGION_LENGTH__+0xe0>
     4e6:	e0 e4       	ldi	r30, 0x40	; 64
     4e8:	f1 e0       	ldi	r31, 0x01	; 1
     4ea:	80 81       	ld	r24, Z
     4ec:	81 60       	ori	r24, 0x01	; 1
     4ee:	80 83       	st	Z, r24
     4f0:	e0 e5       	ldi	r30, 0x50	; 80
     4f2:	f1 e0       	ldi	r31, 0x01	; 1
     4f4:	80 81       	ld	r24, Z
     4f6:	81 60       	ori	r24, 0x01	; 1
     4f8:	80 83       	st	Z, r24
     4fa:	ec ed       	ldi	r30, 0xDC	; 220
     4fc:	f8 e3       	ldi	r31, 0x38	; 56
     4fe:	10 82       	st	Z, r1
     500:	e0 93 27 39 	sts	0x3927, r30	; 0x803927 <serTxAddr>
     504:	f0 93 28 39 	sts	0x3928, r31	; 0x803928 <serTxAddr+0x1>
     508:	78 94       	sei
     50a:	df 91       	pop	r29
     50c:	cf 91       	pop	r28
     50e:	08 95       	ret

00000510 <__vector_8>:
     510:	1f 92       	push	r1
     512:	0f 92       	push	r0
     514:	0f b6       	in	r0, 0x3f	; 63
     516:	0f 92       	push	r0
     518:	11 24       	eor	r1, r1
     51a:	8f 93       	push	r24
     51c:	9f 93       	push	r25
     51e:	af 93       	push	r26
     520:	bf 93       	push	r27
     522:	ef 93       	push	r30
     524:	ff 93       	push	r31
     526:	87 e0       	ldi	r24, 0x07	; 7
     528:	80 93 46 04 	sts	0x0446, r24	; 0x800446 <__TEXT_REGION_LENGTH__+0x700446>
     52c:	84 e4       	ldi	r24, 0x44	; 68
     52e:	80 93 26 04 	sts	0x0426, r24	; 0x800426 <__TEXT_REGION_LENGTH__+0x700426>
     532:	ec b3       	in	r30, 0x1c	; 28
     534:	f0 e0       	ldi	r31, 0x00	; 0
     536:	ee 0f       	add	r30, r30
     538:	ff 1f       	adc	r31, r31
     53a:	ee 0f       	add	r30, r30
     53c:	ff 1f       	adc	r31, r31
     53e:	ee 0f       	add	r30, r30
     540:	ff 1f       	adc	r31, r31
     542:	e2 5b       	subi	r30, 0xB2	; 178
     544:	f6 4c       	sbci	r31, 0xC6	; 198
     546:	a8 e2       	ldi	r26, 0x28	; 40
     548:	ba e0       	ldi	r27, 0x0A	; 10
     54a:	96 e0       	ldi	r25, 0x06	; 6
     54c:	81 91       	ld	r24, Z+
     54e:	8d 93       	st	X+, r24
     550:	9a 95       	dec	r25
     552:	e1 f7       	brne	.-8      	; 0x54c <__vector_8+0x3c>
     554:	8b e0       	ldi	r24, 0x0B	; 11
     556:	80 93 05 0a 	sts	0x0A05, r24	; 0x800a05 <__TEXT_REGION_LENGTH__+0x700a05>
     55a:	8c b3       	in	r24, 0x1c	; 28
     55c:	83 30       	cpi	r24, 0x03	; 3
     55e:	58 f4       	brcc	.+22     	; 0x576 <__vector_8+0x66>
     560:	8c b3       	in	r24, 0x1c	; 28
     562:	91 e0       	ldi	r25, 0x01	; 1
     564:	01 c0       	rjmp	.+2      	; 0x568 <__vector_8+0x58>
     566:	99 0f       	add	r25, r25
     568:	8a 95       	dec	r24
     56a:	ea f7       	brpl	.-6      	; 0x566 <__vector_8+0x56>
     56c:	99 b9       	out	0x09, r25	; 9
     56e:	8c b3       	in	r24, 0x1c	; 28
     570:	83 95       	inc	r24
     572:	8c bb       	out	0x1c, r24	; 28
     574:	0a c0       	rjmp	.+20     	; 0x58a <__vector_8+0x7a>
     576:	8c b3       	in	r24, 0x1c	; 28
     578:	83 30       	cpi	r24, 0x03	; 3
     57a:	21 f4       	brne	.+8      	; 0x584 <__vector_8+0x74>
     57c:	2a 9a       	sbi	0x05, 2	; 5
     57e:	83 95       	inc	r24
     580:	8c bb       	out	0x1c, r24	; 28
     582:	03 c0       	rjmp	.+6      	; 0x58a <__vector_8+0x7a>
     584:	2e 9a       	sbi	0x05, 6	; 5
     586:	88 27       	eor	r24, r24
     588:	8c bb       	out	0x1c, r24	; 28
     58a:	80 91 cb 38 	lds	r24, 0x38CB	; 0x8038cb <timeout_I2C>
     58e:	88 23       	and	r24, r24
     590:	29 f0       	breq	.+10     	; 0x59c <__vector_8+0x8c>
     592:	80 91 cb 38 	lds	r24, 0x38CB	; 0x8038cb <timeout_I2C>
     596:	81 50       	subi	r24, 0x01	; 1
     598:	80 93 cb 38 	sts	0x38CB, r24	; 0x8038cb <timeout_I2C>
     59c:	8f ef       	ldi	r24, 0xFF	; 255
     59e:	80 93 0b 0a 	sts	0x0A0B, r24	; 0x800a0b <__TEXT_REGION_LENGTH__+0x700a0b>
     5a2:	ff 91       	pop	r31
     5a4:	ef 91       	pop	r30
     5a6:	bf 91       	pop	r27
     5a8:	af 91       	pop	r26
     5aa:	9f 91       	pop	r25
     5ac:	8f 91       	pop	r24
     5ae:	0f 90       	pop	r0
     5b0:	0f be       	out	0x3f, r0	; 63
     5b2:	0f 90       	pop	r0
     5b4:	1f 90       	pop	r1
     5b6:	18 95       	reti

000005b8 <__vector_13>:
     5b8:	1f 92       	push	r1
     5ba:	0f 92       	push	r0
     5bc:	0f b6       	in	r0, 0x3f	; 63
     5be:	0f 92       	push	r0
     5c0:	11 24       	eor	r1, r1
     5c2:	8f 93       	push	r24
     5c4:	9f 93       	push	r25
     5c6:	ef 93       	push	r30
     5c8:	ff 93       	push	r31
     5ca:	e0 91 27 39 	lds	r30, 0x3927	; 0x803927 <serTxAddr>
     5ce:	f0 91 28 39 	lds	r31, 0x3928	; 0x803928 <serTxAddr+0x1>
     5d2:	80 81       	ld	r24, Z
     5d4:	88 23       	and	r24, r24
     5d6:	91 f0       	breq	.+36     	; 0x5fc <__vector_13+0x44>
     5d8:	80 81       	ld	r24, Z
     5da:	80 93 02 08 	sts	0x0802, r24	; 0x800802 <__TEXT_REGION_LENGTH__+0x700802>
     5de:	80 91 27 39 	lds	r24, 0x3927	; 0x803927 <serTxAddr>
     5e2:	90 91 28 39 	lds	r25, 0x3928	; 0x803928 <serTxAddr+0x1>
     5e6:	01 96       	adiw	r24, 0x01	; 1
     5e8:	80 93 27 39 	sts	0x3927, r24	; 0x803927 <serTxAddr>
     5ec:	90 93 28 39 	sts	0x3928, r25	; 0x803928 <serTxAddr+0x1>
     5f0:	e5 e0       	ldi	r30, 0x05	; 5
     5f2:	f8 e0       	ldi	r31, 0x08	; 8
     5f4:	80 81       	ld	r24, Z
     5f6:	80 62       	ori	r24, 0x20	; 32
     5f8:	80 83       	st	Z, r24
     5fa:	05 c0       	rjmp	.+10     	; 0x606 <__vector_13+0x4e>
     5fc:	81 e0       	ldi	r24, 0x01	; 1
     5fe:	80 93 04 38 	sts	0x3804, r24	; 0x803804 <serTxDone>
     602:	10 92 45 0a 	sts	0x0A45, r1	; 0x800a45 <__TEXT_REGION_LENGTH__+0x700a45>
     606:	81 e0       	ldi	r24, 0x01	; 1
     608:	80 93 46 0a 	sts	0x0A46, r24	; 0x800a46 <__TEXT_REGION_LENGTH__+0x700a46>
     60c:	ff 91       	pop	r31
     60e:	ef 91       	pop	r30
     610:	9f 91       	pop	r25
     612:	8f 91       	pop	r24
     614:	0f 90       	pop	r0
     616:	0f be       	out	0x3f, r0	; 63
     618:	0f 90       	pop	r0
     61a:	1f 90       	pop	r1
     61c:	18 95       	reti

0000061e <__vector_14>:
     61e:	1f 92       	push	r1
     620:	0f 92       	push	r0
     622:	0f b6       	in	r0, 0x3f	; 63
     624:	0f 92       	push	r0
     626:	11 24       	eor	r1, r1
     628:	2f 93       	push	r18
     62a:	3f 93       	push	r19
     62c:	4f 93       	push	r20
     62e:	8f 93       	push	r24
     630:	9f 93       	push	r25
     632:	ef 93       	push	r30
     634:	ff 93       	push	r31
     636:	e0 91 02 38 	lds	r30, 0x3802	; 0x803802 <auSmpAddr>
     63a:	f0 91 03 38 	lds	r31, 0x3803	; 0x803803 <auSmpAddr+0x1>
     63e:	80 81       	ld	r24, Z
     640:	81 11       	cpse	r24, r1
     642:	08 c0       	rjmp	.+16     	; 0x654 <__vector_14+0x36>
     644:	80 91 00 38 	lds	r24, 0x3800	; 0x803800 <__data_start>
     648:	90 91 01 38 	lds	r25, 0x3801	; 0x803801 <__data_start+0x1>
     64c:	80 93 02 38 	sts	0x3802, r24	; 0x803802 <auSmpAddr>
     650:	90 93 03 38 	sts	0x3803, r25	; 0x803803 <auSmpAddr+0x1>
     654:	e0 91 02 38 	lds	r30, 0x3802	; 0x803802 <auSmpAddr>
     658:	f0 91 03 38 	lds	r31, 0x3803	; 0x803803 <auSmpAddr+0x1>
     65c:	80 81       	ld	r24, Z
     65e:	88 23       	and	r24, r24
     660:	e1 f0       	breq	.+56     	; 0x69a <__vector_14+0x7c>
     662:	20 81       	ld	r18, Z
     664:	40 91 24 39 	lds	r20, 0x3924	; 0x803924 <auVolume>
     668:	30 e0       	ldi	r19, 0x00	; 0
     66a:	2f 57       	subi	r18, 0x7F	; 127
     66c:	31 09       	sbc	r19, r1
     66e:	42 9f       	mul	r20, r18
     670:	c0 01       	movw	r24, r0
     672:	43 9f       	mul	r20, r19
     674:	90 0d       	add	r25, r0
     676:	11 24       	eor	r1, r1
     678:	89 2f       	mov	r24, r25
     67a:	99 0f       	add	r25, r25
     67c:	99 0b       	sbc	r25, r25
     67e:	80 58       	subi	r24, 0x80	; 128
     680:	9f 4f       	sbci	r25, 0xFF	; 255
     682:	80 93 a1 06 	sts	0x06A1, r24	; 0x8006a1 <__TEXT_REGION_LENGTH__+0x7006a1>
     686:	80 91 02 38 	lds	r24, 0x3802	; 0x803802 <auSmpAddr>
     68a:	90 91 03 38 	lds	r25, 0x3803	; 0x803803 <auSmpAddr+0x1>
     68e:	01 96       	adiw	r24, 0x01	; 1
     690:	80 93 02 38 	sts	0x3802, r24	; 0x803802 <auSmpAddr>
     694:	90 93 03 38 	sts	0x3803, r25	; 0x803803 <auSmpAddr+0x1>
     698:	06 c0       	rjmp	.+12     	; 0x6a6 <__vector_14+0x88>
     69a:	80 e8       	ldi	r24, 0x80	; 128
     69c:	80 93 a1 06 	sts	0x06A1, r24	; 0x8006a1 <__TEXT_REGION_LENGTH__+0x7006a1>
     6a0:	81 e0       	ldi	r24, 0x01	; 1
     6a2:	80 93 76 39 	sts	0x3976, r24	; 0x803976 <auPlayDone>
     6a6:	81 e0       	ldi	r24, 0x01	; 1
     6a8:	80 93 56 0a 	sts	0x0A56, r24	; 0x800a56 <__TEXT_REGION_LENGTH__+0x700a56>
     6ac:	ff 91       	pop	r31
     6ae:	ef 91       	pop	r30
     6b0:	9f 91       	pop	r25
     6b2:	8f 91       	pop	r24
     6b4:	4f 91       	pop	r20
     6b6:	3f 91       	pop	r19
     6b8:	2f 91       	pop	r18
     6ba:	0f 90       	pop	r0
     6bc:	0f be       	out	0x3f, r0	; 63
     6be:	0f 90       	pop	r0
     6c0:	1f 90       	pop	r1
     6c2:	18 95       	reti

000006c4 <__vector_27>:
     6c4:	1f 92       	push	r1
     6c6:	0f 92       	push	r0
     6c8:	0f b6       	in	r0, 0x3f	; 63
     6ca:	0f 92       	push	r0
     6cc:	11 24       	eor	r1, r1
     6ce:	8f 93       	push	r24
     6d0:	ef 93       	push	r30
     6d2:	ff 93       	push	r31
     6d4:	80 91 0a 38 	lds	r24, 0x380A	; 0x80380a <serRxDone>
     6d8:	81 11       	cpse	r24, r1
     6da:	1d c0       	rjmp	.+58     	; 0x716 <__vector_27+0x52>
     6dc:	ed b3       	in	r30, 0x1d	; 29
     6de:	f0 e0       	ldi	r31, 0x00	; 0
     6e0:	80 91 00 08 	lds	r24, 0x0800	; 0x800800 <__TEXT_REGION_LENGTH__+0x700800>
     6e4:	e4 52       	subi	r30, 0x24	; 36
     6e6:	f7 4c       	sbci	r31, 0xC7	; 199
     6e8:	80 83       	st	Z, r24
     6ea:	ed b3       	in	r30, 0x1d	; 29
     6ec:	f0 e0       	ldi	r31, 0x00	; 0
     6ee:	e4 52       	subi	r30, 0x24	; 36
     6f0:	f7 4c       	sbci	r31, 0xC7	; 199
     6f2:	80 81       	ld	r24, Z
     6f4:	8a 30       	cpi	r24, 0x0A	; 10
     6f6:	49 f4       	brne	.+18     	; 0x70a <__vector_27+0x46>
     6f8:	ed b3       	in	r30, 0x1d	; 29
     6fa:	f0 e0       	ldi	r31, 0x00	; 0
     6fc:	e4 52       	subi	r30, 0x24	; 36
     6fe:	f7 4c       	sbci	r31, 0xC7	; 199
     700:	10 82       	st	Z, r1
     702:	81 e0       	ldi	r24, 0x01	; 1
     704:	80 93 0a 38 	sts	0x380A, r24	; 0x80380a <serRxDone>
     708:	06 c0       	rjmp	.+12     	; 0x716 <__vector_27+0x52>
     70a:	8d b3       	in	r24, 0x1d	; 29
     70c:	87 34       	cpi	r24, 0x47	; 71
     70e:	18 f4       	brcc	.+6      	; 0x716 <__vector_27+0x52>
     710:	8d b3       	in	r24, 0x1d	; 29
     712:	8f 5f       	subi	r24, 0xFF	; 255
     714:	8d bb       	out	0x1d, r24	; 29
     716:	80 e8       	ldi	r24, 0x80	; 128
     718:	80 93 04 08 	sts	0x0804, r24	; 0x800804 <__TEXT_REGION_LENGTH__+0x700804>
     71c:	ff 91       	pop	r31
     71e:	ef 91       	pop	r30
     720:	8f 91       	pop	r24
     722:	0f 90       	pop	r0
     724:	0f be       	out	0x3f, r0	; 63
     726:	0f 90       	pop	r0
     728:	1f 90       	pop	r1
     72a:	18 95       	reti

0000072c <__vector_28>:
     72c:	1f 92       	push	r1
     72e:	0f 92       	push	r0
     730:	0f b6       	in	r0, 0x3f	; 63
     732:	0f 92       	push	r0
     734:	11 24       	eor	r1, r1
     736:	8f 93       	push	r24
     738:	ef 93       	push	r30
     73a:	ff 93       	push	r31
     73c:	10 92 4a 0a 	sts	0x0A4A, r1	; 0x800a4a <__TEXT_REGION_LENGTH__+0x700a4a>
     740:	10 92 4b 0a 	sts	0x0A4B, r1	; 0x800a4b <__TEXT_REGION_LENGTH__+0x700a4b>
     744:	81 e0       	ldi	r24, 0x01	; 1
     746:	80 93 45 0a 	sts	0x0A45, r24	; 0x800a45 <__TEXT_REGION_LENGTH__+0x700a45>
     74a:	e5 e0       	ldi	r30, 0x05	; 5
     74c:	f8 e0       	ldi	r31, 0x08	; 8
     74e:	80 81       	ld	r24, Z
     750:	8f 7d       	andi	r24, 0xDF	; 223
     752:	80 83       	st	Z, r24
     754:	ff 91       	pop	r31
     756:	ef 91       	pop	r30
     758:	8f 91       	pop	r24
     75a:	0f 90       	pop	r0
     75c:	0f be       	out	0x3f, r0	; 63
     75e:	0f 90       	pop	r0
     760:	1f 90       	pop	r1
     762:	18 95       	reti

00000764 <__vector_20>:
     764:	1f 92       	push	r1
     766:	0f 92       	push	r0
     768:	0f b6       	in	r0, 0x3f	; 63
     76a:	0f 92       	push	r0
     76c:	11 24       	eor	r1, r1
     76e:	8f 93       	push	r24
     770:	ef 93       	push	r30
     772:	ff 93       	push	r31
     774:	80 91 07 38 	lds	r24, 0x3807	; 0x803807 <adc0Chg>
     778:	81 11       	cpse	r24, r1
     77a:	15 c0       	rjmp	.+42     	; 0x7a6 <__vector_20+0x42>
     77c:	8e b3       	in	r24, 0x1e	; 30
     77e:	8f 5f       	subi	r24, 0xFF	; 255
     780:	8f 71       	andi	r24, 0x1F	; 31
     782:	8e bb       	out	0x1e, r24	; 30
     784:	80 91 06 06 	lds	r24, 0x0606	; 0x800606 <__TEXT_REGION_LENGTH__+0x700606>
     788:	8e 31       	cpi	r24, 0x1E	; 30
     78a:	29 f4       	brne	.+10     	; 0x796 <__vector_20+0x32>
     78c:	80 91 10 06 	lds	r24, 0x0610	; 0x800610 <__TEXT_REGION_LENGTH__+0x700610>
     790:	80 93 77 39 	sts	0x3977, r24	; 0x803977 <adcTemp>
     794:	0a c0       	rjmp	.+20     	; 0x7aa <__vector_20+0x46>
     796:	ee b3       	in	r30, 0x1e	; 30
     798:	f0 e0       	ldi	r31, 0x00	; 0
     79a:	80 91 10 06 	lds	r24, 0x0610	; 0x800610 <__TEXT_REGION_LENGTH__+0x700610>
     79e:	e2 5d       	subi	r30, 0xD2	; 210
     7a0:	f6 4c       	sbci	r31, 0xC6	; 198
     7a2:	80 83       	st	Z, r24
     7a4:	02 c0       	rjmp	.+4      	; 0x7aa <__vector_20+0x46>
     7a6:	10 92 07 38 	sts	0x3807, r1	; 0x803807 <adc0Chg>
     7aa:	81 e0       	ldi	r24, 0x01	; 1
     7ac:	80 93 0b 06 	sts	0x060B, r24	; 0x80060b <__TEXT_REGION_LENGTH__+0x70060b>
     7b0:	ff 91       	pop	r31
     7b2:	ef 91       	pop	r30
     7b4:	8f 91       	pop	r24
     7b6:	0f 90       	pop	r0
     7b8:	0f be       	out	0x3f, r0	; 63
     7ba:	0f 90       	pop	r0
     7bc:	1f 90       	pop	r1
     7be:	18 95       	reti

000007c0 <__vector_22>:
     7c0:	1f 92       	push	r1
     7c2:	0f 92       	push	r0
     7c4:	0f b6       	in	r0, 0x3f	; 63
     7c6:	0f 92       	push	r0
     7c8:	11 24       	eor	r1, r1
     7ca:	8f 93       	push	r24
     7cc:	9f 93       	push	r25
     7ce:	80 91 46 06 	lds	r24, 0x0646	; 0x800646 <__TEXT_REGION_LENGTH__+0x700646>
     7d2:	81 11       	cpse	r24, r1
     7d4:	0c c0       	rjmp	.+24     	; 0x7ee <__vector_22+0x2e>
     7d6:	80 91 50 06 	lds	r24, 0x0650	; 0x800650 <__TEXT_REGION_LENGTH__+0x700650>
     7da:	90 91 51 06 	lds	r25, 0x0651	; 0x800651 <__TEXT_REGION_LENGTH__+0x700651>
     7de:	80 93 2b 39 	sts	0x392B, r24	; 0x80392b <adcPhot>
     7e2:	90 93 2c 39 	sts	0x392C, r25	; 0x80392c <adcPhot+0x1>
     7e6:	81 e0       	ldi	r24, 0x01	; 1
     7e8:	80 93 46 06 	sts	0x0646, r24	; 0x800646 <__TEXT_REGION_LENGTH__+0x700646>
     7ec:	23 c0       	rjmp	.+70     	; 0x834 <__vector_22+0x74>
     7ee:	80 91 46 06 	lds	r24, 0x0646	; 0x800646 <__TEXT_REGION_LENGTH__+0x700646>
     7f2:	81 30       	cpi	r24, 0x01	; 1
     7f4:	79 f4       	brne	.+30     	; 0x814 <__vector_22+0x54>
     7f6:	88 e0       	ldi	r24, 0x08	; 8
     7f8:	80 93 06 04 	sts	0x0406, r24	; 0x800406 <__TEXT_REGION_LENGTH__+0x700406>
     7fc:	80 91 50 06 	lds	r24, 0x0650	; 0x800650 <__TEXT_REGION_LENGTH__+0x700650>
     800:	90 91 51 06 	lds	r25, 0x0651	; 0x800651 <__TEXT_REGION_LENGTH__+0x700651>
     804:	80 93 29 39 	sts	0x3929, r24	; 0x803929 <adcHall>
     808:	90 93 2a 39 	sts	0x392A, r25	; 0x80392a <adcHall+0x1>
     80c:	84 e0       	ldi	r24, 0x04	; 4
     80e:	80 93 46 06 	sts	0x0646, r24	; 0x800646 <__TEXT_REGION_LENGTH__+0x700646>
     812:	10 c0       	rjmp	.+32     	; 0x834 <__vector_22+0x74>
     814:	80 91 50 06 	lds	r24, 0x0650	; 0x800650 <__TEXT_REGION_LENGTH__+0x700650>
     818:	90 91 51 06 	lds	r25, 0x0651	; 0x800651 <__TEXT_REGION_LENGTH__+0x700651>
     81c:	80 93 25 39 	sts	0x3925, r24	; 0x803925 <adcBtns>
     820:	90 93 26 39 	sts	0x3926, r25	; 0x803926 <adcBtns+0x1>
     824:	8f b3       	in	r24, 0x1f	; 31
     826:	8f 30       	cpi	r24, 0x0F	; 15
     828:	29 f4       	brne	.+10     	; 0x834 <__vector_22+0x74>
     82a:	10 92 46 06 	sts	0x0646, r1	; 0x800646 <__TEXT_REGION_LENGTH__+0x700646>
     82e:	88 e0       	ldi	r24, 0x08	; 8
     830:	80 93 05 04 	sts	0x0405, r24	; 0x800405 <__TEXT_REGION_LENGTH__+0x700405>
     834:	8f b3       	in	r24, 0x1f	; 31
     836:	90 e0       	ldi	r25, 0x00	; 0
     838:	01 96       	adiw	r24, 0x01	; 1
     83a:	8f 70       	andi	r24, 0x0F	; 15
     83c:	90 78       	andi	r25, 0x80	; 128
     83e:	99 23       	and	r25, r25
     840:	24 f4       	brge	.+8      	; 0x84a <__vector_22+0x8a>
     842:	01 97       	sbiw	r24, 0x01	; 1
     844:	80 6f       	ori	r24, 0xF0	; 240
     846:	9f 6f       	ori	r25, 0xFF	; 255
     848:	01 96       	adiw	r24, 0x01	; 1
     84a:	8f bb       	out	0x1f, r24	; 31
     84c:	81 e0       	ldi	r24, 0x01	; 1
     84e:	80 93 4b 06 	sts	0x064B, r24	; 0x80064b <__TEXT_REGION_LENGTH__+0x70064b>
     852:	9f 91       	pop	r25
     854:	8f 91       	pop	r24
     856:	0f 90       	pop	r0
     858:	0f be       	out	0x3f, r0	; 63
     85a:	0f 90       	pop	r0
     85c:	1f 90       	pop	r1
     85e:	18 95       	reti

00000860 <__vector_6>:
     860:	1f 92       	push	r1
     862:	0f 92       	push	r0
     864:	0f b6       	in	r0, 0x3f	; 63
     866:	0f 92       	push	r0
     868:	11 24       	eor	r1, r1
     86a:	5f 93       	push	r21
     86c:	6f 93       	push	r22
     86e:	7f 93       	push	r23
     870:	8f 93       	push	r24
     872:	9f 93       	push	r25
     874:	af 93       	push	r26
     876:	bf 93       	push	r27
     878:	ef 93       	push	r30
     87a:	ff 93       	push	r31
     87c:	80 91 43 01 	lds	r24, 0x0143	; 0x800143 <__TEXT_REGION_LENGTH__+0x700143>
     880:	81 ff       	sbrs	r24, 1
     882:	28 c0       	rjmp	.+80     	; 0x8d4 <__vector_6+0x74>
     884:	80 91 08 38 	lds	r24, 0x3808	; 0x803808 <buttonMark>
     888:	8f 3f       	cpi	r24, 0xFF	; 255
     88a:	29 f0       	breq	.+10     	; 0x896 <__vector_6+0x36>
     88c:	80 91 08 38 	lds	r24, 0x3808	; 0x803808 <buttonMark>
     890:	8f 5f       	subi	r24, 0xFF	; 255
     892:	80 93 08 38 	sts	0x3808, r24	; 0x803808 <buttonMark>
     896:	80 91 48 01 	lds	r24, 0x0148	; 0x800148 <__TEXT_REGION_LENGTH__+0x700148>
     89a:	90 91 49 01 	lds	r25, 0x0149	; 0x800149 <__TEXT_REGION_LENGTH__+0x700149>
     89e:	60 91 4a 01 	lds	r22, 0x014A	; 0x80014a <__TEXT_REGION_LENGTH__+0x70014a>
     8a2:	70 91 4b 01 	lds	r23, 0x014B	; 0x80014b <__TEXT_REGION_LENGTH__+0x70014b>
     8a6:	82 96       	adiw	r24, 0x22	; 34
     8a8:	29 d5       	rcall	.+2642   	; 0x12fc <__udivmodhi4>
     8aa:	80 93 78 39 	sts	0x3978, r24	; 0x803978 <tmp16bit>
     8ae:	90 93 79 39 	sts	0x3979, r25	; 0x803979 <tmp16bit+0x1>
     8b2:	e1 e4       	ldi	r30, 0x41	; 65
     8b4:	f1 e0       	ldi	r31, 0x01	; 1
     8b6:	80 81       	ld	r24, Z
     8b8:	83 fd       	sbrc	r24, 3
     8ba:	fd cf       	rjmp	.-6      	; 0x8b6 <__vector_6+0x56>
     8bc:	80 91 78 39 	lds	r24, 0x3978	; 0x803978 <tmp16bit>
     8c0:	90 91 79 39 	lds	r25, 0x3979	; 0x803979 <tmp16bit+0x1>
     8c4:	80 93 4c 01 	sts	0x014C, r24	; 0x80014c <__TEXT_REGION_LENGTH__+0x70014c>
     8c8:	90 93 4d 01 	sts	0x014D, r25	; 0x80014d <__TEXT_REGION_LENGTH__+0x70014d>
     8cc:	82 e0       	ldi	r24, 0x02	; 2
     8ce:	80 93 43 01 	sts	0x0143, r24	; 0x800143 <__TEXT_REGION_LENGTH__+0x700143>
     8d2:	0c c0       	rjmp	.+24     	; 0x8ec <__vector_6+0x8c>
     8d4:	80 91 09 38 	lds	r24, 0x3809	; 0x803809 <minuteMark>
     8d8:	8f 3f       	cpi	r24, 0xFF	; 255
     8da:	29 f0       	breq	.+10     	; 0x8e6 <__vector_6+0x86>
     8dc:	80 91 09 38 	lds	r24, 0x3809	; 0x803809 <minuteMark>
     8e0:	8f 5f       	subi	r24, 0xFF	; 255
     8e2:	80 93 09 38 	sts	0x3809, r24	; 0x803809 <minuteMark>
     8e6:	81 e0       	ldi	r24, 0x01	; 1
     8e8:	80 93 43 01 	sts	0x0143, r24	; 0x800143 <__TEXT_REGION_LENGTH__+0x700143>
     8ec:	ff 91       	pop	r31
     8ee:	ef 91       	pop	r30
     8f0:	bf 91       	pop	r27
     8f2:	af 91       	pop	r26
     8f4:	9f 91       	pop	r25
     8f6:	8f 91       	pop	r24
     8f8:	7f 91       	pop	r23
     8fa:	6f 91       	pop	r22
     8fc:	5f 91       	pop	r21
     8fe:	0f 90       	pop	r0
     900:	0f be       	out	0x3f, r0	; 63
     902:	0f 90       	pop	r0
     904:	1f 90       	pop	r1
     906:	18 95       	reti

00000908 <__vector_7>:
     908:	1f 92       	push	r1
     90a:	0f 92       	push	r0
     90c:	0f b6       	in	r0, 0x3f	; 63
     90e:	0f 92       	push	r0
     910:	11 24       	eor	r1, r1
     912:	8f 93       	push	r24
     914:	81 e0       	ldi	r24, 0x01	; 1
     916:	80 93 48 06 	sts	0x0648, r24	; 0x800648 <__TEXT_REGION_LENGTH__+0x700648>
     91a:	80 93 53 01 	sts	0x0153, r24	; 0x800153 <__TEXT_REGION_LENGTH__+0x700153>
     91e:	8f 91       	pop	r24
     920:	0f 90       	pop	r0
     922:	0f be       	out	0x3f, r0	; 63
     924:	0f 90       	pop	r0
     926:	1f 90       	pop	r1
     928:	18 95       	reti

0000092a <EERead>:
     92a:	e2 e0       	ldi	r30, 0x02	; 2
     92c:	f0 e1       	ldi	r31, 0x10	; 16
     92e:	90 81       	ld	r25, Z
     930:	91 fd       	sbrc	r25, 1
     932:	fd cf       	rjmp	.-6      	; 0x92e <EERead+0x4>
     934:	44 23       	and	r20, r20
     936:	59 f0       	breq	.+22     	; 0x94e <EERead+0x24>
     938:	a6 2f       	mov	r26, r22
     93a:	b7 2f       	mov	r27, r23
     93c:	48 0f       	add	r20, r24
     93e:	e8 2f       	mov	r30, r24
     940:	f0 e0       	ldi	r31, 0x00	; 0
     942:	fc 5e       	subi	r31, 0xEC	; 236
     944:	90 81       	ld	r25, Z
     946:	9d 93       	st	X+, r25
     948:	8f 5f       	subi	r24, 0xFF	; 255
     94a:	48 13       	cpse	r20, r24
     94c:	f8 cf       	rjmp	.-16     	; 0x93e <EERead+0x14>
     94e:	08 95       	ret

00000950 <EEWrite>:
     950:	ff 92       	push	r15
     952:	0f 93       	push	r16
     954:	1f 93       	push	r17
     956:	cf 93       	push	r28
     958:	df 93       	push	r29
     95a:	e8 2f       	mov	r30, r24
     95c:	44 23       	and	r20, r20
     95e:	79 f1       	breq	.+94     	; 0x9be <EEWrite+0x6e>
     960:	c2 e0       	ldi	r28, 0x02	; 2
     962:	d0 e1       	ldi	r29, 0x10	; 16
     964:	3d e9       	ldi	r19, 0x9D	; 157
     966:	00 e0       	ldi	r16, 0x00	; 0
     968:	10 e1       	ldi	r17, 0x10	; 16
     96a:	54 e0       	ldi	r21, 0x04	; 4
     96c:	0f 2e       	mov	r0, r31
     96e:	f3 e0       	ldi	r31, 0x03	; 3
     970:	ff 2e       	mov	r15, r31
     972:	f0 2d       	mov	r31, r0
     974:	88 81       	ld	r24, Y
     976:	81 fd       	sbrc	r24, 1
     978:	fd cf       	rjmp	.-6      	; 0x974 <EEWrite+0x24>
     97a:	34 bf       	out	0x34, r19	; 52
     97c:	d8 01       	movw	r26, r16
     97e:	5c 93       	st	X, r21
     980:	44 23       	and	r20, r20
     982:	91 f0       	breq	.+36     	; 0x9a8 <EEWrite+0x58>
     984:	2e 2f       	mov	r18, r30
     986:	2f 71       	andi	r18, 0x1F	; 31
     988:	91 e0       	ldi	r25, 0x01	; 1
     98a:	9e 0f       	add	r25, r30
     98c:	6f 5f       	subi	r22, 0xFF	; 255
     98e:	7f 4f       	sbci	r23, 0xFF	; 255
     990:	db 01       	movw	r26, r22
     992:	11 97       	sbiw	r26, 0x01	; 1
     994:	8c 91       	ld	r24, X
     996:	f0 e0       	ldi	r31, 0x00	; 0
     998:	fc 5e       	subi	r31, 0xEC	; 236
     99a:	80 83       	st	Z, r24
     99c:	41 50       	subi	r20, 0x01	; 1
     99e:	21 f0       	breq	.+8      	; 0x9a8 <EEWrite+0x58>
     9a0:	e9 2f       	mov	r30, r25
     9a2:	2f 31       	cpi	r18, 0x1F	; 31
     9a4:	79 f7       	brne	.-34     	; 0x984 <EEWrite+0x34>
     9a6:	0f c0       	rjmp	.+30     	; 0x9c6 <EEWrite+0x76>
     9a8:	8d e9       	ldi	r24, 0x9D	; 157
     9aa:	84 bf       	out	0x34, r24	; 52
     9ac:	83 e0       	ldi	r24, 0x03	; 3
     9ae:	80 93 00 10 	sts	0x1000, r24	; 0x801000 <__TEXT_REGION_LENGTH__+0x701000>
     9b2:	80 91 02 10 	lds	r24, 0x1002	; 0x801002 <__TEXT_REGION_LENGTH__+0x701002>
     9b6:	82 fb       	bst	r24, 2
     9b8:	88 27       	eor	r24, r24
     9ba:	80 f9       	bld	r24, 0
     9bc:	0c c0       	rjmp	.+24     	; 0x9d6 <EEWrite+0x86>
     9be:	80 e0       	ldi	r24, 0x00	; 0
     9c0:	0a c0       	rjmp	.+20     	; 0x9d6 <EEWrite+0x86>
     9c2:	81 e0       	ldi	r24, 0x01	; 1
     9c4:	08 c0       	rjmp	.+16     	; 0x9d6 <EEWrite+0x86>
     9c6:	34 bf       	out	0x34, r19	; 52
     9c8:	f8 01       	movw	r30, r16
     9ca:	f0 82       	st	Z, r15
     9cc:	88 81       	ld	r24, Y
     9ce:	82 fd       	sbrc	r24, 2
     9d0:	f8 cf       	rjmp	.-16     	; 0x9c2 <EEWrite+0x72>
     9d2:	e9 2f       	mov	r30, r25
     9d4:	cf cf       	rjmp	.-98     	; 0x974 <EEWrite+0x24>
     9d6:	df 91       	pop	r29
     9d8:	cf 91       	pop	r28
     9da:	1f 91       	pop	r17
     9dc:	0f 91       	pop	r16
     9de:	ff 90       	pop	r15
     9e0:	08 95       	ret

000009e2 <SerSend>:
     9e2:	9c 01       	movw	r18, r24
     9e4:	90 91 04 38 	lds	r25, 0x3804	; 0x803804 <serTxDone>
     9e8:	99 23       	and	r25, r25
     9ea:	59 f0       	breq	.+22     	; 0xa02 <SerSend+0x20>
     9ec:	20 93 27 39 	sts	0x3927, r18	; 0x803927 <serTxAddr>
     9f0:	30 93 28 39 	sts	0x3928, r19	; 0x803928 <serTxAddr+0x1>
     9f4:	10 92 04 38 	sts	0x3804, r1	; 0x803804 <serTxDone>
     9f8:	81 e0       	ldi	r24, 0x01	; 1
     9fa:	80 93 45 0a 	sts	0x0A45, r24	; 0x800a45 <__TEXT_REGION_LENGTH__+0x700a45>
     9fe:	80 e0       	ldi	r24, 0x00	; 0
     a00:	08 95       	ret
     a02:	81 e0       	ldi	r24, 0x01	; 1
     a04:	08 95       	ret

00000a06 <SerSpeed>:
     a06:	28 2f       	mov	r18, r24
     a08:	81 11       	cpse	r24, r1
     a0a:	01 c0       	rjmp	.+2      	; 0xa0e <SerSpeed+0x8>
     a0c:	21 e0       	ldi	r18, 0x01	; 1
     a0e:	8f ef       	ldi	r24, 0xFF	; 255
     a10:	90 e0       	ldi	r25, 0x00	; 0
     a12:	82 1b       	sub	r24, r18
     a14:	91 09       	sbc	r25, r1
     a16:	98 2f       	mov	r25, r24
     a18:	88 27       	eor	r24, r24
     a1a:	81 50       	subi	r24, 0x01	; 1
     a1c:	9f 4f       	sbci	r25, 0xFF	; 255
     a1e:	80 93 4c 0a 	sts	0x0A4C, r24	; 0x800a4c <__TEXT_REGION_LENGTH__+0x700a4c>
     a22:	90 93 4d 0a 	sts	0x0A4D, r25	; 0x800a4d <__TEXT_REGION_LENGTH__+0x700a4d>
     a26:	08 95       	ret

00000a28 <lcg>:
    return (a<<4) | (a>>4);
}*/

//Very cheap pseudo random, feed with previous value (XOR-ed with some ADC measurement).
uint8_t lcg(uint8_t state){
    state = (5 * state) + 129;
     a28:	98 2f       	mov	r25, r24
     a2a:	99 0f       	add	r25, r25
     a2c:	99 0f       	add	r25, r25
     a2e:	89 0f       	add	r24, r25
    return state;
}
     a30:	8f 57       	subi	r24, 0x7F	; 127
     a32:	08 95       	ret

00000a34 <lfsr>:

uint8_t lfsr(){
    static uint16_t state;
    state ^= (state << 13);
     a34:	80 91 0b 38 	lds	r24, 0x380B	; 0x80380b <state.3878>
     a38:	90 91 0c 38 	lds	r25, 0x380C	; 0x80380c <state.3878+0x1>
     a3c:	9c 01       	movw	r18, r24
     a3e:	32 2f       	mov	r19, r18
     a40:	22 27       	eor	r18, r18
     a42:	32 95       	swap	r19
     a44:	33 0f       	add	r19, r19
     a46:	30 7e       	andi	r19, 0xE0	; 224
     a48:	82 27       	eor	r24, r18
     a4a:	93 27       	eor	r25, r19
    state ^= (state >> 9);
     a4c:	9c 01       	movw	r18, r24
     a4e:	23 2f       	mov	r18, r19
     a50:	33 27       	eor	r19, r19
     a52:	26 95       	lsr	r18
     a54:	82 27       	eor	r24, r18
     a56:	93 27       	eor	r25, r19
    state ^= (state << 7);
     a58:	9c 01       	movw	r18, r24
     a5a:	36 95       	lsr	r19
     a5c:	32 2f       	mov	r19, r18
     a5e:	22 27       	eor	r18, r18
     a60:	37 95       	ror	r19
     a62:	27 95       	ror	r18
     a64:	82 27       	eor	r24, r18
     a66:	93 27       	eor	r25, r19
     a68:	80 93 0b 38 	sts	0x380B, r24	; 0x80380b <state.3878>
     a6c:	90 93 0c 38 	sts	0x380C, r25	; 0x80380c <state.3878+0x1>
    return (state & 0xff);
}
     a70:	08 95       	ret

00000a72 <SaveGameState>:

//Save changed data to EEPROM
uint8_t SaveGameState(){
     a72:	cf 92       	push	r12
     a74:	df 92       	push	r13
     a76:	ff 92       	push	r15
     a78:	0f 93       	push	r16
     a7a:	1f 93       	push	r17
     a7c:	cf 93       	push	r28
     a7e:	df 93       	push	r29
     a80:	cd b7       	in	r28, 0x3d	; 61
     a82:	de b7       	in	r29, 0x3e	; 62
     a84:	60 97       	sbiw	r28, 0x10	; 16
     a86:	cd bf       	out	0x3d, r28	; 61
     a88:	de bf       	out	0x3e, r29	; 62
    uint8_t gameCheck[16];
    EERead(0, &gameCheck[0], 16);
     a8a:	40 e1       	ldi	r20, 0x10	; 16
     a8c:	be 01       	movw	r22, r28
     a8e:	6f 5f       	subi	r22, 0xFF	; 255
     a90:	7f 4f       	sbci	r23, 0xFF	; 255
     a92:	80 e0       	ldi	r24, 0x00	; 0
     a94:	4a df       	rcall	.-364    	; 0x92a <EERead>
     a96:	0c ec       	ldi	r16, 0xCC	; 204
     a98:	18 e3       	ldi	r17, 0x38	; 56
     a9a:	ce 01       	movw	r24, r28
     a9c:	01 96       	adiw	r24, 0x01	; 1
     a9e:	6c 01       	movw	r12, r24
    for (uint8_t x=0; x<16; ++x){
     aa0:	f1 2c       	mov	r15, r1
        if (gameState[x] != gameCheck[x]){
     aa2:	f6 01       	movw	r30, r12
     aa4:	81 91       	ld	r24, Z+
     aa6:	6f 01       	movw	r12, r30
     aa8:	f8 01       	movw	r30, r16
     aaa:	90 81       	ld	r25, Z
     aac:	98 17       	cp	r25, r24
     aae:	31 f0       	breq	.+12     	; 0xabc <SaveGameState+0x4a>
            if (EEWrite(x, &gameState[x], 1)) return 1;
     ab0:	41 e0       	ldi	r20, 0x01	; 1
     ab2:	b8 01       	movw	r22, r16
     ab4:	8f 2d       	mov	r24, r15
     ab6:	4c df       	rcall	.-360    	; 0x950 <EEWrite>
     ab8:	81 11       	cpse	r24, r1
     aba:	08 c0       	rjmp	.+16     	; 0xacc <SaveGameState+0x5a>

//Save changed data to EEPROM
uint8_t SaveGameState(){
    uint8_t gameCheck[16];
    EERead(0, &gameCheck[0], 16);
    for (uint8_t x=0; x<16; ++x){
     abc:	f3 94       	inc	r15
     abe:	0f 5f       	subi	r16, 0xFF	; 255
     ac0:	1f 4f       	sbci	r17, 0xFF	; 255
     ac2:	f0 e1       	ldi	r31, 0x10	; 16
     ac4:	ff 12       	cpse	r15, r31
     ac6:	ed cf       	rjmp	.-38     	; 0xaa2 <SaveGameState+0x30>
        if (gameState[x] != gameCheck[x]){
            if (EEWrite(x, &gameState[x], 1)) return 1;
        }
    }
    return 0;
     ac8:	80 e0       	ldi	r24, 0x00	; 0
     aca:	01 c0       	rjmp	.+2      	; 0xace <SaveGameState+0x5c>
uint8_t SaveGameState(){
    uint8_t gameCheck[16];
    EERead(0, &gameCheck[0], 16);
    for (uint8_t x=0; x<16; ++x){
        if (gameState[x] != gameCheck[x]){
            if (EEWrite(x, &gameState[x], 1)) return 1;
     acc:	81 e0       	ldi	r24, 0x01	; 1
        }
    }
    return 0;
}
     ace:	60 96       	adiw	r28, 0x10	; 16
     ad0:	cd bf       	out	0x3d, r28	; 61
     ad2:	de bf       	out	0x3e, r29	; 62
     ad4:	df 91       	pop	r29
     ad6:	cf 91       	pop	r28
     ad8:	1f 91       	pop	r17
     ada:	0f 91       	pop	r16
     adc:	ff 90       	pop	r15
     ade:	df 90       	pop	r13
     ae0:	cf 90       	pop	r12
     ae2:	08 95       	ret

00000ae4 <ReadStatusBit>:

uint8_t ReadStatusBit(uint8_t number){
    number &= 0x3f;
    if (gameState[number>>3] & (1<<(number%8))) return 1; else return 0;
     ae4:	e8 2f       	mov	r30, r24
     ae6:	ef 73       	andi	r30, 0x3F	; 63
     ae8:	e6 95       	lsr	r30
     aea:	e6 95       	lsr	r30
     aec:	e6 95       	lsr	r30
     aee:	f0 e0       	ldi	r31, 0x00	; 0
     af0:	e4 53       	subi	r30, 0x34	; 52
     af2:	f7 4c       	sbci	r31, 0xC7	; 199
     af4:	20 81       	ld	r18, Z
     af6:	30 e0       	ldi	r19, 0x00	; 0
     af8:	87 70       	andi	r24, 0x07	; 7
     afa:	a9 01       	movw	r20, r18
     afc:	02 c0       	rjmp	.+4      	; 0xb02 <ReadStatusBit+0x1e>
     afe:	55 95       	asr	r21
     b00:	47 95       	ror	r20
     b02:	8a 95       	dec	r24
     b04:	e2 f7       	brpl	.-8      	; 0xafe <ReadStatusBit+0x1a>
     b06:	ca 01       	movw	r24, r20
}
     b08:	81 70       	andi	r24, 0x01	; 1
     b0a:	08 95       	ret

00000b0c <WriteStatusBit>:

void WriteStatusBit(uint8_t number, uint8_t state){
    number &= 0x3f;
     b0c:	e8 2f       	mov	r30, r24
     b0e:	ef 73       	andi	r30, 0x3F	; 63
    if (state) gameState[number>>3] |= 1<<(number%8);
     b10:	66 23       	and	r22, r22
     b12:	a1 f0       	breq	.+40     	; 0xb3c <WriteStatusBit+0x30>
     b14:	e6 95       	lsr	r30
     b16:	e6 95       	lsr	r30
     b18:	e6 95       	lsr	r30
     b1a:	f0 e0       	ldi	r31, 0x00	; 0
     b1c:	e4 53       	subi	r30, 0x34	; 52
     b1e:	f7 4c       	sbci	r31, 0xC7	; 199
     b20:	87 70       	andi	r24, 0x07	; 7
     b22:	21 e0       	ldi	r18, 0x01	; 1
     b24:	30 e0       	ldi	r19, 0x00	; 0
     b26:	a9 01       	movw	r20, r18
     b28:	02 c0       	rjmp	.+4      	; 0xb2e <WriteStatusBit+0x22>
     b2a:	44 0f       	add	r20, r20
     b2c:	55 1f       	adc	r21, r21
     b2e:	8a 95       	dec	r24
     b30:	e2 f7       	brpl	.-8      	; 0xb2a <WriteStatusBit+0x1e>
     b32:	ca 01       	movw	r24, r20
     b34:	90 81       	ld	r25, Z
     b36:	89 2b       	or	r24, r25
     b38:	80 83       	st	Z, r24
     b3a:	08 95       	ret
    else gameState[number>>3] &= ~(1<<(number%8));
     b3c:	e6 95       	lsr	r30
     b3e:	e6 95       	lsr	r30
     b40:	e6 95       	lsr	r30
     b42:	f0 e0       	ldi	r31, 0x00	; 0
     b44:	e4 53       	subi	r30, 0x34	; 52
     b46:	f7 4c       	sbci	r31, 0xC7	; 199
     b48:	87 70       	andi	r24, 0x07	; 7
     b4a:	21 e0       	ldi	r18, 0x01	; 1
     b4c:	30 e0       	ldi	r19, 0x00	; 0
     b4e:	a9 01       	movw	r20, r18
     b50:	02 c0       	rjmp	.+4      	; 0xb56 <WriteStatusBit+0x4a>
     b52:	44 0f       	add	r20, r20
     b54:	55 1f       	adc	r21, r21
     b56:	8a 95       	dec	r24
     b58:	e2 f7       	brpl	.-8      	; 0xb52 <WriteStatusBit+0x46>
     b5a:	ca 01       	movw	r24, r20
     b5c:	80 95       	com	r24
     b5e:	90 81       	ld	r25, Z
     b60:	89 23       	and	r24, r25
     b62:	80 83       	st	Z, r24
     b64:	08 95       	ret

00000b66 <Reset>:
}

void Reset(){
     b66:	ec ec       	ldi	r30, 0xCC	; 204
     b68:	f8 e3       	ldi	r31, 0x38	; 56
     b6a:	8c ed       	ldi	r24, 0xDC	; 220
     b6c:	98 e3       	ldi	r25, 0x38	; 56
    //# 110   set to 1 by FW if badge UUID mod 4 == 0
    //# 111   set to 1 by FW if badge UUID mod 4 == 1
    //# 112   set to 1 by FW if badge UUID mod 4 == 2
    //# 113   set to 1 by FW if badge UUID mod 4 == 3
    for (uint8_t x=0; x<sizeof(gameState); ++x){
        gameState[x] = 0;
     b6e:	11 92       	st	Z+, r1
    //Reset game progress (all zeroes) and load some bits:
    //# 110   set to 1 by FW if badge UUID mod 4 == 0
    //# 111   set to 1 by FW if badge UUID mod 4 == 1
    //# 112   set to 1 by FW if badge UUID mod 4 == 2
    //# 113   set to 1 by FW if badge UUID mod 4 == 3
    for (uint8_t x=0; x<sizeof(gameState); ++x){
     b70:	8e 17       	cp	r24, r30
     b72:	9f 07       	cpc	r25, r31
     b74:	e1 f7       	brne	.-8      	; 0xb6e <Reset+0x8>
     b76:	e3 e0       	ldi	r30, 0x03	; 3
     b78:	f1 e1       	ldi	r31, 0x11	; 17
     b7a:	80 e0       	ldi	r24, 0x00	; 0
    uint8_t *serNum;
    serNum = &SIGROW_SERNUM0;
    
    //Give out a number 0..3, calculated using serial number fields
    for (uint8_t x=0; x<10; ++x){
        id += *serNum;
     b7c:	91 91       	ld	r25, Z+
     b7e:	89 0f       	add	r24, r25
    uint8_t id = 0;
    uint8_t *serNum;
    serNum = &SIGROW_SERNUM0;
    
    //Give out a number 0..3, calculated using serial number fields
    for (uint8_t x=0; x<10; ++x){
     b80:	ed 30       	cpi	r30, 0x0D	; 13
     b82:	91 e1       	ldi	r25, 0x11	; 17
     b84:	f9 07       	cpc	r31, r25
     b86:	d1 f7       	brne	.-12     	; 0xb7c <Reset+0x16>
        id += *serNum;
        ++serNum;
    }
    id %= 4;
     b88:	83 70       	andi	r24, 0x03	; 3

    //Write bit in gameState location 110..113
    if (id == 0) WriteStatusBit(110, 1);
     b8a:	31 f4       	brne	.+12     	; 0xb98 <Reset+0x32>
    if (gameState[number>>3] & (1<<(number%8))) return 1; else return 0;
}

void WriteStatusBit(uint8_t number, uint8_t state){
    number &= 0x3f;
    if (state) gameState[number>>3] |= 1<<(number%8);
     b8c:	ec ec       	ldi	r30, 0xCC	; 204
     b8e:	f8 e3       	ldi	r31, 0x38	; 56
     b90:	85 81       	ldd	r24, Z+5	; 0x05
     b92:	80 64       	ori	r24, 0x40	; 64
     b94:	85 83       	std	Z+5, r24	; 0x05
     b96:	08 95       	ret
    }
    id %= 4;

    //Write bit in gameState location 110..113
    if (id == 0) WriteStatusBit(110, 1);
    else if (id == 1) WriteStatusBit(111, 1);
     b98:	81 30       	cpi	r24, 0x01	; 1
     b9a:	31 f4       	brne	.+12     	; 0xba8 <Reset+0x42>
    if (gameState[number>>3] & (1<<(number%8))) return 1; else return 0;
}

void WriteStatusBit(uint8_t number, uint8_t state){
    number &= 0x3f;
    if (state) gameState[number>>3] |= 1<<(number%8);
     b9c:	ec ec       	ldi	r30, 0xCC	; 204
     b9e:	f8 e3       	ldi	r31, 0x38	; 56
     ba0:	85 81       	ldd	r24, Z+5	; 0x05
     ba2:	80 68       	ori	r24, 0x80	; 128
     ba4:	85 83       	std	Z+5, r24	; 0x05
     ba6:	08 95       	ret
    id %= 4;

    //Write bit in gameState location 110..113
    if (id == 0) WriteStatusBit(110, 1);
    else if (id == 1) WriteStatusBit(111, 1);
    else if (id == 2) WriteStatusBit(112, 1);
     ba8:	82 30       	cpi	r24, 0x02	; 2
     baa:	31 f4       	brne	.+12     	; 0xbb8 <Reset+0x52>
    if (gameState[number>>3] & (1<<(number%8))) return 1; else return 0;
}

void WriteStatusBit(uint8_t number, uint8_t state){
    number &= 0x3f;
    if (state) gameState[number>>3] |= 1<<(number%8);
     bac:	ec ec       	ldi	r30, 0xCC	; 204
     bae:	f8 e3       	ldi	r31, 0x38	; 56
     bb0:	86 81       	ldd	r24, Z+6	; 0x06
     bb2:	81 60       	ori	r24, 0x01	; 1
     bb4:	86 83       	std	Z+6, r24	; 0x06
     bb6:	08 95       	ret

    //Write bit in gameState location 110..113
    if (id == 0) WriteStatusBit(110, 1);
    else if (id == 1) WriteStatusBit(111, 1);
    else if (id == 2) WriteStatusBit(112, 1);
    else if (id == 3) WriteStatusBit(113, 1);
     bb8:	83 30       	cpi	r24, 0x03	; 3
     bba:	29 f4       	brne	.+10     	; 0xbc6 <Reset+0x60>
    if (gameState[number>>3] & (1<<(number%8))) return 1; else return 0;
}

void WriteStatusBit(uint8_t number, uint8_t state){
    number &= 0x3f;
    if (state) gameState[number>>3] |= 1<<(number%8);
     bbc:	ec ec       	ldi	r30, 0xCC	; 204
     bbe:	f8 e3       	ldi	r31, 0x38	; 56
     bc0:	86 81       	ldd	r24, Z+6	; 0x06
     bc2:	82 60       	ori	r24, 0x02	; 2
     bc4:	86 83       	std	Z+6, r24	; 0x06
     bc6:	08 95       	ret

00000bc8 <DecryptData>:

//Reads an address from I2C EEPROM
uint16_t ReadAddr (uint16_t offset, uint8_t type){
    uint8_t data[2] = {0,0};
    if (ExtEERead(offset, 2, type, &data[0])) return 0xffff; else return (data[0]<<8|data[1]);
}
     bc8:	cf 93       	push	r28
     bca:	df 93       	push	r29
     bcc:	dc 01       	movw	r26, r24
     bce:	e9 01       	movw	r28, r18
     bd0:	66 23       	and	r22, r22
     bd2:	a9 f0       	breq	.+42     	; 0xbfe <DecryptData+0x36>
     bd4:	50 e0       	ldi	r21, 0x00	; 0
     bd6:	44 0f       	add	r20, r20
     bd8:	55 1f       	adc	r21, r21
     bda:	44 0f       	add	r20, r20
     bdc:	55 1f       	adc	r21, r21
     bde:	44 0f       	add	r20, r20
     be0:	55 1f       	adc	r21, r21
     be2:	45 5a       	subi	r20, 0xA5	; 165
     be4:	5c 46       	sbci	r21, 0x6C	; 108
     be6:	fd 01       	movw	r30, r26
     be8:	e7 70       	andi	r30, 0x07	; 7
     bea:	ff 27       	eor	r31, r31
     bec:	e4 0f       	add	r30, r20
     bee:	f5 1f       	adc	r31, r21
     bf0:	88 81       	ld	r24, Y
     bf2:	90 81       	ld	r25, Z
     bf4:	98 27       	eor	r25, r24
     bf6:	99 93       	st	Y+, r25
     bf8:	11 96       	adiw	r26, 0x01	; 1
     bfa:	61 50       	subi	r22, 0x01	; 1
     bfc:	a1 f7       	brne	.-24     	; 0xbe6 <DecryptData+0x1e>
     bfe:	df 91       	pop	r29
     c00:	cf 91       	pop	r28
     c02:	08 95       	ret

00000c04 <ExtEERead>:
     c04:	af 92       	push	r10
     c06:	bf 92       	push	r11
     c08:	cf 92       	push	r12
     c0a:	df 92       	push	r13
     c0c:	ef 92       	push	r14
     c0e:	ff 92       	push	r15
     c10:	0f 93       	push	r16
     c12:	1f 93       	push	r17
     c14:	cf 93       	push	r28
     c16:	df 93       	push	r29
     c18:	00 d0       	rcall	.+0      	; 0xc1a <ExtEERead+0x16>
     c1a:	cd b7       	in	r28, 0x3d	; 61
     c1c:	de b7       	in	r29, 0x3e	; 62
     c1e:	d6 2e       	mov	r13, r22
     c20:	c4 2e       	mov	r12, r20
     c22:	59 01       	movw	r10, r18
     c24:	7c 01       	movw	r14, r24
     c26:	e8 94       	clt
     c28:	f7 f8       	bld	r15, 7
     c2a:	f9 82       	std	Y+1, r15	; 0x01
     c2c:	ea 82       	std	Y+2, r14	; 0x02
     c2e:	06 2f       	mov	r16, r22
     c30:	42 e0       	ldi	r20, 0x02	; 2
     c32:	be 01       	movw	r22, r28
     c34:	6f 5f       	subi	r22, 0xFF	; 255
     c36:	7f 4f       	sbci	r23, 0xFF	; 255
     c38:	80 e5       	ldi	r24, 0x50	; 80
     c3a:	34 db       	rcall	.-2456   	; 0x2a4 <I2C_read_bytes>
     c3c:	18 2f       	mov	r17, r24
     c3e:	81 11       	cpse	r24, r1
     c40:	05 c0       	rjmp	.+10     	; 0xc4c <ExtEERead+0x48>
     c42:	95 01       	movw	r18, r10
     c44:	4c 2d       	mov	r20, r12
     c46:	6d 2d       	mov	r22, r13
     c48:	c7 01       	movw	r24, r14
     c4a:	be df       	rcall	.-132    	; 0xbc8 <DecryptData>
     c4c:	81 2f       	mov	r24, r17
     c4e:	0f 90       	pop	r0
     c50:	0f 90       	pop	r0
     c52:	df 91       	pop	r29
     c54:	cf 91       	pop	r28
     c56:	1f 91       	pop	r17
     c58:	0f 91       	pop	r16
     c5a:	ff 90       	pop	r15
     c5c:	ef 90       	pop	r14
     c5e:	df 90       	pop	r13
     c60:	cf 90       	pop	r12
     c62:	bf 90       	pop	r11
     c64:	af 90       	pop	r10
     c66:	08 95       	ret

00000c68 <ClearTxAfter>:

//Empty all other string
void ClearTxAfter(uint8_t nr){
    for (uint8_t x=(nr+1); x<TXLISTLEN; ++x) txStrLen[x]=0;
     c68:	8f 5f       	subi	r24, 0xFF	; 255
     c6a:	88 30       	cpi	r24, 0x08	; 8
     c6c:	40 f4       	brcc	.+16     	; 0xc7e <ClearTxAfter+0x16>
     c6e:	e8 2f       	mov	r30, r24
     c70:	f0 e0       	ldi	r31, 0x00	; 0
     c72:	ed 54       	subi	r30, 0x4D	; 77
     c74:	f7 4c       	sbci	r31, 0xC7	; 199
     c76:	10 82       	st	Z, r1
     c78:	8f 5f       	subi	r24, 0xFF	; 255
     c7a:	88 30       	cpi	r24, 0x08	; 8
     c7c:	c1 f7       	brne	.-16     	; 0xc6e <ClearTxAfter+0x6>
     c7e:	08 95       	ret

00000c80 <StartsWith>:
}

//Check if a string starts with compare value
uint8_t StartsWith(uint8_t *data, char *compare){
    uint8_t x=0;
    while (data[x] && compare[x]){
     c80:	fc 01       	movw	r30, r24
     c82:	90 81       	ld	r25, Z
     c84:	91 11       	cpse	r25, r1
     c86:	07 c0       	rjmp	.+14     	; 0xc96 <StartsWith+0x16>
        if(data[x] != compare[x]) return 0;
        ++x;
        if ((x>=(sizeof(*compare)-1))||(x>=(sizeof(*data)))) break;
    }
    return 1;
     c88:	81 e0       	ldi	r24, 0x01	; 1
     c8a:	08 95       	ret

//Check if a string starts with compare value
uint8_t StartsWith(uint8_t *data, char *compare){
    uint8_t x=0;
    while (data[x] && compare[x]){
        if(data[x] != compare[x]) return 0;
     c8c:	81 e0       	ldi	r24, 0x01	; 1
     c8e:	92 17       	cp	r25, r18
     c90:	39 f0       	breq	.+14     	; 0xca0 <StartsWith+0x20>
     c92:	80 e0       	ldi	r24, 0x00	; 0
     c94:	08 95       	ret
}

//Check if a string starts with compare value
uint8_t StartsWith(uint8_t *data, char *compare){
    uint8_t x=0;
    while (data[x] && compare[x]){
     c96:	fb 01       	movw	r30, r22
     c98:	20 81       	ld	r18, Z
     c9a:	21 11       	cpse	r18, r1
     c9c:	f7 cf       	rjmp	.-18     	; 0xc8c <StartsWith+0xc>
        if(data[x] != compare[x]) return 0;
        ++x;
        if ((x>=(sizeof(*compare)-1))||(x>=(sizeof(*data)))) break;
    }
    return 1;
     c9e:	81 e0       	ldi	r24, 0x01	; 1
}
     ca0:	08 95       	ret

00000ca2 <PrepareSending>:

//Put the addresses
uint8_t PrepareSending(uint16_t address, uint16_t length, uint8_t type, uint8_t prompt){
     ca2:	1f 93       	push	r17
     ca4:	cf 93       	push	r28
     ca6:	df 93       	push	r29
     ca8:	eb 01       	movw	r28, r22
     caa:	12 2f       	mov	r17, r18
    uint8_t x=0;
    while (length>255) {
     cac:	6f 3f       	cpi	r22, 0xFF	; 255
     cae:	71 05       	cpc	r23, r1
     cb0:	d1 f0       	breq	.+52     	; 0xce6 <PrepareSending+0x44>
     cb2:	c8 f0       	brcs	.+50     	; 0xce6 <PrepareSending+0x44>
     cb4:	50 e0       	ldi	r21, 0x00	; 0
        txAddrList[x] = address;
        txStrLen[x] = 255;
     cb6:	6f ef       	ldi	r22, 0xFF	; 255

//Put the addresses
uint8_t PrepareSending(uint16_t address, uint16_t length, uint8_t type, uint8_t prompt){
    uint8_t x=0;
    while (length>255) {
        txAddrList[x] = address;
     cb8:	25 2f       	mov	r18, r21
     cba:	30 e0       	ldi	r19, 0x00	; 0
     cbc:	f9 01       	movw	r30, r18
     cbe:	ee 0f       	add	r30, r30
     cc0:	ff 1f       	adc	r31, r31
     cc2:	e5 54       	subi	r30, 0x45	; 69
     cc4:	f7 4c       	sbci	r31, 0xC7	; 199
     cc6:	80 83       	st	Z, r24
     cc8:	91 83       	std	Z+1, r25	; 0x01
        txStrLen[x] = 255;
     cca:	f9 01       	movw	r30, r18
     ccc:	ed 54       	subi	r30, 0x4D	; 77
     cce:	f7 4c       	sbci	r31, 0xC7	; 199
     cd0:	60 83       	st	Z, r22
        address += 255;
     cd2:	81 50       	subi	r24, 0x01	; 1
     cd4:	9f 4f       	sbci	r25, 0xFF	; 255
        length -= 255;
     cd6:	cf 5f       	subi	r28, 0xFF	; 255
     cd8:	d1 09       	sbc	r29, r1
        ++x;
     cda:	5f 5f       	subi	r21, 0xFF	; 255
}

//Put the addresses
uint8_t PrepareSending(uint16_t address, uint16_t length, uint8_t type, uint8_t prompt){
    uint8_t x=0;
    while (length>255) {
     cdc:	cf 3f       	cpi	r28, 0xFF	; 255
     cde:	d1 05       	cpc	r29, r1
     ce0:	09 f0       	breq	.+2      	; 0xce4 <PrepareSending+0x42>
     ce2:	50 f7       	brcc	.-44     	; 0xcb8 <PrepareSending+0x16>
     ce4:	01 c0       	rjmp	.+2      	; 0xce8 <PrepareSending+0x46>
    return 1;
}

//Put the addresses
uint8_t PrepareSending(uint16_t address, uint16_t length, uint8_t type, uint8_t prompt){
    uint8_t x=0;
     ce6:	50 e0       	ldi	r21, 0x00	; 0
        address += 255;
        length -= 255;
        ++x;
        if (x==(TXLISTLEN-1));
    }
    txAddrList[x]=address;
     ce8:	25 2f       	mov	r18, r21
     cea:	30 e0       	ldi	r19, 0x00	; 0
     cec:	f9 01       	movw	r30, r18
     cee:	ee 0f       	add	r30, r30
     cf0:	ff 1f       	adc	r31, r31
     cf2:	e5 54       	subi	r30, 0x45	; 69
     cf4:	f7 4c       	sbci	r31, 0xC7	; 199
     cf6:	80 83       	st	Z, r24
     cf8:	91 83       	std	Z+1, r25	; 0x01
    txStrLen[x]=length%255;
     cfa:	f9 01       	movw	r30, r18
     cfc:	ed 54       	subi	r30, 0x4D	; 77
     cfe:	f7 4c       	sbci	r31, 0xC7	; 199
     d00:	9e 01       	movw	r18, r28
     d02:	a1 e8       	ldi	r26, 0x81	; 129
     d04:	b0 e8       	ldi	r27, 0x80	; 128
     d06:	0e d3       	rcall	.+1564   	; 0x1324 <__umulhisi3>
     d08:	88 0f       	add	r24, r24
     d0a:	89 2f       	mov	r24, r25
     d0c:	88 1f       	adc	r24, r24
     d0e:	99 0b       	sbc	r25, r25
     d10:	91 95       	neg	r25
     d12:	6f ef       	ldi	r22, 0xFF	; 255
     d14:	68 9f       	mul	r22, r24
     d16:	90 01       	movw	r18, r0
     d18:	69 9f       	mul	r22, r25
     d1a:	30 0d       	add	r19, r0
     d1c:	11 24       	eor	r1, r1
     d1e:	c2 1b       	sub	r28, r18
     d20:	d3 0b       	sbc	r29, r19
     d22:	c0 83       	st	Z, r28
    if (length>255) return 1; 
    txTypeNow = type;
     d24:	40 93 b0 38 	sts	0x38B0, r20	; 0x8038b0 <txTypeNow>
    ClearTxAfter(x);
     d28:	85 2f       	mov	r24, r21
     d2a:	9e df       	rcall	.-196    	; 0xc68 <ClearTxAfter>
    sendPrompt = prompt;
     d2c:	10 93 b1 38 	sts	0x38B1, r17	; 0x8038b1 <sendPrompt>
    txAddrNow = 0;  //Start at first pointer, initiates sending in CheckSend
     d30:	10 92 b2 38 	sts	0x38B2, r1	; 0x8038b2 <txAddrNow>
    return 0;
}
     d34:	80 e0       	ldi	r24, 0x00	; 0
     d36:	df 91       	pop	r29
     d38:	cf 91       	pop	r28
     d3a:	1f 91       	pop	r17
     d3c:	08 95       	ret

00000d3e <PopulateObject>:

//Get all the relevant data and string addresses of an object
void PopulateObject(uint16_t offset, object_model_t *object){
     d3e:	6f 92       	push	r6
     d40:	7f 92       	push	r7
     d42:	8f 92       	push	r8
     d44:	9f 92       	push	r9
     d46:	af 92       	push	r10
     d48:	bf 92       	push	r11
     d4a:	cf 92       	push	r12
     d4c:	df 92       	push	r13
     d4e:	ef 92       	push	r14
     d50:	ff 92       	push	r15
     d52:	0f 93       	push	r16
     d54:	1f 93       	push	r17
     d56:	cf 93       	push	r28
     d58:	df 93       	push	r29
     d5a:	cd b7       	in	r28, 0x3d	; 61
     d5c:	de b7       	in	r29, 0x3e	; 62
     d5e:	2c 97       	sbiw	r28, 0x0c	; 12
     d60:	cd bf       	out	0x3d, r28	; 61
     d62:	de bf       	out	0x3e, r29	; 62
     d64:	8c 01       	movw	r16, r24
     d66:	5b 01       	movw	r10, r22
    uint16_t addrStart;
    offset += L_BOILER;

    //Fill things with fixed distance to offset
    uint8_t data[OFF_STRINGFLDS];
    ExtEERead(offset, OFF_STRINGFLDS, GAME, &data[0]);
     d68:	9e 01       	movw	r18, r28
     d6a:	2f 5f       	subi	r18, 0xFF	; 255
     d6c:	3f 4f       	sbci	r19, 0xFF	; 255
     d6e:	40 e0       	ldi	r20, 0x00	; 0
     d70:	6c e0       	ldi	r22, 0x0C	; 12
     d72:	80 96       	adiw	r24, 0x20	; 32
     d74:	47 df       	rcall	.-370    	; 0xc04 <ExtEERead>
    object->addrNextObj = (data[OFF_NEXTOBJ]<<8|data[OFF_NEXTOBJ+1])+L_BOILER;
     d76:	89 81       	ldd	r24, Y+1	; 0x01
     d78:	90 e0       	ldi	r25, 0x00	; 0
     d7a:	98 2f       	mov	r25, r24
     d7c:	88 27       	eor	r24, r24
     d7e:	2a 81       	ldd	r18, Y+2	; 0x02
     d80:	82 2b       	or	r24, r18
     d82:	80 96       	adiw	r24, 0x20	; 32
     d84:	f5 01       	movw	r30, r10
     d86:	80 83       	st	Z, r24
     d88:	91 83       	std	Z+1, r25	; 0x01
    object->addrNextLvl = (data[OFF_NEXTLVL]<<8|data[OFF_NEXTLVL+1])+L_BOILER;
     d8a:	8b 81       	ldd	r24, Y+3	; 0x03
     d8c:	90 e0       	ldi	r25, 0x00	; 0
     d8e:	98 2f       	mov	r25, r24
     d90:	88 27       	eor	r24, r24
     d92:	2c 81       	ldd	r18, Y+4	; 0x04
     d94:	82 2b       	or	r24, r18
     d96:	80 96       	adiw	r24, 0x20	; 32
     d98:	82 83       	std	Z+2, r24	; 0x02
     d9a:	93 83       	std	Z+3, r25	; 0x03
     d9c:	fe 01       	movw	r30, r28
     d9e:	35 96       	adiw	r30, 0x05	; 5
     da0:	d5 01       	movw	r26, r10
     da2:	14 96       	adiw	r26, 0x04	; 4
     da4:	9e 01       	movw	r18, r28
     da6:	23 5f       	subi	r18, 0xF3	; 243
     da8:	3f 4f       	sbci	r19, 0xFF	; 255
    for (uint8_t x=0; x<BYTE_FIELDS_LEN; ++x){
        object->byteField[x]=data[x+OFF_BYTEFLDS];
     daa:	81 91       	ld	r24, Z+
     dac:	8d 93       	st	X+, r24
    //Fill things with fixed distance to offset
    uint8_t data[OFF_STRINGFLDS];
    ExtEERead(offset, OFF_STRINGFLDS, GAME, &data[0]);
    object->addrNextObj = (data[OFF_NEXTOBJ]<<8|data[OFF_NEXTOBJ+1])+L_BOILER;
    object->addrNextLvl = (data[OFF_NEXTLVL]<<8|data[OFF_NEXTLVL+1])+L_BOILER;
    for (uint8_t x=0; x<BYTE_FIELDS_LEN; ++x){
     dae:	e2 17       	cp	r30, r18
     db0:	f3 07       	cpc	r31, r19
     db2:	d9 f7       	brne	.-10     	; 0xdaa <PopulateObject+0x6c>
        object->byteField[x]=data[x+OFF_BYTEFLDS];
    }

    //Find out where all of the strings begin and how long they are
    offset += OFF_STRINGFLDS;
     db4:	38 01       	movw	r6, r16
     db6:	fc e2       	ldi	r31, 0x2C	; 44
     db8:	6f 0e       	add	r6, r31
     dba:	71 1c       	adc	r7, r1
    object->addrStr[0]=offset+1;
     dbc:	03 5d       	subi	r16, 0xD3	; 211
     dbe:	1f 4f       	sbci	r17, 0xFF	; 255
     dc0:	f5 01       	movw	r30, r10
     dc2:	04 87       	std	Z+12, r16	; 0x0c
     dc4:	15 87       	std	Z+13, r17	; 0x0d
     dc6:	65 01       	movw	r12, r10
     dc8:	fe e0       	ldi	r31, 0x0E	; 14
     dca:	cf 0e       	add	r12, r31
     dcc:	d1 1c       	adc	r13, r1
     dce:	45 01       	movw	r8, r10
     dd0:	8a e1       	ldi	r24, 0x1A	; 26
     dd2:	88 0e       	add	r8, r24
     dd4:	91 1c       	adc	r9, r1
    for (uint8_t x=0; x<BYTE_FIELDS_LEN; ++x){
        object->byteField[x]=data[x+OFF_BYTEFLDS];
    }

    //Find out where all of the strings begin and how long they are
    offset += OFF_STRINGFLDS;
     dd6:	73 01       	movw	r14, r6
     dd8:	02 c0       	rjmp	.+4      	; 0xdde <PopulateObject+0xa0>
     dda:	78 01       	movw	r14, r16
     ddc:	38 01       	movw	r6, r16
     dde:	83 01       	movw	r16, r6
    object->addrStr[0]=offset+1;
    for(uint8_t x=1; x<STRING_FIELDS_LEN; ++x){
        addrStart = offset;
        do {
            ExtEERead(offset, 1, GAME, &data[0]);
     de0:	9e 01       	movw	r18, r28
     de2:	2f 5f       	subi	r18, 0xFF	; 255
     de4:	3f 4f       	sbci	r19, 0xFF	; 255
     de6:	40 e0       	ldi	r20, 0x00	; 0
     de8:	61 e0       	ldi	r22, 0x01	; 1
     dea:	c8 01       	movw	r24, r16
     dec:	0b df       	rcall	.-490    	; 0xc04 <ExtEERead>
            offset += (uint16_t)(data[0])+1;
     dee:	89 81       	ldd	r24, Y+1	; 0x01
     df0:	98 01       	movw	r18, r16
     df2:	28 0f       	add	r18, r24
     df4:	31 1d       	adc	r19, r1
     df6:	89 01       	movw	r16, r18
     df8:	0f 5f       	subi	r16, 0xFF	; 255
     dfa:	1f 4f       	sbci	r17, 0xFF	; 255
            if (offset>EXT_EE_MAX) break;
     dfc:	12 f0       	brmi	.+4      	; 0xe02 <PopulateObject+0xc4>
        } while (data[0]==255);
     dfe:	8f 3f       	cpi	r24, 0xFF	; 255
     e00:	79 f3       	breq	.-34     	; 0xde0 <PopulateObject+0xa2>
        object->lenStr[x-1]=(offset-addrStart-1)&EXT_EE_MAX;
     e02:	e0 94       	com	r14
     e04:	f0 94       	com	r15
     e06:	e0 0e       	add	r14, r16
     e08:	f1 1e       	adc	r15, r17
     e0a:	e8 94       	clt
     e0c:	f7 f8       	bld	r15, 7
     e0e:	f6 01       	movw	r30, r12
     e10:	e4 86       	std	Z+12, r14	; 0x0c
     e12:	f5 86       	std	Z+13, r15	; 0x0d
        object->addrStr[x]=(offset-1)&EXT_EE_MAX;
     e14:	3f 77       	andi	r19, 0x7F	; 127
     e16:	21 93       	st	Z+, r18
     e18:	31 93       	st	Z+, r19
     e1a:	6f 01       	movw	r12, r30
    }

    //Find out where all of the strings begin and how long they are
    offset += OFF_STRINGFLDS;
    object->addrStr[0]=offset+1;
    for(uint8_t x=1; x<STRING_FIELDS_LEN; ++x){
     e1c:	e8 15       	cp	r30, r8
     e1e:	f9 05       	cpc	r31, r9
     e20:	e1 f6       	brne	.-72     	; 0xdda <PopulateObject+0x9c>
            if (offset>EXT_EE_MAX) break;
        } while (data[0]==255);
        object->lenStr[x-1]=(offset-addrStart-1)&EXT_EE_MAX;
        object->addrStr[x]=(offset-1)&EXT_EE_MAX;
    }
    object->lenStr[STRING_FIELDS_LEN-1]=(offset-addrStart)&EXT_EE_MAX;
     e22:	06 19       	sub	r16, r6
     e24:	17 09       	sbc	r17, r7
     e26:	1f 77       	andi	r17, 0x7F	; 127
     e28:	f5 01       	movw	r30, r10
     e2a:	06 a3       	std	Z+38, r16	; 0x26
     e2c:	17 a3       	std	Z+39, r17	; 0x27
}
     e2e:	2c 96       	adiw	r28, 0x0c	; 12
     e30:	cd bf       	out	0x3d, r28	; 61
     e32:	de bf       	out	0x3e, r29	; 62
     e34:	df 91       	pop	r29
     e36:	cf 91       	pop	r28
     e38:	1f 91       	pop	r17
     e3a:	0f 91       	pop	r16
     e3c:	ff 90       	pop	r15
     e3e:	ef 90       	pop	r14
     e40:	df 90       	pop	r13
     e42:	cf 90       	pop	r12
     e44:	bf 90       	pop	r11
     e46:	af 90       	pop	r10
     e48:	9f 90       	pop	r9
     e4a:	8f 90       	pop	r8
     e4c:	7f 90       	pop	r7
     e4e:	6f 90       	pop	r6
     e50:	08 95       	ret

00000e52 <SendLiteral>:

//Sends numCR LFs and a literal, total
void SendLiteral(uint16_t address, uint16_t length, uint8_t numCR){
     e52:	cf 92       	push	r12
     e54:	df 92       	push	r13
     e56:	ef 92       	push	r14
     e58:	ff 92       	push	r15
     e5a:	1f 93       	push	r17
     e5c:	cf 93       	push	r28
     e5e:	df 93       	push	r29
     e60:	7c 01       	movw	r14, r24
     e62:	cb 01       	movw	r24, r22
    numCR %= (TXLEN-1);
     e64:	14 2f       	mov	r17, r20
     e66:	1f 71       	andi	r17, 0x1F	; 31
    length %= (TXLEN-numCR-1);
     e68:	c1 2e       	mov	r12, r17
     e6a:	d1 2c       	mov	r13, r1
     e6c:	20 e2       	ldi	r18, 0x20	; 32
     e6e:	30 e0       	ldi	r19, 0x00	; 0
     e70:	b9 01       	movw	r22, r18
     e72:	6c 19       	sub	r22, r12
     e74:	7d 09       	sbc	r23, r13
     e76:	42 d2       	rcall	.+1156   	; 0x12fc <__udivmodhi4>
     e78:	ec 01       	movw	r28, r24
     e7a:	ac 01       	movw	r20, r24
    for (uint8_t x=0; x<numCR; ++x) txBuffer[x]='\n';
     e7c:	11 23       	and	r17, r17
     e7e:	61 f0       	breq	.+24     	; 0xe98 <SendLiteral+0x46>
     e80:	ea e7       	ldi	r30, 0x7A	; 122
     e82:	f9 e3       	ldi	r31, 0x39	; 57
     e84:	8f ef       	ldi	r24, 0xFF	; 255
     e86:	81 0f       	add	r24, r17
     e88:	90 e0       	ldi	r25, 0x00	; 0
     e8a:	85 58       	subi	r24, 0x85	; 133
     e8c:	96 4c       	sbci	r25, 0xC6	; 198
     e8e:	3a e0       	ldi	r19, 0x0A	; 10
     e90:	31 93       	st	Z+, r19
     e92:	e8 17       	cp	r30, r24
     e94:	f9 07       	cpc	r31, r25
     e96:	e1 f7       	brne	.-8      	; 0xe90 <SendLiteral+0x3e>
    if (length) ExtEERead(address, length, TEASER, &txBuffer[numCR]);
     e98:	45 2b       	or	r20, r21
     e9a:	39 f0       	breq	.+14     	; 0xeaa <SendLiteral+0x58>
     e9c:	96 01       	movw	r18, r12
     e9e:	26 58       	subi	r18, 0x86	; 134
     ea0:	36 4c       	sbci	r19, 0xC6	; 198
     ea2:	41 e0       	ldi	r20, 0x01	; 1
     ea4:	6c 2f       	mov	r22, r28
     ea6:	c7 01       	movw	r24, r14
     ea8:	ad de       	rcall	.-678    	; 0xc04 <ExtEERead>
    txBuffer[numCR+length]='\0';
     eaa:	c6 58       	subi	r28, 0x86	; 134
     eac:	d6 4c       	sbci	r29, 0xC6	; 198
     eae:	c1 0f       	add	r28, r17
     eb0:	d1 1d       	adc	r29, r1
     eb2:	18 82       	st	Y, r1
    SerSend(&txBuffer[0]);
     eb4:	8a e7       	ldi	r24, 0x7A	; 122
     eb6:	99 e3       	ldi	r25, 0x39	; 57
     eb8:	94 dd       	rcall	.-1240   	; 0x9e2 <SerSend>
}
     eba:	df 91       	pop	r29
     ebc:	cf 91       	pop	r28
     ebe:	1f 91       	pop	r17
     ec0:	ff 90       	pop	r15
     ec2:	ef 90       	pop	r14
     ec4:	df 90       	pop	r13
     ec6:	cf 90       	pop	r12
     ec8:	08 95       	ret

00000eca <CheckSend>:

//Send routine, optimized for low memory usage
uint8_t CheckSend(){
     eca:	cf 93       	push	r28
    static uint8_t txPart;
    uint8_t EEreadLength=0;

    //Check if more string(part)s have to be sent to the serial output if previous send operation is completed
    if ((txAddrNow < TXLISTLEN) && serTxDone){
     ecc:	80 91 b2 38 	lds	r24, 0x38B2	; 0x8038b2 <txAddrNow>
     ed0:	88 30       	cpi	r24, 0x08	; 8
     ed2:	d8 f5       	brcc	.+118    	; 0xf4a <CheckSend+0x80>
     ed4:	90 91 04 38 	lds	r25, 0x3804	; 0x803804 <serTxDone>
     ed8:	99 23       	and	r25, r25
     eda:	b9 f1       	breq	.+110    	; 0xf4a <CheckSend+0x80>
        if (txPart < txStrLen[txAddrNow]){
     edc:	28 2f       	mov	r18, r24
     ede:	30 e0       	ldi	r19, 0x00	; 0
     ee0:	f9 01       	movw	r30, r18
     ee2:	ed 54       	subi	r30, 0x4D	; 77
     ee4:	f7 4c       	sbci	r31, 0xC7	; 199
     ee6:	e0 81       	ld	r30, Z
     ee8:	90 91 af 38 	lds	r25, 0x38AF	; 0x8038af <txPart.3877>
     eec:	9e 17       	cp	r25, r30
     eee:	30 f5       	brcc	.+76     	; 0xf3c <CheckSend+0x72>
            EEreadLength = txStrLen[txAddrNow]-txPart;
     ef0:	ce 2f       	mov	r28, r30
     ef2:	c9 1b       	sub	r28, r25
     ef4:	c1 32       	cpi	r28, 0x21	; 33
     ef6:	08 f0       	brcs	.+2      	; 0xefa <CheckSend+0x30>
     ef8:	c0 e2       	ldi	r28, 0x20	; 32
            if (EEreadLength>=TXLEN) EEreadLength = TXLEN-1;
            ExtEERead(txAddrList[txAddrNow]+txPart, EEreadLength, txTypeNow, &txBuffer[0]);
     efa:	22 0f       	add	r18, r18
     efc:	33 1f       	adc	r19, r19
     efe:	f9 01       	movw	r30, r18
     f00:	e5 54       	subi	r30, 0x45	; 69
     f02:	f7 4c       	sbci	r31, 0xC7	; 199
     f04:	01 90       	ld	r0, Z+
     f06:	f0 81       	ld	r31, Z
     f08:	e0 2d       	mov	r30, r0
     f0a:	2a e7       	ldi	r18, 0x7A	; 122
     f0c:	39 e3       	ldi	r19, 0x39	; 57
     f0e:	40 91 b0 38 	lds	r20, 0x38B0	; 0x8038b0 <txTypeNow>
     f12:	6c 2f       	mov	r22, r28
     f14:	df 01       	movw	r26, r30
     f16:	a9 0f       	add	r26, r25
     f18:	b1 1d       	adc	r27, r1
     f1a:	cd 01       	movw	r24, r26
     f1c:	73 de       	rcall	.-794    	; 0xc04 <ExtEERead>
            txPart += EEreadLength;
     f1e:	80 91 af 38 	lds	r24, 0x38AF	; 0x8038af <txPart.3877>
     f22:	8c 0f       	add	r24, r28
     f24:	80 93 af 38 	sts	0x38AF, r24	; 0x8038af <txPart.3877>
            txBuffer[EEreadLength] = 0; //Add string terminator after piece to send to plug memory leak
     f28:	ec 2f       	mov	r30, r28
     f2a:	f0 e0       	ldi	r31, 0x00	; 0
     f2c:	e6 58       	subi	r30, 0x86	; 134
     f2e:	f6 4c       	sbci	r31, 0xC6	; 198
     f30:	10 82       	st	Z, r1
            SerSend(&txBuffer[0]);
     f32:	8a e7       	ldi	r24, 0x7A	; 122
     f34:	99 e3       	ldi	r25, 0x39	; 57
     f36:	55 dd       	rcall	.-1366   	; 0x9e2 <SerSend>
        } else if (sendPrompt == CR_2){
            SendLiteral(0, 0, 2);
        }
        sendPrompt=0;
    } else if (serTxDone) return 0; //All is sent!
    return 1; //Still sending, do not change the data in the tx variables
     f38:	81 e0       	ldi	r24, 0x01	; 1
     f3a:	32 c0       	rjmp	.+100    	; 0xfa0 <CheckSend+0xd6>
            ExtEERead(txAddrList[txAddrNow]+txPart, EEreadLength, txTypeNow, &txBuffer[0]);
            txPart += EEreadLength;
            txBuffer[EEreadLength] = 0; //Add string terminator after piece to send to plug memory leak
            SerSend(&txBuffer[0]);
        } else {
            txPart = 0;
     f3c:	10 92 af 38 	sts	0x38AF, r1	; 0x8038af <txPart.3877>
            ++txAddrNow;
     f40:	8f 5f       	subi	r24, 0xFF	; 255
     f42:	80 93 b2 38 	sts	0x38B2, r24	; 0x8038b2 <txAddrNow>
        } else if (sendPrompt == CR_2){
            SendLiteral(0, 0, 2);
        }
        sendPrompt=0;
    } else if (serTxDone) return 0; //All is sent!
    return 1; //Still sending, do not change the data in the tx variables
     f46:	81 e0       	ldi	r24, 0x01	; 1
     f48:	2b c0       	rjmp	.+86     	; 0xfa0 <CheckSend+0xd6>
            txPart = 0;
            ++txAddrNow;
        }
    
    //Check if prompt needs to be sent afterward or something else
    } else if (serTxDone&&sendPrompt) {
     f4a:	80 91 04 38 	lds	r24, 0x3804	; 0x803804 <serTxDone>
     f4e:	88 23       	and	r24, r24
     f50:	11 f1       	breq	.+68     	; 0xf96 <CheckSend+0xcc>
     f52:	80 91 b1 38 	lds	r24, 0x38B1	; 0x8038b1 <sendPrompt>
     f56:	88 23       	and	r24, r24
     f58:	f1 f0       	breq	.+60     	; 0xf96 <CheckSend+0xcc>
        if (sendPrompt == PROMPT){
     f5a:	81 30       	cpi	r24, 0x01	; 1
     f5c:	39 f4       	brne	.+14     	; 0xf6c <CheckSend+0xa2>
            SendLiteral(A_PROMPT, L_PROMPT, 2);
     f5e:	42 e0       	ldi	r20, 0x02	; 2
     f60:	62 e0       	ldi	r22, 0x02	; 2
     f62:	70 e0       	ldi	r23, 0x00	; 0
     f64:	8d e4       	ldi	r24, 0x4D	; 77
     f66:	9c e7       	ldi	r25, 0x7C	; 124
     f68:	74 df       	rcall	.-280    	; 0xe52 <SendLiteral>
     f6a:	11 c0       	rjmp	.+34     	; 0xf8e <CheckSend+0xc4>
        } else if (sendPrompt == SPACE){
     f6c:	82 30       	cpi	r24, 0x02	; 2
     f6e:	39 f4       	brne	.+14     	; 0xf7e <CheckSend+0xb4>
            SendLiteral(A_SPACE, L_SPACE, 0);
     f70:	40 e0       	ldi	r20, 0x00	; 0
     f72:	61 e0       	ldi	r22, 0x01	; 1
     f74:	70 e0       	ldi	r23, 0x00	; 0
     f76:	8f e4       	ldi	r24, 0x4F	; 79
     f78:	9c e7       	ldi	r25, 0x7C	; 124
     f7a:	6b df       	rcall	.-298    	; 0xe52 <SendLiteral>
     f7c:	08 c0       	rjmp	.+16     	; 0xf8e <CheckSend+0xc4>
        } else if (sendPrompt == CR_2){
     f7e:	83 30       	cpi	r24, 0x03	; 3
     f80:	31 f4       	brne	.+12     	; 0xf8e <CheckSend+0xc4>
            SendLiteral(0, 0, 2);
     f82:	42 e0       	ldi	r20, 0x02	; 2
     f84:	60 e0       	ldi	r22, 0x00	; 0
     f86:	70 e0       	ldi	r23, 0x00	; 0
     f88:	80 e0       	ldi	r24, 0x00	; 0
     f8a:	90 e0       	ldi	r25, 0x00	; 0
     f8c:	62 df       	rcall	.-316    	; 0xe52 <SendLiteral>
        }
        sendPrompt=0;
     f8e:	10 92 b1 38 	sts	0x38B1, r1	; 0x8038b1 <sendPrompt>
    } else if (serTxDone) return 0; //All is sent!
    return 1; //Still sending, do not change the data in the tx variables
     f92:	81 e0       	ldi	r24, 0x01	; 1
        } else if (sendPrompt == SPACE){
            SendLiteral(A_SPACE, L_SPACE, 0);
        } else if (sendPrompt == CR_2){
            SendLiteral(0, 0, 2);
        }
        sendPrompt=0;
     f94:	05 c0       	rjmp	.+10     	; 0xfa0 <CheckSend+0xd6>
    } else if (serTxDone) return 0; //All is sent!
     f96:	90 91 04 38 	lds	r25, 0x3804	; 0x803804 <serTxDone>
     f9a:	81 e0       	ldi	r24, 0x01	; 1
     f9c:	91 11       	cpse	r25, r1
     f9e:	80 e0       	ldi	r24, 0x00	; 0
    return 1; //Still sending, do not change the data in the tx variables
}
     fa0:	cf 91       	pop	r28
     fa2:	08 95       	ret

00000fa4 <CheckInput>:

//User input check (and validation)
uint8_t CheckInput(uint8_t *data){
     fa4:	1f 93       	push	r17
     fa6:	cf 93       	push	r28
     fa8:	df 93       	push	r29
     faa:	cd b7       	in	r28, 0x3d	; 61
     fac:	de b7       	in	r29, 0x3e	; 62
     fae:	2a 97       	sbiw	r28, 0x0a	; 10
     fb0:	cd bf       	out	0x3d, r28	; 61
     fb2:	de bf       	out	0x3e, r29	; 62
    if (serRxDone){
     fb4:	20 91 0a 38 	lds	r18, 0x380A	; 0x80380a <serRxDone>
     fb8:	22 23       	and	r18, r18
     fba:	09 f4       	brne	.+2      	; 0xfbe <CheckInput+0x1a>
     fbc:	6e c0       	rjmp	.+220    	; 0x109a <CheckInput+0xf6>
        //Read up to the \0 character and convert to lower case.
        for (uint8_t x=0; serRx[x]!=0; ++x){
     fbe:	20 91 dc 38 	lds	r18, 0x38DC	; 0x8038dc <serRx>
     fc2:	22 23       	and	r18, r18
     fc4:	51 f1       	breq	.+84     	; 0x101a <CheckInput+0x76>
     fc6:	20 e0       	ldi	r18, 0x00	; 0
     fc8:	30 e0       	ldi	r19, 0x00	; 0
     fca:	40 e0       	ldi	r20, 0x00	; 0
            if ((serRx[x]<'A')||(serRx[x]>'Z')) data[x]=serRx[x]; else data[x]=serRx[x]|0x20;
     fcc:	f9 01       	movw	r30, r18
     fce:	e4 52       	subi	r30, 0x24	; 36
     fd0:	f7 4c       	sbci	r31, 0xC7	; 199
     fd2:	50 81       	ld	r21, Z
     fd4:	51 34       	cpi	r21, 0x41	; 65
     fd6:	30 f0       	brcs	.+12     	; 0xfe4 <CheckInput+0x40>
     fd8:	f9 01       	movw	r30, r18
     fda:	e4 52       	subi	r30, 0x24	; 36
     fdc:	f7 4c       	sbci	r31, 0xC7	; 199
     fde:	50 81       	ld	r21, Z
     fe0:	5b 35       	cpi	r21, 0x5B	; 91
     fe2:	48 f0       	brcs	.+18     	; 0xff6 <CheckInput+0x52>
     fe4:	f9 01       	movw	r30, r18
     fe6:	e4 52       	subi	r30, 0x24	; 36
     fe8:	f7 4c       	sbci	r31, 0xC7	; 199
     fea:	20 81       	ld	r18, Z
     fec:	fc 01       	movw	r30, r24
     fee:	e4 0f       	add	r30, r20
     ff0:	f1 1d       	adc	r31, r1
     ff2:	20 83       	st	Z, r18
     ff4:	09 c0       	rjmp	.+18     	; 0x1008 <CheckInput+0x64>
     ff6:	f9 01       	movw	r30, r18
     ff8:	e4 52       	subi	r30, 0x24	; 36
     ffa:	f7 4c       	sbci	r31, 0xC7	; 199
     ffc:	20 81       	ld	r18, Z
     ffe:	fc 01       	movw	r30, r24
    1000:	e4 0f       	add	r30, r20
    1002:	f1 1d       	adc	r31, r1
    1004:	20 62       	ori	r18, 0x20	; 32
    1006:	20 83       	st	Z, r18

//User input check (and validation)
uint8_t CheckInput(uint8_t *data){
    if (serRxDone){
        //Read up to the \0 character and convert to lower case.
        for (uint8_t x=0; serRx[x]!=0; ++x){
    1008:	4f 5f       	subi	r20, 0xFF	; 255
    100a:	24 2f       	mov	r18, r20
    100c:	30 e0       	ldi	r19, 0x00	; 0
    100e:	f9 01       	movw	r30, r18
    1010:	e4 52       	subi	r30, 0x24	; 36
    1012:	f7 4c       	sbci	r31, 0xC7	; 199
    1014:	50 81       	ld	r21, Z
    1016:	51 11       	cpse	r21, r1
    1018:	d9 cf       	rjmp	.-78     	; 0xfcc <CheckInput+0x28>
            if ((serRx[x]<'A')||(serRx[x]>'Z')) data[x]=serRx[x]; else data[x]=serRx[x]|0x20;
        }

        //Help text
        if ((data[0] == '?')||(data[0] == 'h')){
    101a:	fc 01       	movw	r30, r24
    101c:	20 81       	ld	r18, Z
    101e:	2f 33       	cpi	r18, 0x3F	; 63
    1020:	11 f0       	breq	.+4      	; 0x1026 <CheckInput+0x82>
    1022:	28 36       	cpi	r18, 0x68	; 104
    1024:	61 f4       	brne	.+24     	; 0x103e <CheckInput+0x9a>
            //Put help pointers/lengths in tx list
            PrepareSending(A_HELP, L_HELP, TEASER, PROMPT);
    1026:	21 e0       	ldi	r18, 0x01	; 1
    1028:	41 e0       	ldi	r20, 0x01	; 1
    102a:	65 ea       	ldi	r22, 0xA5	; 165
    102c:	73 e0       	ldi	r23, 0x03	; 3
    102e:	8b e5       	ldi	r24, 0x5B	; 91
    1030:	9c e7       	ldi	r25, 0x7C	; 124
    1032:	37 de       	rcall	.-914    	; 0xca2 <PrepareSending>
            RXCNT = 0;
    1034:	1d ba       	out	0x1d, r1	; 29
            serRxDone = 0;
    1036:	10 92 0a 38 	sts	0x380A, r1	; 0x80380a <serRxDone>
            return 1;
    103a:	81 e0       	ldi	r24, 0x01	; 1
    103c:	2f c0       	rjmp	.+94     	; 0x109c <CheckInput+0xf8>
        }

        //Quit text
        if (data[0] == 'q'){
    103e:	21 37       	cpi	r18, 0x71	; 113
    1040:	61 f4       	brne	.+24     	; 0x105a <CheckInput+0xb6>
            //Put quit pointers/lengths in tx list
            PrepareSending(A_QUIT, L_QUIT, TEASER, PROMPT);
    1042:	21 e0       	ldi	r18, 0x01	; 1
    1044:	41 e0       	ldi	r20, 0x01	; 1
    1046:	64 e5       	ldi	r22, 0x54	; 84
    1048:	70 e0       	ldi	r23, 0x00	; 0
    104a:	89 ef       	ldi	r24, 0xF9	; 249
    104c:	9b e7       	ldi	r25, 0x7B	; 123
    104e:	29 de       	rcall	.-942    	; 0xca2 <PrepareSending>
            RXCNT = 0;
    1050:	1d ba       	out	0x1d, r1	; 29
            serRxDone = 0;
    1052:	10 92 0a 38 	sts	0x380A, r1	; 0x80380a <serRxDone>
            return 1;
    1056:	81 e0       	ldi	r24, 0x01	; 1
    1058:	21 c0       	rjmp	.+66     	; 0x109c <CheckInput+0xf8>
        }

        //Cheat = reset badge!
        if (StartsWith(&data[0], "iddqd")){
    105a:	6b e4       	ldi	r22, 0x4B	; 75
    105c:	73 e9       	ldi	r23, 0x93	; 147
    105e:	10 de       	rcall	.-992    	; 0xc80 <StartsWith>
    1060:	88 23       	and	r24, r24
    1062:	e1 f0       	breq	.+56     	; 0x109c <CheckInput+0xf8>
    1064:	1e e6       	ldi	r17, 0x6E	; 110
            
            //Reset game data by wiping the UUID bits
            for (uint8_t x=0; x<4; ++x){
                WriteStatusBit(110+x, 0);
    1066:	60 e0       	ldi	r22, 0x00	; 0
    1068:	81 2f       	mov	r24, r17
    106a:	50 dd       	rcall	.-1376   	; 0xb0c <WriteStatusBit>
    106c:	1f 5f       	subi	r17, 0xFF	; 255

        //Cheat = reset badge!
        if (StartsWith(&data[0], "iddqd")){
            
            //Reset game data by wiping the UUID bits
            for (uint8_t x=0; x<4; ++x){
    106e:	12 37       	cpi	r17, 0x72	; 114
    1070:	d1 f7       	brne	.-12     	; 0x1066 <CheckInput+0xc2>
                WriteStatusBit(110+x, 0);
            }
            SaveGameState();
    1072:	ff dc       	rcall	.-1538   	; 0xa72 <SaveGameState>
    1074:	8a e0       	ldi	r24, 0x0A	; 10

            uint8_t cheat[] = "Cheater! ";
    1076:	e1 e5       	ldi	r30, 0x51	; 81
    1078:	f3 e9       	ldi	r31, 0x93	; 147
    107a:	de 01       	movw	r26, r28
    107c:	11 96       	adiw	r26, 0x01	; 1
    107e:	01 90       	ld	r0, Z+
    1080:	0d 92       	st	X+, r0
    1082:	8a 95       	dec	r24
    1084:	e1 f7       	brne	.-8      	; 0x107e <CheckInput+0xda>
            SerSpeed(60);
    1086:	8c e3       	ldi	r24, 0x3C	; 60
    1088:	be dc       	rcall	.-1668   	; 0xa06 <SerSpeed>
    108a:	80 91 04 38 	lds	r24, 0x3804	; 0x803804 <serTxDone>
            while(1){
                if (serTxDone) SerSend(&cheat[0]);
    108e:	88 23       	and	r24, r24
    1090:	e1 f3       	breq	.-8      	; 0x108a <CheckInput+0xe6>
    1092:	ce 01       	movw	r24, r28
    1094:	01 96       	adiw	r24, 0x01	; 1
    1096:	a5 dc       	rcall	.-1718   	; 0x9e2 <SerSend>
    1098:	f8 cf       	rjmp	.-16     	; 0x108a <CheckInput+0xe6>
    109a:	81 e0       	ldi	r24, 0x01	; 1
        //Data received, but not any of the commands above
        return 0;
    }

    //Serial input not available yet
    return 1;
    109c:	2a 96       	adiw	r28, 0x0a	; 10
}
    109e:	cd bf       	out	0x3d, r28	; 61
    10a0:	de bf       	out	0x3e, r29	; 62
    10a2:	df 91       	pop	r29
    10a4:	cf 91       	pop	r28
    10a6:	1f 91       	pop	r17
    10a8:	08 95       	ret

000010aa <ProcessInput>:
    10aa:	0f 93       	push	r16

//The game logic!
void ProcessInput(uint8_t *data){
    10ac:	1f 93       	push	r17
    10ae:	cf 93       	push	r28
    10b0:	8c 01       	movw	r16, r24
    
    static uint16_t reactStr[3][8] = {{0},{0},{0}};
    static uint8_t actionList = 0;
    static uint8_t toSend = 0;

    PopulateObject(0, &currObj);
    10b2:	67 e8       	ldi	r22, 0x87	; 135
    10b4:	78 e3       	ldi	r23, 0x38	; 56
    10b6:	80 e0       	ldi	r24, 0x00	; 0
    10b8:	90 e0       	ldi	r25, 0x00	; 0
    10ba:	41 de       	rcall	.-894    	; 0xd3e <PopulateObject>
    
    //Responses to send after something has tried by the user
    if (actionList){
    10bc:	c0 91 86 38 	lds	r28, 0x3886	; 0x803886 <actionList.3899>
    10c0:	cc 23       	and	r28, r28
    10c2:	31 f1       	breq	.+76     	; 0x1110 <ProcessInput+0x66>
        PrepareSending(reactStr[0][toSend], reactStr[1][toSend], GAME, reactStr[2][toSend]);
    10c4:	10 91 85 38 	lds	r17, 0x3885	; 0x803885 <toSend.3900>
    10c8:	81 2f       	mov	r24, r17
    10ca:	90 e0       	ldi	r25, 0x00	; 0
    10cc:	dc 01       	movw	r26, r24
    10ce:	aa 0f       	add	r26, r26
    10d0:	bb 1f       	adc	r27, r27
    10d2:	ab 58       	subi	r26, 0x8B	; 139
    10d4:	b7 4c       	sbci	r27, 0xC7	; 199
    10d6:	fc 01       	movw	r30, r24
    10d8:	ee 0f       	add	r30, r30
    10da:	ff 1f       	adc	r31, r31
    10dc:	eb 59       	subi	r30, 0x9B	; 155
    10de:	f7 4c       	sbci	r31, 0xC7	; 199
    10e0:	60 81       	ld	r22, Z
    10e2:	71 81       	ldd	r23, Z+1	; 0x01
    10e4:	88 0f       	add	r24, r24
    10e6:	99 1f       	adc	r25, r25
    10e8:	fc 01       	movw	r30, r24
    10ea:	eb 5a       	subi	r30, 0xAB	; 171
    10ec:	f7 4c       	sbci	r31, 0xC7	; 199
    10ee:	2c 91       	ld	r18, X
    10f0:	40 e0       	ldi	r20, 0x00	; 0
    10f2:	80 81       	ld	r24, Z
    10f4:	91 81       	ldd	r25, Z+1	; 0x01
    10f6:	d5 dd       	rcall	.-1110   	; 0xca2 <PrepareSending>
        ++toSend;
    10f8:	1f 5f       	subi	r17, 0xFF	; 255
    10fa:	10 93 85 38 	sts	0x3885, r17	; 0x803885 <toSend.3900>
        --actionList;
    10fe:	c1 50       	subi	r28, 0x01	; 1
    1100:	c0 93 86 38 	sts	0x3886, r28	; 0x803886 <actionList.3899>
        if (actionList == 0) {
    1104:	c1 11       	cpse	r28, r1
    1106:	71 c0       	rjmp	.+226    	; 0x11ea <ProcessInput+0x140>
            RXCNT = 0;
    1108:	1d ba       	out	0x1d, r1	; 29
            serRxDone = 0;
    110a:	10 92 0a 38 	sts	0x380A, r1	; 0x80380a <serRxDone>
    110e:	6d c0       	rjmp	.+218    	; 0x11ea <ProcessInput+0x140>
        }

    //No responses yet? 
    } else if (data[0]){
    1110:	f8 01       	movw	r30, r16
    1112:	80 81       	ld	r24, Z
    1114:	88 23       	and	r24, r24
    1116:	09 f4       	brne	.+2      	; 0x111a <ProcessInput+0x70>
    1118:	68 c0       	rjmp	.+208    	; 0x11ea <ProcessInput+0x140>
        toSend = 0;
    111a:	10 92 85 38 	sts	0x3885, r1	; 0x803885 <toSend.3900>

        if (data[0] == 'x'){
    111e:	88 37       	cpi	r24, 0x78	; 120
    1120:	b9 f4       	brne	.+46     	; 0x1150 <ProcessInput+0xa6>
            reactStr[0][0]=currObj.addrStr[NAME];
    1122:	e5 e5       	ldi	r30, 0x55	; 85
    1124:	f8 e3       	ldi	r31, 0x38	; 56
    1126:	a7 e8       	ldi	r26, 0x87	; 135
    1128:	b8 e3       	ldi	r27, 0x38	; 56
    112a:	1c 96       	adiw	r26, 0x0c	; 12
    112c:	8d 91       	ld	r24, X+
    112e:	9c 91       	ld	r25, X
    1130:	1d 97       	sbiw	r26, 0x0d	; 13
    1132:	80 83       	st	Z, r24
    1134:	91 83       	std	Z+1, r25	; 0x01
            reactStr[1][0]=currObj.lenStr[NAME];
    1136:	5a 96       	adiw	r26, 0x1a	; 26
    1138:	8d 91       	ld	r24, X+
    113a:	9c 91       	ld	r25, X
    113c:	5b 97       	sbiw	r26, 0x1b	; 27
    113e:	80 8b       	std	Z+16, r24	; 0x10
    1140:	91 8b       	std	Z+17, r25	; 0x11
            reactStr[2][0]=PROMPT;
    1142:	81 e0       	ldi	r24, 0x01	; 1
    1144:	90 e0       	ldi	r25, 0x00	; 0
    1146:	80 a3       	std	Z+32, r24	; 0x20
    1148:	91 a3       	std	Z+33, r25	; 0x21
            actionList = 1;
    114a:	80 93 86 38 	sts	0x3886, r24	; 0x803886 <actionList.3899>
    114e:	4d c0       	rjmp	.+154    	; 0x11ea <ProcessInput+0x140>
        
        } else
        if ((data[0] == 'e')||(data[0] == 'o')){
    1150:	85 36       	cpi	r24, 0x65	; 101
    1152:	11 f0       	breq	.+4      	; 0x1158 <ProcessInput+0xae>
    1154:	8f 36       	cpi	r24, 0x6F	; 111
    1156:	51 f4       	brne	.+20     	; 0x116c <ProcessInput+0xc2>
            PrepareSending(currObj.addrStr[DESC],currObj.lenStr[DESC], GAME, PROMPT);
    1158:	e7 e8       	ldi	r30, 0x87	; 135
    115a:	f8 e3       	ldi	r31, 0x38	; 56
    115c:	64 8d       	ldd	r22, Z+28	; 0x1c
    115e:	75 8d       	ldd	r23, Z+29	; 0x1d
    1160:	21 e0       	ldi	r18, 0x01	; 1
    1162:	40 e0       	ldi	r20, 0x00	; 0
    1164:	86 85       	ldd	r24, Z+14	; 0x0e
    1166:	97 85       	ldd	r25, Z+15	; 0x0f
    1168:	9c dd       	rcall	.-1224   	; 0xca2 <PrepareSending>
    116a:	3f c0       	rjmp	.+126    	; 0x11ea <ProcessInput+0x140>
        
        } else
        if (data[0] == 'l'){
    116c:	8c 36       	cpi	r24, 0x6C	; 108
    116e:	51 f4       	brne	.+20     	; 0x1184 <ProcessInput+0xda>
            PrepareSending(currObj.addrStr[ACTION_STR1],currObj.lenStr[ACTION_STR1], GAME, PROMPT);
    1170:	e7 e8       	ldi	r30, 0x87	; 135
    1172:	f8 e3       	ldi	r31, 0x38	; 56
    1174:	66 8d       	ldd	r22, Z+30	; 0x1e
    1176:	77 8d       	ldd	r23, Z+31	; 0x1f
    1178:	21 e0       	ldi	r18, 0x01	; 1
    117a:	40 e0       	ldi	r20, 0x00	; 0
    117c:	80 89       	ldd	r24, Z+16	; 0x10
    117e:	91 89       	ldd	r25, Z+17	; 0x11
    1180:	90 dd       	rcall	.-1248   	; 0xca2 <PrepareSending>
    1182:	33 c0       	rjmp	.+102    	; 0x11ea <ProcessInput+0x140>
        } else
        if (data[0] == 'p'){
    1184:	80 37       	cpi	r24, 0x70	; 112
    1186:	51 f4       	brne	.+20     	; 0x119c <ProcessInput+0xf2>
            PrepareSending(currObj.addrStr[ACTION_STR2],currObj.lenStr[ACTION_STR2], GAME, PROMPT);
    1188:	e7 e8       	ldi	r30, 0x87	; 135
    118a:	f8 e3       	ldi	r31, 0x38	; 56
    118c:	60 a1       	ldd	r22, Z+32	; 0x20
    118e:	71 a1       	ldd	r23, Z+33	; 0x21
    1190:	21 e0       	ldi	r18, 0x01	; 1
    1192:	40 e0       	ldi	r20, 0x00	; 0
    1194:	82 89       	ldd	r24, Z+18	; 0x12
    1196:	93 89       	ldd	r25, Z+19	; 0x13
    1198:	84 dd       	rcall	.-1272   	; 0xca2 <PrepareSending>
    119a:	27 c0       	rjmp	.+78     	; 0x11ea <ProcessInput+0x140>
        
        } else
        if (data[0] == 'd'){
    119c:	84 36       	cpi	r24, 0x64	; 100
    119e:	51 f4       	brne	.+20     	; 0x11b4 <ProcessInput+0x10a>
            PrepareSending(currObj.addrStr[OPEN_ACL_MSG],currObj.lenStr[OPEN_ACL_MSG], GAME, PROMPT);
    11a0:	e7 e8       	ldi	r30, 0x87	; 135
    11a2:	f8 e3       	ldi	r31, 0x38	; 56
    11a4:	62 a1       	ldd	r22, Z+34	; 0x22
    11a6:	73 a1       	ldd	r23, Z+35	; 0x23
    11a8:	21 e0       	ldi	r18, 0x01	; 1
    11aa:	40 e0       	ldi	r20, 0x00	; 0
    11ac:	84 89       	ldd	r24, Z+20	; 0x14
    11ae:	95 89       	ldd	r25, Z+21	; 0x15
    11b0:	78 dd       	rcall	.-1296   	; 0xca2 <PrepareSending>
    11b2:	1b c0       	rjmp	.+54     	; 0x11ea <ProcessInput+0x140>
        
        } else
        if (data[0] == 'i'){
    11b4:	89 36       	cpi	r24, 0x69	; 105
    11b6:	51 f4       	brne	.+20     	; 0x11cc <ProcessInput+0x122>
            PrepareSending(currObj.addrStr[ACTION_ACL_MSG],currObj.lenStr[ACTION_ACL_MSG], GAME, PROMPT);
    11b8:	e7 e8       	ldi	r30, 0x87	; 135
    11ba:	f8 e3       	ldi	r31, 0x38	; 56
    11bc:	64 a1       	ldd	r22, Z+36	; 0x24
    11be:	75 a1       	ldd	r23, Z+37	; 0x25
    11c0:	21 e0       	ldi	r18, 0x01	; 1
    11c2:	40 e0       	ldi	r20, 0x00	; 0
    11c4:	86 89       	ldd	r24, Z+22	; 0x16
    11c6:	97 89       	ldd	r25, Z+23	; 0x17
    11c8:	6c dd       	rcall	.-1320   	; 0xca2 <PrepareSending>
    11ca:	0f c0       	rjmp	.+30     	; 0x11ea <ProcessInput+0x140>
        
        } else
        if ((data[0] == 't')||(data[0] == 'u')){
    11cc:	84 57       	subi	r24, 0x74	; 116
    11ce:	82 30       	cpi	r24, 0x02	; 2
    11d0:	50 f4       	brcc	.+20     	; 0x11e6 <ProcessInput+0x13c>
            PrepareSending(currObj.addrStr[ACTION_MSG],currObj.lenStr[ACTION_MSG], GAME, PROMPT);
    11d2:	e7 e8       	ldi	r30, 0x87	; 135
    11d4:	f8 e3       	ldi	r31, 0x38	; 56
    11d6:	66 a1       	ldd	r22, Z+38	; 0x26
    11d8:	77 a1       	ldd	r23, Z+39	; 0x27
    11da:	21 e0       	ldi	r18, 0x01	; 1
    11dc:	40 e0       	ldi	r20, 0x00	; 0
    11de:	80 8d       	ldd	r24, Z+24	; 0x18
    11e0:	91 8d       	ldd	r25, Z+25	; 0x19
    11e2:	5f dd       	rcall	.-1346   	; 0xca2 <PrepareSending>
    11e4:	02 c0       	rjmp	.+4      	; 0x11ea <ProcessInput+0x140>
        
        } else {
            //No clue...
            data[0] = 0;
    11e6:	f8 01       	movw	r30, r16
    11e8:	10 82       	st	Z, r1
        }
    }
}
    11ea:	cf 91       	pop	r28
    11ec:	1f 91       	pop	r17
    11ee:	0f 91       	pop	r16
    11f0:	08 95       	ret

000011f2 <TextAdventure>:


// Main game loop
uint8_t TextAdventure(){
    11f2:	cf 93       	push	r28
    static uint8_t serInput[RXLEN];
    if (CheckSend()) return 1;                      //Still sending data to serial, return 1
    11f4:	6a de       	rcall	.-812    	; 0xeca <CheckSend>
    11f6:	81 11       	cpse	r24, r1
    11f8:	0b c0       	rjmp	.+22     	; 0x1210 <TextAdventure+0x1e>
    if (CheckInput(&serInput[0])) return 2;         //No valid input to process, return 2
    11fa:	8d e0       	ldi	r24, 0x0D	; 13
    11fc:	98 e3       	ldi	r25, 0x38	; 56
    11fe:	d2 de       	rcall	.-604    	; 0xfa4 <CheckInput>
    1200:	c8 2f       	mov	r28, r24
    1202:	81 11       	cpse	r24, r1
    1204:	07 c0       	rjmp	.+14     	; 0x1214 <TextAdventure+0x22>
    ProcessInput(&serInput[0]);                     //Check which response to generate and fill tx arrays
    1206:	8d e0       	ldi	r24, 0x0D	; 13
    1208:	98 e3       	ldi	r25, 0x38	; 56
    SaveGameState();                                //Check if things are changed, write to EEPROM
    120a:	4f df       	rcall	.-354    	; 0x10aa <ProcessInput>
    120c:	32 dc       	rcall	.-1948   	; 0xa72 <SaveGameState>
    return 0;
    120e:	03 c0       	rjmp	.+6      	; 0x1216 <TextAdventure+0x24>


// Main game loop
uint8_t TextAdventure(){
    static uint8_t serInput[RXLEN];
    if (CheckSend()) return 1;                      //Still sending data to serial, return 1
    1210:	c1 e0       	ldi	r28, 0x01	; 1
    1212:	01 c0       	rjmp	.+2      	; 0x1216 <TextAdventure+0x24>
    if (CheckInput(&serInput[0])) return 2;         //No valid input to process, return 2
    1214:	c2 e0       	ldi	r28, 0x02	; 2
    ProcessInput(&serInput[0]);                     //Check which response to generate and fill tx arrays
    SaveGameState();                                //Check if things are changed, write to EEPROM
    return 0;
    1216:	8c 2f       	mov	r24, r28
    1218:	cf 91       	pop	r28
    121a:	08 95       	ret

0000121c <main>:



//This is where it begins, inits first and main program in while(1) loop.
int main(void)
{
    121c:	cf 93       	push	r28
    121e:	df 93       	push	r29
    1220:	cd b7       	in	r28, 0x3d	; 61
    1222:	de b7       	in	r29, 0x3e	; 62
    1224:	a9 97       	sbiw	r28, 0x29	; 41
    1226:	cd bf       	out	0x3d, r28	; 61
    1228:	de bf       	out	0x3e, r29	; 62
    Setup();
    122a:	94 d8       	rcall	.-3800   	; 0x354 <Setup>
    EERead(0, &gameState[0], 16);   //Load game status bits from EEPROM
    122c:	40 e1       	ldi	r20, 0x10	; 16
    122e:	6c ec       	ldi	r22, 0xCC	; 204
    1230:	78 e3       	ldi	r23, 0x38	; 56
    1232:	80 e0       	ldi	r24, 0x00	; 0
    1234:	7a db       	rcall	.-2316   	; 0x92a <EERead>
    1236:	1e e6       	ldi	r17, 0x6E	; 110

    uint8_t idSet = 0;
    for (uint8_t x=0; x<4; ++x){
        idSet += ReadStatusBit(110+x);
    1238:	00 e0       	ldi	r16, 0x00	; 0
    123a:	81 2f       	mov	r24, r17
    123c:	53 dc       	rcall	.-1882   	; 0xae4 <ReadStatusBit>
    123e:	08 0f       	add	r16, r24
    1240:	1f 5f       	subi	r17, 0xFF	; 255
{
    Setup();
    EERead(0, &gameState[0], 16);   //Load game status bits from EEPROM

    uint8_t idSet = 0;
    for (uint8_t x=0; x<4; ++x){
    1242:	12 37       	cpi	r17, 0x72	; 114
        idSet += ReadStatusBit(110+x);
    }

    //idSet can be used to detect cheating. After cheating idSet will be 0, with a virgin badge idSet will be 3.
    if (idSet != 1) {
    1244:	d1 f7       	brne	.-12     	; 0x123a <main+0x1e>
        Reset();
    1246:	01 30       	cpi	r16, 0x01	; 1
    1248:	09 f0       	breq	.+2      	; 0x124c <main+0x30>
    }

    SerSpeed(1);
    124a:	8d dc       	rcall	.-1766   	; 0xb66 <Reset>
    124c:	81 e0       	ldi	r24, 0x01	; 1
    124e:	db db       	rcall	.-2122   	; 0xa06 <SerSpeed>
    unsigned char strTest[]="\aHckerHotel2020 badge pest!\b\b\b\b\bt\n";
    1250:	84 e2       	ldi	r24, 0x24	; 36
    1252:	eb e6       	ldi	r30, 0x6B	; 107
    1254:	f3 e9       	ldi	r31, 0x93	; 147
    1256:	de 01       	movw	r26, r28
    1258:	11 96       	adiw	r26, 0x01	; 1
    125a:	01 90       	ld	r0, Z+
    125c:	0d 92       	st	X+, r0
    125e:	8a 95       	dec	r24
    SerSend(&strTest[0]);
    1260:	e1 f7       	brne	.-8      	; 0x125a <main+0x3e>
    1262:	ce 01       	movw	r24, r28
    1264:	01 96       	adiw	r24, 0x01	; 1
    1266:	bd db       	rcall	.-2182   	; 0x9e2 <SerSend>

    //uint8_t bla = 0;
    SerSpeed(255);
    1268:	8f ef       	ldi	r24, 0xFF	; 255
    126a:	cd db       	rcall	.-2150   	; 0xa06 <SerSpeed>
    126c:	80 e0       	ldi	r24, 0x00	; 0

    //Turn on LEDs on low setting to check for interrupt glitches
    for (uint8_t n=0; n<40; n++){
    126e:	22 e0       	ldi	r18, 0x02	; 2
        if ((n%8)>5) n+=2;
        if (n<40) iLED[n] = 2;
    1270:	07 c0       	rjmp	.+14     	; 0x1280 <main+0x64>
    1272:	39 2f       	mov	r19, r25
    //uint8_t bla = 0;
    SerSpeed(255);

    //Turn on LEDs on low setting to check for interrupt glitches
    for (uint8_t n=0; n<40; n++){
        if ((n%8)>5) n+=2;
    1274:	37 70       	andi	r19, 0x07	; 7
    1276:	36 30       	cpi	r19, 0x06	; 6
    1278:	10 f0       	brcs	.+4      	; 0x127e <main+0x62>
    127a:	93 e0       	ldi	r25, 0x03	; 3
    127c:	98 0f       	add	r25, r24
    127e:	89 2f       	mov	r24, r25
int main(void)
{
    Setup();
    EERead(0, &gameState[0], 16);   //Load game status bits from EEPROM

    uint8_t idSet = 0;
    1280:	88 32       	cpi	r24, 0x28	; 40
    SerSpeed(255);

    //Turn on LEDs on low setting to check for interrupt glitches
    for (uint8_t n=0; n<40; n++){
        if ((n%8)>5) n+=2;
        if (n<40) iLED[n] = 2;
    1282:	28 f4       	brcc	.+10     	; 0x128e <main+0x72>
    1284:	e8 2f       	mov	r30, r24
    1286:	f0 e0       	ldi	r31, 0x00	; 0
    1288:	e2 5b       	subi	r30, 0xB2	; 178
    128a:	f6 4c       	sbci	r31, 0xC6	; 198
    128c:	20 83       	st	Z, r18
    128e:	91 e0       	ldi	r25, 0x01	; 1

    //uint8_t bla = 0;
    SerSpeed(255);

    //Turn on LEDs on low setting to check for interrupt glitches
    for (uint8_t n=0; n<40; n++){
    1290:	98 0f       	add	r25, r24
    1292:	98 32       	cpi	r25, 0x28	; 40
    1294:	70 f3       	brcs	.-36     	; 0x1272 <main+0x56>
    1296:	85 e0       	ldi	r24, 0x05	; 5
        if ((n%8)>5) n+=2;
        if (n<40) iLED[n] = 2;
    }

    //Test audio play, play a waveform.
    uint8_t beep[5]={0x60, 0x80, 0xA0, 0xFF, 0};
    1298:	e6 e4       	ldi	r30, 0x46	; 70
    129a:	f3 e9       	ldi	r31, 0x93	; 147
    129c:	de 01       	movw	r26, r28
    129e:	95 96       	adiw	r26, 0x25	; 37
    12a0:	01 90       	ld	r0, Z+
    12a2:	0d 92       	st	X+, r0
    12a4:	8a 95       	dec	r24
    12a6:	e1 f7       	brne	.-8      	; 0x12a0 <main+0x84>
    12a8:	ce 01       	movw	r24, r28
    auRepAddr = &beep[0];
    12aa:	85 96       	adiw	r24, 0x25	; 37
    12ac:	80 93 00 38 	sts	0x3800, r24	; 0x803800 <__data_start>
    12b0:	90 93 01 38 	sts	0x3801, r25	; 0x803801 <__data_start+0x1>
    auVolume = 127;
    12b4:	8f e7       	ldi	r24, 0x7F	; 127
    12b6:	80 93 24 39 	sts	0x3924, r24	; 0x803924 <auVolume>

    while (1)
    {
        beep[3] = lfsr();
    12ba:	bc db       	rcall	.-2184   	; 0xa34 <lfsr>
    12bc:	88 a7       	std	Y+40, r24	; 0x28
    12be:	8e a1       	ldd	r24, Y+38	; 0x26
        beep[1] = lcg(beep[1])&0x01;
    12c0:	b3 db       	rcall	.-2202   	; 0xa28 <lcg>
    12c2:	81 70       	andi	r24, 0x01	; 1
    12c4:	8e a3       	std	Y+38, r24	; 0x26
    12c6:	80 91 08 38 	lds	r24, 0x3808	; 0x803808 <buttonMark>

        if (buttonMark){
    12ca:	88 23       	and	r24, r24
    12cc:	b1 f3       	breq	.-20     	; 0x12ba <main+0x9e>
    12ce:	10 92 08 38 	sts	0x3808, r1	; 0x803808 <buttonMark>
            /*
                Check if button value has changed here
            */
            buttonMark = 0;
    12d2:	8f df       	rcall	.-226    	; 0x11f2 <TextAdventure>
            
            TextAdventure();
    12d4:	80 91 2b 39 	lds	r24, 0x392B	; 0x80392b <adcPhot>
            //MasterMind-ishThing(); //Not sure if to be implemented
            //LanyardCode();
            //MakeFriends();
             
            //Check light sensor status (added hysteresis to preserve writing cycles to internal EEPROM)
            if (adcPhot < 10) WriteStatusBit(116, 1);
    12d8:	90 91 2c 39 	lds	r25, 0x392C	; 0x80392c <adcPhot+0x1>
    12dc:	0a 97       	sbiw	r24, 0x0a	; 10
    12de:	18 f4       	brcc	.+6      	; 0x12e6 <main+0xca>
    12e0:	61 e0       	ldi	r22, 0x01	; 1
    12e2:	84 e7       	ldi	r24, 0x74	; 116
    12e4:	13 dc       	rcall	.-2010   	; 0xb0c <WriteStatusBit>
    12e6:	80 91 2b 39 	lds	r24, 0x392B	; 0x80392b <adcPhot>
            if (adcPhot > 100) WriteStatusBit(116, 0);
    12ea:	90 91 2c 39 	lds	r25, 0x392C	; 0x80392c <adcPhot+0x1>
    12ee:	85 36       	cpi	r24, 0x65	; 101
    12f0:	91 05       	cpc	r25, r1
    12f2:	18 f3       	brcs	.-58     	; 0x12ba <main+0x9e>
    12f4:	60 e0       	ldi	r22, 0x00	; 0
    12f6:	84 e7       	ldi	r24, 0x74	; 116
    12f8:	09 dc       	rcall	.-2030   	; 0xb0c <WriteStatusBit>
    12fa:	df cf       	rjmp	.-66     	; 0x12ba <main+0x9e>

000012fc <__udivmodhi4>:
    12fc:	aa 1b       	sub	r26, r26
    12fe:	bb 1b       	sub	r27, r27
    1300:	51 e1       	ldi	r21, 0x11	; 17
    1302:	07 c0       	rjmp	.+14     	; 0x1312 <__udivmodhi4_ep>

00001304 <__udivmodhi4_loop>:
    1304:	aa 1f       	adc	r26, r26
    1306:	bb 1f       	adc	r27, r27
    1308:	a6 17       	cp	r26, r22
    130a:	b7 07       	cpc	r27, r23
    130c:	10 f0       	brcs	.+4      	; 0x1312 <__udivmodhi4_ep>
    130e:	a6 1b       	sub	r26, r22
    1310:	b7 0b       	sbc	r27, r23

00001312 <__udivmodhi4_ep>:
    1312:	88 1f       	adc	r24, r24
    1314:	99 1f       	adc	r25, r25
    1316:	5a 95       	dec	r21
    1318:	a9 f7       	brne	.-22     	; 0x1304 <__udivmodhi4_loop>
    131a:	80 95       	com	r24
    131c:	90 95       	com	r25
    131e:	bc 01       	movw	r22, r24
    1320:	cd 01       	movw	r24, r26
    1322:	08 95       	ret

00001324 <__umulhisi3>:
    1324:	a2 9f       	mul	r26, r18
    1326:	b0 01       	movw	r22, r0
    1328:	b3 9f       	mul	r27, r19
    132a:	c0 01       	movw	r24, r0
    132c:	a3 9f       	mul	r26, r19
    132e:	70 0d       	add	r23, r0
    1330:	81 1d       	adc	r24, r1
    1332:	11 24       	eor	r1, r1
    1334:	91 1d       	adc	r25, r1
    1336:	b2 9f       	mul	r27, r18
    1338:	70 0d       	add	r23, r0
    133a:	81 1d       	adc	r24, r1
    133c:	11 24       	eor	r1, r1
    133e:	91 1d       	adc	r25, r1
    1340:	08 95       	ret

00001342 <_exit>:
    1342:	f8 94       	cli

00001344 <__stop_program>:
    1344:	ff cf       	rjmp	.-2      	; 0x1344 <__stop_program>
