
ISR_IO.elf:     file format elf32-avr

Sections:
Idx Name          Size      VMA       LMA       File off  Algn
  0 .data         0000002e  00803800  00003f3e  00003ff2  2**0
                  CONTENTS, ALLOC, LOAD, DATA
  1 .text         00003e3c  00000000  00000000  000000b4  2**1
                  CONTENTS, ALLOC, LOAD, READONLY, CODE
  2 .rodata       00000102  0000be3c  00003e3c  00003ef0  2**0
                  CONTENTS, ALLOC, LOAD, READONLY, DATA
  3 .bss          000002ee  0080382e  0080382e  00004020  2**0
                  ALLOC
  4 .comment      00000030  00000000  00000000  00004020  2**0
                  CONTENTS, READONLY
  5 .note.gnu.avr.deviceinfo 00000040  00000000  00000000  00004050  2**2
                  CONTENTS, READONLY
  6 .debug_aranges 00000330  00000000  00000000  00004090  2**0
                  CONTENTS, READONLY, DEBUGGING
  7 .debug_info   00006e98  00000000  00000000  000043c0  2**0
                  CONTENTS, READONLY, DEBUGGING
  8 .debug_abbrev 00002930  00000000  00000000  0000b258  2**0
                  CONTENTS, READONLY, DEBUGGING
  9 .debug_line   00003c9d  00000000  00000000  0000db88  2**0
                  CONTENTS, READONLY, DEBUGGING
 10 .debug_frame  00000998  00000000  00000000  00011828  2**2
                  CONTENTS, READONLY, DEBUGGING
 11 .debug_str    00001a62  00000000  00000000  000121c0  2**0
                  CONTENTS, READONLY, DEBUGGING
 12 .debug_loc    00004595  00000000  00000000  00013c22  2**0
                  CONTENTS, READONLY, DEBUGGING
 13 .debug_ranges 000003b8  00000000  00000000  000181b7  2**0
                  CONTENTS, READONLY, DEBUGGING

Disassembly of section .text:

00000000 <__vectors>:
       0:	3d c0       	rjmp	.+122    	; 0x7c <__ctors_end>
       2:	00 00       	nop
       4:	58 c0       	rjmp	.+176    	; 0xb6 <__bad_interrupt>
       6:	00 00       	nop
       8:	56 c0       	rjmp	.+172    	; 0xb6 <__bad_interrupt>
       a:	00 00       	nop
       c:	54 c0       	rjmp	.+168    	; 0xb6 <__bad_interrupt>
       e:	00 00       	nop
      10:	52 c0       	rjmp	.+164    	; 0xb6 <__bad_interrupt>
      12:	00 00       	nop
      14:	50 c0       	rjmp	.+160    	; 0xb6 <__bad_interrupt>
      16:	00 00       	nop
      18:	0c 94 54 08 	jmp	0x10a8	; 0x10a8 <__vector_6>
      1c:	0c 94 9e 08 	jmp	0x113c	; 0x113c <__vector_7>
      20:	76 c6       	rjmp	.+3308   	; 0xd0e <__vector_8>
      22:	00 00       	nop
      24:	48 c0       	rjmp	.+144    	; 0xb6 <__bad_interrupt>
      26:	00 00       	nop
      28:	46 c0       	rjmp	.+140    	; 0xb6 <__bad_interrupt>
      2a:	00 00       	nop
      2c:	44 c0       	rjmp	.+136    	; 0xb6 <__bad_interrupt>
      2e:	00 00       	nop
      30:	42 c0       	rjmp	.+132    	; 0xb6 <__bad_interrupt>
      32:	00 00       	nop
      34:	bd c6       	rjmp	.+3450   	; 0xdb0 <__vector_13>
      36:	00 00       	nop
      38:	ee c6       	rjmp	.+3548   	; 0xe16 <__vector_14>
      3a:	00 00       	nop
      3c:	3c c0       	rjmp	.+120    	; 0xb6 <__bad_interrupt>
      3e:	00 00       	nop
      40:	3a c0       	rjmp	.+116    	; 0xb6 <__bad_interrupt>
      42:	00 00       	nop
      44:	38 c0       	rjmp	.+112    	; 0xb6 <__bad_interrupt>
      46:	00 00       	nop
      48:	36 c0       	rjmp	.+108    	; 0xb6 <__bad_interrupt>
      4a:	00 00       	nop
      4c:	34 c0       	rjmp	.+104    	; 0xb6 <__bad_interrupt>
      4e:	00 00       	nop
      50:	ac c7       	rjmp	.+3928   	; 0xfaa <__vector_20>
      52:	00 00       	nop
      54:	30 c0       	rjmp	.+96     	; 0xb6 <__bad_interrupt>
      56:	00 00       	nop
      58:	df c7       	rjmp	.+4030   	; 0x1018 <__vector_22>
      5a:	00 00       	nop
      5c:	2c c0       	rjmp	.+88     	; 0xb6 <__bad_interrupt>
      5e:	00 00       	nop
      60:	2a c0       	rjmp	.+84     	; 0xb6 <__bad_interrupt>
      62:	00 00       	nop
      64:	28 c0       	rjmp	.+80     	; 0xb6 <__bad_interrupt>
      66:	00 00       	nop
      68:	26 c0       	rjmp	.+76     	; 0xb6 <__bad_interrupt>
      6a:	00 00       	nop
      6c:	27 c7       	rjmp	.+3662   	; 0xebc <__vector_27>
      6e:	00 00       	nop
      70:	80 c7       	rjmp	.+3840   	; 0xf72 <__vector_28>
      72:	00 00       	nop
      74:	20 c0       	rjmp	.+64     	; 0xb6 <__bad_interrupt>
      76:	00 00       	nop
      78:	1e c0       	rjmp	.+60     	; 0xb6 <__bad_interrupt>
	...

0000007c <__ctors_end>:
      7c:	11 24       	eor	r1, r1
      7e:	1f be       	out	0x3f, r1	; 63
      80:	cf ef       	ldi	r28, 0xFF	; 255
      82:	cd bf       	out	0x3d, r28	; 61
      84:	df e3       	ldi	r29, 0x3F	; 63
      86:	de bf       	out	0x3e, r29	; 62

00000088 <__do_copy_data>:
      88:	18 e3       	ldi	r17, 0x38	; 56
      8a:	a0 e0       	ldi	r26, 0x00	; 0
      8c:	b8 e3       	ldi	r27, 0x38	; 56
      8e:	ee e3       	ldi	r30, 0x3E	; 62
      90:	ff e3       	ldi	r31, 0x3F	; 63
      92:	02 c0       	rjmp	.+4      	; 0x98 <__do_copy_data+0x10>
      94:	05 90       	lpm	r0, Z+
      96:	0d 92       	st	X+, r0
      98:	ae 32       	cpi	r26, 0x2E	; 46
      9a:	b1 07       	cpc	r27, r17
      9c:	d9 f7       	brne	.-10     	; 0x94 <__do_copy_data+0xc>

0000009e <__do_clear_bss>:
      9e:	2b e3       	ldi	r18, 0x3B	; 59
      a0:	ae e2       	ldi	r26, 0x2E	; 46
      a2:	b8 e3       	ldi	r27, 0x38	; 56
      a4:	01 c0       	rjmp	.+2      	; 0xa8 <.do_clear_bss_start>

000000a6 <.do_clear_bss_loop>:
      a6:	1d 92       	st	X+, r1

000000a8 <.do_clear_bss_start>:
      a8:	ac 31       	cpi	r26, 0x1C	; 28
      aa:	b2 07       	cpc	r27, r18
      ac:	e1 f7       	brne	.-8      	; 0xa6 <.do_clear_bss_loop>
      ae:	0e 94 43 1e 	call	0x3c86	; 0x3c86 <main>
      b2:	0c 94 1c 1f 	jmp	0x3e38	; 0x3e38 <_exit>

000000b6 <__bad_interrupt>:
      b6:	a4 cf       	rjmp	.-184    	; 0x0 <__vectors>

000000b8 <chkVolt250>:
#include <main_def.h>
#include <resources.h>
#include <I2C.h>

//Returns measured voltage * 4 (2V returns 8) if it is in the expected range (DELTA)
uint8_t chkVolt250(){
      b8:	20 91 32 38 	lds	r18, 0x3832	; 0x803832 <avgVolt.3776>
      bc:	85 e1       	ldi	r24, 0x15	; 21
      be:	90 e0       	ldi	r25, 0x00	; 0
    static uint8_t avgVolt = 0;
        
    for (uint8_t x=25; x<226; x+=25) {
        if ((auIn[0] > (x-DELTA)) && (auIn[0] < (x+DELTA))) {
      c0:	40 91 c4 3a 	lds	r20, 0x3AC4	; 0x803ac4 <auIn>
      c4:	50 e0       	ldi	r21, 0x00	; 0
      c6:	48 17       	cp	r20, r24
      c8:	59 07       	cpc	r21, r25
      ca:	74 f0       	brlt	.+28     	; 0xe8 <chkVolt250+0x30>
      cc:	40 91 c4 3a 	lds	r20, 0x3AC4	; 0x803ac4 <auIn>
      d0:	50 e0       	ldi	r21, 0x00	; 0
      d2:	bc 01       	movw	r22, r24
      d4:	68 5f       	subi	r22, 0xF8	; 248
      d6:	7f 4f       	sbci	r23, 0xFF	; 255
      d8:	64 17       	cp	r22, r20
      da:	75 07       	cpc	r23, r21
      dc:	2c f0       	brlt	.+10     	; 0xe8 <chkVolt250+0x30>
      de:	20 93 32 38 	sts	0x3832, r18	; 0x803832 <avgVolt.3776>
            break;
        }
        ++avgVolt;
    }
    return avgVolt;
      e2:	80 91 32 38 	lds	r24, 0x3832	; 0x803832 <avgVolt.3776>
      e6:	08 95       	ret
        
    for (uint8_t x=25; x<226; x+=25) {
        if ((auIn[0] > (x-DELTA)) && (auIn[0] < (x+DELTA))) {
            break;
        }
        ++avgVolt;
      e8:	2f 5f       	subi	r18, 0xFF	; 255
      ea:	49 96       	adiw	r24, 0x19	; 25

//Returns measured voltage * 4 (2V returns 8) if it is in the expected range (DELTA)
uint8_t chkVolt250(){
    static uint8_t avgVolt = 0;
        
    for (uint8_t x=25; x<226; x+=25) {
      ec:	86 3f       	cpi	r24, 0xF6	; 246
      ee:	91 05       	cpc	r25, r1
      f0:	39 f7       	brne	.-50     	; 0xc0 <chkVolt250+0x8>
      f2:	f5 cf       	rjmp	.-22     	; 0xde <chkVolt250+0x26>

000000f4 <MakeFriends>:
    }
    return avgVolt;
}

// Main game loop
uint8_t MakeFriends(){
      f4:	ef 92       	push	r14
      f6:	ff 92       	push	r15
      f8:	0f 93       	push	r16
      fa:	1f 93       	push	r17
      fc:	cf 93       	push	r28
      fe:	df 93       	push	r29
     100:	c4 e6       	ldi	r28, 0x64	; 100
    static uint8_t chkTmr = 0;
    static uint8_t jackIn = 0;
    static uint8_t candidate = 0;

    //Check if badge has found 3 friends
    uint8_t foundAll = 1;
     102:	d1 e0       	ldi	r29, 0x01	; 1
    for (uint8_t x=0; x<4; x++){
        if (CheckState(100+x) == 0) foundAll = 0;
     104:	8c 2f       	mov	r24, r28
     106:	0e 94 b1 0a 	call	0x1562	; 0x1562 <CheckState>
     10a:	81 11       	cpse	r24, r1
     10c:	01 c0       	rjmp	.+2      	; 0x110 <MakeFriends+0x1c>
     10e:	d0 e0       	ldi	r29, 0x00	; 0
     110:	cf 5f       	subi	r28, 0xFF	; 255
    static uint8_t jackIn = 0;
    static uint8_t candidate = 0;

    //Check if badge has found 3 friends
    uint8_t foundAll = 1;
    for (uint8_t x=0; x<4; x++){
     112:	c8 36       	cpi	r28, 0x68	; 104
     114:	b9 f7       	brne	.-18     	; 0x104 <MakeFriends+0x10>
        if (CheckState(100+x) == 0) foundAll = 0;
    }
    if (foundAll) UpdateState(124);
     116:	dd 23       	and	r29, r29
     118:	19 f0       	breq	.+6      	; 0x120 <MakeFriends+0x2c>
     11a:	8c e7       	ldi	r24, 0x7C	; 124
     11c:	0e 94 a7 0a 	call	0x154e	; 0x154e <UpdateState>


    //Checking for headphones
    if (detHdPh) return 0;
     120:	80 91 c1 3a 	lds	r24, 0x3AC1	; 0x803ac1 <detHdPh>
     124:	81 11       	cpse	r24, r1
     126:	1e c1       	rjmp	.+572    	; 0x364 <MakeFriends+0x270>

    //Audio off, set voltage level (setDAC[0]*10mV)
    if (progress == NO_OTHER) {
     128:	80 91 31 38 	lds	r24, 0x3831	; 0x803831 <progress.3783>
     12c:	81 11       	cpse	r24, r1
     12e:	11 c0       	rjmp	.+34     	; 0x152 <MakeFriends+0x5e>
        setDAC[0] = whoami * 50;
     130:	90 91 3d 38 	lds	r25, 0x383D	; 0x80383d <whoami>
     134:	22 e3       	ldi	r18, 0x32	; 50
     136:	92 9f       	mul	r25, r18
     138:	90 2d       	mov	r25, r0
     13a:	11 24       	eor	r1, r1
     13c:	90 93 00 38 	sts	0x3800, r25	; 0x803800 <__data_start>
        auRepAddr = &setDAC[0];
     140:	20 e0       	ldi	r18, 0x00	; 0
     142:	38 e3       	ldi	r19, 0x38	; 56
     144:	20 93 05 38 	sts	0x3805, r18	; 0x803805 <auRepAddr>
     148:	30 93 06 38 	sts	0x3806, r19	; 0x803806 <auRepAddr+0x1>
        auVolume = 255;
     14c:	9f ef       	ldi	r25, 0xFF	; 255
     14e:	90 93 b8 3a 	sts	0x3AB8, r25	; 0x803ab8 <auVolume>
    }

    //Check for other badges
    if ((auIn[0] < (setDAC[0] - DELTA)) || (auIn[0] > (setDAC[0] + DELTA)) ||((progress > FIRST_CONTACT))) {
     152:	40 91 c4 3a 	lds	r20, 0x3AC4	; 0x803ac4 <auIn>
     156:	20 91 00 38 	lds	r18, 0x3800	; 0x803800 <__data_start>
     15a:	30 e0       	ldi	r19, 0x00	; 0
     15c:	50 e0       	ldi	r21, 0x00	; 0
     15e:	b9 01       	movw	r22, r18
     160:	65 50       	subi	r22, 0x05	; 5
     162:	71 09       	sbc	r23, r1
     164:	46 17       	cp	r20, r22
     166:	57 07       	cpc	r21, r23
     168:	64 f0       	brlt	.+24     	; 0x182 <MakeFriends+0x8e>
     16a:	40 91 c4 3a 	lds	r20, 0x3AC4	; 0x803ac4 <auIn>
     16e:	50 e0       	ldi	r21, 0x00	; 0
     170:	2b 5f       	subi	r18, 0xFB	; 251
     172:	3f 4f       	sbci	r19, 0xFF	; 255
     174:	24 17       	cp	r18, r20
     176:	35 07       	cpc	r19, r21
     178:	24 f0       	brlt	.+8      	; 0x182 <MakeFriends+0x8e>
     17a:	82 30       	cpi	r24, 0x02	; 2
     17c:	08 f0       	brcs	.+2      	; 0x180 <MakeFriends+0x8c>
     17e:	40 c0       	rjmp	.+128    	; 0x200 <MakeFriends+0x10c>
     180:	ef c0       	rjmp	.+478    	; 0x360 <MakeFriends+0x26c>
        if (progress == NO_OTHER) {
     182:	81 11       	cpse	r24, r1
     184:	0a c0       	rjmp	.+20     	; 0x19a <MakeFriends+0xa6>
            ++chkTmr;
     186:	80 91 30 38 	lds	r24, 0x3830	; 0x803830 <chkTmr.3785>
     18a:	8f 5f       	subi	r24, 0xFF	; 255
     18c:	80 93 30 38 	sts	0x3830, r24	; 0x803830 <chkTmr.3785>
            if (chkTmr >= 8) {
     190:	88 30       	cpi	r24, 0x08	; 8
     192:	08 f4       	brcc	.+2      	; 0x196 <MakeFriends+0xa2>
     194:	e7 c0       	rjmp	.+462    	; 0x364 <MakeFriends+0x270>
                progress = FIRST_CONTACT;
     196:	81 e0       	ldi	r24, 0x01	; 1
     198:	81 c0       	rjmp	.+258    	; 0x29c <MakeFriends+0x1a8>
                chkTmr = 0;
            }
        }

        //Candidate found, check ranges
        else if (progress == FIRST_CONTACT) {
     19a:	81 30       	cpi	r24, 0x01	; 1
     19c:	89 f5       	brne	.+98     	; 0x200 <MakeFriends+0x10c>
            jackIn = chkVolt250();
     19e:	8c df       	rcall	.-232    	; 0xb8 <chkVolt250>
     1a0:	80 93 2f 38 	sts	0x382F, r24	; 0x80382f <jackIn.3786>
            if (jackIn) {
     1a4:	88 23       	and	r24, r24
     1a6:	49 f1       	breq	.+82     	; 0x1fa <MakeFriends+0x106>
                ++chkTmr;
     1a8:	90 91 30 38 	lds	r25, 0x3830	; 0x803830 <chkTmr.3785>
     1ac:	9f 5f       	subi	r25, 0xFF	; 255
     1ae:	90 93 30 38 	sts	0x3830, r25	; 0x803830 <chkTmr.3785>
                if (chkTmr >= SHORT_WAIT){
     1b2:	98 30       	cpi	r25, 0x08	; 8
     1b4:	08 f4       	brcc	.+2      	; 0x1b8 <MakeFriends+0xc4>
     1b6:	d6 c0       	rjmp	.+428    	; 0x364 <MakeFriends+0x270>
                    if ((whoami == 1)&&((jackIn == 3)||(jackIn == 4)||(jackIn == 5))) {
     1b8:	90 91 3d 38 	lds	r25, 0x383D	; 0x80383d <whoami>
     1bc:	91 30       	cpi	r25, 0x01	; 1
     1be:	29 f4       	brne	.+10     	; 0x1ca <MakeFriends+0xd6>
     1c0:	83 50       	subi	r24, 0x03	; 3
     1c2:	83 30       	cpi	r24, 0x03	; 3
     1c4:	b8 f4       	brcc	.+46     	; 0x1f4 <MakeFriends+0x100>
                        progress = SECOND_LOVE; 
     1c6:	82 e0       	ldi	r24, 0x02	; 2
     1c8:	69 c0       	rjmp	.+210    	; 0x29c <MakeFriends+0x1a8>
                    } else if ((whoami == 2)&&((jackIn == 3)||(jackIn == 5)||(jackIn == 6))) {
     1ca:	92 30       	cpi	r25, 0x02	; 2
     1cc:	31 f4       	brne	.+12     	; 0x1da <MakeFriends+0xe6>
     1ce:	83 30       	cpi	r24, 0x03	; 3
     1d0:	d1 f3       	breq	.-12     	; 0x1c6 <MakeFriends+0xd2>
     1d2:	85 50       	subi	r24, 0x05	; 5
     1d4:	82 30       	cpi	r24, 0x02	; 2
     1d6:	70 f4       	brcc	.+28     	; 0x1f4 <MakeFriends+0x100>
     1d8:	f6 cf       	rjmp	.-20     	; 0x1c6 <MakeFriends+0xd2>
                        progress = SECOND_LOVE;
                    } else  if ((whoami == 3)&&((jackIn == 4)||(jackIn == 5)||(jackIn == 7))) {
     1da:	93 30       	cpi	r25, 0x03	; 3
     1dc:	39 f4       	brne	.+14     	; 0x1ec <MakeFriends+0xf8>
     1de:	9c ef       	ldi	r25, 0xFC	; 252
     1e0:	98 0f       	add	r25, r24
     1e2:	92 30       	cpi	r25, 0x02	; 2
     1e4:	80 f3       	brcs	.-32     	; 0x1c6 <MakeFriends+0xd2>
     1e6:	87 30       	cpi	r24, 0x07	; 7
     1e8:	29 f4       	brne	.+10     	; 0x1f4 <MakeFriends+0x100>
     1ea:	ed cf       	rjmp	.-38     	; 0x1c6 <MakeFriends+0xd2>
                        progress = SECOND_LOVE;
                    } else if ((whoami == 4)&&((jackIn == 5)||(jackIn == 6)||(jackIn == 7))) {
     1ec:	94 30       	cpi	r25, 0x04	; 4
     1ee:	11 f4       	brne	.+4      	; 0x1f4 <MakeFriends+0x100>
     1f0:	85 50       	subi	r24, 0x05	; 5
     1f2:	e7 cf       	rjmp	.-50     	; 0x1c2 <MakeFriends+0xce>
                        progress = SECOND_LOVE;
                    } else progress = NO_OTHER;
     1f4:	10 92 31 38 	sts	0x3831, r1	; 0x803831 <progress.3783>
     1f8:	53 c0       	rjmp	.+166    	; 0x2a0 <MakeFriends+0x1ac>
                    chkTmr = 0;
                }
            } else {
                chkTmr = 0;
     1fa:	10 92 30 38 	sts	0x3830, r1	; 0x803830 <chkTmr.3785>
     1fe:	b0 c0       	rjmp	.+352    	; 0x360 <MakeFriends+0x26c>
                progress = NO_OTHER;
            }
        }

        //Wait for the other badge (and a bit longer)
        else if (progress == SECOND_LOVE){
     200:	82 30       	cpi	r24, 0x02	; 2
     202:	09 f0       	breq	.+2      	; 0x206 <MakeFriends+0x112>
     204:	50 c0       	rjmp	.+160    	; 0x2a6 <MakeFriends+0x1b2>
            ++chkTmr;
     206:	80 91 30 38 	lds	r24, 0x3830	; 0x803830 <chkTmr.3785>
     20a:	8f 5f       	subi	r24, 0xFF	; 255
     20c:	80 93 30 38 	sts	0x3830, r24	; 0x803830 <chkTmr.3785>
     210:	c8 e6       	ldi	r28, 0x68	; 104
     212:	de eb       	ldi	r29, 0xBE	; 190
     214:	7e 01       	movw	r14, r28
            for (uint8_t x=0; x<5; ++x){
                iLED[WING[L][x]] = (lfsr() > 127)?dimValue:0;
     216:	0d 81       	ldd	r16, Y+5	; 0x05
     218:	10 e0       	ldi	r17, 0x00	; 0
     21a:	0e 94 83 09 	call	0x1306	; 0x1306 <lfsr>
     21e:	87 ff       	sbrs	r24, 7
     220:	03 c0       	rjmp	.+6      	; 0x228 <MakeFriends+0x134>
     222:	80 91 0b 38 	lds	r24, 0x380B	; 0x80380b <dimValue>
     226:	01 c0       	rjmp	.+2      	; 0x22a <MakeFriends+0x136>
     228:	80 e0       	ldi	r24, 0x00	; 0
     22a:	f8 01       	movw	r30, r16
     22c:	e4 53       	subi	r30, 0x34	; 52
     22e:	f5 4c       	sbci	r31, 0xC5	; 197
     230:	80 83       	st	Z, r24
     232:	21 96       	adiw	r28, 0x01	; 1
                iLED[WING[R][x]] = (lfsr() > 127)?dimValue:0;
     234:	f7 01       	movw	r30, r14
     236:	00 81       	ld	r16, Z
     238:	10 e0       	ldi	r17, 0x00	; 0
     23a:	0e 94 83 09 	call	0x1306	; 0x1306 <lfsr>
     23e:	87 ff       	sbrs	r24, 7
     240:	03 c0       	rjmp	.+6      	; 0x248 <MakeFriends+0x154>
     242:	80 91 0b 38 	lds	r24, 0x380B	; 0x80380b <dimValue>
     246:	01 c0       	rjmp	.+2      	; 0x24a <MakeFriends+0x156>
     248:	80 e0       	ldi	r24, 0x00	; 0
     24a:	f8 01       	movw	r30, r16
     24c:	e4 53       	subi	r30, 0x34	; 52
     24e:	f5 4c       	sbci	r31, 0xC5	; 197
     250:	80 83       	st	Z, r24
        }

        //Wait for the other badge (and a bit longer)
        else if (progress == SECOND_LOVE){
            ++chkTmr;
            for (uint8_t x=0; x<5; ++x){
     252:	fe eb       	ldi	r31, 0xBE	; 190
     254:	cd 36       	cpi	r28, 0x6D	; 109
     256:	df 07       	cpc	r29, r31
     258:	e9 f6       	brne	.-70     	; 0x214 <MakeFriends+0x120>
                iLED[WING[L][x]] = (lfsr() > 127)?dimValue:0;
                iLED[WING[R][x]] = (lfsr() > 127)?dimValue:0;
            }
            if (chkTmr >= SHORT_WAIT) {
     25a:	80 91 30 38 	lds	r24, 0x3830	; 0x803830 <chkTmr.3785>
     25e:	88 30       	cpi	r24, 0x08	; 8
     260:	40 f0       	brcs	.+16     	; 0x272 <MakeFriends+0x17e>
                setDAC[0] = floatAround(0x80, 8, 100, 255); 
     262:	2f ef       	ldi	r18, 0xFF	; 255
     264:	44 e6       	ldi	r20, 0x64	; 100
     266:	68 e0       	ldi	r22, 0x08	; 8
     268:	80 e8       	ldi	r24, 0x80	; 128
     26a:	0e 94 d4 09 	call	0x13a8	; 0x13a8 <floatAround>
     26e:	80 93 00 38 	sts	0x3800, r24	; 0x803800 <__data_start>
            }
            //The badge with the lowest voltage will now go to 2.5V (impedance check, for people tricking the things with a power supply)
            if (chkTmr >= LONG_WAIT){
     272:	80 91 30 38 	lds	r24, 0x3830	; 0x803830 <chkTmr.3785>
     276:	8a 3f       	cpi	r24, 0xFA	; 250
     278:	08 f4       	brcc	.+2      	; 0x27c <MakeFriends+0x188>
     27a:	74 c0       	rjmp	.+232    	; 0x364 <MakeFriends+0x270>
                candidate = jackIn-whoami;
     27c:	90 91 3d 38 	lds	r25, 0x383D	; 0x80383d <whoami>
     280:	80 91 2f 38 	lds	r24, 0x382F	; 0x80382f <jackIn.3786>
     284:	89 1b       	sub	r24, r25
     286:	80 93 2e 38 	sts	0x382E, r24	; 0x80382e <__data_end>
                if (candidate > whoami) setDAC[0] = 250; else setDAC[0] = 0;
     28a:	98 17       	cp	r25, r24
     28c:	20 f4       	brcc	.+8      	; 0x296 <MakeFriends+0x1a2>
     28e:	8a ef       	ldi	r24, 0xFA	; 250
     290:	80 93 00 38 	sts	0x3800, r24	; 0x803800 <__data_start>
     294:	02 c0       	rjmp	.+4      	; 0x29a <MakeFriends+0x1a6>
     296:	10 92 00 38 	sts	0x3800, r1	; 0x803800 <__data_start>
                progress = THIRD_KISS;
     29a:	83 e0       	ldi	r24, 0x03	; 3
     29c:	80 93 31 38 	sts	0x3831, r24	; 0x803831 <progress.3783>
                chkTmr = 0;
     2a0:	10 92 30 38 	sts	0x3830, r1	; 0x803830 <chkTmr.3785>
     2a4:	5f c0       	rjmp	.+190    	; 0x364 <MakeFriends+0x270>
            }
        } 
        
        //Wait a bit, check Voltage again, if ok show who you connected with and your own number, save, exit
        else if (progress == THIRD_KISS) {
     2a6:	83 30       	cpi	r24, 0x03	; 3
     2a8:	e1 f5       	brne	.+120    	; 0x322 <MakeFriends+0x22e>
            chkTmr++;
     2aa:	80 91 30 38 	lds	r24, 0x3830	; 0x803830 <chkTmr.3785>
     2ae:	8f 5f       	subi	r24, 0xFF	; 255
     2b0:	80 93 30 38 	sts	0x3830, r24	; 0x803830 <chkTmr.3785>
            if (chkTmr >= SHORT_WAIT) {
     2b4:	88 30       	cpi	r24, 0x08	; 8
     2b6:	08 f4       	brcc	.+2      	; 0x2ba <MakeFriends+0x1c6>
                if (chkVolt250() == 5) {
     2b8:	55 c0       	rjmp	.+170    	; 0x364 <MakeFriends+0x270>
     2ba:	fe de       	rcall	.-516    	; 0xb8 <chkVolt250>
     2bc:	85 30       	cpi	r24, 0x05	; 5
     2be:	09 f0       	breq	.+2      	; 0x2c2 <MakeFriends+0x1ce>
     2c0:	99 cf       	rjmp	.-206    	; 0x1f4 <MakeFriends+0x100>
                    UpdateState(99+candidate);
     2c2:	80 91 2e 38 	lds	r24, 0x382E	; 0x80382e <__data_end>
     2c6:	8d 59       	subi	r24, 0x9D	; 157
     2c8:	0e 94 a7 0a 	call	0x154e	; 0x154e <UpdateState>
                    UpdateState(99+whoami);
     2cc:	80 91 3d 38 	lds	r24, 0x383D	; 0x80383d <whoami>
     2d0:	8d 59       	subi	r24, 0x9D	; 157
     2d2:	0e 94 a7 0a 	call	0x154e	; 0x154e <UpdateState>
                    for (uint8_t x=0; x<5; ++x){
                        iLED[WING[L][x]] = (x<candidate)?dimValue:0;
     2d6:	20 91 2e 38 	lds	r18, 0x382E	; 0x80382e <__data_end>
                        iLED[WING[R][x]] = (x<whoami)?dimValue:00;
     2da:	30 91 3d 38 	lds	r19, 0x383D	; 0x80383d <whoami>
     2de:	a8 e6       	ldi	r26, 0x68	; 104
     2e0:	be eb       	ldi	r27, 0xBE	; 190
            chkTmr++;
            if (chkTmr >= SHORT_WAIT) {
                if (chkVolt250() == 5) {
                    UpdateState(99+candidate);
                    UpdateState(99+whoami);
                    for (uint8_t x=0; x<5; ++x){
     2e2:	80 e0       	ldi	r24, 0x00	; 0
     2e4:	ed 01       	movw	r28, r26
                        iLED[WING[L][x]] = (x<candidate)?dimValue:0;
     2e6:	15 96       	adiw	r26, 0x05	; 5
     2e8:	ec 91       	ld	r30, X
     2ea:	15 97       	sbiw	r26, 0x05	; 5
     2ec:	f0 e0       	ldi	r31, 0x00	; 0
     2ee:	82 17       	cp	r24, r18
     2f0:	18 f4       	brcc	.+6      	; 0x2f8 <MakeFriends+0x204>
     2f2:	90 91 0b 38 	lds	r25, 0x380B	; 0x80380b <dimValue>
     2f6:	01 c0       	rjmp	.+2      	; 0x2fa <MakeFriends+0x206>
     2f8:	90 e0       	ldi	r25, 0x00	; 0
     2fa:	e4 53       	subi	r30, 0x34	; 52
     2fc:	f5 4c       	sbci	r31, 0xC5	; 197
     2fe:	90 83       	st	Z, r25
     300:	11 96       	adiw	r26, 0x01	; 1
                        iLED[WING[R][x]] = (x<whoami)?dimValue:00;
     302:	e8 81       	ld	r30, Y
     304:	f0 e0       	ldi	r31, 0x00	; 0
     306:	83 17       	cp	r24, r19
     308:	18 f4       	brcc	.+6      	; 0x310 <MakeFriends+0x21c>
     30a:	90 91 0b 38 	lds	r25, 0x380B	; 0x80380b <dimValue>
     30e:	01 c0       	rjmp	.+2      	; 0x312 <MakeFriends+0x21e>
     310:	90 e0       	ldi	r25, 0x00	; 0
     312:	e4 53       	subi	r30, 0x34	; 52
     314:	f5 4c       	sbci	r31, 0xC5	; 197
     316:	90 83       	st	Z, r25
            chkTmr++;
            if (chkTmr >= SHORT_WAIT) {
                if (chkVolt250() == 5) {
                    UpdateState(99+candidate);
                    UpdateState(99+whoami);
                    for (uint8_t x=0; x<5; ++x){
     318:	8f 5f       	subi	r24, 0xFF	; 255
     31a:	85 30       	cpi	r24, 0x05	; 5
     31c:	19 f7       	brne	.-58     	; 0x2e4 <MakeFriends+0x1f0>
                        iLED[WING[L][x]] = (x<candidate)?dimValue:0;
                        iLED[WING[R][x]] = (x<whoami)?dimValue:00;
                    }   
                    progress = FOURTH_BASE;
     31e:	84 e0       	ldi	r24, 0x04	; 4
     320:	bd cf       	rjmp	.-134    	; 0x29c <MakeFriends+0x1a8>
                } else progress = NO_OTHER;                
                chkTmr = 0;
            }

        //Wait for divorce of force quit
        } else if (progress == FOURTH_BASE) {
     322:	84 30       	cpi	r24, 0x04	; 4
            if (chkVolt250() == 5) {
     324:	f9 f4       	brne	.+62     	; 0x364 <MakeFriends+0x270>
     326:	c8 de       	rcall	.-624    	; 0xb8 <chkVolt250>
     328:	85 30       	cpi	r24, 0x05	; 5
     32a:	e1 f4       	brne	.+56     	; 0x364 <MakeFriends+0x270>
                chkTmr++;
     32c:	80 91 30 38 	lds	r24, 0x3830	; 0x803830 <chkTmr.3785>
     330:	8f 5f       	subi	r24, 0xFF	; 255
     332:	80 93 30 38 	sts	0x3830, r24	; 0x803830 <chkTmr.3785>
                if (chkTmr >= LONG_WAIT) {
     336:	8a 3f       	cpi	r24, 0xFA	; 250
     338:	a8 f0       	brcs	.+42     	; 0x364 <MakeFriends+0x270>
     33a:	e8 e6       	ldi	r30, 0x68	; 104
     33c:	fe eb       	ldi	r31, 0xBE	; 190
     33e:	8d e6       	ldi	r24, 0x6D	; 109
     340:	9e eb       	ldi	r25, 0xBE	; 190
     342:	ef 01       	movw	r28, r30
                    for (uint8_t x=0; x<5; ++x){
                        iLED[WING[L][x]] = 0;
     344:	a5 81       	ldd	r26, Z+5	; 0x05
     346:	b0 e0       	ldi	r27, 0x00	; 0
     348:	a4 53       	subi	r26, 0x34	; 52
     34a:	b5 4c       	sbci	r27, 0xC5	; 197
     34c:	1c 92       	st	X, r1
     34e:	31 96       	adiw	r30, 0x01	; 1
                        iLED[WING[R][x]] = 0;
     350:	a8 81       	ld	r26, Y
     352:	b0 e0       	ldi	r27, 0x00	; 0
     354:	a4 53       	subi	r26, 0x34	; 52
     356:	b5 4c       	sbci	r27, 0xC5	; 197
     358:	1c 92       	st	X, r1
        //Wait for divorce of force quit
        } else if (progress == FOURTH_BASE) {
            if (chkVolt250() == 5) {
                chkTmr++;
                if (chkTmr >= LONG_WAIT) {
                    for (uint8_t x=0; x<5; ++x){
     35a:	8e 17       	cp	r24, r30
     35c:	9f 07       	cpc	r25, r31
     35e:	89 f7       	brne	.-30     	; 0x342 <MakeFriends+0x24e>
                    }                    
                }
            }
        }

    } else progress = NO_OTHER;
     360:	10 92 31 38 	sts	0x3831, r1	; 0x803831 <progress.3783>
      
    return 0;
}
     364:	80 e0       	ldi	r24, 0x00	; 0
     366:	df 91       	pop	r29
     368:	cf 91       	pop	r28
     36a:	1f 91       	pop	r17
     36c:	0f 91       	pop	r16
     36e:	ff 90       	pop	r15
     370:	ef 90       	pop	r14
     372:	08 95       	ret

00000374 <I2C_init>:
// the Atmel device documentation mentions a special command for repeated start TWI_MCMD_REPSTART_gc,
// but this is not used in Atmel's demo code, so we don't use it either

void I2C_rep_start(uint8_t shifted_addr)						    // send repeated start, device_addr + LSB set if READ
{
	TWI0.MADDR = shifted_addr;	
     374:	81 e0       	ldi	r24, 0x01	; 1
     376:	80 93 22 04 	sts	0x0422, r24	; 0x800422 <__TEXT_REGION_LENGTH__+0x700422>
     37a:	e6 e2       	ldi	r30, 0x26	; 38
     37c:	f4 e0       	ldi	r31, 0x04	; 4
     37e:	80 83       	st	Z, r24
     380:	10 92 30 04 	sts	0x0430, r1	; 0x800430 <__TEXT_REGION_LENGTH__+0x700430>
     384:	a1 e2       	ldi	r26, 0x21	; 33
     386:	b4 e0       	ldi	r27, 0x04	; 4
     388:	92 e0       	ldi	r25, 0x02	; 2
     38a:	9c 93       	st	X, r25
     38c:	90 83       	st	Z, r25
     38e:	10 92 31 04 	sts	0x0431, r1	; 0x800431 <__TEXT_REGION_LENGTH__+0x700431>
     392:	e0 e1       	ldi	r30, 0x10	; 16
     394:	f8 e0       	ldi	r31, 0x08	; 8
     396:	97 e0       	ldi	r25, 0x07	; 7
     398:	96 83       	std	Z+6, r25	; 0x06
     39a:	98 e0       	ldi	r25, 0x08	; 8
     39c:	94 83       	std	Z+4, r25	; 0x04
     39e:	83 83       	std	Z+3, r24	; 0x03
     3a0:	8c 93       	st	X, r24
     3a2:	85 81       	ldd	r24, Z+5	; 0x05
     3a4:	81 60       	ori	r24, 0x01	; 1
     3a6:	85 83       	std	Z+5, r24	; 0x05
     3a8:	85 81       	ldd	r24, Z+5	; 0x05
     3aa:	84 6c       	ori	r24, 0xC4	; 196
     3ac:	85 83       	std	Z+5, r24	; 0x05
     3ae:	08 95       	ret

000003b0 <I2C_recover>:
     3b0:	80 91 14 08 	lds	r24, 0x0814	; 0x800814 <__TEXT_REGION_LENGTH__+0x700814>
     3b4:	88 60       	ori	r24, 0x08	; 8
     3b6:	80 93 14 08 	sts	0x0814, r24	; 0x800814 <__TEXT_REGION_LENGTH__+0x700814>
     3ba:	10 92 13 08 	sts	0x0813, r1	; 0x800813 <__TEXT_REGION_LENGTH__+0x700813>
     3be:	82 e0       	ldi	r24, 0x02	; 2
     3c0:	80 93 22 04 	sts	0x0422, r24	; 0x800422 <__TEXT_REGION_LENGTH__+0x700422>
     3c4:	99 e0       	ldi	r25, 0x09	; 9
     3c6:	21 e0       	ldi	r18, 0x01	; 1
     3c8:	81 e0       	ldi	r24, 0x01	; 1
     3ca:	20 93 21 04 	sts	0x0421, r18	; 0x800421 <__TEXT_REGION_LENGTH__+0x700421>
     3ce:	30 e1       	ldi	r19, 0x10	; 16
     3d0:	3a 95       	dec	r19
     3d2:	f1 f7       	brne	.-4      	; 0x3d0 <I2C_recover+0x20>
     3d4:	00 c0       	rjmp	.+0      	; 0x3d6 <I2C_recover+0x26>
     3d6:	20 93 22 04 	sts	0x0422, r18	; 0x800422 <__TEXT_REGION_LENGTH__+0x700422>
     3da:	30 e1       	ldi	r19, 0x10	; 16
     3dc:	3a 95       	dec	r19
     3de:	f1 f7       	brne	.-4      	; 0x3dc <I2C_recover+0x2c>
     3e0:	00 c0       	rjmp	.+0      	; 0x3e2 <I2C_recover+0x32>
     3e2:	91 50       	subi	r25, 0x01	; 1
     3e4:	89 f7       	brne	.-30     	; 0x3c8 <I2C_recover+0x18>
     3e6:	28 e0       	ldi	r18, 0x08	; 8
     3e8:	20 93 14 08 	sts	0x0814, r18	; 0x800814 <__TEXT_REGION_LENGTH__+0x700814>
     3ec:	80 93 13 08 	sts	0x0813, r24	; 0x800813 <__TEXT_REGION_LENGTH__+0x700813>
     3f0:	92 e0       	ldi	r25, 0x02	; 2
     3f2:	90 93 21 04 	sts	0x0421, r25	; 0x800421 <__TEXT_REGION_LENGTH__+0x700421>
     3f6:	90 91 15 08 	lds	r25, 0x0815	; 0x800815 <__TEXT_REGION_LENGTH__+0x700815>
     3fa:	91 60       	ori	r25, 0x01	; 1
     3fc:	90 93 15 08 	sts	0x0815, r25	; 0x800815 <__TEXT_REGION_LENGTH__+0x700815>
     400:	90 91 15 08 	lds	r25, 0x0815	; 0x800815 <__TEXT_REGION_LENGTH__+0x700815>
     404:	94 6c       	ori	r25, 0xC4	; 196
     406:	90 93 15 08 	sts	0x0815, r25	; 0x800815 <__TEXT_REGION_LENGTH__+0x700815>
     40a:	20 93 14 08 	sts	0x0814, r18	; 0x800814 <__TEXT_REGION_LENGTH__+0x700814>
     40e:	80 93 13 08 	sts	0x0813, r24	; 0x800813 <__TEXT_REGION_LENGTH__+0x700813>
     412:	80 93 21 04 	sts	0x0421, r24	; 0x800421 <__TEXT_REGION_LENGTH__+0x700421>
     416:	80 91 15 08 	lds	r24, 0x0815	; 0x800815 <__TEXT_REGION_LENGTH__+0x700815>
     41a:	81 60       	ori	r24, 0x01	; 1
     41c:	80 93 15 08 	sts	0x0815, r24	; 0x800815 <__TEXT_REGION_LENGTH__+0x700815>
     420:	80 91 15 08 	lds	r24, 0x0815	; 0x800815 <__TEXT_REGION_LENGTH__+0x700815>
     424:	84 6c       	ori	r24, 0xC4	; 196
     426:	80 93 15 08 	sts	0x0815, r24	; 0x800815 <__TEXT_REGION_LENGTH__+0x700815>
     42a:	08 95       	ret

0000042c <I2C_start>:
     42c:	28 2f       	mov	r18, r24
     42e:	90 91 15 08 	lds	r25, 0x0815	; 0x800815 <__TEXT_REGION_LENGTH__+0x700815>
     432:	90 6c       	ori	r25, 0xC0	; 192
     434:	90 93 15 08 	sts	0x0815, r25	; 0x800815 <__TEXT_REGION_LENGTH__+0x700815>
     438:	90 91 15 08 	lds	r25, 0x0815	; 0x800815 <__TEXT_REGION_LENGTH__+0x700815>
     43c:	89 2f       	mov	r24, r25
     43e:	84 70       	andi	r24, 0x04	; 4
     440:	92 fd       	sbrc	r25, 2
     442:	03 c0       	rjmp	.+6      	; 0x44a <I2C_start+0x1e>
     444:	20 93 17 08 	sts	0x0817, r18	; 0x800817 <__TEXT_REGION_LENGTH__+0x700817>
     448:	08 95       	ret
     44a:	84 e0       	ldi	r24, 0x04	; 4
     44c:	08 95       	ret

0000044e <I2C_wait_ACK>:
     44e:	8c e0       	ldi	r24, 0x0C	; 12
     450:	80 93 62 3a 	sts	0x3A62, r24	; 0x803a62 <timeout_I2C>
     454:	80 91 15 08 	lds	r24, 0x0815	; 0x800815 <__TEXT_REGION_LENGTH__+0x700815>
     458:	87 fd       	sbrc	r24, 7
     45a:	0a c0       	rjmp	.+20     	; 0x470 <I2C_wait_ACK+0x22>
     45c:	80 91 15 08 	lds	r24, 0x0815	; 0x800815 <__TEXT_REGION_LENGTH__+0x700815>
     460:	86 fd       	sbrc	r24, 6
     462:	06 c0       	rjmp	.+12     	; 0x470 <I2C_wait_ACK+0x22>
     464:	80 91 62 3a 	lds	r24, 0x3A62	; 0x803a62 <timeout_I2C>
     468:	81 11       	cpse	r24, r1
     46a:	f4 cf       	rjmp	.-24     	; 0x454 <I2C_wait_ACK+0x6>
     46c:	8f ef       	ldi	r24, 0xFF	; 255
     46e:	08 95       	ret
     470:	80 91 15 08 	lds	r24, 0x0815	; 0x800815 <__TEXT_REGION_LENGTH__+0x700815>
     474:	80 6c       	ori	r24, 0xC0	; 192
     476:	80 93 15 08 	sts	0x0815, r24	; 0x800815 <__TEXT_REGION_LENGTH__+0x700815>
     47a:	80 91 15 08 	lds	r24, 0x0815	; 0x800815 <__TEXT_REGION_LENGTH__+0x700815>
     47e:	82 fd       	sbrc	r24, 2
     480:	09 c0       	rjmp	.+18     	; 0x494 <I2C_wait_ACK+0x46>
     482:	80 91 15 08 	lds	r24, 0x0815	; 0x800815 <__TEXT_REGION_LENGTH__+0x700815>
     486:	83 fd       	sbrc	r24, 3
     488:	07 c0       	rjmp	.+14     	; 0x498 <I2C_wait_ACK+0x4a>
     48a:	80 91 15 08 	lds	r24, 0x0815	; 0x800815 <__TEXT_REGION_LENGTH__+0x700815>
     48e:	82 95       	swap	r24
     490:	81 70       	andi	r24, 0x01	; 1
     492:	08 95       	ret
     494:	84 e0       	ldi	r24, 0x04	; 4
     496:	08 95       	ret
     498:	82 e0       	ldi	r24, 0x02	; 2
     49a:	08 95       	ret

0000049c <I2C_read>:
}

uint8_t	I2C_read(uint8_t *data, uint8_t ack_flag)					// read data, ack_flag 0: send ACK, 1: send NACK, returns status
{
     49c:	fc 01       	movw	r30, r24
	timeout_I2C = READ_TIMEOUT;										// reset timeout counter, will be decremented by LED matrix interrupt
     49e:	8c e0       	ldi	r24, 0x0C	; 12
     4a0:	80 93 62 3a 	sts	0x3A62, r24	; 0x803a62 <timeout_I2C>
	if ((TWI0.MSTATUS & TWI_BUSSTATE_gm) == TWI_BUSSTATE_OWNER_gc)	// if master controls bus
     4a4:	90 91 15 08 	lds	r25, 0x0815	; 0x800815 <__TEXT_REGION_LENGTH__+0x700815>
     4a8:	89 2f       	mov	r24, r25
     4aa:	83 70       	andi	r24, 0x03	; 3
     4ac:	82 30       	cpi	r24, 0x02	; 2
     4ae:	11 f0       	breq	.+4      	; 0x4b4 <I2C_read+0x18>
		else		TWI0.MCTRLB |= TWI_ACKACT_NACK_gc;				// setup NACK (last byte read)
		*data = TWI0.MDATA;
		if (ack_flag == 0) TWI0.MCTRLB |= TWI_MCMD_RECVTRANS_gc;	// send ACK, more bytes to follow					
		return 0;
	}
	else return 8;													// master does not control bus
     4b0:	88 e0       	ldi	r24, 0x08	; 8
     4b2:	08 95       	ret
uint8_t	I2C_read(uint8_t *data, uint8_t ack_flag)					// read data, ack_flag 0: send ACK, 1: send NACK, returns status
{
	timeout_I2C = READ_TIMEOUT;										// reset timeout counter, will be decremented by LED matrix interrupt
	if ((TWI0.MSTATUS & TWI_BUSSTATE_gm) == TWI_BUSSTATE_OWNER_gc)	// if master controls bus
	{		
		while (!(TWI0.MSTATUS & TWI_RIF_bm))						// wait for RIF set (data byte received)
     4b4:	90 91 15 08 	lds	r25, 0x0815	; 0x800815 <__TEXT_REGION_LENGTH__+0x700815>
     4b8:	97 fd       	sbrc	r25, 7
     4ba:	06 c0       	rjmp	.+12     	; 0x4c8 <I2C_read+0x2c>
		{
			if (!(timeout_I2C)) return 0xff;			            // return timeout error
     4bc:	90 91 62 3a 	lds	r25, 0x3A62	; 0x803a62 <timeout_I2C>
     4c0:	91 11       	cpse	r25, r1
     4c2:	f8 cf       	rjmp	.-16     	; 0x4b4 <I2C_read+0x18>
     4c4:	8f ef       	ldi	r24, 0xFF	; 255
     4c6:	08 95       	ret
		}
		TWI0.MSTATUS |= (TWI_RIF_bm | TWI_WIF_bm);					// clear Read and Write interrupt flags	
     4c8:	90 91 15 08 	lds	r25, 0x0815	; 0x800815 <__TEXT_REGION_LENGTH__+0x700815>
     4cc:	90 6c       	ori	r25, 0xC0	; 192
     4ce:	90 93 15 08 	sts	0x0815, r25	; 0x800815 <__TEXT_REGION_LENGTH__+0x700815>
		if (TWI0.MSTATUS & TWI_BUSERR_bm) return 4;					// Bus Error, abort
     4d2:	90 91 15 08 	lds	r25, 0x0815	; 0x800815 <__TEXT_REGION_LENGTH__+0x700815>
     4d6:	92 fd       	sbrc	r25, 2
     4d8:	1e c0       	rjmp	.+60     	; 0x516 <I2C_read+0x7a>
		if (TWI0.MSTATUS & TWI_ARBLOST_bm) return 2;				// Arbitration Lost, abort
     4da:	90 91 15 08 	lds	r25, 0x0815	; 0x800815 <__TEXT_REGION_LENGTH__+0x700815>
     4de:	93 fd       	sbrc	r25, 3
     4e0:	1d c0       	rjmp	.+58     	; 0x51c <I2C_read+0x80>
		if (TWI0.MSTATUS & TWI_RXACK_bm) return 1;					// Slave replied with NACK, abort				
     4e2:	90 91 15 08 	lds	r25, 0x0815	; 0x800815 <__TEXT_REGION_LENGTH__+0x700815>
     4e6:	89 2f       	mov	r24, r25
     4e8:	80 71       	andi	r24, 0x10	; 16
     4ea:	94 fd       	sbrc	r25, 4
     4ec:	16 c0       	rjmp	.+44     	; 0x51a <I2C_read+0x7e>
		if (ack_flag == 0) TWI0.MCTRLB &= ~(1 << TWI_ACKACT_bp);	// setup ACK
     4ee:	90 91 14 08 	lds	r25, 0x0814	; 0x800814 <__TEXT_REGION_LENGTH__+0x700814>
     4f2:	61 11       	cpse	r22, r1
     4f4:	02 c0       	rjmp	.+4      	; 0x4fa <I2C_read+0x5e>
     4f6:	9b 7f       	andi	r25, 0xFB	; 251
     4f8:	01 c0       	rjmp	.+2      	; 0x4fc <I2C_read+0x60>
		else		TWI0.MCTRLB |= TWI_ACKACT_NACK_gc;				// setup NACK (last byte read)
     4fa:	94 60       	ori	r25, 0x04	; 4
     4fc:	90 93 14 08 	sts	0x0814, r25	; 0x800814 <__TEXT_REGION_LENGTH__+0x700814>
		*data = TWI0.MDATA;
     500:	90 91 18 08 	lds	r25, 0x0818	; 0x800818 <__TEXT_REGION_LENGTH__+0x700818>
     504:	90 83       	st	Z, r25
		if (ack_flag == 0) TWI0.MCTRLB |= TWI_MCMD_RECVTRANS_gc;	// send ACK, more bytes to follow					
     506:	61 11       	cpse	r22, r1
     508:	09 c0       	rjmp	.+18     	; 0x51c <I2C_read+0x80>
     50a:	90 91 14 08 	lds	r25, 0x0814	; 0x800814 <__TEXT_REGION_LENGTH__+0x700814>
     50e:	92 60       	ori	r25, 0x02	; 2
     510:	90 93 14 08 	sts	0x0814, r25	; 0x800814 <__TEXT_REGION_LENGTH__+0x700814>
     514:	08 95       	ret
		while (!(TWI0.MSTATUS & TWI_RIF_bm))						// wait for RIF set (data byte received)
		{
			if (!(timeout_I2C)) return 0xff;			            // return timeout error
		}
		TWI0.MSTATUS |= (TWI_RIF_bm | TWI_WIF_bm);					// clear Read and Write interrupt flags	
		if (TWI0.MSTATUS & TWI_BUSERR_bm) return 4;					// Bus Error, abort
     516:	84 e0       	ldi	r24, 0x04	; 4
     518:	08 95       	ret
		if (TWI0.MSTATUS & TWI_ARBLOST_bm) return 2;				// Arbitration Lost, abort
		if (TWI0.MSTATUS & TWI_RXACK_bm) return 1;					// Slave replied with NACK, abort				
     51a:	81 e0       	ldi	r24, 0x01	; 1
		*data = TWI0.MDATA;
		if (ack_flag == 0) TWI0.MCTRLB |= TWI_MCMD_RECVTRANS_gc;	// send ACK, more bytes to follow					
		return 0;
	}
	else return 8;													// master does not control bus
}
     51c:	08 95       	ret

0000051e <I2C_write>:

uint8_t I2C_write(uint8_t *data)									// write data, return status
{
     51e:	fc 01       	movw	r30, r24
	timeout_I2C = WRITE_TIMEOUT;									// reset timeout counter, will be decremented by LED matrix interrupt
     520:	8c e0       	ldi	r24, 0x0C	; 12
     522:	80 93 62 3a 	sts	0x3A62, r24	; 0x803a62 <timeout_I2C>
	if ((TWI0.MSTATUS & TWI_BUSSTATE_gm) == TWI_BUSSTATE_OWNER_gc)	// if master controls bus
     526:	90 91 15 08 	lds	r25, 0x0815	; 0x800815 <__TEXT_REGION_LENGTH__+0x700815>
     52a:	93 70       	andi	r25, 0x03	; 3
     52c:	92 30       	cpi	r25, 0x02	; 2
     52e:	b1 f4       	brne	.+44     	; 0x55c <I2C_write+0x3e>
	{
		TWI0.MDATA = *data;		
     530:	80 81       	ld	r24, Z
     532:	80 93 18 08 	sts	0x0818, r24	; 0x800818 <__TEXT_REGION_LENGTH__+0x700818>
		while (!(TWI0.MSTATUS & TWI_WIF_bm))						// wait until WIF set, status register contains ACK/NACK bit
     536:	80 91 15 08 	lds	r24, 0x0815	; 0x800815 <__TEXT_REGION_LENGTH__+0x700815>
     53a:	86 fd       	sbrc	r24, 6
     53c:	06 c0       	rjmp	.+12     	; 0x54a <I2C_write+0x2c>
		{
			if (!(timeout_I2C)) return 0xff;			            // return timeout error
     53e:	80 91 62 3a 	lds	r24, 0x3A62	; 0x803a62 <timeout_I2C>
     542:	81 11       	cpse	r24, r1
     544:	f8 cf       	rjmp	.-16     	; 0x536 <I2C_write+0x18>
     546:	8f ef       	ldi	r24, 0xFF	; 255
     548:	08 95       	ret
		}
		if (TWI0.MSTATUS & TWI_BUSERR_bm) return 4;					// Bus Error, abort
     54a:	80 91 15 08 	lds	r24, 0x0815	; 0x800815 <__TEXT_REGION_LENGTH__+0x700815>
     54e:	82 fd       	sbrc	r24, 2
     550:	07 c0       	rjmp	.+14     	; 0x560 <I2C_write+0x42>
		if (TWI0.MSTATUS & TWI_RXACK_bm) return 1;					// Slave replied with NACK, abort
     552:	80 91 15 08 	lds	r24, 0x0815	; 0x800815 <__TEXT_REGION_LENGTH__+0x700815>
	if ((TWI0.MSTATUS & TWI_BUSSTATE_gm) == TWI_BUSSTATE_OWNER_gc)	// if master controls bus
	{
		TWI0.MDATA = *data;		
		while (!(TWI0.MSTATUS & TWI_WIF_bm))						// wait until WIF set, status register contains ACK/NACK bit
		{
			if (!(timeout_I2C)) return 0xff;			            // return timeout error
     556:	82 95       	swap	r24
     558:	81 70       	andi	r24, 0x01	; 1
     55a:	08 95       	ret
		}
		if (TWI0.MSTATUS & TWI_BUSERR_bm) return 4;					// Bus Error, abort
		if (TWI0.MSTATUS & TWI_RXACK_bm) return 1;					// Slave replied with NACK, abort
		return 0;													// no error	
	}
	else return 8;													// master does not control bus
     55c:	88 e0       	ldi	r24, 0x08	; 8
     55e:	08 95       	ret
		TWI0.MDATA = *data;		
		while (!(TWI0.MSTATUS & TWI_WIF_bm))						// wait until WIF set, status register contains ACK/NACK bit
		{
			if (!(timeout_I2C)) return 0xff;			            // return timeout error
		}
		if (TWI0.MSTATUS & TWI_BUSERR_bm) return 4;					// Bus Error, abort
     560:	84 e0       	ldi	r24, 0x04	; 4
		if (TWI0.MSTATUS & TWI_RXACK_bm) return 1;					// Slave replied with NACK, abort
		return 0;													// no error	
	}
	else return 8;													// master does not control bus
}
     562:	08 95       	ret

00000564 <I2C_stop>:

void I2C_stop()
{
	TWI0.MCTRLB |= TWI_MCMD_STOP_gc;
     564:	e0 e1       	ldi	r30, 0x10	; 16
     566:	f8 e0       	ldi	r31, 0x08	; 8
     568:	84 81       	ldd	r24, Z+4	; 0x04
     56a:	83 60       	ori	r24, 0x03	; 3
     56c:	84 83       	std	Z+4, r24	; 0x04
     56e:	08 95       	ret

00000570 <I2C_read_bytes>:
// addr_ptr		address of first array element to transfer
// slave reg	starting slave register
// num_bytes	number of bytes to transfer

uint8_t	I2C_read_bytes(uint8_t slave_addr, uint8_t *reg_ptr, uint8_t reg_len, uint8_t *dat_ptr, uint8_t dat_len)
{
     570:	cf 92       	push	r12
     572:	df 92       	push	r13
     574:	ff 92       	push	r15
     576:	0f 93       	push	r16
     578:	1f 93       	push	r17
     57a:	cf 93       	push	r28
     57c:	df 93       	push	r29
     57e:	6b 01       	movw	r12, r22
     580:	f4 2e       	mov	r15, r20
     582:	e9 01       	movw	r28, r18
	uint8_t status;
	if (dat_len > MAX_LEN) dat_len = MAX_LEN;
	status = I2C_start(slave_addr << 1);							// slave write address, LSB 0
     584:	18 2f       	mov	r17, r24
     586:	11 0f       	add	r17, r17
     588:	81 2f       	mov	r24, r17
     58a:	50 df       	rcall	.-352    	; 0x42c <I2C_start>
	if (status != 0) goto error;
     58c:	81 11       	cpse	r24, r1
	status = I2C_wait_ACK();										// wait for slave ACK
     58e:	2b c0       	rjmp	.+86     	; 0x5e6 <I2C_read_bytes+0x76>
     590:	5e df       	rcall	.-324    	; 0x44e <I2C_wait_ACK>
	if (status == 1) {
     592:	81 30       	cpi	r24, 0x01	; 1
		I2C_stop();													// NACK, abort
     594:	19 f4       	brne	.+6      	; 0x59c <I2C_read_bytes+0x2c>
     596:	e6 df       	rcall	.-52     	; 0x564 <I2C_stop>
		return 1;
     598:	81 e0       	ldi	r24, 0x01	; 1
     59a:	27 c0       	rjmp	.+78     	; 0x5ea <I2C_read_bytes+0x7a>
	}
	if (status != 0) goto error;
     59c:	81 11       	cpse	r24, r1
     59e:	23 c0       	rjmp	.+70     	; 0x5e6 <I2C_read_bytes+0x76>
    while(reg_len > 0){
     5a0:	ff 20       	and	r15, r15
	    status = I2C_write(reg_ptr);    							// send slave start register
     5a2:	49 f0       	breq	.+18     	; 0x5b6 <I2C_read_bytes+0x46>
     5a4:	c6 01       	movw	r24, r12
     5a6:	bb df       	rcall	.-138    	; 0x51e <I2C_write>
	    if (status != 0) goto error;
     5a8:	81 11       	cpse	r24, r1
     5aa:	1d c0       	rjmp	.+58     	; 0x5e6 <I2C_read_bytes+0x76>
        ++reg_ptr;
     5ac:	8f ef       	ldi	r24, 0xFF	; 255
     5ae:	c8 1a       	sub	r12, r24
     5b0:	d8 0a       	sbc	r13, r24
        --reg_len;
     5b2:	fa 94       	dec	r15
     5b4:	f5 cf       	rjmp	.-22     	; 0x5a0 <I2C_read_bytes+0x30>
     5b6:	01 34       	cpi	r16, 0x41	; 65
     5b8:	08 f0       	brcs	.+2      	; 0x5bc <I2C_read_bytes+0x4c>
     5ba:	00 e4       	ldi	r16, 0x40	; 64
    }
	I2C_rep_start((slave_addr << 1) + 1);							// slave read address, LSB 1
     5bc:	1f 5f       	subi	r17, 0xFF	; 255
// the Atmel device documentation mentions a special command for repeated start TWI_MCMD_REPSTART_gc,
// but this is not used in Atmel's demo code, so we don't use it either

void I2C_rep_start(uint8_t shifted_addr)						    // send repeated start, device_addr + LSB set if READ
{
	TWI0.MADDR = shifted_addr;	
     5be:	10 93 17 08 	sts	0x0817, r17	; 0x800817 <__TEXT_REGION_LENGTH__+0x700817>
	    if (status != 0) goto error;
        ++reg_ptr;
        --reg_len;
    }
	I2C_rep_start((slave_addr << 1) + 1);							// slave read address, LSB 1
	while (dat_len > 1) {
     5c2:	02 30       	cpi	r16, 0x02	; 2
		status = I2C_read(dat_ptr, 0);								// first bytes, send ACK
     5c4:	40 f0       	brcs	.+16     	; 0x5d6 <I2C_read_bytes+0x66>
     5c6:	60 e0       	ldi	r22, 0x00	; 0
     5c8:	ce 01       	movw	r24, r28
     5ca:	68 df       	rcall	.-304    	; 0x49c <I2C_read>
		if (status != 0) goto error;
     5cc:	81 11       	cpse	r24, r1
     5ce:	0b c0       	rjmp	.+22     	; 0x5e6 <I2C_read_bytes+0x76>
		++dat_ptr;
		--dat_len;
     5d0:	21 96       	adiw	r28, 0x01	; 1
     5d2:	01 50       	subi	r16, 0x01	; 1
	}
	status = I2C_read(dat_ptr, 1);									// single or last byte, send NACK
     5d4:	f6 cf       	rjmp	.-20     	; 0x5c2 <I2C_read_bytes+0x52>
     5d6:	61 e0       	ldi	r22, 0x01	; 1
     5d8:	ce 01       	movw	r24, r28
	if (status != 0) goto error;
     5da:	60 df       	rcall	.-320    	; 0x49c <I2C_read>
     5dc:	81 11       	cpse	r24, r1
	I2C_stop();
     5de:	03 c0       	rjmp	.+6      	; 0x5e6 <I2C_read_bytes+0x76>
     5e0:	c1 df       	rcall	.-126    	; 0x564 <I2C_stop>
	return 0;
     5e2:	80 e0       	ldi	r24, 0x00	; 0
     5e4:	02 c0       	rjmp	.+4      	; 0x5ea <I2C_read_bytes+0x7a>
	
error:
	I2C_recover();													// clock out possibly stuck slave, reset master
     5e6:	e4 de       	rcall	.-568    	; 0x3b0 <I2C_recover>
     5e8:	8f ef       	ldi	r24, 0xFF	; 255
	return 0xff;													// flag error
     5ea:	df 91       	pop	r29
}
     5ec:	cf 91       	pop	r28
     5ee:	1f 91       	pop	r17
     5f0:	0f 91       	pop	r16
     5f2:	ff 90       	pop	r15
     5f4:	df 90       	pop	r13
     5f6:	cf 90       	pop	r12
     5f8:	08 95       	ret

000005fa <initLanyard>:
uint8_t         lastButtonState = 0xff;
uint8_t         digit = 0xff;
uint16_t        lanyardLastActive = 0;

void initLanyard() {
    lanyardPos      = 0;
     5fa:	10 92 36 38 	sts	0x3836, r1	; 0x803836 <lanyardPos>
    lanyardCnt      = 0;
     5fe:	10 92 35 38 	sts	0x3835, r1	; 0x803835 <lanyardCnt>
    lanyardState    = TRUE;
     602:	81 e0       	ldi	r24, 0x01	; 1
     604:	80 93 04 38 	sts	0x3804, r24	; 0x803804 <lanyardState>
    lastButtonState = 0xff;
     608:	8f ef       	ldi	r24, 0xFF	; 255
     60a:	80 93 03 38 	sts	0x3803, r24	; 0x803803 <lastButtonState>
    iLED[CAT]       = 0;
     60e:	e0 91 64 be 	lds	r30, 0xBE64	; 0x80be64 <__bss_end+0x8348>
     612:	f0 e0       	ldi	r31, 0x00	; 0
     614:	e4 53       	subi	r30, 0x34	; 52
     616:	f5 4c       	sbci	r31, 0xC5	; 197
     618:	10 82       	st	Z, r1
    iLED[EYE[G][L]] = 0;
     61a:	e0 91 75 be 	lds	r30, 0xBE75	; 0x80be75 <__bss_end+0x8359>
     61e:	f0 e0       	ldi	r31, 0x00	; 0
     620:	e4 53       	subi	r30, 0x34	; 52
     622:	f5 4c       	sbci	r31, 0xC5	; 197
     624:	10 82       	st	Z, r1
    iLED[EYE[G][R]] = 0;
     626:	e0 91 74 be 	lds	r30, 0xBE74	; 0x80be74 <__bss_end+0x8358>
     62a:	f0 e0       	ldi	r31, 0x00	; 0
     62c:	e4 53       	subi	r30, 0x34	; 52
     62e:	f5 4c       	sbci	r31, 0xC5	; 197
     630:	10 82       	st	Z, r1
    iLED[EYE[R][L]] = 0;
     632:	e0 91 73 be 	lds	r30, 0xBE73	; 0x80be73 <__bss_end+0x8357>
     636:	f0 e0       	ldi	r31, 0x00	; 0
     638:	e4 53       	subi	r30, 0x34	; 52
     63a:	f5 4c       	sbci	r31, 0xC5	; 197
     63c:	10 82       	st	Z, r1
    iLED[EYE[R][R]] = 0;
     63e:	e0 91 72 be 	lds	r30, 0xBE72	; 0x80be72 <__bss_end+0x8356>
     642:	f0 e0       	ldi	r31, 0x00	; 0
     644:	e4 53       	subi	r30, 0x34	; 52
     646:	f5 4c       	sbci	r31, 0xC5	; 197
     648:	10 82       	st	Z, r1
     64a:	ac e7       	ldi	r26, 0x7C	; 124
     64c:	be eb       	ldi	r27, 0xBE	; 190
    for (int i=0; i<6; i++ )
        iLED[HCKR[G][i]] = 0;
     64e:	ed 91       	ld	r30, X+
     650:	f0 e0       	ldi	r31, 0x00	; 0
     652:	e4 53       	subi	r30, 0x34	; 52
     654:	f5 4c       	sbci	r31, 0xC5	; 197
     656:	10 82       	st	Z, r1
    iLED[CAT]       = 0;
    iLED[EYE[G][L]] = 0;
    iLED[EYE[G][R]] = 0;
    iLED[EYE[R][L]] = 0;
    iLED[EYE[R][R]] = 0;
    for (int i=0; i<6; i++ )
     658:	8e eb       	ldi	r24, 0xBE	; 190
     65a:	a2 38       	cpi	r26, 0x82	; 130
     65c:	b8 07       	cpc	r27, r24
     65e:	b9 f7       	brne	.-18     	; 0x64e <initLanyard+0x54>
        iLED[HCKR[G][i]] = 0;
}
     660:	08 95       	ret

00000662 <LanyardCode>:

// Main game loop
uint8_t LanyardCode(){
     662:	cf 93       	push	r28
    if (gameNow == LANYARD && idleTimeout(lanyardLastActive,LANYARD_MAX_IDLE)) {
     664:	80 91 3c 38 	lds	r24, 0x383C	; 0x80383c <gameNow>
     668:	83 30       	cpi	r24, 0x03	; 3
     66a:	91 f4       	brne	.+36     	; 0x690 <LanyardCode+0x2e>
     66c:	6a e0       	ldi	r22, 0x0A	; 10
     66e:	70 e0       	ldi	r23, 0x00	; 0
     670:	80 91 33 38 	lds	r24, 0x3833	; 0x803833 <lanyardLastActive>
     674:	90 91 34 38 	lds	r25, 0x3834	; 0x803834 <lanyardLastActive+0x1>
     678:	0e 94 ce 0d 	call	0x1b9c	; 0x1b9c <idleTimeout>
     67c:	88 23       	and	r24, r24
     67e:	41 f0       	breq	.+16     	; 0x690 <LanyardCode+0x2e>
        /* clean up maze game and go back to text game */
        initLanyard();
     680:	bc df       	rcall	.-136    	; 0x5fa <initLanyard>
        gameNow = TEXT;
     682:	10 92 3c 38 	sts	0x383C, r1	; 0x80383c <gameNow>
        effect = 0;
     686:	10 92 3a 38 	sts	0x383A, r1	; 0x80383a <effect>
     68a:	10 92 3b 38 	sts	0x383B, r1	; 0x80383b <effect+0x1>
        return 0;
     68e:	c5 c0       	rjmp	.+394    	; 0x81a <LanyardCode+0x1b8>
    }

    if (CheckState(LANYARD_COMPLETED))
     690:	8b e7       	ldi	r24, 0x7B	; 123
     692:	67 d7       	rcall	.+3790   	; 0x1562 <CheckState>
     694:	81 11       	cpse	r24, r1
     696:	c1 c0       	rjmp	.+386    	; 0x81a <LanyardCode+0x1b8>
        return 0;

    if ( gameNow != TEXT && gameNow != LANYARD )
     698:	80 91 3c 38 	lds	r24, 0x383C	; 0x80383c <gameNow>
     69c:	88 23       	and	r24, r24
     69e:	19 f0       	breq	.+6      	; 0x6a6 <LanyardCode+0x44>
     6a0:	83 30       	cpi	r24, 0x03	; 3
     6a2:	09 f0       	breq	.+2      	; 0x6a6 <LanyardCode+0x44>
     6a4:	ba c0       	rjmp	.+372    	; 0x81a <LanyardCode+0x1b8>
        return 0;

    if ( (buttonState & 0xf0) == 0)
     6a6:	90 91 09 38 	lds	r25, 0x3809	; 0x803809 <buttonState>
     6aa:	89 2f       	mov	r24, r25
     6ac:	80 7f       	andi	r24, 0xF0	; 240
     6ae:	09 f4       	brne	.+2      	; 0x6b2 <LanyardCode+0x50>
     6b0:	b4 c0       	rjmp	.+360    	; 0x81a <LanyardCode+0x1b8>
        return 0;

    /* activate led for buttonstate */
    iLED[CAT] = (buttonState==0xff ? 0 : dimValue);
     6b2:	c0 91 64 be 	lds	r28, 0xBE64	; 0x80be64 <__bss_end+0x8348>
     6b6:	ec 2f       	mov	r30, r28
     6b8:	f0 e0       	ldi	r31, 0x00	; 0
     6ba:	9f 3f       	cpi	r25, 0xFF	; 255
     6bc:	19 f0       	breq	.+6      	; 0x6c4 <LanyardCode+0x62>
     6be:	80 91 0b 38 	lds	r24, 0x380B	; 0x80380b <dimValue>
     6c2:	01 c0       	rjmp	.+2      	; 0x6c6 <LanyardCode+0x64>
     6c4:	80 e0       	ldi	r24, 0x00	; 0
     6c6:	e4 53       	subi	r30, 0x34	; 52
     6c8:	f5 4c       	sbci	r31, 0xC5	; 197
     6ca:	80 83       	st	Z, r24

    if ((buttonState&0x0f) == (lastButtonState&0x0f))
     6cc:	80 91 03 38 	lds	r24, 0x3803	; 0x803803 <lastButtonState>
     6d0:	89 27       	eor	r24, r25
     6d2:	8f 70       	andi	r24, 0x0F	; 15
     6d4:	09 f4       	brne	.+2      	; 0x6d8 <LanyardCode+0x76>
     6d6:	a1 c0       	rjmp	.+322    	; 0x81a <LanyardCode+0x1b8>
        return 0;

    lanyardLastActive = getClock();
     6d8:	0e 94 bf 0d 	call	0x1b7e	; 0x1b7e <getClock>
     6dc:	80 93 33 38 	sts	0x3833, r24	; 0x803833 <lanyardLastActive>
     6e0:	90 93 34 38 	sts	0x3834, r25	; 0x803834 <lanyardLastActive+0x1>

    if (lastButtonState == 0xff){
     6e4:	80 91 03 38 	lds	r24, 0x3803	; 0x803803 <lastButtonState>
     6e8:	8f 3f       	cpi	r24, 0xFF	; 255
     6ea:	09 f0       	breq	.+2      	; 0x6ee <LanyardCode+0x8c>
     6ec:	92 c0       	rjmp	.+292    	; 0x812 <LanyardCode+0x1b0>
        switch (buttonState & 0x0f) {
     6ee:	80 91 09 38 	lds	r24, 0x3809	; 0x803809 <buttonState>
     6f2:	8f 70       	andi	r24, 0x0F	; 15
     6f4:	82 30       	cpi	r24, 0x02	; 2
     6f6:	c1 f0       	breq	.+48     	; 0x728 <LanyardCode+0xc6>
     6f8:	58 f4       	brcc	.+22     	; 0x710 <LanyardCode+0xae>
     6fa:	81 30       	cpi	r24, 0x01	; 1
     6fc:	29 f5       	brne	.+74     	; 0x748 <LanyardCode+0xe6>
            case 0b0001:
                effect = 0x19f;
     6fe:	8f e9       	ldi	r24, 0x9F	; 159
     700:	91 e0       	ldi	r25, 0x01	; 1
     702:	80 93 3a 38 	sts	0x383A, r24	; 0x80383a <effect>
     706:	90 93 3b 38 	sts	0x383B, r25	; 0x80383b <effect+0x1>
                digit = 0;
     70a:	10 92 02 38 	sts	0x3802, r1	; 0x803802 <digit>
                break;
     70e:	1f c0       	rjmp	.+62     	; 0x74e <LanyardCode+0xec>
        return 0;

    lanyardLastActive = getClock();

    if (lastButtonState == 0xff){
        switch (buttonState & 0x0f) {
     710:	84 30       	cpi	r24, 0x04	; 4
     712:	91 f0       	breq	.+36     	; 0x738 <LanyardCode+0xd6>
     714:	88 30       	cpi	r24, 0x08	; 8
     716:	c1 f4       	brne	.+48     	; 0x748 <LanyardCode+0xe6>
                effect = 0x13f;
                digit = 3;
                break;

            case 0b1000:
                effect = 0x15f;
     718:	8f e5       	ldi	r24, 0x5F	; 95
     71a:	91 e0       	ldi	r25, 0x01	; 1
     71c:	80 93 3a 38 	sts	0x383A, r24	; 0x80383a <effect>
     720:	90 93 3b 38 	sts	0x383B, r25	; 0x80383b <effect+0x1>
                digit = 2;
     724:	82 e0       	ldi	r24, 0x02	; 2
     726:	11 c0       	rjmp	.+34     	; 0x74a <LanyardCode+0xe8>
                effect = 0x19f;
                digit = 0;
                break;

            case 0b0010:
                effect = 0x17f;
     728:	8f e7       	ldi	r24, 0x7F	; 127
     72a:	91 e0       	ldi	r25, 0x01	; 1
     72c:	80 93 3a 38 	sts	0x383A, r24	; 0x80383a <effect>
     730:	90 93 3b 38 	sts	0x383B, r25	; 0x80383b <effect+0x1>
                digit = 1;
     734:	81 e0       	ldi	r24, 0x01	; 1
     736:	09 c0       	rjmp	.+18     	; 0x74a <LanyardCode+0xe8>
                break;

            case 0b0100:
                effect = 0x13f;
     738:	8f e3       	ldi	r24, 0x3F	; 63
     73a:	91 e0       	ldi	r25, 0x01	; 1
     73c:	80 93 3a 38 	sts	0x383A, r24	; 0x80383a <effect>
     740:	90 93 3b 38 	sts	0x383B, r25	; 0x80383b <effect+0x1>
                digit = 3;
     744:	83 e0       	ldi	r24, 0x03	; 3
     746:	01 c0       	rjmp	.+2      	; 0x74a <LanyardCode+0xe8>
                effect = 0x15f;
                digit = 2;
                break;

            default:
                digit = 0xff;
     748:	8f ef       	ldi	r24, 0xFF	; 255
     74a:	80 93 02 38 	sts	0x3802, r24	; 0x803802 <digit>
                break;
        }
        gameNow = LANYARD;
     74e:	83 e0       	ldi	r24, 0x03	; 3
     750:	80 93 3c 38 	sts	0x383C, r24	; 0x80383c <gameNow>
        /* TODO play tone for button */

        if (digit == lanyardCode[lanyardPos]) {
     754:	80 91 36 38 	lds	r24, 0x3836	; 0x803836 <lanyardPos>
     758:	e8 2f       	mov	r30, r24
     75a:	f0 e0       	ldi	r31, 0x00	; 0
     75c:	e4 5b       	subi	r30, 0xB4	; 180
     75e:	f1 44       	sbci	r31, 0x41	; 65
     760:	20 81       	ld	r18, Z
     762:	90 91 02 38 	lds	r25, 0x3802	; 0x803802 <digit>
     766:	29 13       	cpse	r18, r25
     768:	12 c0       	rjmp	.+36     	; 0x78e <LanyardCode+0x12c>
            lanyardState &= TRUE;
     76a:	90 91 04 38 	lds	r25, 0x3804	; 0x803804 <lanyardState>
     76e:	91 70       	andi	r25, 0x01	; 1
     770:	90 93 04 38 	sts	0x3804, r25	; 0x803804 <lanyardState>
            iLED[EYE[R][L]] = 0;
     774:	e0 91 73 be 	lds	r30, 0xBE73	; 0x80be73 <__bss_end+0x8357>
     778:	f0 e0       	ldi	r31, 0x00	; 0
     77a:	e4 53       	subi	r30, 0x34	; 52
     77c:	f5 4c       	sbci	r31, 0xC5	; 197
     77e:	10 82       	st	Z, r1
            iLED[EYE[R][R]] = 0;
     780:	e0 91 72 be 	lds	r30, 0xBE72	; 0x80be72 <__bss_end+0x8356>
     784:	f0 e0       	ldi	r31, 0x00	; 0
     786:	e4 53       	subi	r30, 0x34	; 52
     788:	f5 4c       	sbci	r31, 0xC5	; 197
     78a:	10 82       	st	Z, r1
     78c:	08 c0       	rjmp	.+16     	; 0x79e <LanyardCode+0x13c>
        } else {
            lanyardState = FALSE;
     78e:	10 92 04 38 	sts	0x3804, r1	; 0x803804 <lanyardState>
            if (lanyardPos < 4 ) {
     792:	84 30       	cpi	r24, 0x04	; 4
                initLanyard();
     794:	20 f4       	brcc	.+8      	; 0x79e <LanyardCode+0x13c>
     796:	31 df       	rcall	.-414    	; 0x5fa <initLanyard>
                /* TODO disable bastet for now  until is working 
                gameNow         = BASTET;
                */
                gameNow         = TEXT;
     798:	10 92 3c 38 	sts	0x383C, r1	; 0x80383c <gameNow>
                return 0;
     79c:	3e c0       	rjmp	.+124    	; 0x81a <LanyardCode+0x1b8>
            }
        }
        lanyardPos++;
     79e:	8f 5f       	subi	r24, 0xFF	; 255
     7a0:	80 93 36 38 	sts	0x3836, r24	; 0x803836 <lanyardPos>
        lanyardCnt++;            
     7a4:	90 91 35 38 	lds	r25, 0x3835	; 0x803835 <lanyardCnt>
     7a8:	9f 5f       	subi	r25, 0xFF	; 255
        if (lanyardCnt >= 4) {
     7aa:	94 30       	cpi	r25, 0x04	; 4
     7ac:	18 f4       	brcc	.+6      	; 0x7b4 <LanyardCode+0x152>
                gameNow         = TEXT;
                return 0;
            }
        }
        lanyardPos++;
        lanyardCnt++;            
     7ae:	90 93 35 38 	sts	0x3835, r25	; 0x803835 <lanyardCnt>
     7b2:	2f c0       	rjmp	.+94     	; 0x812 <LanyardCode+0x1b0>
        if (lanyardCnt >= 4) {
            lanyardCnt = 0;
     7b4:	10 92 35 38 	sts	0x3835, r1	; 0x803835 <lanyardCnt>
            if (lanyardState == TRUE) {
     7b8:	90 91 04 38 	lds	r25, 0x3804	; 0x803804 <lanyardState>
     7bc:	91 30       	cpi	r25, 0x01	; 1
     7be:	11 f5       	brne	.+68     	; 0x804 <LanyardCode+0x1a2>
                if ((lanyardPos % 4) == 0) {
     7c0:	98 2f       	mov	r25, r24
     7c2:	93 70       	andi	r25, 0x03	; 3
     7c4:	99 f4       	brne	.+38     	; 0x7ec <LanyardCode+0x18a>
                    iLED[HCKR[G][(lanyardPos>>2)-1]] = dimValue;
     7c6:	e8 2f       	mov	r30, r24
     7c8:	e6 95       	lsr	r30
     7ca:	e6 95       	lsr	r30
     7cc:	f0 e0       	ldi	r31, 0x00	; 0
     7ce:	ea 58       	subi	r30, 0x8A	; 138
     7d0:	f1 44       	sbci	r31, 0x41	; 65
     7d2:	e5 81       	ldd	r30, Z+5	; 0x05
     7d4:	f0 e0       	ldi	r31, 0x00	; 0
     7d6:	90 91 0b 38 	lds	r25, 0x380B	; 0x80380b <dimValue>
     7da:	e4 53       	subi	r30, 0x34	; 52
     7dc:	f5 4c       	sbci	r31, 0xC5	; 197
     7de:	90 83       	st	Z, r25
                    effect = 0x5f;
     7e0:	2f e5       	ldi	r18, 0x5F	; 95
     7e2:	30 e0       	ldi	r19, 0x00	; 0
     7e4:	20 93 3a 38 	sts	0x383A, r18	; 0x80383a <effect>
     7e8:	30 93 3b 38 	sts	0x383B, r19	; 0x80383b <effect+0x1>
                }
                if (lanyardPos == sizeof(lanyardCode)) {
     7ec:	88 31       	cpi	r24, 0x18	; 24
                    UpdateState(LANYARD_COMPLETED);
     7ee:	89 f4       	brne	.+34     	; 0x812 <LanyardCode+0x1b0>
     7f0:	8b e7       	ldi	r24, 0x7B	; 123
     7f2:	ad d6       	rcall	.+3418   	; 0x154e <UpdateState>
                    iLED[CAT]       = 0;
     7f4:	ec 2f       	mov	r30, r28
     7f6:	f0 e0       	ldi	r31, 0x00	; 0
     7f8:	e4 53       	subi	r30, 0x34	; 52
     7fa:	f5 4c       	sbci	r31, 0xC5	; 197
                    effect = 0x42;
     7fc:	10 82       	st	Z, r1
     7fe:	82 e4       	ldi	r24, 0x42	; 66
     800:	90 e0       	ldi	r25, 0x00	; 0
                    /*TODO state = STATE_MUSIC;*/
                }
            } else {
                initLanyard();
     802:	03 c0       	rjmp	.+6      	; 0x80a <LanyardCode+0x1a8>
     804:	fa de       	rcall	.-524    	; 0x5fa <initLanyard>
                effect = 0x21;
     806:	81 e2       	ldi	r24, 0x21	; 33
     808:	90 e0       	ldi	r25, 0x00	; 0
     80a:	80 93 3a 38 	sts	0x383A, r24	; 0x80383a <effect>
     80e:	90 93 3b 38 	sts	0x383B, r25	; 0x80383b <effect+0x1>
            }
        }
    }

    lastButtonState = buttonState;
     812:	80 91 09 38 	lds	r24, 0x3809	; 0x803809 <buttonState>
     816:	80 93 03 38 	sts	0x3803, r24	; 0x803803 <lastButtonState>
    return 0;
}
     81a:	80 e0       	ldi	r24, 0x00	; 0
     81c:	cf 91       	pop	r28
     81e:	08 95       	ret

00000820 <initMaze>:
uint8_t         mazeState = TRUE;
uint8_t         inverted  = FALSE;
uint16_t        mazeLastActive = 0;

void initMaze() {
    mazeHckrPos = 0;
     820:	10 92 49 38 	sts	0x3849, r1	; 0x803849 <mazeHckrPos>
    mazePos = 0;
     824:	10 92 4a 38 	sts	0x384A, r1	; 0x80384a <mazePos>
    mazeCnt = 0;
     828:	10 92 48 38 	sts	0x3848, r1	; 0x803848 <mazeCnt>
    mazeState = TRUE;
     82c:	81 e0       	ldi	r24, 0x01	; 1
     82e:	80 93 0c 38 	sts	0x380C, r24	; 0x80380c <mazeState>
    inverted  = FALSE;
     832:	10 92 47 38 	sts	0x3847, r1	; 0x803847 <inverted>
    iLED[CAT]       = 0;
     836:	e0 91 64 be 	lds	r30, 0xBE64	; 0x80be64 <__bss_end+0x8348>
     83a:	f0 e0       	ldi	r31, 0x00	; 0
     83c:	e4 53       	subi	r30, 0x34	; 52
     83e:	f5 4c       	sbci	r31, 0xC5	; 197
     840:	10 82       	st	Z, r1
    iLED[EYE[G][L]] = 0;
     842:	e0 91 75 be 	lds	r30, 0xBE75	; 0x80be75 <__bss_end+0x8359>
     846:	f0 e0       	ldi	r31, 0x00	; 0
     848:	e4 53       	subi	r30, 0x34	; 52
     84a:	f5 4c       	sbci	r31, 0xC5	; 197
     84c:	10 82       	st	Z, r1
    iLED[EYE[G][R]] = 0;
     84e:	e0 91 74 be 	lds	r30, 0xBE74	; 0x80be74 <__bss_end+0x8358>
     852:	f0 e0       	ldi	r31, 0x00	; 0
     854:	e4 53       	subi	r30, 0x34	; 52
     856:	f5 4c       	sbci	r31, 0xC5	; 197
     858:	10 82       	st	Z, r1
    iLED[EYE[R][L]] = 0;
     85a:	e0 91 73 be 	lds	r30, 0xBE73	; 0x80be73 <__bss_end+0x8357>
     85e:	f0 e0       	ldi	r31, 0x00	; 0
     860:	e4 53       	subi	r30, 0x34	; 52
     862:	f5 4c       	sbci	r31, 0xC5	; 197
     864:	10 82       	st	Z, r1
    iLED[EYE[R][R]] = 0;
     866:	e0 91 72 be 	lds	r30, 0xBE72	; 0x80be72 <__bss_end+0x8356>
     86a:	f0 e0       	ldi	r31, 0x00	; 0
     86c:	e4 53       	subi	r30, 0x34	; 52
     86e:	f5 4c       	sbci	r31, 0xC5	; 197
     870:	10 82       	st	Z, r1
     872:	ac e7       	ldi	r26, 0x7C	; 124
     874:	be eb       	ldi	r27, 0xBE	; 190
    for (int i=0; i<6; i++ )
        iLED[HCKR[G][i]] = 0;
     876:	ed 91       	ld	r30, X+
     878:	f0 e0       	ldi	r31, 0x00	; 0
     87a:	e4 53       	subi	r30, 0x34	; 52
     87c:	f5 4c       	sbci	r31, 0xC5	; 197
     87e:	10 82       	st	Z, r1
    iLED[CAT]       = 0;
    iLED[EYE[G][L]] = 0;
    iLED[EYE[G][R]] = 0;
    iLED[EYE[R][L]] = 0;
    iLED[EYE[R][R]] = 0;
    for (int i=0; i<6; i++ )
     880:	8e eb       	ldi	r24, 0xBE	; 190
     882:	a2 38       	cpi	r26, 0x82	; 130
     884:	b8 07       	cpc	r27, r24
     886:	b9 f7       	brne	.-18     	; 0x876 <initMaze+0x56>
        iLED[HCKR[G][i]] = 0;
}
     888:	08 95       	ret

0000088a <showFieldStrength>:

void showFieldStrength(int16_t val) {
    int16_t tmp;

    tmp = abs(val);
     88a:	97 ff       	sbrs	r25, 7
     88c:	03 c0       	rjmp	.+6      	; 0x894 <showFieldStrength+0xa>
     88e:	91 95       	neg	r25
     890:	81 95       	neg	r24
     892:	91 09       	sbc	r25, r1

    if ( tmp*2 > HALL_LOW )
     894:	9c 01       	movw	r18, r24
     896:	22 0f       	add	r18, r18
     898:	33 1f       	adc	r19, r19
     89a:	29 37       	cpi	r18, 0x79	; 121
     89c:	31 05       	cpc	r19, r1
     89e:	1c f0       	brlt	.+6      	; 0x8a6 <showFieldStrength+0x1c>
        gameNow = MAZE;
     8a0:	41 e0       	ldi	r20, 0x01	; 1
     8a2:	40 93 3c 38 	sts	0x383C, r20	; 0x80383c <gameNow>

    if (gameNow == MAZE) {
     8a6:	40 91 3c 38 	lds	r20, 0x383C	; 0x80383c <gameNow>
     8aa:	41 30       	cpi	r20, 0x01	; 1
     8ac:	21 f5       	brne	.+72     	; 0x8f6 <showFieldStrength+0x6c>
        if ( tmp*2 < HALL_LOW )
     8ae:	28 37       	cpi	r18, 0x78	; 120
     8b0:	31 05       	cpc	r19, r1
     8b2:	1c f4       	brge	.+6      	; 0x8ba <showFieldStrength+0x30>
            WingBar(0,0);
     8b4:	60 e0       	ldi	r22, 0x00	; 0
     8b6:	80 e0       	ldi	r24, 0x00	; 0
     8b8:	1d c0       	rjmp	.+58     	; 0x8f4 <showFieldStrength+0x6a>
        else if ( tmp   < HALL_LOW )
     8ba:	88 37       	cpi	r24, 0x78	; 120
     8bc:	91 05       	cpc	r25, r1
     8be:	1c f4       	brge	.+6      	; 0x8c6 <showFieldStrength+0x3c>
            WingBar(1,1);
     8c0:	61 e0       	ldi	r22, 0x01	; 1
     8c2:	81 e0       	ldi	r24, 0x01	; 1
     8c4:	17 c0       	rjmp	.+46     	; 0x8f4 <showFieldStrength+0x6a>
        else if ( tmp*2 < HALL_HIGH )
     8c6:	2c 32       	cpi	r18, 0x2C	; 44
     8c8:	41 e0       	ldi	r20, 0x01	; 1
     8ca:	34 07       	cpc	r19, r20
     8cc:	1c f4       	brge	.+6      	; 0x8d4 <showFieldStrength+0x4a>
            WingBar(2,2);
     8ce:	62 e0       	ldi	r22, 0x02	; 2
     8d0:	82 e0       	ldi	r24, 0x02	; 2
     8d2:	10 c0       	rjmp	.+32     	; 0x8f4 <showFieldStrength+0x6a>
        else if ( tmp*3 < HALL_HIGH*2 )
     8d4:	28 0f       	add	r18, r24
     8d6:	39 1f       	adc	r19, r25
     8d8:	28 35       	cpi	r18, 0x58	; 88
     8da:	32 40       	sbci	r19, 0x02	; 2
     8dc:	1c f4       	brge	.+6      	; 0x8e4 <showFieldStrength+0x5a>
            WingBar(3,3);
     8de:	63 e0       	ldi	r22, 0x03	; 3
     8e0:	83 e0       	ldi	r24, 0x03	; 3
     8e2:	08 c0       	rjmp	.+16     	; 0x8f4 <showFieldStrength+0x6a>
        else if ( tmp   < HALL_HIGH )
     8e4:	8c 32       	cpi	r24, 0x2C	; 44
     8e6:	91 40       	sbci	r25, 0x01	; 1
     8e8:	1c f4       	brge	.+6      	; 0x8f0 <showFieldStrength+0x66>
            WingBar(4,4);
     8ea:	64 e0       	ldi	r22, 0x04	; 4
     8ec:	84 e0       	ldi	r24, 0x04	; 4
     8ee:	02 c0       	rjmp	.+4      	; 0x8f4 <showFieldStrength+0x6a>
        else
            WingBar(5,5);
     8f0:	65 e0       	ldi	r22, 0x05	; 5
     8f2:	85 e0       	ldi	r24, 0x05	; 5
     8f4:	0f c7       	rjmp	.+3614   	; 0x1714 <WingBar>
     8f6:	08 95       	ret

000008f8 <MagnetMaze>:
    }
}

// Main game loop
uint8_t MagnetMaze(){
     8f8:	cf 93       	push	r28
     8fa:	df 93       	push	r29
    if (gameNow == MAZE && idleTimeout(mazeLastActive,MAZE_MAX_IDLE)) {
     8fc:	80 91 3c 38 	lds	r24, 0x383C	; 0x80383c <gameNow>
     900:	81 30       	cpi	r24, 0x01	; 1
     902:	71 f4       	brne	.+28     	; 0x920 <MagnetMaze+0x28>
     904:	6a e0       	ldi	r22, 0x0A	; 10
     906:	70 e0       	ldi	r23, 0x00	; 0
     908:	80 91 45 38 	lds	r24, 0x3845	; 0x803845 <mazeLastActive>
     90c:	90 91 46 38 	lds	r25, 0x3846	; 0x803846 <mazeLastActive+0x1>
     910:	0e 94 ce 0d 	call	0x1b9c	; 0x1b9c <idleTimeout>
     914:	88 23       	and	r24, r24
     916:	21 f0       	breq	.+8      	; 0x920 <MagnetMaze+0x28>
        /* clean up maze game and go back to text game */
        initMaze();
     918:	83 df       	rcall	.-250    	; 0x820 <initMaze>
        gameNow = TEXT;
     91a:	10 92 3c 38 	sts	0x383C, r1	; 0x80383c <gameNow>
        return 0;
     91e:	f4 c0       	rjmp	.+488    	; 0xb08 <MagnetMaze+0x210>
    }
        
    if (CheckState(MAZE_INACTIVE))
     920:	87 ef       	ldi	r24, 0xF7	; 247
     922:	1f d6       	rcall	.+3134   	; 0x1562 <CheckState>
     924:	81 11       	cpse	r24, r1
     926:	f0 c0       	rjmp	.+480    	; 0xb08 <MagnetMaze+0x210>
        return 0;

    if (CheckState(MAZE_COMPLETED))
     928:	8d e7       	ldi	r24, 0x7D	; 125
     92a:	1b d6       	rcall	.+3126   	; 0x1562 <CheckState>
     92c:	81 11       	cpse	r24, r1
     92e:	ec c0       	rjmp	.+472    	; 0xb08 <MagnetMaze+0x210>
     930:	80 91 3c 38 	lds	r24, 0x383C	; 0x80383c <gameNow>
        return 0;

    if ( (gameNow != TEXT) && (gameNow != MAZE) )
     934:	82 30       	cpi	r24, 0x02	; 2
     936:	08 f0       	brcs	.+2      	; 0x93a <MagnetMaze+0x42>
     938:	e7 c0       	rjmp	.+462    	; 0xb08 <MagnetMaze+0x210>
     93a:	80 91 f5 3a 	lds	r24, 0x3AF5	; 0x803af5 <calHall>
        return 0;

    if (calHall == 0)
     93e:	90 91 f6 3a 	lds	r25, 0x3AF6	; 0x803af6 <calHall+0x1>
     942:	89 2b       	or	r24, r25
     944:	41 f4       	brne	.+16     	; 0x956 <MagnetMaze+0x5e>
     946:	80 91 bd 3a 	lds	r24, 0x3ABD	; 0x803abd <adcHall>
        calHall = adcHall;
     94a:	90 91 be 3a 	lds	r25, 0x3ABE	; 0x803abe <adcHall+0x1>
     94e:	80 93 f5 3a 	sts	0x3AF5, r24	; 0x803af5 <calHall>
     952:	90 93 f6 3a 	sts	0x3AF6, r25	; 0x803af6 <calHall+0x1>
     956:	c0 91 bd 3a 	lds	r28, 0x3ABD	; 0x803abd <adcHall>

    int16_t valHall = adcHall - calHall;
     95a:	d0 91 be 3a 	lds	r29, 0x3ABE	; 0x803abe <adcHall+0x1>
     95e:	80 91 f5 3a 	lds	r24, 0x3AF5	; 0x803af5 <calHall>
     962:	90 91 f6 3a 	lds	r25, 0x3AF6	; 0x803af6 <calHall+0x1>
     966:	c8 1b       	sub	r28, r24
     968:	d9 0b       	sbc	r29, r25
    showFieldStrength(valHall);
     96a:	ce 01       	movw	r24, r28
     96c:	8e df       	rcall	.-228    	; 0x88a <showFieldStrength>
     96e:	80 91 4c 38 	lds	r24, 0x384C	; 0x80384c <curHallState>

    switch (curHallState) {
     972:	81 30       	cpi	r24, 0x01	; 1
     974:	89 f0       	breq	.+34     	; 0x998 <MagnetMaze+0xa0>
     976:	18 f0       	brcs	.+6      	; 0x97e <MagnetMaze+0x86>
     978:	82 30       	cpi	r24, 0x02	; 2
     97a:	c1 f0       	breq	.+48     	; 0x9ac <MagnetMaze+0xb4>
     97c:	1f c0       	rjmp	.+62     	; 0x9bc <MagnetMaze+0xc4>
     97e:	c4 3d       	cpi	r28, 0xD4	; 212
        case 0:
            if ( valHall + HALL_HIGH < 0 ) {
     980:	9e ef       	ldi	r25, 0xFE	; 254
     982:	d9 07       	cpc	r29, r25
     984:	14 f4       	brge	.+4      	; 0x98a <MagnetMaze+0x92>
     986:	91 e0       	ldi	r25, 0x01	; 1
                newHallState = 1;
     988:	04 c0       	rjmp	.+8      	; 0x992 <MagnetMaze+0x9a>
     98a:	cd 32       	cpi	r28, 0x2D	; 45
            } else if ( valHall - HALL_HIGH > 0 ) {
     98c:	d1 40       	sbci	r29, 0x01	; 1
     98e:	5c f0       	brlt	.+22     	; 0x9a6 <MagnetMaze+0xae>
     990:	92 e0       	ldi	r25, 0x02	; 2
                newHallState = 2;
     992:	90 93 4b 38 	sts	0x384B, r25	; 0x80384b <newHallState>
     996:	12 c0       	rjmp	.+36     	; 0x9bc <MagnetMaze+0xc4>
     998:	cd 32       	cpi	r28, 0x2D	; 45
                newHallState = 0;
            }
            break;
        
        case 1:
            if ( valHall - HALL_HIGH > 0 ) {
     99a:	91 e0       	ldi	r25, 0x01	; 1
     99c:	d9 07       	cpc	r29, r25
     99e:	c4 f7       	brge	.-16     	; 0x990 <MagnetMaze+0x98>
     9a0:	c9 38       	cpi	r28, 0x89	; 137
                newHallState = 2;
            } else if ( valHall + HALL_LOW > 0 ) {
     9a2:	df 4f       	sbci	r29, 0xFF	; 255
     9a4:	84 f3       	brlt	.-32     	; 0x986 <MagnetMaze+0x8e>
     9a6:	10 92 4b 38 	sts	0x384B, r1	; 0x80384b <newHallState>
            if ( valHall + HALL_HIGH < 0 ) {
                newHallState = 1;
            } else if ( valHall - HALL_HIGH > 0 ) {
                newHallState = 2;
            } else {
                newHallState = 0;
     9aa:	08 c0       	rjmp	.+16     	; 0x9bc <MagnetMaze+0xc4>
     9ac:	c4 3d       	cpi	r28, 0xD4	; 212
                newHallState = 1;
            }
            break;
        
        case 2:
            if ( valHall + HALL_HIGH < 0 ) {
     9ae:	9e ef       	ldi	r25, 0xFE	; 254
     9b0:	d9 07       	cpc	r29, r25
     9b2:	4c f3       	brlt	.-46     	; 0x986 <MagnetMaze+0x8e>
     9b4:	c8 37       	cpi	r28, 0x78	; 120
                newHallState = 1;
            } else if ( valHall - HALL_LOW < 0 ) {
     9b6:	d1 05       	cpc	r29, r1
     9b8:	b4 f3       	brlt	.-20     	; 0x9a6 <MagnetMaze+0xae>
     9ba:	ea cf       	rjmp	.-44     	; 0x990 <MagnetMaze+0x98>
     9bc:	c0 91 64 be 	lds	r28, 0xBE64	; 0x80be64 <__bss_end+0x8348>
            }
            break;
    }

    /* Indicate that the magnet was read succesfully */
    iLED[CAT] = (newHallState ? dimValue : 0);
     9c0:	ec 2f       	mov	r30, r28
     9c2:	f0 e0       	ldi	r31, 0x00	; 0
     9c4:	90 91 4b 38 	lds	r25, 0x384B	; 0x80384b <newHallState>
     9c8:	99 23       	and	r25, r25
     9ca:	19 f0       	breq	.+6      	; 0x9d2 <MagnetMaze+0xda>
     9cc:	20 91 0b 38 	lds	r18, 0x380B	; 0x80380b <dimValue>
     9d0:	01 c0       	rjmp	.+2      	; 0x9d4 <MagnetMaze+0xdc>
     9d2:	20 e0       	ldi	r18, 0x00	; 0
     9d4:	e4 53       	subi	r30, 0x34	; 52
     9d6:	f5 4c       	sbci	r31, 0xC5	; 197
     9d8:	20 83       	st	Z, r18
     9da:	89 17       	cp	r24, r25

    if (newHallState != curHallState) {
     9dc:	09 f4       	brne	.+2      	; 0x9e0 <MagnetMaze+0xe8>
     9de:	94 c0       	rjmp	.+296    	; 0xb08 <MagnetMaze+0x210>
     9e0:	0e 94 bf 0d 	call	0x1b7e	; 0x1b7e <getClock>
        /* keep track of time to enable an idle timeout to exit the game */
        mazeLastActive = getClock();
     9e4:	80 93 45 38 	sts	0x3845, r24	; 0x803845 <mazeLastActive>
     9e8:	90 93 46 38 	sts	0x3846, r25	; 0x803846 <mazeLastActive+0x1>
     9ec:	20 91 4a 38 	lds	r18, 0x384A	; 0x80384a <mazePos>

        /* Make the maze work regardless of badge orientation */
        if ((mazePos == 0) && (newHallState != 0))
     9f0:	80 91 4b 38 	lds	r24, 0x384B	; 0x80384b <newHallState>
     9f4:	21 11       	cpse	r18, r1
     9f6:	08 c0       	rjmp	.+16     	; 0xa08 <MagnetMaze+0x110>
     9f8:	88 23       	and	r24, r24
     9fa:	31 f0       	breq	.+12     	; 0xa08 <MagnetMaze+0x110>
     9fc:	91 e0       	ldi	r25, 0x01	; 1
            inverted = (newHallState != mazeCode[0]) ? TRUE : FALSE;
     9fe:	81 30       	cpi	r24, 0x01	; 1
     a00:	09 f4       	brne	.+2      	; 0xa04 <MagnetMaze+0x10c>
     a02:	90 e0       	ldi	r25, 0x00	; 0
     a04:	90 93 47 38 	sts	0x3847, r25	; 0x803847 <inverted>
     a08:	80 93 4c 38 	sts	0x384C, r24	; 0x80384c <curHallState>

        curHallState = newHallState;
     a0c:	88 23       	and	r24, r24
        
        if (curHallState != 0) {
     a0e:	09 f4       	brne	.+2      	; 0xa12 <MagnetMaze+0x11a>
     a10:	7b c0       	rjmp	.+246    	; 0xb08 <MagnetMaze+0x210>
     a12:	91 e0       	ldi	r25, 0x01	; 1
            gameNow = MAZE;
     a14:	90 93 3c 38 	sts	0x383C, r25	; 0x80383c <gameNow>
     a18:	90 91 47 38 	lds	r25, 0x3847	; 0x803847 <inverted>
            if ( (inverted ? curHallState^3 : curHallState) == mazeCode[mazePos]) {
     a1c:	99 23       	and	r25, r25
     a1e:	11 f0       	breq	.+4      	; 0xa24 <MagnetMaze+0x12c>
     a20:	93 e0       	ldi	r25, 0x03	; 3
     a22:	89 27       	eor	r24, r25
     a24:	90 e0       	ldi	r25, 0x00	; 0
     a26:	e2 2f       	mov	r30, r18
     a28:	f0 e0       	ldi	r31, 0x00	; 0
     a2a:	ee 55       	subi	r30, 0x5E	; 94
     a2c:	f1 44       	sbci	r31, 0x41	; 65
     a2e:	40 81       	ld	r20, Z
     a30:	50 e0       	ldi	r21, 0x00	; 0
     a32:	84 17       	cp	r24, r20
     a34:	95 07       	cpc	r25, r21
     a36:	91 f4       	brne	.+36     	; 0xa5c <MagnetMaze+0x164>
     a38:	80 91 0c 38 	lds	r24, 0x380C	; 0x80380c <mazeState>
                mazeState &= TRUE;
     a3c:	81 70       	andi	r24, 0x01	; 1
     a3e:	80 93 0c 38 	sts	0x380C, r24	; 0x80380c <mazeState>
     a42:	e0 91 73 be 	lds	r30, 0xBE73	; 0x80be73 <__bss_end+0x8357>
                iLED[EYE[R][L]] = 0;
     a46:	f0 e0       	ldi	r31, 0x00	; 0
     a48:	e4 53       	subi	r30, 0x34	; 52
     a4a:	f5 4c       	sbci	r31, 0xC5	; 197
     a4c:	10 82       	st	Z, r1
     a4e:	e0 91 72 be 	lds	r30, 0xBE72	; 0x80be72 <__bss_end+0x8356>
                iLED[EYE[R][R]] = 0;
     a52:	f0 e0       	ldi	r31, 0x00	; 0
     a54:	e4 53       	subi	r30, 0x34	; 52
     a56:	f5 4c       	sbci	r31, 0xC5	; 197
     a58:	10 82       	st	Z, r1
     a5a:	02 c0       	rjmp	.+4      	; 0xa60 <MagnetMaze+0x168>
     a5c:	10 92 0c 38 	sts	0x380C, r1	; 0x80380c <mazeState>
            } else {
                mazeState = FALSE;
     a60:	2f 5f       	subi	r18, 0xFF	; 255
                /* TODO play tone BAD */
            }
            mazePos++;
     a62:	20 93 4a 38 	sts	0x384A, r18	; 0x80384a <mazePos>
     a66:	80 91 48 38 	lds	r24, 0x3848	; 0x803848 <mazeCnt>
            mazeCnt++;            
     a6a:	8f 5f       	subi	r24, 0xFF	; 255
     a6c:	83 30       	cpi	r24, 0x03	; 3
            if (mazeCnt >= 3) {
     a6e:	18 f4       	brcc	.+6      	; 0xa76 <MagnetMaze+0x17e>
     a70:	80 93 48 38 	sts	0x3848, r24	; 0x803848 <mazeCnt>
            } else {
                mazeState = FALSE;
                /* TODO play tone BAD */
            }
            mazePos++;
            mazeCnt++;            
     a74:	49 c0       	rjmp	.+146    	; 0xb08 <MagnetMaze+0x210>
     a76:	10 92 48 38 	sts	0x3848, r1	; 0x803848 <mazeCnt>
            if (mazeCnt >= 3) {
                mazeCnt = 0;
     a7a:	80 91 0c 38 	lds	r24, 0x380C	; 0x80380c <mazeState>
                if (mazeState == TRUE) {
     a7e:	81 30       	cpi	r24, 0x01	; 1
     a80:	81 f5       	brne	.+96     	; 0xae2 <MagnetMaze+0x1ea>
     a82:	80 91 49 38 	lds	r24, 0x3849	; 0x803849 <mazeHckrPos>
                    /* TODO play tone GOOD */
                    iLED[HCKR[G][mazeHckrPos]] = dimValue;
     a86:	e8 2f       	mov	r30, r24
     a88:	f0 e0       	ldi	r31, 0x00	; 0
     a8a:	ea 58       	subi	r30, 0x8A	; 138
     a8c:	f1 44       	sbci	r31, 0x41	; 65
     a8e:	e6 81       	ldd	r30, Z+6	; 0x06
     a90:	f0 e0       	ldi	r31, 0x00	; 0
     a92:	90 91 0b 38 	lds	r25, 0x380B	; 0x80380b <dimValue>
     a96:	e4 53       	subi	r30, 0x34	; 52
     a98:	f5 4c       	sbci	r31, 0xC5	; 197
     a9a:	90 83       	st	Z, r25
     a9c:	8f 5f       	subi	r24, 0xFF	; 255
                    mazeHckrPos++;
     a9e:	80 93 49 38 	sts	0x3849, r24	; 0x803849 <mazeHckrPos>
                    if (mazePos == sizeof(mazeCode)) {
     aa2:	22 31       	cpi	r18, 0x12	; 18
     aa4:	89 f5       	brne	.+98     	; 0xb08 <MagnetMaze+0x210>
                        UpdateState(MAZE_COMPLETED);
     aa6:	8d e7       	ldi	r24, 0x7D	; 125
     aa8:	52 d5       	rcall	.+2724   	; 0x154e <UpdateState>
     aaa:	ec 2f       	mov	r30, r28
                        iLED[CAT]       = 0;
     aac:	f0 e0       	ldi	r31, 0x00	; 0
     aae:	e4 53       	subi	r30, 0x34	; 52
     ab0:	f5 4c       	sbci	r31, 0xC5	; 197
     ab2:	10 82       	st	Z, r1
     ab4:	e0 91 73 be 	lds	r30, 0xBE73	; 0x80be73 <__bss_end+0x8357>
                        iLED[EYE[R][L]] = 0;
     ab8:	f0 e0       	ldi	r31, 0x00	; 0
     aba:	e4 53       	subi	r30, 0x34	; 52
     abc:	f5 4c       	sbci	r31, 0xC5	; 197
     abe:	10 82       	st	Z, r1
     ac0:	e0 91 72 be 	lds	r30, 0xBE72	; 0x80be72 <__bss_end+0x8356>
                        iLED[EYE[R][R]] = 0;
     ac4:	f0 e0       	ldi	r31, 0x00	; 0
     ac6:	e4 53       	subi	r30, 0x34	; 52
     ac8:	f5 4c       	sbci	r31, 0xC5	; 197
     aca:	10 82       	st	Z, r1
     acc:	e0 91 75 be 	lds	r30, 0xBE75	; 0x80be75 <__bss_end+0x8359>
                        iLED[EYE[G][L]] = dimValue;
     ad0:	f0 e0       	ldi	r31, 0x00	; 0
     ad2:	80 91 0b 38 	lds	r24, 0x380B	; 0x80380b <dimValue>
     ad6:	e4 53       	subi	r30, 0x34	; 52
     ad8:	f5 4c       	sbci	r31, 0xC5	; 197
     ada:	80 83       	st	Z, r24
                        iLED[EYE[G][R]] = dimValue;
     adc:	e0 91 74 be 	lds	r30, 0xBE74	; 0x80be74 <__bss_end+0x8358>
     ae0:	0d c0       	rjmp	.+26     	; 0xafc <MagnetMaze+0x204>
                        /*state = STATE_MUSIC;*/
                    }
                } else {
                    initMaze();
     ae2:	9e de       	rcall	.-708    	; 0x820 <initMaze>
     ae4:	10 92 3c 38 	sts	0x383C, r1	; 0x80383c <gameNow>
                    gameNow   = TEXT;
     ae8:	e0 91 73 be 	lds	r30, 0xBE73	; 0x80be73 <__bss_end+0x8357>
                    iLED[EYE[R][L]] = dimValue;
     aec:	f0 e0       	ldi	r31, 0x00	; 0
     aee:	80 91 0b 38 	lds	r24, 0x380B	; 0x80380b <dimValue>
     af2:	e4 53       	subi	r30, 0x34	; 52
     af4:	f5 4c       	sbci	r31, 0xC5	; 197
     af6:	80 83       	st	Z, r24
     af8:	e0 91 72 be 	lds	r30, 0xBE72	; 0x80be72 <__bss_end+0x8356>
                    iLED[EYE[R][R]] = dimValue;
     afc:	f0 e0       	ldi	r31, 0x00	; 0
     afe:	80 91 0b 38 	lds	r24, 0x380B	; 0x80380b <dimValue>
     b02:	e4 53       	subi	r30, 0x34	; 52
     b04:	f5 4c       	sbci	r31, 0xC5	; 197
     b06:	80 83       	st	Z, r24
     b08:	80 e0       	ldi	r24, 0x00	; 0
                }
            }
        }
    }
    return 0;
}
     b0a:	df 91       	pop	r29
     b0c:	cf 91       	pop	r28
     b0e:	08 95       	ret

00000b10 <Setup>:
volatile uint16_t tmp16bit;    
volatile uint8_t mask[8] = {0x01, 0x03, 0x07, 0x0f, 0x1f, 0x3f, 0x7f, 0xff};
uint8_t HeartCount = 0;
uint8_t LedCount = 0;

void Setup(){
     b10:	cf 93       	push	r28
     b12:	df 93       	push	r29
    cli();
     b14:	f8 94       	cli

    //Set up clock at 10MHz
    CCP = CCP_IOREG_gc;
     b16:	88 ed       	ldi	r24, 0xD8	; 216
     b18:	84 bf       	out	0x34, r24	; 52
    CLKCTRL_MCLKCTRLB = 0x01;
     b1a:	c1 e0       	ldi	r28, 0x01	; 1
     b1c:	c0 93 61 00 	sts	0x0061, r28	; 0x800061 <__TEXT_REGION_LENGTH__+0x700061>

    //Set I/O direction registers
    PORTA_DIR = 0b01001010;
     b20:	8a e4       	ldi	r24, 0x4A	; 74
     b22:	80 93 00 04 	sts	0x0400, r24	; 0x800400 <__TEXT_REGION_LENGTH__+0x700400>
    PORTB_DIR = 0b01111100;
     b26:	8c e7       	ldi	r24, 0x7C	; 124
     b28:	80 93 20 04 	sts	0x0420, r24	; 0x800420 <__TEXT_REGION_LENGTH__+0x700420>
    PORTC_DIR = 0b00111111;
     b2c:	9f e3       	ldi	r25, 0x3F	; 63
     b2e:	90 93 40 04 	sts	0x0440, r25	; 0x800440 <__TEXT_REGION_LENGTH__+0x700440>

    //Invert some pins for correcting LED reversal error
    PORTC_PIN3CTRL |= 0x80;
     b32:	80 91 53 04 	lds	r24, 0x0453	; 0x800453 <__TEXT_REGION_LENGTH__+0x700453>
     b36:	80 68       	ori	r24, 0x80	; 128
     b38:	80 93 53 04 	sts	0x0453, r24	; 0x800453 <__TEXT_REGION_LENGTH__+0x700453>
    PORTC_PIN4CTRL |= 0x80;
     b3c:	80 91 54 04 	lds	r24, 0x0454	; 0x800454 <__TEXT_REGION_LENGTH__+0x700454>
     b40:	80 68       	ori	r24, 0x80	; 128
     b42:	80 93 54 04 	sts	0x0454, r24	; 0x800454 <__TEXT_REGION_LENGTH__+0x700454>
    PORTC_PIN5CTRL |= 0x80;
     b46:	80 91 55 04 	lds	r24, 0x0455	; 0x800455 <__TEXT_REGION_LENGTH__+0x700455>
     b4a:	80 68       	ori	r24, 0x80	; 128
     b4c:	80 93 55 04 	sts	0x0455, r24	; 0x800455 <__TEXT_REGION_LENGTH__+0x700455>
    PORTB_PIN3CTRL |= 0x80;
     b50:	80 91 33 04 	lds	r24, 0x0433	; 0x800433 <__TEXT_REGION_LENGTH__+0x700433>
     b54:	80 68       	ori	r24, 0x80	; 128
     b56:	80 93 33 04 	sts	0x0433, r24	; 0x800433 <__TEXT_REGION_LENGTH__+0x700433>
    PORTB_PIN4CTRL |= 0x80;
     b5a:	80 91 34 04 	lds	r24, 0x0434	; 0x800434 <__TEXT_REGION_LENGTH__+0x700434>
     b5e:	80 68       	ori	r24, 0x80	; 128
     b60:	80 93 34 04 	sts	0x0434, r24	; 0x800434 <__TEXT_REGION_LENGTH__+0x700434>
    PORTB_PIN5CTRL |= 0x80;
     b64:	80 91 35 04 	lds	r24, 0x0435	; 0x800435 <__TEXT_REGION_LENGTH__+0x700435>
     b68:	80 68       	ori	r24, 0x80	; 128
     b6a:	80 93 35 04 	sts	0x0435, r24	; 0x800435 <__TEXT_REGION_LENGTH__+0x700435>
    PORTB_PIN2CTRL |= 0x80;
    PORTB_PIN6CTRL |= 0x80;
    */

    //UART (Alternative pins PA1=TxD, PA2=RxD, baudrate 9600, 8n1, RX and Buffer empty interrupts on)
    PORTMUX_CTRLB = 0x01;
     b6e:	c0 93 01 02 	sts	0x0201, r28	; 0x800201 <__TEXT_REGION_LENGTH__+0x700201>
    PORTA_OUTSET = 0x02;
     b72:	d2 e0       	ldi	r29, 0x02	; 2
     b74:	d0 93 05 04 	sts	0x0405, r29	; 0x800405 <__TEXT_REGION_LENGTH__+0x700405>
    USART0_BAUD = (uint16_t)USART0_BAUD_RATE(115200);
     b78:	2b e5       	ldi	r18, 0x5B	; 91
     b7a:	31 e0       	ldi	r19, 0x01	; 1
     b7c:	20 93 08 08 	sts	0x0808, r18	; 0x800808 <__TEXT_REGION_LENGTH__+0x700808>
     b80:	30 93 09 08 	sts	0x0809, r19	; 0x800809 <__TEXT_REGION_LENGTH__+0x700809>
    USART0_CTRLA = 0xA0; //Interrupts on
     b84:	80 ea       	ldi	r24, 0xA0	; 160
     b86:	80 93 05 08 	sts	0x0805, r24	; 0x800805 <__TEXT_REGION_LENGTH__+0x700805>
    USART0_CTRLB = 0xC0; //RX and TX on
     b8a:	80 ec       	ldi	r24, 0xC0	; 192
     b8c:	80 93 06 08 	sts	0x0806, r24	; 0x800806 <__TEXT_REGION_LENGTH__+0x700806>
    USART0_CTRLC = 0x03; //8 bits data, no parity, 1 stop bit
     b90:	83 e0       	ldi	r24, 0x03	; 3
     b92:	80 93 07 08 	sts	0x0807, r24	; 0x800807 <__TEXT_REGION_LENGTH__+0x700807>
     
    //GPIO registers 0..3 can be used for global variables used in ISR routines (ASM capability: IN, OUT, SBI, CBI, SBIS, SBIC)
    L_COL = 0;     //Used in LED array to hold currently driven column value
     b96:	1c ba       	out	0x1c, r1	; 28
    RXCNT = 0;     //Used as UART receive counter
     b98:	1d ba       	out	0x1d, r1	; 29
    AUPOS = 0;     //Used as audio input/output buffer counter
     b9a:	1e ba       	out	0x1e, r1	; 30
    GPIOR3 = 0;    //
     b9c:	1f ba       	out	0x1f, r1	; 31

    //Init TCA (split mode, f_CLK/16, PWM on 6 alternative pins, underflow int enabled, synced and started)
    TCA0_SPLIT_CTRLD = 1;
     b9e:	c0 93 03 0a 	sts	0x0A03, r28	; 0x800a03 <__TEXT_REGION_LENGTH__+0x700a03>
    TCA0_SPLIT_CTRLA = (0x4)<<1;
     ba2:	88 e0       	ldi	r24, 0x08	; 8
     ba4:	80 93 00 0a 	sts	0x0A00, r24	; 0x800a00 <__TEXT_REGION_LENGTH__+0x700a00>
    PORTMUX_CTRLC = 0x3F;
     ba8:	90 93 02 02 	sts	0x0202, r25	; 0x800202 <__TEXT_REGION_LENGTH__+0x700202>
    TCA0_SPLIT_CTRLB = 0x77;
     bac:	87 e7       	ldi	r24, 0x77	; 119
     bae:	80 93 01 0a 	sts	0x0A01, r24	; 0x800a01 <__TEXT_REGION_LENGTH__+0x700a01>
    TCA0_SPLIT_INTCTRL = 0x1;
     bb2:	c0 93 0a 0a 	sts	0x0A0A, r28	; 0x800a0a <__TEXT_REGION_LENGTH__+0x700a0a>
    TCA0_SPLIT_CTRLESET = ((0x2)<<2)|0x3;
     bb6:	8b e0       	ldi	r24, 0x0B	; 11
     bb8:	80 93 05 0a 	sts	0x0A05, r24	; 0x800a05 <__TEXT_REGION_LENGTH__+0x700a05>
    TCA0_SPLIT_CTRLA |= 1;
     bbc:	80 91 00 0a 	lds	r24, 0x0A00	; 0x800a00 <__TEXT_REGION_LENGTH__+0x700a00>
     bc0:	81 60       	ori	r24, 0x01	; 1
     bc2:	80 93 00 0a 	sts	0x0A00, r24	; 0x800a00 <__TEXT_REGION_LENGTH__+0x700a00>
     
    //Init TCB0 (compare value sets serial Tx pause between characters, uses TCA0 prescaler, enabled, interrupt disabled)
    TCB0_CTRLA = ((0x02)<<1)|0x01;
     bc6:	85 e0       	ldi	r24, 0x05	; 5
     bc8:	80 93 40 0a 	sts	0x0A40, r24	; 0x800a40 <__TEXT_REGION_LENGTH__+0x700a40>
    TCB0_CTRLB = 0;
     bcc:	10 92 41 0a 	sts	0x0A41, r1	; 0x800a41 <__TEXT_REGION_LENGTH__+0x700a41>
    TCB0_CCMP = 0x01FF;
     bd0:	8f ef       	ldi	r24, 0xFF	; 255
     bd2:	91 e0       	ldi	r25, 0x01	; 1
     bd4:	80 93 4c 0a 	sts	0x0A4C, r24	; 0x800a4c <__TEXT_REGION_LENGTH__+0x700a4c>
     bd8:	90 93 4d 0a 	sts	0x0A4D, r25	; 0x800a4d <__TEXT_REGION_LENGTH__+0x700a4d>
    TCB0_INTCTRL = 0x00;     
     bdc:	10 92 45 0a 	sts	0x0A45, r1	; 0x800a45 <__TEXT_REGION_LENGTH__+0x700a45>
     
    //Init TCB1 (compare value sets audio sample rate (0x038B = 11025sps), enabled, interrupt enabled)
    TCB1_CTRLA = 0x01;
     be0:	c0 93 50 0a 	sts	0x0A50, r28	; 0x800a50 <__TEXT_REGION_LENGTH__+0x700a50>
    TCB1_CTRLB = 0;
     be4:	10 92 51 0a 	sts	0x0A51, r1	; 0x800a51 <__TEXT_REGION_LENGTH__+0x700a51>
    TCB1_CCMP = 0x038B;
     be8:	8b e8       	ldi	r24, 0x8B	; 139
     bea:	93 e0       	ldi	r25, 0x03	; 3
     bec:	80 93 5c 0a 	sts	0x0A5C, r24	; 0x800a5c <__TEXT_REGION_LENGTH__+0x700a5c>
     bf0:	90 93 5d 0a 	sts	0x0A5D, r25	; 0x800a5d <__TEXT_REGION_LENGTH__+0x700a5d>
    TCB1_INTCTRL = 0x01;
     bf4:	c0 93 55 0a 	sts	0x0A55, r28	; 0x800a55 <__TEXT_REGION_LENGTH__+0x700a55>

    //Init I2C (100kHz)
    I2C_init();
     bf8:	bd db       	rcall	.-2182   	; 0x374 <I2C_init>

    //VREF (DAC, ADC's)
    VREF_CTRLA   = 0x12;    //0x22 for audio in/out (2.5V), 0x12 for temperature in, audio out (1.1V/2.5V)
     bfa:	82 e1       	ldi	r24, 0x12	; 18
     bfc:	80 93 a0 00 	sts	0x00A0, r24	; 0x8000a0 <__TEXT_REGION_LENGTH__+0x7000a0>
    VREF_CTRLC   = 0x20;    //ADC1 reference at 2.5V
     c00:	80 e2       	ldi	r24, 0x20	; 32
     c02:	80 93 a2 00 	sts	0x00A2, r24	; 0x8000a2 <__TEXT_REGION_LENGTH__+0x7000a2>
    VREF_CTRLB   = 0x01;    //DAC0 ref forced enabled
     c06:	c0 93 a1 00 	sts	0x00A1, r28	; 0x8000a1 <__TEXT_REGION_LENGTH__+0x7000a1>

    //Init ADC0 (audio in, also controls DAC output rate, internal temperature?)
    ADC0_CTRLA   = 0x02;    //10 bit resolution, free running
     c0a:	d0 93 00 06 	sts	0x0600, r29	; 0x800600 <__TEXT_REGION_LENGTH__+0x700600>
    ADC0_CTRLC   = 0x44;    //Reduced sample capacitor, internal reference, clock/32 => 24038sps
     c0e:	84 e4       	ldi	r24, 0x44	; 68
     c10:	80 93 02 06 	sts	0x0602, r24	; 0x800602 <__TEXT_REGION_LENGTH__+0x700602>
    ADC0_MUXPOS  = 0x1E;    //Audio in: AIN7 at (0x07), Temperature: Internal sensor at (0x1E)
     c14:	8e e1       	ldi	r24, 0x1E	; 30
     c16:	80 93 06 06 	sts	0x0606, r24	; 0x800606 <__TEXT_REGION_LENGTH__+0x700606>
    ADC0_INTCTRL = 0x01;    //Result ready interrupt enabled
     c1a:	c0 93 0a 06 	sts	0x060A, r28	; 0x80060a <__TEXT_REGION_LENGTH__+0x70060a>
    ADC0_CTRLA  |= 0x01;    //ADC0 enabled
     c1e:	80 91 00 06 	lds	r24, 0x0600	; 0x800600 <__TEXT_REGION_LENGTH__+0x700600>
     c22:	81 60       	ori	r24, 0x01	; 1
     c24:	80 93 00 06 	sts	0x0600, r24	; 0x800600 <__TEXT_REGION_LENGTH__+0x700600>
    ADC0_COMMAND = 0x01;    //Start first conversion, after that it will run periodically.
     c28:	c0 93 08 06 	sts	0x0608, r28	; 0x800608 <__TEXT_REGION_LENGTH__+0x700608>

    //Init ADC1 (buttons and sensors: CH0=Photo transistor, CH1=Hall, CH4=Buttons)
    ADC1_CTRLA   = 0;
     c2c:	10 92 40 06 	sts	0x0640, r1	; 0x800640 <__TEXT_REGION_LENGTH__+0x700640>
    ADC1_CTRLB   = 0x02;    //4 results automatically accumulated
     c30:	d0 93 41 06 	sts	0x0641, r29	; 0x800641 <__TEXT_REGION_LENGTH__+0x700641>
    ADC1_CTRLC   = 0x52;    //Reduced sample capacitor, VDD as reference, clock/8
     c34:	82 e5       	ldi	r24, 0x52	; 82
     c36:	80 93 42 06 	sts	0x0642, r24	; 0x800642 <__TEXT_REGION_LENGTH__+0x700642>
    ADC1_SAMPCTRL= 0x04;    //Extend sampling time with 4 cycles (6 total)
     c3a:	84 e0       	ldi	r24, 0x04	; 4
     c3c:	80 93 45 06 	sts	0x0645, r24	; 0x800645 <__TEXT_REGION_LENGTH__+0x700645>
    ADC1_MUXPOS  = 0x04;    //Start with Buttons, for sensors, activate sensor power first.
     c40:	80 93 46 06 	sts	0x0646, r24	; 0x800646 <__TEXT_REGION_LENGTH__+0x700646>
    ADC1_INTCTRL = 0x01;    //Result ready interrupt enabled
     c44:	c0 93 4a 06 	sts	0x064A, r28	; 0x80064a <__TEXT_REGION_LENGTH__+0x70064a>
    ADC1_CTRLA  |= 0x01;    //ADC0 enabled
     c48:	80 91 40 06 	lds	r24, 0x0640	; 0x800640 <__TEXT_REGION_LENGTH__+0x700640>
     c4c:	81 60       	ori	r24, 0x01	; 1
     c4e:	80 93 40 06 	sts	0x0640, r24	; 0x800640 <__TEXT_REGION_LENGTH__+0x700640>
    ADC1_COMMAND = 0x01;    //Start single conversion
     c52:	c0 93 48 06 	sts	0x0648, r28	; 0x800648 <__TEXT_REGION_LENGTH__+0x700648>

    //Init DAC0
    DAC0_CTRLA = 0x40;     //Enable output buffer (connect to pin)
     c56:	80 e4       	ldi	r24, 0x40	; 64
     c58:	80 93 a0 06 	sts	0x06A0, r24	; 0x8006a0 <__TEXT_REGION_LENGTH__+0x7006a0>
    DAC0_DATA = 0x80;      //Data value at half point (about 1.25V)
     c5c:	80 e8       	ldi	r24, 0x80	; 128
     c5e:	80 93 a1 06 	sts	0x06A1, r24	; 0x8006a1 <__TEXT_REGION_LENGTH__+0x7006a1>
    DAC0_CTRLA |= 0x01;    //Enable DAC
     c62:	80 91 a0 06 	lds	r24, 0x06A0	; 0x8006a0 <__TEXT_REGION_LENGTH__+0x7006a0>
     c66:	81 60       	ori	r24, 0x01	; 1
     c68:	80 93 a0 06 	sts	0x06A0, r24	; 0x8006a0 <__TEXT_REGION_LENGTH__+0x7006a0>
     
    //PIT and RTC interrupts
    while(RTC_STATUS & RTC_CTRLABUSY_bm);
     c6c:	80 91 41 01 	lds	r24, 0x0141	; 0x800141 <__TEXT_REGION_LENGTH__+0x700141>
     c70:	80 fd       	sbrc	r24, 0
     c72:	fc cf       	rjmp	.-8      	; 0xc6c <Setup+0x15c>
    RTC_CTRLA          = (0x6)<<3;                         //Prescaler: /64
     c74:	80 e3       	ldi	r24, 0x30	; 48
     c76:	80 93 40 01 	sts	0x0140, r24	; 0x800140 <__TEXT_REGION_LENGTH__+0x700140>
    RTC_CLKSEL         = 0;                                //Clock source: internal 32768Hz clock
     c7a:	10 92 47 01 	sts	0x0147, r1	; 0x800147 <__TEXT_REGION_LENGTH__+0x700147>
    while(RTC_STATUS & RTC_PERBUSY_bm);
     c7e:	80 91 41 01 	lds	r24, 0x0141	; 0x800141 <__TEXT_REGION_LENGTH__+0x700141>
     c82:	82 fd       	sbrc	r24, 2
     c84:	fc cf       	rjmp	.-8      	; 0xc7e <Setup+0x16e>
    RTC_PER            = 512*60;                           //60 second period (for clocking how long the device has been running?)
     c86:	80 e0       	ldi	r24, 0x00	; 0
     c88:	98 e7       	ldi	r25, 0x78	; 120
     c8a:	80 93 4a 01 	sts	0x014A, r24	; 0x80014a <__TEXT_REGION_LENGTH__+0x70014a>
     c8e:	90 93 4b 01 	sts	0x014B, r25	; 0x80014b <__TEXT_REGION_LENGTH__+0x70014b>
    tmp16bit = (RTC_CNT + BTN_TMR)%RTC_PER;
     c92:	80 91 48 01 	lds	r24, 0x0148	; 0x800148 <__TEXT_REGION_LENGTH__+0x700148>
     c96:	90 91 49 01 	lds	r25, 0x0149	; 0x800149 <__TEXT_REGION_LENGTH__+0x700149>
     c9a:	60 91 4a 01 	lds	r22, 0x014A	; 0x80014a <__TEXT_REGION_LENGTH__+0x70014a>
     c9e:	70 91 4b 01 	lds	r23, 0x014B	; 0x80014b <__TEXT_REGION_LENGTH__+0x70014b>
     ca2:	82 96       	adiw	r24, 0x22	; 34
     ca4:	0e 94 f5 1e 	call	0x3dea	; 0x3dea <__udivmodhi4>
     ca8:	80 93 f9 3a 	sts	0x3AF9, r24	; 0x803af9 <tmp16bit>
     cac:	90 93 fa 3a 	sts	0x3AFA, r25	; 0x803afa <tmp16bit+0x1>
    while(RTC_STATUS & RTC_CMPBUSY_bm);
     cb0:	80 91 41 01 	lds	r24, 0x0141	; 0x800141 <__TEXT_REGION_LENGTH__+0x700141>
     cb4:	83 fd       	sbrc	r24, 3
     cb6:	fc cf       	rjmp	.-8      	; 0xcb0 <Setup+0x1a0>
    RTC_CMP            = tmp16bit;                         //Button timing
     cb8:	80 91 f9 3a 	lds	r24, 0x3AF9	; 0x803af9 <tmp16bit>
     cbc:	90 91 fa 3a 	lds	r25, 0x3AFA	; 0x803afa <tmp16bit+0x1>
     cc0:	80 93 4c 01 	sts	0x014C, r24	; 0x80014c <__TEXT_REGION_LENGTH__+0x70014c>
     cc4:	90 93 4d 01 	sts	0x014D, r25	; 0x80014d <__TEXT_REGION_LENGTH__+0x70014d>
    RTC_INTCTRL        = 0x03;                             //RTC overflow interrupt enabled
     cc8:	83 e0       	ldi	r24, 0x03	; 3
     cca:	80 93 42 01 	sts	0x0142, r24	; 0x800142 <__TEXT_REGION_LENGTH__+0x700142>
    RTC_PITINTCTRL     = 0x01;                             //PIT interrupt enabled
     cce:	81 e0       	ldi	r24, 0x01	; 1
     cd0:	80 93 52 01 	sts	0x0152, r24	; 0x800152 <__TEXT_REGION_LENGTH__+0x700152>
    RTC_PITCTRLA       = (0x1)<<3;                         //Interrupt fires after 4 RTC clock cycles Rate=(RTCCLK/(PRESC*PERIOD)) 32768/256=128Hz
     cd4:	88 e0       	ldi	r24, 0x08	; 8
     cd6:	80 93 50 01 	sts	0x0150, r24	; 0x800150 <__TEXT_REGION_LENGTH__+0x700150>
    while(RTC_STATUS & RTC_CTRLABUSY_bm);      
     cda:	80 91 41 01 	lds	r24, 0x0141	; 0x800141 <__TEXT_REGION_LENGTH__+0x700141>
     cde:	80 fd       	sbrc	r24, 0
     ce0:	fc cf       	rjmp	.-8      	; 0xcda <Setup+0x1ca>
    RTC_CTRLA          |= 0x01;                            //Enable RTC
     ce2:	80 91 40 01 	lds	r24, 0x0140	; 0x800140 <__TEXT_REGION_LENGTH__+0x700140>
     ce6:	81 60       	ori	r24, 0x01	; 1
     ce8:	80 93 40 01 	sts	0x0140, r24	; 0x800140 <__TEXT_REGION_LENGTH__+0x700140>
    RTC_PITCTRLA       |= 0x01;                            //Enable PIT
     cec:	80 91 50 01 	lds	r24, 0x0150	; 0x800150 <__TEXT_REGION_LENGTH__+0x700150>
     cf0:	81 60       	ori	r24, 0x01	; 1
     cf2:	80 93 50 01 	sts	0x0150, r24	; 0x800150 <__TEXT_REGION_LENGTH__+0x700150>
     
    //Other inits
    serRx[0] = 0;           // Empty Rx buffer (first char is enough)
     cf6:	10 92 77 3a 	sts	0x3A77, r1	; 0x803a77 <serRx>
    serTxAddr = &serRx[0];  // Point to first address of the Rx buffer
     cfa:	87 e7       	ldi	r24, 0x77	; 119
     cfc:	9a e3       	ldi	r25, 0x3A	; 58
     cfe:	80 93 bb 3a 	sts	0x3ABB, r24	; 0x803abb <serTxAddr>
     d02:	90 93 bc 3a 	sts	0x3ABC, r25	; 0x803abc <serTxAddr+0x1>

    sei();
     d06:	78 94       	sei
}
     d08:	df 91       	pop	r29
     d0a:	cf 91       	pop	r28
     d0c:	08 95       	ret

00000d0e <__vector_8>:

// TCA0 is used for driving the LED matrix at 488Hz (* 5 columns = 2440Hz). The lower 8 bit underflow interrupt is used to load new values and shift between columns.
ISR(TCA0_LUNF_vect){
     d0e:	1f 92       	push	r1
     d10:	0f 92       	push	r0
     d12:	0f b6       	in	r0, 0x3f	; 63
     d14:	0f 92       	push	r0
     d16:	11 24       	eor	r1, r1
     d18:	8f 93       	push	r24
     d1a:	9f 93       	push	r25
     d1c:	af 93       	push	r26
     d1e:	bf 93       	push	r27
     d20:	ef 93       	push	r30
     d22:	ff 93       	push	r31
    //Turn off all columns
    PORTC_OUTCLR = 0x07;
     d24:	87 e0       	ldi	r24, 0x07	; 7
     d26:	80 93 46 04 	sts	0x0446, r24	; 0x800446 <__TEXT_REGION_LENGTH__+0x700446>
    PORTB_OUTCLR = 0x44;
     d2a:	84 e4       	ldi	r24, 0x44	; 68
     d2c:	80 93 26 04 	sts	0x0426, r24	; 0x800426 <__TEXT_REGION_LENGTH__+0x700426>
    "ldi r25, 6        \n"
    "ld r24, %a[arr]+  \n"
    "st %a[wo]+, r24   \n"
    "dec r25           \n"
    "brne .-8          \n"
    :: [wo] "e" (&TCA0_SPLIT_LCMP0), [arr] "e" (&iLED[(L_COL<<3)]) : "r25", "r24", "cc", "memory");
     d30:	ec b3       	in	r30, 0x1c	; 28
     d32:	88 e0       	ldi	r24, 0x08	; 8
     d34:	e8 9f       	mul	r30, r24
     d36:	f0 01       	movw	r30, r0
     d38:	11 24       	eor	r1, r1
     d3a:	e4 53       	subi	r30, 0x34	; 52
     d3c:	f5 4c       	sbci	r31, 0xC5	; 197
    //Turn off all columns
    PORTC_OUTCLR = 0x07;
    PORTB_OUTCLR = 0x44;

    //Write all of the compare registers of TCA0 with PWM values in array (rows)
    asm(
     d3e:	a8 e2       	ldi	r26, 0x28	; 40
     d40:	ba e0       	ldi	r27, 0x0A	; 10
     d42:	96 e0       	ldi	r25, 0x06	; 6
     d44:	81 91       	ld	r24, Z+
     d46:	8d 93       	st	X+, r24
     d48:	9a 95       	dec	r25
     d4a:	e1 f7       	brne	.-8      	; 0xd44 <__vector_8+0x36>
    "st %a[wo]+, r24   \n"
    "dec r25           \n"
    "brne .-8          \n"
    :: [wo] "e" (&TCA0_SPLIT_LCMP0), [arr] "e" (&iLED[(L_COL<<3)]) : "r25", "r24", "cc", "memory");

    TCA0_SPLIT_CTRLESET = ((0x2)<<2)|0x3; //Sync timers: Moved this below the PWM value loading to fix the data shifting in asm above.
     d4c:	8b e0       	ldi	r24, 0x0B	; 11
     d4e:	80 93 05 0a 	sts	0x0A05, r24	; 0x800a05 <__TEXT_REGION_LENGTH__+0x700a05>

    //Turn on the right column
    if (L_COL<3) {
     d52:	8c b3       	in	r24, 0x1c	; 28
     d54:	83 30       	cpi	r24, 0x03	; 3
     d56:	58 f4       	brcc	.+22     	; 0xd6e <__vector_8+0x60>
        asm(
     d58:	8c b3       	in	r24, 0x1c	; 28
     d5a:	91 e0       	ldi	r25, 0x01	; 1
     d5c:	01 c0       	rjmp	.+2      	; 0xd60 <__vector_8+0x52>
     d5e:	99 0f       	add	r25, r25
     d60:	8a 95       	dec	r24
     d62:	ea f7       	brpl	.-6      	; 0xd5e <__vector_8+0x50>
     d64:	99 b9       	out	0x09, r25	; 9
     d66:	8c b3       	in	r24, 0x1c	; 28
     d68:	83 95       	inc	r24
     d6a:	8c bb       	out	0x1c, r24	; 28
     d6c:	0a c0       	rjmp	.+20     	; 0xd82 <__vector_8+0x74>
        "in r24, %[io0]  \n"
        "inc r24         \n"
        "out %[io0], r24 \n"
        :: [io0] "I" (&L_COL), [vpc] "I" (&VPORTC_OUT) : "r24", "r25", "cc");
        } else {
        asm(
     d6e:	8c b3       	in	r24, 0x1c	; 28
     d70:	83 30       	cpi	r24, 0x03	; 3
     d72:	21 f4       	brne	.+8      	; 0xd7c <__vector_8+0x6e>
     d74:	2a 9a       	sbi	0x05, 2	; 5
     d76:	83 95       	inc	r24
     d78:	8c bb       	out	0x1c, r24	; 28
     d7a:	03 c0       	rjmp	.+6      	; 0xd82 <__vector_8+0x74>
     d7c:	2e 9a       	sbi	0x05, 6	; 5
     d7e:	88 27       	eor	r24, r24
     d80:	8c bb       	out	0x1c, r24	; 28
        "clr r24         \n"
        "out %[io0], r24 \n"
        :: [io0] "I" (&L_COL), [vpb] "I" (&VPORTB_OUT) : "r24", "cc");
    }
    
    if(timeout_I2C) --timeout_I2C;
     d82:	80 91 62 3a 	lds	r24, 0x3A62	; 0x803a62 <timeout_I2C>
     d86:	88 23       	and	r24, r24
     d88:	29 f0       	breq	.+10     	; 0xd94 <__vector_8+0x86>
     d8a:	80 91 62 3a 	lds	r24, 0x3A62	; 0x803a62 <timeout_I2C>
     d8e:	81 50       	subi	r24, 0x01	; 1
     d90:	80 93 62 3a 	sts	0x3A62, r24	; 0x803a62 <timeout_I2C>
    TCA0_SPLIT_INTFLAGS = 0xFF;
     d94:	8f ef       	ldi	r24, 0xFF	; 255
     d96:	80 93 0b 0a 	sts	0x0A0B, r24	; 0x800a0b <__TEXT_REGION_LENGTH__+0x700a0b>
}
     d9a:	ff 91       	pop	r31
     d9c:	ef 91       	pop	r30
     d9e:	bf 91       	pop	r27
     da0:	af 91       	pop	r26
     da2:	9f 91       	pop	r25
     da4:	8f 91       	pop	r24
     da6:	0f 90       	pop	r0
     da8:	0f be       	out	0x3f, r0	; 63
     daa:	0f 90       	pop	r0
     dac:	1f 90       	pop	r1
     dae:	18 95       	reti

00000db0 <__vector_13>:

// TCB0 is used for (slowly) sending serial characters. A 0x00 character code is needed to terminate sending or it will leak memory to serial. It's a feature, honest! 
ISR(TCB0_INT_vect){
     db0:	1f 92       	push	r1
     db2:	0f 92       	push	r0
     db4:	0f b6       	in	r0, 0x3f	; 63
     db6:	0f 92       	push	r0
     db8:	11 24       	eor	r1, r1
     dba:	8f 93       	push	r24
     dbc:	9f 93       	push	r25
     dbe:	ef 93       	push	r30
     dc0:	ff 93       	push	r31
    if (*serTxAddr) {
     dc2:	e0 91 bb 3a 	lds	r30, 0x3ABB	; 0x803abb <serTxAddr>
     dc6:	f0 91 bc 3a 	lds	r31, 0x3ABC	; 0x803abc <serTxAddr+0x1>
     dca:	80 81       	ld	r24, Z
     dcc:	88 23       	and	r24, r24
     dce:	91 f0       	breq	.+36     	; 0xdf4 <__vector_13+0x44>
        USART0_TXDATAL = *serTxAddr;
     dd0:	80 81       	ld	r24, Z
     dd2:	80 93 02 08 	sts	0x0802, r24	; 0x800802 <__TEXT_REGION_LENGTH__+0x700802>
        serTxAddr++;
     dd6:	80 91 bb 3a 	lds	r24, 0x3ABB	; 0x803abb <serTxAddr>
     dda:	90 91 bc 3a 	lds	r25, 0x3ABC	; 0x803abc <serTxAddr+0x1>
     dde:	01 96       	adiw	r24, 0x01	; 1
     de0:	80 93 bb 3a 	sts	0x3ABB, r24	; 0x803abb <serTxAddr>
     de4:	90 93 bc 3a 	sts	0x3ABC, r25	; 0x803abc <serTxAddr+0x1>
        USART0_CTRLA |= USART_DREIE_bm;
     de8:	80 91 05 08 	lds	r24, 0x0805	; 0x800805 <__TEXT_REGION_LENGTH__+0x700805>
     dec:	80 62       	ori	r24, 0x20	; 32
     dee:	80 93 05 08 	sts	0x0805, r24	; 0x800805 <__TEXT_REGION_LENGTH__+0x700805>
     df2:	05 c0       	rjmp	.+10     	; 0xdfe <__vector_13+0x4e>
    } else {
        serTxDone = 1;
     df4:	81 e0       	ldi	r24, 0x01	; 1
     df6:	80 93 0a 38 	sts	0x380A, r24	; 0x80380a <serTxDone>
        TCB0_INTCTRL = 0x00;
     dfa:	10 92 45 0a 	sts	0x0A45, r1	; 0x800a45 <__TEXT_REGION_LENGTH__+0x700a45>
    }
    TCB0_INTFLAGS = TCB_CAPT_bm;
     dfe:	81 e0       	ldi	r24, 0x01	; 1
     e00:	80 93 46 0a 	sts	0x0A46, r24	; 0x800a46 <__TEXT_REGION_LENGTH__+0x700a46>
}
     e04:	ff 91       	pop	r31
     e06:	ef 91       	pop	r30
     e08:	9f 91       	pop	r25
     e0a:	8f 91       	pop	r24
     e0c:	0f 90       	pop	r0
     e0e:	0f be       	out	0x3f, r0	; 63
     e10:	0f 90       	pop	r0
     e12:	1f 90       	pop	r1
     e14:	18 95       	reti

00000e16 <__vector_14>:

// TCB1 is used for audio generation. Keeps playing "data" until 0 is reached. Audio sample data can contain 0x01 to 0xFF, centered around 0x80
ISR(TCB1_INT_vect){
     e16:	1f 92       	push	r1
     e18:	0f 92       	push	r0
     e1a:	0f b6       	in	r0, 0x3f	; 63
     e1c:	0f 92       	push	r0
     e1e:	11 24       	eor	r1, r1
     e20:	2f 93       	push	r18
     e22:	3f 93       	push	r19
     e24:	4f 93       	push	r20
     e26:	8f 93       	push	r24
     e28:	9f 93       	push	r25
     e2a:	ef 93       	push	r30
     e2c:	ff 93       	push	r31
    int16_t volCtrl;
    if (*auSmpAddr == 0) auSmpAddr = auRepAddr;
     e2e:	e0 91 07 38 	lds	r30, 0x3807	; 0x803807 <auSmpAddr>
     e32:	f0 91 08 38 	lds	r31, 0x3808	; 0x803808 <auSmpAddr+0x1>
     e36:	80 81       	ld	r24, Z
     e38:	81 11       	cpse	r24, r1
     e3a:	08 c0       	rjmp	.+16     	; 0xe4c <__vector_14+0x36>
     e3c:	80 91 05 38 	lds	r24, 0x3805	; 0x803805 <auRepAddr>
     e40:	90 91 06 38 	lds	r25, 0x3806	; 0x803806 <auRepAddr+0x1>
     e44:	80 93 07 38 	sts	0x3807, r24	; 0x803807 <auSmpAddr>
     e48:	90 93 08 38 	sts	0x3808, r25	; 0x803808 <auSmpAddr+0x1>
    if (*auSmpAddr) {
     e4c:	e0 91 07 38 	lds	r30, 0x3807	; 0x803807 <auSmpAddr>
     e50:	f0 91 08 38 	lds	r31, 0x3808	; 0x803808 <auSmpAddr+0x1>
     e54:	80 81       	ld	r24, Z
     e56:	88 23       	and	r24, r24
     e58:	e1 f0       	breq	.+56     	; 0xe92 <__vector_14+0x7c>
        volCtrl = ((((int16_t)(*auSmpAddr) - 0x7f) * auVolume) >> 8) + 0x80;
     e5a:	20 81       	ld	r18, Z
     e5c:	40 91 b8 3a 	lds	r20, 0x3AB8	; 0x803ab8 <auVolume>
        DAC0_DATA = (uint8_t)(volCtrl);
     e60:	30 e0       	ldi	r19, 0x00	; 0
     e62:	2f 57       	subi	r18, 0x7F	; 127
     e64:	31 09       	sbc	r19, r1
     e66:	42 9f       	mul	r20, r18
     e68:	c0 01       	movw	r24, r0
     e6a:	43 9f       	mul	r20, r19
     e6c:	90 0d       	add	r25, r0
     e6e:	11 24       	eor	r1, r1
     e70:	89 2f       	mov	r24, r25
     e72:	99 0f       	add	r25, r25
     e74:	99 0b       	sbc	r25, r25
     e76:	80 58       	subi	r24, 0x80	; 128
     e78:	9f 4f       	sbci	r25, 0xFF	; 255
     e7a:	80 93 a1 06 	sts	0x06A1, r24	; 0x8006a1 <__TEXT_REGION_LENGTH__+0x7006a1>
        ++auSmpAddr;
     e7e:	80 91 07 38 	lds	r24, 0x3807	; 0x803807 <auSmpAddr>
     e82:	90 91 08 38 	lds	r25, 0x3808	; 0x803808 <auSmpAddr+0x1>
     e86:	01 96       	adiw	r24, 0x01	; 1
     e88:	80 93 07 38 	sts	0x3807, r24	; 0x803807 <auSmpAddr>
     e8c:	90 93 08 38 	sts	0x3808, r25	; 0x803808 <auSmpAddr+0x1>
     e90:	06 c0       	rjmp	.+12     	; 0xe9e <__vector_14+0x88>
    } else {
        DAC0_DATA = 0x80;
     e92:	80 e8       	ldi	r24, 0x80	; 128
     e94:	80 93 a1 06 	sts	0x06A1, r24	; 0x8006a1 <__TEXT_REGION_LENGTH__+0x7006a1>
        auPlayDone = 1;
     e98:	81 e0       	ldi	r24, 0x01	; 1
     e9a:	80 93 f4 3a 	sts	0x3AF4, r24	; 0x803af4 <auPlayDone>
    }
    TCB1_INTFLAGS = TCB_CAPT_bm;
     e9e:	81 e0       	ldi	r24, 0x01	; 1
     ea0:	80 93 56 0a 	sts	0x0A56, r24	; 0x800a56 <__TEXT_REGION_LENGTH__+0x700a56>
}
     ea4:	ff 91       	pop	r31
     ea6:	ef 91       	pop	r30
     ea8:	9f 91       	pop	r25
     eaa:	8f 91       	pop	r24
     eac:	4f 91       	pop	r20
     eae:	3f 91       	pop	r19
     eb0:	2f 91       	pop	r18
     eb2:	0f 90       	pop	r0
     eb4:	0f be       	out	0x3f, r0	; 63
     eb6:	0f 90       	pop	r0
     eb8:	1f 90       	pop	r1
     eba:	18 95       	reti

00000ebc <__vector_27>:

// Reads up to RXLEN characters until LF is found, LF sets the serRxDone flag and writes 0 instead of LF.
ISR(USART0_RXC_vect){
     ebc:	1f 92       	push	r1
     ebe:	0f 92       	push	r0
     ec0:	0f b6       	in	r0, 0x3f	; 63
     ec2:	0f 92       	push	r0
     ec4:	11 24       	eor	r1, r1
     ec6:	8f 93       	push	r24
     ec8:	ef 93       	push	r30
     eca:	ff 93       	push	r31
    if (serRxDone == 0){
     ecc:	80 91 44 38 	lds	r24, 0x3844	; 0x803844 <serRxDone>
     ed0:	81 11       	cpse	r24, r1
     ed2:	44 c0       	rjmp	.+136    	; 0xf5c <__vector_27+0xa0>
        serRx[RXCNT] = USART0.RXDATAL;
     ed4:	ed b3       	in	r30, 0x1d	; 29
     ed6:	f0 e0       	ldi	r31, 0x00	; 0
     ed8:	80 91 00 08 	lds	r24, 0x0800	; 0x800800 <__TEXT_REGION_LENGTH__+0x700800>
     edc:	e9 58       	subi	r30, 0x89	; 137
     ede:	f5 4c       	sbci	r31, 0xC5	; 197
     ee0:	80 83       	st	Z, r24
        USART0_TXDATAL = serRx[RXCNT];
     ee2:	ed b3       	in	r30, 0x1d	; 29
     ee4:	f0 e0       	ldi	r31, 0x00	; 0
     ee6:	e9 58       	subi	r30, 0x89	; 137
     ee8:	f5 4c       	sbci	r31, 0xC5	; 197
     eea:	80 81       	ld	r24, Z
     eec:	80 93 02 08 	sts	0x0802, r24	; 0x800802 <__TEXT_REGION_LENGTH__+0x700802>
        if ((serRx[RXCNT] == 0x0A)||(serRx[RXCNT] == 0x0D)){
     ef0:	ed b3       	in	r30, 0x1d	; 29
     ef2:	f0 e0       	ldi	r31, 0x00	; 0
     ef4:	e9 58       	subi	r30, 0x89	; 137
     ef6:	f5 4c       	sbci	r31, 0xC5	; 197
     ef8:	80 81       	ld	r24, Z
     efa:	8a 30       	cpi	r24, 0x0A	; 10
     efc:	39 f0       	breq	.+14     	; 0xf0c <__vector_27+0x50>
     efe:	ed b3       	in	r30, 0x1d	; 29
     f00:	f0 e0       	ldi	r31, 0x00	; 0
     f02:	e9 58       	subi	r30, 0x89	; 137
     f04:	f5 4c       	sbci	r31, 0xC5	; 197
     f06:	80 81       	ld	r24, Z
     f08:	8d 30       	cpi	r24, 0x0D	; 13
     f0a:	49 f4       	brne	.+18     	; 0xf1e <__vector_27+0x62>
            serRx[RXCNT] = 0;
     f0c:	ed b3       	in	r30, 0x1d	; 29
     f0e:	f0 e0       	ldi	r31, 0x00	; 0
     f10:	e9 58       	subi	r30, 0x89	; 137
     f12:	f5 4c       	sbci	r31, 0xC5	; 197
     f14:	10 82       	st	Z, r1
            serRxDone = 1;
     f16:	81 e0       	ldi	r24, 0x01	; 1
     f18:	80 93 44 38 	sts	0x3844, r24	; 0x803844 <serRxDone>
     f1c:	1f c0       	rjmp	.+62     	; 0xf5c <__vector_27+0xa0>
        } else if (((serRx[RXCNT] == 0x08)||(serRx[RXCNT] == 0x7F))&&(RXCNT > 0)) {
     f1e:	ed b3       	in	r30, 0x1d	; 29
     f20:	f0 e0       	ldi	r31, 0x00	; 0
     f22:	e9 58       	subi	r30, 0x89	; 137
     f24:	f5 4c       	sbci	r31, 0xC5	; 197
     f26:	80 81       	ld	r24, Z
     f28:	88 30       	cpi	r24, 0x08	; 8
     f2a:	39 f0       	breq	.+14     	; 0xf3a <__vector_27+0x7e>
     f2c:	ed b3       	in	r30, 0x1d	; 29
     f2e:	f0 e0       	ldi	r31, 0x00	; 0
     f30:	e9 58       	subi	r30, 0x89	; 137
     f32:	f5 4c       	sbci	r31, 0xC5	; 197
     f34:	80 81       	ld	r24, Z
     f36:	8f 37       	cpi	r24, 0x7F	; 127
     f38:	59 f4       	brne	.+22     	; 0xf50 <__vector_27+0x94>
     f3a:	8d b3       	in	r24, 0x1d	; 29
     f3c:	88 23       	and	r24, r24
     f3e:	41 f0       	breq	.+16     	; 0xf50 <__vector_27+0x94>
            serRx[RXCNT] = 0;
     f40:	ed b3       	in	r30, 0x1d	; 29
     f42:	f0 e0       	ldi	r31, 0x00	; 0
     f44:	e9 58       	subi	r30, 0x89	; 137
     f46:	f5 4c       	sbci	r31, 0xC5	; 197
     f48:	10 82       	st	Z, r1
            --RXCNT;
     f4a:	8d b3       	in	r24, 0x1d	; 29
     f4c:	81 50       	subi	r24, 0x01	; 1
     f4e:	05 c0       	rjmp	.+10     	; 0xf5a <__vector_27+0x9e>
        } else if (RXCNT < (RXLEN-1)) ++RXCNT;
     f50:	8d b3       	in	r24, 0x1d	; 29
     f52:	80 34       	cpi	r24, 0x40	; 64
     f54:	18 f4       	brcc	.+6      	; 0xf5c <__vector_27+0xa0>
     f56:	8d b3       	in	r24, 0x1d	; 29
     f58:	8f 5f       	subi	r24, 0xFF	; 255
     f5a:	8d bb       	out	0x1d, r24	; 29
    }
    USART0_STATUS = USART_RXCIF_bm;
     f5c:	80 e8       	ldi	r24, 0x80	; 128
     f5e:	80 93 04 08 	sts	0x0804, r24	; 0x800804 <__TEXT_REGION_LENGTH__+0x700804>
};
     f62:	ff 91       	pop	r31
     f64:	ef 91       	pop	r30
     f66:	8f 91       	pop	r24
     f68:	0f 90       	pop	r0
     f6a:	0f be       	out	0x3f, r0	; 63
     f6c:	0f 90       	pop	r0
     f6e:	1f 90       	pop	r1
     f70:	18 95       	reti

00000f72 <__vector_28>:

// Trigger new data write and turn off DRE interrupt.
ISR(USART0_DRE_vect){
     f72:	1f 92       	push	r1
     f74:	0f 92       	push	r0
     f76:	0f b6       	in	r0, 0x3f	; 63
     f78:	0f 92       	push	r0
     f7a:	11 24       	eor	r1, r1
     f7c:	8f 93       	push	r24
     f7e:	ef 93       	push	r30
     f80:	ff 93       	push	r31
    TCB0_CNT = 0;
     f82:	10 92 4a 0a 	sts	0x0A4A, r1	; 0x800a4a <__TEXT_REGION_LENGTH__+0x700a4a>
     f86:	10 92 4b 0a 	sts	0x0A4B, r1	; 0x800a4b <__TEXT_REGION_LENGTH__+0x700a4b>
    TCB0_INTCTRL = 0x01;
     f8a:	81 e0       	ldi	r24, 0x01	; 1
     f8c:	80 93 45 0a 	sts	0x0A45, r24	; 0x800a45 <__TEXT_REGION_LENGTH__+0x700a45>
    USART0_CTRLA &= ~(USART_DREIE_bm);
     f90:	e5 e0       	ldi	r30, 0x05	; 5
     f92:	f8 e0       	ldi	r31, 0x08	; 8
     f94:	80 81       	ld	r24, Z
     f96:	8f 7d       	andi	r24, 0xDF	; 223
     f98:	80 83       	st	Z, r24
};
     f9a:	ff 91       	pop	r31
     f9c:	ef 91       	pop	r30
     f9e:	8f 91       	pop	r24
     fa0:	0f 90       	pop	r0
     fa2:	0f be       	out	0x3f, r0	; 63
     fa4:	0f 90       	pop	r0
     fa6:	1f 90       	pop	r1
     fa8:	18 95       	reti

00000faa <__vector_20>:

// ADC used for audio input and temperature sensor.
ISR(ADC0_RESRDY_vect){
     faa:	1f 92       	push	r1
     fac:	0f 92       	push	r0
     fae:	0f b6       	in	r0, 0x3f	; 63
     fb0:	0f 92       	push	r0
     fb2:	11 24       	eor	r1, r1
     fb4:	8f 93       	push	r24
     fb6:	9f 93       	push	r25
     fb8:	ef 93       	push	r30
     fba:	ff 93       	push	r31
    //If just switched reference, discard first few samples
    if (adc0Chg == 0){
     fbc:	80 91 37 38 	lds	r24, 0x3837	; 0x803837 <adc0Chg>
     fc0:	81 11       	cpse	r24, r1
     fc2:	19 c0       	rjmp	.+50     	; 0xff6 <__vector_20+0x4c>
        AUPOS = (AUPOS+1)&(AULEN-1);
     fc4:	8e b3       	in	r24, 0x1e	; 30
     fc6:	8f 5f       	subi	r24, 0xFF	; 255
     fc8:	87 70       	andi	r24, 0x07	; 7
     fca:	8e bb       	out	0x1e, r24	; 30
        if (ADC0_MUXPOS == 0x1E) adcTemp = ADC0_RES; else auIn[AUPOS]=ADC0_RESL;
     fcc:	80 91 06 06 	lds	r24, 0x0606	; 0x800606 <__TEXT_REGION_LENGTH__+0x700606>
     fd0:	8e 31       	cpi	r24, 0x1E	; 30
     fd2:	49 f4       	brne	.+18     	; 0xfe6 <__vector_20+0x3c>
     fd4:	80 91 10 06 	lds	r24, 0x0610	; 0x800610 <__TEXT_REGION_LENGTH__+0x700610>
     fd8:	90 91 11 06 	lds	r25, 0x0611	; 0x800611 <__TEXT_REGION_LENGTH__+0x700611>
     fdc:	80 93 f7 3a 	sts	0x3AF7, r24	; 0x803af7 <adcTemp>
     fe0:	90 93 f8 3a 	sts	0x3AF8, r25	; 0x803af8 <adcTemp+0x1>
     fe4:	0d c0       	rjmp	.+26     	; 0x1000 <__vector_20+0x56>
     fe6:	ee b3       	in	r30, 0x1e	; 30
     fe8:	f0 e0       	ldi	r31, 0x00	; 0
     fea:	80 91 10 06 	lds	r24, 0x0610	; 0x800610 <__TEXT_REGION_LENGTH__+0x700610>
     fee:	ec 53       	subi	r30, 0x3C	; 60
     ff0:	f5 4c       	sbci	r31, 0xC5	; 197
     ff2:	80 83       	st	Z, r24
     ff4:	05 c0       	rjmp	.+10     	; 0x1000 <__vector_20+0x56>
    } else --adc0Chg;
     ff6:	80 91 37 38 	lds	r24, 0x3837	; 0x803837 <adc0Chg>
     ffa:	81 50       	subi	r24, 0x01	; 1
     ffc:	80 93 37 38 	sts	0x3837, r24	; 0x803837 <adc0Chg>
    ADC0_INTFLAGS = ADC_RESRDY_bm;
    1000:	81 e0       	ldi	r24, 0x01	; 1
    1002:	80 93 0b 06 	sts	0x060B, r24	; 0x80060b <__TEXT_REGION_LENGTH__+0x70060b>
}
    1006:	ff 91       	pop	r31
    1008:	ef 91       	pop	r30
    100a:	9f 91       	pop	r25
    100c:	8f 91       	pop	r24
    100e:	0f 90       	pop	r0
    1010:	0f be       	out	0x3f, r0	; 63
    1012:	0f 90       	pop	r0
    1014:	1f 90       	pop	r1
    1016:	18 95       	reti

00001018 <__vector_22>:

// Reads out sensors at 8Hz and buttons at 42Hz (timed by PIT), power for the sensors is on 1/8th of the time to save power.
ISR(ADC1_RESRDY_vect){
    1018:	1f 92       	push	r1
    101a:	0f 92       	push	r0
    101c:	0f b6       	in	r0, 0x3f	; 63
    101e:	0f 92       	push	r0
    1020:	11 24       	eor	r1, r1
    1022:	8f 93       	push	r24
    1024:	9f 93       	push	r25
    if (ADC1_MUXPOS == 0) {
    1026:	80 91 46 06 	lds	r24, 0x0646	; 0x800646 <__TEXT_REGION_LENGTH__+0x700646>
    102a:	81 11       	cpse	r24, r1
    102c:	0a c0       	rjmp	.+20     	; 0x1042 <__vector_22+0x2a>
        adcPhot = ADC1_RES;
    102e:	80 91 50 06 	lds	r24, 0x0650	; 0x800650 <__TEXT_REGION_LENGTH__+0x700650>
    1032:	90 91 51 06 	lds	r25, 0x0651	; 0x800651 <__TEXT_REGION_LENGTH__+0x700651>
    1036:	80 93 bf 3a 	sts	0x3ABF, r24	; 0x803abf <adcPhot>
    103a:	90 93 c0 3a 	sts	0x3AC0, r25	; 0x803ac0 <adcPhot+0x1>
        ADC1_MUXPOS = 0x01;             //Select Hall sensor
    103e:	81 e0       	ldi	r24, 0x01	; 1
    1040:	10 c0       	rjmp	.+32     	; 0x1062 <__vector_22+0x4a>
    } else if (ADC1_MUXPOS == 1){
    1042:	80 91 46 06 	lds	r24, 0x0646	; 0x800646 <__TEXT_REGION_LENGTH__+0x700646>
    1046:	81 30       	cpi	r24, 0x01	; 1
    1048:	79 f4       	brne	.+30     	; 0x1068 <__vector_22+0x50>
        PORTA_OUTCLR = 0b00001000;      //Turn off sensor power
    104a:	88 e0       	ldi	r24, 0x08	; 8
    104c:	80 93 06 04 	sts	0x0406, r24	; 0x800406 <__TEXT_REGION_LENGTH__+0x700406>
        adcHall = ADC1_RES;
    1050:	80 91 50 06 	lds	r24, 0x0650	; 0x800650 <__TEXT_REGION_LENGTH__+0x700650>
    1054:	90 91 51 06 	lds	r25, 0x0651	; 0x800651 <__TEXT_REGION_LENGTH__+0x700651>
    1058:	80 93 bd 3a 	sts	0x3ABD, r24	; 0x803abd <adcHall>
    105c:	90 93 be 3a 	sts	0x3ABE, r25	; 0x803abe <adcHall+0x1>
        ADC1_MUXPOS = 0x04;             //select buttons
    1060:	84 e0       	ldi	r24, 0x04	; 4
    1062:	80 93 46 06 	sts	0x0646, r24	; 0x800646 <__TEXT_REGION_LENGTH__+0x700646>
    1066:	10 c0       	rjmp	.+32     	; 0x1088 <__vector_22+0x70>
    } else {
        adcBtns = ADC1_RES;
    1068:	80 91 50 06 	lds	r24, 0x0650	; 0x800650 <__TEXT_REGION_LENGTH__+0x700650>
    106c:	90 91 51 06 	lds	r25, 0x0651	; 0x800651 <__TEXT_REGION_LENGTH__+0x700651>
    1070:	80 93 b9 3a 	sts	0x3AB9, r24	; 0x803ab9 <adcBtns>
    1074:	90 93 ba 3a 	sts	0x3ABA, r25	; 0x803aba <adcBtns+0x1>
        if (A1CNT == 15){
    1078:	8f b3       	in	r24, 0x1f	; 31
    107a:	8f 30       	cpi	r24, 0x0F	; 15
    107c:	29 f4       	brne	.+10     	; 0x1088 <__vector_22+0x70>
            ADC1_MUXPOS = 0x00;         //Select photo transistor
    107e:	10 92 46 06 	sts	0x0646, r1	; 0x800646 <__TEXT_REGION_LENGTH__+0x700646>
            PORTA_OUTSET = 0b00001000;  //Turn on sensor power
    1082:	88 e0       	ldi	r24, 0x08	; 8
    1084:	80 93 05 04 	sts	0x0405, r24	; 0x800405 <__TEXT_REGION_LENGTH__+0x700405>
        }
    }

    A1CNT=(A1CNT+1)%16;        
    1088:	8f b3       	in	r24, 0x1f	; 31
    108a:	90 e0       	ldi	r25, 0x00	; 0
    108c:	01 96       	adiw	r24, 0x01	; 1
    108e:	8f 70       	andi	r24, 0x0F	; 15
    1090:	99 27       	eor	r25, r25
    1092:	8f bb       	out	0x1f, r24	; 31
    ADC1_INTFLAGS = ADC_RESRDY_bm;
    1094:	81 e0       	ldi	r24, 0x01	; 1
    1096:	80 93 4b 06 	sts	0x064B, r24	; 0x80064b <__TEXT_REGION_LENGTH__+0x70064b>
}
    109a:	9f 91       	pop	r25
    109c:	8f 91       	pop	r24
    109e:	0f 90       	pop	r0
    10a0:	0f be       	out	0x3f, r0	; 63
    10a2:	0f 90       	pop	r0
    10a4:	1f 90       	pop	r1
    10a6:	18 95       	reti

000010a8 <__vector_6>:

// RTC compare interrupt, triggers at 512/BTN_TMR rate, also RTC overflow interrupt, triggers once a minute
ISR(RTC_CNT_vect) {
    10a8:	1f 92       	push	r1
    10aa:	0f 92       	push	r0
    10ac:	0f b6       	in	r0, 0x3f	; 63
    10ae:	0f 92       	push	r0
    10b0:	11 24       	eor	r1, r1
    10b2:	5f 93       	push	r21
    10b4:	6f 93       	push	r22
    10b6:	7f 93       	push	r23
    10b8:	8f 93       	push	r24
    10ba:	9f 93       	push	r25
    10bc:	af 93       	push	r26
    10be:	bf 93       	push	r27
    if (RTC_INTFLAGS & RTC_CMP_bm){
    10c0:	80 91 43 01 	lds	r24, 0x0143	; 0x800143 <__TEXT_REGION_LENGTH__+0x700143>
    10c4:	81 ff       	sbrs	r24, 1
    10c6:	26 c0       	rjmp	.+76     	; 0x1114 <__vector_6+0x6c>
        if (buttonMark<0xff) buttonMark++;   // For button timing purposes
    10c8:	80 91 42 38 	lds	r24, 0x3842	; 0x803842 <buttonMark>
    10cc:	8f 3f       	cpi	r24, 0xFF	; 255
    10ce:	29 f0       	breq	.+10     	; 0x10da <__vector_6+0x32>
    10d0:	80 91 42 38 	lds	r24, 0x3842	; 0x803842 <buttonMark>
    10d4:	8f 5f       	subi	r24, 0xFF	; 255
    10d6:	80 93 42 38 	sts	0x3842, r24	; 0x803842 <buttonMark>
        tmp16bit = (RTC_CNT + BTN_TMR)%RTC_PER;
    10da:	80 91 48 01 	lds	r24, 0x0148	; 0x800148 <__TEXT_REGION_LENGTH__+0x700148>
    10de:	90 91 49 01 	lds	r25, 0x0149	; 0x800149 <__TEXT_REGION_LENGTH__+0x700149>
    10e2:	60 91 4a 01 	lds	r22, 0x014A	; 0x80014a <__TEXT_REGION_LENGTH__+0x70014a>
    10e6:	70 91 4b 01 	lds	r23, 0x014B	; 0x80014b <__TEXT_REGION_LENGTH__+0x70014b>
    10ea:	82 96       	adiw	r24, 0x22	; 34
    10ec:	0e 94 f5 1e 	call	0x3dea	; 0x3dea <__udivmodhi4>
    10f0:	80 93 f9 3a 	sts	0x3AF9, r24	; 0x803af9 <tmp16bit>
    10f4:	90 93 fa 3a 	sts	0x3AFA, r25	; 0x803afa <tmp16bit+0x1>
        while(RTC_STATUS & RTC_CMPBUSY_bm);
    10f8:	80 91 41 01 	lds	r24, 0x0141	; 0x800141 <__TEXT_REGION_LENGTH__+0x700141>
    10fc:	83 fd       	sbrc	r24, 3
    10fe:	fc cf       	rjmp	.-8      	; 0x10f8 <__vector_6+0x50>
        RTC_CMP = tmp16bit;                 // Button timing: next interrupt set
    1100:	80 91 f9 3a 	lds	r24, 0x3AF9	; 0x803af9 <tmp16bit>
    1104:	90 91 fa 3a 	lds	r25, 0x3AFA	; 0x803afa <tmp16bit+0x1>
    1108:	80 93 4c 01 	sts	0x014C, r24	; 0x80014c <__TEXT_REGION_LENGTH__+0x70014c>
    110c:	90 93 4d 01 	sts	0x014D, r25	; 0x80014d <__TEXT_REGION_LENGTH__+0x70014d>
        RTC_INTFLAGS = RTC_CMP_bm;		    // clear interrupt flag
    1110:	82 e0       	ldi	r24, 0x02	; 2
    1112:	06 c0       	rjmp	.+12     	; 0x1120 <__vector_6+0x78>
    } else {
        minuteMark++;                       // For very slow timing purposes, overflows to 0
    1114:	80 91 43 38 	lds	r24, 0x3843	; 0x803843 <minuteMark>
    1118:	8f 5f       	subi	r24, 0xFF	; 255
    111a:	80 93 43 38 	sts	0x3843, r24	; 0x803843 <minuteMark>
        RTC_INTFLAGS = RTC_OVF_bm;		    // clear interrupt flag
    111e:	81 e0       	ldi	r24, 0x01	; 1
    1120:	80 93 43 01 	sts	0x0143, r24	; 0x800143 <__TEXT_REGION_LENGTH__+0x700143>
    }
}
    1124:	bf 91       	pop	r27
    1126:	af 91       	pop	r26
    1128:	9f 91       	pop	r25
    112a:	8f 91       	pop	r24
    112c:	7f 91       	pop	r23
    112e:	6f 91       	pop	r22
    1130:	5f 91       	pop	r21
    1132:	0f 90       	pop	r0
    1134:	0f be       	out	0x3f, r0	; 63
    1136:	0f 90       	pop	r0
    1138:	1f 90       	pop	r1
    113a:	18 95       	reti

0000113c <__vector_7>:

// PIT interrupt (timing of ADC1: sensor values)
ISR(RTC_PIT_vect) {						// PIT interrupt handling code
    113c:	1f 92       	push	r1
    113e:	0f 92       	push	r0
    1140:	0f b6       	in	r0, 0x3f	; 63
    1142:	0f 92       	push	r0
    1144:	11 24       	eor	r1, r1
    1146:	8f 93       	push	r24
    ADC1_COMMAND = 0x01;
    1148:	81 e0       	ldi	r24, 0x01	; 1
    114a:	80 93 48 06 	sts	0x0648, r24	; 0x800648 <__TEXT_REGION_LENGTH__+0x700648>
    RTC_PITINTFLAGS = RTC_PI_bm;		// clear interrupt flag
    114e:	80 93 53 01 	sts	0x0153, r24	; 0x800153 <__TEXT_REGION_LENGTH__+0x700153>
}
    1152:	8f 91       	pop	r24
    1154:	0f 90       	pop	r0
    1156:	0f be       	out	0x3f, r0	; 63
    1158:	0f 90       	pop	r0
    115a:	1f 90       	pop	r1
    115c:	18 95       	reti

0000115e <EERead>:

// Read bytes from EEPROM
void EERead(uint8_t eeAddr, uint8_t *eeValues, uint8_t size)
{
    while(NVMCTRL_STATUS & NVMCTRL_EEBUSY_bm);              // Wait until any write operation has finished
    115e:	90 91 02 10 	lds	r25, 0x1002	; 0x801002 <__TEXT_REGION_LENGTH__+0x701002>
    1162:	91 fd       	sbrc	r25, 1
    1164:	fc cf       	rjmp	.-8      	; 0x115e <EERead>
    1166:	fb 01       	movw	r30, r22
    1168:	48 0f       	add	r20, r24

    while(size){
    116a:	84 17       	cp	r24, r20
    116c:	39 f0       	breq	.+14     	; 0x117c <EERead+0x1e>
        *eeValues++ = *(uint8_t *)(EEPROM_START+eeAddr++);  // Read data from buffer
    116e:	a8 2f       	mov	r26, r24
    1170:	b0 e0       	ldi	r27, 0x00	; 0
    1172:	bc 5e       	subi	r27, 0xEC	; 236
    1174:	9c 91       	ld	r25, X
    1176:	91 93       	st	Z+, r25
    1178:	8f 5f       	subi	r24, 0xFF	; 255
    117a:	f7 cf       	rjmp	.-18     	; 0x116a <EERead+0xc>
        --size;
    }
}
    117c:	08 95       	ret

0000117e <EEWrite>:
{
    uint8_t lastByteOfPage;
    while(size){
        lastByteOfPage = 0;
        while(NVMCTRL_STATUS & NVMCTRL_EEBUSY_bm);              // Wait until any write operation has finished
        CCP = CCP_SPM_gc;                                       // Gain access to NVMCTRL_CTRLA
    117e:	9d e9       	ldi	r25, 0x9D	; 157
        NVMCTRL_CTRLA = NVMCTRL_CMD_PAGEBUFCLR_gc;              // Clear page buffer
    1180:	24 e0       	ldi	r18, 0x04	; 4
            if ((eeAddr % EEPROM_PAGE_SIZE) == (EEPROM_PAGE_SIZE-1)) lastByteOfPage = 1;
            *(uint8_t *)(EEPROM_START+eeAddr++) = *eeValues++;  // Write data to buffer
            --size;
        }
        CCP = CCP_SPM_gc;
        NVMCTRL_CTRLA = NVMCTRL_CMD_PAGEERASEWRITE_gc;          // Erase old data and write new data to EEPROM
    1182:	33 e0       	ldi	r19, 0x03	; 3

// Write bytes to the EEPROM, if address exceeds EEPROM space data wraps around
uint8_t EEWrite(uint8_t eeAddr, uint8_t *eeValues, uint8_t size)
{
    uint8_t lastByteOfPage;
    while(size){
    1184:	44 23       	and	r20, r20
    1186:	09 f1       	breq	.+66     	; 0x11ca <EEWrite+0x4c>
        lastByteOfPage = 0;
        while(NVMCTRL_STATUS & NVMCTRL_EEBUSY_bm);              // Wait until any write operation has finished
    1188:	50 91 02 10 	lds	r21, 0x1002	; 0x801002 <__TEXT_REGION_LENGTH__+0x701002>
    118c:	51 fd       	sbrc	r21, 1
    118e:	fc cf       	rjmp	.-8      	; 0x1188 <EEWrite+0xa>
        CCP = CCP_SPM_gc;                                       // Gain access to NVMCTRL_CTRLA
    1190:	94 bf       	out	0x34, r25	; 52
        NVMCTRL_CTRLA = NVMCTRL_CMD_PAGEBUFCLR_gc;              // Clear page buffer
    1192:	20 93 00 10 	sts	0x1000, r18	; 0x801000 <__TEXT_REGION_LENGTH__+0x701000>
    1196:	e8 2f       	mov	r30, r24
        while((size) && (lastByteOfPage == 0)){
            if ((eeAddr % EEPROM_PAGE_SIZE) == (EEPROM_PAGE_SIZE-1)) lastByteOfPage = 1;
    1198:	58 2f       	mov	r21, r24
    119a:	5f 71       	andi	r21, 0x1F	; 31
            *(uint8_t *)(EEPROM_START+eeAddr++) = *eeValues++;  // Write data to buffer
    119c:	8f 5f       	subi	r24, 0xFF	; 255
    119e:	6f 5f       	subi	r22, 0xFF	; 255
    11a0:	7f 4f       	sbci	r23, 0xFF	; 255
    11a2:	db 01       	movw	r26, r22
    11a4:	11 97       	sbiw	r26, 0x01	; 1
    11a6:	ac 91       	ld	r26, X
    11a8:	f0 e0       	ldi	r31, 0x00	; 0
    11aa:	fc 5e       	subi	r31, 0xEC	; 236
    11ac:	a0 83       	st	Z, r26
            --size;
    11ae:	41 50       	subi	r20, 0x01	; 1
    while(size){
        lastByteOfPage = 0;
        while(NVMCTRL_STATUS & NVMCTRL_EEBUSY_bm);              // Wait until any write operation has finished
        CCP = CCP_SPM_gc;                                       // Gain access to NVMCTRL_CTRLA
        NVMCTRL_CTRLA = NVMCTRL_CMD_PAGEBUFCLR_gc;              // Clear page buffer
        while((size) && (lastByteOfPage == 0)){
    11b0:	19 f0       	breq	.+6      	; 0x11b8 <EEWrite+0x3a>
            if ((eeAddr % EEPROM_PAGE_SIZE) == (EEPROM_PAGE_SIZE-1)) lastByteOfPage = 1;
            *(uint8_t *)(EEPROM_START+eeAddr++) = *eeValues++;  // Write data to buffer
    11b2:	e8 2f       	mov	r30, r24
    while(size){
        lastByteOfPage = 0;
        while(NVMCTRL_STATUS & NVMCTRL_EEBUSY_bm);              // Wait until any write operation has finished
        CCP = CCP_SPM_gc;                                       // Gain access to NVMCTRL_CTRLA
        NVMCTRL_CTRLA = NVMCTRL_CMD_PAGEBUFCLR_gc;              // Clear page buffer
        while((size) && (lastByteOfPage == 0)){
    11b4:	5f 31       	cpi	r21, 0x1F	; 31
    11b6:	81 f7       	brne	.-32     	; 0x1198 <EEWrite+0x1a>
            if ((eeAddr % EEPROM_PAGE_SIZE) == (EEPROM_PAGE_SIZE-1)) lastByteOfPage = 1;
            *(uint8_t *)(EEPROM_START+eeAddr++) = *eeValues++;  // Write data to buffer
            --size;
        }
        CCP = CCP_SPM_gc;
    11b8:	94 bf       	out	0x34, r25	; 52
        NVMCTRL_CTRLA = NVMCTRL_CMD_PAGEERASEWRITE_gc;          // Erase old data and write new data to EEPROM
    11ba:	30 93 00 10 	sts	0x1000, r19	; 0x801000 <__TEXT_REGION_LENGTH__+0x701000>
        if (NVMCTRL_STATUS & NVMCTRL_WRERROR_bm) return 1;
    11be:	50 91 02 10 	lds	r21, 0x1002	; 0x801002 <__TEXT_REGION_LENGTH__+0x701002>
    11c2:	52 ff       	sbrs	r21, 2
    11c4:	df cf       	rjmp	.-66     	; 0x1184 <EEWrite+0x6>
    11c6:	81 e0       	ldi	r24, 0x01	; 1
    }
    return 0;
}
    11c8:	08 95       	ret
        }
        CCP = CCP_SPM_gc;
        NVMCTRL_CTRLA = NVMCTRL_CMD_PAGEERASEWRITE_gc;          // Erase old data and write new data to EEPROM
        if (NVMCTRL_STATUS & NVMCTRL_WRERROR_bm) return 1;
    }
    return 0;
    11ca:	80 e0       	ldi	r24, 0x00	; 0
    11cc:	08 95       	ret

000011ce <SerSend>:
}

// Sends a set of characters to the serial port, stops only when character value 0 is reached.
uint8_t SerSend(unsigned char *addr){
    if (serTxDone){
    11ce:	20 91 0a 38 	lds	r18, 0x380A	; 0x80380a <serTxDone>
    11d2:	22 23       	and	r18, r18
    11d4:	59 f0       	breq	.+22     	; 0x11ec <SerSend+0x1e>
        serTxAddr = addr;
    11d6:	80 93 bb 3a 	sts	0x3ABB, r24	; 0x803abb <serTxAddr>
    11da:	90 93 bc 3a 	sts	0x3ABC, r25	; 0x803abc <serTxAddr+0x1>
        serTxDone = 0;
    11de:	10 92 0a 38 	sts	0x380A, r1	; 0x80380a <serTxDone>
        TCB0_INTCTRL = 0x01;
    11e2:	81 e0       	ldi	r24, 0x01	; 1
    11e4:	80 93 45 0a 	sts	0x0A45, r24	; 0x800a45 <__TEXT_REGION_LENGTH__+0x700a45>
        return 0;
    11e8:	80 e0       	ldi	r24, 0x00	; 0
    11ea:	08 95       	ret
    } else return 1;    //Error: Still sending data
    11ec:	81 e0       	ldi	r24, 0x01	; 1
};
    11ee:	08 95       	ret

000011f0 <SerSpeed>:

// Set serial character output speed, 255-0 (0.8 to 100ms delay between characters)
void SerSpeed(uint8_t serSpd){
    11f0:	28 2f       	mov	r18, r24
    if (serSpd<1) serSpd = 1;
    11f2:	81 11       	cpse	r24, r1
    11f4:	01 c0       	rjmp	.+2      	; 0x11f8 <SerSpeed+0x8>
    11f6:	21 e0       	ldi	r18, 0x01	; 1
    TCB0_CCMP = ((uint16_t)(0xFF-serSpd)<<8) + 0xFF;
    11f8:	8f ef       	ldi	r24, 0xFF	; 255
    11fa:	90 e0       	ldi	r25, 0x00	; 0
    11fc:	82 1b       	sub	r24, r18
    11fe:	91 09       	sbc	r25, r1
    1200:	98 2f       	mov	r25, r24
    1202:	88 27       	eor	r24, r24
    1204:	81 50       	subi	r24, 0x01	; 1
    1206:	9f 4f       	sbci	r25, 0xFF	; 255
    1208:	80 93 4c 0a 	sts	0x0A4C, r24	; 0x800a4c <__TEXT_REGION_LENGTH__+0x700a4c>
    120c:	90 93 4d 0a 	sts	0x0A4D, r25	; 0x800a4d <__TEXT_REGION_LENGTH__+0x700a4d>
    1210:	08 95       	ret

00001212 <SelectTSens>:
};

// Select temperature sensor
void SelectTSens(){
     VREF_CTRLA   = 0x12;    //0x22 for audio in/out (2.5V), 0x12 for temperature in, audio out (1.1V/2.5V)
    1212:	82 e1       	ldi	r24, 0x12	; 18
    1214:	80 93 a0 00 	sts	0x00A0, r24	; 0x8000a0 <__TEXT_REGION_LENGTH__+0x7000a0>
     ADC0_CTRLA   &= ~(ADC_RESSEL_bm);
    1218:	e0 e0       	ldi	r30, 0x00	; 0
    121a:	f6 e0       	ldi	r31, 0x06	; 6
    121c:	80 81       	ld	r24, Z
    121e:	8b 7f       	andi	r24, 0xFB	; 251
    1220:	80 83       	st	Z, r24
     ADC0_MUXPOS  = 0x1E;    //Audio in: AIN7 at (0x07), Temperature: Internal sensor at (0x1E)
    1222:	8e e1       	ldi	r24, 0x1E	; 30
    1224:	80 93 06 06 	sts	0x0606, r24	; 0x800606 <__TEXT_REGION_LENGTH__+0x700606>
     adc0Chg = 3;
    1228:	83 e0       	ldi	r24, 0x03	; 3
    122a:	80 93 37 38 	sts	0x3837, r24	; 0x803837 <adc0Chg>
    122e:	08 95       	ret

00001230 <SelectAuIn>:
};

// Select "audio" input (0-2.5V)
void SelectAuIn(){
     VREF_CTRLA   = 0x22;    //0x22 for audio in/out (2.5V), 0x12 for temperature in, audio out (1.1V/2.5V)
    1230:	82 e2       	ldi	r24, 0x22	; 34
    1232:	80 93 a0 00 	sts	0x00A0, r24	; 0x8000a0 <__TEXT_REGION_LENGTH__+0x7000a0>
     ADC0_CTRLA   |= ADC_RESSEL_bm;
    1236:	e0 e0       	ldi	r30, 0x00	; 0
    1238:	f6 e0       	ldi	r31, 0x06	; 6
    123a:	80 81       	ld	r24, Z
    123c:	84 60       	ori	r24, 0x04	; 4
    123e:	80 83       	st	Z, r24
     ADC0_MUXPOS  = 0x07;    //Audio in: AIN7 at (0x07), Temperature: Internal sensor at (0x1E)
    1240:	87 e0       	ldi	r24, 0x07	; 7
    1242:	80 93 06 06 	sts	0x0606, r24	; 0x800606 <__TEXT_REGION_LENGTH__+0x700606>
     adc0Chg = 3;
    1246:	83 e0       	ldi	r24, 0x03	; 3
    1248:	80 93 37 38 	sts	0x3837, r24	; 0x803837 <adc0Chg>
    124c:	08 95       	ret

0000124e <CheckButtons>:
};

// Returns button combination (4LSB) and number of consecutive times this combination is detected. First read should always be ignored! 
uint8_t CheckButtons(uint8_t previousValue){
    uint8_t bADC = (uint8_t)(adcBtns>>4);
    124e:	20 91 b9 3a 	lds	r18, 0x3AB9	; 0x803ab9 <adcBtns>
    1252:	30 91 ba 3a 	lds	r19, 0x3ABA	; 0x803aba <adcBtns+0x1>
    uint8_t bNibble = 0x0F;     //MSB to LSB: Bottom left, top left, top right, bottom right, 0F is error
    
    switch(bADC){
    1256:	94 e0       	ldi	r25, 0x04	; 4
    1258:	36 95       	lsr	r19
    125a:	27 95       	ror	r18
    125c:	9a 95       	dec	r25
    125e:	e1 f7       	brne	.-8      	; 0x1258 <CheckButtons+0xa>
    1260:	33 27       	eor	r19, r19
    1262:	2c 35       	cpi	r18, 0x5C	; 92
    1264:	31 05       	cpc	r19, r1
    1266:	d0 f4       	brcc	.+52     	; 0x129c <CheckButtons+0x4e>
    1268:	23 35       	cpi	r18, 0x53	; 83
    126a:	31 05       	cpc	r19, r1
    126c:	a8 f5       	brcc	.+106    	; 0x12d8 <CheckButtons+0x8a>
    126e:	22 33       	cpi	r18, 0x32	; 50
    1270:	31 05       	cpc	r19, r1
    1272:	50 f4       	brcc	.+20     	; 0x1288 <CheckButtons+0x3a>
    1274:	2d 32       	cpi	r18, 0x2D	; 45
    1276:	31 05       	cpc	r19, r1
    1278:	58 f5       	brcc	.+86     	; 0x12d0 <CheckButtons+0x82>
    127a:	23 52       	subi	r18, 0x23	; 35
    127c:	31 09       	sbc	r19, r1
    127e:	25 30       	cpi	r18, 0x05	; 5
    1280:	31 05       	cpc	r19, r1
    1282:	80 f5       	brcc	.+96     	; 0x12e4 <CheckButtons+0x96>

        case 35 ... 39:          //37: Both left
        bNibble = 0b1100;
    1284:	9c e0       	ldi	r25, 0x0C	; 12
    1286:	2f c0       	rjmp	.+94     	; 0x12e6 <CheckButtons+0x98>
// Returns button combination (4LSB) and number of consecutive times this combination is detected. First read should always be ignored! 
uint8_t CheckButtons(uint8_t previousValue){
    uint8_t bADC = (uint8_t)(adcBtns>>4);
    uint8_t bNibble = 0x0F;     //MSB to LSB: Bottom left, top left, top right, bottom right, 0F is error
    
    switch(bADC){
    1288:	27 33       	cpi	r18, 0x37	; 55
    128a:	31 05       	cpc	r19, r1
    128c:	18 f1       	brcs	.+70     	; 0x12d4 <CheckButtons+0x86>
    128e:	2e 53       	subi	r18, 0x3E	; 62
    1290:	31 09       	sbc	r19, r1
    1292:	27 30       	cpi	r18, 0x07	; 7
    1294:	31 05       	cpc	r19, r1
    1296:	30 f5       	brcc	.+76     	; 0x12e4 <CheckButtons+0x96>
        case 50 ... 54:          //52: Bottom left
        bNibble = 0b1000;
        break;

        case 62 ... 68:          //65: Both top
        bNibble = 0b0110;
    1298:	96 e0       	ldi	r25, 0x06	; 6
        break;
    129a:	25 c0       	rjmp	.+74     	; 0x12e6 <CheckButtons+0x98>
// Returns button combination (4LSB) and number of consecutive times this combination is detected. First read should always be ignored! 
uint8_t CheckButtons(uint8_t previousValue){
    uint8_t bADC = (uint8_t)(adcBtns>>4);
    uint8_t bNibble = 0x0F;     //MSB to LSB: Bottom left, top left, top right, bottom right, 0F is error
    
    switch(bADC){
    129c:	2a 38       	cpi	r18, 0x8A	; 138
    129e:	31 05       	cpc	r19, r1
    12a0:	50 f4       	brcc	.+20     	; 0x12b6 <CheckButtons+0x68>
    12a2:	29 37       	cpi	r18, 0x79	; 121
    12a4:	31 05       	cpc	r19, r1
    12a6:	d0 f4       	brcc	.+52     	; 0x12dc <CheckButtons+0x8e>
    12a8:	23 56       	subi	r18, 0x63	; 99
    12aa:	31 09       	sbc	r19, r1
    12ac:	2b 30       	cpi	r18, 0x0B	; 11
    12ae:	31 05       	cpc	r19, r1
    12b0:	c8 f4       	brcc	.+50     	; 0x12e4 <CheckButtons+0x96>
        case 83 ... 91:          //87: Top left
        bNibble = 0b0100;
        break;

        case 99 ... 109:         //104: Both right
        bNibble = 0b0011;
    12b2:	93 e0       	ldi	r25, 0x03	; 3
        break;
    12b4:	18 c0       	rjmp	.+48     	; 0x12e6 <CheckButtons+0x98>
// Returns button combination (4LSB) and number of consecutive times this combination is detected. First read should always be ignored! 
uint8_t CheckButtons(uint8_t previousValue){
    uint8_t bADC = (uint8_t)(adcBtns>>4);
    uint8_t bNibble = 0x0F;     //MSB to LSB: Bottom left, top left, top right, bottom right, 0F is error
    
    switch(bADC){
    12b6:	22 3a       	cpi	r18, 0xA2	; 162
    12b8:	31 05       	cpc	r19, r1
    12ba:	a0 f0       	brcs	.+40     	; 0x12e4 <CheckButtons+0x96>
    12bc:	2b 3b       	cpi	r18, 0xBB	; 187
    12be:	31 05       	cpc	r19, r1
    12c0:	78 f0       	brcs	.+30     	; 0x12e0 <CheckButtons+0x92>
    12c2:	20 5f       	subi	r18, 0xF0	; 240
    12c4:	31 09       	sbc	r19, r1
    12c6:	20 31       	cpi	r18, 0x10	; 16
    12c8:	31 05       	cpc	r19, r1
    12ca:	60 f4       	brcc	.+24     	; 0x12e4 <CheckButtons+0x96>
        case 162 ... 186:        //174: Bottom right
        bNibble = 0b0001;
        break;

        case 240 ... 255:        //255: No button pressed
        bNibble = 0b0000;
    12cc:	90 e0       	ldi	r25, 0x00	; 0
        break;
    12ce:	0b c0       	rjmp	.+22     	; 0x12e6 <CheckButtons+0x98>
        case 35 ... 39:          //37: Both left
        bNibble = 0b1100;
        break;

        case 45 ... 49:          //47: Both bottom
        bNibble = 0b1001;
    12d0:	99 e0       	ldi	r25, 0x09	; 9
        break;
    12d2:	09 c0       	rjmp	.+18     	; 0x12e6 <CheckButtons+0x98>

        case 50 ... 54:          //52: Bottom left
        bNibble = 0b1000;
    12d4:	98 e0       	ldi	r25, 0x08	; 8
        break;
    12d6:	07 c0       	rjmp	.+14     	; 0x12e6 <CheckButtons+0x98>
        case 62 ... 68:          //65: Both top
        bNibble = 0b0110;
        break;

        case 83 ... 91:          //87: Top left
        bNibble = 0b0100;
    12d8:	94 e0       	ldi	r25, 0x04	; 4
        break;
    12da:	05 c0       	rjmp	.+10     	; 0x12e6 <CheckButtons+0x98>
        case 99 ... 109:         //104: Both right
        bNibble = 0b0011;
        break;

        case 121 ... 137:        //129: Top right
        bNibble = 0b0010;
    12dc:	92 e0       	ldi	r25, 0x02	; 2
        break;
    12de:	03 c0       	rjmp	.+6      	; 0x12e6 <CheckButtons+0x98>

        case 162 ... 186:        //174: Bottom right
        bNibble = 0b0001;
    12e0:	91 e0       	ldi	r25, 0x01	; 1
        break;
    12e2:	01 c0       	rjmp	.+2      	; 0x12e6 <CheckButtons+0x98>
};

// Returns button combination (4LSB) and number of consecutive times this combination is detected. First read should always be ignored! 
uint8_t CheckButtons(uint8_t previousValue){
    uint8_t bADC = (uint8_t)(adcBtns>>4);
    uint8_t bNibble = 0x0F;     //MSB to LSB: Bottom left, top left, top right, bottom right, 0F is error
    12e4:	9f e0       	ldi	r25, 0x0F	; 15
        case 240 ... 255:        //255: No button pressed
        bNibble = 0b0000;
        break;
    }

    if ((previousValue&0x0F)==bNibble){
    12e6:	28 2f       	mov	r18, r24
    12e8:	2f 70       	andi	r18, 0x0F	; 15
    12ea:	92 13       	cpse	r25, r18
    12ec:	06 c0       	rjmp	.+12     	; 0x12fa <CheckButtons+0xac>
        if ((previousValue&0xF0) < 0xF0) previousValue += 0x10; //Same value? Increase time nibble
    12ee:	98 2f       	mov	r25, r24
    12f0:	90 7f       	andi	r25, 0xF0	; 240
    12f2:	90 3f       	cpi	r25, 0xF0	; 240
    12f4:	39 f0       	breq	.+14     	; 0x1304 <CheckButtons+0xb6>
    12f6:	80 5f       	subi	r24, 0xF0	; 240
    12f8:	08 95       	ret
        return previousValue;       
    } else if (bNibble == 0) return 0xFF; //Buttons released, 0xFF triggers readout, previousValue holds last button value.
    12fa:	99 23       	and	r25, r25
    12fc:	11 f0       	breq	.+4      	; 0x1302 <CheckButtons+0xb4>
    12fe:	89 2f       	mov	r24, r25
    1300:	08 95       	ret
    1302:	8f ef       	ldi	r24, 0xFF	; 255
              else return bNibble;  //New value  
}
    1304:	08 95       	ret

00001306 <lfsr>:

uint8_t lfsr(){
    static uint16_t state = 0xd401;
    state ^= (state << 13);
    1306:	80 91 21 38 	lds	r24, 0x3821	; 0x803821 <state.3893>
    130a:	90 91 22 38 	lds	r25, 0x3822	; 0x803822 <state.3893+0x1>
    130e:	9c 01       	movw	r18, r24
    1310:	32 2f       	mov	r19, r18
    1312:	22 27       	eor	r18, r18
    1314:	32 95       	swap	r19
    1316:	33 0f       	add	r19, r19
    1318:	30 7e       	andi	r19, 0xE0	; 224
    131a:	82 27       	eor	r24, r18
    131c:	93 27       	eor	r25, r19
    state ^= (state >> 9);
    131e:	9c 01       	movw	r18, r24
    1320:	23 2f       	mov	r18, r19
    1322:	33 27       	eor	r19, r19
    1324:	26 95       	lsr	r18
    1326:	82 27       	eor	r24, r18
    1328:	93 27       	eor	r25, r19
    state ^= (state << 7);
    132a:	9c 01       	movw	r18, r24
    132c:	36 95       	lsr	r19
    132e:	32 2f       	mov	r19, r18
    1330:	22 27       	eor	r18, r18
    1332:	37 95       	ror	r19
    1334:	27 95       	ror	r18
    1336:	82 27       	eor	r24, r18
    1338:	93 27       	eor	r25, r19
    133a:	80 93 21 38 	sts	0x3821, r24	; 0x803821 <state.3893>
    133e:	90 93 22 38 	sts	0x3822, r25	; 0x803822 <state.3893+0x1>
    return (state & 0xff);
}
    1342:	08 95       	ret

00001344 <floatSpeed>:

void floatSpeed(uint8_t bits, uint16_t min, uint16_t max){
    1344:	df 92       	push	r13
    1346:	ef 92       	push	r14
    1348:	ff 92       	push	r15
    134a:	0f 93       	push	r16
    134c:	1f 93       	push	r17
    134e:	cf 93       	push	r28
    1350:	df 93       	push	r29
    1352:	7b 01       	movw	r14, r22
    1354:	8a 01       	movw	r16, r20
    uint16_t val = TCB1_CCMP;
    1356:	c0 91 5c 0a 	lds	r28, 0x0A5C	; 0x800a5c <__TEXT_REGION_LENGTH__+0x700a5c>
    135a:	d0 91 5d 0a 	lds	r29, 0x0A5D	; 0x800a5d <__TEXT_REGION_LENGTH__+0x700a5d>
    bits = mask[(bits-1)&0x07];
    135e:	e8 2f       	mov	r30, r24
    1360:	f0 e0       	ldi	r31, 0x00	; 0
    1362:	31 97       	sbiw	r30, 0x01	; 1
    1364:	e7 70       	andi	r30, 0x07	; 7
    1366:	ff 27       	eor	r31, r31
    1368:	ed 5d       	subi	r30, 0xDD	; 221
    136a:	f7 4c       	sbci	r31, 0xC7	; 199
    136c:	d0 80       	ld	r13, Z
    val += (lfsr()&bits);
    136e:	cb df       	rcall	.-106    	; 0x1306 <lfsr>
    1370:	8d 21       	and	r24, r13
    1372:	c8 0f       	add	r28, r24
    1374:	d1 1d       	adc	r29, r1
    val -= (lfsr()&bits);
    1376:	c7 df       	rcall	.-114    	; 0x1306 <lfsr>
    1378:	8d 21       	and	r24, r13
    137a:	c8 1b       	sub	r28, r24
    137c:	d1 09       	sbc	r29, r1
    137e:	0c 17       	cp	r16, r28
    1380:	1d 07       	cpc	r17, r29
    1382:	08 f4       	brcc	.+2      	; 0x1386 <floatSpeed+0x42>
    1384:	e8 01       	movw	r28, r16
    1386:	c7 01       	movw	r24, r14
    1388:	ec 16       	cp	r14, r28
    138a:	fd 06       	cpc	r15, r29
    138c:	08 f4       	brcc	.+2      	; 0x1390 <floatSpeed+0x4c>
    138e:	ce 01       	movw	r24, r28
    1390:	80 93 5c 0a 	sts	0x0A5C, r24	; 0x800a5c <__TEXT_REGION_LENGTH__+0x700a5c>
    if (val > max) val = max;    
    if (val < min) val = min;  
    TCB1_CCMP = val;
    1394:	90 93 5d 0a 	sts	0x0A5D, r25	; 0x800a5d <__TEXT_REGION_LENGTH__+0x700a5d>
    1398:	df 91       	pop	r29
}
    139a:	cf 91       	pop	r28
    139c:	1f 91       	pop	r17
    139e:	0f 91       	pop	r16
    13a0:	ff 90       	pop	r15
    13a2:	ef 90       	pop	r14
    13a4:	df 90       	pop	r13
    13a6:	08 95       	ret

000013a8 <floatAround>:
    13a8:	0f 93       	push	r16

uint8_t floatAround(uint8_t sample, uint8_t bits, uint8_t min, uint8_t max){
    13aa:	1f 93       	push	r17
    13ac:	cf 93       	push	r28
    13ae:	df 93       	push	r29
    13b0:	c8 2f       	mov	r28, r24
    13b2:	d4 2f       	mov	r29, r20
    13b4:	02 2f       	mov	r16, r18
    bits = mask[(bits-1)&0x07];
    13b6:	e6 2f       	mov	r30, r22
    13b8:	f0 e0       	ldi	r31, 0x00	; 0
    13ba:	31 97       	sbiw	r30, 0x01	; 1
    13bc:	e7 70       	andi	r30, 0x07	; 7
    13be:	ff 27       	eor	r31, r31
    13c0:	ed 5d       	subi	r30, 0xDD	; 221
    13c2:	f7 4c       	sbci	r31, 0xC7	; 199
    13c4:	10 81       	ld	r17, Z
    sample += lfsr()&bits;
    13c6:	9f df       	rcall	.-194    	; 0x1306 <lfsr>
    13c8:	81 23       	and	r24, r17
    13ca:	c8 0f       	add	r28, r24
    sample -= lfsr()&bits;
    13cc:	9c df       	rcall	.-200    	; 0x1306 <lfsr>
    13ce:	81 23       	and	r24, r17
    13d0:	c8 1b       	sub	r28, r24
    13d2:	8c 2f       	mov	r24, r28
    13d4:	00 23       	and	r16, r16
    if (max){
    13d6:	41 f0       	breq	.+16     	; 0x13e8 <floatAround+0x40>
    13d8:	9c 2f       	mov	r25, r28
    13da:	0c 17       	cp	r16, r28
    13dc:	08 f4       	brcc	.+2      	; 0x13e0 <floatAround+0x38>
    13de:	90 2f       	mov	r25, r16
    13e0:	8d 2f       	mov	r24, r29
    13e2:	d9 17       	cp	r29, r25
    13e4:	08 f4       	brcc	.+2      	; 0x13e8 <floatAround+0x40>
    13e6:	89 2f       	mov	r24, r25
    13e8:	41 e0       	ldi	r20, 0x01	; 1
        if (sample > max) sample = max;
        if (sample < min) sample = min;
    }
    if (min & (sample < min)) sample = min;
    13ea:	50 e0       	ldi	r21, 0x00	; 0
    13ec:	8d 17       	cp	r24, r29
    13ee:	10 f0       	brcs	.+4      	; 0x13f4 <floatAround+0x4c>
    13f0:	40 e0       	ldi	r20, 0x00	; 0
    13f2:	50 e0       	ldi	r21, 0x00	; 0
    13f4:	2d 2f       	mov	r18, r29
    13f6:	30 e0       	ldi	r19, 0x00	; 0
    13f8:	24 23       	and	r18, r20
    13fa:	35 23       	and	r19, r21
    13fc:	23 2b       	or	r18, r19
    13fe:	09 f0       	breq	.+2      	; 0x1402 <floatAround+0x5a>
    1400:	8d 2f       	mov	r24, r29
    1402:	df 91       	pop	r29

    return sample;
}
    1404:	cf 91       	pop	r28
    1406:	1f 91       	pop	r17
    1408:	0f 91       	pop	r16
    140a:	08 95       	ret

0000140c <SaveGameState>:
    140c:	cf 92       	push	r12
    inventory[0] = (gameState[INVADDR]<<8|gameState[INVADDR+1]);
    inventory[1] = (gameState[INVADDR+2]<<8|gameState[INVADDR+3]);
}

//Save changed data to EEPROM
uint8_t SaveGameState(){
    140e:	df 92       	push	r13
    1410:	ff 92       	push	r15
    1412:	0f 93       	push	r16
    1414:	1f 93       	push	r17
    1416:	cf 93       	push	r28
    1418:	df 93       	push	r29
    141a:	cd b7       	in	r28, 0x3d	; 61
    141c:	de b7       	in	r29, 0x3e	; 62
    141e:	64 97       	sbiw	r28, 0x14	; 20
    1420:	cd bf       	out	0x3d, r28	; 61
    1422:	de bf       	out	0x3e, r29	; 62
    uint8_t gameCheck[BOOTCHK];

    //Read all data up to the boot/check result address from EEPROM
    EERead(0, &gameCheck[0], BOOTCHK);
    1424:	44 e1       	ldi	r20, 0x14	; 20
    1426:	be 01       	movw	r22, r28
    1428:	6f 5f       	subi	r22, 0xFF	; 255
    142a:	7f 4f       	sbci	r23, 0xFF	; 255
    142c:	80 e0       	ldi	r24, 0x00	; 0
    142e:	97 de       	rcall	.-722    	; 0x115e <EERead>
    1430:	83 e6       	ldi	r24, 0x63	; 99
    1432:	c8 2e       	mov	r12, r24
    1434:	8a e3       	ldi	r24, 0x3A	; 58
    1436:	d8 2e       	mov	r13, r24
    1438:	8e 01       	movw	r16, r28
    143a:	0f 5f       	subi	r16, 0xFF	; 255
    143c:	1f 4f       	sbci	r17, 0xFF	; 255

    //Check game status bits
    for (uint8_t x=0; x<STATLEN; ++x){
    143e:	f1 2c       	mov	r15, r1
        if (gameState[x] != gameCheck[x]){
    1440:	f8 01       	movw	r30, r16
    1442:	81 91       	ld	r24, Z+
    1444:	8f 01       	movw	r16, r30
    1446:	f6 01       	movw	r30, r12
    1448:	90 81       	ld	r25, Z
    144a:	98 13       	cpse	r25, r24
    144c:	08 c0       	rjmp	.+16     	; 0x145e <SaveGameState+0x52>

    //Read all data up to the boot/check result address from EEPROM
    EERead(0, &gameCheck[0], BOOTCHK);

    //Check game status bits
    for (uint8_t x=0; x<STATLEN; ++x){
    144e:	f3 94       	inc	r15
    1450:	ff ef       	ldi	r31, 0xFF	; 255
    1452:	cf 1a       	sub	r12, r31
    1454:	df 0a       	sbc	r13, r31
    1456:	80 e1       	ldi	r24, 0x10	; 16
    1458:	f8 12       	cpse	r15, r24
    145a:	f2 cf       	rjmp	.-28     	; 0x1440 <SaveGameState+0x34>
    145c:	08 c0       	rjmp	.+16     	; 0x146e <SaveGameState+0x62>
        if (gameState[x] != gameCheck[x]){
            if (EEWrite(x, &gameState[x], 1)) return 1;
    145e:	41 e0       	ldi	r20, 0x01	; 1
    1460:	b6 01       	movw	r22, r12
    1462:	8f 2d       	mov	r24, r15
    1464:	8c de       	rcall	.-744    	; 0x117e <EEWrite>
    1466:	88 23       	and	r24, r24
    1468:	91 f3       	breq	.-28     	; 0x144e <SaveGameState+0x42>
    146a:	91 e0       	ldi	r25, 0x01	; 1
    146c:	36 c0       	rjmp	.+108    	; 0x14da <SaveGameState+0xce>
        }
    }

    //Check the inventory too
    gameState[INVADDR] = (uint8_t)(inventory[0]>>8);
    146e:	20 91 3e 38 	lds	r18, 0x383E	; 0x80383e <inventory>
    1472:	30 91 3f 38 	lds	r19, 0x383F	; 0x80383f <inventory+0x1>
    1476:	30 93 73 3a 	sts	0x3A73, r19	; 0x803a73 <gameState+0x10>
    gameState[INVADDR+1] = (uint8_t)(inventory[0]&0xff);
    147a:	20 93 74 3a 	sts	0x3A74, r18	; 0x803a74 <gameState+0x11>
    gameState[INVADDR+2] = (uint8_t)(inventory[1]>>8);
    147e:	80 91 40 38 	lds	r24, 0x3840	; 0x803840 <inventory+0x2>
    1482:	90 91 41 38 	lds	r25, 0x3841	; 0x803841 <inventory+0x3>
    1486:	90 93 75 3a 	sts	0x3A75, r25	; 0x803a75 <gameState+0x12>
    gameState[INVADDR+3] = (uint8_t)(inventory[1]&0xff);
    148a:	80 93 76 3a 	sts	0x3A76, r24	; 0x803a76 <gameState+0x13>
    if (inventory[0] != (gameCheck[INVADDR]<<8|gameCheck[INVADDR+1])) {
    148e:	89 89       	ldd	r24, Y+17	; 0x11
    1490:	9a 89       	ldd	r25, Y+18	; 0x12
    1492:	98 27       	eor	r25, r24
    1494:	89 27       	eor	r24, r25
    1496:	98 27       	eor	r25, r24
    1498:	28 17       	cp	r18, r24
    149a:	39 07       	cpc	r19, r25
    149c:	69 f4       	brne	.+26     	; 0x14b8 <SaveGameState+0xac>
        if (EEWrite(INVADDR, &gameState[INVADDR], 2)) return 1;
    }
    if (inventory[1] != (gameCheck[INVADDR+2]<<8|gameCheck[INVADDR+3])) {
    149e:	8b 89       	ldd	r24, Y+19	; 0x13
    14a0:	9c 89       	ldd	r25, Y+20	; 0x14
    14a2:	98 27       	eor	r25, r24
    14a4:	89 27       	eor	r24, r25
    14a6:	98 27       	eor	r25, r24
    14a8:	20 91 40 38 	lds	r18, 0x3840	; 0x803840 <inventory+0x2>
    14ac:	30 91 41 38 	lds	r19, 0x3841	; 0x803841 <inventory+0x3>
    14b0:	28 17       	cp	r18, r24
    14b2:	39 07       	cpc	r19, r25
    14b4:	49 f4       	brne	.+18     	; 0x14c8 <SaveGameState+0xbc>
    14b6:	10 c0       	rjmp	.+32     	; 0x14d8 <SaveGameState+0xcc>
    gameState[INVADDR] = (uint8_t)(inventory[0]>>8);
    gameState[INVADDR+1] = (uint8_t)(inventory[0]&0xff);
    gameState[INVADDR+2] = (uint8_t)(inventory[1]>>8);
    gameState[INVADDR+3] = (uint8_t)(inventory[1]&0xff);
    if (inventory[0] != (gameCheck[INVADDR]<<8|gameCheck[INVADDR+1])) {
        if (EEWrite(INVADDR, &gameState[INVADDR], 2)) return 1;
    14b8:	42 e0       	ldi	r20, 0x02	; 2
    14ba:	63 e7       	ldi	r22, 0x73	; 115
    14bc:	7a e3       	ldi	r23, 0x3A	; 58
    14be:	80 e1       	ldi	r24, 0x10	; 16
    14c0:	5e de       	rcall	.-836    	; 0x117e <EEWrite>
    14c2:	88 23       	and	r24, r24
    14c4:	61 f3       	breq	.-40     	; 0x149e <SaveGameState+0x92>
    14c6:	d1 cf       	rjmp	.-94     	; 0x146a <SaveGameState+0x5e>
    }
    if (inventory[1] != (gameCheck[INVADDR+2]<<8|gameCheck[INVADDR+3])) {
        if (EEWrite(INVADDR+2, &gameState[INVADDR+2], 2)) return 1;
    14c8:	42 e0       	ldi	r20, 0x02	; 2
    14ca:	65 e7       	ldi	r22, 0x75	; 117
    14cc:	7a e3       	ldi	r23, 0x3A	; 58
    14ce:	82 e1       	ldi	r24, 0x12	; 18
    14d0:	56 de       	rcall	.-852    	; 0x117e <EEWrite>
    EERead(0, &gameCheck[0], BOOTCHK);

    //Check game status bits
    for (uint8_t x=0; x<STATLEN; ++x){
        if (gameState[x] != gameCheck[x]){
            if (EEWrite(x, &gameState[x], 1)) return 1;
    14d2:	91 e0       	ldi	r25, 0x01	; 1
    14d4:	81 11       	cpse	r24, r1
    14d6:	01 c0       	rjmp	.+2      	; 0x14da <SaveGameState+0xce>
    14d8:	90 e0       	ldi	r25, 0x00	; 0
    if (inventory[1] != (gameCheck[INVADDR+2]<<8|gameCheck[INVADDR+3])) {
        if (EEWrite(INVADDR+2, &gameState[INVADDR+2], 2)) return 1;
    }

    return 0;
}
    14da:	89 2f       	mov	r24, r25
    14dc:	64 96       	adiw	r28, 0x14	; 20
    14de:	cd bf       	out	0x3d, r28	; 61
    14e0:	de bf       	out	0x3e, r29	; 62
    14e2:	df 91       	pop	r29
    14e4:	cf 91       	pop	r28
    14e6:	1f 91       	pop	r17
    14e8:	0f 91       	pop	r16
    14ea:	ff 90       	pop	r15
    14ec:	df 90       	pop	r13
    14ee:	cf 90       	pop	r12
    14f0:	08 95       	ret

000014f2 <ReadStatusBit>:

uint8_t ReadStatusBit(uint8_t number){
    number &= 0x7f;
    if (gameState[number>>3] & (1<<(number&7))) return 1; else return 0;
    14f2:	e8 2f       	mov	r30, r24
    14f4:	ef 77       	andi	r30, 0x7F	; 127
    14f6:	e6 95       	lsr	r30
    14f8:	e6 95       	lsr	r30
    14fa:	e6 95       	lsr	r30
    14fc:	f0 e0       	ldi	r31, 0x00	; 0
    14fe:	ed 59       	subi	r30, 0x9D	; 157
    1500:	f5 4c       	sbci	r31, 0xC5	; 197
    1502:	20 81       	ld	r18, Z
    1504:	30 e0       	ldi	r19, 0x00	; 0
    1506:	87 70       	andi	r24, 0x07	; 7
    1508:	a9 01       	movw	r20, r18
    150a:	02 c0       	rjmp	.+4      	; 0x1510 <ReadStatusBit+0x1e>
    150c:	55 95       	asr	r21
    150e:	47 95       	ror	r20
    1510:	8a 95       	dec	r24
    1512:	e2 f7       	brpl	.-8      	; 0x150c <ReadStatusBit+0x1a>
    1514:	ca 01       	movw	r24, r20
}
    1516:	81 70       	andi	r24, 0x01	; 1
    1518:	08 95       	ret

0000151a <WriteStatusBit>:

void WriteStatusBit(uint8_t number, uint8_t state){
    number &= 0x7f;
    151a:	e8 2f       	mov	r30, r24
    151c:	ef 77       	andi	r30, 0x7F	; 127
    151e:	e6 95       	lsr	r30
    1520:	e6 95       	lsr	r30
    1522:	e6 95       	lsr	r30
    1524:	28 2f       	mov	r18, r24
    1526:	27 70       	andi	r18, 0x07	; 7
    if (state) gameState[number>>3] |= 1<<(number&7);
    1528:	f0 e0       	ldi	r31, 0x00	; 0
    152a:	ed 59       	subi	r30, 0x9D	; 157
    152c:	f5 4c       	sbci	r31, 0xC5	; 197
    152e:	81 e0       	ldi	r24, 0x01	; 1
    1530:	90 e0       	ldi	r25, 0x00	; 0
    1532:	01 c0       	rjmp	.+2      	; 0x1536 <WriteStatusBit+0x1c>
    1534:	88 0f       	add	r24, r24
    1536:	2a 95       	dec	r18
    1538:	ea f7       	brpl	.-6      	; 0x1534 <WriteStatusBit+0x1a>
    153a:	66 23       	and	r22, r22
    153c:	19 f0       	breq	.+6      	; 0x1544 <WriteStatusBit+0x2a>
    153e:	90 81       	ld	r25, Z
    1540:	89 2b       	or	r24, r25
    1542:	03 c0       	rjmp	.+6      	; 0x154a <WriteStatusBit+0x30>
    else gameState[number>>3] &= ~(1<<(number&7));
    1544:	80 95       	com	r24
    1546:	90 81       	ld	r25, Z
    1548:	89 23       	and	r24, r25
    154a:	80 83       	st	Z, r24
    154c:	08 95       	ret

0000154e <UpdateState>:
}

//Update game state: num -> vBBBBbbb v=value(0 is set!), BBBB=Byte number, bbb=bit number
void UpdateState(uint8_t num){
    154e:	98 2f       	mov	r25, r24
    uint8_t clearBit = num & 0x80;
    num &= 0x7f;
    1550:	8f 77       	andi	r24, 0x7F	; 127
    if (num) {
    1552:	31 f0       	breq	.+12     	; 0x1560 <UpdateState+0x12>
        if (clearBit) {
    1554:	97 ff       	sbrs	r25, 7
    1556:	02 c0       	rjmp	.+4      	; 0x155c <UpdateState+0xe>
            WriteStatusBit(num, 0);
    1558:	60 e0       	ldi	r22, 0x00	; 0
    155a:	01 c0       	rjmp	.+2      	; 0x155e <UpdateState+0x10>
        } else {
            WriteStatusBit(num, 1);
    155c:	61 e0       	ldi	r22, 0x01	; 1
    155e:	dd cf       	rjmp	.-70     	; 0x151a <WriteStatusBit>
    1560:	08 95       	ret

00001562 <CheckState>:
        }
    }
}

//Checks if state of bit BBBBbbb matches with v (inverted) bit
uint8_t CheckState(uint8_t num){
    1562:	cf 93       	push	r28
    1564:	c8 2f       	mov	r28, r24
    uint8_t bitSet = 0;
    if (ReadStatusBit(num & 0x7f)){
    1566:	8f 77       	andi	r24, 0x7F	; 127
    1568:	c4 df       	rcall	.-120    	; 0x14f2 <ReadStatusBit>
    156a:	2c 2f       	mov	r18, r28
    156c:	22 1f       	adc	r18, r18
    156e:	22 27       	eor	r18, r18
    1570:	22 1f       	adc	r18, r18
    1572:	91 e0       	ldi	r25, 0x01	; 1
    1574:	81 11       	cpse	r24, r1
    1576:	01 c0       	rjmp	.+2      	; 0x157a <CheckState+0x18>
    1578:	90 e0       	ldi	r25, 0x00	; 0
    }
    if (((num & 0x80)>0)^(bitSet>0)){
        return 1;
    }
    return 0;
}
    157a:	82 2f       	mov	r24, r18
    157c:	89 27       	eor	r24, r25
    157e:	cf 91       	pop	r28
    1580:	08 95       	ret

00001582 <getID>:

//Give out a number 0..3, calculated using serial number fields
uint8_t getID(){
    uint8_t id = 0;
    uint8_t *serNum;
    serNum = (uint8_t*)&SIGROW_SERNUM0;
    1582:	e3 e0       	ldi	r30, 0x03	; 3
    1584:	f1 e1       	ldi	r31, 0x11	; 17
    return 0;
}

//Give out a number 0..3, calculated using serial number fields
uint8_t getID(){
    uint8_t id = 0;
    1586:	80 e0       	ldi	r24, 0x00	; 0
    uint8_t *serNum;
    serNum = (uint8_t*)&SIGROW_SERNUM0;

    for (uint8_t x=0; x<10; ++x){
        id += *serNum;
    1588:	91 91       	ld	r25, Z+
    158a:	89 0f       	add	r24, r25
uint8_t getID(){
    uint8_t id = 0;
    uint8_t *serNum;
    serNum = (uint8_t*)&SIGROW_SERNUM0;

    for (uint8_t x=0; x<10; ++x){
    158c:	ed 30       	cpi	r30, 0x0D	; 13
    158e:	91 e1       	ldi	r25, 0x11	; 17
    1590:	f9 07       	cpc	r31, r25
    1592:	d1 f7       	brne	.-12     	; 0x1588 <getID+0x6>
        id += *serNum;
        ++serNum;
    }
    id %= 4;
    whoami = id+1;
    1594:	83 70       	andi	r24, 0x03	; 3
    1596:	8f 5f       	subi	r24, 0xFF	; 255
    1598:	80 93 3d 38 	sts	0x383D, r24	; 0x80383d <whoami>
    return whoami;
}
    159c:	08 95       	ret

0000159e <Reset>:

void Reset(){
    159e:	e3 e6       	ldi	r30, 0x63	; 99
    15a0:	fa e3       	ldi	r31, 0x3A	; 58
    //# 110   set to 1 by FW if badge UUID mod 4 == 0
    //# 111   set to 1 by FW if badge UUID mod 4 == 1
    //# 112   set to 1 by FW if badge UUID mod 4 == 2
    //# 113   set to 1 by FW if badge UUID mod 4 == 3
    for (uint8_t x=0; x<sizeof(gameState); ++x){
        gameState[x] = 0;
    15a2:	11 92       	st	Z+, r1
    //Reset game progress (all zeroes) and load some bits:
    //# 110   set to 1 by FW if badge UUID mod 4 == 0
    //# 111   set to 1 by FW if badge UUID mod 4 == 1
    //# 112   set to 1 by FW if badge UUID mod 4 == 2
    //# 113   set to 1 by FW if badge UUID mod 4 == 3
    for (uint8_t x=0; x<sizeof(gameState); ++x){
    15a4:	8a e3       	ldi	r24, 0x3A	; 58
    15a6:	e7 37       	cpi	r30, 0x77	; 119
    15a8:	f8 07       	cpc	r31, r24
    15aa:	d9 f7       	brne	.-10     	; 0x15a2 <Reset+0x4>
        gameState[x] = 0;
    }

    uint8_t id = getID();
    15ac:	ea df       	rcall	.-44     	; 0x1582 <getID>

    //Write bit in gameState location 110..113
    if (id == 0) WriteStatusBit(110, 1);
    15ae:	81 11       	cpse	r24, r1
    15b0:	04 c0       	rjmp	.+8      	; 0x15ba <Reset+0x1c>
    if (gameState[number>>3] & (1<<(number&7))) return 1; else return 0;
}

void WriteStatusBit(uint8_t number, uint8_t state){
    number &= 0x7f;
    if (state) gameState[number>>3] |= 1<<(number&7);
    15b2:	80 91 70 3a 	lds	r24, 0x3A70	; 0x803a70 <gameState+0xd>
    15b6:	80 64       	ori	r24, 0x40	; 64
    15b8:	05 c0       	rjmp	.+10     	; 0x15c4 <Reset+0x26>

    uint8_t id = getID();

    //Write bit in gameState location 110..113
    if (id == 0) WriteStatusBit(110, 1);
    else if (id == 1) WriteStatusBit(111, 1);
    15ba:	81 30       	cpi	r24, 0x01	; 1
    15bc:	31 f4       	brne	.+12     	; 0x15ca <Reset+0x2c>
    if (gameState[number>>3] & (1<<(number&7))) return 1; else return 0;
}

void WriteStatusBit(uint8_t number, uint8_t state){
    number &= 0x7f;
    if (state) gameState[number>>3] |= 1<<(number&7);
    15be:	80 91 70 3a 	lds	r24, 0x3A70	; 0x803a70 <gameState+0xd>
    15c2:	80 68       	ori	r24, 0x80	; 128
    15c4:	80 93 70 3a 	sts	0x3A70, r24	; 0x803a70 <gameState+0xd>
    15c8:	0d c0       	rjmp	.+26     	; 0x15e4 <Reset+0x46>
    uint8_t id = getID();

    //Write bit in gameState location 110..113
    if (id == 0) WriteStatusBit(110, 1);
    else if (id == 1) WriteStatusBit(111, 1);
    else if (id == 2) WriteStatusBit(112, 1);
    15ca:	82 30       	cpi	r24, 0x02	; 2
    15cc:	21 f4       	brne	.+8      	; 0x15d6 <Reset+0x38>
    if (gameState[number>>3] & (1<<(number&7))) return 1; else return 0;
}

void WriteStatusBit(uint8_t number, uint8_t state){
    number &= 0x7f;
    if (state) gameState[number>>3] |= 1<<(number&7);
    15ce:	80 91 71 3a 	lds	r24, 0x3A71	; 0x803a71 <gameState+0xe>
    15d2:	81 60       	ori	r24, 0x01	; 1
    15d4:	05 c0       	rjmp	.+10     	; 0x15e0 <Reset+0x42>

    //Write bit in gameState location 110..113
    if (id == 0) WriteStatusBit(110, 1);
    else if (id == 1) WriteStatusBit(111, 1);
    else if (id == 2) WriteStatusBit(112, 1);
    else if (id == 3) WriteStatusBit(113, 1);
    15d6:	83 30       	cpi	r24, 0x03	; 3
    15d8:	29 f4       	brne	.+10     	; 0x15e4 <Reset+0x46>
    if (gameState[number>>3] & (1<<(number&7))) return 1; else return 0;
}

void WriteStatusBit(uint8_t number, uint8_t state){
    number &= 0x7f;
    if (state) gameState[number>>3] |= 1<<(number&7);
    15da:	80 91 71 3a 	lds	r24, 0x3A71	; 0x803a71 <gameState+0xe>
    15de:	82 60       	ori	r24, 0x02	; 2
    15e0:	80 93 71 3a 	sts	0x3A71, r24	; 0x803a71 <gameState+0xe>
    15e4:	80 91 63 3a 	lds	r24, 0x3A63	; 0x803a63 <gameState>
    15e8:	81 60       	ori	r24, 0x01	; 1
    15ea:	80 93 63 3a 	sts	0x3A63, r24	; 0x803a63 <gameState>
    15ee:	08 95       	ret

000015f0 <LoadGameState>:

    return sample;
}

//Load game status
void LoadGameState(){
    15f0:	cf 93       	push	r28
    15f2:	df 93       	push	r29
    EERead(0, &gameState[0], BOOTCHK);   //Load game status bits from EEPROM
    15f4:	44 e1       	ldi	r20, 0x14	; 20
    15f6:	63 e6       	ldi	r22, 0x63	; 99
    15f8:	7a e3       	ldi	r23, 0x3A	; 58
    15fa:	80 e0       	ldi	r24, 0x00	; 0
    15fc:	b0 dd       	rcall	.-1184   	; 0x115e <EERead>
    15fe:	ce e6       	ldi	r28, 0x6E	; 110

    uint8_t idSet = 0;
    1600:	d0 e0       	ldi	r29, 0x00	; 0
    for (uint8_t x=0; x<4; ++x){
        idSet += ReadStatusBit(110+x);
    1602:	8c 2f       	mov	r24, r28
    1604:	76 df       	rcall	.-276    	; 0x14f2 <ReadStatusBit>
    1606:	d8 0f       	add	r29, r24
    1608:	cf 5f       	subi	r28, 0xFF	; 255
//Load game status
void LoadGameState(){
    EERead(0, &gameState[0], BOOTCHK);   //Load game status bits from EEPROM

    uint8_t idSet = 0;
    for (uint8_t x=0; x<4; ++x){
    160a:	c2 37       	cpi	r28, 0x72	; 114
    160c:	d1 f7       	brne	.-12     	; 0x1602 <LoadGameState+0x12>
        idSet += ReadStatusBit(110+x);
    }

    //Check if badge is reset(0 = cheated!) or new(3) or error(2)
    if (idSet != 1) {
    160e:	d1 30       	cpi	r29, 0x01	; 1
        Reset();
    1610:	11 f0       	breq	.+4      	; 0x1616 <LoadGameState+0x26>
    1612:	c5 df       	rcall	.-118    	; 0x159e <Reset>
    } else getID();
    1614:	01 c0       	rjmp	.+2      	; 0x1618 <LoadGameState+0x28>
    1616:	b5 df       	rcall	.-150    	; 0x1582 <getID>

    inventory[0] = (gameState[INVADDR]<<8|gameState[INVADDR+1]);
    1618:	80 91 73 3a 	lds	r24, 0x3A73	; 0x803a73 <gameState+0x10>
    161c:	90 91 74 3a 	lds	r25, 0x3A74	; 0x803a74 <gameState+0x11>
    1620:	98 27       	eor	r25, r24
    1622:	89 27       	eor	r24, r25
    1624:	98 27       	eor	r25, r24
    1626:	80 93 3e 38 	sts	0x383E, r24	; 0x80383e <inventory>
    162a:	90 93 3f 38 	sts	0x383F, r25	; 0x80383f <inventory+0x1>
    inventory[1] = (gameState[INVADDR+2]<<8|gameState[INVADDR+3]);
    162e:	80 91 75 3a 	lds	r24, 0x3A75	; 0x803a75 <gameState+0x12>
    1632:	90 91 76 3a 	lds	r25, 0x3A76	; 0x803a76 <gameState+0x13>
    1636:	98 27       	eor	r25, r24
    1638:	89 27       	eor	r24, r25
    163a:	98 27       	eor	r25, r24
    163c:	80 93 40 38 	sts	0x3840, r24	; 0x803840 <inventory+0x2>
    1640:	90 93 41 38 	sts	0x3841, r25	; 0x803841 <inventory+0x3>
}
    1644:	df 91       	pop	r29
    1646:	cf 91       	pop	r28
    1648:	08 95       	ret

0000164a <HotSummer>:
    //Write bit 0, must always be 1!
    WriteStatusBit(0, 1);
}

//Sets specific game bits after the badge is heated for one and two times.
uint8_t HotSummer(){
    164a:	cf 93       	push	r28
    static uint8_t cooledDown = 0;

    if (CheckState(SUMMERS_COMPLETED)){
    164c:	86 e7       	ldi	r24, 0x76	; 118
    164e:	89 df       	rcall	.-238    	; 0x1562 <CheckState>
    1650:	c8 2f       	mov	r28, r24
    1652:	88 23       	and	r24, r24
    1654:	81 f0       	breq	.+32     	; 0x1676 <HotSummer+0x2c>
        iLED[SCARAB[G]] = 0;
    1656:	e0 91 67 be 	lds	r30, 0xBE67	; 0x80be67 <__bss_end+0x834b>
    165a:	f0 e0       	ldi	r31, 0x00	; 0
    165c:	e4 53       	subi	r30, 0x34	; 52
    165e:	f5 4c       	sbci	r31, 0xC5	; 197
    1660:	10 82       	st	Z, r1
        iLED[SCARAB[R]] = dimValue;
    1662:	e0 91 66 be 	lds	r30, 0xBE66	; 0x80be66 <__bss_end+0x834a>
    1666:	f0 e0       	ldi	r31, 0x00	; 0
    1668:	80 91 0b 38 	lds	r24, 0x380B	; 0x80380b <dimValue>
    166c:	e4 53       	subi	r30, 0x34	; 52
    166e:	f5 4c       	sbci	r31, 0xC5	; 197
    1670:	80 83       	st	Z, r24
        return 1;
    1672:	c1 e0       	ldi	r28, 0x01	; 1
    1674:	4c c0       	rjmp	.+152    	; 0x170e <HotSummer+0xc4>
    }

    if (CheckState(FIRST_SUMMER)) {
    1676:	85 e7       	ldi	r24, 0x75	; 117
    1678:	74 df       	rcall	.-280    	; 0x1562 <CheckState>
    167a:	88 23       	and	r24, r24
    167c:	59 f1       	breq	.+86     	; 0x16d4 <HotSummer+0x8a>
        iLED[SCARAB[G]] = dimValue;
    167e:	e0 91 67 be 	lds	r30, 0xBE67	; 0x80be67 <__bss_end+0x834b>
    1682:	f0 e0       	ldi	r31, 0x00	; 0
    1684:	80 91 0b 38 	lds	r24, 0x380B	; 0x80380b <dimValue>
    1688:	e4 53       	subi	r30, 0x34	; 52
    168a:	f5 4c       	sbci	r31, 0xC5	; 197
    168c:	80 83       	st	Z, r24
        if ((cooledDown) && (adcTemp >= (calTemp + 32))) {
    168e:	80 91 59 38 	lds	r24, 0x3859	; 0x803859 <cooledDown.3952>
    1692:	88 23       	and	r24, r24
    1694:	79 f0       	breq	.+30     	; 0x16b4 <HotSummer+0x6a>
    1696:	80 91 c2 3a 	lds	r24, 0x3AC2	; 0x803ac2 <calTemp>
    169a:	90 91 c3 3a 	lds	r25, 0x3AC3	; 0x803ac3 <calTemp+0x1>
    169e:	20 91 f7 3a 	lds	r18, 0x3AF7	; 0x803af7 <adcTemp>
    16a2:	30 91 f8 3a 	lds	r19, 0x3AF8	; 0x803af8 <adcTemp+0x1>
    16a6:	80 96       	adiw	r24, 0x20	; 32
    16a8:	28 17       	cp	r18, r24
    16aa:	39 07       	cpc	r19, r25
            UpdateState(SUMMERS_COMPLETED);
    16ac:	18 f0       	brcs	.+6      	; 0x16b4 <HotSummer+0x6a>
    16ae:	86 e7       	ldi	r24, 0x76	; 118
    16b0:	4e df       	rcall	.-356    	; 0x154e <UpdateState>
            return 0;
    16b2:	2d c0       	rjmp	.+90     	; 0x170e <HotSummer+0xc4>
        }
        if (adcTemp <= (calTemp + 8)) cooledDown = 1;
    16b4:	80 91 c2 3a 	lds	r24, 0x3AC2	; 0x803ac2 <calTemp>
    16b8:	90 91 c3 3a 	lds	r25, 0x3AC3	; 0x803ac3 <calTemp+0x1>
    16bc:	20 91 f7 3a 	lds	r18, 0x3AF7	; 0x803af7 <adcTemp>
    16c0:	30 91 f8 3a 	lds	r19, 0x3AF8	; 0x803af8 <adcTemp+0x1>
    16c4:	08 96       	adiw	r24, 0x08	; 8
    16c6:	82 17       	cp	r24, r18
    16c8:	93 07       	cpc	r25, r19
    16ca:	08 f1       	brcs	.+66     	; 0x170e <HotSummer+0xc4>
    16cc:	81 e0       	ldi	r24, 0x01	; 1
    16ce:	80 93 59 38 	sts	0x3859, r24	; 0x803859 <cooledDown.3952>
    16d2:	1d c0       	rjmp	.+58     	; 0x170e <HotSummer+0xc4>
                   
    } else {
        if (calTemp == 0) calTemp = adcTemp;
    16d4:	80 91 c2 3a 	lds	r24, 0x3AC2	; 0x803ac2 <calTemp>
    16d8:	90 91 c3 3a 	lds	r25, 0x3AC3	; 0x803ac3 <calTemp+0x1>
    16dc:	89 2b       	or	r24, r25
    16de:	41 f4       	brne	.+16     	; 0x16f0 <HotSummer+0xa6>
    16e0:	80 91 f7 3a 	lds	r24, 0x3AF7	; 0x803af7 <adcTemp>
    16e4:	90 91 f8 3a 	lds	r25, 0x3AF8	; 0x803af8 <adcTemp+0x1>
    16e8:	80 93 c2 3a 	sts	0x3AC2, r24	; 0x803ac2 <calTemp>
    16ec:	90 93 c3 3a 	sts	0x3AC3, r25	; 0x803ac3 <calTemp+0x1>
        if (adcTemp >= (calTemp + 32)) {
    16f0:	80 91 c2 3a 	lds	r24, 0x3AC2	; 0x803ac2 <calTemp>
    16f4:	90 91 c3 3a 	lds	r25, 0x3AC3	; 0x803ac3 <calTemp+0x1>
    16f8:	20 91 f7 3a 	lds	r18, 0x3AF7	; 0x803af7 <adcTemp>
    16fc:	30 91 f8 3a 	lds	r19, 0x3AF8	; 0x803af8 <adcTemp+0x1>
    1700:	80 96       	adiw	r24, 0x20	; 32
    1702:	28 17       	cp	r18, r24
    1704:	39 07       	cpc	r19, r25
            UpdateState(FIRST_SUMMER);
    1706:	18 f0       	brcs	.+6      	; 0x170e <HotSummer+0xc4>
    1708:	85 e7       	ldi	r24, 0x75	; 117
    170a:	21 df       	rcall	.-446    	; 0x154e <UpdateState>
        }
    }
    return 0;
    170c:	c0 e0       	ldi	r28, 0x00	; 0
}
    170e:	8c 2f       	mov	r24, r28
    1710:	cf 91       	pop	r28
    1712:	08 95       	ret

00001714 <WingBar>:

void WingBar(int8_t l, int8_t r) {
    1714:	e8 e6       	ldi	r30, 0x68	; 104
    1716:	fe eb       	ldi	r31, 0xBE	; 190
    for (int8_t i=0; i<5; i++) {
    1718:	90 e0       	ldi	r25, 0x00	; 0
        if (i<l)
            iLED[WING[L][i]] = dimValue;
    171a:	a5 81       	ldd	r26, Z+5	; 0x05
    171c:	b0 e0       	ldi	r27, 0x00	; 0
    return 0;
}

void WingBar(int8_t l, int8_t r) {
    for (int8_t i=0; i<5; i++) {
        if (i<l)
    171e:	98 17       	cp	r25, r24
    1720:	34 f4       	brge	.+12     	; 0x172e <WingBar+0x1a>
            iLED[WING[L][i]] = dimValue;
    1722:	20 91 0b 38 	lds	r18, 0x380B	; 0x80380b <dimValue>
    1726:	a4 53       	subi	r26, 0x34	; 52
    1728:	b5 4c       	sbci	r27, 0xC5	; 197
    172a:	2c 93       	st	X, r18
    172c:	03 c0       	rjmp	.+6      	; 0x1734 <WingBar+0x20>
        else
            iLED[WING[L][i]] = 0;
    172e:	a4 53       	subi	r26, 0x34	; 52
    1730:	b5 4c       	sbci	r27, 0xC5	; 197
    1732:	1c 92       	st	X, r1
        if (i<r)
            iLED[WING[R][i]] = dimValue;
    1734:	a0 81       	ld	r26, Z
    1736:	b0 e0       	ldi	r27, 0x00	; 0
    for (int8_t i=0; i<5; i++) {
        if (i<l)
            iLED[WING[L][i]] = dimValue;
        else
            iLED[WING[L][i]] = 0;
        if (i<r)
    1738:	96 17       	cp	r25, r22
    173a:	34 f4       	brge	.+12     	; 0x1748 <WingBar+0x34>
            iLED[WING[R][i]] = dimValue;
    173c:	20 91 0b 38 	lds	r18, 0x380B	; 0x80380b <dimValue>
    1740:	a4 53       	subi	r26, 0x34	; 52
    1742:	b5 4c       	sbci	r27, 0xC5	; 197
    1744:	2c 93       	st	X, r18
    1746:	03 c0       	rjmp	.+6      	; 0x174e <WingBar+0x3a>
        else
            iLED[WING[R][i]] = 0;
    1748:	a4 53       	subi	r26, 0x34	; 52
    174a:	b5 4c       	sbci	r27, 0xC5	; 197
    174c:	1c 92       	st	X, r1
    174e:	9f 5f       	subi	r25, 0xFF	; 255
    1750:	31 96       	adiw	r30, 0x01	; 1
    }
    return 0;
}

void WingBar(int8_t l, int8_t r) {
    for (int8_t i=0; i<5; i++) {
    1752:	95 30       	cpi	r25, 0x05	; 5
    1754:	11 f7       	brne	.-60     	; 0x171a <WingBar+0x6>
        if (i<r)
            iLED[WING[R][i]] = dimValue;
        else
            iLED[WING[R][i]] = 0;
    }
}
    1756:	08 95       	ret

00001758 <SetBothEyes>:

void SetBothEyes(uint8_t r, uint8_t g) {
    for (uint8_t i=0; i<2; i++) {
        iLED[EYE[R][i]] = r;
    1758:	a2 e7       	ldi	r26, 0x72	; 114
    175a:	be eb       	ldi	r27, 0xBE	; 190
    175c:	ec 91       	ld	r30, X
    175e:	f0 e0       	ldi	r31, 0x00	; 0
    1760:	e4 53       	subi	r30, 0x34	; 52
    1762:	f5 4c       	sbci	r31, 0xC5	; 197
    1764:	80 83       	st	Z, r24
        iLED[EYE[G][i]] = g;
    1766:	12 96       	adiw	r26, 0x02	; 2
    1768:	ec 91       	ld	r30, X
    176a:	12 97       	sbiw	r26, 0x02	; 2
    176c:	f0 e0       	ldi	r31, 0x00	; 0
    176e:	e4 53       	subi	r30, 0x34	; 52
    1770:	f5 4c       	sbci	r31, 0xC5	; 197
    1772:	60 83       	st	Z, r22
    }
}

void SetBothEyes(uint8_t r, uint8_t g) {
    for (uint8_t i=0; i<2; i++) {
        iLED[EYE[R][i]] = r;
    1774:	11 96       	adiw	r26, 0x01	; 1
    1776:	ec 91       	ld	r30, X
    1778:	11 97       	sbiw	r26, 0x01	; 1
    177a:	f0 e0       	ldi	r31, 0x00	; 0
    177c:	e4 53       	subi	r30, 0x34	; 52
    177e:	f5 4c       	sbci	r31, 0xC5	; 197
    1780:	80 83       	st	Z, r24
        iLED[EYE[G][i]] = g;
    1782:	13 96       	adiw	r26, 0x03	; 3
    1784:	ec 91       	ld	r30, X
    1786:	f0 e0       	ldi	r31, 0x00	; 0
    1788:	e4 53       	subi	r30, 0x34	; 52
    178a:	f5 4c       	sbci	r31, 0xC5	; 197
    178c:	60 83       	st	Z, r22
    178e:	08 95       	ret

00001790 <GenerateBlinks>:
    }
}

void GenerateBlinks(){
    1790:	1f 93       	push	r17
    1792:	cf 93       	push	r28
    1794:	df 93       	push	r29
    used by the games, the other LEDs can be used by setting 
    effect (or be set directly)
    */

    //Activate HCKR & BADGER leds based on the state-bits
    if (gameNow == TEXT) {
    1796:	80 91 3c 38 	lds	r24, 0x383C	; 0x80383c <gameNow>
    179a:	88 23       	and	r24, r24
    179c:	29 f0       	breq	.+10     	; 0x17a8 <GenerateBlinks+0x18>
                iLED[HCKR[R][i]] = dimValue;
            }
        }
    }

    if (CheckState(GEM_STATE)) {
    179e:	80 e4       	ldi	r24, 0x40	; 64
    17a0:	e0 de       	rcall	.-576    	; 0x1562 <CheckState>
    17a2:	81 11       	cpse	r24, r1
    17a4:	24 c0       	rjmp	.+72     	; 0x17ee <GenerateBlinks+0x5e>
    17a6:	50 c0       	rjmp	.+160    	; 0x1848 <GenerateBlinks+0xb8>
    17a8:	c6 e7       	ldi	r28, 0x76	; 118
    17aa:	de eb       	ldi	r29, 0xBE	; 190
    used by the games, the other LEDs can be used by setting 
    effect (or be set directly)
    */

    //Activate HCKR & BADGER leds based on the state-bits
    if (gameNow == TEXT) {
    17ac:	1a e7       	ldi	r17, 0x7A	; 122
        for (uint8_t i=0;i<6;i++) {
            if(CheckState(HACKER_STATES + i)) {
    17ae:	81 2f       	mov	r24, r17
    17b0:	d8 de       	rcall	.-592    	; 0x1562 <CheckState>
                iLED[HCKR[G][i]] = dimValue;
    17b2:	ee 81       	ldd	r30, Y+6	; 0x06
    17b4:	f0 e0       	ldi	r31, 0x00	; 0
    */

    //Activate HCKR & BADGER leds based on the state-bits
    if (gameNow == TEXT) {
        for (uint8_t i=0;i<6;i++) {
            if(CheckState(HACKER_STATES + i)) {
    17b6:	88 23       	and	r24, r24
    17b8:	59 f0       	breq	.+22     	; 0x17d0 <GenerateBlinks+0x40>
                iLED[HCKR[G][i]] = dimValue;
    17ba:	80 91 0b 38 	lds	r24, 0x380B	; 0x80380b <dimValue>
    17be:	e4 53       	subi	r30, 0x34	; 52
    17c0:	f5 4c       	sbci	r31, 0xC5	; 197
    17c2:	80 83       	st	Z, r24
                iLED[HCKR[R][i]] = 0;
    17c4:	e8 81       	ld	r30, Y
    17c6:	f0 e0       	ldi	r31, 0x00	; 0
    17c8:	e4 53       	subi	r30, 0x34	; 52
    17ca:	f5 4c       	sbci	r31, 0xC5	; 197
    17cc:	10 82       	st	Z, r1
    17ce:	0a c0       	rjmp	.+20     	; 0x17e4 <GenerateBlinks+0x54>
            } else {
                iLED[HCKR[G][i]] = 0;
    17d0:	e4 53       	subi	r30, 0x34	; 52
    17d2:	f5 4c       	sbci	r31, 0xC5	; 197
    17d4:	10 82       	st	Z, r1
                iLED[HCKR[R][i]] = dimValue;
    17d6:	e8 81       	ld	r30, Y
    17d8:	f0 e0       	ldi	r31, 0x00	; 0
    17da:	80 91 0b 38 	lds	r24, 0x380B	; 0x80380b <dimValue>
    17de:	e4 53       	subi	r30, 0x34	; 52
    17e0:	f5 4c       	sbci	r31, 0xC5	; 197
    17e2:	80 83       	st	Z, r24
    17e4:	1f 5f       	subi	r17, 0xFF	; 255
    17e6:	21 96       	adiw	r28, 0x01	; 1
    effect (or be set directly)
    */

    //Activate HCKR & BADGER leds based on the state-bits
    if (gameNow == TEXT) {
        for (uint8_t i=0;i<6;i++) {
    17e8:	10 38       	cpi	r17, 0x80	; 128
    17ea:	09 f7       	brne	.-62     	; 0x17ae <GenerateBlinks+0x1e>
    17ec:	d8 cf       	rjmp	.-80     	; 0x179e <GenerateBlinks+0xe>
            }
        }
    }

    if (CheckState(GEM_STATE)) {
        if ( HeartCount == 1 || HeartCount == 3 || HeartCount == 5 )
    17ee:	80 91 5b 38 	lds	r24, 0x385B	; 0x80385b <HeartCount>
    17f2:	98 2f       	mov	r25, r24
    17f4:	9d 7f       	andi	r25, 0xFD	; 253
    17f6:	e0 91 65 be 	lds	r30, 0xBE65	; 0x80be65 <__bss_end+0x8349>
            iLED[BADGER] = dimValue>>1 ;
    17fa:	f0 e0       	ldi	r31, 0x00	; 0
            }
        }
    }

    if (CheckState(GEM_STATE)) {
        if ( HeartCount == 1 || HeartCount == 3 || HeartCount == 5 )
    17fc:	91 30       	cpi	r25, 0x01	; 1
    17fe:	11 f0       	breq	.+4      	; 0x1804 <GenerateBlinks+0x74>
    1800:	85 30       	cpi	r24, 0x05	; 5
    1802:	21 f4       	brne	.+8      	; 0x180c <GenerateBlinks+0x7c>
            iLED[BADGER] = dimValue>>1 ;
    1804:	90 91 0b 38 	lds	r25, 0x380B	; 0x80380b <dimValue>
    1808:	96 95       	lsr	r25
    180a:	06 c0       	rjmp	.+12     	; 0x1818 <GenerateBlinks+0x88>
        else if ( HeartCount == 2 || HeartCount == 4 )
    180c:	82 30       	cpi	r24, 0x02	; 2
    180e:	11 f0       	breq	.+4      	; 0x1814 <GenerateBlinks+0x84>
    1810:	84 30       	cpi	r24, 0x04	; 4
    1812:	31 f4       	brne	.+12     	; 0x1820 <GenerateBlinks+0x90>
            iLED[BADGER] = dimValue;
    1814:	90 91 0b 38 	lds	r25, 0x380B	; 0x80380b <dimValue>
    1818:	e4 53       	subi	r30, 0x34	; 52
    181a:	f5 4c       	sbci	r31, 0xC5	; 197
    181c:	90 83       	st	Z, r25
    181e:	0c c0       	rjmp	.+24     	; 0x1838 <GenerateBlinks+0xa8>
        else if ( HeartCount == 0 || HeartCount == 6 )
    1820:	88 23       	and	r24, r24
    1822:	11 f0       	breq	.+4      	; 0x1828 <GenerateBlinks+0x98>
    1824:	86 30       	cpi	r24, 0x06	; 6
    1826:	29 f4       	brne	.+10     	; 0x1832 <GenerateBlinks+0xa2>
            iLED[BADGER] = dimValue>>2;
    1828:	90 91 0b 38 	lds	r25, 0x380B	; 0x80380b <dimValue>
    182c:	96 95       	lsr	r25
    182e:	96 95       	lsr	r25
    1830:	f3 cf       	rjmp	.-26     	; 0x1818 <GenerateBlinks+0x88>
        else
            iLED[BADGER] = 0;
    1832:	e4 53       	subi	r30, 0x34	; 52
    1834:	f5 4c       	sbci	r31, 0xC5	; 197
    1836:	10 82       	st	Z, r1
        if (HeartCount<32)
    1838:	80 32       	cpi	r24, 0x20	; 32
    183a:	20 f4       	brcc	.+8      	; 0x1844 <GenerateBlinks+0xb4>
            HeartCount++;
    183c:	8f 5f       	subi	r24, 0xFF	; 255
    183e:	80 93 5b 38 	sts	0x385B, r24	; 0x80385b <HeartCount>
    1842:	02 c0       	rjmp	.+4      	; 0x1848 <GenerateBlinks+0xb8>
        else
            HeartCount = 0;
    1844:	10 92 5b 38 	sts	0x385B, r1	; 0x80385b <HeartCount>
    }

    //LEDs effects for all games
    // Keep a counter for dynamic effects
    LedCount++;
    1848:	90 91 5a 38 	lds	r25, 0x385A	; 0x80385a <LedCount>
    184c:	9f 5f       	subi	r25, 0xFF	; 255
    184e:	90 93 5a 38 	sts	0x385A, r25	; 0x80385a <LedCount>

    switch (effect&0x1f) {
    1852:	20 91 3a 38 	lds	r18, 0x383A	; 0x80383a <effect>
    1856:	30 91 3b 38 	lds	r19, 0x383B	; 0x80383b <effect+0x1>
    185a:	2f 71       	andi	r18, 0x1F	; 31
    185c:	33 27       	eor	r19, r19
    185e:	21 30       	cpi	r18, 0x01	; 1
    1860:	31 05       	cpc	r19, r1
    1862:	99 f1       	breq	.+102    	; 0x18ca <GenerateBlinks+0x13a>
    1864:	20 f0       	brcs	.+8      	; 0x186e <GenerateBlinks+0xde>
    1866:	22 30       	cpi	r18, 0x02	; 2
    1868:	31 05       	cpc	r19, r1
    186a:	b1 f1       	breq	.+108    	; 0x18d8 <GenerateBlinks+0x148>
    186c:	46 c0       	rjmp	.+140    	; 0x18fa <GenerateBlinks+0x16a>
        // All LEDs off
        case 0:
            WingBar(0,0);
    186e:	60 e0       	ldi	r22, 0x00	; 0
    1870:	80 e0       	ldi	r24, 0x00	; 0
    1872:	50 df       	rcall	.-352    	; 0x1714 <WingBar>
            for (uint8_t i=0; i<2; i++) {
                iLED[EYE[R][i]] = 0;
    1874:	e0 91 72 be 	lds	r30, 0xBE72	; 0x80be72 <__bss_end+0x8356>
    1878:	f0 e0       	ldi	r31, 0x00	; 0
    187a:	e4 53       	subi	r30, 0x34	; 52
    187c:	f5 4c       	sbci	r31, 0xC5	; 197
    187e:	10 82       	st	Z, r1
                iLED[EYE[G][i]] = 0;
    1880:	e0 91 74 be 	lds	r30, 0xBE74	; 0x80be74 <__bss_end+0x8358>
    1884:	f0 e0       	ldi	r31, 0x00	; 0
    1886:	e4 53       	subi	r30, 0x34	; 52
    1888:	f5 4c       	sbci	r31, 0xC5	; 197
    188a:	10 82       	st	Z, r1
                iLED[SCARAB[i]] = 0;
    188c:	e0 91 66 be 	lds	r30, 0xBE66	; 0x80be66 <__bss_end+0x834a>
    1890:	f0 e0       	ldi	r31, 0x00	; 0
    1892:	e4 53       	subi	r30, 0x34	; 52
    1894:	f5 4c       	sbci	r31, 0xC5	; 197
    1896:	10 82       	st	Z, r1
    switch (effect&0x1f) {
        // All LEDs off
        case 0:
            WingBar(0,0);
            for (uint8_t i=0; i<2; i++) {
                iLED[EYE[R][i]] = 0;
    1898:	e0 91 73 be 	lds	r30, 0xBE73	; 0x80be73 <__bss_end+0x8357>
    189c:	f0 e0       	ldi	r31, 0x00	; 0
    189e:	e4 53       	subi	r30, 0x34	; 52
    18a0:	f5 4c       	sbci	r31, 0xC5	; 197
    18a2:	10 82       	st	Z, r1
                iLED[EYE[G][i]] = 0;
    18a4:	e0 91 75 be 	lds	r30, 0xBE75	; 0x80be75 <__bss_end+0x8359>
    18a8:	f0 e0       	ldi	r31, 0x00	; 0
    18aa:	e4 53       	subi	r30, 0x34	; 52
    18ac:	f5 4c       	sbci	r31, 0xC5	; 197
    18ae:	10 82       	st	Z, r1
                iLED[SCARAB[i]] = 0;
    18b0:	e0 91 67 be 	lds	r30, 0xBE67	; 0x80be67 <__bss_end+0x834b>
    18b4:	f0 e0       	ldi	r31, 0x00	; 0
    18b6:	e4 53       	subi	r30, 0x34	; 52
    18b8:	f5 4c       	sbci	r31, 0xC5	; 197
    18ba:	10 82       	st	Z, r1
            }
            iLED[CAT] = 0;
    18bc:	e0 91 64 be 	lds	r30, 0xBE64	; 0x80be64 <__bss_end+0x8348>
    18c0:	f0 e0       	ldi	r31, 0x00	; 0
    18c2:	e4 53       	subi	r30, 0x34	; 52
    18c4:	f5 4c       	sbci	r31, 0xC5	; 197
    18c6:	10 82       	st	Z, r1
            break;
    18c8:	18 c0       	rjmp	.+48     	; 0x18fa <GenerateBlinks+0x16a>

        //'flashing red eyes',       # 1 can be used when a bad answer is given
        case 1:
            SetBothEyes((LedCount & 1 ? dimValue : 0),0);
    18ca:	89 2f       	mov	r24, r25
    18cc:	81 70       	andi	r24, 0x01	; 1
    18ce:	90 fd       	sbrc	r25, 0
    18d0:	80 91 0b 38 	lds	r24, 0x380B	; 0x80380b <dimValue>
    18d4:	60 e0       	ldi	r22, 0x00	; 0
    18d6:	0d c0       	rjmp	.+26     	; 0x18f2 <GenerateBlinks+0x162>
    18d8:	69 2f       	mov	r22, r25
    18da:	70 e0       	ldi	r23, 0x00	; 0
            break;

        //'flashing green eyes',     # 2 can be used when a good answer is given
        case 2:
            SetBothEyes(0, 0x1f + (((LedCount & 0x08) ? ((LedCount&0x07)^0x07) : (LedCount&0x07))<<5));
    18dc:	93 ff       	sbrs	r25, 3
    18de:	02 c0       	rjmp	.+4      	; 0x18e4 <GenerateBlinks+0x154>
    18e0:	60 95       	com	r22
    18e2:	70 95       	com	r23
    18e4:	85 e0       	ldi	r24, 0x05	; 5
    18e6:	66 0f       	add	r22, r22
    18e8:	77 1f       	adc	r23, r23
    18ea:	8a 95       	dec	r24
    18ec:	e1 f7       	brne	.-8      	; 0x18e6 <GenerateBlinks+0x156>
    18ee:	61 5e       	subi	r22, 0xE1	; 225
    18f0:	80 e0       	ldi	r24, 0x00	; 0
        // No LED action, game will do it's own LED magic
        case 31:
        default:
            break;
    }
}
    18f2:	df 91       	pop	r29
    18f4:	cf 91       	pop	r28
            SetBothEyes((LedCount & 1 ? dimValue : 0),0);
            break;

        //'flashing green eyes',     # 2 can be used when a good answer is given
        case 2:
            SetBothEyes(0, 0x1f + (((LedCount & 0x08) ? ((LedCount&0x07)^0x07) : (LedCount&0x07))<<5));
    18f6:	1f 91       	pop	r17
    18f8:	2f cf       	rjmp	.-418    	; 0x1758 <SetBothEyes>
        // No LED action, game will do it's own LED magic
        case 31:
        default:
            break;
    }
}
    18fa:	df 91       	pop	r29
    18fc:	cf 91       	pop	r28
    18fe:	1f 91       	pop	r17
    1900:	08 95       	ret

00001902 <GenerateAudio>:


uint8_t GenerateAudio(){
    1902:	0f 93       	push	r16
    1904:	1f 93       	push	r17
    1906:	cf 93       	push	r28

    if (auIn[AULEN>>1] < HPLVL) {
    1908:	80 91 c8 3a 	lds	r24, 0x3AC8	; 0x803ac8 <auIn+0x4>
    190c:	89 31       	cpi	r24, 0x19	; 25
    190e:	08 f0       	brcs	.+2      	; 0x1912 <GenerateAudio+0x10>
    1910:	2e c1       	rjmp	.+604    	; 0x1b6e <GenerateAudio+0x26c>

        detHdPh = 1;
    1912:	c1 e0       	ldi	r28, 0x01	; 1
    1914:	c0 93 c1 3a 	sts	0x3AC1, r28	; 0x803ac1 <detHdPh>

        //Audio for text adventure
        if ((effect&0xff00)==0) {
    1918:	80 91 3a 38 	lds	r24, 0x383A	; 0x80383a <effect>
    191c:	90 91 3b 38 	lds	r25, 0x383B	; 0x80383b <effect+0x1>
    1920:	88 27       	eor	r24, r24
    1922:	89 2b       	or	r24, r25
    1924:	09 f0       	breq	.+2      	; 0x1928 <GenerateAudio+0x26>
    1926:	bf c0       	rjmp	.+382    	; 0x1aa6 <GenerateAudio+0x1a4>

            //Silence
            if ((effect&0xE0)==0){
    1928:	80 91 3a 38 	lds	r24, 0x383A	; 0x80383a <effect>
    192c:	90 91 3b 38 	lds	r25, 0x383B	; 0x80383b <effect+0x1>
    1930:	80 7e       	andi	r24, 0xE0	; 224
    1932:	99 27       	eor	r25, r25
    1934:	89 2b       	or	r24, r25
    1936:	31 f4       	brne	.+12     	; 0x1944 <GenerateAudio+0x42>
                auRepAddr = &zero;
    1938:	88 e3       	ldi	r24, 0x38	; 56
    193a:	98 e3       	ldi	r25, 0x38	; 56
    193c:	80 93 05 38 	sts	0x3805, r24	; 0x803805 <auRepAddr>
    1940:	90 93 06 38 	sts	0x3806, r25	; 0x803806 <auRepAddr+0x1>
            }

            //Bad (buzzer)
            if ((effect&0xE0)==32){
    1944:	80 91 3a 38 	lds	r24, 0x383A	; 0x80383a <effect>
    1948:	90 91 3b 38 	lds	r25, 0x383B	; 0x80383b <effect+0x1>
    194c:	80 7e       	andi	r24, 0xE0	; 224
    194e:	99 27       	eor	r25, r25
    1950:	80 97       	sbiw	r24, 0x20	; 32
    1952:	09 f0       	breq	.+2      	; 0x1956 <GenerateAudio+0x54>
    1954:	59 c0       	rjmp	.+178    	; 0x1a08 <GenerateAudio+0x106>
                static uint8_t auBuffer[17] = {1, 255, 128, 128, 192, 255, 64, 255, 192, 128, 64, 1, 192, 1, 64, 128, 0}; 
                static uint8_t loudness, duration, start;
                floatSpeed(1, 0x2000, 0x2200);
    1956:	40 e0       	ldi	r20, 0x00	; 0
    1958:	52 e2       	ldi	r21, 0x22	; 34
    195a:	60 e0       	ldi	r22, 0x00	; 0
    195c:	70 e2       	ldi	r23, 0x20	; 32
    195e:	81 e0       	ldi	r24, 0x01	; 1
    1960:	f1 dc       	rcall	.-1566   	; 0x1344 <floatSpeed>
                auBuffer[2] = floatAround(0x80, 5, 0x01, 0x00);
    1962:	20 e0       	ldi	r18, 0x00	; 0
    1964:	41 e0       	ldi	r20, 0x01	; 1
    1966:	65 e0       	ldi	r22, 0x05	; 5
    1968:	80 e8       	ldi	r24, 0x80	; 128
    196a:	1e dd       	rcall	.-1476   	; 0x13a8 <floatAround>
    196c:	80 93 12 38 	sts	0x3812, r24	; 0x803812 <auBuffer.3987+0x2>

                if (buttonMark) {
    1970:	80 91 42 38 	lds	r24, 0x3842	; 0x803842 <buttonMark>
    1974:	88 23       	and	r24, r24
    1976:	09 f4       	brne	.+2      	; 0x197a <GenerateAudio+0x78>
    1978:	47 c0       	rjmp	.+142    	; 0x1a08 <GenerateAudio+0x106>
                    if (start == 0) {
    197a:	80 91 58 38 	lds	r24, 0x3858	; 0x803858 <start.3990>
    197e:	81 11       	cpse	r24, r1
    1980:	15 c0       	rjmp	.+42     	; 0x19ac <GenerateAudio+0xaa>
                        duration = 4;
    1982:	84 e0       	ldi	r24, 0x04	; 4
    1984:	80 93 57 38 	sts	0x3857, r24	; 0x803857 <duration.3989>
                        loudness = 0xff;
    1988:	8f ef       	ldi	r24, 0xFF	; 255
    198a:	80 93 56 38 	sts	0x3856, r24	; 0x803856 <loudness.3988>
                        TCB1_CCMP = 0x2000;
    198e:	80 e0       	ldi	r24, 0x00	; 0
    1990:	90 e2       	ldi	r25, 0x20	; 32
    1992:	80 93 5c 0a 	sts	0x0A5C, r24	; 0x800a5c <__TEXT_REGION_LENGTH__+0x700a5c>
    1996:	90 93 5d 0a 	sts	0x0A5D, r25	; 0x800a5d <__TEXT_REGION_LENGTH__+0x700a5d>
                        auRepAddr = &auBuffer[0];
    199a:	80 e1       	ldi	r24, 0x10	; 16
    199c:	98 e3       	ldi	r25, 0x38	; 56
    199e:	80 93 05 38 	sts	0x3805, r24	; 0x803805 <auRepAddr>
    19a2:	90 93 06 38 	sts	0x3806, r25	; 0x803806 <auRepAddr+0x1>
                        start = 1;
    19a6:	81 e0       	ldi	r24, 0x01	; 1
    19a8:	80 93 58 38 	sts	0x3858, r24	; 0x803858 <start.3990>
                    }

                    if (loudness) {
    19ac:	80 91 56 38 	lds	r24, 0x3856	; 0x803856 <loudness.3988>
    19b0:	88 23       	and	r24, r24
    19b2:	69 f0       	breq	.+26     	; 0x19ce <GenerateAudio+0xcc>
                        auVolume = loudness;
    19b4:	80 93 b8 3a 	sts	0x3AB8, r24	; 0x803ab8 <auVolume>
                        if (duration) duration--; else loudness >>= 1;
    19b8:	90 91 57 38 	lds	r25, 0x3857	; 0x803857 <duration.3989>
    19bc:	99 23       	and	r25, r25
    19be:	21 f0       	breq	.+8      	; 0x19c8 <GenerateAudio+0xc6>
    19c0:	91 50       	subi	r25, 0x01	; 1
    19c2:	90 93 57 38 	sts	0x3857, r25	; 0x803857 <duration.3989>
    19c6:	03 c0       	rjmp	.+6      	; 0x19ce <GenerateAudio+0xcc>
    19c8:	86 95       	lsr	r24
    19ca:	80 93 56 38 	sts	0x3856, r24	; 0x803856 <loudness.3988>
                    } 

                    if (loudness == 0) {
    19ce:	80 91 56 38 	lds	r24, 0x3856	; 0x803856 <loudness.3988>
    19d2:	81 11       	cpse	r24, r1
    19d4:	19 c0       	rjmp	.+50     	; 0x1a08 <GenerateAudio+0x106>
                        effect &= 0x1f;
    19d6:	80 91 3a 38 	lds	r24, 0x383A	; 0x80383a <effect>
    19da:	90 91 3b 38 	lds	r25, 0x383B	; 0x80383b <effect+0x1>
    19de:	8f 71       	andi	r24, 0x1F	; 31
    19e0:	99 27       	eor	r25, r25
    19e2:	80 93 3a 38 	sts	0x383A, r24	; 0x80383a <effect>
    19e6:	90 93 3b 38 	sts	0x383B, r25	; 0x80383b <effect+0x1>
                        auRepAddr = &zero;
    19ea:	88 e3       	ldi	r24, 0x38	; 56
    19ec:	98 e3       	ldi	r25, 0x38	; 56
    19ee:	80 93 05 38 	sts	0x3805, r24	; 0x803805 <auRepAddr>
    19f2:	90 93 06 38 	sts	0x3806, r25	; 0x803806 <auRepAddr+0x1>
                        auSmpAddr = &zero;
    19f6:	80 93 07 38 	sts	0x3807, r24	; 0x803807 <auSmpAddr>
    19fa:	90 93 08 38 	sts	0x3808, r25	; 0x803808 <auSmpAddr+0x1>
                        auVolume = 0xff;
    19fe:	8f ef       	ldi	r24, 0xFF	; 255
    1a00:	80 93 b8 3a 	sts	0x3AB8, r24	; 0x803ab8 <auVolume>
                        start = 0;
    1a04:	10 92 58 38 	sts	0x3858, r1	; 0x803858 <start.3990>
                    }
                }
            }

            //Good (bell)
            if ((effect&0xE0)==64){
    1a08:	80 91 3a 38 	lds	r24, 0x383A	; 0x80383a <effect>
    1a0c:	90 91 3b 38 	lds	r25, 0x383B	; 0x80383b <effect+0x1>
                //auBuffer = 
            }

            //Rain storm with whistling wind
            if ((effect&0xE0)==96){
    1a10:	80 91 3a 38 	lds	r24, 0x383A	; 0x80383a <effect>
    1a14:	90 91 3b 38 	lds	r25, 0x383B	; 0x80383b <effect+0x1>
    1a18:	80 7e       	andi	r24, 0xE0	; 224
    1a1a:	99 27       	eor	r25, r25
    1a1c:	80 36       	cpi	r24, 0x60	; 96
    1a1e:	91 05       	cpc	r25, r1
    1a20:	a9 f5       	brne	.+106    	; 0x1a8c <GenerateAudio+0x18a>
                static uint8_t auBuffer[7];
                auBuffer[6]= 0;        
    1a22:	10 92 55 38 	sts	0x3855, r1	; 0x803855 <auBuffer.3991+0x6>
                auRepAddr = &auBuffer[0];
    1a26:	8f e4       	ldi	r24, 0x4F	; 79
    1a28:	98 e3       	ldi	r25, 0x38	; 56
    1a2a:	80 93 05 38 	sts	0x3805, r24	; 0x803805 <auRepAddr>
    1a2e:	90 93 06 38 	sts	0x3806, r25	; 0x803806 <auRepAddr+0x1>
    1a32:	8c 01       	movw	r16, r24

                //Noise is to be generated fast, outside of buttonMark loop
                for (uint8_t x=1; x<6; ++x){
    1a34:	c1 e0       	ldi	r28, 0x01	; 1
                    if ((x>0) && (x!=3)) auBuffer[x] = floatAround(0x80, 5, 0x01, 0x00);
    1a36:	c3 30       	cpi	r28, 0x03	; 3
    1a38:	39 f0       	breq	.+14     	; 0x1a48 <GenerateAudio+0x146>
    1a3a:	20 e0       	ldi	r18, 0x00	; 0
    1a3c:	41 e0       	ldi	r20, 0x01	; 1
    1a3e:	65 e0       	ldi	r22, 0x05	; 5
    1a40:	80 e8       	ldi	r24, 0x80	; 128
    1a42:	b2 dc       	rcall	.-1692   	; 0x13a8 <floatAround>
    1a44:	f8 01       	movw	r30, r16
    1a46:	81 83       	std	Z+1, r24	; 0x01
                static uint8_t auBuffer[7];
                auBuffer[6]= 0;        
                auRepAddr = &auBuffer[0];

                //Noise is to be generated fast, outside of buttonMark loop
                for (uint8_t x=1; x<6; ++x){
    1a48:	cf 5f       	subi	r28, 0xFF	; 255
    1a4a:	0f 5f       	subi	r16, 0xFF	; 255
    1a4c:	1f 4f       	sbci	r17, 0xFF	; 255
    1a4e:	c6 30       	cpi	r28, 0x06	; 6
    1a50:	91 f7       	brne	.-28     	; 0x1a36 <GenerateAudio+0x134>
                    if ((x>0) && (x!=3)) auBuffer[x] = floatAround(0x80, 5, 0x01, 0x00);
                }

                if (buttonMark){
    1a52:	80 91 42 38 	lds	r24, 0x3842	; 0x803842 <buttonMark>
    1a56:	88 23       	and	r24, r24
    1a58:	c9 f0       	breq	.+50     	; 0x1a8c <GenerateAudio+0x18a>
                    //"Floating" speed for howl (and noise, but that's hardly audible)
                    floatSpeed(5, 0x0280, 0x0400);
    1a5a:	40 e0       	ldi	r20, 0x00	; 0
    1a5c:	54 e0       	ldi	r21, 0x04	; 4
    1a5e:	60 e8       	ldi	r22, 0x80	; 128
    1a60:	72 e0       	ldi	r23, 0x02	; 2
    1a62:	85 e0       	ldi	r24, 0x05	; 5
    1a64:	6f dc       	rcall	.-1826   	; 0x1344 <floatSpeed>
            
                    //"Floating" volume and wind howl during 8 bit rainstorm needs some randomness
                    auVolume = floatAround(auVolume, 2, 0x10, 0xA0);
    1a66:	80 91 b8 3a 	lds	r24, 0x3AB8	; 0x803ab8 <auVolume>
    1a6a:	20 ea       	ldi	r18, 0xA0	; 160
    1a6c:	40 e1       	ldi	r20, 0x10	; 16
    1a6e:	62 e0       	ldi	r22, 0x02	; 2
    1a70:	9b dc       	rcall	.-1738   	; 0x13a8 <floatAround>
    1a72:	80 93 b8 3a 	sts	0x3AB8, r24	; 0x803ab8 <auVolume>
                    auBuffer[0] = floatAround(auBuffer[0], 2, 0x70, 0x90);
    1a76:	20 e9       	ldi	r18, 0x90	; 144
    1a78:	40 e7       	ldi	r20, 0x70	; 112
    1a7a:	62 e0       	ldi	r22, 0x02	; 2
    1a7c:	80 91 4f 38 	lds	r24, 0x384F	; 0x80384f <auBuffer.3991>
    1a80:	93 dc       	rcall	.-1754   	; 0x13a8 <floatAround>
    1a82:	80 93 4f 38 	sts	0x384F, r24	; 0x80384f <auBuffer.3991>
                    auBuffer[3] = 0xFF-auBuffer[0];  //Inverse value of wind[0] produces a whistle
    1a86:	80 95       	com	r24
    1a88:	80 93 52 38 	sts	0x3852, r24	; 0x803852 <auBuffer.3991+0x3>
                }
            }

            //Footsteps
            if ((effect&0xE0)==128){
    1a8c:	80 91 3a 38 	lds	r24, 0x383A	; 0x80383a <effect>
    1a90:	90 91 3b 38 	lds	r25, 0x383B	; 0x80383b <effect+0x1>

            }

            //
            if ((effect&0xE0)==160){
    1a94:	80 91 3a 38 	lds	r24, 0x383A	; 0x80383a <effect>
    1a98:	90 91 3b 38 	lds	r25, 0x383B	; 0x80383b <effect+0x1>

            }

            //
            if ((effect&0xE0)==192){
    1a9c:	80 91 3a 38 	lds	r24, 0x383A	; 0x80383a <effect>
    1aa0:	90 91 3b 38 	lds	r25, 0x383B	; 0x80383b <effect+0x1>
    1aa4:	66 c0       	rjmp	.+204    	; 0x1b72 <GenerateAudio+0x270>
            }

            //
            else {
            }
        } else if ((effect&0xff00)==0x0100) {
    1aa6:	80 91 3a 38 	lds	r24, 0x383A	; 0x80383a <effect>
    1aaa:	90 91 3b 38 	lds	r25, 0x383B	; 0x80383b <effect+0x1>
    1aae:	88 27       	eor	r24, r24
    1ab0:	81 15       	cp	r24, r1
    1ab2:	91 40       	sbci	r25, 0x01	; 1
    1ab4:	09 f0       	breq	.+2      	; 0x1ab8 <GenerateAudio+0x1b6>
    1ab6:	5d c0       	rjmp	.+186    	; 0x1b72 <GenerateAudio+0x270>
            if ((effect&0xE0) <= 0x90) {
    1ab8:	80 91 3a 38 	lds	r24, 0x383A	; 0x80383a <effect>
    1abc:	90 91 3b 38 	lds	r25, 0x383B	; 0x80383b <effect+0x1>
    1ac0:	80 7e       	andi	r24, 0xE0	; 224
    1ac2:	99 27       	eor	r25, r25
    1ac4:	81 39       	cpi	r24, 0x91	; 145
    1ac6:	91 05       	cpc	r25, r1
    1ac8:	08 f0       	brcs	.+2      	; 0x1acc <GenerateAudio+0x1ca>
    1aca:	53 c0       	rjmp	.+166    	; 0x1b72 <GenerateAudio+0x270>
                
                static uint8_t auBuffer[3] = {255, 1, 0};
                static uint8_t duration, start;
                uint16_t freq = ((effect&0xE0)+1)<<4;
    1acc:	60 91 3a 38 	lds	r22, 0x383A	; 0x80383a <effect>
    1ad0:	70 91 3b 38 	lds	r23, 0x383B	; 0x80383b <effect+0x1>
    1ad4:	60 7e       	andi	r22, 0xE0	; 224
    1ad6:	77 27       	eor	r23, r23
    1ad8:	6f 5f       	subi	r22, 0xFF	; 255
    1ada:	7f 4f       	sbci	r23, 0xFF	; 255
    1adc:	84 e0       	ldi	r24, 0x04	; 4
    1ade:	66 0f       	add	r22, r22
    1ae0:	77 1f       	adc	r23, r23
    1ae2:	8a 95       	dec	r24
                floatSpeed(1, freq+0x0200, freq+0x0300);
    1ae4:	e1 f7       	brne	.-8      	; 0x1ade <GenerateAudio+0x1dc>
    1ae6:	ab 01       	movw	r20, r22
    1ae8:	5d 5f       	subi	r21, 0xFD	; 253
    1aea:	7e 5f       	subi	r23, 0xFE	; 254
    1aec:	81 e0       	ldi	r24, 0x01	; 1
                auBuffer[2] = floatAround(0x80, 5, 0x01, 0x00);
    1aee:	2a dc       	rcall	.-1964   	; 0x1344 <floatSpeed>
    1af0:	20 e0       	ldi	r18, 0x00	; 0
    1af2:	41 e0       	ldi	r20, 0x01	; 1
    1af4:	65 e0       	ldi	r22, 0x05	; 5
    1af6:	80 e8       	ldi	r24, 0x80	; 128
    1af8:	57 dc       	rcall	.-1874   	; 0x13a8 <floatAround>
    1afa:	80 93 0f 38 	sts	0x380F, r24	; 0x80380f <auBuffer.3996+0x2>

                if (buttonMark) {
    1afe:	80 91 42 38 	lds	r24, 0x3842	; 0x803842 <buttonMark>
    1b02:	88 23       	and	r24, r24
    1b04:	b1 f1       	breq	.+108    	; 0x1b72 <GenerateAudio+0x270>
                    if (start == 0) {
    1b06:	80 91 4e 38 	lds	r24, 0x384E	; 0x80384e <start.3998>
    1b0a:	81 11       	cpse	r24, r1
    1b0c:	0e c0       	rjmp	.+28     	; 0x1b2a <GenerateAudio+0x228>
                        duration = 3;
    1b0e:	83 e0       	ldi	r24, 0x03	; 3
    1b10:	80 93 4d 38 	sts	0x384D, r24	; 0x80384d <duration.3997>
                        auRepAddr = &auBuffer[0];
    1b14:	8d e0       	ldi	r24, 0x0D	; 13
    1b16:	98 e3       	ldi	r25, 0x38	; 56
    1b18:	80 93 05 38 	sts	0x3805, r24	; 0x803805 <auRepAddr>
    1b1c:	90 93 06 38 	sts	0x3806, r25	; 0x803806 <auRepAddr+0x1>
                        auVolume = 255;
    1b20:	8f ef       	ldi	r24, 0xFF	; 255
    1b22:	80 93 b8 3a 	sts	0x3AB8, r24	; 0x803ab8 <auVolume>
                        start = 1;
    1b26:	c0 93 4e 38 	sts	0x384E, r28	; 0x80384e <start.3998>
                    }   if (duration == 0) {
    1b2a:	80 91 4d 38 	lds	r24, 0x384D	; 0x80384d <duration.3997>
    1b2e:	81 11       	cpse	r24, r1
    1b30:	1a c0       	rjmp	.+52     	; 0x1b66 <GenerateAudio+0x264>
                        effect &= 0x1f;
    1b32:	80 91 3a 38 	lds	r24, 0x383A	; 0x80383a <effect>
    1b36:	90 91 3b 38 	lds	r25, 0x383B	; 0x80383b <effect+0x1>
    1b3a:	8f 71       	andi	r24, 0x1F	; 31
    1b3c:	99 27       	eor	r25, r25
    1b3e:	80 93 3a 38 	sts	0x383A, r24	; 0x80383a <effect>
    1b42:	90 93 3b 38 	sts	0x383B, r25	; 0x80383b <effect+0x1>
                        auRepAddr = &zero;
    1b46:	88 e3       	ldi	r24, 0x38	; 56
    1b48:	98 e3       	ldi	r25, 0x38	; 56
    1b4a:	80 93 05 38 	sts	0x3805, r24	; 0x803805 <auRepAddr>
    1b4e:	90 93 06 38 	sts	0x3806, r25	; 0x803806 <auRepAddr+0x1>
                        auSmpAddr = &zero;
    1b52:	80 93 07 38 	sts	0x3807, r24	; 0x803807 <auSmpAddr>
    1b56:	90 93 08 38 	sts	0x3808, r25	; 0x803808 <auSmpAddr+0x1>
                        auVolume = 0xff;
    1b5a:	8f ef       	ldi	r24, 0xFF	; 255
    1b5c:	80 93 b8 3a 	sts	0x3AB8, r24	; 0x803ab8 <auVolume>
                        start = 0;
    1b60:	10 92 4e 38 	sts	0x384E, r1	; 0x80384e <start.3998>
    1b64:	06 c0       	rjmp	.+12     	; 0x1b72 <GenerateAudio+0x270>
                    } else duration--;
    1b66:	81 50       	subi	r24, 0x01	; 1
    1b68:	80 93 4d 38 	sts	0x384D, r24	; 0x80384d <duration.3997>
    1b6c:	02 c0       	rjmp	.+4      	; 0x1b72 <GenerateAudio+0x270>
                }
            }
        }
    } else {
        detHdPh = 0;
    1b6e:	10 92 c1 3a 	sts	0x3AC1, r1	; 0x803ac1 <detHdPh>
    }
    return buttonMark;
    1b72:	80 91 42 38 	lds	r24, 0x3842	; 0x803842 <buttonMark>
}
    1b76:	cf 91       	pop	r28
    1b78:	1f 91       	pop	r17
    1b7a:	0f 91       	pop	r16
    1b7c:	08 95       	ret

00001b7e <getClock>:

uint16_t getClock() {
    return 60 * minuteMark + (RTC_CNT>>9);
    1b7e:	20 91 43 38 	lds	r18, 0x3843	; 0x803843 <minuteMark>
    1b82:	80 91 48 01 	lds	r24, 0x0148	; 0x800148 <__TEXT_REGION_LENGTH__+0x700148>
    1b86:	90 91 49 01 	lds	r25, 0x0149	; 0x800149 <__TEXT_REGION_LENGTH__+0x700149>
    1b8a:	89 2f       	mov	r24, r25
    1b8c:	99 27       	eor	r25, r25
    1b8e:	86 95       	lsr	r24
}
    1b90:	3c e3       	ldi	r19, 0x3C	; 60
    1b92:	23 9f       	mul	r18, r19
    1b94:	80 0d       	add	r24, r0
    1b96:	91 1d       	adc	r25, r1
    1b98:	11 24       	eor	r1, r1
    1b9a:	08 95       	ret

00001b9c <idleTimeout>:

uint8_t idleTimeout(uint16_t lastActive, uint16_t maxIdle) {
    1b9c:	0f 93       	push	r16
    1b9e:	1f 93       	push	r17
    1ba0:	cf 93       	push	r28
    1ba2:	df 93       	push	r29
    1ba4:	8c 01       	movw	r16, r24
    1ba6:	eb 01       	movw	r28, r22
    uint16_t curClock;

    curClock = getClock();
    1ba8:	ea df       	rcall	.-44     	; 0x1b7e <getClock>
    1baa:	9c 01       	movw	r18, r24
    if (curClock < lastActive)
    1bac:	80 17       	cp	r24, r16
    1bae:	91 07       	cpc	r25, r17
    1bb0:	08 f4       	brcc	.+2      	; 0x1bb4 <idleTimeout+0x18>
        curClock += 256 * 60;
    1bb2:	34 5c       	subi	r19, 0xC4	; 196

    return (curClock > (lastActive + maxIdle));
    1bb4:	c0 0f       	add	r28, r16
    1bb6:	d1 1f       	adc	r29, r17
    1bb8:	81 e0       	ldi	r24, 0x01	; 1
    1bba:	c2 17       	cp	r28, r18
    1bbc:	d3 07       	cpc	r29, r19
    1bbe:	08 f0       	brcs	.+2      	; 0x1bc2 <idleTimeout+0x26>
    1bc0:	80 e0       	ldi	r24, 0x00	; 0
}
    1bc2:	df 91       	pop	r29
    1bc4:	cf 91       	pop	r28
    1bc6:	1f 91       	pop	r17
    1bc8:	0f 91       	pop	r16
    1bca:	08 95       	ret

00001bcc <simonLed>:

void simonTone(uint8_t val) {
    // TODO some way to set teh audio stuff
}

void simonLed(uint8_t val) {
    1bcc:	cf 93       	push	r28
    1bce:	df 93       	push	r29
    1bd0:	e8 e6       	ldi	r30, 0x68	; 104
    1bd2:	fe eb       	ldi	r31, 0xBE	; 190
    1bd4:	ef 01       	movw	r28, r30
    for (uint8_t n = 0; n < 5; n++) {
        iLED[WING[L][n]] = 0;
    1bd6:	a5 81       	ldd	r26, Z+5	; 0x05
    1bd8:	b0 e0       	ldi	r27, 0x00	; 0
    1bda:	a4 53       	subi	r26, 0x34	; 52
    1bdc:	b5 4c       	sbci	r27, 0xC5	; 197
    1bde:	1c 92       	st	X, r1
    1be0:	31 96       	adiw	r30, 0x01	; 1
        iLED[WING[R][n]] = 0;
    1be2:	a8 81       	ld	r26, Y
    1be4:	b0 e0       	ldi	r27, 0x00	; 0
    1be6:	a4 53       	subi	r26, 0x34	; 52
    1be8:	b5 4c       	sbci	r27, 0xC5	; 197
    1bea:	1c 92       	st	X, r1
void simonTone(uint8_t val) {
    // TODO some way to set teh audio stuff
}

void simonLed(uint8_t val) {
    for (uint8_t n = 0; n < 5; n++) {
    1bec:	9e eb       	ldi	r25, 0xBE	; 190
    1bee:	ed 36       	cpi	r30, 0x6D	; 109
    1bf0:	f9 07       	cpc	r31, r25
    1bf2:	81 f7       	brne	.-32     	; 0x1bd4 <simonLed+0x8>
        iLED[WING[L][n]] = 0;
        iLED[WING[R][n]] = 0;
    }
    if (val == 1) {
    1bf4:	81 30       	cpi	r24, 0x01	; 1
    1bf6:	99 f4       	brne	.+38     	; 0x1c1e <simonLed+0x52>
        iLED[WING[L][0]] = dimValue;
    1bf8:	e0 91 6d be 	lds	r30, 0xBE6D	; 0x80be6d <__bss_end+0x8351>
    1bfc:	f0 e0       	ldi	r31, 0x00	; 0
    1bfe:	80 91 0b 38 	lds	r24, 0x380B	; 0x80380b <dimValue>
    1c02:	e4 53       	subi	r30, 0x34	; 52
    1c04:	f5 4c       	sbci	r31, 0xC5	; 197
    1c06:	80 83       	st	Z, r24
        iLED[WING[L][1]] = dimValue;
    1c08:	e0 91 6e be 	lds	r30, 0xBE6E	; 0x80be6e <__bss_end+0x8352>
    1c0c:	f0 e0       	ldi	r31, 0x00	; 0
    1c0e:	80 91 0b 38 	lds	r24, 0x380B	; 0x80380b <dimValue>
    1c12:	e4 53       	subi	r30, 0x34	; 52
    1c14:	f5 4c       	sbci	r31, 0xC5	; 197
    1c16:	80 83       	st	Z, r24
        iLED[WING[L][2]] = dimValue;
    1c18:	e0 91 6f be 	lds	r30, 0xBE6F	; 0x80be6f <__bss_end+0x8353>
    1c1c:	2e c0       	rjmp	.+92     	; 0x1c7a <simonLed+0xae>
    } else if (val == 2) {
    1c1e:	82 30       	cpi	r24, 0x02	; 2
    1c20:	59 f4       	brne	.+22     	; 0x1c38 <simonLed+0x6c>
        iLED[WING[L][3]] = dimValue;
    1c22:	e0 91 70 be 	lds	r30, 0xBE70	; 0x80be70 <__bss_end+0x8354>
    1c26:	f0 e0       	ldi	r31, 0x00	; 0
    1c28:	80 91 0b 38 	lds	r24, 0x380B	; 0x80380b <dimValue>
    1c2c:	e4 53       	subi	r30, 0x34	; 52
    1c2e:	f5 4c       	sbci	r31, 0xC5	; 197
    1c30:	80 83       	st	Z, r24
        iLED[WING[L][4]] = dimValue;
    1c32:	e0 91 71 be 	lds	r30, 0xBE71	; 0x80be71 <__bss_end+0x8355>
    1c36:	21 c0       	rjmp	.+66     	; 0x1c7a <simonLed+0xae>
    } else if (val == 3) {
    1c38:	83 30       	cpi	r24, 0x03	; 3
    1c3a:	99 f4       	brne	.+38     	; 0x1c62 <simonLed+0x96>
        iLED[WING[R][0]] = dimValue;
    1c3c:	e0 91 68 be 	lds	r30, 0xBE68	; 0x80be68 <__bss_end+0x834c>
    1c40:	f0 e0       	ldi	r31, 0x00	; 0
    1c42:	80 91 0b 38 	lds	r24, 0x380B	; 0x80380b <dimValue>
    1c46:	e4 53       	subi	r30, 0x34	; 52
    1c48:	f5 4c       	sbci	r31, 0xC5	; 197
    1c4a:	80 83       	st	Z, r24
        iLED[WING[R][1]] = dimValue;
    1c4c:	e0 91 69 be 	lds	r30, 0xBE69	; 0x80be69 <__bss_end+0x834d>
    1c50:	f0 e0       	ldi	r31, 0x00	; 0
    1c52:	80 91 0b 38 	lds	r24, 0x380B	; 0x80380b <dimValue>
    1c56:	e4 53       	subi	r30, 0x34	; 52
    1c58:	f5 4c       	sbci	r31, 0xC5	; 197
    1c5a:	80 83       	st	Z, r24
        iLED[WING[R][2]] = dimValue;
    1c5c:	e0 91 6a be 	lds	r30, 0xBE6A	; 0x80be6a <__bss_end+0x834e>
    1c60:	0c c0       	rjmp	.+24     	; 0x1c7a <simonLed+0xae>
    } else if (val == 4) {
    1c62:	84 30       	cpi	r24, 0x04	; 4
    1c64:	81 f4       	brne	.+32     	; 0x1c86 <simonLed+0xba>
        iLED[WING[R][3]] = dimValue;
    1c66:	e0 91 6b be 	lds	r30, 0xBE6B	; 0x80be6b <__bss_end+0x834f>
    1c6a:	f0 e0       	ldi	r31, 0x00	; 0
    1c6c:	80 91 0b 38 	lds	r24, 0x380B	; 0x80380b <dimValue>
    1c70:	e4 53       	subi	r30, 0x34	; 52
    1c72:	f5 4c       	sbci	r31, 0xC5	; 197
    1c74:	80 83       	st	Z, r24
        iLED[WING[R][4]] = dimValue;
    1c76:	e0 91 6c be 	lds	r30, 0xBE6C	; 0x80be6c <__bss_end+0x8350>
    1c7a:	f0 e0       	ldi	r31, 0x00	; 0
    1c7c:	80 91 0b 38 	lds	r24, 0x380B	; 0x80380b <dimValue>
    1c80:	e4 53       	subi	r30, 0x34	; 52
    1c82:	f5 4c       	sbci	r31, 0xC5	; 197
    1c84:	80 83       	st	Z, r24
    }
    simonTone(val);
}
    1c86:	df 91       	pop	r29
    1c88:	cf 91       	pop	r28
    1c8a:	08 95       	ret

00001c8c <BastetDictates>:

// Main game loop
uint8_t BastetDictates() {
    1c8c:	cf 93       	push	r28
    1c8e:	df 93       	push	r29
    if (CheckState(BASTET_COMPLETED))
    1c90:	8a e7       	ldi	r24, 0x7A	; 122
    1c92:	67 dc       	rcall	.-1842   	; 0x1562 <CheckState>
    1c94:	81 11       	cpse	r24, r1
    1c96:	b8 c0       	rjmp	.+368    	; 0x1e08 <BastetDictates+0x17c>
        return 0;

    if ((TEXT != gameNow) && (BASTET != gameNow))
    1c98:	80 91 3c 38 	lds	r24, 0x383C	; 0x80383c <gameNow>
    1c9c:	8d 7f       	andi	r24, 0xFD	; 253
    1c9e:	09 f0       	breq	.+2      	; 0x1ca2 <BastetDictates+0x16>
    1ca0:	b3 c0       	rjmp	.+358    	; 0x1e08 <BastetDictates+0x17c>
        return 0;

    if (BASTET_BOOT == simonGameState) {
    1ca2:	80 91 5e 38 	lds	r24, 0x385E	; 0x80385e <simonGameState>
    1ca6:	81 11       	cpse	r24, r1
    1ca8:	22 c0       	rjmp	.+68     	; 0x1cee <BastetDictates+0x62>
        simonPos = ((adcPhot+adcTemp)&0x3f);
    1caa:	20 91 bf 3a 	lds	r18, 0x3ABF	; 0x803abf <adcPhot>
    1cae:	30 91 c0 3a 	lds	r19, 0x3AC0	; 0x803ac0 <adcPhot+0x1>
    1cb2:	80 91 f7 3a 	lds	r24, 0x3AF7	; 0x803af7 <adcTemp>
    1cb6:	90 91 f8 3a 	lds	r25, 0x3AF8	; 0x803af8 <adcTemp+0x1>
    1cba:	82 0f       	add	r24, r18
    1cbc:	8f 73       	andi	r24, 0x3F	; 63
    1cbe:	80 93 2b 38 	sts	0x382B, r24	; 0x80382b <simonPos>
        for(uint8_t x=0; x<simonPos; ++x) lfsr();
    1cc2:	c0 e0       	ldi	r28, 0x00	; 0
    1cc4:	80 91 2b 38 	lds	r24, 0x382B	; 0x80382b <simonPos>
    1cc8:	c8 17       	cp	r28, r24
    1cca:	18 f4       	brcc	.+6      	; 0x1cd2 <BastetDictates+0x46>
    1ccc:	1c db       	rcall	.-2504   	; 0x1306 <lfsr>
    1cce:	cf 5f       	subi	r28, 0xFF	; 255
    1cd0:	f9 cf       	rjmp	.-14     	; 0x1cc4 <BastetDictates+0x38>
    1cd2:	c0 e6       	ldi	r28, 0x60	; 96

        for (uint8_t i = 0; i < BASTET_LENGTH; i++) {
            simonState[i] = (lfsr() % 4);
    1cd4:	d8 e3       	ldi	r29, 0x38	; 56
    1cd6:	17 db       	rcall	.-2514   	; 0x1306 <lfsr>
    1cd8:	83 70       	andi	r24, 0x03	; 3
    1cda:	89 93       	st	Y+, r24

    if (BASTET_BOOT == simonGameState) {
        simonPos = ((adcPhot+adcTemp)&0x3f);
        for(uint8_t x=0; x<simonPos; ++x) lfsr();

        for (uint8_t i = 0; i < BASTET_LENGTH; i++) {
    1cdc:	88 e3       	ldi	r24, 0x38	; 56
    1cde:	c0 37       	cpi	r28, 0x70	; 112
    1ce0:	d8 07       	cpc	r29, r24
    1ce2:	c9 f7       	brne	.-14     	; 0x1cd6 <BastetDictates+0x4a>
            simonState[i] = (lfsr() % 4);
        }
        simonPos = 1;
    1ce4:	81 e0       	ldi	r24, 0x01	; 1
    1ce6:	80 93 2b 38 	sts	0x382B, r24	; 0x80382b <simonPos>
        simonGameState = BASTET_GAME_START;
    1cea:	80 93 5e 38 	sts	0x385E, r24	; 0x80385e <simonGameState>
    }

    if (BASTET_GAME_START == simonGameState) {
    1cee:	80 91 5e 38 	lds	r24, 0x385E	; 0x80385e <simonGameState>
    1cf2:	81 30       	cpi	r24, 0x01	; 1
    1cf4:	29 f4       	brne	.+10     	; 0x1d00 <BastetDictates+0x74>
        // TODO start animu
        simonGameState = BASTET_GAME_SHOW_PATTERN;
    1cf6:	83 e0       	ldi	r24, 0x03	; 3
    1cf8:	80 93 5e 38 	sts	0x385E, r24	; 0x80385e <simonGameState>
        simonTimer = 0;
    1cfc:	10 92 5d 38 	sts	0x385D, r1	; 0x80385d <simonTimer>
    }

    if (BASTET_GAME_SHOW_PATTERN == simonGameState) {
    1d00:	80 91 5e 38 	lds	r24, 0x385E	; 0x80385e <simonGameState>
    1d04:	83 30       	cpi	r24, 0x03	; 3
    1d06:	d9 f4       	brne	.+54     	; 0x1d3e <BastetDictates+0xb2>
        // assuming 15Hz
        uint8_t pos = simonTimer / (15 - (simonPos>>1));
    1d08:	20 91 2b 38 	lds	r18, 0x382B	; 0x80382b <simonPos>
    1d0c:	80 91 5d 38 	lds	r24, 0x385D	; 0x80385d <simonTimer>
    1d10:	90 e0       	ldi	r25, 0x00	; 0
    1d12:	32 2f       	mov	r19, r18
    1d14:	36 95       	lsr	r19
    1d16:	6f e0       	ldi	r22, 0x0F	; 15
    1d18:	70 e0       	ldi	r23, 0x00	; 0
    1d1a:	63 1b       	sub	r22, r19
    1d1c:	71 09       	sbc	r23, r1
    1d1e:	0e 94 09 1f 	call	0x3e12	; 0x3e12 <__divmodhi4>
        if (pos > simonPos) {
    1d22:	26 17       	cp	r18, r22
    1d24:	30 f4       	brcc	.+12     	; 0x1d32 <BastetDictates+0xa6>
            simonGameState = BASTET_GAME_INPUT;
    1d26:	85 e0       	ldi	r24, 0x05	; 5
    1d28:	80 93 5e 38 	sts	0x385E, r24	; 0x80385e <simonGameState>
            simonLed(0);
    1d2c:	80 e0       	ldi	r24, 0x00	; 0
    1d2e:	4e df       	rcall	.-356    	; 0x1bcc <simonLed>
            return 0;
    1d30:	6b c0       	rjmp	.+214    	; 0x1e08 <BastetDictates+0x17c>
        }
        simonLed(simonState[pos]);
    1d32:	77 27       	eor	r23, r23
    1d34:	fb 01       	movw	r30, r22
    1d36:	e0 5a       	subi	r30, 0xA0	; 160
    1d38:	f7 4c       	sbci	r31, 0xC7	; 199
    1d3a:	80 81       	ld	r24, Z
    1d3c:	47 df       	rcall	.-370    	; 0x1bcc <simonLed>
    }

    if (BASTET_GAME_INPUT == simonGameState) {
    1d3e:	80 91 5e 38 	lds	r24, 0x385E	; 0x80385e <simonGameState>
    1d42:	85 30       	cpi	r24, 0x05	; 5
    1d44:	09 f0       	breq	.+2      	; 0x1d48 <BastetDictates+0xbc>
    1d46:	4e c0       	rjmp	.+156    	; 0x1de4 <BastetDictates+0x158>
        uint8_t choice = 0;
        if ((buttonState & 0xf0)&&(buttonState < 0xff)) {
    1d48:	e0 91 09 38 	lds	r30, 0x3809	; 0x803809 <buttonState>
    1d4c:	8e 2f       	mov	r24, r30
    1d4e:	80 7f       	andi	r24, 0xF0	; 240
    1d50:	c9 f1       	breq	.+114    	; 0x1dc4 <BastetDictates+0x138>
    1d52:	ef 3f       	cpi	r30, 0xFF	; 255
    1d54:	b9 f1       	breq	.+110    	; 0x1dc4 <BastetDictates+0x138>
    1d56:	ef 70       	andi	r30, 0x0F	; 15
    1d58:	e1 50       	subi	r30, 0x01	; 1
    1d5a:	e8 30       	cpi	r30, 0x08	; 8
    1d5c:	98 f5       	brcc	.+102    	; 0x1dc4 <BastetDictates+0x138>
    1d5e:	f0 e0       	ldi	r31, 0x00	; 0
    1d60:	ec 54       	subi	r30, 0x4C	; 76
    1d62:	f1 44       	sbci	r31, 0x41	; 65
    1d64:	c0 81       	ld	r28, Z
                    break;
            }
        }

        //Button pressed
        if (choice > 0) {
    1d66:	cc 23       	and	r28, r28
    1d68:	69 f1       	breq	.+90     	; 0x1dc4 <BastetDictates+0x138>
            gameNow = BASTET;
    1d6a:	82 e0       	ldi	r24, 0x02	; 2
    1d6c:	80 93 3c 38 	sts	0x383C, r24	; 0x80383c <gameNow>
            if (simonProcessed == 0) {
    1d70:	80 91 5c 38 	lds	r24, 0x385C	; 0x80385c <simonProcessed>
    1d74:	81 11       	cpse	r24, r1
                simonTimer = 0;
    1d76:	43 c0       	rjmp	.+134    	; 0x1dfe <BastetDictates+0x172>
    1d78:	10 92 5d 38 	sts	0x385D, r1	; 0x80385d <simonTimer>
                simonLed(choice);
    1d7c:	8c 2f       	mov	r24, r28
    1d7e:	26 df       	rcall	.-436    	; 0x1bcc <simonLed>
                // TODO something timer something 
                if (simonState[simonInputPos]+1 == choice) {
    1d80:	40 91 5f 38 	lds	r20, 0x385F	; 0x80385f <simonInputPos>
    1d84:	e4 2f       	mov	r30, r20
    1d86:	f0 e0       	ldi	r31, 0x00	; 0
    1d88:	e0 5a       	subi	r30, 0xA0	; 160
    1d8a:	f7 4c       	sbci	r31, 0xC7	; 199
    1d8c:	20 81       	ld	r18, Z
    1d8e:	30 e0       	ldi	r19, 0x00	; 0
    1d90:	2f 5f       	subi	r18, 0xFF	; 255
    1d92:	3f 4f       	sbci	r19, 0xFF	; 255
    1d94:	8c 2f       	mov	r24, r28
    1d96:	90 e0       	ldi	r25, 0x00	; 0
    1d98:	28 17       	cp	r18, r24
    1d9a:	39 07       	cpc	r19, r25
    1d9c:	21 f4       	brne	.+8      	; 0x1da6 <BastetDictates+0x11a>
                    // TODO correct sound
                    simonInputPos++;
    1d9e:	4f 5f       	subi	r20, 0xFF	; 255
    1da0:	40 93 5f 38 	sts	0x385F, r20	; 0x80385f <simonInputPos>
                } else {
                    // TODO fail sound
                    simonInputPos = 0;
    1da4:	06 c0       	rjmp	.+12     	; 0x1db2 <BastetDictates+0x126>
    1da6:	10 92 5f 38 	sts	0x385F, r1	; 0x80385f <simonInputPos>
                    gameNow = TEXT;
    1daa:	10 92 3c 38 	sts	0x383C, r1	; 0x80383c <gameNow>
                    simonLed(0);
    1dae:	80 e0       	ldi	r24, 0x00	; 0
                }

                if (simonInputPos == BASTET_LENGTH) {
    1db0:	0d df       	rcall	.-486    	; 0x1bcc <simonLed>
    1db2:	80 91 5f 38 	lds	r24, 0x385F	; 0x80385f <simonInputPos>
    1db6:	80 31       	cpi	r24, 0x10	; 16
                    // TODO win animu
                    UpdateState(BASTET_COMPLETED);
    1db8:	a9 f4       	brne	.+42     	; 0x1de4 <BastetDictates+0x158>
    1dba:	8a e7       	ldi	r24, 0x7A	; 122
    1dbc:	c8 db       	rcall	.-2160   	; 0x154e <UpdateState>
                    gameNow = TEXT;
    1dbe:	10 92 3c 38 	sts	0x383C, r1	; 0x80383c <gameNow>
    1dc2:	10 c0       	rjmp	.+32     	; 0x1de4 <BastetDictates+0x158>
                }
            }
        
        //Button released, next or reset!
        } else {    
            if (simonInputPos == simonPos) {
    1dc4:	80 91 5f 38 	lds	r24, 0x385F	; 0x80385f <simonInputPos>
    1dc8:	90 91 2b 38 	lds	r25, 0x382B	; 0x80382b <simonPos>
    1dcc:	89 13       	cpse	r24, r25
    1dce:	08 c0       	rjmp	.+16     	; 0x1de0 <BastetDictates+0x154>
                simonPos++;
    1dd0:	8f 5f       	subi	r24, 0xFF	; 255
    1dd2:	80 93 2b 38 	sts	0x382B, r24	; 0x80382b <simonPos>
                simonInputPos = 0;
    1dd6:	10 92 5f 38 	sts	0x385F, r1	; 0x80385f <simonInputPos>
                simonGameState = BASTET_GAME_SHOW_PATTERN;
    1dda:	83 e0       	ldi	r24, 0x03	; 3
    1ddc:	80 93 5e 38 	sts	0x385E, r24	; 0x80385e <simonGameState>
            }                    
            simonProcessed = 0;
    1de0:	10 92 5c 38 	sts	0x385C, r1	; 0x80385c <simonProcessed>
        }
    }

    if (BASTET_GAME_WAIT_LEDS == simonGameState) {
    1de4:	80 91 5e 38 	lds	r24, 0x385E	; 0x80385e <simonGameState>
    1de8:	84 30       	cpi	r24, 0x04	; 4
        if (simonTimer >= 7) {
    1dea:	49 f4       	brne	.+18     	; 0x1dfe <BastetDictates+0x172>
    1dec:	80 91 5d 38 	lds	r24, 0x385D	; 0x80385d <simonTimer>
    1df0:	87 30       	cpi	r24, 0x07	; 7
            // on to next state after .5 second
            simonLed(0);  // LEDs off
    1df2:	28 f0       	brcs	.+10     	; 0x1dfe <BastetDictates+0x172>
    1df4:	80 e0       	ldi	r24, 0x00	; 0
    1df6:	ea de       	rcall	.-556    	; 0x1bcc <simonLed>
            simonGameState = BASTET_GAME_INPUT;
    1df8:	85 e0       	ldi	r24, 0x05	; 5
    1dfa:	80 93 5e 38 	sts	0x385E, r24	; 0x80385e <simonGameState>
        }
    }

    ++simonTimer;
    1dfe:	80 91 5d 38 	lds	r24, 0x385D	; 0x80385d <simonTimer>
    1e02:	8f 5f       	subi	r24, 0xFF	; 255
    1e04:	80 93 5d 38 	sts	0x385D, r24	; 0x80385d <simonTimer>
    return 0;
}
    1e08:	80 e0       	ldi	r24, 0x00	; 0
    1e0a:	df 91       	pop	r29
    1e0c:	cf 91       	pop	r28
    1e0e:	08 95       	ret

00001e10 <Cheat>:

//
void SetResponse(uint8_t number, uint16_t address, uint16_t length, uint8_t type){
    reactStr[0][number]=address;
    reactStr[1][number]=length;
    reactStr[2][number]=type;
    1e10:	1f 93       	push	r17
    1e12:	cf 93       	push	r28
    1e14:	df 93       	push	r29
    1e16:	cd b7       	in	r28, 0x3d	; 61
    1e18:	de b7       	in	r29, 0x3e	; 62
    1e1a:	62 97       	sbiw	r28, 0x12	; 18
    1e1c:	cd bf       	out	0x3d, r28	; 61
    1e1e:	de bf       	out	0x3e, r29	; 62
    1e20:	8a 8b       	std	Y+18, r24	; 0x12
    1e22:	80 e1       	ldi	r24, 0x10	; 16
    1e24:	ec e3       	ldi	r30, 0x3C	; 60
    1e26:	fe eb       	ldi	r31, 0xBE	; 190
    1e28:	de 01       	movw	r26, r28
    1e2a:	11 96       	adiw	r26, 0x01	; 1
    1e2c:	01 90       	ld	r0, Z+
    1e2e:	0d 92       	st	X+, r0
    1e30:	8a 95       	dec	r24
    1e32:	e1 f7       	brne	.-8      	; 0x1e2c <Cheat+0x1c>
    1e34:	fe 01       	movw	r30, r28
    1e36:	31 96       	adiw	r30, 0x01	; 1
    1e38:	90 e0       	ldi	r25, 0x00	; 0
    1e3a:	8f ef       	ldi	r24, 0xFF	; 255
    1e3c:	21 91       	ld	r18, Z+
    1e3e:	31 91       	ld	r19, Z+
    1e40:	26 17       	cp	r18, r22
    1e42:	37 07       	cpc	r19, r23
    1e44:	09 f4       	brne	.+2      	; 0x1e48 <Cheat+0x38>
    1e46:	89 2f       	mov	r24, r25
    1e48:	9f 5f       	subi	r25, 0xFF	; 255
    1e4a:	98 30       	cpi	r25, 0x08	; 8
    1e4c:	b9 f7       	brne	.-18     	; 0x1e3c <Cheat+0x2c>
    1e4e:	88 30       	cpi	r24, 0x08	; 8
    1e50:	10 f0       	brcs	.+4      	; 0x1e56 <Cheat+0x46>
    1e52:	80 e0       	ldi	r24, 0x00	; 0
    1e54:	12 c0       	rjmp	.+36     	; 0x1e7a <Cheat+0x6a>
    1e56:	18 e1       	ldi	r17, 0x18	; 24
    1e58:	18 0f       	add	r17, r24
    1e5a:	41 e0       	ldi	r20, 0x01	; 1
    1e5c:	be 01       	movw	r22, r28
    1e5e:	6f 5e       	subi	r22, 0xEF	; 239
    1e60:	7f 4f       	sbci	r23, 0xFF	; 255
    1e62:	81 2f       	mov	r24, r17
    1e64:	7c d9       	rcall	.-3336   	; 0x115e <EERead>
    1e66:	89 89       	ldd	r24, Y+17	; 0x11
    1e68:	8f 3f       	cpi	r24, 0xFF	; 255
    1e6a:	99 f7       	brne	.-26     	; 0x1e52 <Cheat+0x42>
    1e6c:	41 e0       	ldi	r20, 0x01	; 1
    1e6e:	be 01       	movw	r22, r28
    1e70:	6e 5e       	subi	r22, 0xEE	; 238
    1e72:	7f 4f       	sbci	r23, 0xFF	; 255
    1e74:	81 2f       	mov	r24, r17
    1e76:	83 d9       	rcall	.-3322   	; 0x117e <EEWrite>
    1e78:	81 e0       	ldi	r24, 0x01	; 1
    1e7a:	62 96       	adiw	r28, 0x12	; 18
    1e7c:	cd bf       	out	0x3d, r28	; 61
    1e7e:	de bf       	out	0x3e, r29	; 62
    1e80:	df 91       	pop	r29
    1e82:	cf 91       	pop	r28
    1e84:	1f 91       	pop	r17
    1e86:	08 95       	ret

00001e88 <DecryptData>:
    1e88:	f9 01       	movw	r30, r18
    1e8a:	9c 01       	movw	r18, r24
    1e8c:	2e 1b       	sub	r18, r30
    1e8e:	3f 0b       	sbc	r19, r31
    1e90:	88 e0       	ldi	r24, 0x08	; 8
    1e92:	48 9f       	mul	r20, r24
    1e94:	a0 01       	movw	r20, r0
    1e96:	11 24       	eor	r1, r1
    1e98:	42 5d       	subi	r20, 0xD2	; 210
    1e9a:	50 44       	sbci	r21, 0x40	; 64
    1e9c:	66 23       	and	r22, r22
    1e9e:	69 f0       	breq	.+26     	; 0x1eba <DecryptData+0x32>
    1ea0:	df 01       	movw	r26, r30
    1ea2:	a2 0f       	add	r26, r18
    1ea4:	b3 1f       	adc	r27, r19
    1ea6:	a7 70       	andi	r26, 0x07	; 7
    1ea8:	bb 27       	eor	r27, r27
    1eaa:	a4 0f       	add	r26, r20
    1eac:	b5 1f       	adc	r27, r21
    1eae:	80 81       	ld	r24, Z
    1eb0:	9c 91       	ld	r25, X
    1eb2:	98 27       	eor	r25, r24
    1eb4:	91 93       	st	Z+, r25
    1eb6:	61 50       	subi	r22, 0x01	; 1
    1eb8:	f1 cf       	rjmp	.-30     	; 0x1e9c <DecryptData+0x14>
    1eba:	08 95       	ret

00001ebc <UnflipData>:
    1ebc:	26 2f       	mov	r18, r22
    1ebe:	fb 01       	movw	r30, r22
    1ec0:	35 e5       	ldi	r19, 0x55	; 85
    1ec2:	9e 2f       	mov	r25, r30
    1ec4:	92 1b       	sub	r25, r18
    1ec6:	98 17       	cp	r25, r24
    1ec8:	28 f4       	brcc	.+10     	; 0x1ed4 <UnflipData+0x18>
    1eca:	90 81       	ld	r25, Z
    1ecc:	92 95       	swap	r25
    1ece:	93 27       	eor	r25, r19
    1ed0:	91 93       	st	Z+, r25
    1ed2:	f7 cf       	rjmp	.-18     	; 0x1ec2 <UnflipData+0x6>
    1ed4:	08 95       	ret

00001ed6 <ExtEERead>:
    1ed6:	af 92       	push	r10
    1ed8:	bf 92       	push	r11
    1eda:	cf 92       	push	r12
    1edc:	df 92       	push	r13
    1ede:	ef 92       	push	r14
    1ee0:	ff 92       	push	r15
    1ee2:	0f 93       	push	r16
    1ee4:	1f 93       	push	r17
    1ee6:	cf 93       	push	r28
    1ee8:	df 93       	push	r29
    1eea:	00 d0       	rcall	.+0      	; 0x1eec <ExtEERead+0x16>
    1eec:	cd b7       	in	r28, 0x3d	; 61
    1eee:	de b7       	in	r29, 0x3e	; 62
    1ef0:	d6 2e       	mov	r13, r22
    1ef2:	c4 2e       	mov	r12, r20
    1ef4:	59 01       	movw	r10, r18
    1ef6:	7c 01       	movw	r14, r24
    1ef8:	e8 94       	clt
    1efa:	f7 f8       	bld	r15, 7
    1efc:	f9 82       	std	Y+1, r15	; 0x01
    1efe:	ea 82       	std	Y+2, r14	; 0x02
    1f00:	06 2f       	mov	r16, r22
    1f02:	42 e0       	ldi	r20, 0x02	; 2
    1f04:	be 01       	movw	r22, r28
    1f06:	6f 5f       	subi	r22, 0xFF	; 255
    1f08:	7f 4f       	sbci	r23, 0xFF	; 255
    1f0a:	80 e5       	ldi	r24, 0x50	; 80
    1f0c:	0e 94 b8 02 	call	0x570	; 0x570 <I2C_read_bytes>
    1f10:	18 2f       	mov	r17, r24
    1f12:	81 11       	cpse	r24, r1
    1f14:	05 c0       	rjmp	.+10     	; 0x1f20 <ExtEERead+0x4a>
    1f16:	95 01       	movw	r18, r10
    1f18:	4c 2d       	mov	r20, r12
    1f1a:	6d 2d       	mov	r22, r13
    1f1c:	c7 01       	movw	r24, r14
    1f1e:	b4 df       	rcall	.-152    	; 0x1e88 <DecryptData>
    1f20:	81 2f       	mov	r24, r17
    1f22:	0f 90       	pop	r0
    1f24:	0f 90       	pop	r0
    1f26:	df 91       	pop	r29
    1f28:	cf 91       	pop	r28
    1f2a:	1f 91       	pop	r17
    1f2c:	0f 91       	pop	r16
    1f2e:	ff 90       	pop	r15
    1f30:	ef 90       	pop	r14
    1f32:	df 90       	pop	r13
    1f34:	cf 90       	pop	r12
    1f36:	bf 90       	pop	r11
    1f38:	af 90       	pop	r10
    1f3a:	08 95       	ret

00001f3c <ClearTxAfter>:
    1f3c:	8f 5f       	subi	r24, 0xFF	; 255
    1f3e:	88 30       	cpi	r24, 0x08	; 8
    1f40:	30 f4       	brcc	.+12     	; 0x1f4e <ClearTxAfter+0x12>
    1f42:	e8 2f       	mov	r30, r24
    1f44:	f0 e0       	ldi	r31, 0x00	; 0
    1f46:	e6 5b       	subi	r30, 0xB6	; 182
    1f48:	f5 4c       	sbci	r31, 0xC5	; 197
    1f4a:	10 82       	st	Z, r1
    1f4c:	f7 cf       	rjmp	.-18     	; 0x1f3c <ClearTxAfter>
    1f4e:	08 95       	ret

00001f50 <StartsWith>:
    1f50:	ac 01       	movw	r20, r24
    1f52:	90 e0       	ldi	r25, 0x00	; 0
    1f54:	e9 2f       	mov	r30, r25
    1f56:	f0 e0       	ldi	r31, 0x00	; 0
    1f58:	da 01       	movw	r26, r20
    1f5a:	ae 0f       	add	r26, r30
    1f5c:	bf 1f       	adc	r27, r31
    1f5e:	3c 91       	ld	r19, X
    1f60:	e6 0f       	add	r30, r22
    1f62:	f7 1f       	adc	r31, r23
    1f64:	31 11       	cpse	r19, r1
    1f66:	05 c0       	rjmp	.+10     	; 0x1f72 <StartsWith+0x22>
    1f68:	81 e0       	ldi	r24, 0x01	; 1
    1f6a:	90 81       	ld	r25, Z
    1f6c:	99 23       	and	r25, r25
    1f6e:	49 f0       	breq	.+18     	; 0x1f82 <StartsWith+0x32>
    1f70:	07 c0       	rjmp	.+14     	; 0x1f80 <StartsWith+0x30>
    1f72:	20 81       	ld	r18, Z
    1f74:	22 23       	and	r18, r18
    1f76:	c1 f3       	breq	.-16     	; 0x1f68 <StartsWith+0x18>
    1f78:	32 13       	cpse	r19, r18
    1f7a:	02 c0       	rjmp	.+4      	; 0x1f80 <StartsWith+0x30>
    1f7c:	9f 5f       	subi	r25, 0xFF	; 255
    1f7e:	ea cf       	rjmp	.-44     	; 0x1f54 <StartsWith+0x4>
    1f80:	80 e0       	ldi	r24, 0x00	; 0
    1f82:	08 95       	ret

00001f84 <PrepareSending>:
    1f84:	61 15       	cp	r22, r1
    1f86:	71 05       	cpc	r23, r1
    1f88:	51 f1       	breq	.+84     	; 0x1fde <PrepareSending+0x5a>
    1f8a:	e2 e5       	ldi	r30, 0x52	; 82
    1f8c:	fa e3       	ldi	r31, 0x3A	; 58
    1f8e:	aa e4       	ldi	r26, 0x4A	; 74
    1f90:	ba e3       	ldi	r27, 0x3A	; 58
    1f92:	20 e0       	ldi	r18, 0x00	; 0
    1f94:	3f ef       	ldi	r19, 0xFF	; 255
    1f96:	6f 3f       	cpi	r22, 0xFF	; 255
    1f98:	71 05       	cpc	r23, r1
    1f9a:	69 f0       	breq	.+26     	; 0x1fb6 <PrepareSending+0x32>
    1f9c:	60 f0       	brcs	.+24     	; 0x1fb6 <PrepareSending+0x32>
    1f9e:	81 93       	st	Z+, r24
    1fa0:	91 93       	st	Z+, r25
    1fa2:	3d 93       	st	X+, r19
    1fa4:	81 50       	subi	r24, 0x01	; 1
    1fa6:	9f 4f       	sbci	r25, 0xFF	; 255
    1fa8:	6f 5f       	subi	r22, 0xFF	; 255
    1faa:	71 09       	sbc	r23, r1
    1fac:	2f 5f       	subi	r18, 0xFF	; 255
    1fae:	27 30       	cpi	r18, 0x07	; 7
    1fb0:	91 f7       	brne	.-28     	; 0x1f96 <PrepareSending+0x12>
    1fb2:	81 e0       	ldi	r24, 0x01	; 1
    1fb4:	08 95       	ret
    1fb6:	e2 2f       	mov	r30, r18
    1fb8:	f0 e0       	ldi	r31, 0x00	; 0
    1fba:	df 01       	movw	r26, r30
    1fbc:	aa 0f       	add	r26, r26
    1fbe:	bb 1f       	adc	r27, r27
    1fc0:	ae 5a       	subi	r26, 0xAE	; 174
    1fc2:	b5 4c       	sbci	r27, 0xC5	; 197
    1fc4:	8d 93       	st	X+, r24
    1fc6:	9c 93       	st	X, r25
    1fc8:	e6 5b       	subi	r30, 0xB6	; 182
    1fca:	f5 4c       	sbci	r31, 0xC5	; 197
    1fcc:	cb 01       	movw	r24, r22
    1fce:	6f ef       	ldi	r22, 0xFF	; 255
    1fd0:	70 e0       	ldi	r23, 0x00	; 0
    1fd2:	0e 94 f5 1e 	call	0x3dea	; 0x3dea <__udivmodhi4>
    1fd6:	80 83       	st	Z, r24
    1fd8:	40 93 48 3a 	sts	0x3A48, r20	; 0x803a48 <txTypeNow>
    1fdc:	05 c0       	rjmp	.+10     	; 0x1fe8 <PrepareSending+0x64>
    1fde:	10 92 52 3a 	sts	0x3A52, r1	; 0x803a52 <txAddrList>
    1fe2:	10 92 53 3a 	sts	0x3A53, r1	; 0x803a53 <txAddrList+0x1>
    1fe6:	20 e0       	ldi	r18, 0x00	; 0
    1fe8:	82 2f       	mov	r24, r18
    1fea:	a8 df       	rcall	.-176    	; 0x1f3c <ClearTxAfter>
    1fec:	10 92 49 3a 	sts	0x3A49, r1	; 0x803a49 <txAddrNow>
    1ff0:	80 e0       	ldi	r24, 0x00	; 0
    1ff2:	08 95       	ret

00001ff4 <SetStandardResponse>:
}

//
uint8_t SetStandardResponse(uint8_t custStrEnd){
    1ff4:	cf 93       	push	r28
    1ff6:	df 93       	push	r29
    return 0;
}

//
void SetResponse(uint8_t number, uint16_t address, uint16_t length, uint8_t type){
    reactStr[0][number]=address;
    1ff8:	28 2f       	mov	r18, r24
    1ffa:	30 e0       	ldi	r19, 0x00	; 0
    1ffc:	f9 01       	movw	r30, r18
    1ffe:	ee 0f       	add	r30, r30
    2000:	ff 1f       	adc	r31, r31
    2002:	e3 5e       	subi	r30, 0xE3	; 227
    2004:	f6 4c       	sbci	r31, 0xC6	; 198
    2006:	ab e5       	ldi	r26, 0x5B	; 91
    2008:	ba e7       	ldi	r27, 0x7A	; 122
    200a:	a0 83       	st	Z, r26
    200c:	b1 83       	std	Z+1, r27	; 0x01
    reactStr[1][number]=length;
    200e:	f9 01       	movw	r30, r18
    2010:	ee 0f       	add	r30, r30
    2012:	ff 1f       	adc	r31, r31
    2014:	e3 5a       	subi	r30, 0xA3	; 163
    2016:	f6 4c       	sbci	r31, 0xC6	; 198
    2018:	62 e0       	ldi	r22, 0x02	; 2
    201a:	70 e0       	ldi	r23, 0x00	; 0
    201c:	60 83       	st	Z, r22
    201e:	71 83       	std	Z+1, r23	; 0x01
    reactStr[2][number]=type;
    2020:	22 0f       	add	r18, r18
    2022:	33 1f       	adc	r19, r19
    2024:	f9 01       	movw	r30, r18
    2026:	e3 56       	subi	r30, 0x63	; 99
    2028:	f6 4c       	sbci	r31, 0xC6	; 198
    202a:	41 e0       	ldi	r20, 0x01	; 1
    202c:	50 e0       	ldi	r21, 0x00	; 0
    202e:	40 83       	st	Z, r20
    2030:	51 83       	std	Z+1, r21	; 0x01
    return 0;
}

//
void SetResponse(uint8_t number, uint16_t address, uint16_t length, uint8_t type){
    reactStr[0][number]=address;
    2032:	21 e0       	ldi	r18, 0x01	; 1
    2034:	28 0f       	add	r18, r24
    2036:	30 e0       	ldi	r19, 0x00	; 0
    2038:	f9 01       	movw	r30, r18
    203a:	ee 0f       	add	r30, r30
    203c:	ff 1f       	adc	r31, r31
    203e:	e3 5e       	subi	r30, 0xE3	; 227
    2040:	f6 4c       	sbci	r31, 0xC6	; 198
    2042:	c4 e6       	ldi	r28, 0x64	; 100
    2044:	da e7       	ldi	r29, 0x7A	; 122
    2046:	c0 83       	st	Z, r28
    2048:	d1 83       	std	Z+1, r29	; 0x01
    reactStr[1][number]=length;
    204a:	f9 01       	movw	r30, r18
    204c:	ee 0f       	add	r30, r30
    204e:	ff 1f       	adc	r31, r31
    2050:	e3 5a       	subi	r30, 0xA3	; 163
    2052:	f6 4c       	sbci	r31, 0xC6	; 198
    2054:	ca e0       	ldi	r28, 0x0A	; 10
    2056:	d0 e0       	ldi	r29, 0x00	; 0
    2058:	c0 83       	st	Z, r28
    205a:	d1 83       	std	Z+1, r29	; 0x01
    reactStr[2][number]=type;
    205c:	22 0f       	add	r18, r18
    205e:	33 1f       	adc	r19, r19
    2060:	f9 01       	movw	r30, r18
    2062:	e3 56       	subi	r30, 0x63	; 99
    2064:	f6 4c       	sbci	r31, 0xC6	; 198
    2066:	40 83       	st	Z, r20
    2068:	51 83       	std	Z+1, r21	; 0x01
uint8_t SetStandardResponse(uint8_t custStrEnd){

    SetResponse(custStrEnd++, A_LF, 2, TEASER);
    SetResponse(custStrEnd++, A_LOCATION, L_LOCATION, TEASER);
    //SetResponse(custStrEnd++, A_SPACE, L_SPACE, TEASER);
    reactStr[0][custStrEnd++] = CURR_LOC;
    206a:	e2 e0       	ldi	r30, 0x02	; 2
    206c:	e8 0f       	add	r30, r24
    206e:	f0 e0       	ldi	r31, 0x00	; 0
    2070:	ee 0f       	add	r30, r30
    2072:	ff 1f       	adc	r31, r31
    2074:	e3 5e       	subi	r30, 0xE3	; 227
    2076:	f6 4c       	sbci	r31, 0xC6	; 198
    2078:	20 ef       	ldi	r18, 0xF0	; 240
    207a:	3f ef       	ldi	r19, 0xFF	; 255
    207c:	20 83       	st	Z, r18
    207e:	31 83       	std	Z+1, r19	; 0x01
    return 0;
}

//
void SetResponse(uint8_t number, uint16_t address, uint16_t length, uint8_t type){
    reactStr[0][number]=address;
    2080:	23 e0       	ldi	r18, 0x03	; 3
    2082:	28 0f       	add	r18, r24
    2084:	30 e0       	ldi	r19, 0x00	; 0
    2086:	f9 01       	movw	r30, r18
    2088:	ee 0f       	add	r30, r30
    208a:	ff 1f       	adc	r31, r31
    208c:	e3 5e       	subi	r30, 0xE3	; 227
    208e:	f6 4c       	sbci	r31, 0xC6	; 198
    2090:	a0 83       	st	Z, r26
    2092:	b1 83       	std	Z+1, r27	; 0x01
    reactStr[1][number]=length;
    2094:	f9 01       	movw	r30, r18
    2096:	ee 0f       	add	r30, r30
    2098:	ff 1f       	adc	r31, r31
    209a:	e3 5a       	subi	r30, 0xA3	; 163
    209c:	f6 4c       	sbci	r31, 0xC6	; 198
    209e:	60 83       	st	Z, r22
    20a0:	71 83       	std	Z+1, r23	; 0x01
    reactStr[2][number]=type;
    20a2:	22 0f       	add	r18, r18
    20a4:	33 1f       	adc	r19, r19
    20a6:	f9 01       	movw	r30, r18
    20a8:	e3 56       	subi	r30, 0x63	; 99
    20aa:	f6 4c       	sbci	r31, 0xC6	; 198
    20ac:	40 83       	st	Z, r20
    20ae:	51 83       	std	Z+1, r21	; 0x01
    return 0;
}

//
void SetResponse(uint8_t number, uint16_t address, uint16_t length, uint8_t type){
    reactStr[0][number]=address;
    20b0:	24 e0       	ldi	r18, 0x04	; 4
    20b2:	28 0f       	add	r18, r24
    20b4:	30 e0       	ldi	r19, 0x00	; 0
    20b6:	f9 01       	movw	r30, r18
    20b8:	ee 0f       	add	r30, r30
    20ba:	ff 1f       	adc	r31, r31
    20bc:	e3 5e       	subi	r30, 0xE3	; 227
    20be:	f6 4c       	sbci	r31, 0xC6	; 198
    20c0:	a7 e5       	ldi	r26, 0x57	; 87
    20c2:	ba e7       	ldi	r27, 0x7A	; 122
    20c4:	a0 83       	st	Z, r26
    20c6:	b1 83       	std	Z+1, r27	; 0x01
    reactStr[1][number]=length;
    20c8:	f9 01       	movw	r30, r18
    20ca:	ee 0f       	add	r30, r30
    20cc:	ff 1f       	adc	r31, r31
    20ce:	e3 5a       	subi	r30, 0xA3	; 163
    20d0:	f6 4c       	sbci	r31, 0xC6	; 198
    20d2:	60 83       	st	Z, r22
    20d4:	71 83       	std	Z+1, r23	; 0x01
    reactStr[2][number]=type;
    20d6:	22 0f       	add	r18, r18
    20d8:	33 1f       	adc	r19, r19
    20da:	f9 01       	movw	r30, r18
    20dc:	e3 56       	subi	r30, 0x63	; 99
    20de:	f6 4c       	sbci	r31, 0xC6	; 198
    20e0:	40 83       	st	Z, r20
    20e2:	51 83       	std	Z+1, r21	; 0x01
    SetResponse(custStrEnd++, A_LF, 2, TEASER);
    SetResponse(custStrEnd++, A_PROMPT, L_PROMPT, TEASER);
    //SetResponse(custStrEnd++, A_SPACE, L_SPACE, TEASER);

    return custStrEnd;
}
    20e4:	8b 5f       	subi	r24, 0xFB	; 251
    20e6:	df 91       	pop	r29
    20e8:	cf 91       	pop	r28
    20ea:	08 95       	ret

000020ec <PopulateObject>:

//Get all the relevant data and string addresses of an object
void PopulateObject(uint16_t offset, object_model_t *object){
    20ec:	af 92       	push	r10
    20ee:	bf 92       	push	r11
    20f0:	df 92       	push	r13
    20f2:	ef 92       	push	r14
    20f4:	ff 92       	push	r15
    20f6:	0f 93       	push	r16
    20f8:	1f 93       	push	r17
    20fa:	cf 93       	push	r28
    20fc:	df 93       	push	r29
    20fe:	cd b7       	in	r28, 0x3d	; 61
    2100:	de b7       	in	r29, 0x3e	; 62
    2102:	2c 97       	sbiw	r28, 0x0c	; 12
    2104:	cd bf       	out	0x3d, r28	; 61
    2106:	de bf       	out	0x3e, r29	; 62
    2108:	7c 01       	movw	r14, r24
    210a:	8b 01       	movw	r16, r22
    uint16_t parStr;
    offset += L_BOILER;

    //Fill things with fixed distance to offset
    uint8_t data[OFF_STRINGFLDS];
    ExtEERead(offset, OFF_STRINGFLDS, GAME, &data[0]);
    210c:	9e 01       	movw	r18, r28
    210e:	2f 5f       	subi	r18, 0xFF	; 255
    2110:	3f 4f       	sbci	r19, 0xFF	; 255
    2112:	40 e0       	ldi	r20, 0x00	; 0
    2114:	6c e0       	ldi	r22, 0x0C	; 12
    2116:	80 96       	adiw	r24, 0x20	; 32
    2118:	de de       	rcall	.-580    	; 0x1ed6 <ExtEERead>
    object->addrNextObj = (data[OFF_NEXTOBJ]<<8|data[OFF_NEXTOBJ+1])+L_BOILER;
    211a:	89 81       	ldd	r24, Y+1	; 0x01
    211c:	9a 81       	ldd	r25, Y+2	; 0x02
    211e:	98 27       	eor	r25, r24
    2120:	89 27       	eor	r24, r25
    2122:	98 27       	eor	r25, r24
    2124:	80 96       	adiw	r24, 0x20	; 32
    2126:	f8 01       	movw	r30, r16
    2128:	80 83       	st	Z, r24
    212a:	91 83       	std	Z+1, r25	; 0x01
    object->addrNextLvl = (data[OFF_NEXTLVL]<<8|data[OFF_NEXTLVL+1])+L_BOILER;
    212c:	8b 81       	ldd	r24, Y+3	; 0x03
    212e:	9c 81       	ldd	r25, Y+4	; 0x04
    2130:	98 27       	eor	r25, r24
    2132:	89 27       	eor	r24, r25
    2134:	98 27       	eor	r25, r24
    2136:	80 96       	adiw	r24, 0x20	; 32
    2138:	82 83       	std	Z+2, r24	; 0x02
    213a:	93 83       	std	Z+3, r25	; 0x03
    213c:	de 01       	movw	r26, r28
    213e:	15 96       	adiw	r26, 0x05	; 5
    2140:	34 96       	adiw	r30, 0x04	; 4
    2142:	c8 01       	movw	r24, r16
    2144:	0c 96       	adiw	r24, 0x0c	; 12
    for (uint8_t x=0; x<BYTE_FIELDS_LEN; ++x){
        object->byteField[x]=data[x+OFF_BYTEFLDS];
    2146:	2d 91       	ld	r18, X+
    2148:	21 93       	st	Z+, r18
    //Fill things with fixed distance to offset
    uint8_t data[OFF_STRINGFLDS];
    ExtEERead(offset, OFF_STRINGFLDS, GAME, &data[0]);
    object->addrNextObj = (data[OFF_NEXTOBJ]<<8|data[OFF_NEXTOBJ+1])+L_BOILER;
    object->addrNextLvl = (data[OFF_NEXTLVL]<<8|data[OFF_NEXTLVL+1])+L_BOILER;
    for (uint8_t x=0; x<BYTE_FIELDS_LEN; ++x){
    214a:	e8 17       	cp	r30, r24
    214c:	f9 07       	cpc	r31, r25
    214e:	d9 f7       	brne	.-10     	; 0x2146 <PopulateObject+0x5a>
        object->byteField[x]=data[x+OFF_BYTEFLDS];
    }

    //Find out where all of the strings begin and how long they are
    offset += OFF_STRINGFLDS;
    2150:	fc e2       	ldi	r31, 0x2C	; 44
    2152:	ef 0e       	add	r14, r31
    2154:	f1 1c       	adc	r15, r1
    2156:	58 01       	movw	r10, r16
    for(uint8_t x=0; x<STRING_FIELDS_LEN; ++x){
    2158:	d1 2c       	mov	r13, r1
        
        //Determine length
        ExtEERead(offset, 3, GAME, &data[0]);
    215a:	9e 01       	movw	r18, r28
    215c:	2f 5f       	subi	r18, 0xFF	; 255
    215e:	3f 4f       	sbci	r19, 0xFF	; 255
    2160:	40 e0       	ldi	r20, 0x00	; 0
    2162:	63 e0       	ldi	r22, 0x03	; 3
    2164:	c7 01       	movw	r24, r14
    2166:	b7 de       	rcall	.-658    	; 0x1ed6 <ExtEERead>
    2168:	89 81       	ldd	r24, Y+1	; 0x01
    216a:	9a 81       	ldd	r25, Y+2	; 0x02
    216c:	98 27       	eor	r25, r24
    216e:	89 27       	eor	r24, r25
    2170:	98 27       	eor	r25, r24
        parStr = (data[0]<<8|data[1]);
        offset += 2;
    2172:	97 01       	movw	r18, r14
    2174:	2e 5f       	subi	r18, 0xFE	; 254
    2176:	3f 4f       	sbci	r19, 0xFF	; 255
        if (x >= OPEN_ACL_MSG){
    2178:	43 e0       	ldi	r20, 0x03	; 3
    217a:	4d 15       	cp	r20, r13
    217c:	80 f4       	brcc	.+32     	; 0x219e <PopulateObject+0xb2>
            object->lenStr[x]= parStr-1;
    217e:	ac 01       	movw	r20, r24
    2180:	41 50       	subi	r20, 0x01	; 1
    2182:	51 09       	sbc	r21, r1
    2184:	f8 01       	movw	r30, r16
    2186:	42 8f       	std	Z+26, r20	; 0x1a
    2188:	53 8f       	std	Z+27, r21	; 0x1b
            object->addrStr[x]=offset+1;
    218a:	f3 e0       	ldi	r31, 0x03	; 3
    218c:	ef 0e       	add	r14, r31
    218e:	f1 1c       	adc	r15, r1
    2190:	f8 01       	movw	r30, r16
    2192:	e4 86       	std	Z+12, r14	; 0x0c
    2194:	f5 86       	std	Z+13, r15	; 0x0d
            object->effect[x-OPEN_ACL_MSG] = data[2];
    2196:	4b 81       	ldd	r20, Y+3	; 0x03
    2198:	f5 01       	movw	r30, r10
    219a:	44 a3       	std	Z+36, r20	; 0x24
    219c:	05 c0       	rjmp	.+10     	; 0x21a8 <PopulateObject+0xbc>
        } else {
            object->lenStr[x]= parStr;
    219e:	f8 01       	movw	r30, r16
    21a0:	82 8f       	std	Z+26, r24	; 0x1a
    21a2:	93 8f       	std	Z+27, r25	; 0x1b
            object->addrStr[x]=offset;
    21a4:	24 87       	std	Z+12, r18	; 0x0c
    21a6:	35 87       	std	Z+13, r19	; 0x0d
        }
        
        //Determine string start location for next field
        offset += parStr;
    21a8:	7c 01       	movw	r14, r24
    21aa:	e2 0e       	add	r14, r18
    21ac:	f3 1e       	adc	r15, r19
        object->byteField[x]=data[x+OFF_BYTEFLDS];
    }

    //Find out where all of the strings begin and how long they are
    offset += OFF_STRINGFLDS;
    for(uint8_t x=0; x<STRING_FIELDS_LEN; ++x){
    21ae:	d3 94       	inc	r13
    21b0:	0e 5f       	subi	r16, 0xFE	; 254
    21b2:	1f 4f       	sbci	r17, 0xFF	; 255
    21b4:	ff ef       	ldi	r31, 0xFF	; 255
    21b6:	af 1a       	sub	r10, r31
    21b8:	bf 0a       	sbc	r11, r31
    21ba:	47 e0       	ldi	r20, 0x07	; 7
    21bc:	d4 12       	cpse	r13, r20
    21be:	cd cf       	rjmp	.-102    	; 0x215a <PopulateObject+0x6e>
        }
        
        //Determine string start location for next field
        offset += parStr;
    }    
}
    21c0:	2c 96       	adiw	r28, 0x0c	; 12
    21c2:	cd bf       	out	0x3d, r28	; 61
    21c4:	de bf       	out	0x3e, r29	; 62
    21c6:	df 91       	pop	r29
    21c8:	cf 91       	pop	r28
    21ca:	1f 91       	pop	r17
    21cc:	0f 91       	pop	r16
    21ce:	ff 90       	pop	r15
    21d0:	ef 90       	pop	r14
    21d2:	df 90       	pop	r13
    21d4:	bf 90       	pop	r11
    21d6:	af 90       	pop	r10
    21d8:	08 95       	ret

000021da <CheckLetter>:

//Check if the entered letter corresponds with a name
uint8_t CheckLetter(uint16_t object, uint8_t letter){
    21da:	cf 92       	push	r12
    21dc:	df 92       	push	r13
    21de:	ef 92       	push	r14
    21e0:	ff 92       	push	r15
    21e2:	0f 93       	push	r16
    21e4:	1f 93       	push	r17
    21e6:	cf 93       	push	r28
    21e8:	df 93       	push	r29
    21ea:	cd b7       	in	r28, 0x3d	; 61
    21ec:	de b7       	in	r29, 0x3e	; 62
    21ee:	a0 97       	sbiw	r28, 0x20	; 32
    21f0:	cd bf       	out	0x3d, r28	; 61
    21f2:	de bf       	out	0x3e, r29	; 62
    21f4:	c6 2e       	mov	r12, r22
    
    uint8_t found = 0;
    uint8_t data[32];

    object += L_BOILER;
    21f6:	7c 01       	movw	r14, r24
    21f8:	20 e2       	ldi	r18, 0x20	; 32
    21fa:	e2 0e       	add	r14, r18
    21fc:	f1 1c       	adc	r15, r1
    ExtEERead(object+OFF_STRINGFLDS, 2, GAME, &data[0]);
    21fe:	9e 01       	movw	r18, r28
    2200:	2f 5f       	subi	r18, 0xFF	; 255
    2202:	3f 4f       	sbci	r19, 0xFF	; 255
    2204:	40 e0       	ldi	r20, 0x00	; 0
    2206:	62 e0       	ldi	r22, 0x02	; 2
    2208:	8c 96       	adiw	r24, 0x2c	; 44
    220a:	65 de       	rcall	.-822    	; 0x1ed6 <ExtEERead>
    uint8_t x = data[1]; //Assuming a name is not longer than 255 characters.
    220c:	1a 81       	ldd	r17, Y+2	; 0x02
}

//Check if the entered letter corresponds with a name
uint8_t CheckLetter(uint16_t object, uint8_t letter){
    
    uint8_t found = 0;
    220e:	d1 2c       	mov	r13, r1

    object += L_BOILER;
    ExtEERead(object+OFF_STRINGFLDS, 2, GAME, &data[0]);
    uint8_t x = data[1]; //Assuming a name is not longer than 255 characters.

    while (x){
    2210:	11 23       	and	r17, r17
    2212:	51 f1       	breq	.+84     	; 0x2268 <CheckLetter+0x8e>
    2214:	01 2f       	mov	r16, r17
    2216:	11 32       	cpi	r17, 0x21	; 33
    2218:	08 f0       	brcs	.+2      	; 0x221c <CheckLetter+0x42>
    221a:	00 e2       	ldi	r16, 0x20	; 32
        uint8_t max;
        if (x>32) max = 32; else max = x;
        ExtEERead(object+OFF_STRINGFLDS+2, max, GAME, &data[0]);
    221c:	9e 01       	movw	r18, r28
    221e:	2f 5f       	subi	r18, 0xFF	; 255
    2220:	3f 4f       	sbci	r19, 0xFF	; 255
    2222:	40 e0       	ldi	r20, 0x00	; 0
    2224:	60 2f       	mov	r22, r16
    2226:	c7 01       	movw	r24, r14
    2228:	0e 96       	adiw	r24, 0x0e	; 14
    222a:	55 de       	rcall	.-854    	; 0x1ed6 <ExtEERead>
    222c:	fe 01       	movw	r30, r28
    222e:	31 96       	adiw	r30, 0x01	; 1
        for (uint8_t y=0; y<max; ++y){
    2230:	80 e0       	ldi	r24, 0x00	; 0
            if (found){
    2232:	dd 20       	and	r13, r13
    2234:	61 f0       	breq	.+24     	; 0x224e <CheckLetter+0x74>
                if ((data[y]|0x20) == letter) return 1; else return 0;
    2236:	e1 e0       	ldi	r30, 0x01	; 1
    2238:	f0 e0       	ldi	r31, 0x00	; 0
    223a:	ec 0f       	add	r30, r28
    223c:	fd 1f       	adc	r31, r29
    223e:	e8 0f       	add	r30, r24
    2240:	f1 1d       	adc	r31, r1
    2242:	90 81       	ld	r25, Z
    2244:	90 62       	ori	r25, 0x20	; 32
    2246:	81 e0       	ldi	r24, 0x01	; 1
    2248:	9c 11       	cpse	r25, r12
    224a:	0e c0       	rjmp	.+28     	; 0x2268 <CheckLetter+0x8e>
    224c:	0e c0       	rjmp	.+28     	; 0x226a <CheckLetter+0x90>
            }
            if (data[y] == '[') found = 1;
    224e:	91 91       	ld	r25, Z+
    2250:	dd 24       	eor	r13, r13
    2252:	d3 94       	inc	r13
    2254:	9b 35       	cpi	r25, 0x5B	; 91
    2256:	09 f0       	breq	.+2      	; 0x225a <CheckLetter+0x80>
    2258:	d1 2c       	mov	r13, r1

    while (x){
        uint8_t max;
        if (x>32) max = 32; else max = x;
        ExtEERead(object+OFF_STRINGFLDS+2, max, GAME, &data[0]);
        for (uint8_t y=0; y<max; ++y){
    225a:	8f 5f       	subi	r24, 0xFF	; 255
    225c:	80 17       	cp	r24, r16
    225e:	48 f3       	brcs	.-46     	; 0x2232 <CheckLetter+0x58>
            if (found){
                if ((data[y]|0x20) == letter) return 1; else return 0;
            }
            if (data[y] == '[') found = 1;
        }
        object += max;
    2260:	e0 0e       	add	r14, r16
    2262:	f1 1c       	adc	r15, r1
        x -= max;
    2264:	10 1b       	sub	r17, r16
    2266:	d4 cf       	rjmp	.-88     	; 0x2210 <CheckLetter+0x36>
    }
    return 0;
    2268:	80 e0       	ldi	r24, 0x00	; 0
}
    226a:	a0 96       	adiw	r28, 0x20	; 32
    226c:	cd bf       	out	0x3d, r28	; 61
    226e:	de bf       	out	0x3e, r29	; 62
    2270:	df 91       	pop	r29
    2272:	cf 91       	pop	r28
    2274:	1f 91       	pop	r17
    2276:	0f 91       	pop	r16
    2278:	ff 90       	pop	r15
    227a:	ef 90       	pop	r14
    227c:	df 90       	pop	r13
    227e:	cf 90       	pop	r12
    2280:	08 95       	ret

00002282 <FindChild>:

//Returns the child's address if the child is visible and the search letter matches
uint16_t FindChild(uint16_t parent, uint8_t letter, uint16_t start){
    2282:	af 92       	push	r10
    2284:	bf 92       	push	r11
    2286:	df 92       	push	r13
    2288:	ef 92       	push	r14
    228a:	ff 92       	push	r15
    228c:	0f 93       	push	r16
    228e:	1f 93       	push	r17
    2290:	cf 93       	push	r28
    2292:	df 93       	push	r29
    2294:	00 d0       	rcall	.+0      	; 0x2296 <FindChild+0x14>
    2296:	00 d0       	rcall	.+0      	; 0x2298 <FindChild+0x16>
    2298:	cd b7       	in	r28, 0x3d	; 61
    229a:	de b7       	in	r29, 0x3e	; 62
    229c:	d6 2e       	mov	r13, r22
    229e:	5a 01       	movw	r10, r20
    
    uint16_t child = parent;
    uint8_t data[4];

    ExtEERead(child+L_BOILER, 4, GAME, &data[0]);
    22a0:	9e 01       	movw	r18, r28
    22a2:	2f 5f       	subi	r18, 0xFF	; 255
    22a4:	3f 4f       	sbci	r19, 0xFF	; 255
    22a6:	40 e0       	ldi	r20, 0x00	; 0
    22a8:	64 e0       	ldi	r22, 0x04	; 4
    22aa:	80 96       	adiw	r24, 0x20	; 32
    22ac:	14 de       	rcall	.-984    	; 0x1ed6 <ExtEERead>
    22ae:	e9 80       	ldd	r14, Y+1	; 0x01
    22b0:	fa 80       	ldd	r15, Y+2	; 0x02
    22b2:	fe 24       	eor	r15, r14
    22b4:	ef 24       	eor	r14, r15
    22b6:	fe 24       	eor	r15, r14
    22b8:	0b 81       	ldd	r16, Y+3	; 0x03
    22ba:	1c 81       	ldd	r17, Y+4	; 0x04
    22bc:	10 27       	eor	r17, r16
    22be:	01 27       	eor	r16, r17
    22c0:	10 27       	eor	r17, r16
    parent = (data[0]<<8|data[1]);    //Next object on parent level
    child =  (data[2]<<8|data[3]);    //First object on child level

    //As long as the child is within the parent's range
    while (parent>child){
    22c2:	0e 15       	cp	r16, r14
    22c4:	1f 05       	cpc	r17, r15
    22c6:	30 f5       	brcc	.+76     	; 0x2314 <FindChild+0x92>

        //If child's address is higher than the start address, perform search for letter
        if (child>start){
    22c8:	a0 16       	cp	r10, r16
    22ca:	b1 06       	cpc	r11, r17
    22cc:	58 f0       	brcs	.+22     	; 0x22e4 <FindChild+0x62>
                if ((letter == 0)||(CheckLetter(child, letter))) return child;
            }
        }

        //Not visible or name not right
        ExtEERead(child+L_BOILER, 2, GAME, &data[0]);
    22ce:	9e 01       	movw	r18, r28
    22d0:	2f 5f       	subi	r18, 0xFF	; 255
    22d2:	3f 4f       	sbci	r19, 0xFF	; 255
    22d4:	40 e0       	ldi	r20, 0x00	; 0
    22d6:	62 e0       	ldi	r22, 0x02	; 2
    22d8:	c8 01       	movw	r24, r16
    22da:	80 96       	adiw	r24, 0x20	; 32
    22dc:	fc dd       	rcall	.-1032   	; 0x1ed6 <ExtEERead>
    22de:	09 81       	ldd	r16, Y+1	; 0x01
    22e0:	1a 81       	ldd	r17, Y+2	; 0x02
    22e2:	ec cf       	rjmp	.-40     	; 0x22bc <FindChild+0x3a>
    //As long as the child is within the parent's range
    while (parent>child){

        //If child's address is higher than the start address, perform search for letter
        if (child>start){
            ExtEERead(child+OFF_BYTEFLDS+VISIBLE_ACL+L_BOILER, 1, GAME, &data[0]);
    22e4:	9e 01       	movw	r18, r28
    22e6:	2f 5f       	subi	r18, 0xFF	; 255
    22e8:	3f 4f       	sbci	r19, 0xFF	; 255
    22ea:	40 e0       	ldi	r20, 0x00	; 0
    22ec:	61 e0       	ldi	r22, 0x01	; 1
    22ee:	c8 01       	movw	r24, r16
    22f0:	85 96       	adiw	r24, 0x25	; 37
    22f2:	f1 dd       	rcall	.-1054   	; 0x1ed6 <ExtEERead>
            if ((data[0] == 0)||(CheckState(data[0]))) {
    22f4:	89 81       	ldd	r24, Y+1	; 0x01
    22f6:	81 11       	cpse	r24, r1
    22f8:	03 c0       	rjmp	.+6      	; 0x2300 <FindChild+0x7e>
                if ((letter == 0)||(CheckLetter(child, letter))) return child;
    22fa:	d1 10       	cpse	r13, r1
    22fc:	05 c0       	rjmp	.+10     	; 0x2308 <FindChild+0x86>
    while (parent>child){

        //If child's address is higher than the start address, perform search for letter
        if (child>start){
            ExtEERead(child+OFF_BYTEFLDS+VISIBLE_ACL+L_BOILER, 1, GAME, &data[0]);
            if ((data[0] == 0)||(CheckState(data[0]))) {
    22fe:	0d c0       	rjmp	.+26     	; 0x231a <FindChild+0x98>
    2300:	30 d9       	rcall	.-3488   	; 0x1562 <CheckState>
    2302:	81 11       	cpse	r24, r1
    2304:	fa cf       	rjmp	.-12     	; 0x22fa <FindChild+0x78>
                if ((letter == 0)||(CheckLetter(child, letter))) return child;
    2306:	e3 cf       	rjmp	.-58     	; 0x22ce <FindChild+0x4c>
    2308:	6d 2d       	mov	r22, r13
    230a:	c8 01       	movw	r24, r16
    230c:	66 df       	rcall	.-308    	; 0x21da <CheckLetter>
    230e:	88 23       	and	r24, r24
    2310:	f1 f2       	breq	.-68     	; 0x22ce <FindChild+0x4c>
    2312:	03 c0       	rjmp	.+6      	; 0x231a <FindChild+0x98>

        //Not visible or name not right
        ExtEERead(child+L_BOILER, 2, GAME, &data[0]);
        child = (data[0]<<8|data[1]);    //Next object on child level
        
    } return 0;
    2314:	80 e0       	ldi	r24, 0x00	; 0
    2316:	90 e0       	ldi	r25, 0x00	; 0
    2318:	01 c0       	rjmp	.+2      	; 0x231c <FindChild+0x9a>
    231a:	c8 01       	movw	r24, r16
}
    231c:	24 96       	adiw	r28, 0x04	; 4
    231e:	cd bf       	out	0x3d, r28	; 61
    2320:	de bf       	out	0x3e, r29	; 62
    2322:	df 91       	pop	r29
    2324:	cf 91       	pop	r28
    2326:	1f 91       	pop	r17
    2328:	0f 91       	pop	r16
    232a:	ff 90       	pop	r15
    232c:	ef 90       	pop	r14
    232e:	df 90       	pop	r13
    2330:	bf 90       	pop	r11
    2332:	af 90       	pop	r10
    2334:	08 95       	ret

00002336 <InpOkChk>:

//Allow only a(A) to z(Z) and 0 to 9 as input
uint8_t InpOkChk(uint8_t test){
    test |= 0x20;
    2336:	80 62       	ori	r24, 0x20	; 32
    if ((test>='a')&&(test<='z')) return 1;
    2338:	9f e9       	ldi	r25, 0x9F	; 159
    233a:	98 0f       	add	r25, r24
    233c:	9a 31       	cpi	r25, 0x1A	; 26
    233e:	38 f0       	brcs	.+14     	; 0x234e <InpOkChk+0x18>
    2340:	90 ed       	ldi	r25, 0xD0	; 208
    2342:	98 0f       	add	r25, r24
    2344:	81 e0       	ldi	r24, 0x01	; 1
    2346:	9a 30       	cpi	r25, 0x0A	; 10
    2348:	18 f0       	brcs	.+6      	; 0x2350 <InpOkChk+0x1a>
    234a:	80 e0       	ldi	r24, 0x00	; 0
    234c:	08 95       	ret
    234e:	81 e0       	ldi	r24, 0x01	; 1
    if ((test>='0')&&(test<='9')) return 1;
    return 0;
}
    2350:	08 95       	ret

00002352 <CleanInput>:

//Cleans input of garbage and returns length of cleaned input "o->d2  !\0" becomes "od2\0"
uint8_t CleanInput(uint8_t *data){
    2352:	0f 93       	push	r16
    2354:	1f 93       	push	r17
    2356:	cf 93       	push	r28
    2358:	df 93       	push	r29
    235a:	8c 01       	movw	r16, r24
    uint8_t cnt = 0;
    for (uint8_t x=0; data[x]!=0; ++x){
    235c:	d0 e0       	ldi	r29, 0x00	; 0
    return 0;
}

//Cleans input of garbage and returns length of cleaned input "o->d2  !\0" becomes "od2\0"
uint8_t CleanInput(uint8_t *data){
    uint8_t cnt = 0;
    235e:	c0 e0       	ldi	r28, 0x00	; 0
    for (uint8_t x=0; data[x]!=0; ++x){
    2360:	f8 01       	movw	r30, r16
    2362:	ed 0f       	add	r30, r29
    2364:	f1 1d       	adc	r31, r1
    2366:	20 81       	ld	r18, Z
    2368:	8c 2f       	mov	r24, r28
    236a:	90 e0       	ldi	r25, 0x00	; 0
    236c:	22 23       	and	r18, r18
    236e:	51 f0       	breq	.+20     	; 0x2384 <CleanInput+0x32>
        data[cnt] = data[x];
    2370:	d8 01       	movw	r26, r16
    2372:	a8 0f       	add	r26, r24
    2374:	b9 1f       	adc	r27, r25
    2376:	2c 93       	st	X, r18
        if (InpOkChk(data[x])) ++cnt;
    2378:	80 81       	ld	r24, Z
    237a:	dd df       	rcall	.-70     	; 0x2336 <InpOkChk>
    237c:	81 11       	cpse	r24, r1
    237e:	cf 5f       	subi	r28, 0xFF	; 255
}

//Cleans input of garbage and returns length of cleaned input "o->d2  !\0" becomes "od2\0"
uint8_t CleanInput(uint8_t *data){
    uint8_t cnt = 0;
    for (uint8_t x=0; data[x]!=0; ++x){
    2380:	df 5f       	subi	r29, 0xFF	; 255
    2382:	ee cf       	rjmp	.-36     	; 0x2360 <CleanInput+0xe>
        data[cnt] = data[x];
        if (InpOkChk(data[x])) ++cnt;
    }
    data[cnt] = 0;
    2384:	f8 01       	movw	r30, r16
    2386:	e8 0f       	add	r30, r24
    2388:	f9 1f       	adc	r31, r25
    238a:	10 82       	st	Z, r1
    return cnt;
}
    238c:	8c 2f       	mov	r24, r28
    238e:	df 91       	pop	r29
    2390:	cf 91       	pop	r28
    2392:	1f 91       	pop	r17
    2394:	0f 91       	pop	r16
    2396:	08 95       	ret

00002398 <CheckSend>:

//Send routine, optimized for low memory usage
uint8_t CheckSend(){
    2398:	cf 93       	push	r28
    static uint8_t txPart;
    uint8_t EEreadLength=0;

    //Play effects if available and not already playing
    if (effect == 0){
    239a:	80 91 3a 38 	lds	r24, 0x383A	; 0x80383a <effect>
    239e:	90 91 3b 38 	lds	r25, 0x383B	; 0x80383b <effect+0x1>
    23a2:	89 2b       	or	r24, r25
    23a4:	99 f4       	brne	.+38     	; 0x23cc <CheckSend+0x34>
        effect = currObj.byteField[EFFECTS];
    23a6:	80 91 21 3a 	lds	r24, 0x3A21	; 0x803a21 <currObj+0x4>
    23aa:	90 e0       	ldi	r25, 0x00	; 0
    23ac:	80 93 3a 38 	sts	0x383A, r24	; 0x80383a <effect>
    23b0:	90 93 3b 38 	sts	0x383B, r25	; 0x80383b <effect+0x1>
        auStart = ((effect&0xE0)>0);
    23b4:	80 91 3a 38 	lds	r24, 0x383A	; 0x80383a <effect>
    23b8:	90 91 3b 38 	lds	r25, 0x383B	; 0x80383b <effect+0x1>
    23bc:	80 7e       	andi	r24, 0xE0	; 224
    23be:	99 27       	eor	r25, r25
    23c0:	21 e0       	ldi	r18, 0x01	; 1
    23c2:	89 2b       	or	r24, r25
    23c4:	09 f4       	brne	.+2      	; 0x23c8 <CheckSend+0x30>
    23c6:	20 e0       	ldi	r18, 0x00	; 0
    23c8:	20 93 39 38 	sts	0x3839, r18	; 0x803839 <auStart>
    }

    //Check if more string(part)s have to be sent to the serial output if previous send operation is completed
    if ((txAddrNow < TXLISTLEN) && serTxDone){
    23cc:	20 91 49 3a 	lds	r18, 0x3A49	; 0x803a49 <txAddrNow>
    23d0:	28 30       	cpi	r18, 0x08	; 8
    23d2:	08 f0       	brcs	.+2      	; 0x23d6 <CheckSend+0x3e>
    23d4:	48 c0       	rjmp	.+144    	; 0x2466 <CheckSend+0xce>
    23d6:	80 91 0a 38 	lds	r24, 0x380A	; 0x80380a <serTxDone>
    23da:	88 23       	and	r24, r24
    23dc:	09 f4       	brne	.+2      	; 0x23e0 <CheckSend+0x48>
    23de:	43 c0       	rjmp	.+134    	; 0x2466 <CheckSend+0xce>
        if (txStrLen[txAddrNow] == 0){
    23e0:	82 2f       	mov	r24, r18
    23e2:	90 e0       	ldi	r25, 0x00	; 0
    23e4:	fc 01       	movw	r30, r24
    23e6:	e6 5b       	subi	r30, 0xB6	; 182
    23e8:	f5 4c       	sbci	r31, 0xC5	; 197
    23ea:	e0 81       	ld	r30, Z
    23ec:	e1 11       	cpse	r30, r1
    23ee:	06 c0       	rjmp	.+12     	; 0x23fc <CheckSend+0x64>
            txPart = 0;
    23f0:	10 92 08 39 	sts	0x3908, r1	; 0x803908 <txPart.3950>
            txAddrNow = TXLISTLEN;
    23f4:	88 e0       	ldi	r24, 0x08	; 8
    23f6:	80 93 49 3a 	sts	0x3A49, r24	; 0x803a49 <txAddrNow>
    23fa:	2d c0       	rjmp	.+90     	; 0x2456 <CheckSend+0xbe>
        } else if (txPart < txStrLen[txAddrNow]){
    23fc:	50 91 08 39 	lds	r21, 0x3908	; 0x803908 <txPart.3950>
    2400:	5e 17       	cp	r21, r30
    2402:	58 f5       	brcc	.+86     	; 0x245a <CheckSend+0xc2>
            EEreadLength = txStrLen[txAddrNow]-txPart;
    2404:	ce 2f       	mov	r28, r30
    2406:	c5 1b       	sub	r28, r21
    2408:	c1 32       	cpi	r28, 0x21	; 33
    240a:	08 f0       	brcs	.+2      	; 0x240e <CheckSend+0x76>
    240c:	c0 e2       	ldi	r28, 0x20	; 32
            if (EEreadLength>=TXLEN) EEreadLength = TXLEN-1;
            ExtEERead(txAddrList[txAddrNow]+txPart, EEreadLength, txTypeNow, &txBuffer[0]);
    240e:	88 0f       	add	r24, r24
    2410:	99 1f       	adc	r25, r25
    2412:	fc 01       	movw	r30, r24
    2414:	ee 5a       	subi	r30, 0xAE	; 174
    2416:	f5 4c       	sbci	r31, 0xC5	; 197
    2418:	80 81       	ld	r24, Z
    241a:	91 81       	ldd	r25, Z+1	; 0x01
    241c:	2b ef       	ldi	r18, 0xFB	; 251
    241e:	3a e3       	ldi	r19, 0x3A	; 58
    2420:	40 91 48 3a 	lds	r20, 0x3A48	; 0x803a48 <txTypeNow>
    2424:	6c 2f       	mov	r22, r28
    2426:	85 0f       	add	r24, r21
    2428:	91 1d       	adc	r25, r1
    242a:	55 dd       	rcall	.-1366   	; 0x1ed6 <ExtEERead>
            txPart += EEreadLength;
    242c:	80 91 08 39 	lds	r24, 0x3908	; 0x803908 <txPart.3950>
    2430:	8c 0f       	add	r24, r28
    2432:	80 93 08 39 	sts	0x3908, r24	; 0x803908 <txPart.3950>
            txBuffer[EEreadLength] = 0; //Add string terminator after piece to send to plug memory leak
    2436:	ec 2f       	mov	r30, r28
    2438:	f0 e0       	ldi	r31, 0x00	; 0
    243a:	e5 50       	subi	r30, 0x05	; 5
    243c:	f5 4c       	sbci	r31, 0xC5	; 197
    243e:	10 82       	st	Z, r1
            if ((txBuffer[0] == 0) && (EEreadLength)) txBuffer[0] = 0xDB; //Block character when data wrong.
    2440:	80 91 fb 3a 	lds	r24, 0x3AFB	; 0x803afb <txBuffer>
    2444:	81 11       	cpse	r24, r1
    2446:	03 c0       	rjmp	.+6      	; 0x244e <CheckSend+0xb6>
    2448:	8b ed       	ldi	r24, 0xDB	; 219
    244a:	80 93 fb 3a 	sts	0x3AFB, r24	; 0x803afb <txBuffer>
            SerSend(&txBuffer[0]);
    244e:	8b ef       	ldi	r24, 0xFB	; 251
    2450:	9a e3       	ldi	r25, 0x3A	; 58
    2452:	0e 94 e7 08 	call	0x11ce	; 0x11ce <SerSend>
        } else {
            txPart = 0;
            ++txAddrNow;
        }
    } else if (serTxDone) return 0; //All is sent!
    return 1; //Still sending, do not change the data in the tx variables
    2456:	81 e0       	ldi	r24, 0x01	; 1
    2458:	0b c0       	rjmp	.+22     	; 0x2470 <CheckSend+0xd8>
            txPart += EEreadLength;
            txBuffer[EEreadLength] = 0; //Add string terminator after piece to send to plug memory leak
            if ((txBuffer[0] == 0) && (EEreadLength)) txBuffer[0] = 0xDB; //Block character when data wrong.
            SerSend(&txBuffer[0]);
        } else {
            txPart = 0;
    245a:	10 92 08 39 	sts	0x3908, r1	; 0x803908 <txPart.3950>
            ++txAddrNow;
    245e:	2f 5f       	subi	r18, 0xFF	; 255
    2460:	20 93 49 3a 	sts	0x3A49, r18	; 0x803a49 <txAddrNow>
    2464:	f8 cf       	rjmp	.-16     	; 0x2456 <CheckSend+0xbe>
        }
    } else if (serTxDone) return 0; //All is sent!
    2466:	90 91 0a 38 	lds	r25, 0x380A	; 0x80380a <serTxDone>
    246a:	81 e0       	ldi	r24, 0x01	; 1
    246c:	91 11       	cpse	r25, r1
    246e:	80 e0       	ldi	r24, 0x00	; 0
    return 1; //Still sending, do not change the data in the tx variables
}
    2470:	cf 91       	pop	r28
    2472:	08 95       	ret

00002474 <CheckResponse>:

//Send another part of the response and play the effect afterwards
uint8_t CheckResponse(){
    2474:	cf 93       	push	r28
    2476:	df 93       	push	r29
    static uint8_t number = 0;
    if (responseList){
    2478:	c0 91 1c 39 	lds	r28, 0x391C	; 0x80391c <responseList>
    247c:	cc 23       	and	r28, r28
    247e:	e9 f1       	breq	.+122    	; 0x24fa <CheckResponse+0x86>
        --responseList;
    2480:	c1 50       	subi	r28, 0x01	; 1
    2482:	c0 93 1c 39 	sts	0x391C, r28	; 0x80391c <responseList>
        if (reactStr[0][number] == CURR_LOC) {
    2486:	d0 91 07 39 	lds	r29, 0x3907	; 0x803907 <number.3954>
    248a:	2d 2f       	mov	r18, r29
    248c:	30 e0       	ldi	r19, 0x00	; 0
    248e:	f9 01       	movw	r30, r18
    2490:	ee 0f       	add	r30, r30
    2492:	ff 1f       	adc	r31, r31
    2494:	e3 5e       	subi	r30, 0xE3	; 227
    2496:	f6 4c       	sbci	r31, 0xC6	; 198
    2498:	80 81       	ld	r24, Z
    249a:	91 81       	ldd	r25, Z+1	; 0x01
    249c:	80 3f       	cpi	r24, 0xF0	; 240
    249e:	4f ef       	ldi	r20, 0xFF	; 255
    24a0:	94 07       	cpc	r25, r20
    24a2:	51 f4       	brne	.+20     	; 0x24b8 <CheckResponse+0x44>
            PrepareSending(currObj.addrStr[NAME], currObj.lenStr[NAME], GAME);
    24a4:	60 91 37 3a 	lds	r22, 0x3A37	; 0x803a37 <currObj+0x1a>
    24a8:	70 91 38 3a 	lds	r23, 0x3A38	; 0x803a38 <currObj+0x1b>
    24ac:	40 e0       	ldi	r20, 0x00	; 0
    24ae:	80 91 29 3a 	lds	r24, 0x3A29	; 0x803a29 <currObj+0xc>
    24b2:	90 91 2a 3a 	lds	r25, 0x3A2A	; 0x803a2a <currObj+0xd>
    24b6:	0d c0       	rjmp	.+26     	; 0x24d2 <CheckResponse+0x5e>
        } else {
            PrepareSending(reactStr[0][number], reactStr[1][number], reactStr[2][number]);
    24b8:	d9 01       	movw	r26, r18
    24ba:	aa 0f       	add	r26, r26
    24bc:	bb 1f       	adc	r27, r27
    24be:	a3 56       	subi	r26, 0x63	; 99
    24c0:	b6 4c       	sbci	r27, 0xC6	; 198
    24c2:	22 0f       	add	r18, r18
    24c4:	33 1f       	adc	r19, r19
    24c6:	f9 01       	movw	r30, r18
    24c8:	e3 5a       	subi	r30, 0xA3	; 163
    24ca:	f6 4c       	sbci	r31, 0xC6	; 198
    24cc:	60 81       	ld	r22, Z
    24ce:	71 81       	ldd	r23, Z+1	; 0x01
    24d0:	4c 91       	ld	r20, X
    24d2:	58 dd       	rcall	.-1360   	; 0x1f84 <PrepareSending>
        }
        ++number;
    24d4:	df 5f       	subi	r29, 0xFF	; 255
    24d6:	d0 93 07 39 	sts	0x3907, r29	; 0x803907 <number.3954>

        if (responseList == 0) {
    24da:	c1 11       	cpse	r28, r1
    24dc:	0d c0       	rjmp	.+26     	; 0x24f8 <CheckResponse+0x84>
            effect = currObj.byteField[EFFECTS];
    24de:	80 91 21 3a 	lds	r24, 0x3A21	; 0x803a21 <currObj+0x4>
    24e2:	90 e0       	ldi	r25, 0x00	; 0
    24e4:	80 93 3a 38 	sts	0x383A, r24	; 0x80383a <effect>
    24e8:	90 93 3b 38 	sts	0x383B, r25	; 0x80383b <effect+0x1>
            RXCNT = 0;
    24ec:	1d ba       	out	0x1d, r1	; 29
            serRxDone = 0;
    24ee:	10 92 44 38 	sts	0x3844, r1	; 0x803844 <serRxDone>
            number = 0;
    24f2:	10 92 07 39 	sts	0x3907, r1	; 0x803907 <number.3954>
    24f6:	01 c0       	rjmp	.+2      	; 0x24fa <CheckResponse+0x86>
            return 0;
        }
        return 1;
    24f8:	c1 e0       	ldi	r28, 0x01	; 1
    }
    return 0;
}
    24fa:	8c 2f       	mov	r24, r28
    24fc:	df 91       	pop	r29
    24fe:	cf 91       	pop	r28
    2500:	08 95       	ret

00002502 <CheckInput>:

//User input check (and validation)
uint8_t CheckInput(uint8_t *data){
    2502:	3f 92       	push	r3
    2504:	4f 92       	push	r4
    2506:	5f 92       	push	r5
    2508:	6f 92       	push	r6
    250a:	7f 92       	push	r7
    250c:	8f 92       	push	r8
    250e:	9f 92       	push	r9
    2510:	af 92       	push	r10
    2512:	bf 92       	push	r11
    2514:	cf 92       	push	r12
    2516:	df 92       	push	r13
    2518:	ef 92       	push	r14
    251a:	ff 92       	push	r15
    251c:	0f 93       	push	r16
    251e:	1f 93       	push	r17
    2520:	cf 93       	push	r28
    2522:	df 93       	push	r29
    2524:	cd b7       	in	r28, 0x3d	; 61
    2526:	de b7       	in	r29, 0x3e	; 62
    2528:	a1 97       	sbiw	r28, 0x21	; 33
    252a:	cd bf       	out	0x3d, r28	; 61
    252c:	de bf       	out	0x3e, r29	; 62
    252e:	8c 01       	movw	r16, r24
    
    //Load game data after reboot
    if (currDepth == 0xff) {
    2530:	80 91 2c 38 	lds	r24, 0x382C	; 0x80382c <currDepth>
    2534:	8f 3f       	cpi	r24, 0xFF	; 255
    2536:	49 f4       	brne	.+18     	; 0x254a <CheckInput+0x48>
        //Start at first location
        PopulateObject(route[0], &currObj);
    2538:	6d e1       	ldi	r22, 0x1D	; 29
    253a:	7a e3       	ldi	r23, 0x3A	; 58
    253c:	80 91 dd 39 	lds	r24, 0x39DD	; 0x8039dd <route>
    2540:	90 91 de 39 	lds	r25, 0x39DE	; 0x8039de <route+0x1>
    2544:	d3 dd       	rcall	.-1114   	; 0x20ec <PopulateObject>
        currDepth = 0;
    2546:	10 92 2c 38 	sts	0x382C, r1	; 0x80382c <currDepth>
    }

    if (serRxDone){
    254a:	80 91 44 38 	lds	r24, 0x3844	; 0x803844 <serRxDone>
    254e:	88 23       	and	r24, r24
    2550:	09 f4       	brne	.+2      	; 0x2554 <CheckInput+0x52>
    2552:	6e c2       	rjmp	.+1244   	; 0x2a30 <CheckInput+0x52e>

        //Special input requested from user by game
        if (specialInput[0]){
    2554:	80 91 0c 39 	lds	r24, 0x390C	; 0x80390c <specialInput>
    2558:	88 23       	and	r24, r24
    255a:	09 f4       	brne	.+2      	; 0x255e <CheckInput+0x5c>
    255c:	57 c0       	rjmp	.+174    	; 0x260c <CheckInput+0x10a>
            specialPassed = 0;
    255e:	10 92 0b 39 	sts	0x390B, r1	; 0x80390b <specialPassed>
            data[0] = 'a';
    2562:	81 e6       	ldi	r24, 0x61	; 97
    2564:	f8 01       	movw	r30, r16
    2566:	80 83       	st	Z, r24
            
            //Normal code challenge
            if (StartsWith((uint8_t *)&serRx[0], &specialInput[0])) {
    2568:	6c e0       	ldi	r22, 0x0C	; 12
    256a:	79 e3       	ldi	r23, 0x39	; 57
    256c:	87 e7       	ldi	r24, 0x77	; 119
    256e:	9a e3       	ldi	r25, 0x3A	; 58
    2570:	ef dc       	rcall	.-1570   	; 0x1f50 <StartsWith>
    2572:	f8 2e       	mov	r15, r24
    2574:	88 23       	and	r24, r24
    2576:	21 f0       	breq	.+8      	; 0x2580 <CheckInput+0x7e>
                specialPassed = 1;
    2578:	81 e0       	ldi	r24, 0x01	; 1
    257a:	80 93 0b 39 	sts	0x390B, r24	; 0x80390b <specialPassed>
    257e:	04 c0       	rjmp	.+8      	; 0x2588 <CheckInput+0x86>
                //specialInput[0] = 0;
                //data[1] = 0;

            //Special challenge 1
            } else if ((specialInput[0] == '1')&&(specialInput[2] == 0)) {
    2580:	80 91 0c 39 	lds	r24, 0x390C	; 0x80390c <specialInput>
    2584:	81 33       	cpi	r24, 0x31	; 49
    2586:	11 f0       	breq	.+4      	; 0x258c <CheckInput+0x8a>
                responseList = 32;
                return 1;
            }
        } 
        //Data received, but not any of the commands above
        return 0;
    2588:	f1 2c       	mov	r15, r1
    258a:	54 c2       	rjmp	.+1192   	; 0x2a34 <CheckInput+0x532>
                specialPassed = 1;
                //specialInput[0] = 0;
                //data[1] = 0;

            //Special challenge 1
            } else if ((specialInput[0] == '1')&&(specialInput[2] == 0)) {
    258c:	80 91 0e 39 	lds	r24, 0x390E	; 0x80390e <specialInput+0x2>
    2590:	81 11       	cpse	r24, r1
    2592:	fa cf       	rjmp	.-12     	; 0x2588 <CheckInput+0x86>
                uint8_t inputLen = CleanInput((uint8_t *)&serRx[0]);
    2594:	87 e7       	ldi	r24, 0x77	; 119
    2596:	9a e3       	ldi	r25, 0x3A	; 58
    2598:	dc de       	rcall	.-584    	; 0x2352 <CleanInput>
                specialPassed = 2;
    259a:	92 e0       	ldi	r25, 0x02	; 2
    259c:	90 93 0b 39 	sts	0x390B, r25	; 0x80390b <specialPassed>
                data[1] = 0;
    25a0:	f8 01       	movw	r30, r16
    25a2:	11 82       	std	Z+1, r1	; 0x01

                if (inputLen >= 2) {
    25a4:	82 30       	cpi	r24, 0x02	; 2
    25a6:	80 f3       	brcs	.-32     	; 0x2588 <CheckInput+0x86>
                    if ((serRx[0] == '1')||(serRx[0] == '2')||(serRx[0] == '3')||(serRx[0] == '4')) {
    25a8:	80 91 77 3a 	lds	r24, 0x3A77	; 0x803a77 <serRx>
    25ac:	81 33       	cpi	r24, 0x31	; 49
    25ae:	61 f0       	breq	.+24     	; 0x25c8 <CheckInput+0xc6>
    25b0:	80 91 77 3a 	lds	r24, 0x3A77	; 0x803a77 <serRx>
    25b4:	82 33       	cpi	r24, 0x32	; 50
    25b6:	41 f0       	breq	.+16     	; 0x25c8 <CheckInput+0xc6>
    25b8:	80 91 77 3a 	lds	r24, 0x3A77	; 0x803a77 <serRx>
    25bc:	83 33       	cpi	r24, 0x33	; 51
    25be:	21 f0       	breq	.+8      	; 0x25c8 <CheckInput+0xc6>
    25c0:	80 91 77 3a 	lds	r24, 0x3A77	; 0x803a77 <serRx>
    25c4:	84 33       	cpi	r24, 0x34	; 52
    25c6:	01 f7       	brne	.-64     	; 0x2588 <CheckInput+0x86>
                        serRx[1] |= 0x20;
    25c8:	80 91 78 3a 	lds	r24, 0x3A78	; 0x803a78 <serRx+0x1>
    25cc:	80 62       	ori	r24, 0x20	; 32
    25ce:	80 93 78 3a 	sts	0x3A78, r24	; 0x803a78 <serRx+0x1>
                        if ((serRx[1] == 'a')||(serRx[1] == 'e')||(serRx[1] == 'f')||(serRx[1] == 'w')) {
    25d2:	80 91 78 3a 	lds	r24, 0x3A78	; 0x803a78 <serRx+0x1>
    25d6:	81 36       	cpi	r24, 0x61	; 97
    25d8:	61 f0       	breq	.+24     	; 0x25f2 <CheckInput+0xf0>
    25da:	80 91 78 3a 	lds	r24, 0x3A78	; 0x803a78 <serRx+0x1>
    25de:	85 36       	cpi	r24, 0x65	; 101
    25e0:	41 f0       	breq	.+16     	; 0x25f2 <CheckInput+0xf0>
    25e2:	80 91 78 3a 	lds	r24, 0x3A78	; 0x803a78 <serRx+0x1>
    25e6:	86 36       	cpi	r24, 0x66	; 102
    25e8:	21 f0       	breq	.+8      	; 0x25f2 <CheckInput+0xf0>
    25ea:	80 91 78 3a 	lds	r24, 0x3A78	; 0x803a78 <serRx+0x1>
    25ee:	87 37       	cpi	r24, 0x77	; 119
    25f0:	59 f6       	brne	.-106    	; 0x2588 <CheckInput+0x86>
                            data[1] = specialInput[1]+0x11;
    25f2:	80 91 0d 39 	lds	r24, 0x390D	; 0x80390d <specialInput+0x1>
    25f6:	8f 5e       	subi	r24, 0xEF	; 239
    25f8:	f8 01       	movw	r30, r16
    25fa:	81 83       	std	Z+1, r24	; 0x01
                            data[2] = serRx[0];
    25fc:	80 91 77 3a 	lds	r24, 0x3A77	; 0x803a77 <serRx>
    2600:	82 83       	std	Z+2, r24	; 0x02
                            data[3] = serRx[1];
    2602:	80 91 78 3a 	lds	r24, 0x3A78	; 0x803a78 <serRx+0x1>
    2606:	83 83       	std	Z+3, r24	; 0x03
                            data[4] = 0;
    2608:	14 82       	std	Z+4, r1	; 0x04
    260a:	14 c2       	rjmp	.+1064   	; 0x2a34 <CheckInput+0x532>
        
        //Normal input
        } else {

            //Change status bit
            if ((serRx[0] == '#')&&(RXCNT == 6)){
    260c:	80 91 77 3a 	lds	r24, 0x3A77	; 0x803a77 <serRx>
    2610:	83 32       	cpi	r24, 0x23	; 35
    2612:	89 f5       	brne	.+98     	; 0x2676 <CheckInput+0x174>
    2614:	8d b3       	in	r24, 0x1d	; 29
    2616:	86 30       	cpi	r24, 0x06	; 6
    2618:	71 f5       	brne	.+92     	; 0x2676 <CheckInput+0x174>
    261a:	81 e0       	ldi	r24, 0x01	; 1
    261c:	90 e0       	ldi	r25, 0x00	; 0
    261e:	10 e0       	ldi	r17, 0x00	; 0
                uint8_t bitNr = 0;

                for (uint8_t x=1; x<4; ++x) {
                    serRx[x] -= '0';
    2620:	fc 01       	movw	r30, r24
    2622:	e9 58       	subi	r30, 0x89	; 137
    2624:	f5 4c       	sbci	r31, 0xC5	; 197
    2626:	20 81       	ld	r18, Z
    2628:	20 53       	subi	r18, 0x30	; 48
    262a:	20 83       	st	Z, r18
                    bitNr *= 10;
    262c:	11 0f       	add	r17, r17
    262e:	21 2f       	mov	r18, r17
    2630:	22 0f       	add	r18, r18
    2632:	22 0f       	add	r18, r18
    2634:	12 0f       	add	r17, r18
                    if (serRx[1] > 2) break;
    2636:	20 91 78 3a 	lds	r18, 0x3A78	; 0x803a78 <serRx+0x1>
    263a:	23 30       	cpi	r18, 0x03	; 3
    263c:	48 f4       	brcc	.+18     	; 0x2650 <CheckInput+0x14e>
                    if (serRx[x] < 10) {
    263e:	20 81       	ld	r18, Z
    2640:	2a 30       	cpi	r18, 0x0A	; 10
    2642:	b8 f4       	brcc	.+46     	; 0x2672 <CheckInput+0x170>
                        bitNr += serRx[x];
    2644:	20 81       	ld	r18, Z
    2646:	12 0f       	add	r17, r18
    2648:	01 96       	adiw	r24, 0x01	; 1

            //Change status bit
            if ((serRx[0] == '#')&&(RXCNT == 6)){
                uint8_t bitNr = 0;

                for (uint8_t x=1; x<4; ++x) {
    264a:	84 30       	cpi	r24, 0x04	; 4
    264c:	91 05       	cpc	r25, r1
    264e:	41 f7       	brne	.-48     	; 0x2620 <CheckInput+0x11e>
                        continue;
                    }
                    bitNr = 0;
                    break;
                }
                if ((bitNr)&&(bitNr!=128)) {
    2650:	81 2f       	mov	r24, r17
    2652:	8f 77       	andi	r24, 0x7F	; 127
    2654:	71 f0       	breq	.+28     	; 0x2672 <CheckInput+0x170>
                    if (Cheat(0xff-bitNr, serRx[4]<<8|serRx[5])) UpdateState(bitNr);
    2656:	80 91 7b 3a 	lds	r24, 0x3A7B	; 0x803a7b <serRx+0x4>
    265a:	60 91 7c 3a 	lds	r22, 0x3A7C	; 0x803a7c <serRx+0x5>
    265e:	70 e0       	ldi	r23, 0x00	; 0
    2660:	78 2b       	or	r23, r24
    2662:	81 2f       	mov	r24, r17
    2664:	80 95       	com	r24
    2666:	d4 db       	rcall	.-2136   	; 0x1e10 <Cheat>
    2668:	88 23       	and	r24, r24
    266a:	19 f0       	breq	.+6      	; 0x2672 <CheckInput+0x170>
    266c:	81 2f       	mov	r24, r17
    266e:	0e 94 a7 0a 	call	0x154e	; 0x154e <UpdateState>
                }
                responseList = SetStandardResponse(0);
    2672:	80 e0       	ldi	r24, 0x00	; 0
    2674:	50 c0       	rjmp	.+160    	; 0x2716 <CheckInput+0x214>
    2676:	d8 01       	movw	r26, r16
    2678:	80 e0       	ldi	r24, 0x00	; 0
    267a:	90 e0       	ldi	r25, 0x00	; 0
                return 1;            
            }
            
            //Read up to the \0 character and convert to lower case.
            for (uint8_t x=0; x<RXLEN; ++x){
                if ((serRx[x]<'A')||(serRx[x]>'Z')) data[x]=serRx[x]; else data[x]=serRx[x]|0x20;
    267c:	fc 01       	movw	r30, r24
    267e:	e9 58       	subi	r30, 0x89	; 137
    2680:	f5 4c       	sbci	r31, 0xC5	; 197
    2682:	20 81       	ld	r18, Z
    2684:	21 34       	cpi	r18, 0x41	; 65
    2686:	18 f0       	brcs	.+6      	; 0x268e <CheckInput+0x18c>
    2688:	20 81       	ld	r18, Z
    268a:	2b 35       	cpi	r18, 0x5B	; 91
    268c:	10 f0       	brcs	.+4      	; 0x2692 <CheckInput+0x190>
    268e:	20 81       	ld	r18, Z
    2690:	02 c0       	rjmp	.+4      	; 0x2696 <CheckInput+0x194>
    2692:	20 81       	ld	r18, Z
    2694:	20 62       	ori	r18, 0x20	; 32
    2696:	2c 93       	st	X, r18
                if (serRx[x] == 0) {
    2698:	20 81       	ld	r18, Z
    269a:	21 11       	cpse	r18, r1
    269c:	05 c0       	rjmp	.+10     	; 0x26a8 <CheckInput+0x1a6>
                    data[x] = 0;
    269e:	f8 01       	movw	r30, r16
    26a0:	e8 0f       	add	r30, r24
    26a2:	f1 1d       	adc	r31, r1
    26a4:	10 82       	st	Z, r1
                    break;
    26a6:	05 c0       	rjmp	.+10     	; 0x26b2 <CheckInput+0x1b0>
    26a8:	01 96       	adiw	r24, 0x01	; 1
    26aa:	11 96       	adiw	r26, 0x01	; 1
                responseList = SetStandardResponse(0);
                return 1;            
            }
            
            //Read up to the \0 character and convert to lower case.
            for (uint8_t x=0; x<RXLEN; ++x){
    26ac:	81 34       	cpi	r24, 0x41	; 65
    26ae:	91 05       	cpc	r25, r1
    26b0:	29 f7       	brne	.-54     	; 0x267c <CheckInput+0x17a>
                    break;
                }
            }

            //No text
            if (serRx[0] == 0){
    26b2:	80 91 77 3a 	lds	r24, 0x3A77	; 0x803a77 <serRx>
                data[0] = 0;
    26b6:	f8 01       	movw	r30, r16
                    break;
                }
            }

            //No text
            if (serRx[0] == 0){
    26b8:	81 11       	cpse	r24, r1
    26ba:	05 c0       	rjmp	.+10     	; 0x26c6 <CheckInput+0x1c4>
                data[0] = 0;
    26bc:	10 82       	st	Z, r1
                RXCNT = 0;
    26be:	1d ba       	out	0x1d, r1	; 29
                serRxDone = 0;
    26c0:	10 92 44 38 	sts	0x3844, r1	; 0x803844 <serRxDone>
    26c4:	b5 c1       	rjmp	.+874    	; 0x2a30 <CheckInput+0x52e>
                return 1;
            }

            //Help text
            if ((data[0] == '?')||(data[0] == 'h')){
    26c6:	80 81       	ld	r24, Z
    26c8:	8f 33       	cpi	r24, 0x3F	; 63
    26ca:	11 f0       	breq	.+4      	; 0x26d0 <CheckInput+0x1ce>
    26cc:	88 36       	cpi	r24, 0x68	; 104
    26ce:	39 f5       	brne	.+78     	; 0x271e <CheckInput+0x21c>
    return 0;
}

//
void SetResponse(uint8_t number, uint16_t address, uint16_t length, uint8_t type){
    reactStr[0][number]=address;
    26d0:	8b e5       	ldi	r24, 0x5B	; 91
    26d2:	9a e7       	ldi	r25, 0x7A	; 122
    26d4:	80 93 1d 39 	sts	0x391D, r24	; 0x80391d <reactStr>
    26d8:	90 93 1e 39 	sts	0x391E, r25	; 0x80391e <reactStr+0x1>
    reactStr[1][number]=length;
    26dc:	84 e0       	ldi	r24, 0x04	; 4
    26de:	90 e0       	ldi	r25, 0x00	; 0
    26e0:	80 93 5d 39 	sts	0x395D, r24	; 0x80395d <reactStr+0x40>
    26e4:	90 93 5e 39 	sts	0x395E, r25	; 0x80395e <reactStr+0x41>
    reactStr[2][number]=type;
    26e8:	81 e0       	ldi	r24, 0x01	; 1
    26ea:	90 e0       	ldi	r25, 0x00	; 0
    26ec:	80 93 9d 39 	sts	0x399D, r24	; 0x80399d <reactStr+0x80>
    26f0:	90 93 9e 39 	sts	0x399E, r25	; 0x80399e <reactStr+0x81>
    return 0;
}

//
void SetResponse(uint8_t number, uint16_t address, uint16_t length, uint8_t type){
    reactStr[0][number]=address;
    26f4:	23 e9       	ldi	r18, 0x93	; 147
    26f6:	3b e7       	ldi	r19, 0x7B	; 123
    26f8:	20 93 1f 39 	sts	0x391F, r18	; 0x80391f <reactStr+0x2>
    26fc:	30 93 20 39 	sts	0x3920, r19	; 0x803920 <reactStr+0x3>
    reactStr[1][number]=length;
    2700:	2d e6       	ldi	r18, 0x6D	; 109
    2702:	34 e0       	ldi	r19, 0x04	; 4
    2704:	20 93 5f 39 	sts	0x395F, r18	; 0x80395f <reactStr+0x42>
    2708:	30 93 60 39 	sts	0x3960, r19	; 0x803960 <reactStr+0x43>
    reactStr[2][number]=type;
    270c:	80 93 9f 39 	sts	0x399F, r24	; 0x80399f <reactStr+0x82>
    2710:	90 93 a0 39 	sts	0x39A0, r25	; 0x8039a0 <reactStr+0x83>

            //Help text
            if ((data[0] == '?')||(data[0] == 'h')){
                SetResponse(0, A_LF, 4, TEASER);
                SetResponse(1, A_HELP, L_HELP, TEASER);
                responseList = SetStandardResponse(2);
    2714:	82 e0       	ldi	r24, 0x02	; 2
    2716:	6e dc       	rcall	.-1828   	; 0x1ff4 <SetStandardResponse>
    2718:	80 93 1c 39 	sts	0x391C, r24	; 0x80391c <responseList>
    271c:	89 c1       	rjmp	.+786    	; 0x2a30 <CheckInput+0x52e>
                return 1;
            }        
        
            //Alphabet text
            if (data[0] == 'a'){
    271e:	81 36       	cpi	r24, 0x61	; 97
    2720:	d9 f4       	brne	.+54     	; 0x2758 <CheckInput+0x256>
    return 0;
}

//
void SetResponse(uint8_t number, uint16_t address, uint16_t length, uint8_t type){
    reactStr[0][number]=address;
    2722:	8b e5       	ldi	r24, 0x5B	; 91
    2724:	9a e7       	ldi	r25, 0x7A	; 122
    2726:	80 93 1d 39 	sts	0x391D, r24	; 0x80391d <reactStr>
    272a:	90 93 1e 39 	sts	0x391E, r25	; 0x80391e <reactStr+0x1>
    reactStr[1][number]=length;
    272e:	84 e0       	ldi	r24, 0x04	; 4
    2730:	90 e0       	ldi	r25, 0x00	; 0
    2732:	80 93 5d 39 	sts	0x395D, r24	; 0x80395d <reactStr+0x40>
    2736:	90 93 5e 39 	sts	0x395E, r25	; 0x80395e <reactStr+0x41>
    reactStr[2][number]=type;
    273a:	81 e0       	ldi	r24, 0x01	; 1
    273c:	90 e0       	ldi	r25, 0x00	; 0
    273e:	80 93 9d 39 	sts	0x399D, r24	; 0x80399d <reactStr+0x80>
    2742:	90 93 9e 39 	sts	0x399E, r25	; 0x80399e <reactStr+0x81>
    return 0;
}

//
void SetResponse(uint8_t number, uint16_t address, uint16_t length, uint8_t type){
    reactStr[0][number]=address;
    2746:	2e e6       	ldi	r18, 0x6E	; 110
    2748:	3a e7       	ldi	r19, 0x7A	; 122
    274a:	20 93 1f 39 	sts	0x391F, r18	; 0x80391f <reactStr+0x2>
    274e:	30 93 20 39 	sts	0x3920, r19	; 0x803920 <reactStr+0x3>
    reactStr[1][number]=length;
    2752:	25 e2       	ldi	r18, 0x25	; 37
    2754:	31 e0       	ldi	r19, 0x01	; 1
    2756:	d6 cf       	rjmp	.-84     	; 0x2704 <CheckInput+0x202>
                responseList = SetStandardResponse(2);
                return 1;
            }

            //Whoami text
            if (data[0] == 'w'){
    2758:	87 37       	cpi	r24, 0x77	; 119
    275a:	09 f0       	breq	.+2      	; 0x275e <CheckInput+0x25c>
    275c:	6e c0       	rjmp	.+220    	; 0x283a <CheckInput+0x338>
    return 0;
}

//
void SetResponse(uint8_t number, uint16_t address, uint16_t length, uint8_t type){
    reactStr[0][number]=address;
    275e:	8b e5       	ldi	r24, 0x5B	; 91
    2760:	9a e7       	ldi	r25, 0x7A	; 122
    2762:	80 93 1d 39 	sts	0x391D, r24	; 0x80391d <reactStr>
    2766:	90 93 1e 39 	sts	0x391E, r25	; 0x80391e <reactStr+0x1>
    reactStr[1][number]=length;
    276a:	84 e0       	ldi	r24, 0x04	; 4
    276c:	90 e0       	ldi	r25, 0x00	; 0
    276e:	80 93 5d 39 	sts	0x395D, r24	; 0x80395d <reactStr+0x40>
    2772:	90 93 5e 39 	sts	0x395E, r25	; 0x80395e <reactStr+0x41>
    reactStr[2][number]=type;
    2776:	21 e0       	ldi	r18, 0x01	; 1
    2778:	30 e0       	ldi	r19, 0x00	; 0
    277a:	20 93 9d 39 	sts	0x399D, r18	; 0x80399d <reactStr+0x80>
    277e:	30 93 9e 39 	sts	0x399E, r19	; 0x80399e <reactStr+0x81>
    return 0;
}

//
void SetResponse(uint8_t number, uint16_t address, uint16_t length, uint8_t type){
    reactStr[0][number]=address;
    2782:	8a ec       	ldi	r24, 0xCA	; 202
    2784:	96 e7       	ldi	r25, 0x76	; 118
    2786:	80 93 1f 39 	sts	0x391F, r24	; 0x80391f <reactStr+0x2>
    278a:	90 93 20 39 	sts	0x3920, r25	; 0x803920 <reactStr+0x3>
    reactStr[1][number]=length;
    278e:	82 e1       	ldi	r24, 0x12	; 18
    2790:	90 e0       	ldi	r25, 0x00	; 0
    2792:	80 93 5f 39 	sts	0x395F, r24	; 0x80395f <reactStr+0x42>
    2796:	90 93 60 39 	sts	0x3960, r25	; 0x803960 <reactStr+0x43>
    reactStr[2][number]=type;
    279a:	20 93 9f 39 	sts	0x399F, r18	; 0x80399f <reactStr+0x82>
    279e:	30 93 a0 39 	sts	0x39A0, r19	; 0x8039a0 <reactStr+0x83>

            //Whoami text
            if (data[0] == 'w'){
                SetResponse(0, A_LF, 4, TEASER);
                SetResponse(1, A_HELLO, L_HELLO, TEASER);
                if (whoami == 1) {
    27a2:	80 91 3d 38 	lds	r24, 0x383D	; 0x80383d <whoami>
    27a6:	81 30       	cpi	r24, 0x01	; 1
    27a8:	19 f4       	brne	.+6      	; 0x27b0 <CheckInput+0x2ae>
    return 0;
}

//
void SetResponse(uint8_t number, uint16_t address, uint16_t length, uint8_t type){
    reactStr[0][number]=address;
    27aa:	84 ec       	ldi	r24, 0xC4	; 196
    27ac:	96 e7       	ldi	r25, 0x76	; 118
    27ae:	0f c0       	rjmp	.+30     	; 0x27ce <CheckInput+0x2cc>
            if (data[0] == 'w'){
                SetResponse(0, A_LF, 4, TEASER);
                SetResponse(1, A_HELLO, L_HELLO, TEASER);
                if (whoami == 1) {
                    SetResponse(2, A_ANUBIS, L_ANUBIS, TEASER);
                } else if (whoami == 2) {
    27b0:	82 30       	cpi	r24, 0x02	; 2
    27b2:	49 f4       	brne	.+18     	; 0x27c6 <CheckInput+0x2c4>
    return 0;
}

//
void SetResponse(uint8_t number, uint16_t address, uint16_t length, uint8_t type){
    reactStr[0][number]=address;
    27b4:	81 ec       	ldi	r24, 0xC1	; 193
    27b6:	96 e7       	ldi	r25, 0x76	; 118
    27b8:	80 93 21 39 	sts	0x3921, r24	; 0x803921 <reactStr+0x4>
    27bc:	90 93 22 39 	sts	0x3922, r25	; 0x803922 <reactStr+0x5>
    reactStr[1][number]=length;
    27c0:	83 e0       	ldi	r24, 0x03	; 3
    27c2:	90 e0       	ldi	r25, 0x00	; 0
    27c4:	1e c0       	rjmp	.+60     	; 0x2802 <CheckInput+0x300>
                SetResponse(1, A_HELLO, L_HELLO, TEASER);
                if (whoami == 1) {
                    SetResponse(2, A_ANUBIS, L_ANUBIS, TEASER);
                } else if (whoami == 2) {
                    SetResponse(2, A_BES, L_BES, TEASER);
                } else if (whoami == 3) {
    27c6:	83 30       	cpi	r24, 0x03	; 3
    27c8:	49 f4       	brne	.+18     	; 0x27dc <CheckInput+0x2da>
    return 0;
}

//
void SetResponse(uint8_t number, uint16_t address, uint16_t length, uint8_t type){
    reactStr[0][number]=address;
    27ca:	8b eb       	ldi	r24, 0xBB	; 187
    27cc:	96 e7       	ldi	r25, 0x76	; 118
    27ce:	80 93 21 39 	sts	0x3921, r24	; 0x803921 <reactStr+0x4>
    27d2:	90 93 22 39 	sts	0x3922, r25	; 0x803922 <reactStr+0x5>
    reactStr[1][number]=length;
    27d6:	86 e0       	ldi	r24, 0x06	; 6
    27d8:	90 e0       	ldi	r25, 0x00	; 0
    27da:	13 c0       	rjmp	.+38     	; 0x2802 <CheckInput+0x300>
                    SetResponse(2, A_ANUBIS, L_ANUBIS, TEASER);
                } else if (whoami == 2) {
                    SetResponse(2, A_BES, L_BES, TEASER);
                } else if (whoami == 3) {
                    SetResponse(2, A_KHONSU, L_KHONSU, TEASER);
                } else if (whoami == 4) {
    27dc:	84 30       	cpi	r24, 0x04	; 4
    27de:	49 f4       	brne	.+18     	; 0x27f2 <CheckInput+0x2f0>
    return 0;
}

//
void SetResponse(uint8_t number, uint16_t address, uint16_t length, uint8_t type){
    reactStr[0][number]=address;
    27e0:	86 eb       	ldi	r24, 0xB6	; 182
    27e2:	96 e7       	ldi	r25, 0x76	; 118
    27e4:	80 93 21 39 	sts	0x3921, r24	; 0x803921 <reactStr+0x4>
    27e8:	90 93 22 39 	sts	0x3922, r25	; 0x803922 <reactStr+0x5>
    reactStr[1][number]=length;
    27ec:	85 e0       	ldi	r24, 0x05	; 5
    27ee:	90 e0       	ldi	r25, 0x00	; 0
    27f0:	08 c0       	rjmp	.+16     	; 0x2802 <CheckInput+0x300>
    return 0;
}

//
void SetResponse(uint8_t number, uint16_t address, uint16_t length, uint8_t type){
    reactStr[0][number]=address;
    27f2:	8f e3       	ldi	r24, 0x3F	; 63
    27f4:	96 e7       	ldi	r25, 0x76	; 118
    27f6:	80 93 21 39 	sts	0x3921, r24	; 0x803921 <reactStr+0x4>
    27fa:	90 93 22 39 	sts	0x3922, r25	; 0x803922 <reactStr+0x5>
    reactStr[1][number]=length;
    27fe:	82 e4       	ldi	r24, 0x42	; 66
    2800:	90 e0       	ldi	r25, 0x00	; 0
    2802:	80 93 61 39 	sts	0x3961, r24	; 0x803961 <reactStr+0x44>
    2806:	90 93 62 39 	sts	0x3962, r25	; 0x803962 <reactStr+0x45>
    reactStr[2][number]=type;
    280a:	20 93 a1 39 	sts	0x39A1, r18	; 0x8039a1 <reactStr+0x84>
    280e:	30 93 a2 39 	sts	0x39A2, r19	; 0x8039a2 <reactStr+0x85>
    return 0;
}

//
void SetResponse(uint8_t number, uint16_t address, uint16_t length, uint8_t type){
    reactStr[0][number]=address;
    2812:	8c e9       	ldi	r24, 0x9C	; 156
    2814:	96 e7       	ldi	r25, 0x76	; 118
    2816:	80 93 23 39 	sts	0x3923, r24	; 0x803923 <reactStr+0x6>
    281a:	90 93 24 39 	sts	0x3924, r25	; 0x803924 <reactStr+0x7>
    reactStr[1][number]=length;
    281e:	8a e1       	ldi	r24, 0x1A	; 26
    2820:	90 e0       	ldi	r25, 0x00	; 0
    2822:	80 93 63 39 	sts	0x3963, r24	; 0x803963 <reactStr+0x46>
    2826:	90 93 64 39 	sts	0x3964, r25	; 0x803964 <reactStr+0x47>
    reactStr[2][number]=type;
    282a:	81 e0       	ldi	r24, 0x01	; 1
    282c:	90 e0       	ldi	r25, 0x00	; 0
    282e:	80 93 a3 39 	sts	0x39A3, r24	; 0x8039a3 <reactStr+0x86>
    2832:	90 93 a4 39 	sts	0x39A4, r25	; 0x8039a4 <reactStr+0x87>
                    SetResponse(2, A_THOTH, L_THOTH, TEASER);
                } else {
                    SetResponse(2, A_ERROR, L_ERROR, TEASER);
                }
                SetResponse(3, A_PLEASED, L_PLEASED, TEASER);
                responseList = SetStandardResponse(4);
    2836:	84 e0       	ldi	r24, 0x04	; 4
    2838:	6e cf       	rjmp	.-292    	; 0x2716 <CheckInput+0x214>
                return 1;
            }

            //Quit text
            if (data[0] == 'q'){
    283a:	81 37       	cpi	r24, 0x71	; 113
    283c:	d9 f4       	brne	.+54     	; 0x2874 <CheckInput+0x372>
    return 0;
}

//
void SetResponse(uint8_t number, uint16_t address, uint16_t length, uint8_t type){
    reactStr[0][number]=address;
    283e:	8b e5       	ldi	r24, 0x5B	; 91
    2840:	9a e7       	ldi	r25, 0x7A	; 122
    2842:	80 93 1d 39 	sts	0x391D, r24	; 0x80391d <reactStr>
    2846:	90 93 1e 39 	sts	0x391E, r25	; 0x80391e <reactStr+0x1>
    reactStr[1][number]=length;
    284a:	84 e0       	ldi	r24, 0x04	; 4
    284c:	90 e0       	ldi	r25, 0x00	; 0
    284e:	80 93 5d 39 	sts	0x395D, r24	; 0x80395d <reactStr+0x40>
    2852:	90 93 5e 39 	sts	0x395E, r25	; 0x80395e <reactStr+0x41>
    reactStr[2][number]=type;
    2856:	81 e0       	ldi	r24, 0x01	; 1
    2858:	90 e0       	ldi	r25, 0x00	; 0
    285a:	80 93 9d 39 	sts	0x399D, r24	; 0x80399d <reactStr+0x80>
    285e:	90 93 9e 39 	sts	0x399E, r25	; 0x80399e <reactStr+0x81>
    return 0;
}

//
void SetResponse(uint8_t number, uint16_t address, uint16_t length, uint8_t type){
    reactStr[0][number]=address;
    2862:	22 e0       	ldi	r18, 0x02	; 2
    2864:	3a e7       	ldi	r19, 0x7A	; 122
    2866:	20 93 1f 39 	sts	0x391F, r18	; 0x80391f <reactStr+0x2>
    286a:	30 93 20 39 	sts	0x3920, r19	; 0x803920 <reactStr+0x3>
    reactStr[1][number]=length;
    286e:	25 e5       	ldi	r18, 0x55	; 85
    2870:	30 e0       	ldi	r19, 0x00	; 0
                responseList = SetStandardResponse(2);
                return 1;
            }

            //Fake cheat = reset badge!
            if (StartsWith(&data[0], "iddqd")){
    2872:	48 cf       	rjmp	.-368    	; 0x2704 <CheckInput+0x202>
    2874:	6c eb       	ldi	r22, 0xBC	; 188
    2876:	7e eb       	ldi	r23, 0xBE	; 190
    2878:	c8 01       	movw	r24, r16
    287a:	6a db       	rcall	.-2348   	; 0x1f50 <StartsWith>
    287c:	88 23       	and	r24, r24
    287e:	f9 f0       	breq	.+62     	; 0x28be <CheckInput+0x3bc>
    2880:	1e e6       	ldi	r17, 0x6E	; 110
            
                //Reset game data by wiping the UUID bits
                for (uint8_t x=0; x<4; ++x){
                    WriteStatusBit(110+x, 0);
    2882:	60 e0       	ldi	r22, 0x00	; 0
    2884:	81 2f       	mov	r24, r17
    2886:	0e 94 8d 0a 	call	0x151a	; 0x151a <WriteStatusBit>
    288a:	1f 5f       	subi	r17, 0xFF	; 255

            //Fake cheat = reset badge!
            if (StartsWith(&data[0], "iddqd")){
            
                //Reset game data by wiping the UUID bits
                for (uint8_t x=0; x<4; ++x){
    288c:	12 37       	cpi	r17, 0x72	; 114
    288e:	c9 f7       	brne	.-14     	; 0x2882 <CheckInput+0x380>
                    WriteStatusBit(110+x, 0);
                }
                SaveGameState();
    2890:	0e 94 06 0a 	call	0x140c	; 0x140c <SaveGameState>

                uint8_t cheat[] = "Cheater! Contact badge team... ";
    2894:	80 e2       	ldi	r24, 0x20	; 32
    2896:	ef ef       	ldi	r30, 0xFF	; 255
    2898:	fe eb       	ldi	r31, 0xBE	; 190
    289a:	de 01       	movw	r26, r28
    289c:	11 96       	adiw	r26, 0x01	; 1
    289e:	01 90       	ld	r0, Z+
    28a0:	0d 92       	st	X+, r0
    28a2:	8a 95       	dec	r24
    28a4:	e1 f7       	brne	.-8      	; 0x289e <CheckInput+0x39c>
                SerSpeed(60);
    28a6:	8c e3       	ldi	r24, 0x3C	; 60
    28a8:	0e 94 f8 08 	call	0x11f0	; 0x11f0 <SerSpeed>
                while(1){
                    if (serTxDone) SerSend(&cheat[0]);
    28ac:	80 91 0a 38 	lds	r24, 0x380A	; 0x80380a <serTxDone>
    28b0:	88 23       	and	r24, r24
    28b2:	e1 f3       	breq	.-8      	; 0x28ac <CheckInput+0x3aa>
    28b4:	ce 01       	movw	r24, r28
    28b6:	01 96       	adiw	r24, 0x01	; 1
    28b8:	0e 94 e7 08 	call	0x11ce	; 0x11ce <SerSend>
                }
            }
            
            //Cheat reset (Quote from: Donald E. Westlake)
            if (StartsWith(&data[0], "the trouble with real life is, there's no reset button")){
    28bc:	f7 cf       	rjmp	.-18     	; 0x28ac <CheckInput+0x3aa>
    28be:	62 ec       	ldi	r22, 0xC2	; 194
    28c0:	7e eb       	ldi	r23, 0xBE	; 190
    28c2:	c8 01       	movw	r24, r16
    28c4:	45 db       	rcall	.-2422   	; 0x1f50 <StartsWith>
    28c6:	88 23       	and	r24, r24
    28c8:	61 f1       	breq	.+88     	; 0x2922 <CheckInput+0x420>
                
                //Reset cheat data by resetting the EEPROM bytes
                uint8_t empty=0xff;
    28ca:	8f ef       	ldi	r24, 0xFF	; 255
    28cc:	89 a3       	std	Y+33, r24	; 0x21
    28ce:	18 e1       	ldi	r17, 0x18	; 24
                for (uint8_t x=0; x<MAX_CHEATS; ++x){
                    EEWrite(CHEATS+x, &empty, 1);
    28d0:	41 e0       	ldi	r20, 0x01	; 1
    28d2:	be 01       	movw	r22, r28
    28d4:	6f 5d       	subi	r22, 0xDF	; 223
    28d6:	7f 4f       	sbci	r23, 0xFF	; 255
    28d8:	81 2f       	mov	r24, r17
    28da:	0e 94 bf 08 	call	0x117e	; 0x117e <EEWrite>
    28de:	1f 5f       	subi	r17, 0xFF	; 255
            //Cheat reset (Quote from: Donald E. Westlake)
            if (StartsWith(&data[0], "the trouble with real life is, there's no reset button")){
                
                //Reset cheat data by resetting the EEPROM bytes
                uint8_t empty=0xff;
                for (uint8_t x=0; x<MAX_CHEATS; ++x){
    28e0:	10 32       	cpi	r17, 0x20	; 32
    28e2:	b1 f7       	brne	.-20     	; 0x28d0 <CheckInput+0x3ce>
    28e4:	1e e6       	ldi	r17, 0x6E	; 110
                    EEWrite(CHEATS+x, &empty, 1);
                }
                //Reset game data by wiping the UUID bits
                for (uint8_t x=0; x<4; ++x){
                    WriteStatusBit(110+x, 0);
    28e6:	60 e0       	ldi	r22, 0x00	; 0
    28e8:	81 2f       	mov	r24, r17
    28ea:	0e 94 8d 0a 	call	0x151a	; 0x151a <WriteStatusBit>
    28ee:	1f 5f       	subi	r17, 0xFF	; 255
                uint8_t empty=0xff;
                for (uint8_t x=0; x<MAX_CHEATS; ++x){
                    EEWrite(CHEATS+x, &empty, 1);
                }
                //Reset game data by wiping the UUID bits
                for (uint8_t x=0; x<4; ++x){
    28f0:	12 37       	cpi	r17, 0x72	; 114
    28f2:	c9 f7       	brne	.-14     	; 0x28e6 <CheckInput+0x3e4>
                    WriteStatusBit(110+x, 0);
                }
                
                SaveGameState();
    28f4:	0e 94 06 0a 	call	0x140c	; 0x140c <SaveGameState>

                uint8_t cheat[] = "Reset please! ";
    28f8:	8f e0       	ldi	r24, 0x0F	; 15
    28fa:	ef e1       	ldi	r30, 0x1F	; 31
    28fc:	ff eb       	ldi	r31, 0xBF	; 191
    28fe:	de 01       	movw	r26, r28
    2900:	11 96       	adiw	r26, 0x01	; 1
    2902:	01 90       	ld	r0, Z+
    2904:	0d 92       	st	X+, r0
    2906:	8a 95       	dec	r24
    2908:	e1 f7       	brne	.-8      	; 0x2902 <CheckInput+0x400>
                SerSpeed(60);
    290a:	8c e3       	ldi	r24, 0x3C	; 60
    290c:	0e 94 f8 08 	call	0x11f0	; 0x11f0 <SerSpeed>
                while(1){
                    if (serTxDone) SerSend(&cheat[0]);
    2910:	80 91 0a 38 	lds	r24, 0x380A	; 0x80380a <serTxDone>
    2914:	88 23       	and	r24, r24
    2916:	e1 f3       	breq	.-8      	; 0x2910 <CheckInput+0x40e>
    2918:	ce 01       	movw	r24, r28
    291a:	01 96       	adiw	r24, 0x01	; 1
    291c:	0e 94 e7 08 	call	0x11ce	; 0x11ce <SerSend>
                }
            }
            if (StartsWith(&data[0], "cheat")){
    2920:	f7 cf       	rjmp	.-18     	; 0x2910 <CheckInput+0x40e>
    2922:	69 ef       	ldi	r22, 0xF9	; 249
    2924:	7e eb       	ldi	r23, 0xBE	; 190
    2926:	c8 01       	movw	r24, r16
    2928:	13 db       	rcall	.-2522   	; 0x1f50 <StartsWith>
    292a:	88 23       	and	r24, r24
    292c:	09 f4       	brne	.+2      	; 0x2930 <CheckInput+0x42e>
    292e:	2c ce       	rjmp	.-936    	; 0x2588 <CheckInput+0x86>
    2930:	8d e1       	ldi	r24, 0x1D	; 29
    2932:	c8 2e       	mov	r12, r24
    2934:	89 e3       	ldi	r24, 0x39	; 57
    2936:	d8 2e       	mov	r13, r24
    2938:	9d e5       	ldi	r25, 0x5D	; 93
    293a:	e9 2e       	mov	r14, r25
    293c:	99 e3       	ldi	r25, 0x39	; 57
    293e:	f9 2e       	mov	r15, r25
    2940:	0d e9       	ldi	r16, 0x9D	; 157
    2942:	19 e3       	ldi	r17, 0x39	; 57
    2944:	28 e1       	ldi	r18, 0x18	; 24
    2946:	32 2e       	mov	r3, r18
    return 0;
}

//
void SetResponse(uint8_t number, uint16_t address, uint16_t length, uint8_t type){
    reactStr[0][number]=address;
    2948:	3a ed       	ldi	r19, 0xDA	; 218
    294a:	63 2e       	mov	r6, r19
    294c:	34 e7       	ldi	r19, 0x74	; 116
    294e:	73 2e       	mov	r7, r19
    reactStr[1][number]=length;
    2950:	42 e0       	ldi	r20, 0x02	; 2
    2952:	84 2e       	mov	r8, r20
    2954:	91 2c       	mov	r9, r1
    reactStr[2][number]=type;
    2956:	aa 24       	eor	r10, r10
    2958:	a3 94       	inc	r10
    295a:	b1 2c       	mov	r11, r1
    return 0;
}

//
void SetResponse(uint8_t number, uint16_t address, uint16_t length, uint8_t type){
    reactStr[0][number]=address;
    295c:	69 e5       	ldi	r22, 0x59	; 89
    295e:	46 2e       	mov	r4, r22
    2960:	6a e7       	ldi	r22, 0x7A	; 122
    2962:	56 2e       	mov	r5, r22
                uint8_t bit, digit[3];

                for (uint8_t x=0; x<MAX_CHEATS; ++x){
                    
                    //Set up sending out number
                    EERead(CHEATS+x, &bit, 1);
    2964:	41 e0       	ldi	r20, 0x01	; 1
    2966:	be 01       	movw	r22, r28
    2968:	6f 5d       	subi	r22, 0xDF	; 223
    296a:	7f 4f       	sbci	r23, 0xFF	; 255
    296c:	83 2d       	mov	r24, r3
    296e:	0e 94 af 08 	call	0x115e	; 0x115e <EERead>
                    bit = 0xff-bit;
    2972:	89 a1       	ldd	r24, Y+33	; 0x21
    2974:	80 95       	com	r24
    2976:	89 a3       	std	Y+33, r24	; 0x21
    return 0;
}

//
void SetResponse(uint8_t number, uint16_t address, uint16_t length, uint8_t type){
    reactStr[0][number]=address;
    2978:	f6 01       	movw	r30, r12
    297a:	60 82       	st	Z, r6
    297c:	71 82       	std	Z+1, r7	; 0x01
    reactStr[1][number]=length;
    297e:	f7 01       	movw	r30, r14
    2980:	80 82       	st	Z, r8
    2982:	91 82       	std	Z+1, r9	; 0x01
    reactStr[2][number]=type;
    2984:	f8 01       	movw	r30, r16
    2986:	a0 82       	st	Z, r10
    2988:	b1 82       	std	Z+1, r11	; 0x01
                    for (n=0; n<3; ++n) {
                        SetResponse(x*4+n, A_DIGITS+digit[n], 1, TEASER);
                    } 
                    */
                    SetResponse(x*4, A_HEXPREFIX, L_HEXPREFIX, TEASER);
                    SetResponse(x*4+1, A_DIGITS+digit[bit>>4], 1, TEASER);               
    298a:	98 2f       	mov	r25, r24
    298c:	92 95       	swap	r25
    298e:	9f 70       	andi	r25, 0x0F	; 15
    2990:	e1 e0       	ldi	r30, 0x01	; 1
    2992:	f0 e0       	ldi	r31, 0x00	; 0
    2994:	ec 0f       	add	r30, r28
    2996:	fd 1f       	adc	r31, r29
    2998:	e9 0f       	add	r30, r25
    299a:	f1 1d       	adc	r31, r1
    return 0;
}

//
void SetResponse(uint8_t number, uint16_t address, uint16_t length, uint8_t type){
    reactStr[0][number]=address;
    299c:	20 81       	ld	r18, Z
    299e:	30 e0       	ldi	r19, 0x00	; 0
    29a0:	26 53       	subi	r18, 0x36	; 54
    29a2:	3b 48       	sbci	r19, 0x8B	; 139
    29a4:	f6 01       	movw	r30, r12
    29a6:	22 83       	std	Z+2, r18	; 0x02
    29a8:	33 83       	std	Z+3, r19	; 0x03
    reactStr[1][number]=length;
    29aa:	f7 01       	movw	r30, r14
    29ac:	a2 82       	std	Z+2, r10	; 0x02
    29ae:	b3 82       	std	Z+3, r11	; 0x03
    reactStr[2][number]=type;
    29b0:	f8 01       	movw	r30, r16
    29b2:	a2 82       	std	Z+2, r10	; 0x02
    29b4:	b3 82       	std	Z+3, r11	; 0x03
                        SetResponse(x*4+n, A_DIGITS+digit[n], 1, TEASER);
                    } 
                    */
                    SetResponse(x*4, A_HEXPREFIX, L_HEXPREFIX, TEASER);
                    SetResponse(x*4+1, A_DIGITS+digit[bit>>4], 1, TEASER);               
                    SetResponse(x*4+2, A_DIGITS+digit[bit%16], 1, TEASER);
    29b6:	8f 70       	andi	r24, 0x0F	; 15
    29b8:	e1 e0       	ldi	r30, 0x01	; 1
    29ba:	f0 e0       	ldi	r31, 0x00	; 0
    29bc:	ec 0f       	add	r30, r28
    29be:	fd 1f       	adc	r31, r29
    29c0:	e8 0f       	add	r30, r24
    29c2:	f1 1d       	adc	r31, r1
    return 0;
}

//
void SetResponse(uint8_t number, uint16_t address, uint16_t length, uint8_t type){
    reactStr[0][number]=address;
    29c4:	80 81       	ld	r24, Z
    29c6:	90 e0       	ldi	r25, 0x00	; 0
    29c8:	86 53       	subi	r24, 0x36	; 54
    29ca:	9b 48       	sbci	r25, 0x8B	; 139
    29cc:	f6 01       	movw	r30, r12
    29ce:	84 83       	std	Z+4, r24	; 0x04
    29d0:	95 83       	std	Z+5, r25	; 0x05
    reactStr[1][number]=length;
    29d2:	f7 01       	movw	r30, r14
    29d4:	a4 82       	std	Z+4, r10	; 0x04
    29d6:	b5 82       	std	Z+5, r11	; 0x05
    reactStr[2][number]=type;
    29d8:	f8 01       	movw	r30, r16
    29da:	a4 82       	std	Z+4, r10	; 0x04
    29dc:	b5 82       	std	Z+5, r11	; 0x05
    return 0;
}

//
void SetResponse(uint8_t number, uint16_t address, uint16_t length, uint8_t type){
    reactStr[0][number]=address;
    29de:	f6 01       	movw	r30, r12
    29e0:	46 82       	std	Z+6, r4	; 0x06
    29e2:	57 82       	std	Z+7, r5	; 0x07
    reactStr[1][number]=length;
    29e4:	f7 01       	movw	r30, r14
    29e6:	86 82       	std	Z+6, r8	; 0x06
    29e8:	97 82       	std	Z+7, r9	; 0x07
    reactStr[2][number]=type;
    29ea:	f8 01       	movw	r30, r16
    29ec:	a6 82       	std	Z+6, r10	; 0x06
    29ee:	b7 82       	std	Z+7, r11	; 0x07
    29f0:	33 94       	inc	r3
    29f2:	f8 e0       	ldi	r31, 0x08	; 8
    29f4:	cf 0e       	add	r12, r31
    29f6:	d1 1c       	adc	r13, r1
    29f8:	88 e0       	ldi	r24, 0x08	; 8
    29fa:	e8 0e       	add	r14, r24
    29fc:	f1 1c       	adc	r15, r1
    29fe:	08 5f       	subi	r16, 0xF8	; 248
    2a00:	1f 4f       	sbci	r17, 0xFF	; 255
            }
            if (StartsWith(&data[0], "cheat")){
                //int8_t n;
                uint8_t bit, digit[3];

                for (uint8_t x=0; x<MAX_CHEATS; ++x){
    2a02:	e0 e2       	ldi	r30, 0x20	; 32
    2a04:	3e 12       	cpse	r3, r30
    2a06:	ae cf       	rjmp	.-164    	; 0x2964 <CheckInput+0x462>
    return 0;
}

//
void SetResponse(uint8_t number, uint16_t address, uint16_t length, uint8_t type){
    reactStr[0][number]=address;
    2a08:	8b e5       	ldi	r24, 0x5B	; 91
    2a0a:	9a e7       	ldi	r25, 0x7A	; 122
    2a0c:	80 93 5b 39 	sts	0x395B, r24	; 0x80395b <reactStr+0x3e>
    2a10:	90 93 5c 39 	sts	0x395C, r25	; 0x80395c <reactStr+0x3f>
    reactStr[1][number]=length;
    2a14:	84 e0       	ldi	r24, 0x04	; 4
    2a16:	90 e0       	ldi	r25, 0x00	; 0
    2a18:	80 93 9b 39 	sts	0x399B, r24	; 0x80399b <reactStr+0x7e>
    2a1c:	90 93 9c 39 	sts	0x399C, r25	; 0x80399c <reactStr+0x7f>
    reactStr[2][number]=type;
    2a20:	81 e0       	ldi	r24, 0x01	; 1
    2a22:	90 e0       	ldi	r25, 0x00	; 0
    2a24:	80 93 db 39 	sts	0x39DB, r24	; 0x8039db <reactStr+0xbe>
    2a28:	90 93 dc 39 	sts	0x39DC, r25	; 0x8039dc <reactStr+0xbf>
                    SetResponse(x*4+1, A_DIGITS+digit[bit>>4], 1, TEASER);               
                    SetResponse(x*4+2, A_DIGITS+digit[bit%16], 1, TEASER);
                    SetResponse(x*4+3, A_COMMA, L_COMMA, TEASER);
                }
                SetResponse((4*MAX_CHEATS)-1, A_LF, 4, TEASER);
                responseList = 32;
    2a2c:	30 92 1c 39 	sts	0x391C, r3	; 0x80391c <responseList>
        //Data received, but not any of the commands above
        return 0;
    }

    //Serial input not available yet
    return 1;
    2a30:	ff 24       	eor	r15, r15
    2a32:	f3 94       	inc	r15
}
    2a34:	8f 2d       	mov	r24, r15
    2a36:	a1 96       	adiw	r28, 0x21	; 33
    2a38:	cd bf       	out	0x3d, r28	; 61
    2a3a:	de bf       	out	0x3e, r29	; 62
    2a3c:	df 91       	pop	r29
    2a3e:	cf 91       	pop	r28
    2a40:	1f 91       	pop	r17
    2a42:	0f 91       	pop	r16
    2a44:	ff 90       	pop	r15
    2a46:	ef 90       	pop	r14
    2a48:	df 90       	pop	r13
    2a4a:	cf 90       	pop	r12
    2a4c:	bf 90       	pop	r11
    2a4e:	af 90       	pop	r10
    2a50:	9f 90       	pop	r9
    2a52:	8f 90       	pop	r8
    2a54:	7f 90       	pop	r7
    2a56:	6f 90       	pop	r6
    2a58:	5f 90       	pop	r5
    2a5a:	4f 90       	pop	r4
    2a5c:	3f 90       	pop	r3
    2a5e:	08 95       	ret

00002a60 <ProcessInput>:

//The game logic!
uint8_t ProcessInput(uint8_t *data){
    2a60:	5f 92       	push	r5
    2a62:	6f 92       	push	r6
    2a64:	7f 92       	push	r7
    2a66:	8f 92       	push	r8
    2a68:	9f 92       	push	r9
    2a6a:	af 92       	push	r10
    2a6c:	bf 92       	push	r11
    2a6e:	cf 92       	push	r12
    2a70:	df 92       	push	r13
    2a72:	ef 92       	push	r14
    2a74:	ff 92       	push	r15
    2a76:	0f 93       	push	r16
    2a78:	1f 93       	push	r17
    2a7a:	cf 93       	push	r28
    2a7c:	df 93       	push	r29
    2a7e:	cd b7       	in	r28, 0x3d	; 61
    2a80:	de b7       	in	r29, 0x3e	; 62
    2a82:	28 97       	sbiw	r28, 0x08	; 8
    2a84:	cd bf       	out	0x3d, r28	; 61
    2a86:	de bf       	out	0x3e, r29	; 62
    2a88:	8c 01       	movw	r16, r24
    static object_model_t actObj1, actObj2;
    uint8_t elements = 1;

    CleanInput(&data[0]);
    2a8a:	63 dc       	rcall	.-1850   	; 0x2352 <CleanInput>
    uint8_t inputLen = CleanInput(&data[0]);
    2a8c:	c8 01       	movw	r24, r16
    2a8e:	61 dc       	rcall	.-1854   	; 0x2352 <CleanInput>
    2a90:	f8 2e       	mov	r15, r24

    if (inputLen) {
    2a92:	88 23       	and	r24, r24
    2a94:	09 f4       	brne	.+2      	; 0x2a98 <ProcessInput+0x38>
    2a96:	fc c7       	rjmp	.+4088   	; 0x3a90 <ProcessInput+0x1030>

        //eXit to previous location
        if (data[0] == 'x'){
    2a98:	d8 01       	movw	r26, r16
    2a9a:	8c 91       	ld	r24, X
    2a9c:	88 37       	cpi	r24, 0x78	; 120
    2a9e:	09 f0       	breq	.+2      	; 0x2aa2 <ProcessInput+0x42>
    2aa0:	45 c0       	rjmp	.+138    	; 0x2b2c <ProcessInput+0xcc>

            //Standing in the Lobby?
            if ((route[currDepth] == 0)||(currDepth == 0)){
    2aa2:	80 91 2c 38 	lds	r24, 0x382C	; 0x80382c <currDepth>
    2aa6:	e8 2f       	mov	r30, r24
    2aa8:	f0 e0       	ldi	r31, 0x00	; 0
    2aaa:	ee 0f       	add	r30, r30
    2aac:	ff 1f       	adc	r31, r31
    2aae:	e3 52       	subi	r30, 0x23	; 35
    2ab0:	f6 4c       	sbci	r31, 0xC6	; 198
    2ab2:	20 81       	ld	r18, Z
    2ab4:	31 81       	ldd	r19, Z+1	; 0x01
    2ab6:	23 2b       	or	r18, r19
    2ab8:	11 f0       	breq	.+4      	; 0x2abe <ProcessInput+0x5e>
    2aba:	81 11       	cpse	r24, r1
    2abc:	03 c0       	rjmp	.+6      	; 0x2ac4 <ProcessInput+0x64>
    return 0;
}

//
void SetResponse(uint8_t number, uint16_t address, uint16_t length, uint8_t type){
    reactStr[0][number]=address;
    2abe:	81 e8       	ldi	r24, 0x81	; 129
    2ac0:	96 e7       	ldi	r25, 0x76	; 118
    2ac2:	a1 c5       	rjmp	.+2882   	; 0x3606 <ProcessInput+0xba6>
            //Standing in the Lobby?
            if ((route[currDepth] == 0)||(currDepth == 0)){
                SetResponse(elements++, A_NOTPOSSIBLE, L_NOTPOSSIBLE, TEASER);
            
            //Is there a way to go back?
            } else if (CheckState(currObj.byteField[OPEN_ACL])){
    2ac4:	80 91 23 3a 	lds	r24, 0x3A23	; 0x803a23 <currObj+0x6>
    2ac8:	0e 94 b1 0a 	call	0x1562	; 0x1562 <CheckState>
    2acc:	88 23       	and	r24, r24
    2ace:	b9 f0       	breq	.+46     	; 0x2afe <ProcessInput+0x9e>
                --currDepth;
    2ad0:	e0 91 2c 38 	lds	r30, 0x382C	; 0x80382c <currDepth>
    2ad4:	e1 50       	subi	r30, 0x01	; 1
    2ad6:	e0 93 2c 38 	sts	0x382C, r30	; 0x80382c <currDepth>
                PopulateObject(route[currDepth], &currObj);
    2ada:	f0 e0       	ldi	r31, 0x00	; 0
    2adc:	ee 0f       	add	r30, r30
    2ade:	ff 1f       	adc	r31, r31
    2ae0:	e3 52       	subi	r30, 0x23	; 35
    2ae2:	f6 4c       	sbci	r31, 0xC6	; 198
    2ae4:	6d e1       	ldi	r22, 0x1D	; 29
    2ae6:	7a e3       	ldi	r23, 0x3A	; 58
    2ae8:	80 81       	ld	r24, Z
    2aea:	91 81       	ldd	r25, Z+1	; 0x01
    2aec:	ff da       	rcall	.-2562   	; 0x20ec <PopulateObject>
                effect = currObj.byteField[EFFECTS];
    2aee:	80 91 21 3a 	lds	r24, 0x3A21	; 0x803a21 <currObj+0x4>
    2af2:	90 e0       	ldi	r25, 0x00	; 0
    2af4:	80 93 3a 38 	sts	0x383A, r24	; 0x80383a <effect>
    2af8:	90 93 3b 38 	sts	0x383B, r25	; 0x80383b <effect+0x1>
    2afc:	31 c2       	rjmp	.+1122   	; 0x2f60 <ProcessInput+0x500>
            
            //No way out, print denied message of location
            } else {
                SetResponse(elements++, currObj.addrStr[OPEN_ACL_MSG], currObj.lenStr[OPEN_ACL_MSG], GAME);
    2afe:	80 91 3f 3a 	lds	r24, 0x3A3F	; 0x803a3f <currObj+0x22>
    2b02:	90 91 40 3a 	lds	r25, 0x3A40	; 0x803a40 <currObj+0x23>
    return 0;
}

//
void SetResponse(uint8_t number, uint16_t address, uint16_t length, uint8_t type){
    reactStr[0][number]=address;
    2b06:	20 91 31 3a 	lds	r18, 0x3A31	; 0x803a31 <currObj+0x14>
    2b0a:	30 91 32 3a 	lds	r19, 0x3A32	; 0x803a32 <currObj+0x15>
    2b0e:	20 93 1f 39 	sts	0x391F, r18	; 0x80391f <reactStr+0x2>
    2b12:	30 93 20 39 	sts	0x3920, r19	; 0x803920 <reactStr+0x3>
    reactStr[1][number]=length;
    2b16:	80 93 5f 39 	sts	0x395F, r24	; 0x80395f <reactStr+0x42>
    2b1a:	90 93 60 39 	sts	0x3960, r25	; 0x803960 <reactStr+0x43>
    reactStr[2][number]=type;
    2b1e:	10 92 9f 39 	sts	0x399F, r1	; 0x80399f <reactStr+0x82>
    2b22:	10 92 a0 39 	sts	0x39A0, r1	; 0x8039a0 <reactStr+0x83>
                effect = currObj.byteField[EFFECTS];
            
            //No way out, print denied message of location
            } else {
                SetResponse(elements++, currObj.addrStr[OPEN_ACL_MSG], currObj.lenStr[OPEN_ACL_MSG], GAME);
                effect = currObj.effect[0];               
    2b26:	80 91 45 3a 	lds	r24, 0x3A45	; 0x803a45 <currObj+0x28>
    2b2a:	3a c6       	rjmp	.+3188   	; 0x37a0 <ProcessInput+0xd40>
            }   
        
        //Enter locations or Open objects    
        } else if ((data[0] == 'e')||(data[0] == 'o')) {
    2b2c:	85 36       	cpi	r24, 0x65	; 101
    2b2e:	19 f0       	breq	.+6      	; 0x2b36 <ProcessInput+0xd6>
    2b30:	8f 36       	cpi	r24, 0x6F	; 111
    2b32:	09 f0       	breq	.+2      	; 0x2b36 <ProcessInput+0xd6>
    2b34:	df c0       	rjmp	.+446    	; 0x2cf4 <ProcessInput+0x294>
                
            //Not possible, too many/little characters
            if (inputLen != 2){
    2b36:	b2 e0       	ldi	r27, 0x02	; 2
    2b38:	fb 12       	cpse	r15, r27
    2b3a:	c1 cf       	rjmp	.-126    	; 0x2abe <ProcessInput+0x5e>
                SetResponse(elements++, A_NOTPOSSIBLE, L_NOTPOSSIBLE, TEASER);
            } else {
                uint8_t canDo = 0;
                route[currDepth+1] = FindChild(route[currDepth], data[1], 0);
    2b3c:	e0 90 2c 38 	lds	r14, 0x382C	; 0x80382c <currDepth>
    2b40:	f1 2c       	mov	r15, r1
    2b42:	f7 01       	movw	r30, r14
    2b44:	ee 0f       	add	r30, r30
    2b46:	ff 1f       	adc	r31, r31
    2b48:	e3 52       	subi	r30, 0x23	; 35
    2b4a:	f6 4c       	sbci	r31, 0xC6	; 198
    2b4c:	40 e0       	ldi	r20, 0x00	; 0
    2b4e:	50 e0       	ldi	r21, 0x00	; 0
    2b50:	d8 01       	movw	r26, r16
    2b52:	11 96       	adiw	r26, 0x01	; 1
    2b54:	6c 91       	ld	r22, X
    2b56:	80 81       	ld	r24, Z
    2b58:	91 81       	ldd	r25, Z+1	; 0x01
    2b5a:	93 db       	rcall	.-2266   	; 0x2282 <FindChild>
    2b5c:	f7 01       	movw	r30, r14
    2b5e:	ee 0f       	add	r30, r30
    2b60:	ff 1f       	adc	r31, r31
    2b62:	e1 52       	subi	r30, 0x21	; 33
    2b64:	f6 4c       	sbci	r31, 0xC6	; 198
    2b66:	80 83       	st	Z, r24
    2b68:	91 83       	std	Z+1, r25	; 0x01
                    
                //Child found?
                if (route[currDepth+1]) {
    2b6a:	90 91 2c 38 	lds	r25, 0x382C	; 0x80382c <currDepth>
    2b6e:	29 2f       	mov	r18, r25
    2b70:	30 e0       	ldi	r19, 0x00	; 0
    2b72:	f9 01       	movw	r30, r18
    2b74:	ee 0f       	add	r30, r30
    2b76:	ff 1f       	adc	r31, r31
    2b78:	e1 52       	subi	r30, 0x21	; 33
    2b7a:	f6 4c       	sbci	r31, 0xC6	; 198
    2b7c:	40 81       	ld	r20, Z
    2b7e:	51 81       	ldd	r21, Z+1	; 0x01
    2b80:	41 15       	cp	r20, r1
    2b82:	51 05       	cpc	r21, r1
    2b84:	21 f0       	breq	.+8      	; 0x2b8e <ProcessInput+0x12e>
                    PopulateObject(route[currDepth+1], &actObj1);
    2b86:	6c ed       	ldi	r22, 0xDC	; 220
    2b88:	78 e3       	ldi	r23, 0x38	; 56
    2b8a:	ca 01       	movw	r24, r20
    2b8c:	1c c0       	rjmp	.+56     	; 0x2bc6 <ProcessInput+0x166>
                    canDo = 1;
                //No child, maybe a step back, letter ok?
                } else if (currDepth) {
    2b8e:	99 23       	and	r25, r25
    2b90:	09 f4       	brne	.+2      	; 0x2b94 <ProcessInput+0x134>
    2b92:	95 c7       	rjmp	.+3882   	; 0x3abe <ProcessInput+0x105e>
                    if (CheckLetter(route[currDepth-1], data[1])) {
    2b94:	22 0f       	add	r18, r18
    2b96:	33 1f       	adc	r19, r19
    2b98:	f9 01       	movw	r30, r18
    2b9a:	e5 52       	subi	r30, 0x25	; 37
    2b9c:	f6 4c       	sbci	r31, 0xC6	; 198
    2b9e:	d8 01       	movw	r26, r16
    2ba0:	11 96       	adiw	r26, 0x01	; 1
    2ba2:	6c 91       	ld	r22, X
    2ba4:	80 81       	ld	r24, Z
    2ba6:	91 81       	ldd	r25, Z+1	; 0x01
    2ba8:	18 db       	rcall	.-2512   	; 0x21da <CheckLetter>
    2baa:	88 23       	and	r24, r24
    2bac:	09 f4       	brne	.+2      	; 0x2bb0 <ProcessInput+0x150>
    2bae:	87 c7       	rjmp	.+3854   	; 0x3abe <ProcessInput+0x105e>
                        PopulateObject(route[currDepth-1], &actObj1);
    2bb0:	e0 91 2c 38 	lds	r30, 0x382C	; 0x80382c <currDepth>
    2bb4:	f0 e0       	ldi	r31, 0x00	; 0
    2bb6:	ee 0f       	add	r30, r30
    2bb8:	ff 1f       	adc	r31, r31
    2bba:	e5 52       	subi	r30, 0x25	; 37
    2bbc:	f6 4c       	sbci	r31, 0xC6	; 198
    2bbe:	6c ed       	ldi	r22, 0xDC	; 220
    2bc0:	78 e3       	ldi	r23, 0x38	; 56
    2bc2:	80 81       	ld	r24, Z
    2bc4:	91 81       	ldd	r25, Z+1	; 0x01
    2bc6:	92 da       	rcall	.-2780   	; 0x20ec <PopulateObject>
                    }
                }

                //The candidate is found! Let's check if the action is legit
                if (canDo) {
                    if ((data[0] == 'e') && ((actObj1.byteField[ACTION_MASK]&ENTER)==0)) {
    2bc8:	f8 01       	movw	r30, r16
    2bca:	80 81       	ld	r24, Z
    2bcc:	85 36       	cpi	r24, 0x65	; 101
    2bce:	c9 f4       	brne	.+50     	; 0x2c02 <ProcessInput+0x1a2>
    2bd0:	80 91 e4 38 	lds	r24, 0x38E4	; 0x8038e4 <actObj1.3995+0x8>
    2bd4:	80 fd       	sbrc	r24, 0
    2bd6:	1e c0       	rjmp	.+60     	; 0x2c14 <ProcessInput+0x1b4>
    return 0;
}

//
void SetResponse(uint8_t number, uint16_t address, uint16_t length, uint8_t type){
    reactStr[0][number]=address;
    2bd8:	8f e9       	ldi	r24, 0x9F	; 159
    2bda:	99 e7       	ldi	r25, 0x79	; 121
    2bdc:	80 93 1f 39 	sts	0x391F, r24	; 0x80391f <reactStr+0x2>
    2be0:	90 93 20 39 	sts	0x3920, r25	; 0x803920 <reactStr+0x3>
    reactStr[1][number]=length;
    2be4:	8e e1       	ldi	r24, 0x1E	; 30
    2be6:	90 e0       	ldi	r25, 0x00	; 0
    2be8:	80 93 5f 39 	sts	0x395F, r24	; 0x80395f <reactStr+0x42>
    2bec:	90 93 60 39 	sts	0x3960, r25	; 0x803960 <reactStr+0x43>
    reactStr[2][number]=type;
    2bf0:	81 e0       	ldi	r24, 0x01	; 1
    2bf2:	90 e0       	ldi	r25, 0x00	; 0
    2bf4:	80 93 9f 39 	sts	0x399F, r24	; 0x80399f <reactStr+0x82>
    2bf8:	90 93 a0 39 	sts	0x39A0, r25	; 0x8039a0 <reactStr+0x83>
                }

                //The candidate is found! Let's check if the action is legit
                if (canDo) {
                    if ((data[0] == 'e') && ((actObj1.byteField[ACTION_MASK]&ENTER)==0)) {
                        SetResponse(elements++, A_CANTENTER, L_CANTENTER, TEASER);
    2bfc:	72 e0       	ldi	r23, 0x02	; 2
    2bfe:	77 2e       	mov	r7, r23
    2c00:	2c c7       	rjmp	.+3672   	; 0x3a5a <ProcessInput+0xffa>
                    } else if ((data[0] == 'o') && ((actObj1.byteField[ACTION_MASK]&OPEN)==0)) {
    2c02:	8f 36       	cpi	r24, 0x6F	; 111
    2c04:	39 f4       	brne	.+14     	; 0x2c14 <ProcessInput+0x1b4>
    2c06:	80 91 e4 38 	lds	r24, 0x38E4	; 0x8038e4 <actObj1.3995+0x8>
    2c0a:	81 fd       	sbrc	r24, 1
    2c0c:	03 c0       	rjmp	.+6      	; 0x2c14 <ProcessInput+0x1b4>
    return 0;
}

//
void SetResponse(uint8_t number, uint16_t address, uint16_t length, uint8_t type){
    reactStr[0][number]=address;
    2c0e:	84 e8       	ldi	r24, 0x84	; 132
    2c10:	99 e7       	ldi	r25, 0x79	; 121
    2c12:	f9 c4       	rjmp	.+2546   	; 0x3606 <ProcessInput+0xba6>
                        SetResponse(elements++, A_CANTENTER, L_CANTENTER, TEASER);
                    } else if ((data[0] == 'o') && ((actObj1.byteField[ACTION_MASK]&OPEN)==0)) {
                        SetResponse(elements++, A_CANTOPEN, L_CANTOPEN, TEASER);
                    
                    //Action legit, permission granted?
                    } else if (CheckState(actObj1.byteField[OPEN_ACL])) {
    2c14:	80 91 e2 38 	lds	r24, 0x38E2	; 0x8038e2 <actObj1.3995+0x6>
    2c18:	0e 94 b1 0a 	call	0x1562	; 0x1562 <CheckState>
    2c1c:	e0 91 2c 38 	lds	r30, 0x382C	; 0x80382c <currDepth>
    2c20:	88 23       	and	r24, r24
    2c22:	09 f4       	brne	.+2      	; 0x2c26 <ProcessInput+0x1c6>
    2c24:	49 c0       	rjmp	.+146    	; 0x2cb8 <ProcessInput+0x258>
                            
                        //Yes! Check if we must move forward or backwards.
                        if (route[currDepth+1]) ++currDepth; else --currDepth;
    2c26:	ae 2f       	mov	r26, r30
    2c28:	b0 e0       	ldi	r27, 0x00	; 0
    2c2a:	aa 0f       	add	r26, r26
    2c2c:	bb 1f       	adc	r27, r27
    2c2e:	a1 52       	subi	r26, 0x21	; 33
    2c30:	b6 4c       	sbci	r27, 0xC6	; 198
    2c32:	8d 91       	ld	r24, X+
    2c34:	9c 91       	ld	r25, X
    2c36:	89 2b       	or	r24, r25
    2c38:	11 f0       	breq	.+4      	; 0x2c3e <ProcessInput+0x1de>
    2c3a:	ef 5f       	subi	r30, 0xFF	; 255
    2c3c:	01 c0       	rjmp	.+2      	; 0x2c40 <ProcessInput+0x1e0>
    2c3e:	e1 50       	subi	r30, 0x01	; 1
    2c40:	e0 93 2c 38 	sts	0x382C, r30	; 0x80382c <currDepth>
                        PopulateObject(route[currDepth], &currObj);
    2c44:	e0 91 2c 38 	lds	r30, 0x382C	; 0x80382c <currDepth>
    2c48:	f0 e0       	ldi	r31, 0x00	; 0
    2c4a:	ee 0f       	add	r30, r30
    2c4c:	ff 1f       	adc	r31, r31
    2c4e:	e3 52       	subi	r30, 0x23	; 35
    2c50:	f6 4c       	sbci	r31, 0xC6	; 198
    2c52:	6d e1       	ldi	r22, 0x1D	; 29
    2c54:	7a e3       	ldi	r23, 0x3A	; 58
    2c56:	80 81       	ld	r24, Z
    2c58:	91 81       	ldd	r25, Z+1	; 0x01
    2c5a:	48 da       	rcall	.-2928   	; 0x20ec <PopulateObject>
                        SetResponse(elements++, currObj.addrStr[DESC], currObj.lenStr[DESC],GAME);
    2c5c:	80 91 39 3a 	lds	r24, 0x3A39	; 0x803a39 <currObj+0x1c>
    2c60:	90 91 3a 3a 	lds	r25, 0x3A3A	; 0x803a3a <currObj+0x1d>
    return 0;
}

//
void SetResponse(uint8_t number, uint16_t address, uint16_t length, uint8_t type){
    reactStr[0][number]=address;
    2c64:	20 91 2b 3a 	lds	r18, 0x3A2B	; 0x803a2b <currObj+0xe>
    2c68:	30 91 2c 3a 	lds	r19, 0x3A2C	; 0x803a2c <currObj+0xf>
    2c6c:	20 93 1f 39 	sts	0x391F, r18	; 0x80391f <reactStr+0x2>
    2c70:	30 93 20 39 	sts	0x3920, r19	; 0x803920 <reactStr+0x3>
    reactStr[1][number]=length;
    2c74:	80 93 5f 39 	sts	0x395F, r24	; 0x80395f <reactStr+0x42>
    2c78:	90 93 60 39 	sts	0x3960, r25	; 0x803960 <reactStr+0x43>
    reactStr[2][number]=type;
    2c7c:	10 92 9f 39 	sts	0x399F, r1	; 0x80399f <reactStr+0x82>
    2c80:	10 92 a0 39 	sts	0x39A0, r1	; 0x8039a0 <reactStr+0x83>
    return 0;
}

//
void SetResponse(uint8_t number, uint16_t address, uint16_t length, uint8_t type){
    reactStr[0][number]=address;
    2c84:	8b e5       	ldi	r24, 0x5B	; 91
    2c86:	9a e7       	ldi	r25, 0x7A	; 122
    2c88:	80 93 21 39 	sts	0x3921, r24	; 0x803921 <reactStr+0x4>
    2c8c:	90 93 22 39 	sts	0x3922, r25	; 0x803922 <reactStr+0x5>
    reactStr[1][number]=length;
    2c90:	82 e0       	ldi	r24, 0x02	; 2
    2c92:	90 e0       	ldi	r25, 0x00	; 0
    2c94:	80 93 61 39 	sts	0x3961, r24	; 0x803961 <reactStr+0x44>
    2c98:	90 93 62 39 	sts	0x3962, r25	; 0x803962 <reactStr+0x45>
    reactStr[2][number]=type;
    2c9c:	81 e0       	ldi	r24, 0x01	; 1
    2c9e:	90 e0       	ldi	r25, 0x00	; 0
    2ca0:	80 93 a1 39 	sts	0x39A1, r24	; 0x8039a1 <reactStr+0x84>
    2ca4:	90 93 a2 39 	sts	0x39A2, r25	; 0x8039a2 <reactStr+0x85>
                        //Yes! Check if we must move forward or backwards.
                        if (route[currDepth+1]) ++currDepth; else --currDepth;
                        PopulateObject(route[currDepth], &currObj);
                        SetResponse(elements++, currObj.addrStr[DESC], currObj.lenStr[DESC],GAME);
                        SetResponse(elements++, A_LF, 2, TEASER);
                        effect = currObj.byteField[EFFECTS];
    2ca8:	80 91 21 3a 	lds	r24, 0x3A21	; 0x803a21 <currObj+0x4>
    2cac:	90 e0       	ldi	r25, 0x00	; 0
    2cae:	80 93 3a 38 	sts	0x383A, r24	; 0x80383a <effect>
    2cb2:	90 93 3b 38 	sts	0x383B, r25	; 0x80383b <effect+0x1>
    2cb6:	8d c4       	rjmp	.+2330   	; 0x35d2 <ProcessInput+0xb72>
                                                  
                    //Not granted!
                    } else {
                        route[currDepth+1] = 0;
    2cb8:	f0 e0       	ldi	r31, 0x00	; 0
    2cba:	ee 0f       	add	r30, r30
    2cbc:	ff 1f       	adc	r31, r31
    2cbe:	e1 52       	subi	r30, 0x21	; 33
    2cc0:	f6 4c       	sbci	r31, 0xC6	; 198
    2cc2:	10 82       	st	Z, r1
    2cc4:	11 82       	std	Z+1, r1	; 0x01
                        SetResponse(elements++, actObj1.addrStr[OPEN_ACL_MSG], actObj1.lenStr[OPEN_ACL_MSG], GAME);
    2cc6:	80 91 fe 38 	lds	r24, 0x38FE	; 0x8038fe <actObj1.3995+0x22>
    2cca:	90 91 ff 38 	lds	r25, 0x38FF	; 0x8038ff <actObj1.3995+0x23>
    return 0;
}

//
void SetResponse(uint8_t number, uint16_t address, uint16_t length, uint8_t type){
    reactStr[0][number]=address;
    2cce:	20 91 f0 38 	lds	r18, 0x38F0	; 0x8038f0 <actObj1.3995+0x14>
    2cd2:	30 91 f1 38 	lds	r19, 0x38F1	; 0x8038f1 <actObj1.3995+0x15>
    2cd6:	20 93 1f 39 	sts	0x391F, r18	; 0x80391f <reactStr+0x2>
    2cda:	30 93 20 39 	sts	0x3920, r19	; 0x803920 <reactStr+0x3>
    reactStr[1][number]=length;
    2cde:	80 93 5f 39 	sts	0x395F, r24	; 0x80395f <reactStr+0x42>
    2ce2:	90 93 60 39 	sts	0x3960, r25	; 0x803960 <reactStr+0x43>
    reactStr[2][number]=type;
    2ce6:	10 92 9f 39 	sts	0x399F, r1	; 0x80399f <reactStr+0x82>
    2cea:	10 92 a0 39 	sts	0x39A0, r1	; 0x8039a0 <reactStr+0x83>
                                                  
                    //Not granted!
                    } else {
                        route[currDepth+1] = 0;
                        SetResponse(elements++, actObj1.addrStr[OPEN_ACL_MSG], actObj1.lenStr[OPEN_ACL_MSG], GAME);
                        effect = actObj1.effect[0];              
    2cee:	80 91 04 39 	lds	r24, 0x3904	; 0x803904 <actObj1.3995+0x28>
    2cf2:	56 c5       	rjmp	.+2732   	; 0x37a0 <ProcessInput+0xd40>
                    SetResponse(elements++, A_DONTSEE, L_DONTSEE, TEASER);                
                }
            }

        //Look around or at objects
        } else if (data[0] == 'l') {
    2cf4:	8c 36       	cpi	r24, 0x6C	; 108
    2cf6:	09 f0       	breq	.+2      	; 0x2cfa <ProcessInput+0x29a>
    2cf8:	57 c1       	rjmp	.+686    	; 0x2fa8 <ProcessInput+0x548>
    2cfa:	e0 91 2c 38 	lds	r30, 0x382C	; 0x80382c <currDepth>
            if (inputLen == 1) {
    2cfe:	b1 e0       	ldi	r27, 0x01	; 1
    2d00:	fb 12       	cpse	r15, r27
    2d02:	f6 c0       	rjmp	.+492    	; 0x2ef0 <ProcessInput+0x490>

                //Show info about this area first
                SetResponse(elements++, currObj.addrStr[DESC], currObj.lenStr[DESC],GAME);
    2d04:	80 91 39 3a 	lds	r24, 0x3A39	; 0x803a39 <currObj+0x1c>
    2d08:	90 91 3a 3a 	lds	r25, 0x3A3A	; 0x803a3a <currObj+0x1d>
    return 0;
}

//
void SetResponse(uint8_t number, uint16_t address, uint16_t length, uint8_t type){
    reactStr[0][number]=address;
    2d0c:	20 91 2b 3a 	lds	r18, 0x3A2B	; 0x803a2b <currObj+0xe>
    2d10:	30 91 2c 3a 	lds	r19, 0x3A2C	; 0x803a2c <currObj+0xf>
    2d14:	20 93 1f 39 	sts	0x391F, r18	; 0x80391f <reactStr+0x2>
    2d18:	30 93 20 39 	sts	0x3920, r19	; 0x803920 <reactStr+0x3>
    reactStr[1][number]=length;
    2d1c:	80 93 5f 39 	sts	0x395F, r24	; 0x80395f <reactStr+0x42>
    2d20:	90 93 60 39 	sts	0x3960, r25	; 0x803960 <reactStr+0x43>
    reactStr[2][number]=type;
    2d24:	10 92 9f 39 	sts	0x399F, r1	; 0x80399f <reactStr+0x82>
    2d28:	10 92 a0 39 	sts	0x39A0, r1	; 0x8039a0 <reactStr+0x83>
    return 0;
}

//
void SetResponse(uint8_t number, uint16_t address, uint16_t length, uint8_t type){
    reactStr[0][number]=address;
    2d2c:	8b e5       	ldi	r24, 0x5B	; 91
    2d2e:	9a e7       	ldi	r25, 0x7A	; 122
    2d30:	80 93 21 39 	sts	0x3921, r24	; 0x803921 <reactStr+0x4>
    2d34:	90 93 22 39 	sts	0x3922, r25	; 0x803922 <reactStr+0x5>
    reactStr[1][number]=length;
    2d38:	82 e0       	ldi	r24, 0x02	; 2
    2d3a:	90 e0       	ldi	r25, 0x00	; 0
    2d3c:	80 93 61 39 	sts	0x3961, r24	; 0x803961 <reactStr+0x44>
    2d40:	90 93 62 39 	sts	0x3962, r25	; 0x803962 <reactStr+0x45>
    reactStr[2][number]=type;
    2d44:	81 e0       	ldi	r24, 0x01	; 1
    2d46:	90 e0       	ldi	r25, 0x00	; 0
    2d48:	80 93 a1 39 	sts	0x39A1, r24	; 0x8039a1 <reactStr+0x84>
    2d4c:	90 93 a2 39 	sts	0x39A2, r25	; 0x8039a2 <reactStr+0x85>
    return 0;
}

//
void SetResponse(uint8_t number, uint16_t address, uint16_t length, uint8_t type){
    reactStr[0][number]=address;
    2d50:	2d ee       	ldi	r18, 0xED	; 237
    2d52:	39 e7       	ldi	r19, 0x79	; 121
    2d54:	20 93 23 39 	sts	0x3923, r18	; 0x803923 <reactStr+0x6>
    2d58:	30 93 24 39 	sts	0x3924, r19	; 0x803924 <reactStr+0x7>
    reactStr[1][number]=length;
    2d5c:	25 e1       	ldi	r18, 0x15	; 21
    2d5e:	30 e0       	ldi	r19, 0x00	; 0
    2d60:	20 93 63 39 	sts	0x3963, r18	; 0x803963 <reactStr+0x46>
    2d64:	30 93 64 39 	sts	0x3964, r19	; 0x803964 <reactStr+0x47>
    reactStr[2][number]=type;
    2d68:	80 93 a3 39 	sts	0x39A3, r24	; 0x8039a3 <reactStr+0x86>
    2d6c:	90 93 a4 39 	sts	0x39A4, r25	; 0x8039a4 <reactStr+0x87>
                SetResponse(elements++, currObj.addrStr[DESC], currObj.lenStr[DESC],GAME);
                SetResponse(elements++, A_LF, 2, TEASER);
                SetResponse(elements++, A_LOOK, L_LOOK, TEASER);

                //Check the visible children first
                route[currDepth+1] = 0;
    2d70:	f0 e0       	ldi	r31, 0x00	; 0
    2d72:	ee 0f       	add	r30, r30
    2d74:	ff 1f       	adc	r31, r31
    2d76:	e1 52       	subi	r30, 0x21	; 33
    2d78:	f6 4c       	sbci	r31, 0xC6	; 198
    2d7a:	10 82       	st	Z, r1
    2d7c:	11 82       	std	Z+1, r1	; 0x01
            if (inputLen == 1) {

                //Show info about this area first
                SetResponse(elements++, currObj.addrStr[DESC], currObj.lenStr[DESC],GAME);
                SetResponse(elements++, A_LF, 2, TEASER);
                SetResponse(elements++, A_LOOK, L_LOOK, TEASER);
    2d7e:	84 e0       	ldi	r24, 0x04	; 4
    2d80:	68 2e       	mov	r6, r24
    return 0;
}

//
void SetResponse(uint8_t number, uint16_t address, uint16_t length, uint8_t type){
    reactStr[0][number]=address;
    2d82:	99 e5       	ldi	r25, 0x59	; 89
    2d84:	c9 2e       	mov	r12, r25
    2d86:	9a e7       	ldi	r25, 0x7A	; 122
    2d88:	d9 2e       	mov	r13, r25
    reactStr[1][number]=length;
    2d8a:	22 e0       	ldi	r18, 0x02	; 2
    2d8c:	a2 2e       	mov	r10, r18
    2d8e:	b1 2c       	mov	r11, r1
    reactStr[2][number]=type;
    2d90:	88 24       	eor	r8, r8
    2d92:	83 94       	inc	r8
    2d94:	91 2c       	mov	r9, r1
                SetResponse(elements++, A_LOOK, L_LOOK, TEASER);

                //Check the visible children first
                route[currDepth+1] = 0;
                do{
                    route[currDepth+1] = FindChild(route[currDepth], 0, route[currDepth+1]);
    2d96:	80 91 2c 38 	lds	r24, 0x382C	; 0x80382c <currDepth>
    2d9a:	90 e0       	ldi	r25, 0x00	; 0
    2d9c:	9c 01       	movw	r18, r24
    2d9e:	22 0f       	add	r18, r18
    2da0:	33 1f       	adc	r19, r19
    2da2:	f9 01       	movw	r30, r18
    2da4:	e1 52       	subi	r30, 0x21	; 33
    2da6:	f6 4c       	sbci	r31, 0xC6	; 198
    2da8:	7f 01       	movw	r14, r30
    2daa:	40 81       	ld	r20, Z
    2dac:	51 81       	ldd	r21, Z+1	; 0x01
    2dae:	f9 01       	movw	r30, r18
    2db0:	e3 52       	subi	r30, 0x23	; 35
    2db2:	f6 4c       	sbci	r31, 0xC6	; 198
    2db4:	60 e0       	ldi	r22, 0x00	; 0
    2db6:	80 81       	ld	r24, Z
    2db8:	91 81       	ldd	r25, Z+1	; 0x01
    2dba:	63 da       	rcall	.-2874   	; 0x2282 <FindChild>
    2dbc:	d7 01       	movw	r26, r14
    2dbe:	8d 93       	st	X+, r24
    2dc0:	9c 93       	st	X, r25
                    if (route[currDepth+1]) {
    2dc2:	e0 91 2c 38 	lds	r30, 0x382C	; 0x80382c <currDepth>
    2dc6:	f0 e0       	ldi	r31, 0x00	; 0
    2dc8:	ee 0f       	add	r30, r30
    2dca:	ff 1f       	adc	r31, r31
    2dcc:	e1 52       	subi	r30, 0x21	; 33
    2dce:	f6 4c       	sbci	r31, 0xC6	; 198
    2dd0:	80 81       	ld	r24, Z
    2dd2:	91 81       	ldd	r25, Z+1	; 0x01
    2dd4:	00 97       	sbiw	r24, 0x00	; 0
    2dd6:	09 f4       	brne	.+2      	; 0x2dda <ProcessInput+0x37a>
    2dd8:	4a c0       	rjmp	.+148    	; 0x2e6e <ProcessInput+0x40e>
                        if ((route[currDepth+1] != inventory[0])&&(route[currDepth+1] != inventory[1])) {
    2dda:	20 91 3e 38 	lds	r18, 0x383E	; 0x80383e <inventory>
    2dde:	30 91 3f 38 	lds	r19, 0x383F	; 0x80383f <inventory+0x1>
    2de2:	82 17       	cp	r24, r18
    2de4:	93 07       	cpc	r25, r19
    2de6:	09 f4       	brne	.+2      	; 0x2dea <ProcessInput+0x38a>
    2de8:	42 c0       	rjmp	.+132    	; 0x2e6e <ProcessInput+0x40e>
    2dea:	20 91 40 38 	lds	r18, 0x3840	; 0x803840 <inventory+0x2>
    2dee:	30 91 41 38 	lds	r19, 0x3841	; 0x803841 <inventory+0x3>
    2df2:	82 17       	cp	r24, r18
    2df4:	93 07       	cpc	r25, r19
                            PopulateObject(route[currDepth+1], &actObj1);
    2df6:	d9 f1       	breq	.+118    	; 0x2e6e <ProcessInput+0x40e>
    2df8:	6c ed       	ldi	r22, 0xDC	; 220
    2dfa:	78 e3       	ldi	r23, 0x38	; 56
    2dfc:	77 d9       	rcall	.-3346   	; 0x20ec <PopulateObject>
                            SetResponse(elements++, actObj1.addrStr[NAME], actObj1.lenStr[NAME],GAME);
    2dfe:	80 91 f6 38 	lds	r24, 0x38F6	; 0x8038f6 <actObj1.3995+0x1a>
    2e02:	90 91 f7 38 	lds	r25, 0x38F7	; 0x8038f7 <actObj1.3995+0x1b>
    return 0;
}

//
void SetResponse(uint8_t number, uint16_t address, uint16_t length, uint8_t type){
    reactStr[0][number]=address;
    2e06:	e6 2d       	mov	r30, r6
    2e08:	f0 e0       	ldi	r31, 0x00	; 0
    2e0a:	df 01       	movw	r26, r30
    2e0c:	aa 0f       	add	r26, r26
    2e0e:	bb 1f       	adc	r27, r27
    2e10:	a3 5e       	subi	r26, 0xE3	; 227
    2e12:	b6 4c       	sbci	r27, 0xC6	; 198
    2e14:	20 91 e8 38 	lds	r18, 0x38E8	; 0x8038e8 <actObj1.3995+0xc>
    2e18:	30 91 e9 38 	lds	r19, 0x38E9	; 0x8038e9 <actObj1.3995+0xd>
    2e1c:	2d 93       	st	X+, r18
    2e1e:	3c 93       	st	X, r19
    reactStr[1][number]=length;
    2e20:	df 01       	movw	r26, r30
    2e22:	aa 0f       	add	r26, r26
    2e24:	bb 1f       	adc	r27, r27
    2e26:	a3 5a       	subi	r26, 0xA3	; 163
    2e28:	b6 4c       	sbci	r27, 0xC6	; 198
    2e2a:	8d 93       	st	X+, r24
    2e2c:	9c 93       	st	X, r25
    reactStr[2][number]=type;
    2e2e:	ee 0f       	add	r30, r30
    2e30:	ff 1f       	adc	r31, r31
    2e32:	e3 56       	subi	r30, 0x63	; 99
    2e34:	f6 4c       	sbci	r31, 0xC6	; 198
    2e36:	10 82       	st	Z, r1
    2e38:	11 82       	std	Z+1, r1	; 0x01
    return 0;
}

//
void SetResponse(uint8_t number, uint16_t address, uint16_t length, uint8_t type){
    reactStr[0][number]=address;
    2e3a:	81 e0       	ldi	r24, 0x01	; 1
    2e3c:	86 0d       	add	r24, r6
    2e3e:	90 e0       	ldi	r25, 0x00	; 0
    2e40:	63 94       	inc	r6
    2e42:	63 94       	inc	r6
    2e44:	fc 01       	movw	r30, r24
    2e46:	ee 0f       	add	r30, r30
    2e48:	ff 1f       	adc	r31, r31
    2e4a:	e3 5e       	subi	r30, 0xE3	; 227
    2e4c:	f6 4c       	sbci	r31, 0xC6	; 198
    2e4e:	c0 82       	st	Z, r12
    2e50:	d1 82       	std	Z+1, r13	; 0x01
    reactStr[1][number]=length;
    2e52:	fc 01       	movw	r30, r24
    2e54:	ee 0f       	add	r30, r30
    2e56:	ff 1f       	adc	r31, r31
    2e58:	e3 5a       	subi	r30, 0xA3	; 163
    2e5a:	f6 4c       	sbci	r31, 0xC6	; 198
    2e5c:	a0 82       	st	Z, r10
    2e5e:	b1 82       	std	Z+1, r11	; 0x01
    reactStr[2][number]=type;
    2e60:	88 0f       	add	r24, r24
    2e62:	99 1f       	adc	r25, r25
    2e64:	fc 01       	movw	r30, r24
    2e66:	e3 56       	subi	r30, 0x63	; 99
    2e68:	f6 4c       	sbci	r31, 0xC6	; 198
    2e6a:	80 82       	st	Z, r8
    2e6c:	91 82       	std	Z+1, r9	; 0x01
                            PopulateObject(route[currDepth+1], &actObj1);
                            SetResponse(elements++, actObj1.addrStr[NAME], actObj1.lenStr[NAME],GAME);
                            SetResponse(elements++, A_COMMA, L_COMMA, TEASER);
                        }
                    }
                }while (route[currDepth+1]);
    2e6e:	20 91 2c 38 	lds	r18, 0x382C	; 0x80382c <currDepth>
    2e72:	82 2f       	mov	r24, r18
    2e74:	90 e0       	ldi	r25, 0x00	; 0
    2e76:	fc 01       	movw	r30, r24
    2e78:	ee 0f       	add	r30, r30
    2e7a:	ff 1f       	adc	r31, r31
    2e7c:	e1 52       	subi	r30, 0x21	; 33
    2e7e:	f6 4c       	sbci	r31, 0xC6	; 198
    2e80:	40 81       	ld	r20, Z
    2e82:	51 81       	ldd	r21, Z+1	; 0x01
    2e84:	45 2b       	or	r20, r21
    2e86:	09 f0       	breq	.+2      	; 0x2e8a <ProcessInput+0x42a>
    2e88:	86 cf       	rjmp	.-244    	; 0x2d96 <ProcessInput+0x336>

                //Look back if not on level 0
                if (currDepth) {
    2e8a:	22 23       	and	r18, r18
    2e8c:	69 f1       	breq	.+90     	; 0x2ee8 <ProcessInput+0x488>
                    PopulateObject(route[currDepth-1], &actObj1);
    2e8e:	88 0f       	add	r24, r24
    2e90:	99 1f       	adc	r25, r25
    2e92:	fc 01       	movw	r30, r24
    2e94:	e5 52       	subi	r30, 0x25	; 37
    2e96:	f6 4c       	sbci	r31, 0xC6	; 198
    2e98:	6c ed       	ldi	r22, 0xDC	; 220
    2e9a:	78 e3       	ldi	r23, 0x38	; 56
    2e9c:	80 81       	ld	r24, Z
    2e9e:	91 81       	ldd	r25, Z+1	; 0x01
    2ea0:	25 d9       	rcall	.-3510   	; 0x20ec <PopulateObject>
                    SetResponse(elements++, actObj1.addrStr[NAME], actObj1.lenStr[NAME],GAME);
    2ea2:	20 91 f6 38 	lds	r18, 0x38F6	; 0x8038f6 <actObj1.3995+0x1a>
    2ea6:	30 91 f7 38 	lds	r19, 0x38F7	; 0x8038f7 <actObj1.3995+0x1b>
    2eaa:	77 24       	eor	r7, r7
    2eac:	73 94       	inc	r7
    2eae:	76 0c       	add	r7, r6
    return 0;
}

//
void SetResponse(uint8_t number, uint16_t address, uint16_t length, uint8_t type){
    reactStr[0][number]=address;
    2eb0:	86 2d       	mov	r24, r6
    2eb2:	90 e0       	ldi	r25, 0x00	; 0
    2eb4:	fc 01       	movw	r30, r24
    2eb6:	ee 0f       	add	r30, r30
    2eb8:	ff 1f       	adc	r31, r31
    2eba:	e3 5e       	subi	r30, 0xE3	; 227
    2ebc:	f6 4c       	sbci	r31, 0xC6	; 198
    2ebe:	40 91 e8 38 	lds	r20, 0x38E8	; 0x8038e8 <actObj1.3995+0xc>
    2ec2:	50 91 e9 38 	lds	r21, 0x38E9	; 0x8038e9 <actObj1.3995+0xd>
    2ec6:	40 83       	st	Z, r20
    2ec8:	51 83       	std	Z+1, r21	; 0x01
    reactStr[1][number]=length;
    2eca:	fc 01       	movw	r30, r24
    2ecc:	ee 0f       	add	r30, r30
    2ece:	ff 1f       	adc	r31, r31
    2ed0:	e3 5a       	subi	r30, 0xA3	; 163
    2ed2:	f6 4c       	sbci	r31, 0xC6	; 198
    2ed4:	20 83       	st	Z, r18
    2ed6:	31 83       	std	Z+1, r19	; 0x01
    reactStr[2][number]=type;
    2ed8:	88 0f       	add	r24, r24
    2eda:	99 1f       	adc	r25, r25
    2edc:	fc 01       	movw	r30, r24
    2ede:	e3 56       	subi	r30, 0x63	; 99
    2ee0:	f6 4c       	sbci	r31, 0xC6	; 198
    2ee2:	10 82       	st	Z, r1
    2ee4:	11 82       	std	Z+1, r1	; 0x01
    2ee6:	b9 c5       	rjmp	.+2930   	; 0x3a5a <ProcessInput+0xffa>

                //Look back if not on level 0
                if (currDepth) {
                    PopulateObject(route[currDepth-1], &actObj1);
                    SetResponse(elements++, actObj1.addrStr[NAME], actObj1.lenStr[NAME],GAME);
                } else elements-=1;
    2ee8:	77 24       	eor	r7, r7
    2eea:	7a 94       	dec	r7
    2eec:	76 0c       	add	r7, r6
    2eee:	b5 c5       	rjmp	.+2922   	; 0x3a5a <ProcessInput+0xffa>

            } else {
                route[currDepth+1] = FindChild(route[currDepth], data[1], 0);
    2ef0:	ee 2e       	mov	r14, r30
    2ef2:	f1 2c       	mov	r15, r1
    2ef4:	f7 01       	movw	r30, r14
    2ef6:	ee 0f       	add	r30, r30
    2ef8:	ff 1f       	adc	r31, r31
    2efa:	e3 52       	subi	r30, 0x23	; 35
    2efc:	f6 4c       	sbci	r31, 0xC6	; 198
    2efe:	40 e0       	ldi	r20, 0x00	; 0
    2f00:	50 e0       	ldi	r21, 0x00	; 0
    2f02:	d8 01       	movw	r26, r16
    2f04:	11 96       	adiw	r26, 0x01	; 1
    2f06:	6c 91       	ld	r22, X
    2f08:	80 81       	ld	r24, Z
    2f0a:	91 81       	ldd	r25, Z+1	; 0x01
    2f0c:	ba d9       	rcall	.-3212   	; 0x2282 <FindChild>
    2f0e:	f7 01       	movw	r30, r14
    2f10:	ee 0f       	add	r30, r30
    2f12:	ff 1f       	adc	r31, r31
    2f14:	e1 52       	subi	r30, 0x21	; 33
    2f16:	f6 4c       	sbci	r31, 0xC6	; 198
    2f18:	80 83       	st	Z, r24
    2f1a:	91 83       	std	Z+1, r25	; 0x01
                if (route[currDepth+1]) {
    2f1c:	90 91 2c 38 	lds	r25, 0x382C	; 0x80382c <currDepth>
    2f20:	29 2f       	mov	r18, r25
    2f22:	30 e0       	ldi	r19, 0x00	; 0
    2f24:	f9 01       	movw	r30, r18
    2f26:	ee 0f       	add	r30, r30
    2f28:	ff 1f       	adc	r31, r31
    2f2a:	e1 52       	subi	r30, 0x21	; 33
    2f2c:	f6 4c       	sbci	r31, 0xC6	; 198
    2f2e:	40 81       	ld	r20, Z
    2f30:	51 81       	ldd	r21, Z+1	; 0x01
    2f32:	41 15       	cp	r20, r1
    2f34:	51 05       	cpc	r21, r1
    2f36:	21 f0       	breq	.+8      	; 0x2f40 <ProcessInput+0x4e0>
                    PopulateObject(route[currDepth+1], &actObj1);
    2f38:	6c ed       	ldi	r22, 0xDC	; 220
    2f3a:	78 e3       	ldi	r23, 0x38	; 56
    2f3c:	ca 01       	movw	r24, r20
    2f3e:	1e c0       	rjmp	.+60     	; 0x2f7c <ProcessInput+0x51c>
//TODO: CHECKSTATE -> A_CANTLOOK item
                    SetResponse(elements++, actObj1.addrStr[DESC], actObj1.lenStr[DESC],GAME);   
                } else if (currDepth) {
    2f40:	99 23       	and	r25, r25
    2f42:	09 f4       	brne	.+2      	; 0x2f46 <ProcessInput+0x4e6>
                    if (CheckLetter(route[currDepth-1], data[1])) {
    2f44:	bc c5       	rjmp	.+2936   	; 0x3abe <ProcessInput+0x105e>
    2f46:	22 0f       	add	r18, r18
    2f48:	33 1f       	adc	r19, r19
    2f4a:	f9 01       	movw	r30, r18
    2f4c:	e5 52       	subi	r30, 0x25	; 37
    2f4e:	f6 4c       	sbci	r31, 0xC6	; 198
    2f50:	d8 01       	movw	r26, r16
    2f52:	11 96       	adiw	r26, 0x01	; 1
    2f54:	6c 91       	ld	r22, X
    2f56:	80 81       	ld	r24, Z
    2f58:	91 81       	ldd	r25, Z+1	; 0x01
    2f5a:	3f d9       	rcall	.-3458   	; 0x21da <CheckLetter>
    2f5c:	81 11       	cpse	r24, r1
    2f5e:	03 c0       	rjmp	.+6      	; 0x2f66 <ProcessInput+0x506>
}

//The game logic!
uint8_t ProcessInput(uint8_t *data){
    static object_model_t actObj1, actObj2;
    uint8_t elements = 1;
    2f60:	77 24       	eor	r7, r7
    2f62:	73 94       	inc	r7
                    PopulateObject(route[currDepth+1], &actObj1);
//TODO: CHECKSTATE -> A_CANTLOOK item
                    SetResponse(elements++, actObj1.addrStr[DESC], actObj1.lenStr[DESC],GAME);   
                } else if (currDepth) {
                    if (CheckLetter(route[currDepth-1], data[1])) {
                        PopulateObject(route[currDepth-1], &actObj1);
    2f64:	7a c5       	rjmp	.+2804   	; 0x3a5a <ProcessInput+0xffa>
    2f66:	e0 91 2c 38 	lds	r30, 0x382C	; 0x80382c <currDepth>
    2f6a:	f0 e0       	ldi	r31, 0x00	; 0
    2f6c:	ee 0f       	add	r30, r30
    2f6e:	ff 1f       	adc	r31, r31
    2f70:	e5 52       	subi	r30, 0x25	; 37
    2f72:	f6 4c       	sbci	r31, 0xC6	; 198
    2f74:	6c ed       	ldi	r22, 0xDC	; 220
    2f76:	78 e3       	ldi	r23, 0x38	; 56
    2f78:	80 81       	ld	r24, Z
    2f7a:	91 81       	ldd	r25, Z+1	; 0x01
    2f7c:	b7 d8       	rcall	.-3730   	; 0x20ec <PopulateObject>
                        SetResponse(elements++, actObj1.addrStr[DESC], actObj1.lenStr[DESC],GAME);
    2f7e:	80 91 f8 38 	lds	r24, 0x38F8	; 0x8038f8 <actObj1.3995+0x1c>
    2f82:	90 91 f9 38 	lds	r25, 0x38F9	; 0x8038f9 <actObj1.3995+0x1d>
    return 0;
}

//
void SetResponse(uint8_t number, uint16_t address, uint16_t length, uint8_t type){
    reactStr[0][number]=address;
    2f86:	20 91 ea 38 	lds	r18, 0x38EA	; 0x8038ea <actObj1.3995+0xe>
    2f8a:	30 91 eb 38 	lds	r19, 0x38EB	; 0x8038eb <actObj1.3995+0xf>
    2f8e:	20 93 1f 39 	sts	0x391F, r18	; 0x80391f <reactStr+0x2>
    2f92:	30 93 20 39 	sts	0x3920, r19	; 0x803920 <reactStr+0x3>
    reactStr[1][number]=length;
    2f96:	80 93 5f 39 	sts	0x395F, r24	; 0x80395f <reactStr+0x42>
    2f9a:	90 93 60 39 	sts	0x3960, r25	; 0x803960 <reactStr+0x43>
    reactStr[2][number]=type;
    2f9e:	10 92 9f 39 	sts	0x399F, r1	; 0x80399f <reactStr+0x82>
    2fa2:	10 92 a0 39 	sts	0x39A0, r1	; 0x8039a0 <reactStr+0x83>
    2fa6:	2a ce       	rjmp	.-940    	; 0x2bfc <ProcessInput+0x19c>
                    SetResponse(elements++, A_DONTSEE, L_DONTSEE, TEASER);
                }
            }
        
        //Pick up an object
        } else if (data[0] == 'p') {
    2fa8:	80 37       	cpi	r24, 0x70	; 112
    2faa:	09 f0       	breq	.+2      	; 0x2fae <ProcessInput+0x54e>
    2fac:	96 c0       	rjmp	.+300    	; 0x30da <ProcessInput+0x67a>
            if (inventory[0]&&inventory[1]) {
    2fae:	80 91 3e 38 	lds	r24, 0x383E	; 0x80383e <inventory>
    2fb2:	90 91 3f 38 	lds	r25, 0x383F	; 0x80383f <inventory+0x1>
    2fb6:	89 2b       	or	r24, r25
    2fb8:	79 f0       	breq	.+30     	; 0x2fd8 <ProcessInput+0x578>
    2fba:	80 91 40 38 	lds	r24, 0x3840	; 0x803840 <inventory+0x2>
    2fbe:	90 91 41 38 	lds	r25, 0x3841	; 0x803841 <inventory+0x3>
    2fc2:	89 2b       	or	r24, r25
    2fc4:	49 f0       	breq	.+18     	; 0x2fd8 <ProcessInput+0x578>
    return 0;
}

//
void SetResponse(uint8_t number, uint16_t address, uint16_t length, uint8_t type){
    reactStr[0][number]=address;
    2fc6:	84 e4       	ldi	r24, 0x44	; 68
    2fc8:	98 e7       	ldi	r25, 0x78	; 120
    2fca:	80 93 1f 39 	sts	0x391F, r24	; 0x80391f <reactStr+0x2>
    2fce:	90 93 20 39 	sts	0x3920, r25	; 0x803920 <reactStr+0x3>
    reactStr[1][number]=length;
    2fd2:	89 e5       	ldi	r24, 0x59	; 89
    2fd4:	90 e0       	ldi	r25, 0x00	; 0
    2fd6:	08 ce       	rjmp	.-1008   	; 0x2be8 <ProcessInput+0x188>
        
        //Pick up an object
        } else if (data[0] == 'p') {
            if (inventory[0]&&inventory[1]) {
                SetResponse(elements++, A_CARRYTWO, L_CARRYTWO, TEASER);
            } else if (inputLen != 2) {
    2fd8:	b2 e0       	ldi	r27, 0x02	; 2
    2fda:	fb 12       	cpse	r15, r27
    2fdc:	70 cd       	rjmp	.-1312   	; 0x2abe <ProcessInput+0x5e>
                SetResponse(elements++, A_NOTPOSSIBLE, L_NOTPOSSIBLE, TEASER);
            } else {
                route[currDepth+1] = FindChild(route[currDepth], data[1], 0);
    2fde:	e0 90 2c 38 	lds	r14, 0x382C	; 0x80382c <currDepth>
    2fe2:	f1 2c       	mov	r15, r1
    2fe4:	f7 01       	movw	r30, r14
    2fe6:	ee 0f       	add	r30, r30
    2fe8:	ff 1f       	adc	r31, r31
    2fea:	e3 52       	subi	r30, 0x23	; 35
    2fec:	f6 4c       	sbci	r31, 0xC6	; 198
    2fee:	40 e0       	ldi	r20, 0x00	; 0
    2ff0:	50 e0       	ldi	r21, 0x00	; 0
    2ff2:	d8 01       	movw	r26, r16
    2ff4:	11 96       	adiw	r26, 0x01	; 1
    2ff6:	6c 91       	ld	r22, X
    2ff8:	80 81       	ld	r24, Z
    2ffa:	91 81       	ldd	r25, Z+1	; 0x01
    2ffc:	42 d9       	rcall	.-3452   	; 0x2282 <FindChild>
    2ffe:	f7 01       	movw	r30, r14
    3000:	ee 0f       	add	r30, r30
    3002:	ff 1f       	adc	r31, r31
    3004:	e1 52       	subi	r30, 0x21	; 33
    3006:	f6 4c       	sbci	r31, 0xC6	; 198
    3008:	80 83       	st	Z, r24
    300a:	91 83       	std	Z+1, r25	; 0x01
                if (route[currDepth+1]) {
    300c:	20 91 2c 38 	lds	r18, 0x382C	; 0x80382c <currDepth>
    3010:	30 e0       	ldi	r19, 0x00	; 0
    3012:	2f 5f       	subi	r18, 0xFF	; 255
    3014:	3f 4f       	sbci	r19, 0xFF	; 255
    3016:	22 0f       	add	r18, r18
    3018:	33 1f       	adc	r19, r19
    301a:	f9 01       	movw	r30, r18
    301c:	e3 52       	subi	r30, 0x23	; 35
    301e:	f6 4c       	sbci	r31, 0xC6	; 198
    3020:	80 81       	ld	r24, Z
    3022:	91 81       	ldd	r25, Z+1	; 0x01
    3024:	00 97       	sbiw	r24, 0x00	; 0
    3026:	09 f4       	brne	.+2      	; 0x302a <ProcessInput+0x5ca>
    3028:	ca c3       	rjmp	.+1940   	; 0x37be <ProcessInput+0xd5e>
                    if ((route[currDepth+1] == inventory[0])||(route[currDepth+1] == inventory[1])) {
    302a:	40 91 3e 38 	lds	r20, 0x383E	; 0x80383e <inventory>
    302e:	50 91 3f 38 	lds	r21, 0x383F	; 0x80383f <inventory+0x1>
    3032:	84 17       	cp	r24, r20
    3034:	95 07       	cpc	r25, r21
    3036:	39 f0       	breq	.+14     	; 0x3046 <ProcessInput+0x5e6>
    3038:	40 91 40 38 	lds	r20, 0x3840	; 0x803840 <inventory+0x2>
    303c:	50 91 41 38 	lds	r21, 0x3841	; 0x803841 <inventory+0x3>
    3040:	84 17       	cp	r24, r20
    3042:	95 07       	cpc	r25, r21
    3044:	c1 f4       	brne	.+48     	; 0x3076 <ProcessInput+0x616>
    return 0;
}

//
void SetResponse(uint8_t number, uint16_t address, uint16_t length, uint8_t type){
    reactStr[0][number]=address;
    3046:	8f e1       	ldi	r24, 0x1F	; 31
    3048:	98 e7       	ldi	r25, 0x78	; 120
    304a:	80 93 1f 39 	sts	0x391F, r24	; 0x80391f <reactStr+0x2>
    304e:	90 93 20 39 	sts	0x3920, r25	; 0x803920 <reactStr+0x3>
    reactStr[1][number]=length;
    3052:	85 e2       	ldi	r24, 0x25	; 37
    3054:	90 e0       	ldi	r25, 0x00	; 0
    3056:	80 93 5f 39 	sts	0x395F, r24	; 0x80395f <reactStr+0x42>
    305a:	90 93 60 39 	sts	0x3960, r25	; 0x803960 <reactStr+0x43>
    reactStr[2][number]=type;
    305e:	81 e0       	ldi	r24, 0x01	; 1
    3060:	90 e0       	ldi	r25, 0x00	; 0
    3062:	80 93 9f 39 	sts	0x399F, r24	; 0x80399f <reactStr+0x82>
    3066:	90 93 a0 39 	sts	0x39A0, r25	; 0x8039a0 <reactStr+0x83>
            } else {
                route[currDepth+1] = FindChild(route[currDepth], data[1], 0);
                if (route[currDepth+1]) {
                    if ((route[currDepth+1] == inventory[0])||(route[currDepth+1] == inventory[1])) {
                        SetResponse(elements++, A_ALREADYCARRYING, L_ALREADYCARRYING, TEASER);
                        route[currDepth+1] = 0;
    306a:	f9 01       	movw	r30, r18
    306c:	e3 52       	subi	r30, 0x23	; 35
    306e:	f6 4c       	sbci	r31, 0xC6	; 198
    3070:	10 82       	st	Z, r1
    3072:	11 82       	std	Z+1, r1	; 0x01
                    } else {
                        //Put item in the inventory if possible
                        PopulateObject(route[currDepth+1], &actObj1);  
    3074:	c3 cd       	rjmp	.-1146   	; 0x2bfc <ProcessInput+0x19c>
    3076:	6c ed       	ldi	r22, 0xDC	; 220
    3078:	78 e3       	ldi	r23, 0x38	; 56
    307a:	38 d8       	rcall	.-3984   	; 0x20ec <PopulateObject>
                        if (CheckState(actObj1.byteField[ACTION_ACL])) {
    307c:	80 91 e3 38 	lds	r24, 0x38E3	; 0x8038e3 <actObj1.3995+0x7>
    3080:	0e 94 b1 0a 	call	0x1562	; 0x1562 <CheckState>
    3084:	88 23       	and	r24, r24
    3086:	09 f4       	brne	.+2      	; 0x308a <ProcessInput+0x62a>
    3088:	75 c3       	rjmp	.+1770   	; 0x3774 <ProcessInput+0xd14>
                            if (actObj1.byteField[ITEM_NR]) {
    308a:	80 91 e7 38 	lds	r24, 0x38E7	; 0x8038e7 <actObj1.3995+0xb>
    308e:	88 23       	and	r24, r24
    3090:	09 f4       	brne	.+2      	; 0x3094 <ProcessInput+0x634>
    3092:	15 cd       	rjmp	.-1494   	; 0x2abe <ProcessInput+0x5e>
                                if (inventory[0]) {
    3094:	80 91 3e 38 	lds	r24, 0x383E	; 0x80383e <inventory>
    3098:	90 91 3f 38 	lds	r25, 0x383F	; 0x80383f <inventory+0x1>
    309c:	e0 91 2c 38 	lds	r30, 0x382C	; 0x80382c <currDepth>
                                    inventory[1] = route[currDepth+1];
    30a0:	f0 e0       	ldi	r31, 0x00	; 0
    30a2:	ee 0f       	add	r30, r30
    30a4:	ff 1f       	adc	r31, r31
    30a6:	e1 52       	subi	r30, 0x21	; 33
    30a8:	f6 4c       	sbci	r31, 0xC6	; 198
                    } else {
                        //Put item in the inventory if possible
                        PopulateObject(route[currDepth+1], &actObj1);  
                        if (CheckState(actObj1.byteField[ACTION_ACL])) {
                            if (actObj1.byteField[ITEM_NR]) {
                                if (inventory[0]) {
    30aa:	89 2b       	or	r24, r25
    30ac:	39 f0       	breq	.+14     	; 0x30bc <ProcessInput+0x65c>
                                    inventory[1] = route[currDepth+1];
    30ae:	80 81       	ld	r24, Z
    30b0:	91 81       	ldd	r25, Z+1	; 0x01
    30b2:	80 93 40 38 	sts	0x3840, r24	; 0x803840 <inventory+0x2>
    30b6:	90 93 41 38 	sts	0x3841, r25	; 0x803841 <inventory+0x3>
    30ba:	06 c0       	rjmp	.+12     	; 0x30c8 <ProcessInput+0x668>
                                } else {
                                    inventory[0] = route[currDepth+1];
    30bc:	80 81       	ld	r24, Z
    30be:	91 81       	ldd	r25, Z+1	; 0x01
    30c0:	80 93 3e 38 	sts	0x383E, r24	; 0x80383e <inventory>
    30c4:	90 93 3f 38 	sts	0x383F, r25	; 0x80383f <inventory+0x1>
    return 0;
}

//
void SetResponse(uint8_t number, uint16_t address, uint16_t length, uint8_t type){
    reactStr[0][number]=address;
    30c8:	89 e0       	ldi	r24, 0x09	; 9
    30ca:	98 e7       	ldi	r25, 0x78	; 120
    30cc:	80 93 1f 39 	sts	0x391F, r24	; 0x80391f <reactStr+0x2>
    30d0:	90 93 20 39 	sts	0x3920, r25	; 0x803920 <reactStr+0x3>
    reactStr[1][number]=length;
    30d4:	86 e1       	ldi	r24, 0x16	; 22
    30d6:	90 e0       	ldi	r25, 0x00	; 0
    30d8:	5e c2       	rjmp	.+1212   	; 0x3596 <ProcessInput+0xb36>
                } else SetResponse(elements++, A_NOSUCHOBJECT, L_NOSUCHOBJECT, TEASER);
            }
        } else

        //Drop item if in inventory
        if (data[0] == 'd') {
    30da:	84 36       	cpi	r24, 0x64	; 100
    30dc:	d9 f4       	brne	.+54     	; 0x3114 <ProcessInput+0x6b4>
            if ((inventory[0] == 0)&&(inventory[1] == 0)){
    30de:	80 91 3e 38 	lds	r24, 0x383E	; 0x80383e <inventory>
    30e2:	90 91 3f 38 	lds	r25, 0x383F	; 0x80383f <inventory+0x1>
    30e6:	00 97       	sbiw	r24, 0x00	; 0
    30e8:	09 f0       	breq	.+2      	; 0x30ec <ProcessInput+0x68c>
    30ea:	ec c4       	rjmp	.+2520   	; 0x3ac4 <ProcessInput+0x1064>
    30ec:	80 91 40 38 	lds	r24, 0x3840	; 0x803840 <inventory+0x2>
    30f0:	90 91 41 38 	lds	r25, 0x3841	; 0x803841 <inventory+0x3>
    30f4:	89 2b       	or	r24, r25
    30f6:	49 f4       	brne	.+18     	; 0x310a <ProcessInput+0x6aa>
    return 0;
}

//
void SetResponse(uint8_t number, uint16_t address, uint16_t length, uint8_t type){
    reactStr[0][number]=address;
    30f8:	83 ee       	ldi	r24, 0xE3	; 227
    30fa:	97 e7       	ldi	r25, 0x77	; 119
    30fc:	80 93 1f 39 	sts	0x391F, r24	; 0x80391f <reactStr+0x2>
    3100:	90 93 20 39 	sts	0x3920, r25	; 0x803920 <reactStr+0x3>
    reactStr[1][number]=length;
    3104:	86 e2       	ldi	r24, 0x26	; 38
    3106:	90 e0       	ldi	r25, 0x00	; 0
    3108:	6f cd       	rjmp	.-1314   	; 0x2be8 <ProcessInput+0x188>

        //Drop item if in inventory
        if (data[0] == 'd') {
            if ((inventory[0] == 0)&&(inventory[1] == 0)){
                SetResponse(elements++, A_EMPTYHANDS, L_EMPTYHANDS, TEASER);
            } else if (inputLen != 2) {
    310a:	b2 e0       	ldi	r27, 0x02	; 2
    310c:	fb 16       	cp	r15, r27
    310e:	09 f4       	brne	.+2      	; 0x3112 <ProcessInput+0x6b2>
    3110:	40 c5       	rjmp	.+2688   	; 0x3b92 <ProcessInput+0x1132>
    3112:	d5 cc       	rjmp	.-1622   	; 0x2abe <ProcessInput+0x5e>
                    if (x) SetResponse(elements++, A_NOTCARRYING, L_NOTCARRYING, TEASER);
                }
            }

        //Inventory list
        } else if (data[0] == 'i') {
    3114:	89 36       	cpi	r24, 0x69	; 105
    3116:	09 f0       	breq	.+2      	; 0x311a <ProcessInput+0x6ba>
    3118:	7b c0       	rjmp	.+246    	; 0x3210 <ProcessInput+0x7b0>
            if ((inventory[0] == 0)&&(inventory[1] == 0)){
    311a:	80 91 3e 38 	lds	r24, 0x383E	; 0x80383e <inventory>
    311e:	90 91 3f 38 	lds	r25, 0x383F	; 0x80383f <inventory+0x1>
    3122:	89 2b       	or	r24, r25
    3124:	31 f4       	brne	.+12     	; 0x3132 <ProcessInput+0x6d2>
    3126:	80 91 40 38 	lds	r24, 0x3840	; 0x803840 <inventory+0x2>
    312a:	90 91 41 38 	lds	r25, 0x3841	; 0x803841 <inventory+0x3>
    312e:	89 2b       	or	r24, r25
    3130:	19 f3       	breq	.-58     	; 0x30f8 <ProcessInput+0x698>
    return 0;
}

//
void SetResponse(uint8_t number, uint16_t address, uint16_t length, uint8_t type){
    reactStr[0][number]=address;
    3132:	89 e0       	ldi	r24, 0x09	; 9
    3134:	98 e7       	ldi	r25, 0x78	; 120
    3136:	80 93 1f 39 	sts	0x391F, r24	; 0x80391f <reactStr+0x2>
    313a:	90 93 20 39 	sts	0x3920, r25	; 0x803920 <reactStr+0x3>
    reactStr[1][number]=length;
    313e:	86 e1       	ldi	r24, 0x16	; 22
    3140:	90 e0       	ldi	r25, 0x00	; 0
    3142:	80 93 5f 39 	sts	0x395F, r24	; 0x80395f <reactStr+0x42>
    3146:	90 93 60 39 	sts	0x3960, r25	; 0x803960 <reactStr+0x43>
    reactStr[2][number]=type;
    314a:	81 e0       	ldi	r24, 0x01	; 1
    314c:	90 e0       	ldi	r25, 0x00	; 0
    314e:	80 93 9f 39 	sts	0x399F, r24	; 0x80399f <reactStr+0x82>
    3152:	90 93 a0 39 	sts	0x39A0, r25	; 0x8039a0 <reactStr+0x83>
    3156:	2e e3       	ldi	r18, 0x3E	; 62
    3158:	e2 2e       	mov	r14, r18
    315a:	28 e3       	ldi	r18, 0x38	; 56
    315c:	f2 2e       	mov	r15, r18
    315e:	32 e4       	ldi	r19, 0x42	; 66
    3160:	63 2e       	mov	r6, r19
    3162:	38 e3       	ldi	r19, 0x38	; 56
    3164:	73 2e       	mov	r7, r19
        //Inventory list
        } else if (data[0] == 'i') {
            if ((inventory[0] == 0)&&(inventory[1] == 0)){
                SetResponse(elements++, A_EMPTYHANDS, L_EMPTYHANDS, TEASER);
            } else {
                SetResponse(elements++, A_NOWCARRING, L_NOWCARRING, TEASER);
    3166:	42 e0       	ldi	r20, 0x02	; 2
    3168:	54 2e       	mov	r5, r20
    return 0;
}

//
void SetResponse(uint8_t number, uint16_t address, uint16_t length, uint8_t type){
    reactStr[0][number]=address;
    316a:	59 e5       	ldi	r21, 0x59	; 89
    316c:	c5 2e       	mov	r12, r21
    316e:	5a e7       	ldi	r21, 0x7A	; 122
    3170:	d5 2e       	mov	r13, r21
    reactStr[1][number]=length;
    3172:	62 e0       	ldi	r22, 0x02	; 2
    3174:	a6 2e       	mov	r10, r22
    3176:	b1 2c       	mov	r11, r1
    reactStr[2][number]=type;
    3178:	88 24       	eor	r8, r8
    317a:	83 94       	inc	r8
    317c:	91 2c       	mov	r9, r1
            } else {
                SetResponse(elements++, A_NOWCARRING, L_NOWCARRING, TEASER);
                //SetResponse(elements++, A_SPACE, L_SPACE, TEASER);
                
                for (uint8_t x=0; x<2; ++x) {
                    if (inventory[x]) {
    317e:	d7 01       	movw	r26, r14
    3180:	8d 91       	ld	r24, X+
    3182:	9d 91       	ld	r25, X+
    3184:	7d 01       	movw	r14, r26
    3186:	00 97       	sbiw	r24, 0x00	; 0
    3188:	d9 f1       	breq	.+118    	; 0x3200 <ProcessInput+0x7a0>
                        PopulateObject(inventory[x], &actObj1);
    318a:	6c ed       	ldi	r22, 0xDC	; 220
    318c:	78 e3       	ldi	r23, 0x38	; 56
    318e:	0e 94 76 10 	call	0x20ec	; 0x20ec <PopulateObject>
                        SetResponse(elements++, actObj1.addrStr[NAME], actObj1.lenStr[NAME], GAME);
    3192:	80 91 f6 38 	lds	r24, 0x38F6	; 0x8038f6 <actObj1.3995+0x1a>
    3196:	90 91 f7 38 	lds	r25, 0x38F7	; 0x8038f7 <actObj1.3995+0x1b>
    return 0;
}

//
void SetResponse(uint8_t number, uint16_t address, uint16_t length, uint8_t type){
    reactStr[0][number]=address;
    319a:	e5 2d       	mov	r30, r5
    319c:	f0 e0       	ldi	r31, 0x00	; 0
    319e:	df 01       	movw	r26, r30
    31a0:	aa 0f       	add	r26, r26
    31a2:	bb 1f       	adc	r27, r27
    31a4:	a3 5e       	subi	r26, 0xE3	; 227
    31a6:	b6 4c       	sbci	r27, 0xC6	; 198
    31a8:	20 91 e8 38 	lds	r18, 0x38E8	; 0x8038e8 <actObj1.3995+0xc>
    31ac:	30 91 e9 38 	lds	r19, 0x38E9	; 0x8038e9 <actObj1.3995+0xd>
    31b0:	2d 93       	st	X+, r18
    31b2:	3c 93       	st	X, r19
    reactStr[1][number]=length;
    31b4:	df 01       	movw	r26, r30
    31b6:	aa 0f       	add	r26, r26
    31b8:	bb 1f       	adc	r27, r27
    31ba:	a3 5a       	subi	r26, 0xA3	; 163
    31bc:	b6 4c       	sbci	r27, 0xC6	; 198
    31be:	8d 93       	st	X+, r24
    31c0:	9c 93       	st	X, r25
    reactStr[2][number]=type;
    31c2:	ee 0f       	add	r30, r30
    31c4:	ff 1f       	adc	r31, r31
    31c6:	e3 56       	subi	r30, 0x63	; 99
    31c8:	f6 4c       	sbci	r31, 0xC6	; 198
    31ca:	10 82       	st	Z, r1
    31cc:	11 82       	std	Z+1, r1	; 0x01
    return 0;
}

//
void SetResponse(uint8_t number, uint16_t address, uint16_t length, uint8_t type){
    reactStr[0][number]=address;
    31ce:	e1 e0       	ldi	r30, 0x01	; 1
    31d0:	e5 0d       	add	r30, r5
    31d2:	f0 e0       	ldi	r31, 0x00	; 0
    31d4:	53 94       	inc	r5
    31d6:	53 94       	inc	r5
    31d8:	df 01       	movw	r26, r30
    31da:	aa 0f       	add	r26, r26
    31dc:	bb 1f       	adc	r27, r27
    31de:	a3 5e       	subi	r26, 0xE3	; 227
    31e0:	b6 4c       	sbci	r27, 0xC6	; 198
    31e2:	cd 92       	st	X+, r12
    31e4:	dc 92       	st	X, r13
    reactStr[1][number]=length;
    31e6:	df 01       	movw	r26, r30
    31e8:	aa 0f       	add	r26, r26
    31ea:	bb 1f       	adc	r27, r27
    31ec:	a3 5a       	subi	r26, 0xA3	; 163
    31ee:	b6 4c       	sbci	r27, 0xC6	; 198
    31f0:	ad 92       	st	X+, r10
    31f2:	bc 92       	st	X, r11
    reactStr[2][number]=type;
    31f4:	ee 0f       	add	r30, r30
    31f6:	ff 1f       	adc	r31, r31
    31f8:	e3 56       	subi	r30, 0x63	; 99
    31fa:	f6 4c       	sbci	r31, 0xC6	; 198
    31fc:	80 82       	st	Z, r8
    31fe:	91 82       	std	Z+1, r9	; 0x01
                SetResponse(elements++, A_EMPTYHANDS, L_EMPTYHANDS, TEASER);
            } else {
                SetResponse(elements++, A_NOWCARRING, L_NOWCARRING, TEASER);
                //SetResponse(elements++, A_SPACE, L_SPACE, TEASER);
                
                for (uint8_t x=0; x<2; ++x) {
    3200:	6e 14       	cp	r6, r14
    3202:	7f 04       	cpc	r7, r15
    3204:	09 f0       	breq	.+2      	; 0x3208 <ProcessInput+0x7a8>
    3206:	bb cf       	rjmp	.-138    	; 0x317e <ProcessInput+0x71e>
                        SetResponse(elements++, actObj1.addrStr[NAME], actObj1.lenStr[NAME], GAME);
                        SetResponse(elements++, A_COMMA, L_COMMA, TEASER);
                        //SetResponse(elements++, A_SPACE, L_SPACE, TEASER);
                    }
                }
                elements -= 1;
    3208:	77 24       	eor	r7, r7
    320a:	7a 94       	dec	r7
    320c:	75 0c       	add	r7, r5
    320e:	25 c4       	rjmp	.+2122   	; 0x3a5a <ProcessInput+0xffa>
            }            
        
        //Talk, use, give, read
        } else if ((data[0] == 't')||(data[0] == 'u')||(data[0] == 'g')||(data[0] == 'r')) {
    3210:	9c e8       	ldi	r25, 0x8C	; 140
    3212:	98 0f       	add	r25, r24
    3214:	92 30       	cpi	r25, 0x02	; 2
    3216:	28 f0       	brcs	.+10     	; 0x3222 <ProcessInput+0x7c2>
    3218:	87 36       	cpi	r24, 0x67	; 103
    321a:	19 f0       	breq	.+6      	; 0x3222 <ProcessInput+0x7c2>
    321c:	82 37       	cpi	r24, 0x72	; 114
    321e:	09 f0       	breq	.+2      	; 0x3222 <ProcessInput+0x7c2>
    3220:	d7 c2       	rjmp	.+1454   	; 0x37d0 <ProcessInput+0xd70>
            if ((inputLen<2)||(inputLen>3)) {
    3222:	8e ef       	ldi	r24, 0xFE	; 254
    3224:	8f 0d       	add	r24, r15
    3226:	82 30       	cpi	r24, 0x02	; 2
    3228:	08 f0       	brcs	.+2      	; 0x322c <ProcessInput+0x7cc>
    322a:	49 cc       	rjmp	.-1902   	; 0x2abe <ProcessInput+0x5e>
                SetResponse(elements++, A_NOTPOSSIBLE, L_NOTPOSSIBLE, TEASER);                
            
            //Check for visible person or object first
            } else {
                route[currDepth+1] = FindChild(route[currDepth], data[inputLen-1], 0);
    322c:	e0 91 2c 38 	lds	r30, 0x382C	; 0x80382c <currDepth>
    3230:	ce 2e       	mov	r12, r30
    3232:	d1 2c       	mov	r13, r1
    3234:	d8 01       	movw	r26, r16
    3236:	af 0d       	add	r26, r15
    3238:	b1 1d       	adc	r27, r1
    323a:	11 97       	sbiw	r26, 0x01	; 1
    323c:	f6 01       	movw	r30, r12
    323e:	ee 0f       	add	r30, r30
    3240:	ff 1f       	adc	r31, r31
    3242:	e3 52       	subi	r30, 0x23	; 35
    3244:	f6 4c       	sbci	r31, 0xC6	; 198
    3246:	40 e0       	ldi	r20, 0x00	; 0
    3248:	50 e0       	ldi	r21, 0x00	; 0
    324a:	6c 91       	ld	r22, X
    324c:	80 81       	ld	r24, Z
    324e:	91 81       	ldd	r25, Z+1	; 0x01
    3250:	18 d8       	rcall	.-4048   	; 0x2282 <FindChild>
    3252:	f6 01       	movw	r30, r12
    3254:	ee 0f       	add	r30, r30
    3256:	ff 1f       	adc	r31, r31
    3258:	e1 52       	subi	r30, 0x21	; 33
    325a:	f6 4c       	sbci	r31, 0xC6	; 198
    325c:	80 83       	st	Z, r24
    325e:	91 83       	std	Z+1, r25	; 0x01
                if (route[currDepth+1]) {
    3260:	e0 91 2c 38 	lds	r30, 0x382C	; 0x80382c <currDepth>
    3264:	f0 e0       	ldi	r31, 0x00	; 0
    3266:	ee 0f       	add	r30, r30
    3268:	ff 1f       	adc	r31, r31
    326a:	e1 52       	subi	r30, 0x21	; 33
    326c:	f6 4c       	sbci	r31, 0xC6	; 198
    326e:	80 81       	ld	r24, Z
    3270:	91 81       	ldd	r25, Z+1	; 0x01
    3272:	00 97       	sbiw	r24, 0x00	; 0
    3274:	09 f4       	brne	.+2      	; 0x3278 <ProcessInput+0x818>
    3276:	9a c2       	rjmp	.+1332   	; 0x37ac <ProcessInput+0xd4c>
                    
                    //Give item to person / use item on object 
                    if ((inputLen == 3)&&((data[0] == 'u')||(data[0] == 'g'))) {
    3278:	b3 e0       	ldi	r27, 0x03	; 3
    327a:	fb 12       	cpse	r15, r27
    327c:	78 c1       	rjmp	.+752    	; 0x356e <ProcessInput+0xb0e>
    327e:	f8 01       	movw	r30, r16
    3280:	20 81       	ld	r18, Z
    3282:	25 37       	cpi	r18, 0x75	; 117
    3284:	19 f0       	breq	.+6      	; 0x328c <ProcessInput+0x82c>
    3286:	27 36       	cpi	r18, 0x67	; 103
    3288:	09 f0       	breq	.+2      	; 0x328c <ProcessInput+0x82c>
    328a:	71 c1       	rjmp	.+738    	; 0x356e <ProcessInput+0xb0e>
    328c:	61 2c       	mov	r6, r1
    328e:	77 24       	eor	r7, r7
    3290:	73 94       	inc	r7
    return 0;
}

//
void SetResponse(uint8_t number, uint16_t address, uint16_t length, uint8_t type){
    reactStr[0][number]=address;
    3292:	53 e6       	ldi	r21, 0x63	; 99
    3294:	c5 2e       	mov	r12, r21
    3296:	59 e7       	ldi	r21, 0x79	; 121
    3298:	d5 2e       	mov	r13, r21
    reactStr[1][number]=length;
    329a:	61 e2       	ldi	r22, 0x21	; 33
    329c:	a6 2e       	mov	r10, r22
    329e:	b1 2c       	mov	r11, r1
    reactStr[2][number]=type;
    32a0:	88 24       	eor	r8, r8
    32a2:	83 94       	inc	r8
    32a4:	91 2c       	mov	r9, r1
                if (route[currDepth+1]) {
                    
                    //Give item to person / use item on object 
                    if ((inputLen == 3)&&((data[0] == 'u')||(data[0] == 'g'))) {
                        for (uint8_t x=0; x<2; x++) {
                            if (inventory[x]) { 
    32a6:	e6 2c       	mov	r14, r6
    32a8:	f1 2c       	mov	r15, r1
    32aa:	c7 01       	movw	r24, r14
    32ac:	88 0f       	add	r24, r24
    32ae:	99 1f       	adc	r25, r25
    32b0:	9c 01       	movw	r18, r24
    32b2:	22 5c       	subi	r18, 0xC2	; 194
    32b4:	37 4c       	sbci	r19, 0xC7	; 199
    32b6:	79 01       	movw	r14, r18
    32b8:	d9 01       	movw	r26, r18
    32ba:	8d 91       	ld	r24, X+
    32bc:	9c 91       	ld	r25, X
    32be:	00 97       	sbiw	r24, 0x00	; 0
    32c0:	81 f0       	breq	.+32     	; 0x32e2 <ProcessInput+0x882>
                                if (CheckLetter(inventory[x], data[1])) {
    32c2:	f8 01       	movw	r30, r16
    32c4:	61 81       	ldd	r22, Z+1	; 0x01
    32c6:	0e 94 ed 10 	call	0x21da	; 0x21da <CheckLetter>
    32ca:	88 23       	and	r24, r24
    32cc:	51 f0       	breq	.+20     	; 0x32e2 <ProcessInput+0x882>
                                    PopulateObject(inventory[x], &actObj2);
    32ce:	61 eb       	ldi	r22, 0xB1	; 177
    32d0:	78 e3       	ldi	r23, 0x38	; 56
    32d2:	d7 01       	movw	r26, r14
    32d4:	8d 91       	ld	r24, X+
    32d6:	9c 91       	ld	r25, X
    32d8:	0e 94 76 10 	call	0x20ec	; 0x20ec <PopulateObject>
                                    x = 2;
    32dc:	32 e0       	ldi	r19, 0x02	; 2
    32de:	63 2e       	mov	r6, r19
    32e0:	1e c0       	rjmp	.+60     	; 0x331e <ProcessInput+0x8be>
                                }
                            }
                            if (x == 1) { 
    32e2:	b1 e0       	ldi	r27, 0x01	; 1
    32e4:	6b 12       	cpse	r6, r27
    32e6:	1a c0       	rjmp	.+52     	; 0x331c <ProcessInput+0x8bc>
    return 0;
}

//
void SetResponse(uint8_t number, uint16_t address, uint16_t length, uint8_t type){
    reactStr[0][number]=address;
    32e8:	e7 2d       	mov	r30, r7
    32ea:	f0 e0       	ldi	r31, 0x00	; 0
    32ec:	df 01       	movw	r26, r30
    32ee:	aa 0f       	add	r26, r26
    32f0:	bb 1f       	adc	r27, r27
    32f2:	a3 5e       	subi	r26, 0xE3	; 227
    32f4:	b6 4c       	sbci	r27, 0xC6	; 198
    32f6:	cd 92       	st	X+, r12
    32f8:	dc 92       	st	X, r13
    reactStr[1][number]=length;
    32fa:	df 01       	movw	r26, r30
    32fc:	aa 0f       	add	r26, r26
    32fe:	bb 1f       	adc	r27, r27
    3300:	a3 5a       	subi	r26, 0xA3	; 163
    3302:	b6 4c       	sbci	r27, 0xC6	; 198
    3304:	ad 92       	st	X+, r10
    3306:	bc 92       	st	X, r11
    reactStr[2][number]=type;
    3308:	ee 0f       	add	r30, r30
    330a:	ff 1f       	adc	r31, r31
    330c:	e3 56       	subi	r30, 0x63	; 99
    330e:	f6 4c       	sbci	r31, 0xC6	; 198
    3310:	80 82       	st	Z, r8
    3312:	91 82       	std	Z+1, r9	; 0x01
                                    x = 2;
                                }
                            }
                            if (x == 1) { 
                                SetResponse(elements++, A_NOTCARRYING, L_NOTCARRYING, TEASER);
                                data[0] = 0;
    3314:	f8 01       	movw	r30, r16
    3316:	10 82       	st	Z, r1
                                    PopulateObject(inventory[x], &actObj2);
                                    x = 2;
                                }
                            }
                            if (x == 1) { 
                                SetResponse(elements++, A_NOTCARRYING, L_NOTCARRYING, TEASER);
    3318:	73 94       	inc	r7
    331a:	01 c0       	rjmp	.+2      	; 0x331e <ProcessInput+0x8be>
    331c:	61 2c       	mov	r6, r1
                route[currDepth+1] = FindChild(route[currDepth], data[inputLen-1], 0);
                if (route[currDepth+1]) {
                    
                    //Give item to person / use item on object 
                    if ((inputLen == 3)&&((data[0] == 'u')||(data[0] == 'g'))) {
                        for (uint8_t x=0; x<2; x++) {
    331e:	63 94       	inc	r6
    3320:	f1 e0       	ldi	r31, 0x01	; 1
    3322:	6f 16       	cp	r6, r31
    3324:	09 f4       	brne	.+2      	; 0x3328 <ProcessInput+0x8c8>
    3326:	bf cf       	rjmp	.-130    	; 0x32a6 <ProcessInput+0x846>
                                data[0] = 0;
                            }
                        }

                        //Both the item and person/object are found, check if action is legit
                        if (data[0]){
    3328:	d8 01       	movw	r26, r16
    332a:	8c 91       	ld	r24, X
    332c:	88 23       	and	r24, r24
    332e:	09 f4       	brne	.+2      	; 0x3332 <ProcessInput+0x8d2>
    3330:	94 c3       	rjmp	.+1832   	; 0x3a5a <ProcessInput+0xffa>
                            PopulateObject(route[currDepth+1], &actObj1);
    3332:	e0 91 2c 38 	lds	r30, 0x382C	; 0x80382c <currDepth>
    3336:	f0 e0       	ldi	r31, 0x00	; 0
    3338:	ee 0f       	add	r30, r30
    333a:	ff 1f       	adc	r31, r31
    333c:	e1 52       	subi	r30, 0x21	; 33
    333e:	f6 4c       	sbci	r31, 0xC6	; 198
    3340:	6c ed       	ldi	r22, 0xDC	; 220
    3342:	78 e3       	ldi	r23, 0x38	; 56
    3344:	80 81       	ld	r24, Z
    3346:	91 81       	ldd	r25, Z+1	; 0x01
    3348:	0e 94 76 10 	call	0x20ec	; 0x20ec <PopulateObject>

                            //Special game
                            if (actObj1.lenStr[ACTION_STR1] == 1) {
    334c:	e0 90 fa 38 	lds	r14, 0x38FA	; 0x8038fa <actObj1.3995+0x1e>
    3350:	f0 90 fb 38 	lds	r15, 0x38FB	; 0x8038fb <actObj1.3995+0x1f>
    3354:	b1 e0       	ldi	r27, 0x01	; 1
    3356:	eb 16       	cp	r14, r27
    3358:	f1 04       	cpc	r15, r1
    335a:	09 f0       	breq	.+2      	; 0x335e <ProcessInput+0x8fe>
    335c:	9a c0       	rjmp	.+308    	; 0x3492 <ProcessInput+0xa32>
                                ExtEERead(actObj1.addrStr[ACTION_STR1], 1, GAME, &data[2]);
    335e:	98 01       	movw	r18, r16
    3360:	2e 5f       	subi	r18, 0xFE	; 254
    3362:	3f 4f       	sbci	r19, 0xFF	; 255
    3364:	40 e0       	ldi	r20, 0x00	; 0
    3366:	61 e0       	ldi	r22, 0x01	; 1
    3368:	80 91 ec 38 	lds	r24, 0x38EC	; 0x8038ec <actObj1.3995+0x10>
    336c:	90 91 ed 38 	lds	r25, 0x38ED	; 0x8038ed <actObj1.3995+0x11>
    3370:	0e 94 6b 0f 	call	0x1ed6	; 0x1ed6 <ExtEERead>
                                if (data[2] == '1') {
    3374:	f8 01       	movw	r30, r16
    3376:	42 81       	ldd	r20, Z+2	; 0x02
    3378:	21 e0       	ldi	r18, 0x01	; 1
    337a:	27 0d       	add	r18, r7
    337c:	87 2d       	mov	r24, r7
    337e:	90 e0       	ldi	r25, 0x00	; 0
    3380:	41 33       	cpi	r20, 0x31	; 49
    3382:	09 f0       	breq	.+2      	; 0x3386 <ProcessInput+0x926>
    3384:	6b c0       	rjmp	.+214    	; 0x345c <ProcessInput+0x9fc>
                                    uint8_t item = actObj2.byteField[ITEM_NR];
    3386:	30 91 bc 38 	lds	r19, 0x38BC	; 0x8038bc <actObj2.3996+0xb>
                                    if ((item < 31)||(item > 34)) {
    338a:	51 ee       	ldi	r21, 0xE1	; 225
    338c:	53 0f       	add	r21, r19
    return 0;
}

//
void SetResponse(uint8_t number, uint16_t address, uint16_t length, uint8_t type){
    reactStr[0][number]=address;
    338e:	fc 01       	movw	r30, r24
    3390:	ee 0f       	add	r30, r30
    3392:	ff 1f       	adc	r31, r31
    3394:	e3 5e       	subi	r30, 0xE3	; 227
    3396:	f6 4c       	sbci	r31, 0xC6	; 198
                            //Special game
                            if (actObj1.lenStr[ACTION_STR1] == 1) {
                                ExtEERead(actObj1.addrStr[ACTION_STR1], 1, GAME, &data[2]);
                                if (data[2] == '1') {
                                    uint8_t item = actObj2.byteField[ITEM_NR];
                                    if ((item < 31)||(item > 34)) {
    3398:	54 30       	cpi	r21, 0x04	; 4
    339a:	60 f0       	brcs	.+24     	; 0x33b4 <ProcessInput+0x954>
    return 0;
}

//
void SetResponse(uint8_t number, uint16_t address, uint16_t length, uint8_t type){
    reactStr[0][number]=address;
    339c:	43 e0       	ldi	r20, 0x03	; 3
    339e:	59 e7       	ldi	r21, 0x79	; 121
    33a0:	40 83       	st	Z, r20
    33a2:	51 83       	std	Z+1, r21	; 0x01
    reactStr[1][number]=length;
    33a4:	fc 01       	movw	r30, r24
    33a6:	ee 0f       	add	r30, r30
    33a8:	ff 1f       	adc	r31, r31
    33aa:	e3 5a       	subi	r30, 0xA3	; 163
    33ac:	f6 4c       	sbci	r31, 0xC6	; 198
    33ae:	4a e1       	ldi	r20, 0x1A	; 26
    33b0:	50 e0       	ldi	r21, 0x00	; 0
    33b2:	64 c0       	rjmp	.+200    	; 0x347c <ProcessInput+0xa1c>
    return 0;
}

//
void SetResponse(uint8_t number, uint16_t address, uint16_t length, uint8_t type){
    reactStr[0][number]=address;
    33b4:	6d e8       	ldi	r22, 0x8D	; 141
    33b6:	75 e7       	ldi	r23, 0x75	; 117
    33b8:	60 83       	st	Z, r22
    33ba:	71 83       	std	Z+1, r23	; 0x01
    reactStr[1][number]=length;
    33bc:	fc 01       	movw	r30, r24
    33be:	ee 0f       	add	r30, r30
    33c0:	ff 1f       	adc	r31, r31
    33c2:	e3 5a       	subi	r30, 0xA3	; 163
    33c4:	f6 4c       	sbci	r31, 0xC6	; 198
    33c6:	62 eb       	ldi	r22, 0xB2	; 178
    33c8:	70 e0       	ldi	r23, 0x00	; 0
    33ca:	60 83       	st	Z, r22
    33cc:	71 83       	std	Z+1, r23	; 0x01
    reactStr[2][number]=type;
    33ce:	88 0f       	add	r24, r24
    33d0:	99 1f       	adc	r25, r25
    33d2:	fc 01       	movw	r30, r24
    33d4:	e3 56       	subi	r30, 0x63	; 99
    33d6:	f6 4c       	sbci	r31, 0xC6	; 198
    33d8:	e0 82       	st	Z, r14
    33da:	f1 82       	std	Z+1, r15	; 0x01
    return 0;
}

//
void SetResponse(uint8_t number, uint16_t address, uint16_t length, uint8_t type){
    reactStr[0][number]=address;
    33dc:	82 2f       	mov	r24, r18
    33de:	90 e0       	ldi	r25, 0x00	; 0
    33e0:	fc 01       	movw	r30, r24
    33e2:	ee 0f       	add	r30, r30
    33e4:	ff 1f       	adc	r31, r31
    33e6:	e3 5e       	subi	r30, 0xE3	; 227
    33e8:	f6 4c       	sbci	r31, 0xC6	; 198
    33ea:	6b e5       	ldi	r22, 0x5B	; 91
    33ec:	7a e7       	ldi	r23, 0x7A	; 122
    33ee:	60 83       	st	Z, r22
    33f0:	71 83       	std	Z+1, r23	; 0x01
    reactStr[1][number]=length;
    33f2:	fc 01       	movw	r30, r24
    33f4:	ee 0f       	add	r30, r30
    33f6:	ff 1f       	adc	r31, r31
    33f8:	e3 5a       	subi	r30, 0xA3	; 163
    33fa:	f6 4c       	sbci	r31, 0xC6	; 198
    33fc:	62 e0       	ldi	r22, 0x02	; 2
    33fe:	70 e0       	ldi	r23, 0x00	; 0
    3400:	60 83       	st	Z, r22
    3402:	71 83       	std	Z+1, r23	; 0x01
    reactStr[2][number]=type;
    3404:	88 0f       	add	r24, r24
    3406:	99 1f       	adc	r25, r25
    3408:	fc 01       	movw	r30, r24
    340a:	e3 56       	subi	r30, 0x63	; 99
    340c:	f6 4c       	sbci	r31, 0xC6	; 198
    340e:	e0 82       	st	Z, r14
    3410:	f1 82       	std	Z+1, r15	; 0x01
    return 0;
}

//
void SetResponse(uint8_t number, uint16_t address, uint16_t length, uint8_t type){
    reactStr[0][number]=address;
    3412:	82 e0       	ldi	r24, 0x02	; 2
    3414:	87 0d       	add	r24, r7
    3416:	90 e0       	ldi	r25, 0x00	; 0
    3418:	f3 e0       	ldi	r31, 0x03	; 3
    341a:	7f 0e       	add	r7, r31
    341c:	fc 01       	movw	r30, r24
    341e:	ee 0f       	add	r30, r30
    3420:	ff 1f       	adc	r31, r31
    3422:	e3 5e       	subi	r30, 0xE3	; 227
    3424:	f6 4c       	sbci	r31, 0xC6	; 198
    3426:	6f ea       	ldi	r22, 0xAF	; 175
    3428:	78 e7       	ldi	r23, 0x78	; 120
    342a:	60 83       	st	Z, r22
    342c:	71 83       	std	Z+1, r23	; 0x01
    reactStr[1][number]=length;
    342e:	fc 01       	movw	r30, r24
    3430:	ee 0f       	add	r30, r30
    3432:	ff 1f       	adc	r31, r31
    3434:	e3 5a       	subi	r30, 0xA3	; 163
    3436:	f6 4c       	sbci	r31, 0xC6	; 198
    3438:	62 e1       	ldi	r22, 0x12	; 18
    343a:	70 e0       	ldi	r23, 0x00	; 0
    343c:	60 83       	st	Z, r22
    343e:	71 83       	std	Z+1, r23	; 0x01
    reactStr[2][number]=type;
    3440:	88 0f       	add	r24, r24
    3442:	99 1f       	adc	r25, r25
    3444:	fc 01       	movw	r30, r24
    3446:	e3 56       	subi	r30, 0x63	; 99
    3448:	f6 4c       	sbci	r31, 0xC6	; 198
    344a:	e0 82       	st	Z, r14
    344c:	f1 82       	std	Z+1, r15	; 0x01
                                        SetResponse(elements++, A_CANTUSE, L_CANTUSE, TEASER);
                                    } else {
                                        SetResponse(elements++, A_PRIEST, L_PRIEST, TEASER);
                                        SetResponse(elements++, A_LF, 2, TEASER);
                                        SetResponse(elements++, A_RESPONSE, L_RESPONSE, TEASER);
                                        specialInput[0] = '1';
    344e:	40 93 0c 39 	sts	0x390C, r20	; 0x80390c <specialInput>
                                        specialInput[1] = item;
    3452:	30 93 0d 39 	sts	0x390D, r19	; 0x80390d <specialInput+0x1>
                                        specialInput[2] = 0;
    3456:	10 92 0e 39 	sts	0x390E, r1	; 0x80390e <specialInput+0x2>
    345a:	ff c2       	rjmp	.+1534   	; 0x3a5a <ProcessInput+0xffa>
    return 0;
}

//
void SetResponse(uint8_t number, uint16_t address, uint16_t length, uint8_t type){
    reactStr[0][number]=address;
    345c:	fc 01       	movw	r30, r24
    345e:	ee 0f       	add	r30, r30
    3460:	ff 1f       	adc	r31, r31
    3462:	e3 5e       	subi	r30, 0xE3	; 227
    3464:	f6 4c       	sbci	r31, 0xC6	; 198
    3466:	4f e3       	ldi	r20, 0x3F	; 63
    3468:	56 e7       	ldi	r21, 0x76	; 118
    346a:	40 83       	st	Z, r20
    346c:	51 83       	std	Z+1, r21	; 0x01
    reactStr[1][number]=length;
    346e:	fc 01       	movw	r30, r24
    3470:	ee 0f       	add	r30, r30
    3472:	ff 1f       	adc	r31, r31
    3474:	e3 5a       	subi	r30, 0xA3	; 163
    3476:	f6 4c       	sbci	r31, 0xC6	; 198
    3478:	42 e4       	ldi	r20, 0x42	; 66
    347a:	50 e0       	ldi	r21, 0x00	; 0
    347c:	40 83       	st	Z, r20
    347e:	51 83       	std	Z+1, r21	; 0x01
    reactStr[2][number]=type;
    3480:	88 0f       	add	r24, r24
    3482:	99 1f       	adc	r25, r25
    3484:	fc 01       	movw	r30, r24
    3486:	e3 56       	subi	r30, 0x63	; 99
    3488:	f6 4c       	sbci	r31, 0xC6	; 198
    348a:	e0 82       	st	Z, r14
    348c:	f1 82       	std	Z+1, r15	; 0x01
                                        specialInput[2] = 0;
                                    }

                                //There should not be another special
                                } else {
                                    SetResponse(elements++, A_ERROR, L_ERROR, TEASER);
    348e:	72 2e       	mov	r7, r18
    3490:	e4 c2       	rjmp	.+1480   	; 0x3a5a <ProcessInput+0xffa>
                                }

                            //Normal "use ... on ..." or "give ... to ..." action
                            } else if (actObj1.byteField[ACTION_ITEM] == actObj2.byteField[ITEM_NR]) {
    3492:	90 91 e5 38 	lds	r25, 0x38E5	; 0x8038e5 <actObj1.3995+0x9>
    3496:	80 91 bc 38 	lds	r24, 0x38BC	; 0x8038bc <actObj2.3996+0xb>
    349a:	98 13       	cpse	r25, r24
    349c:	2f c0       	rjmp	.+94     	; 0x34fc <ProcessInput+0xa9c>
                                SetResponse(elements++, actObj1.addrStr[ACTION_MSG], actObj1.lenStr[ACTION_MSG], GAME);
    349e:	20 91 02 39 	lds	r18, 0x3902	; 0x803902 <actObj1.3995+0x26>
    34a2:	30 91 03 39 	lds	r19, 0x3903	; 0x803903 <actObj1.3995+0x27>
    34a6:	ff 24       	eor	r15, r15
    34a8:	f3 94       	inc	r15
    34aa:	f7 0c       	add	r15, r7
    return 0;
}

//
void SetResponse(uint8_t number, uint16_t address, uint16_t length, uint8_t type){
    reactStr[0][number]=address;
    34ac:	87 2d       	mov	r24, r7
    34ae:	90 e0       	ldi	r25, 0x00	; 0
    34b0:	fc 01       	movw	r30, r24
    34b2:	ee 0f       	add	r30, r30
    34b4:	ff 1f       	adc	r31, r31
    34b6:	e3 5e       	subi	r30, 0xE3	; 227
    34b8:	f6 4c       	sbci	r31, 0xC6	; 198
    34ba:	40 91 f4 38 	lds	r20, 0x38F4	; 0x8038f4 <actObj1.3995+0x18>
    34be:	50 91 f5 38 	lds	r21, 0x38F5	; 0x8038f5 <actObj1.3995+0x19>
    34c2:	40 83       	st	Z, r20
    34c4:	51 83       	std	Z+1, r21	; 0x01
    reactStr[1][number]=length;
    34c6:	fc 01       	movw	r30, r24
    34c8:	ee 0f       	add	r30, r30
    34ca:	ff 1f       	adc	r31, r31
    34cc:	e3 5a       	subi	r30, 0xA3	; 163
    34ce:	f6 4c       	sbci	r31, 0xC6	; 198
    34d0:	20 83       	st	Z, r18
    34d2:	31 83       	std	Z+1, r19	; 0x01
    reactStr[2][number]=type;
    34d4:	88 0f       	add	r24, r24
    34d6:	99 1f       	adc	r25, r25
    34d8:	fc 01       	movw	r30, r24
    34da:	e3 56       	subi	r30, 0x63	; 99
    34dc:	f6 4c       	sbci	r31, 0xC6	; 198
    34de:	10 82       	st	Z, r1
    34e0:	11 82       	std	Z+1, r1	; 0x01
                                }

                            //Normal "use ... on ..." or "give ... to ..." action
                            } else if (actObj1.byteField[ACTION_ITEM] == actObj2.byteField[ITEM_NR]) {
                                SetResponse(elements++, actObj1.addrStr[ACTION_MSG], actObj1.lenStr[ACTION_MSG], GAME);
                                effect = actObj1.effect[2];
    34e2:	80 91 06 39 	lds	r24, 0x3906	; 0x803906 <actObj1.3995+0x2a>
    34e6:	90 e0       	ldi	r25, 0x00	; 0
    34e8:	80 93 3a 38 	sts	0x383A, r24	; 0x80383a <effect>
    34ec:	90 93 3b 38 	sts	0x383B, r25	; 0x80383b <effect+0x1>
                                UpdateState(actObj1.byteField[ACTION_STATE]);
    34f0:	80 91 e6 38 	lds	r24, 0x38E6	; 0x8038e6 <actObj1.3995+0xa>
    34f4:	0e 94 a7 0a 	call	0x154e	; 0x154e <UpdateState>
                                    SetResponse(elements++, A_ERROR, L_ERROR, TEASER);
                                }

                            //Normal "use ... on ..." or "give ... to ..." action
                            } else if (actObj1.byteField[ACTION_ITEM] == actObj2.byteField[ITEM_NR]) {
                                SetResponse(elements++, actObj1.addrStr[ACTION_MSG], actObj1.lenStr[ACTION_MSG], GAME);
    34f8:	7f 2c       	mov	r7, r15
    34fa:	af c2       	rjmp	.+1374   	; 0x3a5a <ProcessInput+0xffa>
                                effect = actObj1.effect[2];
                                UpdateState(actObj1.byteField[ACTION_STATE]);
                                
                            } else {
                                if (data[0] == 'u') {
    34fc:	d8 01       	movw	r26, r16
    34fe:	8c 91       	ld	r24, X
    3500:	85 37       	cpi	r24, 0x75	; 117
    3502:	99 f4       	brne	.+38     	; 0x352a <ProcessInput+0xaca>
    return 0;
}

//
void SetResponse(uint8_t number, uint16_t address, uint16_t length, uint8_t type){
    reactStr[0][number]=address;
    3504:	87 2d       	mov	r24, r7
    3506:	90 e0       	ldi	r25, 0x00	; 0
    3508:	fc 01       	movw	r30, r24
    350a:	ee 0f       	add	r30, r30
    350c:	ff 1f       	adc	r31, r31
    350e:	e3 5e       	subi	r30, 0xE3	; 227
    3510:	f6 4c       	sbci	r31, 0xC6	; 198
    3512:	23 e0       	ldi	r18, 0x03	; 3
    3514:	39 e7       	ldi	r19, 0x79	; 121
    3516:	20 83       	st	Z, r18
    3518:	31 83       	std	Z+1, r19	; 0x01
    reactStr[1][number]=length;
    351a:	fc 01       	movw	r30, r24
    351c:	ee 0f       	add	r30, r30
    351e:	ff 1f       	adc	r31, r31
    3520:	e3 5a       	subi	r30, 0xA3	; 163
    3522:	f6 4c       	sbci	r31, 0xC6	; 198
    3524:	2a e1       	ldi	r18, 0x1A	; 26
    3526:	30 e0       	ldi	r19, 0x00	; 0
    3528:	15 c0       	rjmp	.+42     	; 0x3554 <ProcessInput+0xaf4>
                                UpdateState(actObj1.byteField[ACTION_STATE]);
                                
                            } else {
                                if (data[0] == 'u') {
                                    SetResponse(elements++, A_CANTUSE, L_CANTUSE, TEASER);
                                } else if (data[0] == 'g') {
    352a:	87 36       	cpi	r24, 0x67	; 103
    352c:	09 f0       	breq	.+2      	; 0x3530 <ProcessInput+0xad0>
    352e:	95 c2       	rjmp	.+1322   	; 0x3a5a <ProcessInput+0xffa>
    return 0;
}

//
void SetResponse(uint8_t number, uint16_t address, uint16_t length, uint8_t type){
    reactStr[0][number]=address;
    3530:	87 2d       	mov	r24, r7
    3532:	90 e0       	ldi	r25, 0x00	; 0
    3534:	fc 01       	movw	r30, r24
    3536:	ee 0f       	add	r30, r30
    3538:	ff 1f       	adc	r31, r31
    353a:	e3 5e       	subi	r30, 0xE3	; 227
    353c:	f6 4c       	sbci	r31, 0xC6	; 198
    353e:	2c ed       	ldi	r18, 0xDC	; 220
    3540:	36 e7       	ldi	r19, 0x76	; 118
    3542:	20 83       	st	Z, r18
    3544:	31 83       	std	Z+1, r19	; 0x01
    reactStr[1][number]=length;
    3546:	fc 01       	movw	r30, r24
    3548:	ee 0f       	add	r30, r30
    354a:	ff 1f       	adc	r31, r31
    354c:	e3 5a       	subi	r30, 0xA3	; 163
    354e:	f6 4c       	sbci	r31, 0xC6	; 198
    3550:	28 e2       	ldi	r18, 0x28	; 40
    3552:	30 e0       	ldi	r19, 0x00	; 0
    3554:	20 83       	st	Z, r18
    3556:	31 83       	std	Z+1, r19	; 0x01
    reactStr[2][number]=type;
    3558:	88 0f       	add	r24, r24
    355a:	99 1f       	adc	r25, r25
    355c:	fc 01       	movw	r30, r24
    355e:	e3 56       	subi	r30, 0x63	; 99
    3560:	f6 4c       	sbci	r31, 0xC6	; 198
    3562:	81 e0       	ldi	r24, 0x01	; 1
    3564:	90 e0       	ldi	r25, 0x00	; 0
    3566:	80 83       	st	Z, r24
    3568:	91 83       	std	Z+1, r25	; 0x01
                                
                            } else {
                                if (data[0] == 'u') {
                                    SetResponse(elements++, A_CANTUSE, L_CANTUSE, TEASER);
                                } else if (data[0] == 'g') {
                                    SetResponse(elements++, A_CANTGIVE, L_CANTGIVE, TEASER);                                    
    356a:	73 94       	inc	r7
    356c:	76 c2       	rjmp	.+1260   	; 0x3a5a <ProcessInput+0xffa>
                            }
                        }
                    
                    //Talk to person, read or use object (without item)                          
                    } else {
                        PopulateObject(route[currDepth+1], &actObj1);
    356e:	6c ed       	ldi	r22, 0xDC	; 220
    3570:	78 e3       	ldi	r23, 0x38	; 56
    3572:	0e 94 76 10 	call	0x20ec	; 0x20ec <PopulateObject>
                        if ((data[0] == 't')&&((actObj1.byteField[ACTION_MASK]&TALK) == 0)) {
    3576:	f8 01       	movw	r30, r16
    3578:	80 81       	ld	r24, Z
    357a:	84 37       	cpi	r24, 0x74	; 116
    357c:	69 f5       	brne	.+90     	; 0x35d8 <ProcessInput+0xb78>
    357e:	80 91 e4 38 	lds	r24, 0x38E4	; 0x8038e4 <actObj1.3995+0x8>
    3582:	83 fd       	sbrc	r24, 3
    3584:	4a c0       	rjmp	.+148    	; 0x361a <ProcessInput+0xbba>
    return 0;
}

//
void SetResponse(uint8_t number, uint16_t address, uint16_t length, uint8_t type){
    reactStr[0][number]=address;
    3586:	8d e1       	ldi	r24, 0x1D	; 29
    3588:	99 e7       	ldi	r25, 0x79	; 121
    358a:	80 93 1f 39 	sts	0x391F, r24	; 0x80391f <reactStr+0x2>
    358e:	90 93 20 39 	sts	0x3920, r25	; 0x803920 <reactStr+0x3>
    reactStr[1][number]=length;
    3592:	8e e1       	ldi	r24, 0x1E	; 30
    3594:	90 e0       	ldi	r25, 0x00	; 0
    3596:	80 93 5f 39 	sts	0x395F, r24	; 0x80395f <reactStr+0x42>
    359a:	90 93 60 39 	sts	0x3960, r25	; 0x803960 <reactStr+0x43>
    reactStr[2][number]=type;
    359e:	81 e0       	ldi	r24, 0x01	; 1
    35a0:	90 e0       	ldi	r25, 0x00	; 0
    35a2:	80 93 9f 39 	sts	0x399F, r24	; 0x80399f <reactStr+0x82>
    35a6:	90 93 a0 39 	sts	0x39A0, r25	; 0x8039a0 <reactStr+0x83>
                    //Talk to person, read or use object (without item)                          
                    } else {
                        PopulateObject(route[currDepth+1], &actObj1);
                        if ((data[0] == 't')&&((actObj1.byteField[ACTION_MASK]&TALK) == 0)) {
                            SetResponse(elements++, A_WHYTALK, L_WHYTALK, TEASER);
                            SetResponse(elements++, actObj1.addrStr[NAME], actObj1.lenStr[NAME], GAME);
    35aa:	80 91 f6 38 	lds	r24, 0x38F6	; 0x8038f6 <actObj1.3995+0x1a>
    35ae:	90 91 f7 38 	lds	r25, 0x38F7	; 0x8038f7 <actObj1.3995+0x1b>
    return 0;
}

//
void SetResponse(uint8_t number, uint16_t address, uint16_t length, uint8_t type){
    reactStr[0][number]=address;
    35b2:	20 91 e8 38 	lds	r18, 0x38E8	; 0x8038e8 <actObj1.3995+0xc>
    35b6:	30 91 e9 38 	lds	r19, 0x38E9	; 0x8038e9 <actObj1.3995+0xd>
    35ba:	20 93 21 39 	sts	0x3921, r18	; 0x803921 <reactStr+0x4>
    35be:	30 93 22 39 	sts	0x3922, r19	; 0x803922 <reactStr+0x5>
    reactStr[1][number]=length;
    35c2:	80 93 61 39 	sts	0x3961, r24	; 0x803961 <reactStr+0x44>
    35c6:	90 93 62 39 	sts	0x3962, r25	; 0x803962 <reactStr+0x45>
    reactStr[2][number]=type;
    35ca:	10 92 a1 39 	sts	0x39A1, r1	; 0x8039a1 <reactStr+0x84>
    35ce:	10 92 a2 39 	sts	0x39A2, r1	; 0x8039a2 <reactStr+0x85>
                    //Talk to person, read or use object (without item)                          
                    } else {
                        PopulateObject(route[currDepth+1], &actObj1);
                        if ((data[0] == 't')&&((actObj1.byteField[ACTION_MASK]&TALK) == 0)) {
                            SetResponse(elements++, A_WHYTALK, L_WHYTALK, TEASER);
                            SetResponse(elements++, actObj1.addrStr[NAME], actObj1.lenStr[NAME], GAME);
    35d2:	e3 e0       	ldi	r30, 0x03	; 3
    35d4:	7e 2e       	mov	r7, r30
    35d6:	41 c2       	rjmp	.+1154   	; 0x3a5a <ProcessInput+0xffa>
                        } else if ((data[0] == 'u')&&((actObj1.byteField[ACTION_MASK]&USE) == 0)) {
    35d8:	85 37       	cpi	r24, 0x75	; 117
    35da:	69 f4       	brne	.+26     	; 0x35f6 <ProcessInput+0xb96>
    35dc:	80 91 e4 38 	lds	r24, 0x38E4	; 0x8038e4 <actObj1.3995+0x8>
    35e0:	84 fd       	sbrc	r24, 4
    35e2:	1b c0       	rjmp	.+54     	; 0x361a <ProcessInput+0xbba>
    return 0;
}

//
void SetResponse(uint8_t number, uint16_t address, uint16_t length, uint8_t type){
    reactStr[0][number]=address;
    35e4:	83 e0       	ldi	r24, 0x03	; 3
    35e6:	99 e7       	ldi	r25, 0x79	; 121
    35e8:	80 93 1f 39 	sts	0x391F, r24	; 0x80391f <reactStr+0x2>
    35ec:	90 93 20 39 	sts	0x3920, r25	; 0x803920 <reactStr+0x3>
    reactStr[1][number]=length;
    35f0:	8a e1       	ldi	r24, 0x1A	; 26
    35f2:	90 e0       	ldi	r25, 0x00	; 0
    35f4:	f9 ca       	rjmp	.-2574   	; 0x2be8 <ProcessInput+0x188>
                        if ((data[0] == 't')&&((actObj1.byteField[ACTION_MASK]&TALK) == 0)) {
                            SetResponse(elements++, A_WHYTALK, L_WHYTALK, TEASER);
                            SetResponse(elements++, actObj1.addrStr[NAME], actObj1.lenStr[NAME], GAME);
                        } else if ((data[0] == 'u')&&((actObj1.byteField[ACTION_MASK]&USE) == 0)) {
                            SetResponse(elements++, A_CANTUSE, L_CANTUSE, TEASER);
                        } else if ((data[0] == 'r')&&((actObj1.byteField[ACTION_MASK]&READ) == 0)) {
    35f6:	82 37       	cpi	r24, 0x72	; 114
    35f8:	69 f4       	brne	.+26     	; 0x3614 <ProcessInput+0xbb4>
    35fa:	80 91 e4 38 	lds	r24, 0x38E4	; 0x8038e4 <actObj1.3995+0x8>
    35fe:	85 fd       	sbrc	r24, 5
    3600:	0c c0       	rjmp	.+24     	; 0x361a <ProcessInput+0xbba>
    return 0;
}

//
void SetResponse(uint8_t number, uint16_t address, uint16_t length, uint8_t type){
    reactStr[0][number]=address;
    3602:	88 ee       	ldi	r24, 0xE8	; 232
    3604:	98 e7       	ldi	r25, 0x78	; 120
    3606:	80 93 1f 39 	sts	0x391F, r24	; 0x80391f <reactStr+0x2>
    360a:	90 93 20 39 	sts	0x3920, r25	; 0x803920 <reactStr+0x3>
    reactStr[1][number]=length;
    360e:	8b e1       	ldi	r24, 0x1B	; 27
    3610:	90 e0       	ldi	r25, 0x00	; 0
    3612:	ea ca       	rjmp	.-2604   	; 0x2be8 <ProcessInput+0x188>
                            SetResponse(elements++, actObj1.addrStr[NAME], actObj1.lenStr[NAME], GAME);
                        } else if ((data[0] == 'u')&&((actObj1.byteField[ACTION_MASK]&USE) == 0)) {
                            SetResponse(elements++, A_CANTUSE, L_CANTUSE, TEASER);
                        } else if ((data[0] == 'r')&&((actObj1.byteField[ACTION_MASK]&READ) == 0)) {
                            SetResponse(elements++, A_CANTREAD, L_CANTREAD, TEASER);
                        } else if (data[0] == 'g'){ 
    3614:	87 36       	cpi	r24, 0x67	; 103
    3616:	09 f4       	brne	.+2      	; 0x361a <ProcessInput+0xbba>
    3618:	52 ca       	rjmp	.-2908   	; 0x2abe <ProcessInput+0x5e>
                            SetResponse(elements++, A_NOTPOSSIBLE, L_NOTPOSSIBLE, TEASER);  
                        } else {

                            //Special game, not enough characters
                            if (actObj1.lenStr[ACTION_STR1] == 1) {
    361a:	e0 90 fa 38 	lds	r14, 0x38FA	; 0x8038fa <actObj1.3995+0x1e>
    361e:	f0 90 fb 38 	lds	r15, 0x38FB	; 0x8038fb <actObj1.3995+0x1f>
    3622:	f1 e0       	ldi	r31, 0x01	; 1
    3624:	ef 16       	cp	r14, r31
    3626:	f1 04       	cpc	r15, r1
    3628:	11 f5       	brne	.+68     	; 0x366e <ProcessInput+0xc0e>
                                ExtEERead(actObj1.addrStr[ACTION_STR1], 1, GAME, &data[2]);
    362a:	98 01       	movw	r18, r16
    362c:	2e 5f       	subi	r18, 0xFE	; 254
    362e:	3f 4f       	sbci	r19, 0xFF	; 255
    3630:	40 e0       	ldi	r20, 0x00	; 0
    3632:	61 e0       	ldi	r22, 0x01	; 1
    3634:	80 91 ec 38 	lds	r24, 0x38EC	; 0x8038ec <actObj1.3995+0x10>
    3638:	90 91 ed 38 	lds	r25, 0x38ED	; 0x8038ed <actObj1.3995+0x11>
    363c:	0e 94 6b 0f 	call	0x1ed6	; 0x1ed6 <ExtEERead>
                                if (data[2] == '1') {
    3640:	d8 01       	movw	r26, r16
    3642:	12 96       	adiw	r26, 0x02	; 2
    3644:	8c 91       	ld	r24, X
    3646:	81 33       	cpi	r24, 0x31	; 49
    3648:	09 f0       	breq	.+2      	; 0x364c <ProcessInput+0xbec>
    364a:	8a cc       	rjmp	.-1772   	; 0x2f60 <ProcessInput+0x500>
    return 0;
}

//
void SetResponse(uint8_t number, uint16_t address, uint16_t length, uint8_t type){
    reactStr[0][number]=address;
    364c:	82 e6       	ldi	r24, 0x62	; 98
    364e:	95 e7       	ldi	r25, 0x75	; 117
    3650:	80 93 1f 39 	sts	0x391F, r24	; 0x80391f <reactStr+0x2>
    3654:	90 93 20 39 	sts	0x3920, r25	; 0x803920 <reactStr+0x3>
    reactStr[1][number]=length;
    3658:	8b e2       	ldi	r24, 0x2B	; 43
    365a:	90 e0       	ldi	r25, 0x00	; 0
    365c:	80 93 5f 39 	sts	0x395F, r24	; 0x80395f <reactStr+0x42>
    3660:	90 93 60 39 	sts	0x3960, r25	; 0x803960 <reactStr+0x43>
    reactStr[2][number]=type;
    3664:	e0 92 9f 39 	sts	0x399F, r14	; 0x80399f <reactStr+0x82>
    3668:	f0 92 a0 39 	sts	0x39A0, r15	; 0x8039a0 <reactStr+0x83>
    366c:	c7 ca       	rjmp	.-2674   	; 0x2bfc <ProcessInput+0x19c>
                                if (data[2] == '1') {
                                    SetResponse(elements++, A_PLEASEOFFER, L_PLEASEOFFER, TEASER);
                                }

                            //General request
                            } else if (actObj1.lenStr[ACTION_STR1]) {
    366e:	e1 14       	cp	r14, r1
    3670:	f1 04       	cpc	r15, r1
    3672:	09 f4       	brne	.+2      	; 0x3676 <ProcessInput+0xc16>
    3674:	59 c0       	rjmp	.+178    	; 0x3728 <ProcessInput+0xcc8>
    return 0;
}

//
void SetResponse(uint8_t number, uint16_t address, uint16_t length, uint8_t type){
    reactStr[0][number]=address;
    3676:	80 91 ec 38 	lds	r24, 0x38EC	; 0x8038ec <actObj1.3995+0x10>
    367a:	90 91 ed 38 	lds	r25, 0x38ED	; 0x8038ed <actObj1.3995+0x11>
    367e:	80 93 1f 39 	sts	0x391F, r24	; 0x80391f <reactStr+0x2>
    3682:	90 93 20 39 	sts	0x3920, r25	; 0x803920 <reactStr+0x3>
    reactStr[1][number]=length;
    3686:	e0 92 5f 39 	sts	0x395F, r14	; 0x80395f <reactStr+0x42>
    368a:	f0 92 60 39 	sts	0x3960, r15	; 0x803960 <reactStr+0x43>
    reactStr[2][number]=type;
    368e:	10 92 9f 39 	sts	0x399F, r1	; 0x80399f <reactStr+0x82>
    3692:	10 92 a0 39 	sts	0x39A0, r1	; 0x8039a0 <reactStr+0x83>
    return 0;
}

//
void SetResponse(uint8_t number, uint16_t address, uint16_t length, uint8_t type){
    reactStr[0][number]=address;
    3696:	8b e5       	ldi	r24, 0x5B	; 91
    3698:	9a e7       	ldi	r25, 0x7A	; 122
    369a:	80 93 21 39 	sts	0x3921, r24	; 0x803921 <reactStr+0x4>
    369e:	90 93 22 39 	sts	0x3922, r25	; 0x803922 <reactStr+0x5>
    reactStr[1][number]=length;
    36a2:	82 e0       	ldi	r24, 0x02	; 2
    36a4:	90 e0       	ldi	r25, 0x00	; 0
    36a6:	80 93 61 39 	sts	0x3961, r24	; 0x803961 <reactStr+0x44>
    36aa:	90 93 62 39 	sts	0x3962, r25	; 0x803962 <reactStr+0x45>
    reactStr[2][number]=type;
    36ae:	81 e0       	ldi	r24, 0x01	; 1
    36b0:	90 e0       	ldi	r25, 0x00	; 0
    36b2:	80 93 a1 39 	sts	0x39A1, r24	; 0x8039a1 <reactStr+0x84>
    36b6:	90 93 a2 39 	sts	0x39A2, r25	; 0x8039a2 <reactStr+0x85>
    return 0;
}

//
void SetResponse(uint8_t number, uint16_t address, uint16_t length, uint8_t type){
    reactStr[0][number]=address;
    36ba:	2f ea       	ldi	r18, 0xAF	; 175
    36bc:	38 e7       	ldi	r19, 0x78	; 120
    36be:	20 93 23 39 	sts	0x3923, r18	; 0x803923 <reactStr+0x6>
    36c2:	30 93 24 39 	sts	0x3924, r19	; 0x803924 <reactStr+0x7>
    reactStr[1][number]=length;
    36c6:	22 e1       	ldi	r18, 0x12	; 18
    36c8:	30 e0       	ldi	r19, 0x00	; 0
    36ca:	20 93 63 39 	sts	0x3963, r18	; 0x803963 <reactStr+0x46>
    36ce:	30 93 64 39 	sts	0x3964, r19	; 0x803964 <reactStr+0x47>
    reactStr[2][number]=type;
    36d2:	80 93 a3 39 	sts	0x39A3, r24	; 0x8039a3 <reactStr+0x86>
    36d6:	90 93 a4 39 	sts	0x39A4, r25	; 0x8039a4 <reactStr+0x87>
                            //General request
                            } else if (actObj1.lenStr[ACTION_STR1]) {
                                SetResponse(elements++, actObj1.addrStr[ACTION_STR1], actObj1.lenStr[ACTION_STR1], GAME);
                                SetResponse(elements++, A_LF, 2, TEASER);
                                SetResponse(elements++, A_RESPONSE, L_RESPONSE, TEASER);
                                if (actObj1.lenStr[ACTION_STR2]>(INP_LENGTH-1)) actObj1.lenStr[ACTION_STR2] = (INP_LENGTH-1);
    36da:	80 91 fc 38 	lds	r24, 0x38FC	; 0x8038fc <actObj1.3995+0x20>
    36de:	90 91 fd 38 	lds	r25, 0x38FD	; 0x8038fd <actObj1.3995+0x21>
    36e2:	40 97       	sbiw	r24, 0x10	; 16
    36e4:	30 f0       	brcs	.+12     	; 0x36f2 <ProcessInput+0xc92>
    36e6:	8f e0       	ldi	r24, 0x0F	; 15
    36e8:	90 e0       	ldi	r25, 0x00	; 0
    36ea:	80 93 fc 38 	sts	0x38FC, r24	; 0x8038fc <actObj1.3995+0x20>
    36ee:	90 93 fd 38 	sts	0x38FD, r25	; 0x8038fd <actObj1.3995+0x21>
                                ExtEERead(actObj1.addrStr[ACTION_STR2], actObj1.lenStr[ACTION_STR2], GAME, (uint8_t *)&specialInput[0]);
    36f2:	2c e0       	ldi	r18, 0x0C	; 12
    36f4:	39 e3       	ldi	r19, 0x39	; 57
    36f6:	40 e0       	ldi	r20, 0x00	; 0
    36f8:	60 91 fc 38 	lds	r22, 0x38FC	; 0x8038fc <actObj1.3995+0x20>
    36fc:	80 91 ee 38 	lds	r24, 0x38EE	; 0x8038ee <actObj1.3995+0x12>
    3700:	90 91 ef 38 	lds	r25, 0x38EF	; 0x8038ef <actObj1.3995+0x13>
    3704:	0e 94 6b 0f 	call	0x1ed6	; 0x1ed6 <ExtEERead>
                                UnflipData(actObj1.lenStr[ACTION_STR2], (uint8_t *)&specialInput[0]);
    3708:	6c e0       	ldi	r22, 0x0C	; 12
    370a:	79 e3       	ldi	r23, 0x39	; 57
    370c:	80 91 fc 38 	lds	r24, 0x38FC	; 0x8038fc <actObj1.3995+0x20>
    3710:	0e 94 5e 0f 	call	0x1ebc	; 0x1ebc <UnflipData>
                                specialInput[actObj1.lenStr[ACTION_STR2]] = 0;
    3714:	e0 91 fc 38 	lds	r30, 0x38FC	; 0x8038fc <actObj1.3995+0x20>
    3718:	f0 91 fd 38 	lds	r31, 0x38FD	; 0x8038fd <actObj1.3995+0x21>
    371c:	e4 5f       	subi	r30, 0xF4	; 244
    371e:	f6 4c       	sbci	r31, 0xC6	; 198
    3720:	10 82       	st	Z, r1

                            //General request
                            } else if (actObj1.lenStr[ACTION_STR1]) {
                                SetResponse(elements++, actObj1.addrStr[ACTION_STR1], actObj1.lenStr[ACTION_STR1], GAME);
                                SetResponse(elements++, A_LF, 2, TEASER);
                                SetResponse(elements++, A_RESPONSE, L_RESPONSE, TEASER);
    3722:	74 e0       	ldi	r23, 0x04	; 4
    3724:	77 2e       	mov	r7, r23
    3726:	99 c1       	rjmp	.+818    	; 0x3a5a <ProcessInput+0xffa>
                                ExtEERead(actObj1.addrStr[ACTION_STR2], actObj1.lenStr[ACTION_STR2], GAME, (uint8_t *)&specialInput[0]);
                                UnflipData(actObj1.lenStr[ACTION_STR2], (uint8_t *)&specialInput[0]);
                                specialInput[actObj1.lenStr[ACTION_STR2]] = 0;
                            
                            //Normal action    
                            } else if (CheckState(actObj1.byteField[ACTION_ACL])){
    3728:	80 91 e3 38 	lds	r24, 0x38E3	; 0x8038e3 <actObj1.3995+0x7>
    372c:	0e 94 b1 0a 	call	0x1562	; 0x1562 <CheckState>
    3730:	88 23       	and	r24, r24
    3732:	01 f1       	breq	.+64     	; 0x3774 <ProcessInput+0xd14>
                                SetResponse(elements++, actObj1.addrStr[ACTION_MSG], actObj1.lenStr[ACTION_MSG], GAME);
    3734:	80 91 02 39 	lds	r24, 0x3902	; 0x803902 <actObj1.3995+0x26>
    3738:	90 91 03 39 	lds	r25, 0x3903	; 0x803903 <actObj1.3995+0x27>
    return 0;
}

//
void SetResponse(uint8_t number, uint16_t address, uint16_t length, uint8_t type){
    reactStr[0][number]=address;
    373c:	20 91 f4 38 	lds	r18, 0x38F4	; 0x8038f4 <actObj1.3995+0x18>
    3740:	30 91 f5 38 	lds	r19, 0x38F5	; 0x8038f5 <actObj1.3995+0x19>
    3744:	20 93 1f 39 	sts	0x391F, r18	; 0x80391f <reactStr+0x2>
    3748:	30 93 20 39 	sts	0x3920, r19	; 0x803920 <reactStr+0x3>
    reactStr[1][number]=length;
    374c:	80 93 5f 39 	sts	0x395F, r24	; 0x80395f <reactStr+0x42>
    3750:	90 93 60 39 	sts	0x3960, r25	; 0x803960 <reactStr+0x43>
    reactStr[2][number]=type;
    3754:	10 92 9f 39 	sts	0x399F, r1	; 0x80399f <reactStr+0x82>
    3758:	10 92 a0 39 	sts	0x39A0, r1	; 0x8039a0 <reactStr+0x83>
                                specialInput[actObj1.lenStr[ACTION_STR2]] = 0;
                            
                            //Normal action    
                            } else if (CheckState(actObj1.byteField[ACTION_ACL])){
                                SetResponse(elements++, actObj1.addrStr[ACTION_MSG], actObj1.lenStr[ACTION_MSG], GAME);
                                effect = actObj1.effect[2];
    375c:	80 91 06 39 	lds	r24, 0x3906	; 0x803906 <actObj1.3995+0x2a>
    3760:	90 e0       	ldi	r25, 0x00	; 0
    3762:	80 93 3a 38 	sts	0x383A, r24	; 0x80383a <effect>
    3766:	90 93 3b 38 	sts	0x383B, r25	; 0x80383b <effect+0x1>
                                UpdateState(actObj1.byteField[ACTION_STATE]);
    376a:	80 91 e6 38 	lds	r24, 0x38E6	; 0x8038e6 <actObj1.3995+0xa>
    376e:	0e 94 a7 0a 	call	0x154e	; 0x154e <UpdateState>
    3772:	44 ca       	rjmp	.-2936   	; 0x2bfc <ProcessInput+0x19c>
                            } else {
                                SetResponse(elements++, actObj1.addrStr[ACTION_ACL_MSG], actObj1.lenStr[ACTION_ACL_MSG], GAME);
    3774:	80 91 00 39 	lds	r24, 0x3900	; 0x803900 <actObj1.3995+0x24>
    3778:	90 91 01 39 	lds	r25, 0x3901	; 0x803901 <actObj1.3995+0x25>
    return 0;
}

//
void SetResponse(uint8_t number, uint16_t address, uint16_t length, uint8_t type){
    reactStr[0][number]=address;
    377c:	20 91 f2 38 	lds	r18, 0x38F2	; 0x8038f2 <actObj1.3995+0x16>
    3780:	30 91 f3 38 	lds	r19, 0x38F3	; 0x8038f3 <actObj1.3995+0x17>
    3784:	20 93 1f 39 	sts	0x391F, r18	; 0x80391f <reactStr+0x2>
    3788:	30 93 20 39 	sts	0x3920, r19	; 0x803920 <reactStr+0x3>
    reactStr[1][number]=length;
    378c:	80 93 5f 39 	sts	0x395F, r24	; 0x80395f <reactStr+0x42>
    3790:	90 93 60 39 	sts	0x3960, r25	; 0x803960 <reactStr+0x43>
    reactStr[2][number]=type;
    3794:	10 92 9f 39 	sts	0x399F, r1	; 0x80399f <reactStr+0x82>
    3798:	10 92 a0 39 	sts	0x39A0, r1	; 0x8039a0 <reactStr+0x83>
                                SetResponse(elements++, actObj1.addrStr[ACTION_MSG], actObj1.lenStr[ACTION_MSG], GAME);
                                effect = actObj1.effect[2];
                                UpdateState(actObj1.byteField[ACTION_STATE]);
                            } else {
                                SetResponse(elements++, actObj1.addrStr[ACTION_ACL_MSG], actObj1.lenStr[ACTION_ACL_MSG], GAME);
                                effect = actObj1.effect[1];
    379c:	80 91 05 39 	lds	r24, 0x3905	; 0x803905 <actObj1.3995+0x29>
    37a0:	90 e0       	ldi	r25, 0x00	; 0
    37a2:	80 93 3a 38 	sts	0x383A, r24	; 0x80383a <effect>
    37a6:	90 93 3b 38 	sts	0x383B, r25	; 0x80383b <effect+0x1>
    37aa:	28 ca       	rjmp	.-2992   	; 0x2bfc <ProcessInput+0x19c>
                        }
                    }

                //Person or object not found
                } else {
                    if ((data[0] == 't')||(data[0] == 'g')){
    37ac:	f8 01       	movw	r30, r16
    37ae:	80 81       	ld	r24, Z
    37b0:	84 37       	cpi	r24, 0x74	; 116
    37b2:	11 f0       	breq	.+4      	; 0x37b8 <ProcessInput+0xd58>
    37b4:	87 36       	cpi	r24, 0x67	; 103
    37b6:	19 f4       	brne	.+6      	; 0x37be <ProcessInput+0xd5e>
    return 0;
}

//
void SetResponse(uint8_t number, uint16_t address, uint16_t length, uint8_t type){
    reactStr[0][number]=address;
    37b8:	8b e3       	ldi	r24, 0x3B	; 59
    37ba:	99 e7       	ldi	r25, 0x79	; 121
    37bc:	02 c0       	rjmp	.+4      	; 0x37c2 <ProcessInput+0xd62>
    37be:	8f e4       	ldi	r24, 0x4F	; 79
    37c0:	99 e7       	ldi	r25, 0x79	; 121
    37c2:	80 93 1f 39 	sts	0x391F, r24	; 0x80391f <reactStr+0x2>
    37c6:	90 93 20 39 	sts	0x3920, r25	; 0x803920 <reactStr+0x3>
    reactStr[1][number]=length;
    37ca:	84 e1       	ldi	r24, 0x14	; 20
    37cc:	90 e0       	ldi	r25, 0x00	; 0
    37ce:	0c ca       	rjmp	.-3048   	; 0x2be8 <ProcessInput+0x188>
                    }
                }
            }
        
        //Special answer given
        } else if (data[0] == 'a'){
    37d0:	81 36       	cpi	r24, 0x61	; 97
    37d2:	09 f0       	breq	.+2      	; 0x37d6 <ProcessInput+0xd76>
    37d4:	c5 cb       	rjmp	.-2166   	; 0x2f60 <ProcessInput+0x500>
            
            //Priest offerings
            if (specialPassed >= 2) {
    37d6:	80 91 0b 39 	lds	r24, 0x390B	; 0x80390b <specialPassed>
    37da:	82 30       	cpi	r24, 0x02	; 2
    37dc:	08 f4       	brcc	.+2      	; 0x37e0 <ProcessInput+0xd80>
    37de:	cb c0       	rjmp	.+406    	; 0x3976 <ProcessInput+0xf16>
                if (data[1] > 0) {
    37e0:	d8 01       	movw	r26, r16
    37e2:	11 96       	adiw	r26, 0x01	; 1
    37e4:	2c 91       	ld	r18, X
    37e6:	22 23       	and	r18, r18
    37e8:	09 f4       	brne	.+2      	; 0x37ec <ProcessInput+0xd8c>
    37ea:	b2 c0       	rjmp	.+356    	; 0x3950 <ProcessInput+0xef0>

                    //uint8_t  digit[10] = {0, 0, 0, 0, 0, 0, 0, 0, 0, 0};
                    uint8_t  digit[8] = {0, 0, 0, 0, 0, 0, 0, 0};
    37ec:	fe 01       	movw	r30, r28
    37ee:	31 96       	adiw	r30, 0x01	; 1
    37f0:	7f 01       	movw	r14, r30
    37f2:	88 e0       	ldi	r24, 0x08	; 8
    37f4:	df 01       	movw	r26, r30
    37f6:	1d 92       	st	X+, r1
    37f8:	8a 95       	dec	r24
    37fa:	e9 f7       	brne	.-6      	; 0x37f6 <ProcessInput+0xd96>
                        answer = ((offering  & 2) << 19) + ((offering  & 1) << 8) + \
                        ((element   & 2) << 15) + ((element   & 1) << 4) + \
                        ((kneelings & 2) << 11) + ((kneelings & 1))
                        answer = answer << (3-person)
                    */
                    data[1]-='1';
    37fc:	21 53       	subi	r18, 0x31	; 49
    37fe:	f8 01       	movw	r30, r16
    3800:	21 83       	std	Z+1, r18	; 0x01
                    data[2]-='1';
    3802:	32 81       	ldd	r19, Z+2	; 0x02
    3804:	31 53       	subi	r19, 0x31	; 49
    3806:	32 83       	std	Z+2, r19	; 0x02
                    if (data[3] == 'a') data[3] = 1;
    3808:	83 81       	ldd	r24, Z+3	; 0x03
    380a:	81 36       	cpi	r24, 0x61	; 97
    380c:	11 f4       	brne	.+4      	; 0x3812 <ProcessInput+0xdb2>
    380e:	81 e0       	ldi	r24, 0x01	; 1
    3810:	08 c0       	rjmp	.+16     	; 0x3822 <ProcessInput+0xdc2>
                    else if (data[3] == 'e') data[3] = 0;
    3812:	85 36       	cpi	r24, 0x65	; 101
    3814:	11 f4       	brne	.+4      	; 0x381a <ProcessInput+0xdba>
    3816:	13 82       	std	Z+3, r1	; 0x03
    3818:	08 c0       	rjmp	.+16     	; 0x382a <ProcessInput+0xdca>
                    else if (data[3] == 'f') data[3] = 3;
    381a:	86 36       	cpi	r24, 0x66	; 102
    381c:	21 f4       	brne	.+8      	; 0x3826 <ProcessInput+0xdc6>
    381e:	83 e0       	ldi	r24, 0x03	; 3
    3820:	f8 01       	movw	r30, r16
    3822:	83 83       	std	Z+3, r24	; 0x03
    3824:	02 c0       	rjmp	.+4      	; 0x382a <ProcessInput+0xdca>
                    else data[3] = 2;
    3826:	82 e0       	ldi	r24, 0x02	; 2
    3828:	83 83       	std	Z+3, r24	; 0x03

                    if (data[1] & 2) answer += (1UL << 20);
    382a:	21 fd       	sbrc	r18, 1
    382c:	04 c0       	rjmp	.+8      	; 0x3836 <ProcessInput+0xdd6>
            if (specialPassed >= 2) {
                if (data[1] > 0) {

                    //uint8_t  digit[10] = {0, 0, 0, 0, 0, 0, 0, 0, 0, 0};
                    uint8_t  digit[8] = {0, 0, 0, 0, 0, 0, 0, 0};
                    uint32_t answer = 0;
    382e:	80 e0       	ldi	r24, 0x00	; 0
    3830:	90 e0       	ldi	r25, 0x00	; 0
    3832:	dc 01       	movw	r26, r24
    3834:	04 c0       	rjmp	.+8      	; 0x383e <ProcessInput+0xdde>
                    if (data[3] == 'a') data[3] = 1;
                    else if (data[3] == 'e') data[3] = 0;
                    else if (data[3] == 'f') data[3] = 3;
                    else data[3] = 2;

                    if (data[1] & 2) answer += (1UL << 20);
    3836:	80 e0       	ldi	r24, 0x00	; 0
    3838:	90 e0       	ldi	r25, 0x00	; 0
    383a:	a0 e1       	ldi	r26, 0x10	; 16
    383c:	b0 e0       	ldi	r27, 0x00	; 0
                    if (data[1] & 1) answer += (1 << 8);
    383e:	20 ff       	sbrs	r18, 0
    3840:	03 c0       	rjmp	.+6      	; 0x3848 <ProcessInput+0xde8>
    3842:	9f 5f       	subi	r25, 0xFF	; 255
    3844:	af 4f       	sbci	r26, 0xFF	; 255
    3846:	bf 4f       	sbci	r27, 0xFF	; 255
                    if (data[3] & 2) answer += (1UL << 16);
    3848:	f8 01       	movw	r30, r16
    384a:	23 81       	ldd	r18, Z+3	; 0x03
    384c:	21 fd       	sbrc	r18, 1
    384e:	11 96       	adiw	r26, 0x01	; 1
                    if (data[3] & 1) answer += (1 << 4);
    3850:	20 ff       	sbrs	r18, 0
    3852:	03 c0       	rjmp	.+6      	; 0x385a <ProcessInput+0xdfa>
    3854:	40 96       	adiw	r24, 0x10	; 16
    3856:	a1 1d       	adc	r26, r1
    3858:	b1 1d       	adc	r27, r1
                    if (data[2] & 2) answer += (1 << 12);
    385a:	31 ff       	sbrs	r19, 1
    385c:	03 c0       	rjmp	.+6      	; 0x3864 <ProcessInput+0xe04>
    385e:	90 5f       	subi	r25, 0xF0	; 240
    3860:	af 4f       	sbci	r26, 0xFF	; 255
    3862:	bf 4f       	sbci	r27, 0xFF	; 255
                    if (data[2] & 1) answer += 1;
    3864:	30 ff       	sbrs	r19, 0
    3866:	03 c0       	rjmp	.+6      	; 0x386e <ProcessInput+0xe0e>
    3868:	01 96       	adiw	r24, 0x01	; 1
    386a:	a1 1d       	adc	r26, r1
    386c:	b1 1d       	adc	r27, r1
                    answer <<= (4 - whoami);            
    386e:	40 91 3d 38 	lds	r20, 0x383D	; 0x80383d <whoami>
    3872:	24 e0       	ldi	r18, 0x04	; 4
    3874:	30 e0       	ldi	r19, 0x00	; 0
    3876:	24 1b       	sub	r18, r20
    3878:	31 09       	sbc	r19, r1
    387a:	04 c0       	rjmp	.+8      	; 0x3884 <ProcessInput+0xe24>
    387c:	88 0f       	add	r24, r24
    387e:	99 1f       	adc	r25, r25
    3880:	aa 1f       	adc	r26, r26
    3882:	bb 1f       	adc	r27, r27
    3884:	2a 95       	dec	r18
    3886:	d2 f7       	brpl	.-12     	; 0x387c <ProcessInput+0xe1c>
    return 0;
}

//
void SetResponse(uint8_t number, uint16_t address, uint16_t length, uint8_t type){
    reactStr[0][number]=address;
    3888:	25 e0       	ldi	r18, 0x05	; 5
    388a:	35 e7       	ldi	r19, 0x75	; 117
    388c:	20 93 1f 39 	sts	0x391F, r18	; 0x80391f <reactStr+0x2>
    3890:	30 93 20 39 	sts	0x3920, r19	; 0x803920 <reactStr+0x3>
    reactStr[1][number]=length;
    3894:	20 e2       	ldi	r18, 0x20	; 32
    3896:	30 e0       	ldi	r19, 0x00	; 0
    3898:	20 93 5f 39 	sts	0x395F, r18	; 0x80395f <reactStr+0x42>
    389c:	30 93 60 39 	sts	0x3960, r19	; 0x803960 <reactStr+0x43>
    reactStr[2][number]=type;
    38a0:	21 e0       	ldi	r18, 0x01	; 1
    38a2:	30 e0       	ldi	r19, 0x00	; 0
    38a4:	20 93 9f 39 	sts	0x399F, r18	; 0x80399f <reactStr+0x82>
    38a8:	30 93 a0 39 	sts	0x39A0, r19	; 0x8039a0 <reactStr+0x83>
    return 0;
}

//
void SetResponse(uint8_t number, uint16_t address, uint16_t length, uint8_t type){
    reactStr[0][number]=address;
    38ac:	4a ed       	ldi	r20, 0xDA	; 218
    38ae:	54 e7       	ldi	r21, 0x74	; 116
    38b0:	40 93 21 39 	sts	0x3921, r20	; 0x803921 <reactStr+0x4>
    38b4:	50 93 22 39 	sts	0x3922, r21	; 0x803922 <reactStr+0x5>
    reactStr[1][number]=length;
    38b8:	42 e0       	ldi	r20, 0x02	; 2
    38ba:	50 e0       	ldi	r21, 0x00	; 0
    38bc:	40 93 61 39 	sts	0x3961, r20	; 0x803961 <reactStr+0x44>
    38c0:	50 93 62 39 	sts	0x3962, r21	; 0x803962 <reactStr+0x45>
    reactStr[2][number]=type;
    38c4:	20 93 a1 39 	sts	0x39A1, r18	; 0x8039a1 <reactStr+0x84>
    38c8:	30 93 a2 39 	sts	0x39A2, r19	; 0x8039a2 <reactStr+0x85>

                    SetResponse(elements++, A_YOURPART, L_YOURPART, TEASER);
                    SetResponse(elements++, A_HEXPREFIX, L_HEXPREFIX, TEASER);
                    
                    //Set up sending out number
                    for (n=7; n>=0; --n) {
    38cc:	67 e0       	ldi	r22, 0x07	; 7
    38ce:	d6 2e       	mov	r13, r22
                        digit[n] = answer % 16;
    38d0:	f7 01       	movw	r30, r14
    38d2:	ed 0d       	add	r30, r13
    38d4:	f1 1d       	adc	r31, r1
    38d6:	28 2f       	mov	r18, r24
    38d8:	2f 70       	andi	r18, 0x0F	; 15
    38da:	20 83       	st	Z, r18
                        answer /= 16;
    38dc:	54 e0       	ldi	r21, 0x04	; 4
    38de:	b6 95       	lsr	r27
    38e0:	a7 95       	ror	r26
    38e2:	97 95       	ror	r25
    38e4:	87 95       	ror	r24
    38e6:	5a 95       	dec	r21
    38e8:	d1 f7       	brne	.-12     	; 0x38de <ProcessInput+0xe7e>
                        if (answer == 0) break;
    38ea:	00 97       	sbiw	r24, 0x00	; 0
    38ec:	a1 05       	cpc	r26, r1
    38ee:	b1 05       	cpc	r27, r1
    38f0:	51 f4       	brne	.+20     	; 0x3906 <ProcessInput+0xea6>
    38f2:	2d e1       	ldi	r18, 0x1D	; 29
    38f4:	a2 2e       	mov	r10, r18
    38f6:	29 e3       	ldi	r18, 0x39	; 57
    38f8:	b2 2e       	mov	r11, r18
    38fa:	33 e0       	ldi	r19, 0x03	; 3
    38fc:	73 2e       	mov	r7, r19
}

//
void SetResponse(uint8_t number, uint16_t address, uint16_t length, uint8_t type){
    reactStr[0][number]=address;
    reactStr[1][number]=length;
    38fe:	88 24       	eor	r8, r8
    3900:	83 94       	inc	r8
    3902:	91 2c       	mov	r9, r1
    3904:	02 c0       	rjmp	.+4      	; 0x390a <ProcessInput+0xeaa>

                    SetResponse(elements++, A_YOURPART, L_YOURPART, TEASER);
                    SetResponse(elements++, A_HEXPREFIX, L_HEXPREFIX, TEASER);
                    
                    //Set up sending out number
                    for (n=7; n>=0; --n) {
    3906:	da 94       	dec	r13
                        digit[n] = answer % 16;
                        answer /= 16;
                        if (answer == 0) break;
                    }
    3908:	e3 cf       	rjmp	.-58     	; 0x38d0 <ProcessInput+0xe70>
    390a:	b2 e0       	ldi	r27, 0x02	; 2
    390c:	ab 0e       	add	r10, r27
    390e:	b1 1c       	adc	r11, r1

                    for (; n<8; ++n) {
    3910:	e7 e0       	ldi	r30, 0x07	; 7
    3912:	ed 15       	cp	r30, r13
    3914:	08 f4       	brcc	.+2      	; 0x3918 <ProcessInput+0xeb8>
    3916:	9f c0       	rjmp	.+318    	; 0x3a56 <ProcessInput+0xff6>
                        SetResponse(elements++, A_DIGITS+digit[n], 1, TEASER);
    3918:	73 94       	inc	r7
    391a:	f7 01       	movw	r30, r14
    391c:	ed 0d       	add	r30, r13
    391e:	f1 1d       	adc	r31, r1
    return 0;
}

//
void SetResponse(uint8_t number, uint16_t address, uint16_t length, uint8_t type){
    reactStr[0][number]=address;
    3920:	80 81       	ld	r24, Z
    3922:	90 e0       	ldi	r25, 0x00	; 0
    3924:	86 53       	subi	r24, 0x36	; 54
    3926:	9b 48       	sbci	r25, 0x8B	; 139
    3928:	d5 01       	movw	r26, r10
    392a:	14 96       	adiw	r26, 0x04	; 4
    392c:	8d 93       	st	X+, r24
    392e:	9c 93       	st	X, r25
    3930:	15 97       	sbiw	r26, 0x05	; 5
    reactStr[1][number]=length;
    3932:	f5 01       	movw	r30, r10
    3934:	ec 5b       	subi	r30, 0xBC	; 188
    3936:	ff 4f       	sbci	r31, 0xFF	; 255
    3938:	80 82       	st	Z, r8
    393a:	91 82       	std	Z+1, r9	; 0x01
    reactStr[2][number]=type;
    393c:	e0 5c       	subi	r30, 0xC0	; 192
    393e:	ff 4f       	sbci	r31, 0xFF	; 255
    3940:	80 82       	st	Z, r8
    3942:	91 82       	std	Z+1, r9	; 0x01
                        if (answer == 0) break;
                    }

                    for (; n<8; ++n) {
                        SetResponse(elements++, A_DIGITS+digit[n], 1, TEASER);
                        UpdateState(actObj1.byteField[ACTION_STATE]);
    3944:	80 91 e6 38 	lds	r24, 0x38E6	; 0x8038e6 <actObj1.3995+0xa>
    3948:	0e 94 a7 0a 	call	0x154e	; 0x154e <UpdateState>
                        digit[n] = answer % 16;
                        answer /= 16;
                        if (answer == 0) break;
                    }

                    for (; n<8; ++n) {
    394c:	d3 94       	inc	r13
    394e:	dd cf       	rjmp	.-70     	; 0x390a <ProcessInput+0xeaa>
    return 0;
}

//
void SetResponse(uint8_t number, uint16_t address, uint16_t length, uint8_t type){
    reactStr[0][number]=address;
    3950:	85 e2       	ldi	r24, 0x25	; 37
    3952:	95 e7       	ldi	r25, 0x75	; 117
    3954:	80 93 1f 39 	sts	0x391F, r24	; 0x80391f <reactStr+0x2>
    3958:	90 93 20 39 	sts	0x3920, r25	; 0x803920 <reactStr+0x3>
    reactStr[1][number]=length;
    395c:	8d e3       	ldi	r24, 0x3D	; 61
    395e:	90 e0       	ldi	r25, 0x00	; 0
    3960:	80 93 5f 39 	sts	0x395F, r24	; 0x80395f <reactStr+0x42>
    3964:	90 93 60 39 	sts	0x3960, r25	; 0x803960 <reactStr+0x43>
    reactStr[2][number]=type;
    3968:	81 e0       	ldi	r24, 0x01	; 1
    396a:	90 e0       	ldi	r25, 0x00	; 0
    396c:	80 93 9f 39 	sts	0x399F, r24	; 0x80399f <reactStr+0x82>
    3970:	90 93 a0 39 	sts	0x39A0, r25	; 0x8039a0 <reactStr+0x83>
    3974:	6e c0       	rjmp	.+220    	; 0x3a52 <ProcessInput+0xff2>
    3976:	e0 91 2c 38 	lds	r30, 0x382C	; 0x80382c <currDepth>
                    SetResponse(elements++, A_BADOFFERING, L_BADOFFERING, TEASER);
                }
            
            //Other questions    
            } else if (specialPassed == 1) {
                PopulateObject(route[currDepth+1], &actObj1);
    397a:	f0 e0       	ldi	r31, 0x00	; 0
    397c:	ee 0f       	add	r30, r30
    397e:	ff 1f       	adc	r31, r31
    3980:	e1 52       	subi	r30, 0x21	; 33
    3982:	f6 4c       	sbci	r31, 0xC6	; 198
    3984:	6c ed       	ldi	r22, 0xDC	; 220
    3986:	78 e3       	ldi	r23, 0x38	; 56
                } else {
                    SetResponse(elements++, A_BADOFFERING, L_BADOFFERING, TEASER);
                }
            
            //Other questions    
            } else if (specialPassed == 1) {
    3988:	81 30       	cpi	r24, 0x01	; 1
    398a:	09 f0       	breq	.+2      	; 0x398e <ProcessInput+0xf2e>
    398c:	46 c0       	rjmp	.+140    	; 0x3a1a <ProcessInput+0xfba>
                PopulateObject(route[currDepth+1], &actObj1);
    398e:	80 81       	ld	r24, Z
    3990:	91 81       	ldd	r25, Z+1	; 0x01
    3992:	0e 94 76 10 	call	0x20ec	; 0x20ec <PopulateObject>
                if (CheckState(actObj1.byteField[ACTION_ACL])){
    3996:	80 91 e3 38 	lds	r24, 0x38E3	; 0x8038e3 <actObj1.3995+0x7>
    399a:	0e 94 b1 0a 	call	0x1562	; 0x1562 <CheckState>
    399e:	88 23       	and	r24, r24
    39a0:	01 f1       	breq	.+64     	; 0x39e2 <ProcessInput+0xf82>
                    SetResponse(elements++, actObj1.addrStr[ACTION_MSG], actObj1.lenStr[ACTION_MSG], GAME);
    39a2:	80 91 02 39 	lds	r24, 0x3902	; 0x803902 <actObj1.3995+0x26>
    39a6:	90 91 03 39 	lds	r25, 0x3903	; 0x803903 <actObj1.3995+0x27>
    return 0;
}

//
void SetResponse(uint8_t number, uint16_t address, uint16_t length, uint8_t type){
    reactStr[0][number]=address;
    39aa:	20 91 f4 38 	lds	r18, 0x38F4	; 0x8038f4 <actObj1.3995+0x18>
    39ae:	30 91 f5 38 	lds	r19, 0x38F5	; 0x8038f5 <actObj1.3995+0x19>
    39b2:	20 93 1f 39 	sts	0x391F, r18	; 0x80391f <reactStr+0x2>
    39b6:	30 93 20 39 	sts	0x3920, r19	; 0x803920 <reactStr+0x3>
    reactStr[1][number]=length;
    39ba:	80 93 5f 39 	sts	0x395F, r24	; 0x80395f <reactStr+0x42>
    39be:	90 93 60 39 	sts	0x3960, r25	; 0x803960 <reactStr+0x43>
    reactStr[2][number]=type;
    39c2:	10 92 9f 39 	sts	0x399F, r1	; 0x80399f <reactStr+0x82>
    39c6:	10 92 a0 39 	sts	0x39A0, r1	; 0x8039a0 <reactStr+0x83>
            //Other questions    
            } else if (specialPassed == 1) {
                PopulateObject(route[currDepth+1], &actObj1);
                if (CheckState(actObj1.byteField[ACTION_ACL])){
                    SetResponse(elements++, actObj1.addrStr[ACTION_MSG], actObj1.lenStr[ACTION_MSG], GAME);
                    effect = actObj1.effect[2];
    39ca:	80 91 06 39 	lds	r24, 0x3906	; 0x803906 <actObj1.3995+0x2a>
    39ce:	90 e0       	ldi	r25, 0x00	; 0
    39d0:	80 93 3a 38 	sts	0x383A, r24	; 0x80383a <effect>
    39d4:	90 93 3b 38 	sts	0x383B, r25	; 0x80383b <effect+0x1>
                    UpdateState(actObj1.byteField[ACTION_STATE]);
    39d8:	80 91 e6 38 	lds	r24, 0x38E6	; 0x8038e6 <actObj1.3995+0xa>
    39dc:	0e 94 a7 0a 	call	0x154e	; 0x154e <UpdateState>
    39e0:	38 c0       	rjmp	.+112    	; 0x3a52 <ProcessInput+0xff2>
                } else {
                    SetResponse(elements++, actObj1.addrStr[ACTION_ACL_MSG], actObj1.lenStr[ACTION_ACL_MSG], GAME);
    39e2:	80 91 00 39 	lds	r24, 0x3900	; 0x803900 <actObj1.3995+0x24>
    39e6:	90 91 01 39 	lds	r25, 0x3901	; 0x803901 <actObj1.3995+0x25>
    return 0;
}

//
void SetResponse(uint8_t number, uint16_t address, uint16_t length, uint8_t type){
    reactStr[0][number]=address;
    39ea:	20 91 f2 38 	lds	r18, 0x38F2	; 0x8038f2 <actObj1.3995+0x16>
    39ee:	30 91 f3 38 	lds	r19, 0x38F3	; 0x8038f3 <actObj1.3995+0x17>
    39f2:	20 93 1f 39 	sts	0x391F, r18	; 0x80391f <reactStr+0x2>
    39f6:	30 93 20 39 	sts	0x3920, r19	; 0x803920 <reactStr+0x3>
    reactStr[1][number]=length;
    39fa:	80 93 5f 39 	sts	0x395F, r24	; 0x80395f <reactStr+0x42>
    39fe:	90 93 60 39 	sts	0x3960, r25	; 0x803960 <reactStr+0x43>
    reactStr[2][number]=type;
    3a02:	10 92 9f 39 	sts	0x399F, r1	; 0x80399f <reactStr+0x82>
    3a06:	10 92 a0 39 	sts	0x39A0, r1	; 0x8039a0 <reactStr+0x83>
                    SetResponse(elements++, actObj1.addrStr[ACTION_MSG], actObj1.lenStr[ACTION_MSG], GAME);
                    effect = actObj1.effect[2];
                    UpdateState(actObj1.byteField[ACTION_STATE]);
                } else {
                    SetResponse(elements++, actObj1.addrStr[ACTION_ACL_MSG], actObj1.lenStr[ACTION_ACL_MSG], GAME);
                    effect = actObj1.effect[1];
    3a0a:	80 91 05 39 	lds	r24, 0x3905	; 0x803905 <actObj1.3995+0x29>
    3a0e:	90 e0       	ldi	r25, 0x00	; 0
    3a10:	80 93 3a 38 	sts	0x383A, r24	; 0x80383a <effect>
    3a14:	90 93 3b 38 	sts	0x383B, r25	; 0x80383b <effect+0x1>
    3a18:	1c c0       	rjmp	.+56     	; 0x3a52 <ProcessInput+0xff2>
                }

            } else {
                PopulateObject(route[currDepth+1], &actObj1);
    3a1a:	80 81       	ld	r24, Z
    3a1c:	91 81       	ldd	r25, Z+1	; 0x01
    3a1e:	0e 94 76 10 	call	0x20ec	; 0x20ec <PopulateObject>
    return 0;
}

//
void SetResponse(uint8_t number, uint16_t address, uint16_t length, uint8_t type){
    reactStr[0][number]=address;
    3a22:	8d e9       	ldi	r24, 0x9D	; 157
    3a24:	98 e7       	ldi	r25, 0x78	; 120
    3a26:	80 93 1f 39 	sts	0x391F, r24	; 0x80391f <reactStr+0x2>
    3a2a:	90 93 20 39 	sts	0x3920, r25	; 0x803920 <reactStr+0x3>
    reactStr[1][number]=length;
    3a2e:	82 e1       	ldi	r24, 0x12	; 18
    3a30:	90 e0       	ldi	r25, 0x00	; 0
    3a32:	80 93 5f 39 	sts	0x395F, r24	; 0x80395f <reactStr+0x42>
    3a36:	90 93 60 39 	sts	0x3960, r25	; 0x803960 <reactStr+0x43>
    reactStr[2][number]=type;
    3a3a:	81 e0       	ldi	r24, 0x01	; 1
    3a3c:	90 e0       	ldi	r25, 0x00	; 0
    3a3e:	80 93 9f 39 	sts	0x399F, r24	; 0x80399f <reactStr+0x82>
    3a42:	90 93 a0 39 	sts	0x39A0, r25	; 0x8039a0 <reactStr+0x83>
                }

            } else {
                PopulateObject(route[currDepth+1], &actObj1);
                SetResponse(elements++, A_INCORRECT, L_INCORRECT, TEASER);
                PunishmentTime = getClock();
    3a46:	0e 94 bf 0d 	call	0x1b7e	; 0x1b7e <getClock>
    3a4a:	80 93 09 39 	sts	0x3909, r24	; 0x803909 <PunishmentTime>
    3a4e:	90 93 0a 39 	sts	0x390A, r25	; 0x80390a <PunishmentTime+0x1>
                    effect = actObj1.effect[1];
                }

            } else {
                PopulateObject(route[currDepth+1], &actObj1);
                SetResponse(elements++, A_INCORRECT, L_INCORRECT, TEASER);
    3a52:	82 e0       	ldi	r24, 0x02	; 2
    3a54:	78 2e       	mov	r7, r24
                PunishmentTime = getClock();
            }
            specialInput[0] = 0;
    3a56:	10 92 0c 39 	sts	0x390C, r1	; 0x80390c <specialInput>
    return 0;
}

//
void SetResponse(uint8_t number, uint16_t address, uint16_t length, uint8_t type){
    reactStr[0][number]=address;
    3a5a:	8b e5       	ldi	r24, 0x5B	; 91
    3a5c:	9a e7       	ldi	r25, 0x7A	; 122
    3a5e:	80 93 1d 39 	sts	0x391D, r24	; 0x80391d <reactStr>
    3a62:	90 93 1e 39 	sts	0x391E, r25	; 0x80391e <reactStr+0x1>
    reactStr[1][number]=length;
    3a66:	82 e0       	ldi	r24, 0x02	; 2
    3a68:	90 e0       	ldi	r25, 0x00	; 0
    3a6a:	80 93 5d 39 	sts	0x395D, r24	; 0x80395d <reactStr+0x40>
    3a6e:	90 93 5e 39 	sts	0x395E, r25	; 0x80395e <reactStr+0x41>
    reactStr[2][number]=type;
    3a72:	81 e0       	ldi	r24, 0x01	; 1
    3a74:	90 e0       	ldi	r25, 0x00	; 0
    3a76:	80 93 9d 39 	sts	0x399D, r24	; 0x80399d <reactStr+0x80>
    3a7a:	90 93 9e 39 	sts	0x399E, r25	; 0x80399e <reactStr+0x81>
               
        }
            
        //Input handled
        SetResponse(0, A_LF, 2, TEASER);
        if (specialInput[0]) responseList = elements; else responseList = SetStandardResponse(elements);
    3a7e:	80 91 0c 39 	lds	r24, 0x390C	; 0x80390c <specialInput>
    3a82:	88 23       	and	r24, r24
    3a84:	19 f0       	breq	.+6      	; 0x3a8c <ProcessInput+0x102c>
    3a86:	70 92 1c 39 	sts	0x391C, r7	; 0x80391c <responseList>
    3a8a:	9b c0       	rjmp	.+310    	; 0x3bc2 <ProcessInput+0x1162>
    3a8c:	87 2d       	mov	r24, r7
    3a8e:	12 c0       	rjmp	.+36     	; 0x3ab4 <ProcessInput+0x1054>
    return 0;
}

//
void SetResponse(uint8_t number, uint16_t address, uint16_t length, uint8_t type){
    reactStr[0][number]=address;
    3a90:	8b e5       	ldi	r24, 0x5B	; 91
    3a92:	9a e7       	ldi	r25, 0x7A	; 122
    3a94:	80 93 1d 39 	sts	0x391D, r24	; 0x80391d <reactStr>
    3a98:	90 93 1e 39 	sts	0x391E, r25	; 0x80391e <reactStr+0x1>
    reactStr[1][number]=length;
    3a9c:	82 e0       	ldi	r24, 0x02	; 2
    3a9e:	90 e0       	ldi	r25, 0x00	; 0
    3aa0:	80 93 5d 39 	sts	0x395D, r24	; 0x80395d <reactStr+0x40>
    3aa4:	90 93 5e 39 	sts	0x395E, r25	; 0x80395e <reactStr+0x41>
    reactStr[2][number]=type;
    3aa8:	81 e0       	ldi	r24, 0x01	; 1
    3aaa:	90 e0       	ldi	r25, 0x00	; 0
    3aac:	80 93 9d 39 	sts	0x399D, r24	; 0x80399d <reactStr+0x80>
    3ab0:	90 93 9e 39 	sts	0x399E, r25	; 0x80399e <reactStr+0x81>
        SetResponse(0, A_LF, 2, TEASER);
        if (specialInput[0]) responseList = elements; else responseList = SetStandardResponse(elements);

    } else {
        SetResponse(0, A_LF, 2, TEASER);
        responseList = SetStandardResponse(1);
    3ab4:	0e 94 fa 0f 	call	0x1ff4	; 0x1ff4 <SetStandardResponse>
    3ab8:	80 93 1c 39 	sts	0x391C, r24	; 0x80391c <responseList>
    3abc:	82 c0       	rjmp	.+260    	; 0x3bc2 <ProcessInput+0x1162>
    return 0;
}

//
void SetResponse(uint8_t number, uint16_t address, uint16_t length, uint8_t type){
    reactStr[0][number]=address;
    3abe:	83 ed       	ldi	r24, 0xD3	; 211
    3ac0:	99 e7       	ldi	r25, 0x79	; 121
    3ac2:	92 cd       	rjmp	.-1244   	; 0x35e8 <ProcessInput+0xb88>

        //Drop item if in inventory
        if (data[0] == 'd') {
            if ((inventory[0] == 0)&&(inventory[1] == 0)){
                SetResponse(elements++, A_EMPTYHANDS, L_EMPTYHANDS, TEASER);
            } else if (inputLen != 2) {
    3ac4:	b2 e0       	ldi	r27, 0x02	; 2
    3ac6:	fb 12       	cpse	r15, r27
    3ac8:	0c 94 5f 15 	jmp	0x2abe	; 0x2abe <ProcessInput+0x5e>
                SetResponse(elements++, A_NOTPOSSIBLE, L_NOTPOSSIBLE, TEASER);
            } else {
                for (uint8_t x=0; x<2; ++x) {
                    if (inventory[x]) {
                        if (CheckLetter(inventory[x], data[1])) {
    3acc:	d8 01       	movw	r26, r16
    3ace:	11 96       	adiw	r26, 0x01	; 1
    3ad0:	6c 91       	ld	r22, X
    3ad2:	0e 94 ed 10 	call	0x21da	; 0x21da <CheckLetter>
    3ad6:	88 23       	and	r24, r24
    3ad8:	09 f4       	brne	.+2      	; 0x3adc <ProcessInput+0x107c>
    3ada:	5b c0       	rjmp	.+182    	; 0x3b92 <ProcessInput+0x1132>
                SetResponse(elements++, A_EMPTYHANDS, L_EMPTYHANDS, TEASER);
            } else if (inputLen != 2) {
                SetResponse(elements++, A_NOTPOSSIBLE, L_NOTPOSSIBLE, TEASER);
            } else {
                for (uint8_t x=0; x<2; ++x) {
                    if (inventory[x]) {
    3adc:	80 e0       	ldi	r24, 0x00	; 0
    3ade:	90 e0       	ldi	r25, 0x00	; 0
                        if (CheckLetter(inventory[x], data[1])) {
                            PopulateObject(inventory[x], &actObj1);
    3ae0:	88 0f       	add	r24, r24
    3ae2:	99 1f       	adc	r25, r25
    3ae4:	9c 01       	movw	r18, r24
    3ae6:	22 5c       	subi	r18, 0xC2	; 194
    3ae8:	37 4c       	sbci	r19, 0xC7	; 199
    3aea:	79 01       	movw	r14, r18
    3aec:	6c ed       	ldi	r22, 0xDC	; 220
    3aee:	78 e3       	ldi	r23, 0x38	; 56
    3af0:	d9 01       	movw	r26, r18
    3af2:	8d 91       	ld	r24, X+
    3af4:	9c 91       	ld	r25, X
    3af6:	0e 94 76 10 	call	0x20ec	; 0x20ec <PopulateObject>
    return 0;
}

//
void SetResponse(uint8_t number, uint16_t address, uint16_t length, uint8_t type){
    reactStr[0][number]=address;
    3afa:	83 ed       	ldi	r24, 0xD3	; 211
    3afc:	97 e7       	ldi	r25, 0x77	; 119
    3afe:	80 93 1f 39 	sts	0x391F, r24	; 0x80391f <reactStr+0x2>
    3b02:	90 93 20 39 	sts	0x3920, r25	; 0x803920 <reactStr+0x3>
    reactStr[1][number]=length;
    3b06:	80 e1       	ldi	r24, 0x10	; 16
    3b08:	90 e0       	ldi	r25, 0x00	; 0
    3b0a:	80 93 5f 39 	sts	0x395F, r24	; 0x80395f <reactStr+0x42>
    3b0e:	90 93 60 39 	sts	0x3960, r25	; 0x803960 <reactStr+0x43>
    reactStr[2][number]=type;
    3b12:	81 e0       	ldi	r24, 0x01	; 1
    3b14:	90 e0       	ldi	r25, 0x00	; 0
    3b16:	80 93 9f 39 	sts	0x399F, r24	; 0x80399f <reactStr+0x82>
    3b1a:	90 93 a0 39 	sts	0x39A0, r25	; 0x8039a0 <reactStr+0x83>
                for (uint8_t x=0; x<2; ++x) {
                    if (inventory[x]) {
                        if (CheckLetter(inventory[x], data[1])) {
                            PopulateObject(inventory[x], &actObj1);
                            SetResponse(elements++, A_DROPPING, L_DROPPING, TEASER);
                            SetResponse(elements++, actObj1.addrStr[NAME], actObj1.lenStr[NAME], GAME);
    3b1e:	20 91 f6 38 	lds	r18, 0x38F6	; 0x8038f6 <actObj1.3995+0x1a>
    3b22:	30 91 f7 38 	lds	r19, 0x38F7	; 0x8038f7 <actObj1.3995+0x1b>
    return 0;
}

//
void SetResponse(uint8_t number, uint16_t address, uint16_t length, uint8_t type){
    reactStr[0][number]=address;
    3b26:	40 91 e8 38 	lds	r20, 0x38E8	; 0x8038e8 <actObj1.3995+0xc>
    3b2a:	50 91 e9 38 	lds	r21, 0x38E9	; 0x8038e9 <actObj1.3995+0xd>
    3b2e:	40 93 21 39 	sts	0x3921, r20	; 0x803921 <reactStr+0x4>
    3b32:	50 93 22 39 	sts	0x3922, r21	; 0x803922 <reactStr+0x5>
    reactStr[1][number]=length;
    3b36:	20 93 61 39 	sts	0x3961, r18	; 0x803961 <reactStr+0x44>
    3b3a:	30 93 62 39 	sts	0x3962, r19	; 0x803962 <reactStr+0x45>
    reactStr[2][number]=type;
    3b3e:	10 92 a1 39 	sts	0x39A1, r1	; 0x8039a1 <reactStr+0x84>
    3b42:	10 92 a2 39 	sts	0x39A2, r1	; 0x8039a2 <reactStr+0x85>
    return 0;
}

//
void SetResponse(uint8_t number, uint16_t address, uint16_t length, uint8_t type){
    reactStr[0][number]=address;
    3b46:	2b e5       	ldi	r18, 0x5B	; 91
    3b48:	3a e7       	ldi	r19, 0x7A	; 122
    3b4a:	20 93 23 39 	sts	0x3923, r18	; 0x803923 <reactStr+0x6>
    3b4e:	30 93 24 39 	sts	0x3924, r19	; 0x803924 <reactStr+0x7>
    reactStr[1][number]=length;
    3b52:	22 e0       	ldi	r18, 0x02	; 2
    3b54:	30 e0       	ldi	r19, 0x00	; 0
    3b56:	20 93 63 39 	sts	0x3963, r18	; 0x803963 <reactStr+0x46>
    3b5a:	30 93 64 39 	sts	0x3964, r19	; 0x803964 <reactStr+0x47>
    reactStr[2][number]=type;
    3b5e:	80 93 a3 39 	sts	0x39A3, r24	; 0x8039a3 <reactStr+0x86>
    3b62:	90 93 a4 39 	sts	0x39A4, r25	; 0x8039a4 <reactStr+0x87>
    return 0;
}

//
void SetResponse(uint8_t number, uint16_t address, uint16_t length, uint8_t type){
    reactStr[0][number]=address;
    3b66:	26 e9       	ldi	r18, 0x96	; 150
    3b68:	37 e7       	ldi	r19, 0x77	; 119
    3b6a:	20 93 25 39 	sts	0x3925, r18	; 0x803925 <reactStr+0x8>
    3b6e:	30 93 26 39 	sts	0x3926, r19	; 0x803926 <reactStr+0x9>
    reactStr[1][number]=length;
    3b72:	2d e3       	ldi	r18, 0x3D	; 61
    3b74:	30 e0       	ldi	r19, 0x00	; 0
    3b76:	20 93 65 39 	sts	0x3965, r18	; 0x803965 <reactStr+0x48>
    3b7a:	30 93 66 39 	sts	0x3966, r19	; 0x803966 <reactStr+0x49>
    reactStr[2][number]=type;
    3b7e:	80 93 a5 39 	sts	0x39A5, r24	; 0x8039a5 <reactStr+0x88>
    3b82:	90 93 a6 39 	sts	0x39A6, r25	; 0x8039a6 <reactStr+0x89>
                            PopulateObject(inventory[x], &actObj1);
                            SetResponse(elements++, A_DROPPING, L_DROPPING, TEASER);
                            SetResponse(elements++, actObj1.addrStr[NAME], actObj1.lenStr[NAME], GAME);
                            SetResponse(elements++, A_LF, 2, TEASER);
                            SetResponse(elements++, A_RETURNING, L_RETURNING, TEASER);
                            inventory[x] = 0;
    3b86:	f7 01       	movw	r30, r14
    3b88:	10 82       	st	Z, r1
    3b8a:	11 82       	std	Z+1, r1	; 0x01
                        if (CheckLetter(inventory[x], data[1])) {
                            PopulateObject(inventory[x], &actObj1);
                            SetResponse(elements++, A_DROPPING, L_DROPPING, TEASER);
                            SetResponse(elements++, actObj1.addrStr[NAME], actObj1.lenStr[NAME], GAME);
                            SetResponse(elements++, A_LF, 2, TEASER);
                            SetResponse(elements++, A_RETURNING, L_RETURNING, TEASER);
    3b8c:	f5 e0       	ldi	r31, 0x05	; 5
    3b8e:	7f 2e       	mov	r7, r31
                            inventory[x] = 0;
                            break;
    3b90:	64 cf       	rjmp	.-312    	; 0x3a5a <ProcessInput+0xffa>
                SetResponse(elements++, A_EMPTYHANDS, L_EMPTYHANDS, TEASER);
            } else if (inputLen != 2) {
                SetResponse(elements++, A_NOTPOSSIBLE, L_NOTPOSSIBLE, TEASER);
            } else {
                for (uint8_t x=0; x<2; ++x) {
                    if (inventory[x]) {
    3b92:	80 91 40 38 	lds	r24, 0x3840	; 0x803840 <inventory+0x2>
    3b96:	90 91 41 38 	lds	r25, 0x3841	; 0x803841 <inventory+0x3>
    3b9a:	00 97       	sbiw	r24, 0x00	; 0
    3b9c:	49 f0       	breq	.+18     	; 0x3bb0 <ProcessInput+0x1150>
                        if (CheckLetter(inventory[x], data[1])) {
    3b9e:	f8 01       	movw	r30, r16
    3ba0:	61 81       	ldd	r22, Z+1	; 0x01
    3ba2:	0e 94 ed 10 	call	0x21da	; 0x21da <CheckLetter>
    3ba6:	88 23       	and	r24, r24
    3ba8:	19 f0       	breq	.+6      	; 0x3bb0 <ProcessInput+0x1150>
                SetResponse(elements++, A_EMPTYHANDS, L_EMPTYHANDS, TEASER);
            } else if (inputLen != 2) {
                SetResponse(elements++, A_NOTPOSSIBLE, L_NOTPOSSIBLE, TEASER);
            } else {
                for (uint8_t x=0; x<2; ++x) {
                    if (inventory[x]) {
    3baa:	81 e0       	ldi	r24, 0x01	; 1
    3bac:	90 e0       	ldi	r25, 0x00	; 0
    3bae:	98 cf       	rjmp	.-208    	; 0x3ae0 <ProcessInput+0x1080>
    return 0;
}

//
void SetResponse(uint8_t number, uint16_t address, uint16_t length, uint8_t type){
    reactStr[0][number]=address;
    3bb0:	83 e6       	ldi	r24, 0x63	; 99
    3bb2:	99 e7       	ldi	r25, 0x79	; 121
    3bb4:	80 93 1f 39 	sts	0x391F, r24	; 0x80391f <reactStr+0x2>
    3bb8:	90 93 20 39 	sts	0x3920, r25	; 0x803920 <reactStr+0x3>
    reactStr[1][number]=length;
    3bbc:	81 e2       	ldi	r24, 0x21	; 33
    3bbe:	90 e0       	ldi	r25, 0x00	; 0
    3bc0:	13 c8       	rjmp	.-4058   	; 0x2be8 <ProcessInput+0x188>
    } else {
        SetResponse(0, A_LF, 2, TEASER);
        responseList = SetStandardResponse(1);
    }

    data[0] = 0;
    3bc2:	d8 01       	movw	r26, r16
    3bc4:	1c 92       	st	X, r1
    serRxDone = 0;
    3bc6:	10 92 44 38 	sts	0x3844, r1	; 0x803844 <serRxDone>
    RXCNT = 0;    
    3bca:	1d ba       	out	0x1d, r1	; 29
    return 0;
}
    3bcc:	80 e0       	ldi	r24, 0x00	; 0
    3bce:	28 96       	adiw	r28, 0x08	; 8
    3bd0:	cd bf       	out	0x3d, r28	; 61
    3bd2:	de bf       	out	0x3e, r29	; 62
    3bd4:	df 91       	pop	r29
    3bd6:	cf 91       	pop	r28
    3bd8:	1f 91       	pop	r17
    3bda:	0f 91       	pop	r16
    3bdc:	ff 90       	pop	r15
    3bde:	ef 90       	pop	r14
    3be0:	df 90       	pop	r13
    3be2:	cf 90       	pop	r12
    3be4:	bf 90       	pop	r11
    3be6:	af 90       	pop	r10
    3be8:	9f 90       	pop	r9
    3bea:	8f 90       	pop	r8
    3bec:	7f 90       	pop	r7
    3bee:	6f 90       	pop	r6
    3bf0:	5f 90       	pop	r5
    3bf2:	08 95       	ret

00003bf4 <TextAdventure>:


//MAIN GAME STRUCTURE
uint8_t TextAdventure(){
    3bf4:	cf 93       	push	r28
    static uint8_t serInput[RXLEN];
    uint16_t PunishmentCount;
    
    /* Count down PunishmentTime on WING LEDs */
    if (PunishmentTime != 0) {
    3bf6:	80 91 09 39 	lds	r24, 0x3909	; 0x803909 <PunishmentTime>
    3bfa:	90 91 0a 39 	lds	r25, 0x390A	; 0x80390a <PunishmentTime+0x1>
    3bfe:	89 2b       	or	r24, r25
    3c00:	09 f1       	breq	.+66     	; 0x3c44 <TextAdventure+0x50>
        PunishmentCount = getClock();
    3c02:	0e 94 bf 0d 	call	0x1b7e	; 0x1b7e <getClock>
        if (PunishmentCount < PunishmentTime)
    3c06:	20 91 09 39 	lds	r18, 0x3909	; 0x803909 <PunishmentTime>
    3c0a:	30 91 0a 39 	lds	r19, 0x390A	; 0x80390a <PunishmentTime+0x1>
    3c0e:	82 17       	cp	r24, r18
    3c10:	93 07       	cpc	r25, r19
    3c12:	08 f4       	brcc	.+2      	; 0x3c16 <TextAdventure+0x22>
            PunishmentCount += 256 * 60;
    3c14:	94 5c       	subi	r25, 0xC4	; 196
        PunishmentCount -= PunishmentTime;
    3c16:	ac 01       	movw	r20, r24
    3c18:	42 1b       	sub	r20, r18
    3c1a:	53 0b       	sbc	r21, r19
    3c1c:	9a 01       	movw	r18, r20
        if (PunishmentCount > 10) {
    3c1e:	4b 30       	cpi	r20, 0x0B	; 11
    3c20:	51 05       	cpc	r21, r1
    3c22:	30 f0       	brcs	.+12     	; 0x3c30 <TextAdventure+0x3c>
            PunishmentTime = 0;
    3c24:	10 92 09 39 	sts	0x3909, r1	; 0x803909 <PunishmentTime>
    3c28:	10 92 0a 39 	sts	0x390A, r1	; 0x80390a <PunishmentTime+0x1>
            PunishmentCount = 10;
    3c2c:	2a e0       	ldi	r18, 0x0A	; 10
    3c2e:	30 e0       	ldi	r19, 0x00	; 0
        }
        if (gameNow == TEXT ) {
    3c30:	80 91 3c 38 	lds	r24, 0x383C	; 0x80383c <gameNow>
    3c34:	81 11       	cpse	r24, r1
    3c36:	06 c0       	rjmp	.+12     	; 0x3c44 <TextAdventure+0x50>
            WingBar(10-PunishmentCount,5-PunishmentCount);
    3c38:	65 e0       	ldi	r22, 0x05	; 5
    3c3a:	62 1b       	sub	r22, r18
    3c3c:	8a e0       	ldi	r24, 0x0A	; 10
    3c3e:	82 1b       	sub	r24, r18
    3c40:	0e 94 8a 0b 	call	0x1714	; 0x1714 <WingBar>
        }
    }

    //Still sending data to serial?
    if (CheckSend()) return 1;
    3c44:	0e 94 cc 11 	call	0x2398	; 0x2398 <CheckSend>
    3c48:	88 23       	and	r24, r24
    3c4a:	11 f0       	breq	.+4      	; 0x3c50 <TextAdventure+0x5c>
    3c4c:	c1 e0       	ldi	r28, 0x01	; 1
    3c4e:	18 c0       	rjmp	.+48     	; 0x3c80 <TextAdventure+0x8c>

    //Not sending? Process next response part to send, if any.
    if (CheckResponse()) return 1;        
    3c50:	0e 94 3a 12 	call	0x2474	; 0x2474 <CheckResponse>
    3c54:	c8 2f       	mov	r28, r24
    3c56:	81 11       	cpse	r24, r1
    3c58:	f9 cf       	rjmp	.-14     	; 0x3c4c <TextAdventure+0x58>

    if (PunishmentTime == 0) {
    3c5a:	80 91 09 39 	lds	r24, 0x3909	; 0x803909 <PunishmentTime>
    3c5e:	90 91 0a 39 	lds	r25, 0x390A	; 0x80390a <PunishmentTime+0x1>
    3c62:	89 2b       	or	r24, r25
    3c64:	69 f4       	brne	.+26     	; 0x3c80 <TextAdventure+0x8c>
        //No responses to send, check if there is user input.
        if (CheckInput(&serInput[0])) return 2; 
    3c66:	80 e7       	ldi	r24, 0x70	; 112
    3c68:	98 e3       	ldi	r25, 0x38	; 56
    3c6a:	0e 94 81 12 	call	0x2502	; 0x2502 <CheckInput>
    3c6e:	c8 2f       	mov	r28, r24
    3c70:	81 11       	cpse	r24, r1
    3c72:	05 c0       	rjmp	.+10     	; 0x3c7e <TextAdventure+0x8a>

        //Input found, process and save (changes only)
        ProcessInput(&serInput[0]);
    3c74:	80 e7       	ldi	r24, 0x70	; 112
    3c76:	98 e3       	ldi	r25, 0x38	; 56
    3c78:	0e 94 30 15 	call	0x2a60	; 0x2a60 <ProcessInput>
    3c7c:	01 c0       	rjmp	.+2      	; 0x3c80 <TextAdventure+0x8c>
    //Not sending? Process next response part to send, if any.
    if (CheckResponse()) return 1;        

    if (PunishmentTime == 0) {
        //No responses to send, check if there is user input.
        if (CheckInput(&serInput[0])) return 2; 
    3c7e:	c2 e0       	ldi	r28, 0x02	; 2
        //Input found, process and save (changes only)
        ProcessInput(&serInput[0]);
    }

    return 0;
}
    3c80:	8c 2f       	mov	r24, r28
    3c82:	cf 91       	pop	r28
    3c84:	08 95       	ret

00003c86 <main>:


//This is where it begins, inits first and main program in while(1) loop.
int main(void)
{
    Setup();
    3c86:	0e 94 88 05 	call	0xb10	; 0xb10 <Setup>

    SerSpeed(0xff);
    3c8a:	8f ef       	ldi	r24, 0xFF	; 255
    3c8c:	0e 94 f8 08 	call	0x11f0	; 0x11f0 <SerSpeed>
    3c90:	a6 e7       	ldi	r26, 0x76	; 118
    3c92:	be eb       	ldi	r27, 0xBE	; 190
    ////Turn on LEDs on low setting to check for interrupt glitches

    //"Hacker"
    for (uint8_t n=0; n<6; n++){
        iLED[HCKR[R][n]] = 1;
    3c94:	81 e0       	ldi	r24, 0x01	; 1
    3c96:	ed 91       	ld	r30, X+
    3c98:	f0 e0       	ldi	r31, 0x00	; 0
    3c9a:	e4 53       	subi	r30, 0x34	; 52
    3c9c:	f5 4c       	sbci	r31, 0xC5	; 197
    3c9e:	80 83       	st	Z, r24
        iLED[HCKR[G][n]] = 1;
    3ca0:	15 96       	adiw	r26, 0x05	; 5
    3ca2:	ec 91       	ld	r30, X
    3ca4:	15 97       	sbiw	r26, 0x05	; 5
    3ca6:	f0 e0       	ldi	r31, 0x00	; 0
    3ca8:	e4 53       	subi	r30, 0x34	; 52
    3caa:	f5 4c       	sbci	r31, 0xC5	; 197
    3cac:	80 83       	st	Z, r24

    SerSpeed(0xff);
    ////Turn on LEDs on low setting to check for interrupt glitches

    //"Hacker"
    for (uint8_t n=0; n<6; n++){
    3cae:	2e eb       	ldi	r18, 0xBE	; 190
    3cb0:	ac 37       	cpi	r26, 0x7C	; 124
    3cb2:	b2 07       	cpc	r27, r18
    3cb4:	81 f7       	brne	.-32     	; 0x3c96 <main+0x10>
    3cb6:	e8 e6       	ldi	r30, 0x68	; 104
    3cb8:	fe eb       	ldi	r31, 0xBE	; 190
        iLED[HCKR[G][n]] = 1;
    }

    //"Wings"
    for (uint8_t n=0; n<5; n++){
        iLED[WING[L][n]] = 1;
    3cba:	91 e0       	ldi	r25, 0x01	; 1
    3cbc:	ef 01       	movw	r28, r30
    3cbe:	a5 81       	ldd	r26, Z+5	; 0x05
    3cc0:	b0 e0       	ldi	r27, 0x00	; 0
    3cc2:	a4 53       	subi	r26, 0x34	; 52
    3cc4:	b5 4c       	sbci	r27, 0xC5	; 197
    3cc6:	81 e0       	ldi	r24, 0x01	; 1
    3cc8:	9c 93       	st	X, r25
    3cca:	31 96       	adiw	r30, 0x01	; 1
        iLED[WING[R][n]] = 1;
    3ccc:	a8 81       	ld	r26, Y
    3cce:	b0 e0       	ldi	r27, 0x00	; 0
    3cd0:	a4 53       	subi	r26, 0x34	; 52
    3cd2:	b5 4c       	sbci	r27, 0xC5	; 197
    3cd4:	9c 93       	st	X, r25
        iLED[HCKR[R][n]] = 1;
        iLED[HCKR[G][n]] = 1;
    }

    //"Wings"
    for (uint8_t n=0; n<5; n++){
    3cd6:	2e eb       	ldi	r18, 0xBE	; 190
    3cd8:	ed 36       	cpi	r30, 0x6D	; 109
    3cda:	f2 07       	cpc	r31, r18
    3cdc:	79 f7       	brne	.-34     	; 0x3cbc <main+0x36>
        iLED[WING[L][n]] = 1;
        iLED[WING[R][n]] = 1;
    }

    //"Others"
    iLED[EYE[G][R]] = 1;
    3cde:	e0 91 74 be 	lds	r30, 0xBE74	; 0x80be74 <__bss_end+0x8358>
    3ce2:	f0 e0       	ldi	r31, 0x00	; 0
    3ce4:	e4 53       	subi	r30, 0x34	; 52
    3ce6:	f5 4c       	sbci	r31, 0xC5	; 197
    3ce8:	80 83       	st	Z, r24
    iLED[EYE[G][L]] = 1;
    3cea:	e0 91 75 be 	lds	r30, 0xBE75	; 0x80be75 <__bss_end+0x8359>
    3cee:	f0 e0       	ldi	r31, 0x00	; 0
    3cf0:	e4 53       	subi	r30, 0x34	; 52
    3cf2:	f5 4c       	sbci	r31, 0xC5	; 197
    3cf4:	80 83       	st	Z, r24
    iLED[EYE[R][R]] = 1;
    3cf6:	e0 91 72 be 	lds	r30, 0xBE72	; 0x80be72 <__bss_end+0x8356>
    3cfa:	f0 e0       	ldi	r31, 0x00	; 0
    3cfc:	e4 53       	subi	r30, 0x34	; 52
    3cfe:	f5 4c       	sbci	r31, 0xC5	; 197
    3d00:	80 83       	st	Z, r24
    iLED[EYE[R][L]] = 1;
    3d02:	e0 91 73 be 	lds	r30, 0xBE73	; 0x80be73 <__bss_end+0x8357>
    3d06:	f0 e0       	ldi	r31, 0x00	; 0
    3d08:	e4 53       	subi	r30, 0x34	; 52
    3d0a:	f5 4c       	sbci	r31, 0xC5	; 197
    3d0c:	80 83       	st	Z, r24
    iLED[SCARAB[R]] = 1;
    3d0e:	e0 91 66 be 	lds	r30, 0xBE66	; 0x80be66 <__bss_end+0x834a>
    3d12:	f0 e0       	ldi	r31, 0x00	; 0
    3d14:	e4 53       	subi	r30, 0x34	; 52
    3d16:	f5 4c       	sbci	r31, 0xC5	; 197
    3d18:	80 83       	st	Z, r24
    iLED[SCARAB[G]] = 1;
    3d1a:	e0 91 67 be 	lds	r30, 0xBE67	; 0x80be67 <__bss_end+0x834b>
    3d1e:	f0 e0       	ldi	r31, 0x00	; 0
    3d20:	e4 53       	subi	r30, 0x34	; 52
    3d22:	f5 4c       	sbci	r31, 0xC5	; 197
    3d24:	80 83       	st	Z, r24
    iLED[BADGER] = 1;
    3d26:	e0 91 65 be 	lds	r30, 0xBE65	; 0x80be65 <__bss_end+0x8349>
    3d2a:	f0 e0       	ldi	r31, 0x00	; 0
    3d2c:	e4 53       	subi	r30, 0x34	; 52
    3d2e:	f5 4c       	sbci	r31, 0xC5	; 197
    3d30:	80 83       	st	Z, r24
    iLED[CAT] = 1;
    3d32:	e0 91 64 be 	lds	r30, 0xBE64	; 0x80be64 <__bss_end+0x8348>
    3d36:	f0 e0       	ldi	r31, 0x00	; 0
    3d38:	e4 53       	subi	r30, 0x34	; 52
    3d3a:	f5 4c       	sbci	r31, 0xC5	; 197
    3d3c:	80 83       	st	Z, r24

    LoadGameState();
    3d3e:	0e 94 f8 0a 	call	0x15f0	; 0x15f0 <LoadGameState>
    effect = 0x013f;
    3d42:	8f e3       	ldi	r24, 0x3F	; 63
    3d44:	91 e0       	ldi	r25, 0x01	; 1
    3d46:	80 93 3a 38 	sts	0x383A, r24	; 0x80383a <effect>
    3d4a:	90 93 3b 38 	sts	0x383B, r25	; 0x80383b <effect+0x1>
            SaveGameState();

            //Check light sensor status (added hysteresis to preserve writing cycles to internal EEPROM)
            if (adcPhot < 10) WriteStatusBit(116, 1);
            if (adcPhot > 100) WriteStatusBit(116, 0);
            dimValue = 0 - QSINE[31-(adcPhot>>7)];
    3d4e:	cf e1       	ldi	r28, 0x1F	; 31
    3d50:	d0 e0       	ldi	r29, 0x00	; 0

    LoadGameState();
    effect = 0x013f;

    while (TRUE) {
        if (GenerateAudio()) {
    3d52:	0e 94 81 0c 	call	0x1902	; 0x1902 <GenerateAudio>
    3d56:	88 23       	and	r24, r24
    3d58:	e1 f3       	breq	.-8      	; 0x3d52 <main+0xcc>
            buttonState = CheckButtons(buttonState);
    3d5a:	80 91 09 38 	lds	r24, 0x3809	; 0x803809 <buttonState>
    3d5e:	0e 94 27 09 	call	0x124e	; 0x124e <CheckButtons>
    3d62:	80 93 09 38 	sts	0x3809, r24	; 0x803809 <buttonState>
            buttonMark = 0;
    3d66:	10 92 42 38 	sts	0x3842, r1	; 0x803842 <buttonMark>

            if (VREF_CTRLA == 0x12) SelectAuIn(); else SelectTSens();
    3d6a:	80 91 a0 00 	lds	r24, 0x00A0	; 0x8000a0 <__TEXT_REGION_LENGTH__+0x7000a0>
    3d6e:	82 31       	cpi	r24, 0x12	; 18
    3d70:	19 f4       	brne	.+6      	; 0x3d78 <main+0xf2>
    3d72:	0e 94 18 09 	call	0x1230	; 0x1230 <SelectAuIn>
    3d76:	02 c0       	rjmp	.+4      	; 0x3d7c <main+0xf6>
    3d78:	0e 94 09 09 	call	0x1212	; 0x1212 <SelectTSens>

            GenerateBlinks();
    3d7c:	0e 94 c8 0b 	call	0x1790	; 0x1790 <GenerateBlinks>

            //Main game, to complete: Finish sub-game MagnetMaze and MakeFriends too.
            TextAdventure();
    3d80:	39 df       	rcall	.-398    	; 0x3bf4 <TextAdventure>

            //Other games & user interaction checks
            MagnetMaze();
    3d82:	0e 94 7c 04 	call	0x8f8	; 0x8f8 <MagnetMaze>
            LanyardCode();
    3d86:	0e 94 31 03 	call	0x662	; 0x662 <LanyardCode>
            BastetDictates();
    3d8a:	0e 94 46 0e 	call	0x1c8c	; 0x1c8c <BastetDictates>
            MakeFriends();
    3d8e:	0e 94 7a 00 	call	0xf4	; 0xf4 <MakeFriends>

            //Save progress
            SaveGameState();
    3d92:	0e 94 06 0a 	call	0x140c	; 0x140c <SaveGameState>

            //Check light sensor status (added hysteresis to preserve writing cycles to internal EEPROM)
            if (adcPhot < 10) WriteStatusBit(116, 1);
    3d96:	80 91 bf 3a 	lds	r24, 0x3ABF	; 0x803abf <adcPhot>
    3d9a:	90 91 c0 3a 	lds	r25, 0x3AC0	; 0x803ac0 <adcPhot+0x1>
    3d9e:	0a 97       	sbiw	r24, 0x0a	; 10
    3da0:	20 f4       	brcc	.+8      	; 0x3daa <main+0x124>
    3da2:	61 e0       	ldi	r22, 0x01	; 1
    3da4:	84 e7       	ldi	r24, 0x74	; 116
    3da6:	0e 94 8d 0a 	call	0x151a	; 0x151a <WriteStatusBit>
            if (adcPhot > 100) WriteStatusBit(116, 0);
    3daa:	80 91 bf 3a 	lds	r24, 0x3ABF	; 0x803abf <adcPhot>
    3dae:	90 91 c0 3a 	lds	r25, 0x3AC0	; 0x803ac0 <adcPhot+0x1>
    3db2:	85 36       	cpi	r24, 0x65	; 101
    3db4:	91 05       	cpc	r25, r1
    3db6:	20 f0       	brcs	.+8      	; 0x3dc0 <main+0x13a>
    3db8:	60 e0       	ldi	r22, 0x00	; 0
    3dba:	84 e7       	ldi	r24, 0x74	; 116
    3dbc:	0e 94 8d 0a 	call	0x151a	; 0x151a <WriteStatusBit>
            dimValue = 0 - QSINE[31-(adcPhot>>7)];
    3dc0:	80 91 bf 3a 	lds	r24, 0x3ABF	; 0x803abf <adcPhot>
    3dc4:	90 91 c0 3a 	lds	r25, 0x3AC0	; 0x803ac0 <adcPhot+0x1>
    3dc8:	88 0f       	add	r24, r24
    3dca:	89 2f       	mov	r24, r25
    3dcc:	88 1f       	adc	r24, r24
    3dce:	99 0b       	sbc	r25, r25
    3dd0:	91 95       	neg	r25
    3dd2:	fe 01       	movw	r30, r28
    3dd4:	e8 1b       	sub	r30, r24
    3dd6:	f9 0b       	sbc	r31, r25
    3dd8:	ee 57       	subi	r30, 0x7E	; 126
    3dda:	f1 44       	sbci	r31, 0x41	; 65
    3ddc:	80 81       	ld	r24, Z
    3dde:	81 95       	neg	r24
    3de0:	80 93 0b 38 	sts	0x380B, r24	; 0x80380b <dimValue>

            //Check temperature
            HotSummer();
    3de4:	0e 94 25 0b 	call	0x164a	; 0x164a <HotSummer>
    3de8:	b4 cf       	rjmp	.-152    	; 0x3d52 <main+0xcc>

00003dea <__udivmodhi4>:
    3dea:	aa 1b       	sub	r26, r26
    3dec:	bb 1b       	sub	r27, r27
    3dee:	51 e1       	ldi	r21, 0x11	; 17
    3df0:	07 c0       	rjmp	.+14     	; 0x3e00 <__udivmodhi4_ep>

00003df2 <__udivmodhi4_loop>:
    3df2:	aa 1f       	adc	r26, r26
    3df4:	bb 1f       	adc	r27, r27
    3df6:	a6 17       	cp	r26, r22
    3df8:	b7 07       	cpc	r27, r23
    3dfa:	10 f0       	brcs	.+4      	; 0x3e00 <__udivmodhi4_ep>
    3dfc:	a6 1b       	sub	r26, r22
    3dfe:	b7 0b       	sbc	r27, r23

00003e00 <__udivmodhi4_ep>:
    3e00:	88 1f       	adc	r24, r24
    3e02:	99 1f       	adc	r25, r25
    3e04:	5a 95       	dec	r21
    3e06:	a9 f7       	brne	.-22     	; 0x3df2 <__udivmodhi4_loop>
    3e08:	80 95       	com	r24
    3e0a:	90 95       	com	r25
    3e0c:	bc 01       	movw	r22, r24
    3e0e:	cd 01       	movw	r24, r26
    3e10:	08 95       	ret

00003e12 <__divmodhi4>:
    3e12:	97 fb       	bst	r25, 7
    3e14:	07 2e       	mov	r0, r23
    3e16:	16 f4       	brtc	.+4      	; 0x3e1c <__divmodhi4+0xa>
    3e18:	00 94       	com	r0
    3e1a:	06 d0       	rcall	.+12     	; 0x3e28 <__divmodhi4_neg1>
    3e1c:	77 fd       	sbrc	r23, 7
    3e1e:	08 d0       	rcall	.+16     	; 0x3e30 <__divmodhi4_neg2>
    3e20:	e4 df       	rcall	.-56     	; 0x3dea <__udivmodhi4>
    3e22:	07 fc       	sbrc	r0, 7
    3e24:	05 d0       	rcall	.+10     	; 0x3e30 <__divmodhi4_neg2>
    3e26:	3e f4       	brtc	.+14     	; 0x3e36 <__divmodhi4_exit>

00003e28 <__divmodhi4_neg1>:
    3e28:	90 95       	com	r25
    3e2a:	81 95       	neg	r24
    3e2c:	9f 4f       	sbci	r25, 0xFF	; 255
    3e2e:	08 95       	ret

00003e30 <__divmodhi4_neg2>:
    3e30:	70 95       	com	r23
    3e32:	61 95       	neg	r22
    3e34:	7f 4f       	sbci	r23, 0xFF	; 255

00003e36 <__divmodhi4_exit>:
    3e36:	08 95       	ret

00003e38 <_exit>:
    3e38:	f8 94       	cli

00003e3a <__stop_program>:
    3e3a:	ff cf       	rjmp	.-2      	; 0x3e3a <__stop_program>
