
ISR_IO.elf:     file format elf32-avr

Sections:
Idx Name          Size      VMA       LMA       File off  Algn
  0 .data         0000002e  00803800  00003f7a  0000402e  2**0
                  CONTENTS, ALLOC, LOAD, DATA
  1 .text         00003e78  00000000  00000000  000000b4  2**1
                  CONTENTS, ALLOC, LOAD, READONLY, CODE
  2 .rodata       00000102  0000be78  00003e78  00003f2c  2**0
                  CONTENTS, ALLOC, LOAD, READONLY, DATA
  3 .bss          000002ee  0080382e  0080382e  0000405c  2**0
                  ALLOC
  4 .comment      00000030  00000000  00000000  0000405c  2**0
                  CONTENTS, READONLY
  5 .note.gnu.avr.deviceinfo 00000040  00000000  00000000  0000408c  2**2
                  CONTENTS, READONLY
  6 .debug_aranges 00000330  00000000  00000000  000040cc  2**0
                  CONTENTS, READONLY, DEBUGGING
  7 .debug_info   00006e74  00000000  00000000  000043fc  2**0
                  CONTENTS, READONLY, DEBUGGING
  8 .debug_abbrev 00002930  00000000  00000000  0000b270  2**0
                  CONTENTS, READONLY, DEBUGGING
  9 .debug_line   00003cc1  00000000  00000000  0000dba0  2**0
                  CONTENTS, READONLY, DEBUGGING
 10 .debug_frame  00000994  00000000  00000000  00011864  2**2
                  CONTENTS, READONLY, DEBUGGING
 11 .debug_str    00001a62  00000000  00000000  000121f8  2**0
                  CONTENTS, READONLY, DEBUGGING
 12 .debug_loc    00004567  00000000  00000000  00013c5a  2**0
                  CONTENTS, READONLY, DEBUGGING
 13 .debug_ranges 000003b8  00000000  00000000  000181c1  2**0
                  CONTENTS, READONLY, DEBUGGING

Disassembly of section .text:

00000000 <__vectors>:
       0:	3d c0       	rjmp	.+122    	; 0x7c <__ctors_end>
       2:	00 00       	nop
       4:	58 c0       	rjmp	.+176    	; 0xb6 <__bad_interrupt>
       6:	00 00       	nop
       8:	56 c0       	rjmp	.+172    	; 0xb6 <__bad_interrupt>
       a:	00 00       	nop
       c:	54 c0       	rjmp	.+168    	; 0xb6 <__bad_interrupt>
       e:	00 00       	nop
      10:	52 c0       	rjmp	.+164    	; 0xb6 <__bad_interrupt>
      12:	00 00       	nop
      14:	50 c0       	rjmp	.+160    	; 0xb6 <__bad_interrupt>
      16:	00 00       	nop
      18:	0c 94 67 08 	jmp	0x10ce	; 0x10ce <__vector_6>
      1c:	0c 94 be 08 	jmp	0x117c	; 0x117c <__vector_7>
      20:	89 c6       	rjmp	.+3346   	; 0xd34 <__vector_8>
      22:	00 00       	nop
      24:	48 c0       	rjmp	.+144    	; 0xb6 <__bad_interrupt>
      26:	00 00       	nop
      28:	46 c0       	rjmp	.+140    	; 0xb6 <__bad_interrupt>
      2a:	00 00       	nop
      2c:	44 c0       	rjmp	.+136    	; 0xb6 <__bad_interrupt>
      2e:	00 00       	nop
      30:	42 c0       	rjmp	.+132    	; 0xb6 <__bad_interrupt>
      32:	00 00       	nop
      34:	d0 c6       	rjmp	.+3488   	; 0xdd6 <__vector_13>
      36:	00 00       	nop
      38:	01 c7       	rjmp	.+3586   	; 0xe3c <__vector_14>
      3a:	00 00       	nop
      3c:	3c c0       	rjmp	.+120    	; 0xb6 <__bad_interrupt>
      3e:	00 00       	nop
      40:	3a c0       	rjmp	.+116    	; 0xb6 <__bad_interrupt>
      42:	00 00       	nop
      44:	38 c0       	rjmp	.+112    	; 0xb6 <__bad_interrupt>
      46:	00 00       	nop
      48:	36 c0       	rjmp	.+108    	; 0xb6 <__bad_interrupt>
      4a:	00 00       	nop
      4c:	34 c0       	rjmp	.+104    	; 0xb6 <__bad_interrupt>
      4e:	00 00       	nop
      50:	bf c7       	rjmp	.+3966   	; 0xfd0 <__vector_20>
      52:	00 00       	nop
      54:	30 c0       	rjmp	.+96     	; 0xb6 <__bad_interrupt>
      56:	00 00       	nop
      58:	f2 c7       	rjmp	.+4068   	; 0x103e <__vector_22>
      5a:	00 00       	nop
      5c:	2c c0       	rjmp	.+88     	; 0xb6 <__bad_interrupt>
      5e:	00 00       	nop
      60:	2a c0       	rjmp	.+84     	; 0xb6 <__bad_interrupt>
      62:	00 00       	nop
      64:	28 c0       	rjmp	.+80     	; 0xb6 <__bad_interrupt>
      66:	00 00       	nop
      68:	26 c0       	rjmp	.+76     	; 0xb6 <__bad_interrupt>
      6a:	00 00       	nop
      6c:	3a c7       	rjmp	.+3700   	; 0xee2 <__vector_27>
      6e:	00 00       	nop
      70:	93 c7       	rjmp	.+3878   	; 0xf98 <__vector_28>
      72:	00 00       	nop
      74:	20 c0       	rjmp	.+64     	; 0xb6 <__bad_interrupt>
      76:	00 00       	nop
      78:	1e c0       	rjmp	.+60     	; 0xb6 <__bad_interrupt>
	...

0000007c <__ctors_end>:
      7c:	11 24       	eor	r1, r1
      7e:	1f be       	out	0x3f, r1	; 63
      80:	cf ef       	ldi	r28, 0xFF	; 255
      82:	cd bf       	out	0x3d, r28	; 61
      84:	df e3       	ldi	r29, 0x3F	; 63
      86:	de bf       	out	0x3e, r29	; 62

00000088 <__do_copy_data>:
      88:	18 e3       	ldi	r17, 0x38	; 56
      8a:	a0 e0       	ldi	r26, 0x00	; 0
      8c:	b8 e3       	ldi	r27, 0x38	; 56
      8e:	ea e7       	ldi	r30, 0x7A	; 122
      90:	ff e3       	ldi	r31, 0x3F	; 63
      92:	02 c0       	rjmp	.+4      	; 0x98 <__do_copy_data+0x10>
      94:	05 90       	lpm	r0, Z+
      96:	0d 92       	st	X+, r0
      98:	ae 32       	cpi	r26, 0x2E	; 46
      9a:	b1 07       	cpc	r27, r17
      9c:	d9 f7       	brne	.-10     	; 0x94 <__do_copy_data+0xc>

0000009e <__do_clear_bss>:
      9e:	2b e3       	ldi	r18, 0x3B	; 59
      a0:	ae e2       	ldi	r26, 0x2E	; 46
      a2:	b8 e3       	ldi	r27, 0x38	; 56
      a4:	01 c0       	rjmp	.+2      	; 0xa8 <.do_clear_bss_start>

000000a6 <.do_clear_bss_loop>:
      a6:	1d 92       	st	X+, r1

000000a8 <.do_clear_bss_start>:
      a8:	ac 31       	cpi	r26, 0x1C	; 28
      aa:	b2 07       	cpc	r27, r18
      ac:	e1 f7       	brne	.-8      	; 0xa6 <.do_clear_bss_loop>
      ae:	0e 94 61 1e 	call	0x3cc2	; 0x3cc2 <main>
      b2:	0c 94 3a 1f 	jmp	0x3e74	; 0x3e74 <_exit>

000000b6 <__bad_interrupt>:
      b6:	a4 cf       	rjmp	.-184    	; 0x0 <__vectors>

000000b8 <chkVolt250>:
#include <main_def.h>
#include <resources.h>
#include <I2C.h>

//Returns measured voltage * 4 (2V returns 8) if it is in the expected range (DELTA)
uint8_t chkVolt250(){
      b8:	20 91 32 38 	lds	r18, 0x3832	; 0x803832 <avgVolt.3776>
      bc:	85 e1       	ldi	r24, 0x15	; 21
      be:	90 e0       	ldi	r25, 0x00	; 0
    static uint8_t avgVolt = 0;
        
    for (uint8_t x=25; x<226; x+=25) {
        if ((auIn[0] > (x-DELTA)) && (auIn[0] < (x+DELTA))) {
      c0:	40 91 c4 3a 	lds	r20, 0x3AC4	; 0x803ac4 <auIn>
      c4:	50 e0       	ldi	r21, 0x00	; 0
      c6:	48 17       	cp	r20, r24
      c8:	59 07       	cpc	r21, r25
      ca:	74 f0       	brlt	.+28     	; 0xe8 <chkVolt250+0x30>
      cc:	40 91 c4 3a 	lds	r20, 0x3AC4	; 0x803ac4 <auIn>
      d0:	50 e0       	ldi	r21, 0x00	; 0
      d2:	bc 01       	movw	r22, r24
      d4:	68 5f       	subi	r22, 0xF8	; 248
      d6:	7f 4f       	sbci	r23, 0xFF	; 255
      d8:	64 17       	cp	r22, r20
      da:	75 07       	cpc	r23, r21
      dc:	2c f0       	brlt	.+10     	; 0xe8 <chkVolt250+0x30>
      de:	20 93 32 38 	sts	0x3832, r18	; 0x803832 <avgVolt.3776>
            break;
        }
        ++avgVolt;
    }
    return avgVolt;
      e2:	80 91 32 38 	lds	r24, 0x3832	; 0x803832 <avgVolt.3776>
      e6:	08 95       	ret
        
    for (uint8_t x=25; x<226; x+=25) {
        if ((auIn[0] > (x-DELTA)) && (auIn[0] < (x+DELTA))) {
            break;
        }
        ++avgVolt;
      e8:	2f 5f       	subi	r18, 0xFF	; 255
      ea:	49 96       	adiw	r24, 0x19	; 25

//Returns measured voltage * 4 (2V returns 8) if it is in the expected range (DELTA)
uint8_t chkVolt250(){
    static uint8_t avgVolt = 0;
        
    for (uint8_t x=25; x<226; x+=25) {
      ec:	86 3f       	cpi	r24, 0xF6	; 246
      ee:	91 05       	cpc	r25, r1
      f0:	39 f7       	brne	.-50     	; 0xc0 <chkVolt250+0x8>
      f2:	f5 cf       	rjmp	.-22     	; 0xde <chkVolt250+0x26>

000000f4 <MakeFriends>:
    }
    return avgVolt;
}

// Main game loop
uint8_t MakeFriends(){
      f4:	ef 92       	push	r14
      f6:	ff 92       	push	r15
      f8:	0f 93       	push	r16
      fa:	1f 93       	push	r17
      fc:	cf 93       	push	r28
      fe:	df 93       	push	r29
     100:	c4 e6       	ldi	r28, 0x64	; 100
    static uint8_t chkTmr = 0;
    static uint8_t jackIn = 0;
    static uint8_t candidate = 0;

    //Check if badge has found 3 friends
    uint8_t foundAll = 1;
     102:	d1 e0       	ldi	r29, 0x01	; 1
    for (uint8_t x=0; x<4; x++){
        if (CheckState(100+x) == 0) foundAll = 0;
     104:	8c 2f       	mov	r24, r28
     106:	0e 94 d1 0a 	call	0x15a2	; 0x15a2 <CheckState>
     10a:	81 11       	cpse	r24, r1
     10c:	01 c0       	rjmp	.+2      	; 0x110 <MakeFriends+0x1c>
     10e:	d0 e0       	ldi	r29, 0x00	; 0
     110:	cf 5f       	subi	r28, 0xFF	; 255
    static uint8_t jackIn = 0;
    static uint8_t candidate = 0;

    //Check if badge has found 3 friends
    uint8_t foundAll = 1;
    for (uint8_t x=0; x<4; x++){
     112:	c8 36       	cpi	r28, 0x68	; 104
     114:	b9 f7       	brne	.-18     	; 0x104 <MakeFriends+0x10>
        if (CheckState(100+x) == 0) foundAll = 0;
    }
    if (foundAll) UpdateState(124);
     116:	dd 23       	and	r29, r29
     118:	19 f0       	breq	.+6      	; 0x120 <MakeFriends+0x2c>
     11a:	8c e7       	ldi	r24, 0x7C	; 124
     11c:	0e 94 c7 0a 	call	0x158e	; 0x158e <UpdateState>


    //Checking for headphones
    if (detHdPh) return 0;
     120:	80 91 c1 3a 	lds	r24, 0x3AC1	; 0x803ac1 <detHdPh>
     124:	81 11       	cpse	r24, r1
     126:	1e c1       	rjmp	.+572    	; 0x364 <MakeFriends+0x270>

    //Audio off, set voltage level (setDAC[0]*10mV)
    if (progress == NO_OTHER) {
     128:	80 91 31 38 	lds	r24, 0x3831	; 0x803831 <progress.3783>
     12c:	81 11       	cpse	r24, r1
     12e:	11 c0       	rjmp	.+34     	; 0x152 <MakeFriends+0x5e>
        setDAC[0] = whoami * 50;
     130:	90 91 3d 38 	lds	r25, 0x383D	; 0x80383d <whoami>
     134:	22 e3       	ldi	r18, 0x32	; 50
     136:	92 9f       	mul	r25, r18
     138:	90 2d       	mov	r25, r0
     13a:	11 24       	eor	r1, r1
     13c:	90 93 00 38 	sts	0x3800, r25	; 0x803800 <__data_start>
        auRepAddr = &setDAC[0];
     140:	20 e0       	ldi	r18, 0x00	; 0
     142:	38 e3       	ldi	r19, 0x38	; 56
     144:	20 93 05 38 	sts	0x3805, r18	; 0x803805 <auRepAddr>
     148:	30 93 06 38 	sts	0x3806, r19	; 0x803806 <auRepAddr+0x1>
        auVolume = 255;
     14c:	9f ef       	ldi	r25, 0xFF	; 255
     14e:	90 93 b8 3a 	sts	0x3AB8, r25	; 0x803ab8 <auVolume>
    }

    //Check for other badges
    if ((auIn[0] < (setDAC[0] - DELTA)) || (auIn[0] > (setDAC[0] + DELTA)) ||((progress > FIRST_CONTACT))) {
     152:	40 91 c4 3a 	lds	r20, 0x3AC4	; 0x803ac4 <auIn>
     156:	20 91 00 38 	lds	r18, 0x3800	; 0x803800 <__data_start>
     15a:	30 e0       	ldi	r19, 0x00	; 0
     15c:	50 e0       	ldi	r21, 0x00	; 0
     15e:	b9 01       	movw	r22, r18
     160:	65 50       	subi	r22, 0x05	; 5
     162:	71 09       	sbc	r23, r1
     164:	46 17       	cp	r20, r22
     166:	57 07       	cpc	r21, r23
     168:	64 f0       	brlt	.+24     	; 0x182 <MakeFriends+0x8e>
     16a:	40 91 c4 3a 	lds	r20, 0x3AC4	; 0x803ac4 <auIn>
     16e:	50 e0       	ldi	r21, 0x00	; 0
     170:	2b 5f       	subi	r18, 0xFB	; 251
     172:	3f 4f       	sbci	r19, 0xFF	; 255
     174:	24 17       	cp	r18, r20
     176:	35 07       	cpc	r19, r21
     178:	24 f0       	brlt	.+8      	; 0x182 <MakeFriends+0x8e>
     17a:	82 30       	cpi	r24, 0x02	; 2
     17c:	08 f0       	brcs	.+2      	; 0x180 <MakeFriends+0x8c>
     17e:	40 c0       	rjmp	.+128    	; 0x200 <MakeFriends+0x10c>
     180:	ef c0       	rjmp	.+478    	; 0x360 <MakeFriends+0x26c>
        if (progress == NO_OTHER) {
     182:	81 11       	cpse	r24, r1
     184:	0a c0       	rjmp	.+20     	; 0x19a <MakeFriends+0xa6>
            ++chkTmr;
     186:	80 91 30 38 	lds	r24, 0x3830	; 0x803830 <chkTmr.3785>
     18a:	8f 5f       	subi	r24, 0xFF	; 255
     18c:	80 93 30 38 	sts	0x3830, r24	; 0x803830 <chkTmr.3785>
            if (chkTmr >= 8) {
     190:	88 30       	cpi	r24, 0x08	; 8
     192:	08 f4       	brcc	.+2      	; 0x196 <MakeFriends+0xa2>
     194:	e7 c0       	rjmp	.+462    	; 0x364 <MakeFriends+0x270>
                progress = FIRST_CONTACT;
     196:	81 e0       	ldi	r24, 0x01	; 1
     198:	81 c0       	rjmp	.+258    	; 0x29c <MakeFriends+0x1a8>
                chkTmr = 0;
            }
        }

        //Candidate found, check ranges
        else if (progress == FIRST_CONTACT) {
     19a:	81 30       	cpi	r24, 0x01	; 1
     19c:	89 f5       	brne	.+98     	; 0x200 <MakeFriends+0x10c>
            jackIn = chkVolt250();
     19e:	8c df       	rcall	.-232    	; 0xb8 <chkVolt250>
     1a0:	80 93 2f 38 	sts	0x382F, r24	; 0x80382f <jackIn.3786>
            if (jackIn) {
     1a4:	88 23       	and	r24, r24
     1a6:	49 f1       	breq	.+82     	; 0x1fa <MakeFriends+0x106>
                ++chkTmr;
     1a8:	90 91 30 38 	lds	r25, 0x3830	; 0x803830 <chkTmr.3785>
     1ac:	9f 5f       	subi	r25, 0xFF	; 255
     1ae:	90 93 30 38 	sts	0x3830, r25	; 0x803830 <chkTmr.3785>
                if (chkTmr >= SHORT_WAIT){
     1b2:	98 30       	cpi	r25, 0x08	; 8
     1b4:	08 f4       	brcc	.+2      	; 0x1b8 <MakeFriends+0xc4>
     1b6:	d6 c0       	rjmp	.+428    	; 0x364 <MakeFriends+0x270>
                    if ((whoami == 1)&&((jackIn == 3)||(jackIn == 4)||(jackIn == 5))) {
     1b8:	90 91 3d 38 	lds	r25, 0x383D	; 0x80383d <whoami>
     1bc:	91 30       	cpi	r25, 0x01	; 1
     1be:	29 f4       	brne	.+10     	; 0x1ca <MakeFriends+0xd6>
     1c0:	83 50       	subi	r24, 0x03	; 3
     1c2:	83 30       	cpi	r24, 0x03	; 3
     1c4:	b8 f4       	brcc	.+46     	; 0x1f4 <MakeFriends+0x100>
                        progress = SECOND_LOVE; 
     1c6:	82 e0       	ldi	r24, 0x02	; 2
     1c8:	69 c0       	rjmp	.+210    	; 0x29c <MakeFriends+0x1a8>
                    } else if ((whoami == 2)&&((jackIn == 3)||(jackIn == 5)||(jackIn == 6))) {
     1ca:	92 30       	cpi	r25, 0x02	; 2
     1cc:	31 f4       	brne	.+12     	; 0x1da <MakeFriends+0xe6>
     1ce:	83 30       	cpi	r24, 0x03	; 3
     1d0:	d1 f3       	breq	.-12     	; 0x1c6 <MakeFriends+0xd2>
     1d2:	85 50       	subi	r24, 0x05	; 5
     1d4:	82 30       	cpi	r24, 0x02	; 2
     1d6:	70 f4       	brcc	.+28     	; 0x1f4 <MakeFriends+0x100>
     1d8:	f6 cf       	rjmp	.-20     	; 0x1c6 <MakeFriends+0xd2>
                        progress = SECOND_LOVE;
                    } else  if ((whoami == 3)&&((jackIn == 4)||(jackIn == 5)||(jackIn == 7))) {
     1da:	93 30       	cpi	r25, 0x03	; 3
     1dc:	39 f4       	brne	.+14     	; 0x1ec <MakeFriends+0xf8>
     1de:	9c ef       	ldi	r25, 0xFC	; 252
     1e0:	98 0f       	add	r25, r24
     1e2:	92 30       	cpi	r25, 0x02	; 2
     1e4:	80 f3       	brcs	.-32     	; 0x1c6 <MakeFriends+0xd2>
     1e6:	87 30       	cpi	r24, 0x07	; 7
     1e8:	29 f4       	brne	.+10     	; 0x1f4 <MakeFriends+0x100>
     1ea:	ed cf       	rjmp	.-38     	; 0x1c6 <MakeFriends+0xd2>
                        progress = SECOND_LOVE;
                    } else if ((whoami == 4)&&((jackIn == 5)||(jackIn == 6)||(jackIn == 7))) {
     1ec:	94 30       	cpi	r25, 0x04	; 4
     1ee:	11 f4       	brne	.+4      	; 0x1f4 <MakeFriends+0x100>
     1f0:	85 50       	subi	r24, 0x05	; 5
     1f2:	e7 cf       	rjmp	.-50     	; 0x1c2 <MakeFriends+0xce>
                        progress = SECOND_LOVE;
                    } else progress = NO_OTHER;
     1f4:	10 92 31 38 	sts	0x3831, r1	; 0x803831 <progress.3783>
     1f8:	53 c0       	rjmp	.+166    	; 0x2a0 <MakeFriends+0x1ac>
                    chkTmr = 0;
                }
            } else {
                chkTmr = 0;
     1fa:	10 92 30 38 	sts	0x3830, r1	; 0x803830 <chkTmr.3785>
     1fe:	b0 c0       	rjmp	.+352    	; 0x360 <MakeFriends+0x26c>
                progress = NO_OTHER;
            }
        }

        //Wait for the other badge (and a bit longer)
        else if (progress == SECOND_LOVE){
     200:	82 30       	cpi	r24, 0x02	; 2
     202:	09 f0       	breq	.+2      	; 0x206 <MakeFriends+0x112>
     204:	50 c0       	rjmp	.+160    	; 0x2a6 <MakeFriends+0x1b2>
            ++chkTmr;
     206:	80 91 30 38 	lds	r24, 0x3830	; 0x803830 <chkTmr.3785>
     20a:	8f 5f       	subi	r24, 0xFF	; 255
     20c:	80 93 30 38 	sts	0x3830, r24	; 0x803830 <chkTmr.3785>
     210:	c4 ea       	ldi	r28, 0xA4	; 164
     212:	de eb       	ldi	r29, 0xBE	; 190
     214:	7e 01       	movw	r14, r28
            for (uint8_t x=0; x<5; ++x){
                iLED[WING[L][x]] = (lfsr() > 127)?dimValue:0;
     216:	0d 81       	ldd	r16, Y+5	; 0x05
     218:	10 e0       	ldi	r17, 0x00	; 0
     21a:	0e 94 a3 09 	call	0x1346	; 0x1346 <lfsr>
     21e:	87 ff       	sbrs	r24, 7
     220:	03 c0       	rjmp	.+6      	; 0x228 <MakeFriends+0x134>
     222:	80 91 0b 38 	lds	r24, 0x380B	; 0x80380b <dimValue>
     226:	01 c0       	rjmp	.+2      	; 0x22a <MakeFriends+0x136>
     228:	80 e0       	ldi	r24, 0x00	; 0
     22a:	f8 01       	movw	r30, r16
     22c:	e4 53       	subi	r30, 0x34	; 52
     22e:	f5 4c       	sbci	r31, 0xC5	; 197
     230:	80 83       	st	Z, r24
     232:	21 96       	adiw	r28, 0x01	; 1
                iLED[WING[R][x]] = (lfsr() > 127)?dimValue:0;
     234:	f7 01       	movw	r30, r14
     236:	00 81       	ld	r16, Z
     238:	10 e0       	ldi	r17, 0x00	; 0
     23a:	0e 94 a3 09 	call	0x1346	; 0x1346 <lfsr>
     23e:	87 ff       	sbrs	r24, 7
     240:	03 c0       	rjmp	.+6      	; 0x248 <MakeFriends+0x154>
     242:	80 91 0b 38 	lds	r24, 0x380B	; 0x80380b <dimValue>
     246:	01 c0       	rjmp	.+2      	; 0x24a <MakeFriends+0x156>
     248:	80 e0       	ldi	r24, 0x00	; 0
     24a:	f8 01       	movw	r30, r16
     24c:	e4 53       	subi	r30, 0x34	; 52
     24e:	f5 4c       	sbci	r31, 0xC5	; 197
     250:	80 83       	st	Z, r24
        }

        //Wait for the other badge (and a bit longer)
        else if (progress == SECOND_LOVE){
            ++chkTmr;
            for (uint8_t x=0; x<5; ++x){
     252:	fe eb       	ldi	r31, 0xBE	; 190
     254:	c9 3a       	cpi	r28, 0xA9	; 169
     256:	df 07       	cpc	r29, r31
     258:	e9 f6       	brne	.-70     	; 0x214 <MakeFriends+0x120>
                iLED[WING[L][x]] = (lfsr() > 127)?dimValue:0;
                iLED[WING[R][x]] = (lfsr() > 127)?dimValue:0;
            }
            if (chkTmr >= SHORT_WAIT) {
     25a:	80 91 30 38 	lds	r24, 0x3830	; 0x803830 <chkTmr.3785>
     25e:	88 30       	cpi	r24, 0x08	; 8
     260:	40 f0       	brcs	.+16     	; 0x272 <MakeFriends+0x17e>
                setDAC[0] = floatAround(0x80, 8, 100, 255); 
     262:	2f ef       	ldi	r18, 0xFF	; 255
     264:	44 e6       	ldi	r20, 0x64	; 100
     266:	68 e0       	ldi	r22, 0x08	; 8
     268:	80 e8       	ldi	r24, 0x80	; 128
     26a:	0e 94 f4 09 	call	0x13e8	; 0x13e8 <floatAround>
     26e:	80 93 00 38 	sts	0x3800, r24	; 0x803800 <__data_start>
            }
            //The badge with the lowest voltage will now go to 2.5V (impedance check, for people tricking the things with a power supply)
            if (chkTmr >= LONG_WAIT){
     272:	80 91 30 38 	lds	r24, 0x3830	; 0x803830 <chkTmr.3785>
     276:	8a 3f       	cpi	r24, 0xFA	; 250
     278:	08 f4       	brcc	.+2      	; 0x27c <MakeFriends+0x188>
     27a:	74 c0       	rjmp	.+232    	; 0x364 <MakeFriends+0x270>
                candidate = jackIn-whoami;
     27c:	90 91 3d 38 	lds	r25, 0x383D	; 0x80383d <whoami>
     280:	80 91 2f 38 	lds	r24, 0x382F	; 0x80382f <jackIn.3786>
     284:	89 1b       	sub	r24, r25
     286:	80 93 2e 38 	sts	0x382E, r24	; 0x80382e <__data_end>
                if (candidate > whoami) setDAC[0] = 250; else setDAC[0] = 0;
     28a:	98 17       	cp	r25, r24
     28c:	20 f4       	brcc	.+8      	; 0x296 <MakeFriends+0x1a2>
     28e:	8a ef       	ldi	r24, 0xFA	; 250
     290:	80 93 00 38 	sts	0x3800, r24	; 0x803800 <__data_start>
     294:	02 c0       	rjmp	.+4      	; 0x29a <MakeFriends+0x1a6>
     296:	10 92 00 38 	sts	0x3800, r1	; 0x803800 <__data_start>
                progress = THIRD_KISS;
     29a:	83 e0       	ldi	r24, 0x03	; 3
     29c:	80 93 31 38 	sts	0x3831, r24	; 0x803831 <progress.3783>
                chkTmr = 0;
     2a0:	10 92 30 38 	sts	0x3830, r1	; 0x803830 <chkTmr.3785>
     2a4:	5f c0       	rjmp	.+190    	; 0x364 <MakeFriends+0x270>
            }
        } 
        
        //Wait a bit, check Voltage again, if ok show who you connected with and your own number, save, exit
        else if (progress == THIRD_KISS) {
     2a6:	83 30       	cpi	r24, 0x03	; 3
     2a8:	e1 f5       	brne	.+120    	; 0x322 <MakeFriends+0x22e>
            chkTmr++;
     2aa:	80 91 30 38 	lds	r24, 0x3830	; 0x803830 <chkTmr.3785>
     2ae:	8f 5f       	subi	r24, 0xFF	; 255
     2b0:	80 93 30 38 	sts	0x3830, r24	; 0x803830 <chkTmr.3785>
            if (chkTmr >= SHORT_WAIT) {
     2b4:	88 30       	cpi	r24, 0x08	; 8
     2b6:	08 f4       	brcc	.+2      	; 0x2ba <MakeFriends+0x1c6>
                if (chkVolt250() == 5) {
     2b8:	55 c0       	rjmp	.+170    	; 0x364 <MakeFriends+0x270>
     2ba:	fe de       	rcall	.-516    	; 0xb8 <chkVolt250>
     2bc:	85 30       	cpi	r24, 0x05	; 5
     2be:	09 f0       	breq	.+2      	; 0x2c2 <MakeFriends+0x1ce>
     2c0:	99 cf       	rjmp	.-206    	; 0x1f4 <MakeFriends+0x100>
                    UpdateState(99+candidate);
     2c2:	80 91 2e 38 	lds	r24, 0x382E	; 0x80382e <__data_end>
     2c6:	8d 59       	subi	r24, 0x9D	; 157
     2c8:	0e 94 c7 0a 	call	0x158e	; 0x158e <UpdateState>
                    UpdateState(99+whoami);
     2cc:	80 91 3d 38 	lds	r24, 0x383D	; 0x80383d <whoami>
     2d0:	8d 59       	subi	r24, 0x9D	; 157
     2d2:	0e 94 c7 0a 	call	0x158e	; 0x158e <UpdateState>
                    for (uint8_t x=0; x<5; ++x){
                        iLED[WING[L][x]] = (x<candidate)?dimValue:0;
     2d6:	20 91 2e 38 	lds	r18, 0x382E	; 0x80382e <__data_end>
                        iLED[WING[R][x]] = (x<whoami)?dimValue:00;
     2da:	30 91 3d 38 	lds	r19, 0x383D	; 0x80383d <whoami>
     2de:	a4 ea       	ldi	r26, 0xA4	; 164
     2e0:	be eb       	ldi	r27, 0xBE	; 190
            chkTmr++;
            if (chkTmr >= SHORT_WAIT) {
                if (chkVolt250() == 5) {
                    UpdateState(99+candidate);
                    UpdateState(99+whoami);
                    for (uint8_t x=0; x<5; ++x){
     2e2:	80 e0       	ldi	r24, 0x00	; 0
     2e4:	ed 01       	movw	r28, r26
                        iLED[WING[L][x]] = (x<candidate)?dimValue:0;
     2e6:	15 96       	adiw	r26, 0x05	; 5
     2e8:	ec 91       	ld	r30, X
     2ea:	15 97       	sbiw	r26, 0x05	; 5
     2ec:	f0 e0       	ldi	r31, 0x00	; 0
     2ee:	82 17       	cp	r24, r18
     2f0:	18 f4       	brcc	.+6      	; 0x2f8 <MakeFriends+0x204>
     2f2:	90 91 0b 38 	lds	r25, 0x380B	; 0x80380b <dimValue>
     2f6:	01 c0       	rjmp	.+2      	; 0x2fa <MakeFriends+0x206>
     2f8:	90 e0       	ldi	r25, 0x00	; 0
     2fa:	e4 53       	subi	r30, 0x34	; 52
     2fc:	f5 4c       	sbci	r31, 0xC5	; 197
     2fe:	90 83       	st	Z, r25
     300:	11 96       	adiw	r26, 0x01	; 1
                        iLED[WING[R][x]] = (x<whoami)?dimValue:00;
     302:	e8 81       	ld	r30, Y
     304:	f0 e0       	ldi	r31, 0x00	; 0
     306:	83 17       	cp	r24, r19
     308:	18 f4       	brcc	.+6      	; 0x310 <MakeFriends+0x21c>
     30a:	90 91 0b 38 	lds	r25, 0x380B	; 0x80380b <dimValue>
     30e:	01 c0       	rjmp	.+2      	; 0x312 <MakeFriends+0x21e>
     310:	90 e0       	ldi	r25, 0x00	; 0
     312:	e4 53       	subi	r30, 0x34	; 52
     314:	f5 4c       	sbci	r31, 0xC5	; 197
     316:	90 83       	st	Z, r25
            chkTmr++;
            if (chkTmr >= SHORT_WAIT) {
                if (chkVolt250() == 5) {
                    UpdateState(99+candidate);
                    UpdateState(99+whoami);
                    for (uint8_t x=0; x<5; ++x){
     318:	8f 5f       	subi	r24, 0xFF	; 255
     31a:	85 30       	cpi	r24, 0x05	; 5
     31c:	19 f7       	brne	.-58     	; 0x2e4 <MakeFriends+0x1f0>
                        iLED[WING[L][x]] = (x<candidate)?dimValue:0;
                        iLED[WING[R][x]] = (x<whoami)?dimValue:00;
                    }   
                    progress = FOURTH_BASE;
     31e:	84 e0       	ldi	r24, 0x04	; 4
     320:	bd cf       	rjmp	.-134    	; 0x29c <MakeFriends+0x1a8>
                } else progress = NO_OTHER;                
                chkTmr = 0;
            }

        //Wait for divorce of force quit
        } else if (progress == FOURTH_BASE) {
     322:	84 30       	cpi	r24, 0x04	; 4
            if (chkVolt250() == 5) {
     324:	f9 f4       	brne	.+62     	; 0x364 <MakeFriends+0x270>
     326:	c8 de       	rcall	.-624    	; 0xb8 <chkVolt250>
     328:	85 30       	cpi	r24, 0x05	; 5
     32a:	e1 f4       	brne	.+56     	; 0x364 <MakeFriends+0x270>
                chkTmr++;
     32c:	80 91 30 38 	lds	r24, 0x3830	; 0x803830 <chkTmr.3785>
     330:	8f 5f       	subi	r24, 0xFF	; 255
     332:	80 93 30 38 	sts	0x3830, r24	; 0x803830 <chkTmr.3785>
                if (chkTmr >= LONG_WAIT) {
     336:	8a 3f       	cpi	r24, 0xFA	; 250
     338:	a8 f0       	brcs	.+42     	; 0x364 <MakeFriends+0x270>
     33a:	e4 ea       	ldi	r30, 0xA4	; 164
     33c:	fe eb       	ldi	r31, 0xBE	; 190
     33e:	89 ea       	ldi	r24, 0xA9	; 169
     340:	9e eb       	ldi	r25, 0xBE	; 190
     342:	ef 01       	movw	r28, r30
                    for (uint8_t x=0; x<5; ++x){
                        iLED[WING[L][x]] = 0;
     344:	a5 81       	ldd	r26, Z+5	; 0x05
     346:	b0 e0       	ldi	r27, 0x00	; 0
     348:	a4 53       	subi	r26, 0x34	; 52
     34a:	b5 4c       	sbci	r27, 0xC5	; 197
     34c:	1c 92       	st	X, r1
     34e:	31 96       	adiw	r30, 0x01	; 1
                        iLED[WING[R][x]] = 0;
     350:	a8 81       	ld	r26, Y
     352:	b0 e0       	ldi	r27, 0x00	; 0
     354:	a4 53       	subi	r26, 0x34	; 52
     356:	b5 4c       	sbci	r27, 0xC5	; 197
     358:	1c 92       	st	X, r1
        //Wait for divorce of force quit
        } else if (progress == FOURTH_BASE) {
            if (chkVolt250() == 5) {
                chkTmr++;
                if (chkTmr >= LONG_WAIT) {
                    for (uint8_t x=0; x<5; ++x){
     35a:	8e 17       	cp	r24, r30
     35c:	9f 07       	cpc	r25, r31
     35e:	89 f7       	brne	.-30     	; 0x342 <MakeFriends+0x24e>
                    }                    
                }
            }
        }

    } else progress = NO_OTHER;
     360:	10 92 31 38 	sts	0x3831, r1	; 0x803831 <progress.3783>
      
    return 0;
}
     364:	80 e0       	ldi	r24, 0x00	; 0
     366:	df 91       	pop	r29
     368:	cf 91       	pop	r28
     36a:	1f 91       	pop	r17
     36c:	0f 91       	pop	r16
     36e:	ff 90       	pop	r15
     370:	ef 90       	pop	r14
     372:	08 95       	ret

00000374 <I2C_init>:
// the Atmel device documentation mentions a special command for repeated start TWI_MCMD_REPSTART_gc,
// but this is not used in Atmel's demo code, so we don't use it either

void I2C_rep_start(uint8_t shifted_addr)						    // send repeated start, device_addr + LSB set if READ
{
	TWI0.MADDR = shifted_addr;	
     374:	81 e0       	ldi	r24, 0x01	; 1
     376:	80 93 22 04 	sts	0x0422, r24	; 0x800422 <__TEXT_REGION_LENGTH__+0x700422>
     37a:	e6 e2       	ldi	r30, 0x26	; 38
     37c:	f4 e0       	ldi	r31, 0x04	; 4
     37e:	80 83       	st	Z, r24
     380:	10 92 30 04 	sts	0x0430, r1	; 0x800430 <__TEXT_REGION_LENGTH__+0x700430>
     384:	a1 e2       	ldi	r26, 0x21	; 33
     386:	b4 e0       	ldi	r27, 0x04	; 4
     388:	92 e0       	ldi	r25, 0x02	; 2
     38a:	9c 93       	st	X, r25
     38c:	90 83       	st	Z, r25
     38e:	10 92 31 04 	sts	0x0431, r1	; 0x800431 <__TEXT_REGION_LENGTH__+0x700431>
     392:	e0 e1       	ldi	r30, 0x10	; 16
     394:	f8 e0       	ldi	r31, 0x08	; 8
     396:	97 e0       	ldi	r25, 0x07	; 7
     398:	96 83       	std	Z+6, r25	; 0x06
     39a:	98 e0       	ldi	r25, 0x08	; 8
     39c:	94 83       	std	Z+4, r25	; 0x04
     39e:	83 83       	std	Z+3, r24	; 0x03
     3a0:	8c 93       	st	X, r24
     3a2:	85 81       	ldd	r24, Z+5	; 0x05
     3a4:	81 60       	ori	r24, 0x01	; 1
     3a6:	85 83       	std	Z+5, r24	; 0x05
     3a8:	85 81       	ldd	r24, Z+5	; 0x05
     3aa:	84 6c       	ori	r24, 0xC4	; 196
     3ac:	85 83       	std	Z+5, r24	; 0x05
     3ae:	08 95       	ret

000003b0 <I2C_recover>:
     3b0:	80 91 14 08 	lds	r24, 0x0814	; 0x800814 <__TEXT_REGION_LENGTH__+0x700814>
     3b4:	88 60       	ori	r24, 0x08	; 8
     3b6:	80 93 14 08 	sts	0x0814, r24	; 0x800814 <__TEXT_REGION_LENGTH__+0x700814>
     3ba:	10 92 13 08 	sts	0x0813, r1	; 0x800813 <__TEXT_REGION_LENGTH__+0x700813>
     3be:	82 e0       	ldi	r24, 0x02	; 2
     3c0:	80 93 22 04 	sts	0x0422, r24	; 0x800422 <__TEXT_REGION_LENGTH__+0x700422>
     3c4:	99 e0       	ldi	r25, 0x09	; 9
     3c6:	21 e0       	ldi	r18, 0x01	; 1
     3c8:	81 e0       	ldi	r24, 0x01	; 1
     3ca:	20 93 21 04 	sts	0x0421, r18	; 0x800421 <__TEXT_REGION_LENGTH__+0x700421>
     3ce:	30 e1       	ldi	r19, 0x10	; 16
     3d0:	3a 95       	dec	r19
     3d2:	f1 f7       	brne	.-4      	; 0x3d0 <I2C_recover+0x20>
     3d4:	00 c0       	rjmp	.+0      	; 0x3d6 <I2C_recover+0x26>
     3d6:	20 93 22 04 	sts	0x0422, r18	; 0x800422 <__TEXT_REGION_LENGTH__+0x700422>
     3da:	30 e1       	ldi	r19, 0x10	; 16
     3dc:	3a 95       	dec	r19
     3de:	f1 f7       	brne	.-4      	; 0x3dc <I2C_recover+0x2c>
     3e0:	00 c0       	rjmp	.+0      	; 0x3e2 <I2C_recover+0x32>
     3e2:	91 50       	subi	r25, 0x01	; 1
     3e4:	89 f7       	brne	.-30     	; 0x3c8 <I2C_recover+0x18>
     3e6:	28 e0       	ldi	r18, 0x08	; 8
     3e8:	20 93 14 08 	sts	0x0814, r18	; 0x800814 <__TEXT_REGION_LENGTH__+0x700814>
     3ec:	80 93 13 08 	sts	0x0813, r24	; 0x800813 <__TEXT_REGION_LENGTH__+0x700813>
     3f0:	92 e0       	ldi	r25, 0x02	; 2
     3f2:	90 93 21 04 	sts	0x0421, r25	; 0x800421 <__TEXT_REGION_LENGTH__+0x700421>
     3f6:	90 91 15 08 	lds	r25, 0x0815	; 0x800815 <__TEXT_REGION_LENGTH__+0x700815>
     3fa:	91 60       	ori	r25, 0x01	; 1
     3fc:	90 93 15 08 	sts	0x0815, r25	; 0x800815 <__TEXT_REGION_LENGTH__+0x700815>
     400:	90 91 15 08 	lds	r25, 0x0815	; 0x800815 <__TEXT_REGION_LENGTH__+0x700815>
     404:	94 6c       	ori	r25, 0xC4	; 196
     406:	90 93 15 08 	sts	0x0815, r25	; 0x800815 <__TEXT_REGION_LENGTH__+0x700815>
     40a:	20 93 14 08 	sts	0x0814, r18	; 0x800814 <__TEXT_REGION_LENGTH__+0x700814>
     40e:	80 93 13 08 	sts	0x0813, r24	; 0x800813 <__TEXT_REGION_LENGTH__+0x700813>
     412:	80 93 21 04 	sts	0x0421, r24	; 0x800421 <__TEXT_REGION_LENGTH__+0x700421>
     416:	80 91 15 08 	lds	r24, 0x0815	; 0x800815 <__TEXT_REGION_LENGTH__+0x700815>
     41a:	81 60       	ori	r24, 0x01	; 1
     41c:	80 93 15 08 	sts	0x0815, r24	; 0x800815 <__TEXT_REGION_LENGTH__+0x700815>
     420:	80 91 15 08 	lds	r24, 0x0815	; 0x800815 <__TEXT_REGION_LENGTH__+0x700815>
     424:	84 6c       	ori	r24, 0xC4	; 196
     426:	80 93 15 08 	sts	0x0815, r24	; 0x800815 <__TEXT_REGION_LENGTH__+0x700815>
     42a:	08 95       	ret

0000042c <I2C_start>:
     42c:	28 2f       	mov	r18, r24
     42e:	90 91 15 08 	lds	r25, 0x0815	; 0x800815 <__TEXT_REGION_LENGTH__+0x700815>
     432:	90 6c       	ori	r25, 0xC0	; 192
     434:	90 93 15 08 	sts	0x0815, r25	; 0x800815 <__TEXT_REGION_LENGTH__+0x700815>
     438:	90 91 15 08 	lds	r25, 0x0815	; 0x800815 <__TEXT_REGION_LENGTH__+0x700815>
     43c:	89 2f       	mov	r24, r25
     43e:	84 70       	andi	r24, 0x04	; 4
     440:	92 fd       	sbrc	r25, 2
     442:	03 c0       	rjmp	.+6      	; 0x44a <I2C_start+0x1e>
     444:	20 93 17 08 	sts	0x0817, r18	; 0x800817 <__TEXT_REGION_LENGTH__+0x700817>
     448:	08 95       	ret
     44a:	84 e0       	ldi	r24, 0x04	; 4
     44c:	08 95       	ret

0000044e <I2C_wait_ACK>:
     44e:	8c e0       	ldi	r24, 0x0C	; 12
     450:	80 93 62 3a 	sts	0x3A62, r24	; 0x803a62 <timeout_I2C>
     454:	80 91 15 08 	lds	r24, 0x0815	; 0x800815 <__TEXT_REGION_LENGTH__+0x700815>
     458:	87 fd       	sbrc	r24, 7
     45a:	0a c0       	rjmp	.+20     	; 0x470 <I2C_wait_ACK+0x22>
     45c:	80 91 15 08 	lds	r24, 0x0815	; 0x800815 <__TEXT_REGION_LENGTH__+0x700815>
     460:	86 fd       	sbrc	r24, 6
     462:	06 c0       	rjmp	.+12     	; 0x470 <I2C_wait_ACK+0x22>
     464:	80 91 62 3a 	lds	r24, 0x3A62	; 0x803a62 <timeout_I2C>
     468:	81 11       	cpse	r24, r1
     46a:	f4 cf       	rjmp	.-24     	; 0x454 <I2C_wait_ACK+0x6>
     46c:	8f ef       	ldi	r24, 0xFF	; 255
     46e:	08 95       	ret
     470:	80 91 15 08 	lds	r24, 0x0815	; 0x800815 <__TEXT_REGION_LENGTH__+0x700815>
     474:	80 6c       	ori	r24, 0xC0	; 192
     476:	80 93 15 08 	sts	0x0815, r24	; 0x800815 <__TEXT_REGION_LENGTH__+0x700815>
     47a:	80 91 15 08 	lds	r24, 0x0815	; 0x800815 <__TEXT_REGION_LENGTH__+0x700815>
     47e:	82 fd       	sbrc	r24, 2
     480:	09 c0       	rjmp	.+18     	; 0x494 <I2C_wait_ACK+0x46>
     482:	80 91 15 08 	lds	r24, 0x0815	; 0x800815 <__TEXT_REGION_LENGTH__+0x700815>
     486:	83 fd       	sbrc	r24, 3
     488:	07 c0       	rjmp	.+14     	; 0x498 <I2C_wait_ACK+0x4a>
     48a:	80 91 15 08 	lds	r24, 0x0815	; 0x800815 <__TEXT_REGION_LENGTH__+0x700815>
     48e:	82 95       	swap	r24
     490:	81 70       	andi	r24, 0x01	; 1
     492:	08 95       	ret
     494:	84 e0       	ldi	r24, 0x04	; 4
     496:	08 95       	ret
     498:	82 e0       	ldi	r24, 0x02	; 2
     49a:	08 95       	ret

0000049c <I2C_read>:
}

uint8_t	I2C_read(uint8_t *data, uint8_t ack_flag)					// read data, ack_flag 0: send ACK, 1: send NACK, returns status
{
     49c:	fc 01       	movw	r30, r24
	timeout_I2C = READ_TIMEOUT;										// reset timeout counter, will be decremented by LED matrix interrupt
     49e:	8c e0       	ldi	r24, 0x0C	; 12
     4a0:	80 93 62 3a 	sts	0x3A62, r24	; 0x803a62 <timeout_I2C>
	if ((TWI0.MSTATUS & TWI_BUSSTATE_gm) == TWI_BUSSTATE_OWNER_gc)	// if master controls bus
     4a4:	90 91 15 08 	lds	r25, 0x0815	; 0x800815 <__TEXT_REGION_LENGTH__+0x700815>
     4a8:	89 2f       	mov	r24, r25
     4aa:	83 70       	andi	r24, 0x03	; 3
     4ac:	82 30       	cpi	r24, 0x02	; 2
     4ae:	11 f0       	breq	.+4      	; 0x4b4 <I2C_read+0x18>
		else		TWI0.MCTRLB |= TWI_ACKACT_NACK_gc;				// setup NACK (last byte read)
		*data = TWI0.MDATA;
		if (ack_flag == 0) TWI0.MCTRLB |= TWI_MCMD_RECVTRANS_gc;	// send ACK, more bytes to follow					
		return 0;
	}
	else return 8;													// master does not control bus
     4b0:	88 e0       	ldi	r24, 0x08	; 8
     4b2:	08 95       	ret
uint8_t	I2C_read(uint8_t *data, uint8_t ack_flag)					// read data, ack_flag 0: send ACK, 1: send NACK, returns status
{
	timeout_I2C = READ_TIMEOUT;										// reset timeout counter, will be decremented by LED matrix interrupt
	if ((TWI0.MSTATUS & TWI_BUSSTATE_gm) == TWI_BUSSTATE_OWNER_gc)	// if master controls bus
	{		
		while (!(TWI0.MSTATUS & TWI_RIF_bm))						// wait for RIF set (data byte received)
     4b4:	90 91 15 08 	lds	r25, 0x0815	; 0x800815 <__TEXT_REGION_LENGTH__+0x700815>
     4b8:	97 fd       	sbrc	r25, 7
     4ba:	06 c0       	rjmp	.+12     	; 0x4c8 <I2C_read+0x2c>
		{
			if (!(timeout_I2C)) return 0xff;			            // return timeout error
     4bc:	90 91 62 3a 	lds	r25, 0x3A62	; 0x803a62 <timeout_I2C>
     4c0:	91 11       	cpse	r25, r1
     4c2:	f8 cf       	rjmp	.-16     	; 0x4b4 <I2C_read+0x18>
     4c4:	8f ef       	ldi	r24, 0xFF	; 255
     4c6:	08 95       	ret
		}
		TWI0.MSTATUS |= (TWI_RIF_bm | TWI_WIF_bm);					// clear Read and Write interrupt flags	
     4c8:	90 91 15 08 	lds	r25, 0x0815	; 0x800815 <__TEXT_REGION_LENGTH__+0x700815>
     4cc:	90 6c       	ori	r25, 0xC0	; 192
     4ce:	90 93 15 08 	sts	0x0815, r25	; 0x800815 <__TEXT_REGION_LENGTH__+0x700815>
		if (TWI0.MSTATUS & TWI_BUSERR_bm) return 4;					// Bus Error, abort
     4d2:	90 91 15 08 	lds	r25, 0x0815	; 0x800815 <__TEXT_REGION_LENGTH__+0x700815>
     4d6:	92 fd       	sbrc	r25, 2
     4d8:	1e c0       	rjmp	.+60     	; 0x516 <I2C_read+0x7a>
		if (TWI0.MSTATUS & TWI_ARBLOST_bm) return 2;				// Arbitration Lost, abort
     4da:	90 91 15 08 	lds	r25, 0x0815	; 0x800815 <__TEXT_REGION_LENGTH__+0x700815>
     4de:	93 fd       	sbrc	r25, 3
     4e0:	1d c0       	rjmp	.+58     	; 0x51c <I2C_read+0x80>
		if (TWI0.MSTATUS & TWI_RXACK_bm) return 1;					// Slave replied with NACK, abort				
     4e2:	90 91 15 08 	lds	r25, 0x0815	; 0x800815 <__TEXT_REGION_LENGTH__+0x700815>
     4e6:	89 2f       	mov	r24, r25
     4e8:	80 71       	andi	r24, 0x10	; 16
     4ea:	94 fd       	sbrc	r25, 4
     4ec:	16 c0       	rjmp	.+44     	; 0x51a <I2C_read+0x7e>
		if (ack_flag == 0) TWI0.MCTRLB &= ~(1 << TWI_ACKACT_bp);	// setup ACK
     4ee:	90 91 14 08 	lds	r25, 0x0814	; 0x800814 <__TEXT_REGION_LENGTH__+0x700814>
     4f2:	61 11       	cpse	r22, r1
     4f4:	02 c0       	rjmp	.+4      	; 0x4fa <I2C_read+0x5e>
     4f6:	9b 7f       	andi	r25, 0xFB	; 251
     4f8:	01 c0       	rjmp	.+2      	; 0x4fc <I2C_read+0x60>
		else		TWI0.MCTRLB |= TWI_ACKACT_NACK_gc;				// setup NACK (last byte read)
     4fa:	94 60       	ori	r25, 0x04	; 4
     4fc:	90 93 14 08 	sts	0x0814, r25	; 0x800814 <__TEXT_REGION_LENGTH__+0x700814>
		*data = TWI0.MDATA;
     500:	90 91 18 08 	lds	r25, 0x0818	; 0x800818 <__TEXT_REGION_LENGTH__+0x700818>
     504:	90 83       	st	Z, r25
		if (ack_flag == 0) TWI0.MCTRLB |= TWI_MCMD_RECVTRANS_gc;	// send ACK, more bytes to follow					
     506:	61 11       	cpse	r22, r1
     508:	09 c0       	rjmp	.+18     	; 0x51c <I2C_read+0x80>
     50a:	90 91 14 08 	lds	r25, 0x0814	; 0x800814 <__TEXT_REGION_LENGTH__+0x700814>
     50e:	92 60       	ori	r25, 0x02	; 2
     510:	90 93 14 08 	sts	0x0814, r25	; 0x800814 <__TEXT_REGION_LENGTH__+0x700814>
     514:	08 95       	ret
		while (!(TWI0.MSTATUS & TWI_RIF_bm))						// wait for RIF set (data byte received)
		{
			if (!(timeout_I2C)) return 0xff;			            // return timeout error
		}
		TWI0.MSTATUS |= (TWI_RIF_bm | TWI_WIF_bm);					// clear Read and Write interrupt flags	
		if (TWI0.MSTATUS & TWI_BUSERR_bm) return 4;					// Bus Error, abort
     516:	84 e0       	ldi	r24, 0x04	; 4
     518:	08 95       	ret
		if (TWI0.MSTATUS & TWI_ARBLOST_bm) return 2;				// Arbitration Lost, abort
		if (TWI0.MSTATUS & TWI_RXACK_bm) return 1;					// Slave replied with NACK, abort				
     51a:	81 e0       	ldi	r24, 0x01	; 1
		*data = TWI0.MDATA;
		if (ack_flag == 0) TWI0.MCTRLB |= TWI_MCMD_RECVTRANS_gc;	// send ACK, more bytes to follow					
		return 0;
	}
	else return 8;													// master does not control bus
}
     51c:	08 95       	ret

0000051e <I2C_write>:

uint8_t I2C_write(uint8_t *data)									// write data, return status
{
     51e:	fc 01       	movw	r30, r24
	timeout_I2C = WRITE_TIMEOUT;									// reset timeout counter, will be decremented by LED matrix interrupt
     520:	8c e0       	ldi	r24, 0x0C	; 12
     522:	80 93 62 3a 	sts	0x3A62, r24	; 0x803a62 <timeout_I2C>
	if ((TWI0.MSTATUS & TWI_BUSSTATE_gm) == TWI_BUSSTATE_OWNER_gc)	// if master controls bus
     526:	90 91 15 08 	lds	r25, 0x0815	; 0x800815 <__TEXT_REGION_LENGTH__+0x700815>
     52a:	93 70       	andi	r25, 0x03	; 3
     52c:	92 30       	cpi	r25, 0x02	; 2
     52e:	b1 f4       	brne	.+44     	; 0x55c <I2C_write+0x3e>
	{
		TWI0.MDATA = *data;		
     530:	80 81       	ld	r24, Z
     532:	80 93 18 08 	sts	0x0818, r24	; 0x800818 <__TEXT_REGION_LENGTH__+0x700818>
		while (!(TWI0.MSTATUS & TWI_WIF_bm))						// wait until WIF set, status register contains ACK/NACK bit
     536:	80 91 15 08 	lds	r24, 0x0815	; 0x800815 <__TEXT_REGION_LENGTH__+0x700815>
     53a:	86 fd       	sbrc	r24, 6
     53c:	06 c0       	rjmp	.+12     	; 0x54a <I2C_write+0x2c>
		{
			if (!(timeout_I2C)) return 0xff;			            // return timeout error
     53e:	80 91 62 3a 	lds	r24, 0x3A62	; 0x803a62 <timeout_I2C>
     542:	81 11       	cpse	r24, r1
     544:	f8 cf       	rjmp	.-16     	; 0x536 <I2C_write+0x18>
     546:	8f ef       	ldi	r24, 0xFF	; 255
     548:	08 95       	ret
		}
		if (TWI0.MSTATUS & TWI_BUSERR_bm) return 4;					// Bus Error, abort
     54a:	80 91 15 08 	lds	r24, 0x0815	; 0x800815 <__TEXT_REGION_LENGTH__+0x700815>
     54e:	82 fd       	sbrc	r24, 2
     550:	07 c0       	rjmp	.+14     	; 0x560 <I2C_write+0x42>
		if (TWI0.MSTATUS & TWI_RXACK_bm) return 1;					// Slave replied with NACK, abort
     552:	80 91 15 08 	lds	r24, 0x0815	; 0x800815 <__TEXT_REGION_LENGTH__+0x700815>
	if ((TWI0.MSTATUS & TWI_BUSSTATE_gm) == TWI_BUSSTATE_OWNER_gc)	// if master controls bus
	{
		TWI0.MDATA = *data;		
		while (!(TWI0.MSTATUS & TWI_WIF_bm))						// wait until WIF set, status register contains ACK/NACK bit
		{
			if (!(timeout_I2C)) return 0xff;			            // return timeout error
     556:	82 95       	swap	r24
     558:	81 70       	andi	r24, 0x01	; 1
     55a:	08 95       	ret
		}
		if (TWI0.MSTATUS & TWI_BUSERR_bm) return 4;					// Bus Error, abort
		if (TWI0.MSTATUS & TWI_RXACK_bm) return 1;					// Slave replied with NACK, abort
		return 0;													// no error	
	}
	else return 8;													// master does not control bus
     55c:	88 e0       	ldi	r24, 0x08	; 8
     55e:	08 95       	ret
		TWI0.MDATA = *data;		
		while (!(TWI0.MSTATUS & TWI_WIF_bm))						// wait until WIF set, status register contains ACK/NACK bit
		{
			if (!(timeout_I2C)) return 0xff;			            // return timeout error
		}
		if (TWI0.MSTATUS & TWI_BUSERR_bm) return 4;					// Bus Error, abort
     560:	84 e0       	ldi	r24, 0x04	; 4
		if (TWI0.MSTATUS & TWI_RXACK_bm) return 1;					// Slave replied with NACK, abort
		return 0;													// no error	
	}
	else return 8;													// master does not control bus
}
     562:	08 95       	ret

00000564 <I2C_stop>:

void I2C_stop()
{
	TWI0.MCTRLB |= TWI_MCMD_STOP_gc;
     564:	e0 e1       	ldi	r30, 0x10	; 16
     566:	f8 e0       	ldi	r31, 0x08	; 8
     568:	84 81       	ldd	r24, Z+4	; 0x04
     56a:	83 60       	ori	r24, 0x03	; 3
     56c:	84 83       	std	Z+4, r24	; 0x04
     56e:	08 95       	ret

00000570 <I2C_read_bytes>:
// addr_ptr		address of first array element to transfer
// slave reg	starting slave register
// num_bytes	number of bytes to transfer

uint8_t	I2C_read_bytes(uint8_t slave_addr, uint8_t *reg_ptr, uint8_t reg_len, uint8_t *dat_ptr, uint8_t dat_len)
{
     570:	cf 92       	push	r12
     572:	df 92       	push	r13
     574:	ff 92       	push	r15
     576:	0f 93       	push	r16
     578:	1f 93       	push	r17
     57a:	cf 93       	push	r28
     57c:	df 93       	push	r29
     57e:	6b 01       	movw	r12, r22
     580:	f4 2e       	mov	r15, r20
     582:	e9 01       	movw	r28, r18
	uint8_t status;
	if (dat_len > MAX_LEN) dat_len = MAX_LEN;
	status = I2C_start(slave_addr << 1);							// slave write address, LSB 0
     584:	18 2f       	mov	r17, r24
     586:	11 0f       	add	r17, r17
     588:	81 2f       	mov	r24, r17
     58a:	50 df       	rcall	.-352    	; 0x42c <I2C_start>
	if (status != 0) goto error;
     58c:	81 11       	cpse	r24, r1
	status = I2C_wait_ACK();										// wait for slave ACK
     58e:	2b c0       	rjmp	.+86     	; 0x5e6 <I2C_read_bytes+0x76>
     590:	5e df       	rcall	.-324    	; 0x44e <I2C_wait_ACK>
	if (status == 1) {
     592:	81 30       	cpi	r24, 0x01	; 1
		I2C_stop();													// NACK, abort
     594:	19 f4       	brne	.+6      	; 0x59c <I2C_read_bytes+0x2c>
     596:	e6 df       	rcall	.-52     	; 0x564 <I2C_stop>
		return 1;
     598:	81 e0       	ldi	r24, 0x01	; 1
     59a:	27 c0       	rjmp	.+78     	; 0x5ea <I2C_read_bytes+0x7a>
	}
	if (status != 0) goto error;
     59c:	81 11       	cpse	r24, r1
     59e:	23 c0       	rjmp	.+70     	; 0x5e6 <I2C_read_bytes+0x76>
    while(reg_len > 0){
     5a0:	ff 20       	and	r15, r15
	    status = I2C_write(reg_ptr);    							// send slave start register
     5a2:	49 f0       	breq	.+18     	; 0x5b6 <I2C_read_bytes+0x46>
     5a4:	c6 01       	movw	r24, r12
     5a6:	bb df       	rcall	.-138    	; 0x51e <I2C_write>
	    if (status != 0) goto error;
     5a8:	81 11       	cpse	r24, r1
     5aa:	1d c0       	rjmp	.+58     	; 0x5e6 <I2C_read_bytes+0x76>
        ++reg_ptr;
     5ac:	8f ef       	ldi	r24, 0xFF	; 255
     5ae:	c8 1a       	sub	r12, r24
     5b0:	d8 0a       	sbc	r13, r24
        --reg_len;
     5b2:	fa 94       	dec	r15
     5b4:	f5 cf       	rjmp	.-22     	; 0x5a0 <I2C_read_bytes+0x30>
     5b6:	01 34       	cpi	r16, 0x41	; 65
     5b8:	08 f0       	brcs	.+2      	; 0x5bc <I2C_read_bytes+0x4c>
     5ba:	00 e4       	ldi	r16, 0x40	; 64
    }
	I2C_rep_start((slave_addr << 1) + 1);							// slave read address, LSB 1
     5bc:	1f 5f       	subi	r17, 0xFF	; 255
// the Atmel device documentation mentions a special command for repeated start TWI_MCMD_REPSTART_gc,
// but this is not used in Atmel's demo code, so we don't use it either

void I2C_rep_start(uint8_t shifted_addr)						    // send repeated start, device_addr + LSB set if READ
{
	TWI0.MADDR = shifted_addr;	
     5be:	10 93 17 08 	sts	0x0817, r17	; 0x800817 <__TEXT_REGION_LENGTH__+0x700817>
	    if (status != 0) goto error;
        ++reg_ptr;
        --reg_len;
    }
	I2C_rep_start((slave_addr << 1) + 1);							// slave read address, LSB 1
	while (dat_len > 1) {
     5c2:	02 30       	cpi	r16, 0x02	; 2
		status = I2C_read(dat_ptr, 0);								// first bytes, send ACK
     5c4:	40 f0       	brcs	.+16     	; 0x5d6 <I2C_read_bytes+0x66>
     5c6:	60 e0       	ldi	r22, 0x00	; 0
     5c8:	ce 01       	movw	r24, r28
     5ca:	68 df       	rcall	.-304    	; 0x49c <I2C_read>
		if (status != 0) goto error;
     5cc:	81 11       	cpse	r24, r1
     5ce:	0b c0       	rjmp	.+22     	; 0x5e6 <I2C_read_bytes+0x76>
		++dat_ptr;
		--dat_len;
     5d0:	21 96       	adiw	r28, 0x01	; 1
     5d2:	01 50       	subi	r16, 0x01	; 1
	}
	status = I2C_read(dat_ptr, 1);									// single or last byte, send NACK
     5d4:	f6 cf       	rjmp	.-20     	; 0x5c2 <I2C_read_bytes+0x52>
     5d6:	61 e0       	ldi	r22, 0x01	; 1
     5d8:	ce 01       	movw	r24, r28
	if (status != 0) goto error;
     5da:	60 df       	rcall	.-320    	; 0x49c <I2C_read>
     5dc:	81 11       	cpse	r24, r1
	I2C_stop();
     5de:	03 c0       	rjmp	.+6      	; 0x5e6 <I2C_read_bytes+0x76>
     5e0:	c1 df       	rcall	.-126    	; 0x564 <I2C_stop>
	return 0;
     5e2:	80 e0       	ldi	r24, 0x00	; 0
     5e4:	02 c0       	rjmp	.+4      	; 0x5ea <I2C_read_bytes+0x7a>
	
error:
	I2C_recover();													// clock out possibly stuck slave, reset master
     5e6:	e4 de       	rcall	.-568    	; 0x3b0 <I2C_recover>
     5e8:	8f ef       	ldi	r24, 0xFF	; 255
	return 0xff;													// flag error
     5ea:	df 91       	pop	r29
}
     5ec:	cf 91       	pop	r28
     5ee:	1f 91       	pop	r17
     5f0:	0f 91       	pop	r16
     5f2:	ff 90       	pop	r15
     5f4:	df 90       	pop	r13
     5f6:	cf 90       	pop	r12
     5f8:	08 95       	ret

000005fa <initLanyard>:
uint8_t         lastButtonState = 0xff;
uint8_t         digit = 0xff;
uint16_t        lanyardLastActive = 0;

void initLanyard() {
    lanyardPos      = 0;
     5fa:	10 92 36 38 	sts	0x3836, r1	; 0x803836 <lanyardPos>
    lanyardCnt      = 0;
     5fe:	10 92 35 38 	sts	0x3835, r1	; 0x803835 <lanyardCnt>
    lanyardState    = TRUE;
     602:	81 e0       	ldi	r24, 0x01	; 1
     604:	80 93 04 38 	sts	0x3804, r24	; 0x803804 <lanyardState>
    lastButtonState = 0xff;
     608:	8f ef       	ldi	r24, 0xFF	; 255
     60a:	80 93 03 38 	sts	0x3803, r24	; 0x803803 <lastButtonState>
    iLED[CAT]       = 0;
     60e:	e0 91 a0 be 	lds	r30, 0xBEA0	; 0x80bea0 <__bss_end+0x8384>
     612:	f0 e0       	ldi	r31, 0x00	; 0
     614:	e4 53       	subi	r30, 0x34	; 52
     616:	f5 4c       	sbci	r31, 0xC5	; 197
     618:	10 82       	st	Z, r1
    iLED[EYE[G][L]] = 0;
     61a:	e0 91 b1 be 	lds	r30, 0xBEB1	; 0x80beb1 <__bss_end+0x8395>
     61e:	f0 e0       	ldi	r31, 0x00	; 0
     620:	e4 53       	subi	r30, 0x34	; 52
     622:	f5 4c       	sbci	r31, 0xC5	; 197
     624:	10 82       	st	Z, r1
    iLED[EYE[G][R]] = 0;
     626:	e0 91 b0 be 	lds	r30, 0xBEB0	; 0x80beb0 <__bss_end+0x8394>
     62a:	f0 e0       	ldi	r31, 0x00	; 0
     62c:	e4 53       	subi	r30, 0x34	; 52
     62e:	f5 4c       	sbci	r31, 0xC5	; 197
     630:	10 82       	st	Z, r1
    iLED[EYE[R][L]] = 0;
     632:	e0 91 af be 	lds	r30, 0xBEAF	; 0x80beaf <__bss_end+0x8393>
     636:	f0 e0       	ldi	r31, 0x00	; 0
     638:	e4 53       	subi	r30, 0x34	; 52
     63a:	f5 4c       	sbci	r31, 0xC5	; 197
     63c:	10 82       	st	Z, r1
    iLED[EYE[R][R]] = 0;
     63e:	e0 91 ae be 	lds	r30, 0xBEAE	; 0x80beae <__bss_end+0x8392>
     642:	f0 e0       	ldi	r31, 0x00	; 0
     644:	e4 53       	subi	r30, 0x34	; 52
     646:	f5 4c       	sbci	r31, 0xC5	; 197
     648:	10 82       	st	Z, r1
     64a:	a8 eb       	ldi	r26, 0xB8	; 184
     64c:	be eb       	ldi	r27, 0xBE	; 190
    for (int i=0; i<6; i++ )
        iLED[HCKR[G][i]] = 0;
     64e:	ed 91       	ld	r30, X+
     650:	f0 e0       	ldi	r31, 0x00	; 0
     652:	e4 53       	subi	r30, 0x34	; 52
     654:	f5 4c       	sbci	r31, 0xC5	; 197
     656:	10 82       	st	Z, r1
    iLED[CAT]       = 0;
    iLED[EYE[G][L]] = 0;
    iLED[EYE[G][R]] = 0;
    iLED[EYE[R][L]] = 0;
    iLED[EYE[R][R]] = 0;
    for (int i=0; i<6; i++ )
     658:	8e eb       	ldi	r24, 0xBE	; 190
     65a:	ae 3b       	cpi	r26, 0xBE	; 190
     65c:	b8 07       	cpc	r27, r24
     65e:	b9 f7       	brne	.-18     	; 0x64e <initLanyard+0x54>
        iLED[HCKR[G][i]] = 0;
}
     660:	08 95       	ret

00000662 <LanyardCode>:

// Main game loop
uint8_t LanyardCode(){
     662:	cf 93       	push	r28
    if (gameNow == LANYARD && idleTimeout(lanyardLastActive,LANYARD_MAX_IDLE)) {
     664:	80 91 3c 38 	lds	r24, 0x383C	; 0x80383c <gameNow>
     668:	83 30       	cpi	r24, 0x03	; 3
     66a:	91 f4       	brne	.+36     	; 0x690 <LanyardCode+0x2e>
     66c:	6a e0       	ldi	r22, 0x0A	; 10
     66e:	70 e0       	ldi	r23, 0x00	; 0
     670:	80 91 33 38 	lds	r24, 0x3833	; 0x803833 <lanyardLastActive>
     674:	90 91 34 38 	lds	r25, 0x3834	; 0x803834 <lanyardLastActive+0x1>
     678:	0e 94 e7 0d 	call	0x1bce	; 0x1bce <idleTimeout>
     67c:	88 23       	and	r24, r24
     67e:	41 f0       	breq	.+16     	; 0x690 <LanyardCode+0x2e>
        /* clean up maze game and go back to text game */
        initLanyard();
     680:	bc df       	rcall	.-136    	; 0x5fa <initLanyard>
        gameNow = TEXT;
     682:	10 92 3c 38 	sts	0x383C, r1	; 0x80383c <gameNow>
        effect = 0;
     686:	10 92 3a 38 	sts	0x383A, r1	; 0x80383a <effect>
     68a:	10 92 3b 38 	sts	0x383B, r1	; 0x80383b <effect+0x1>
        return 0;
     68e:	c5 c0       	rjmp	.+394    	; 0x81a <LanyardCode+0x1b8>
    }

    if (CheckState(LANYARD_COMPLETED))
     690:	8b e7       	ldi	r24, 0x7B	; 123
     692:	87 d7       	rcall	.+3854   	; 0x15a2 <CheckState>
     694:	81 11       	cpse	r24, r1
     696:	c1 c0       	rjmp	.+386    	; 0x81a <LanyardCode+0x1b8>
        return 0;

    if ( gameNow != TEXT && gameNow != LANYARD )
     698:	80 91 3c 38 	lds	r24, 0x383C	; 0x80383c <gameNow>
     69c:	88 23       	and	r24, r24
     69e:	19 f0       	breq	.+6      	; 0x6a6 <LanyardCode+0x44>
     6a0:	83 30       	cpi	r24, 0x03	; 3
     6a2:	09 f0       	breq	.+2      	; 0x6a6 <LanyardCode+0x44>
     6a4:	ba c0       	rjmp	.+372    	; 0x81a <LanyardCode+0x1b8>
        return 0;

    if ( (buttonState & 0xf0) == 0)
     6a6:	90 91 09 38 	lds	r25, 0x3809	; 0x803809 <buttonState>
     6aa:	89 2f       	mov	r24, r25
     6ac:	80 7f       	andi	r24, 0xF0	; 240
     6ae:	09 f4       	brne	.+2      	; 0x6b2 <LanyardCode+0x50>
     6b0:	b4 c0       	rjmp	.+360    	; 0x81a <LanyardCode+0x1b8>
        return 0;

    /* activate led for buttonstate */
    iLED[CAT] = (buttonState==0xff ? 0 : dimValue);
     6b2:	c0 91 a0 be 	lds	r28, 0xBEA0	; 0x80bea0 <__bss_end+0x8384>
     6b6:	ec 2f       	mov	r30, r28
     6b8:	f0 e0       	ldi	r31, 0x00	; 0
     6ba:	9f 3f       	cpi	r25, 0xFF	; 255
     6bc:	19 f0       	breq	.+6      	; 0x6c4 <LanyardCode+0x62>
     6be:	80 91 0b 38 	lds	r24, 0x380B	; 0x80380b <dimValue>
     6c2:	01 c0       	rjmp	.+2      	; 0x6c6 <LanyardCode+0x64>
     6c4:	80 e0       	ldi	r24, 0x00	; 0
     6c6:	e4 53       	subi	r30, 0x34	; 52
     6c8:	f5 4c       	sbci	r31, 0xC5	; 197
     6ca:	80 83       	st	Z, r24

    if ((buttonState&0x0f) == (lastButtonState&0x0f))
     6cc:	80 91 03 38 	lds	r24, 0x3803	; 0x803803 <lastButtonState>
     6d0:	89 27       	eor	r24, r25
     6d2:	8f 70       	andi	r24, 0x0F	; 15
     6d4:	09 f4       	brne	.+2      	; 0x6d8 <LanyardCode+0x76>
     6d6:	a1 c0       	rjmp	.+322    	; 0x81a <LanyardCode+0x1b8>
        return 0;

    lanyardLastActive = getClock();
     6d8:	0e 94 d8 0d 	call	0x1bb0	; 0x1bb0 <getClock>
     6dc:	80 93 33 38 	sts	0x3833, r24	; 0x803833 <lanyardLastActive>
     6e0:	90 93 34 38 	sts	0x3834, r25	; 0x803834 <lanyardLastActive+0x1>

    if (lastButtonState == 0xff){
     6e4:	80 91 03 38 	lds	r24, 0x3803	; 0x803803 <lastButtonState>
     6e8:	8f 3f       	cpi	r24, 0xFF	; 255
     6ea:	09 f0       	breq	.+2      	; 0x6ee <LanyardCode+0x8c>
     6ec:	92 c0       	rjmp	.+292    	; 0x812 <LanyardCode+0x1b0>
        switch (buttonState & 0x0f) {
     6ee:	80 91 09 38 	lds	r24, 0x3809	; 0x803809 <buttonState>
     6f2:	8f 70       	andi	r24, 0x0F	; 15
     6f4:	82 30       	cpi	r24, 0x02	; 2
     6f6:	c1 f0       	breq	.+48     	; 0x728 <LanyardCode+0xc6>
     6f8:	58 f4       	brcc	.+22     	; 0x710 <LanyardCode+0xae>
     6fa:	81 30       	cpi	r24, 0x01	; 1
     6fc:	29 f5       	brne	.+74     	; 0x748 <LanyardCode+0xe6>
            case 0b0001:
                effect = 0x19f;
     6fe:	8f e9       	ldi	r24, 0x9F	; 159
     700:	91 e0       	ldi	r25, 0x01	; 1
     702:	80 93 3a 38 	sts	0x383A, r24	; 0x80383a <effect>
     706:	90 93 3b 38 	sts	0x383B, r25	; 0x80383b <effect+0x1>
                digit = 0;
     70a:	10 92 02 38 	sts	0x3802, r1	; 0x803802 <digit>
                break;
     70e:	1f c0       	rjmp	.+62     	; 0x74e <LanyardCode+0xec>
        return 0;

    lanyardLastActive = getClock();

    if (lastButtonState == 0xff){
        switch (buttonState & 0x0f) {
     710:	84 30       	cpi	r24, 0x04	; 4
     712:	91 f0       	breq	.+36     	; 0x738 <LanyardCode+0xd6>
     714:	88 30       	cpi	r24, 0x08	; 8
     716:	c1 f4       	brne	.+48     	; 0x748 <LanyardCode+0xe6>
                effect = 0x13f;
                digit = 3;
                break;

            case 0b1000:
                effect = 0x15f;
     718:	8f e5       	ldi	r24, 0x5F	; 95
     71a:	91 e0       	ldi	r25, 0x01	; 1
     71c:	80 93 3a 38 	sts	0x383A, r24	; 0x80383a <effect>
     720:	90 93 3b 38 	sts	0x383B, r25	; 0x80383b <effect+0x1>
                digit = 2;
     724:	82 e0       	ldi	r24, 0x02	; 2
     726:	11 c0       	rjmp	.+34     	; 0x74a <LanyardCode+0xe8>
                effect = 0x19f;
                digit = 0;
                break;

            case 0b0010:
                effect = 0x17f;
     728:	8f e7       	ldi	r24, 0x7F	; 127
     72a:	91 e0       	ldi	r25, 0x01	; 1
     72c:	80 93 3a 38 	sts	0x383A, r24	; 0x80383a <effect>
     730:	90 93 3b 38 	sts	0x383B, r25	; 0x80383b <effect+0x1>
                digit = 1;
     734:	81 e0       	ldi	r24, 0x01	; 1
     736:	09 c0       	rjmp	.+18     	; 0x74a <LanyardCode+0xe8>
                break;

            case 0b0100:
                effect = 0x13f;
     738:	8f e3       	ldi	r24, 0x3F	; 63
     73a:	91 e0       	ldi	r25, 0x01	; 1
     73c:	80 93 3a 38 	sts	0x383A, r24	; 0x80383a <effect>
     740:	90 93 3b 38 	sts	0x383B, r25	; 0x80383b <effect+0x1>
                digit = 3;
     744:	83 e0       	ldi	r24, 0x03	; 3
     746:	01 c0       	rjmp	.+2      	; 0x74a <LanyardCode+0xe8>
                effect = 0x15f;
                digit = 2;
                break;

            default:
                digit = 0xff;
     748:	8f ef       	ldi	r24, 0xFF	; 255
     74a:	80 93 02 38 	sts	0x3802, r24	; 0x803802 <digit>
                break;
        }
        gameNow = LANYARD;
     74e:	83 e0       	ldi	r24, 0x03	; 3
     750:	80 93 3c 38 	sts	0x383C, r24	; 0x80383c <gameNow>
        /* TODO play tone for button */

        if (digit == lanyardCode[lanyardPos]) {
     754:	80 91 36 38 	lds	r24, 0x3836	; 0x803836 <lanyardPos>
     758:	e8 2f       	mov	r30, r24
     75a:	f0 e0       	ldi	r31, 0x00	; 0
     75c:	e8 57       	subi	r30, 0x78	; 120
     75e:	f1 44       	sbci	r31, 0x41	; 65
     760:	20 81       	ld	r18, Z
     762:	90 91 02 38 	lds	r25, 0x3802	; 0x803802 <digit>
     766:	29 13       	cpse	r18, r25
     768:	12 c0       	rjmp	.+36     	; 0x78e <LanyardCode+0x12c>
            lanyardState &= TRUE;
     76a:	90 91 04 38 	lds	r25, 0x3804	; 0x803804 <lanyardState>
     76e:	91 70       	andi	r25, 0x01	; 1
     770:	90 93 04 38 	sts	0x3804, r25	; 0x803804 <lanyardState>
            iLED[EYE[R][L]] = 0;
     774:	e0 91 af be 	lds	r30, 0xBEAF	; 0x80beaf <__bss_end+0x8393>
     778:	f0 e0       	ldi	r31, 0x00	; 0
     77a:	e4 53       	subi	r30, 0x34	; 52
     77c:	f5 4c       	sbci	r31, 0xC5	; 197
     77e:	10 82       	st	Z, r1
            iLED[EYE[R][R]] = 0;
     780:	e0 91 ae be 	lds	r30, 0xBEAE	; 0x80beae <__bss_end+0x8392>
     784:	f0 e0       	ldi	r31, 0x00	; 0
     786:	e4 53       	subi	r30, 0x34	; 52
     788:	f5 4c       	sbci	r31, 0xC5	; 197
     78a:	10 82       	st	Z, r1
     78c:	08 c0       	rjmp	.+16     	; 0x79e <LanyardCode+0x13c>
        } else {
            lanyardState = FALSE;
     78e:	10 92 04 38 	sts	0x3804, r1	; 0x803804 <lanyardState>
            if (lanyardPos < 4 ) {
     792:	84 30       	cpi	r24, 0x04	; 4
                initLanyard();
     794:	20 f4       	brcc	.+8      	; 0x79e <LanyardCode+0x13c>
     796:	31 df       	rcall	.-414    	; 0x5fa <initLanyard>
                /* TODO disable bastet for now  until is working 
                gameNow         = BASTET;
                */
                gameNow         = TEXT;
     798:	10 92 3c 38 	sts	0x383C, r1	; 0x80383c <gameNow>
                return 0;
     79c:	3e c0       	rjmp	.+124    	; 0x81a <LanyardCode+0x1b8>
            }
        }
        lanyardPos++;
     79e:	8f 5f       	subi	r24, 0xFF	; 255
     7a0:	80 93 36 38 	sts	0x3836, r24	; 0x803836 <lanyardPos>
        lanyardCnt++;            
     7a4:	90 91 35 38 	lds	r25, 0x3835	; 0x803835 <lanyardCnt>
     7a8:	9f 5f       	subi	r25, 0xFF	; 255
        if (lanyardCnt >= 4) {
     7aa:	94 30       	cpi	r25, 0x04	; 4
     7ac:	18 f4       	brcc	.+6      	; 0x7b4 <LanyardCode+0x152>
                gameNow         = TEXT;
                return 0;
            }
        }
        lanyardPos++;
        lanyardCnt++;            
     7ae:	90 93 35 38 	sts	0x3835, r25	; 0x803835 <lanyardCnt>
     7b2:	2f c0       	rjmp	.+94     	; 0x812 <LanyardCode+0x1b0>
        if (lanyardCnt >= 4) {
            lanyardCnt = 0;
     7b4:	10 92 35 38 	sts	0x3835, r1	; 0x803835 <lanyardCnt>
            if (lanyardState == TRUE) {
     7b8:	90 91 04 38 	lds	r25, 0x3804	; 0x803804 <lanyardState>
     7bc:	91 30       	cpi	r25, 0x01	; 1
     7be:	11 f5       	brne	.+68     	; 0x804 <LanyardCode+0x1a2>
                if ((lanyardPos % 4) == 0) {
     7c0:	98 2f       	mov	r25, r24
     7c2:	93 70       	andi	r25, 0x03	; 3
     7c4:	99 f4       	brne	.+38     	; 0x7ec <LanyardCode+0x18a>
                    iLED[HCKR[G][(lanyardPos>>2)-1]] = dimValue;
     7c6:	e8 2f       	mov	r30, r24
     7c8:	e6 95       	lsr	r30
     7ca:	e6 95       	lsr	r30
     7cc:	f0 e0       	ldi	r31, 0x00	; 0
     7ce:	ee 54       	subi	r30, 0x4E	; 78
     7d0:	f1 44       	sbci	r31, 0x41	; 65
     7d2:	e5 81       	ldd	r30, Z+5	; 0x05
     7d4:	f0 e0       	ldi	r31, 0x00	; 0
     7d6:	90 91 0b 38 	lds	r25, 0x380B	; 0x80380b <dimValue>
     7da:	e4 53       	subi	r30, 0x34	; 52
     7dc:	f5 4c       	sbci	r31, 0xC5	; 197
     7de:	90 83       	st	Z, r25
                    effect = 0x5f;
     7e0:	2f e5       	ldi	r18, 0x5F	; 95
     7e2:	30 e0       	ldi	r19, 0x00	; 0
     7e4:	20 93 3a 38 	sts	0x383A, r18	; 0x80383a <effect>
     7e8:	30 93 3b 38 	sts	0x383B, r19	; 0x80383b <effect+0x1>
                }
                if (lanyardPos == sizeof(lanyardCode)) {
     7ec:	88 31       	cpi	r24, 0x18	; 24
                    UpdateState(LANYARD_COMPLETED);
     7ee:	89 f4       	brne	.+34     	; 0x812 <LanyardCode+0x1b0>
     7f0:	8b e7       	ldi	r24, 0x7B	; 123
     7f2:	cd d6       	rcall	.+3482   	; 0x158e <UpdateState>
                    iLED[CAT]       = 0;
     7f4:	ec 2f       	mov	r30, r28
     7f6:	f0 e0       	ldi	r31, 0x00	; 0
     7f8:	e4 53       	subi	r30, 0x34	; 52
     7fa:	f5 4c       	sbci	r31, 0xC5	; 197
                    effect = 0x42;
     7fc:	10 82       	st	Z, r1
     7fe:	82 e4       	ldi	r24, 0x42	; 66
     800:	90 e0       	ldi	r25, 0x00	; 0
                    /*TODO state = STATE_MUSIC;*/
                }
            } else {
                initLanyard();
     802:	03 c0       	rjmp	.+6      	; 0x80a <LanyardCode+0x1a8>
     804:	fa de       	rcall	.-524    	; 0x5fa <initLanyard>
                effect = 0x21;
     806:	81 e2       	ldi	r24, 0x21	; 33
     808:	90 e0       	ldi	r25, 0x00	; 0
     80a:	80 93 3a 38 	sts	0x383A, r24	; 0x80383a <effect>
     80e:	90 93 3b 38 	sts	0x383B, r25	; 0x80383b <effect+0x1>
            }
        }
    }

    lastButtonState = buttonState;
     812:	80 91 09 38 	lds	r24, 0x3809	; 0x803809 <buttonState>
     816:	80 93 03 38 	sts	0x3803, r24	; 0x803803 <lastButtonState>
    return 0;
}
     81a:	80 e0       	ldi	r24, 0x00	; 0
     81c:	cf 91       	pop	r28
     81e:	08 95       	ret

00000820 <initMaze>:
uint8_t         mazeState = TRUE;
uint8_t         inverted  = FALSE;
uint16_t        mazeLastActive = 0;

void initMaze() {
    mazeHckrPos = 0;
     820:	10 92 49 38 	sts	0x3849, r1	; 0x803849 <mazeHckrPos>
    mazePos = 0;
     824:	10 92 4a 38 	sts	0x384A, r1	; 0x80384a <mazePos>
    mazeCnt = 0;
     828:	10 92 48 38 	sts	0x3848, r1	; 0x803848 <mazeCnt>
    mazeState = TRUE;
     82c:	81 e0       	ldi	r24, 0x01	; 1
     82e:	80 93 0c 38 	sts	0x380C, r24	; 0x80380c <mazeState>
    inverted  = FALSE;
     832:	10 92 47 38 	sts	0x3847, r1	; 0x803847 <inverted>
    iLED[CAT]       = 0;
     836:	e0 91 a0 be 	lds	r30, 0xBEA0	; 0x80bea0 <__bss_end+0x8384>
     83a:	f0 e0       	ldi	r31, 0x00	; 0
     83c:	e4 53       	subi	r30, 0x34	; 52
     83e:	f5 4c       	sbci	r31, 0xC5	; 197
     840:	10 82       	st	Z, r1
    iLED[EYE[G][L]] = 0;
     842:	e0 91 b1 be 	lds	r30, 0xBEB1	; 0x80beb1 <__bss_end+0x8395>
     846:	f0 e0       	ldi	r31, 0x00	; 0
     848:	e4 53       	subi	r30, 0x34	; 52
     84a:	f5 4c       	sbci	r31, 0xC5	; 197
     84c:	10 82       	st	Z, r1
    iLED[EYE[G][R]] = 0;
     84e:	e0 91 b0 be 	lds	r30, 0xBEB0	; 0x80beb0 <__bss_end+0x8394>
     852:	f0 e0       	ldi	r31, 0x00	; 0
     854:	e4 53       	subi	r30, 0x34	; 52
     856:	f5 4c       	sbci	r31, 0xC5	; 197
     858:	10 82       	st	Z, r1
    iLED[EYE[R][L]] = 0;
     85a:	e0 91 af be 	lds	r30, 0xBEAF	; 0x80beaf <__bss_end+0x8393>
     85e:	f0 e0       	ldi	r31, 0x00	; 0
     860:	e4 53       	subi	r30, 0x34	; 52
     862:	f5 4c       	sbci	r31, 0xC5	; 197
     864:	10 82       	st	Z, r1
    iLED[EYE[R][R]] = 0;
     866:	e0 91 ae be 	lds	r30, 0xBEAE	; 0x80beae <__bss_end+0x8392>
     86a:	f0 e0       	ldi	r31, 0x00	; 0
     86c:	e4 53       	subi	r30, 0x34	; 52
     86e:	f5 4c       	sbci	r31, 0xC5	; 197
     870:	10 82       	st	Z, r1
     872:	a8 eb       	ldi	r26, 0xB8	; 184
     874:	be eb       	ldi	r27, 0xBE	; 190
    for (int i=0; i<6; i++ )
        iLED[HCKR[G][i]] = 0;
     876:	ed 91       	ld	r30, X+
     878:	f0 e0       	ldi	r31, 0x00	; 0
     87a:	e4 53       	subi	r30, 0x34	; 52
     87c:	f5 4c       	sbci	r31, 0xC5	; 197
     87e:	10 82       	st	Z, r1
    iLED[CAT]       = 0;
    iLED[EYE[G][L]] = 0;
    iLED[EYE[G][R]] = 0;
    iLED[EYE[R][L]] = 0;
    iLED[EYE[R][R]] = 0;
    for (int i=0; i<6; i++ )
     880:	8e eb       	ldi	r24, 0xBE	; 190
     882:	ae 3b       	cpi	r26, 0xBE	; 190
     884:	b8 07       	cpc	r27, r24
     886:	b9 f7       	brne	.-18     	; 0x876 <initMaze+0x56>
        iLED[HCKR[G][i]] = 0;
}
     888:	08 95       	ret

0000088a <showFieldStrength>:

void showFieldStrength(int16_t val) {
    int16_t tmp;

    tmp = abs(val);
     88a:	97 ff       	sbrs	r25, 7
     88c:	03 c0       	rjmp	.+6      	; 0x894 <showFieldStrength+0xa>
     88e:	91 95       	neg	r25
     890:	81 95       	neg	r24
     892:	91 09       	sbc	r25, r1

    if ( tmp*2 > HALL_LOW )
     894:	9c 01       	movw	r18, r24
     896:	22 0f       	add	r18, r18
     898:	33 1f       	adc	r19, r19
     89a:	29 37       	cpi	r18, 0x79	; 121
     89c:	31 05       	cpc	r19, r1
     89e:	1c f0       	brlt	.+6      	; 0x8a6 <showFieldStrength+0x1c>
        gameNow = MAZE;
     8a0:	41 e0       	ldi	r20, 0x01	; 1
     8a2:	40 93 3c 38 	sts	0x383C, r20	; 0x80383c <gameNow>

    if (gameNow == MAZE) {
     8a6:	40 91 3c 38 	lds	r20, 0x383C	; 0x80383c <gameNow>
     8aa:	41 30       	cpi	r20, 0x01	; 1
     8ac:	21 f5       	brne	.+72     	; 0x8f6 <showFieldStrength+0x6c>
        if ( tmp*2 < HALL_LOW )
     8ae:	28 37       	cpi	r18, 0x78	; 120
     8b0:	31 05       	cpc	r19, r1
     8b2:	1c f4       	brge	.+6      	; 0x8ba <showFieldStrength+0x30>
            WingBar(0,0);
     8b4:	60 e0       	ldi	r22, 0x00	; 0
     8b6:	80 e0       	ldi	r24, 0x00	; 0
     8b8:	1d c0       	rjmp	.+58     	; 0x8f4 <showFieldStrength+0x6a>
        else if ( tmp   < HALL_LOW )
     8ba:	88 37       	cpi	r24, 0x78	; 120
     8bc:	91 05       	cpc	r25, r1
     8be:	1c f4       	brge	.+6      	; 0x8c6 <showFieldStrength+0x3c>
            WingBar(1,1);
     8c0:	61 e0       	ldi	r22, 0x01	; 1
     8c2:	81 e0       	ldi	r24, 0x01	; 1
     8c4:	17 c0       	rjmp	.+46     	; 0x8f4 <showFieldStrength+0x6a>
        else if ( tmp*2 < HALL_HIGH )
     8c6:	2c 32       	cpi	r18, 0x2C	; 44
     8c8:	41 e0       	ldi	r20, 0x01	; 1
     8ca:	34 07       	cpc	r19, r20
     8cc:	1c f4       	brge	.+6      	; 0x8d4 <showFieldStrength+0x4a>
            WingBar(2,2);
     8ce:	62 e0       	ldi	r22, 0x02	; 2
     8d0:	82 e0       	ldi	r24, 0x02	; 2
     8d2:	10 c0       	rjmp	.+32     	; 0x8f4 <showFieldStrength+0x6a>
        else if ( tmp*3 < HALL_HIGH*2 )
     8d4:	28 0f       	add	r18, r24
     8d6:	39 1f       	adc	r19, r25
     8d8:	28 35       	cpi	r18, 0x58	; 88
     8da:	32 40       	sbci	r19, 0x02	; 2
     8dc:	1c f4       	brge	.+6      	; 0x8e4 <showFieldStrength+0x5a>
            WingBar(3,3);
     8de:	63 e0       	ldi	r22, 0x03	; 3
     8e0:	83 e0       	ldi	r24, 0x03	; 3
     8e2:	08 c0       	rjmp	.+16     	; 0x8f4 <showFieldStrength+0x6a>
        else if ( tmp   < HALL_HIGH )
     8e4:	8c 32       	cpi	r24, 0x2C	; 44
     8e6:	91 40       	sbci	r25, 0x01	; 1
     8e8:	1c f4       	brge	.+6      	; 0x8f0 <showFieldStrength+0x66>
            WingBar(4,4);
     8ea:	64 e0       	ldi	r22, 0x04	; 4
     8ec:	84 e0       	ldi	r24, 0x04	; 4
     8ee:	02 c0       	rjmp	.+4      	; 0x8f4 <showFieldStrength+0x6a>
        else
            WingBar(5,5);
     8f0:	65 e0       	ldi	r22, 0x05	; 5
     8f2:	85 e0       	ldi	r24, 0x05	; 5
     8f4:	2f c7       	rjmp	.+3678   	; 0x1754 <WingBar>
     8f6:	08 95       	ret

000008f8 <MagnetMaze>:
    }
}

// Main game loop
uint8_t MagnetMaze(){
     8f8:	cf 93       	push	r28
     8fa:	df 93       	push	r29
    if (gameNow == MAZE && idleTimeout(mazeLastActive,MAZE_MAX_IDLE)) {
     8fc:	80 91 3c 38 	lds	r24, 0x383C	; 0x80383c <gameNow>
     900:	81 30       	cpi	r24, 0x01	; 1
     902:	71 f4       	brne	.+28     	; 0x920 <MagnetMaze+0x28>
     904:	6a e0       	ldi	r22, 0x0A	; 10
     906:	70 e0       	ldi	r23, 0x00	; 0
     908:	80 91 45 38 	lds	r24, 0x3845	; 0x803845 <mazeLastActive>
     90c:	90 91 46 38 	lds	r25, 0x3846	; 0x803846 <mazeLastActive+0x1>
     910:	0e 94 e7 0d 	call	0x1bce	; 0x1bce <idleTimeout>
     914:	88 23       	and	r24, r24
     916:	21 f0       	breq	.+8      	; 0x920 <MagnetMaze+0x28>
        /* clean up maze game and go back to text game */
        initMaze();
     918:	83 df       	rcall	.-250    	; 0x820 <initMaze>
        gameNow = TEXT;
     91a:	10 92 3c 38 	sts	0x383C, r1	; 0x80383c <gameNow>
        return 0;
     91e:	f4 c0       	rjmp	.+488    	; 0xb08 <MagnetMaze+0x210>
    }
        
    if (CheckState(MAZE_INACTIVE))
     920:	87 ef       	ldi	r24, 0xF7	; 247
     922:	3f d6       	rcall	.+3198   	; 0x15a2 <CheckState>
     924:	81 11       	cpse	r24, r1
     926:	f0 c0       	rjmp	.+480    	; 0xb08 <MagnetMaze+0x210>
        return 0;

    if (CheckState(MAZE_COMPLETED))
     928:	8d e7       	ldi	r24, 0x7D	; 125
     92a:	3b d6       	rcall	.+3190   	; 0x15a2 <CheckState>
     92c:	81 11       	cpse	r24, r1
     92e:	ec c0       	rjmp	.+472    	; 0xb08 <MagnetMaze+0x210>
     930:	80 91 3c 38 	lds	r24, 0x383C	; 0x80383c <gameNow>
        return 0;

    if ( (gameNow != TEXT) && (gameNow != MAZE) )
     934:	82 30       	cpi	r24, 0x02	; 2
     936:	08 f0       	brcs	.+2      	; 0x93a <MagnetMaze+0x42>
     938:	e7 c0       	rjmp	.+462    	; 0xb08 <MagnetMaze+0x210>
     93a:	80 91 f5 3a 	lds	r24, 0x3AF5	; 0x803af5 <calHall>
        return 0;

    if (calHall == 0)
     93e:	90 91 f6 3a 	lds	r25, 0x3AF6	; 0x803af6 <calHall+0x1>
     942:	89 2b       	or	r24, r25
     944:	41 f4       	brne	.+16     	; 0x956 <MagnetMaze+0x5e>
     946:	80 91 bd 3a 	lds	r24, 0x3ABD	; 0x803abd <adcHall>
        calHall = adcHall;
     94a:	90 91 be 3a 	lds	r25, 0x3ABE	; 0x803abe <adcHall+0x1>
     94e:	80 93 f5 3a 	sts	0x3AF5, r24	; 0x803af5 <calHall>
     952:	90 93 f6 3a 	sts	0x3AF6, r25	; 0x803af6 <calHall+0x1>
     956:	c0 91 bd 3a 	lds	r28, 0x3ABD	; 0x803abd <adcHall>

    int16_t valHall = adcHall - calHall;
     95a:	d0 91 be 3a 	lds	r29, 0x3ABE	; 0x803abe <adcHall+0x1>
     95e:	80 91 f5 3a 	lds	r24, 0x3AF5	; 0x803af5 <calHall>
     962:	90 91 f6 3a 	lds	r25, 0x3AF6	; 0x803af6 <calHall+0x1>
     966:	c8 1b       	sub	r28, r24
     968:	d9 0b       	sbc	r29, r25
    showFieldStrength(valHall);
     96a:	ce 01       	movw	r24, r28
     96c:	8e df       	rcall	.-228    	; 0x88a <showFieldStrength>
     96e:	80 91 4c 38 	lds	r24, 0x384C	; 0x80384c <curHallState>

    switch (curHallState) {
     972:	81 30       	cpi	r24, 0x01	; 1
     974:	89 f0       	breq	.+34     	; 0x998 <MagnetMaze+0xa0>
     976:	18 f0       	brcs	.+6      	; 0x97e <MagnetMaze+0x86>
     978:	82 30       	cpi	r24, 0x02	; 2
     97a:	c1 f0       	breq	.+48     	; 0x9ac <MagnetMaze+0xb4>
     97c:	1f c0       	rjmp	.+62     	; 0x9bc <MagnetMaze+0xc4>
     97e:	c4 3d       	cpi	r28, 0xD4	; 212
        case 0:
            if ( valHall + HALL_HIGH < 0 ) {
     980:	9e ef       	ldi	r25, 0xFE	; 254
     982:	d9 07       	cpc	r29, r25
     984:	14 f4       	brge	.+4      	; 0x98a <MagnetMaze+0x92>
     986:	91 e0       	ldi	r25, 0x01	; 1
                newHallState = 1;
     988:	04 c0       	rjmp	.+8      	; 0x992 <MagnetMaze+0x9a>
     98a:	cd 32       	cpi	r28, 0x2D	; 45
            } else if ( valHall - HALL_HIGH > 0 ) {
     98c:	d1 40       	sbci	r29, 0x01	; 1
     98e:	5c f0       	brlt	.+22     	; 0x9a6 <MagnetMaze+0xae>
     990:	92 e0       	ldi	r25, 0x02	; 2
                newHallState = 2;
     992:	90 93 4b 38 	sts	0x384B, r25	; 0x80384b <newHallState>
     996:	12 c0       	rjmp	.+36     	; 0x9bc <MagnetMaze+0xc4>
     998:	cd 32       	cpi	r28, 0x2D	; 45
                newHallState = 0;
            }
            break;
        
        case 1:
            if ( valHall - HALL_HIGH > 0 ) {
     99a:	91 e0       	ldi	r25, 0x01	; 1
     99c:	d9 07       	cpc	r29, r25
     99e:	c4 f7       	brge	.-16     	; 0x990 <MagnetMaze+0x98>
     9a0:	c9 38       	cpi	r28, 0x89	; 137
                newHallState = 2;
            } else if ( valHall + HALL_LOW > 0 ) {
     9a2:	df 4f       	sbci	r29, 0xFF	; 255
     9a4:	84 f3       	brlt	.-32     	; 0x986 <MagnetMaze+0x8e>
     9a6:	10 92 4b 38 	sts	0x384B, r1	; 0x80384b <newHallState>
            if ( valHall + HALL_HIGH < 0 ) {
                newHallState = 1;
            } else if ( valHall - HALL_HIGH > 0 ) {
                newHallState = 2;
            } else {
                newHallState = 0;
     9aa:	08 c0       	rjmp	.+16     	; 0x9bc <MagnetMaze+0xc4>
     9ac:	c4 3d       	cpi	r28, 0xD4	; 212
                newHallState = 1;
            }
            break;
        
        case 2:
            if ( valHall + HALL_HIGH < 0 ) {
     9ae:	9e ef       	ldi	r25, 0xFE	; 254
     9b0:	d9 07       	cpc	r29, r25
     9b2:	4c f3       	brlt	.-46     	; 0x986 <MagnetMaze+0x8e>
     9b4:	c8 37       	cpi	r28, 0x78	; 120
                newHallState = 1;
            } else if ( valHall - HALL_LOW < 0 ) {
     9b6:	d1 05       	cpc	r29, r1
     9b8:	b4 f3       	brlt	.-20     	; 0x9a6 <MagnetMaze+0xae>
     9ba:	ea cf       	rjmp	.-44     	; 0x990 <MagnetMaze+0x98>
     9bc:	c0 91 a0 be 	lds	r28, 0xBEA0	; 0x80bea0 <__bss_end+0x8384>
            }
            break;
    }

    /* Indicate that the magnet was read succesfully */
    iLED[CAT] = (newHallState ? dimValue : 0);
     9c0:	ec 2f       	mov	r30, r28
     9c2:	f0 e0       	ldi	r31, 0x00	; 0
     9c4:	90 91 4b 38 	lds	r25, 0x384B	; 0x80384b <newHallState>
     9c8:	99 23       	and	r25, r25
     9ca:	19 f0       	breq	.+6      	; 0x9d2 <MagnetMaze+0xda>
     9cc:	20 91 0b 38 	lds	r18, 0x380B	; 0x80380b <dimValue>
     9d0:	01 c0       	rjmp	.+2      	; 0x9d4 <MagnetMaze+0xdc>
     9d2:	20 e0       	ldi	r18, 0x00	; 0
     9d4:	e4 53       	subi	r30, 0x34	; 52
     9d6:	f5 4c       	sbci	r31, 0xC5	; 197
     9d8:	20 83       	st	Z, r18
     9da:	89 17       	cp	r24, r25

    if (newHallState != curHallState) {
     9dc:	09 f4       	brne	.+2      	; 0x9e0 <MagnetMaze+0xe8>
     9de:	94 c0       	rjmp	.+296    	; 0xb08 <MagnetMaze+0x210>
     9e0:	0e 94 d8 0d 	call	0x1bb0	; 0x1bb0 <getClock>
        /* keep track of time to enable an idle timeout to exit the game */
        mazeLastActive = getClock();
     9e4:	80 93 45 38 	sts	0x3845, r24	; 0x803845 <mazeLastActive>
     9e8:	90 93 46 38 	sts	0x3846, r25	; 0x803846 <mazeLastActive+0x1>
     9ec:	20 91 4a 38 	lds	r18, 0x384A	; 0x80384a <mazePos>

        /* Make the maze work regardless of badge orientation */
        if ((mazePos == 0) && (newHallState != 0))
     9f0:	80 91 4b 38 	lds	r24, 0x384B	; 0x80384b <newHallState>
     9f4:	21 11       	cpse	r18, r1
     9f6:	08 c0       	rjmp	.+16     	; 0xa08 <MagnetMaze+0x110>
     9f8:	88 23       	and	r24, r24
     9fa:	31 f0       	breq	.+12     	; 0xa08 <MagnetMaze+0x110>
     9fc:	91 e0       	ldi	r25, 0x01	; 1
            inverted = (newHallState != mazeCode[0]) ? TRUE : FALSE;
     9fe:	81 30       	cpi	r24, 0x01	; 1
     a00:	09 f4       	brne	.+2      	; 0xa04 <MagnetMaze+0x10c>
     a02:	90 e0       	ldi	r25, 0x00	; 0
     a04:	90 93 47 38 	sts	0x3847, r25	; 0x803847 <inverted>
     a08:	80 93 4c 38 	sts	0x384C, r24	; 0x80384c <curHallState>

        curHallState = newHallState;
     a0c:	88 23       	and	r24, r24
        
        if (curHallState != 0) {
     a0e:	09 f4       	brne	.+2      	; 0xa12 <MagnetMaze+0x11a>
     a10:	7b c0       	rjmp	.+246    	; 0xb08 <MagnetMaze+0x210>
     a12:	91 e0       	ldi	r25, 0x01	; 1
            gameNow = MAZE;
     a14:	90 93 3c 38 	sts	0x383C, r25	; 0x80383c <gameNow>
     a18:	90 91 47 38 	lds	r25, 0x3847	; 0x803847 <inverted>
            if ( (inverted ? curHallState^3 : curHallState) == mazeCode[mazePos]) {
     a1c:	99 23       	and	r25, r25
     a1e:	11 f0       	breq	.+4      	; 0xa24 <MagnetMaze+0x12c>
     a20:	93 e0       	ldi	r25, 0x03	; 3
     a22:	89 27       	eor	r24, r25
     a24:	90 e0       	ldi	r25, 0x00	; 0
     a26:	e2 2f       	mov	r30, r18
     a28:	f0 e0       	ldi	r31, 0x00	; 0
     a2a:	e2 52       	subi	r30, 0x22	; 34
     a2c:	f1 44       	sbci	r31, 0x41	; 65
     a2e:	40 81       	ld	r20, Z
     a30:	50 e0       	ldi	r21, 0x00	; 0
     a32:	84 17       	cp	r24, r20
     a34:	95 07       	cpc	r25, r21
     a36:	91 f4       	brne	.+36     	; 0xa5c <MagnetMaze+0x164>
     a38:	80 91 0c 38 	lds	r24, 0x380C	; 0x80380c <mazeState>
                mazeState &= TRUE;
     a3c:	81 70       	andi	r24, 0x01	; 1
     a3e:	80 93 0c 38 	sts	0x380C, r24	; 0x80380c <mazeState>
     a42:	e0 91 af be 	lds	r30, 0xBEAF	; 0x80beaf <__bss_end+0x8393>
                iLED[EYE[R][L]] = 0;
     a46:	f0 e0       	ldi	r31, 0x00	; 0
     a48:	e4 53       	subi	r30, 0x34	; 52
     a4a:	f5 4c       	sbci	r31, 0xC5	; 197
     a4c:	10 82       	st	Z, r1
     a4e:	e0 91 ae be 	lds	r30, 0xBEAE	; 0x80beae <__bss_end+0x8392>
                iLED[EYE[R][R]] = 0;
     a52:	f0 e0       	ldi	r31, 0x00	; 0
     a54:	e4 53       	subi	r30, 0x34	; 52
     a56:	f5 4c       	sbci	r31, 0xC5	; 197
     a58:	10 82       	st	Z, r1
     a5a:	02 c0       	rjmp	.+4      	; 0xa60 <MagnetMaze+0x168>
     a5c:	10 92 0c 38 	sts	0x380C, r1	; 0x80380c <mazeState>
            } else {
                mazeState = FALSE;
     a60:	2f 5f       	subi	r18, 0xFF	; 255
                /* TODO play tone BAD */
            }
            mazePos++;
     a62:	20 93 4a 38 	sts	0x384A, r18	; 0x80384a <mazePos>
     a66:	80 91 48 38 	lds	r24, 0x3848	; 0x803848 <mazeCnt>
            mazeCnt++;            
     a6a:	8f 5f       	subi	r24, 0xFF	; 255
     a6c:	83 30       	cpi	r24, 0x03	; 3
            if (mazeCnt >= 3) {
     a6e:	18 f4       	brcc	.+6      	; 0xa76 <MagnetMaze+0x17e>
     a70:	80 93 48 38 	sts	0x3848, r24	; 0x803848 <mazeCnt>
            } else {
                mazeState = FALSE;
                /* TODO play tone BAD */
            }
            mazePos++;
            mazeCnt++;            
     a74:	49 c0       	rjmp	.+146    	; 0xb08 <MagnetMaze+0x210>
     a76:	10 92 48 38 	sts	0x3848, r1	; 0x803848 <mazeCnt>
            if (mazeCnt >= 3) {
                mazeCnt = 0;
     a7a:	80 91 0c 38 	lds	r24, 0x380C	; 0x80380c <mazeState>
                if (mazeState == TRUE) {
     a7e:	81 30       	cpi	r24, 0x01	; 1
     a80:	81 f5       	brne	.+96     	; 0xae2 <MagnetMaze+0x1ea>
     a82:	80 91 49 38 	lds	r24, 0x3849	; 0x803849 <mazeHckrPos>
                    /* TODO play tone GOOD */
                    iLED[HCKR[G][mazeHckrPos]] = dimValue;
     a86:	e8 2f       	mov	r30, r24
     a88:	f0 e0       	ldi	r31, 0x00	; 0
     a8a:	ee 54       	subi	r30, 0x4E	; 78
     a8c:	f1 44       	sbci	r31, 0x41	; 65
     a8e:	e6 81       	ldd	r30, Z+6	; 0x06
     a90:	f0 e0       	ldi	r31, 0x00	; 0
     a92:	90 91 0b 38 	lds	r25, 0x380B	; 0x80380b <dimValue>
     a96:	e4 53       	subi	r30, 0x34	; 52
     a98:	f5 4c       	sbci	r31, 0xC5	; 197
     a9a:	90 83       	st	Z, r25
     a9c:	8f 5f       	subi	r24, 0xFF	; 255
                    mazeHckrPos++;
     a9e:	80 93 49 38 	sts	0x3849, r24	; 0x803849 <mazeHckrPos>
                    if (mazePos == sizeof(mazeCode)) {
     aa2:	22 31       	cpi	r18, 0x12	; 18
     aa4:	89 f5       	brne	.+98     	; 0xb08 <MagnetMaze+0x210>
                        UpdateState(MAZE_COMPLETED);
     aa6:	8d e7       	ldi	r24, 0x7D	; 125
     aa8:	72 d5       	rcall	.+2788   	; 0x158e <UpdateState>
     aaa:	ec 2f       	mov	r30, r28
                        iLED[CAT]       = 0;
     aac:	f0 e0       	ldi	r31, 0x00	; 0
     aae:	e4 53       	subi	r30, 0x34	; 52
     ab0:	f5 4c       	sbci	r31, 0xC5	; 197
     ab2:	10 82       	st	Z, r1
     ab4:	e0 91 af be 	lds	r30, 0xBEAF	; 0x80beaf <__bss_end+0x8393>
                        iLED[EYE[R][L]] = 0;
     ab8:	f0 e0       	ldi	r31, 0x00	; 0
     aba:	e4 53       	subi	r30, 0x34	; 52
     abc:	f5 4c       	sbci	r31, 0xC5	; 197
     abe:	10 82       	st	Z, r1
     ac0:	e0 91 ae be 	lds	r30, 0xBEAE	; 0x80beae <__bss_end+0x8392>
                        iLED[EYE[R][R]] = 0;
     ac4:	f0 e0       	ldi	r31, 0x00	; 0
     ac6:	e4 53       	subi	r30, 0x34	; 52
     ac8:	f5 4c       	sbci	r31, 0xC5	; 197
     aca:	10 82       	st	Z, r1
     acc:	e0 91 b1 be 	lds	r30, 0xBEB1	; 0x80beb1 <__bss_end+0x8395>
                        iLED[EYE[G][L]] = dimValue;
     ad0:	f0 e0       	ldi	r31, 0x00	; 0
     ad2:	80 91 0b 38 	lds	r24, 0x380B	; 0x80380b <dimValue>
     ad6:	e4 53       	subi	r30, 0x34	; 52
     ad8:	f5 4c       	sbci	r31, 0xC5	; 197
     ada:	80 83       	st	Z, r24
                        iLED[EYE[G][R]] = dimValue;
     adc:	e0 91 b0 be 	lds	r30, 0xBEB0	; 0x80beb0 <__bss_end+0x8394>
     ae0:	0d c0       	rjmp	.+26     	; 0xafc <MagnetMaze+0x204>
                        /*state = STATE_MUSIC;*/
                    }
                } else {
                    initMaze();
     ae2:	9e de       	rcall	.-708    	; 0x820 <initMaze>
     ae4:	10 92 3c 38 	sts	0x383C, r1	; 0x80383c <gameNow>
                    gameNow   = TEXT;
     ae8:	e0 91 af be 	lds	r30, 0xBEAF	; 0x80beaf <__bss_end+0x8393>
                    iLED[EYE[R][L]] = dimValue;
     aec:	f0 e0       	ldi	r31, 0x00	; 0
     aee:	80 91 0b 38 	lds	r24, 0x380B	; 0x80380b <dimValue>
     af2:	e4 53       	subi	r30, 0x34	; 52
     af4:	f5 4c       	sbci	r31, 0xC5	; 197
     af6:	80 83       	st	Z, r24
     af8:	e0 91 ae be 	lds	r30, 0xBEAE	; 0x80beae <__bss_end+0x8392>
                    iLED[EYE[R][R]] = dimValue;
     afc:	f0 e0       	ldi	r31, 0x00	; 0
     afe:	80 91 0b 38 	lds	r24, 0x380B	; 0x80380b <dimValue>
     b02:	e4 53       	subi	r30, 0x34	; 52
     b04:	f5 4c       	sbci	r31, 0xC5	; 197
     b06:	80 83       	st	Z, r24
     b08:	80 e0       	ldi	r24, 0x00	; 0
                }
            }
        }
    }
    return 0;
}
     b0a:	df 91       	pop	r29
     b0c:	cf 91       	pop	r28
     b0e:	08 95       	ret

00000b10 <Setup>:
     b10:	cf 93       	push	r28
volatile uint16_t tmp16bit;    
volatile uint8_t mask[8] = {0x01, 0x03, 0x07, 0x0f, 0x1f, 0x3f, 0x7f, 0xff};
uint8_t HeartCount = 0;
uint8_t LedCount = 0;

void Setup(){
     b12:	df 93       	push	r29
    cli();
     b14:	f8 94       	cli

    //Set up clock at 10MHz
    CCP = CCP_IOREG_gc;
     b16:	88 ed       	ldi	r24, 0xD8	; 216
     b18:	84 bf       	out	0x34, r24	; 52
    CLKCTRL_MCLKCTRLB = 0x01;
     b1a:	c1 e0       	ldi	r28, 0x01	; 1
     b1c:	c0 93 61 00 	sts	0x0061, r28	; 0x800061 <__TEXT_REGION_LENGTH__+0x700061>

    //Set I/O direction registers
    PORTA_DIR = 0b01001010;
     b20:	8a e4       	ldi	r24, 0x4A	; 74
     b22:	80 93 00 04 	sts	0x0400, r24	; 0x800400 <__TEXT_REGION_LENGTH__+0x700400>
    PORTB_DIR = 0b01111100;
     b26:	8c e7       	ldi	r24, 0x7C	; 124
     b28:	80 93 20 04 	sts	0x0420, r24	; 0x800420 <__TEXT_REGION_LENGTH__+0x700420>
    PORTC_DIR = 0b00111111;
     b2c:	9f e3       	ldi	r25, 0x3F	; 63
     b2e:	90 93 40 04 	sts	0x0440, r25	; 0x800440 <__TEXT_REGION_LENGTH__+0x700440>

    //Invert some pins for correcting LED reversal error
    PORTC_PIN3CTRL |= 0x80;
     b32:	80 91 53 04 	lds	r24, 0x0453	; 0x800453 <__TEXT_REGION_LENGTH__+0x700453>
     b36:	80 68       	ori	r24, 0x80	; 128
     b38:	80 93 53 04 	sts	0x0453, r24	; 0x800453 <__TEXT_REGION_LENGTH__+0x700453>
    PORTC_PIN4CTRL |= 0x80;
     b3c:	80 91 54 04 	lds	r24, 0x0454	; 0x800454 <__TEXT_REGION_LENGTH__+0x700454>
     b40:	80 68       	ori	r24, 0x80	; 128
     b42:	80 93 54 04 	sts	0x0454, r24	; 0x800454 <__TEXT_REGION_LENGTH__+0x700454>
    PORTC_PIN5CTRL |= 0x80;
     b46:	80 91 55 04 	lds	r24, 0x0455	; 0x800455 <__TEXT_REGION_LENGTH__+0x700455>
     b4a:	80 68       	ori	r24, 0x80	; 128
     b4c:	80 93 55 04 	sts	0x0455, r24	; 0x800455 <__TEXT_REGION_LENGTH__+0x700455>
    PORTB_PIN3CTRL |= 0x80;
     b50:	80 91 33 04 	lds	r24, 0x0433	; 0x800433 <__TEXT_REGION_LENGTH__+0x700433>
     b54:	80 68       	ori	r24, 0x80	; 128
     b56:	80 93 33 04 	sts	0x0433, r24	; 0x800433 <__TEXT_REGION_LENGTH__+0x700433>
    PORTB_PIN4CTRL |= 0x80;
     b5a:	80 91 34 04 	lds	r24, 0x0434	; 0x800434 <__TEXT_REGION_LENGTH__+0x700434>
     b5e:	80 68       	ori	r24, 0x80	; 128
     b60:	80 93 34 04 	sts	0x0434, r24	; 0x800434 <__TEXT_REGION_LENGTH__+0x700434>
    PORTB_PIN5CTRL |= 0x80;
     b64:	80 91 35 04 	lds	r24, 0x0435	; 0x800435 <__TEXT_REGION_LENGTH__+0x700435>
     b68:	80 68       	ori	r24, 0x80	; 128
     b6a:	80 93 35 04 	sts	0x0435, r24	; 0x800435 <__TEXT_REGION_LENGTH__+0x700435>
    PORTB_PIN2CTRL |= 0x80;
    PORTB_PIN6CTRL |= 0x80;
    */

    //UART (Alternative pins PA1=TxD, PA2=RxD, baudrate 9600, 8n1, RX and Buffer empty interrupts on)
    PORTMUX_CTRLB = 0x01;
     b6e:	c0 93 01 02 	sts	0x0201, r28	; 0x800201 <__TEXT_REGION_LENGTH__+0x700201>
    PORTA_OUTSET = 0x02;
     b72:	d2 e0       	ldi	r29, 0x02	; 2
     b74:	d0 93 05 04 	sts	0x0405, r29	; 0x800405 <__TEXT_REGION_LENGTH__+0x700405>
    USART0_BAUD = (uint16_t)USART0_BAUD_RATE(115200);
     b78:	2b e5       	ldi	r18, 0x5B	; 91
     b7a:	31 e0       	ldi	r19, 0x01	; 1
     b7c:	20 93 08 08 	sts	0x0808, r18	; 0x800808 <__TEXT_REGION_LENGTH__+0x700808>
     b80:	30 93 09 08 	sts	0x0809, r19	; 0x800809 <__TEXT_REGION_LENGTH__+0x700809>
    USART0_CTRLA = 0xA0; //Interrupts on
     b84:	80 ea       	ldi	r24, 0xA0	; 160
     b86:	80 93 05 08 	sts	0x0805, r24	; 0x800805 <__TEXT_REGION_LENGTH__+0x700805>
    USART0_CTRLB = 0xC0; //RX and TX on
     b8a:	80 ec       	ldi	r24, 0xC0	; 192
     b8c:	80 93 06 08 	sts	0x0806, r24	; 0x800806 <__TEXT_REGION_LENGTH__+0x700806>
    USART0_CTRLC = 0x03; //8 bits data, no parity, 1 stop bit
     b90:	83 e0       	ldi	r24, 0x03	; 3
     b92:	80 93 07 08 	sts	0x0807, r24	; 0x800807 <__TEXT_REGION_LENGTH__+0x700807>
     
    //GPIO registers 0..3 can be used for global variables used in ISR routines (ASM capability: IN, OUT, SBI, CBI, SBIS, SBIC)
    L_COL = 0;     //Used in LED array to hold currently driven column value
     b96:	1c ba       	out	0x1c, r1	; 28
    RXCNT = 0;     //Used as UART receive counter
     b98:	1d ba       	out	0x1d, r1	; 29
    AUPOS = 0;     //Used as audio input/output buffer counter
     b9a:	1e ba       	out	0x1e, r1	; 30
    GPIOR3 = 0;    //
     b9c:	1f ba       	out	0x1f, r1	; 31

    //Init TCA (split mode, f_CLK/16, PWM on 6 alternative pins, underflow int enabled, synced and started)
    TCA0_SPLIT_CTRLD = 1;
     b9e:	c0 93 03 0a 	sts	0x0A03, r28	; 0x800a03 <__TEXT_REGION_LENGTH__+0x700a03>
    TCA0_SPLIT_CTRLA = (0x4)<<1;
     ba2:	88 e0       	ldi	r24, 0x08	; 8
     ba4:	80 93 00 0a 	sts	0x0A00, r24	; 0x800a00 <__TEXT_REGION_LENGTH__+0x700a00>
    PORTMUX_CTRLC = 0x3F;
     ba8:	90 93 02 02 	sts	0x0202, r25	; 0x800202 <__TEXT_REGION_LENGTH__+0x700202>
    TCA0_SPLIT_CTRLB = 0x77;
     bac:	87 e7       	ldi	r24, 0x77	; 119
     bae:	80 93 01 0a 	sts	0x0A01, r24	; 0x800a01 <__TEXT_REGION_LENGTH__+0x700a01>
    TCA0_SPLIT_INTCTRL = 0x1;
     bb2:	c0 93 0a 0a 	sts	0x0A0A, r28	; 0x800a0a <__TEXT_REGION_LENGTH__+0x700a0a>
    TCA0_SPLIT_CTRLESET = ((0x2)<<2)|0x3;
     bb6:	8b e0       	ldi	r24, 0x0B	; 11
     bb8:	80 93 05 0a 	sts	0x0A05, r24	; 0x800a05 <__TEXT_REGION_LENGTH__+0x700a05>
    TCA0_SPLIT_CTRLA |= 1;
     bbc:	80 91 00 0a 	lds	r24, 0x0A00	; 0x800a00 <__TEXT_REGION_LENGTH__+0x700a00>
     bc0:	81 60       	ori	r24, 0x01	; 1
     bc2:	80 93 00 0a 	sts	0x0A00, r24	; 0x800a00 <__TEXT_REGION_LENGTH__+0x700a00>
     
    //Init TCB0 (compare value sets serial Tx pause between characters, uses TCA0 prescaler, enabled, interrupt disabled)
    TCB0_CTRLA = ((0x02)<<1)|0x01;
     bc6:	85 e0       	ldi	r24, 0x05	; 5
     bc8:	80 93 40 0a 	sts	0x0A40, r24	; 0x800a40 <__TEXT_REGION_LENGTH__+0x700a40>
    TCB0_CTRLB = 0;
     bcc:	10 92 41 0a 	sts	0x0A41, r1	; 0x800a41 <__TEXT_REGION_LENGTH__+0x700a41>
    TCB0_CCMP = 0x01FF;
     bd0:	8f ef       	ldi	r24, 0xFF	; 255
     bd2:	91 e0       	ldi	r25, 0x01	; 1
     bd4:	80 93 4c 0a 	sts	0x0A4C, r24	; 0x800a4c <__TEXT_REGION_LENGTH__+0x700a4c>
     bd8:	90 93 4d 0a 	sts	0x0A4D, r25	; 0x800a4d <__TEXT_REGION_LENGTH__+0x700a4d>
    TCB0_INTCTRL = 0x00;     
     bdc:	10 92 45 0a 	sts	0x0A45, r1	; 0x800a45 <__TEXT_REGION_LENGTH__+0x700a45>
     
    //Init TCB1 (compare value sets audio sample rate (0x038B = 11025sps), enabled, interrupt enabled)
    TCB1_CTRLA = 0x01;
     be0:	c0 93 50 0a 	sts	0x0A50, r28	; 0x800a50 <__TEXT_REGION_LENGTH__+0x700a50>
    TCB1_CTRLB = 0;
     be4:	10 92 51 0a 	sts	0x0A51, r1	; 0x800a51 <__TEXT_REGION_LENGTH__+0x700a51>
    TCB1_CCMP = 0x038B;
     be8:	8b e8       	ldi	r24, 0x8B	; 139
     bea:	93 e0       	ldi	r25, 0x03	; 3
     bec:	80 93 5c 0a 	sts	0x0A5C, r24	; 0x800a5c <__TEXT_REGION_LENGTH__+0x700a5c>
     bf0:	90 93 5d 0a 	sts	0x0A5D, r25	; 0x800a5d <__TEXT_REGION_LENGTH__+0x700a5d>
    TCB1_INTCTRL = 0x01;
     bf4:	c0 93 55 0a 	sts	0x0A55, r28	; 0x800a55 <__TEXT_REGION_LENGTH__+0x700a55>

    //Init I2C (100kHz)
    I2C_init();
     bf8:	bd db       	rcall	.-2182   	; 0x374 <I2C_init>

    //VREF (DAC, ADC's)
    VREF_CTRLA   = 0x12;    //0x22 for audio in/out (2.5V), 0x12 for temperature in, audio out (1.1V/2.5V)
     bfa:	82 e1       	ldi	r24, 0x12	; 18
     bfc:	80 93 a0 00 	sts	0x00A0, r24	; 0x8000a0 <__TEXT_REGION_LENGTH__+0x7000a0>
    VREF_CTRLC   = 0x20;    //ADC1 reference at 2.5V
     c00:	80 e2       	ldi	r24, 0x20	; 32
     c02:	80 93 a2 00 	sts	0x00A2, r24	; 0x8000a2 <__TEXT_REGION_LENGTH__+0x7000a2>
    VREF_CTRLB   = 0x01;    //DAC0 ref forced enabled
     c06:	c0 93 a1 00 	sts	0x00A1, r28	; 0x8000a1 <__TEXT_REGION_LENGTH__+0x7000a1>

    //Init ADC0 (audio in, also controls DAC output rate, internal temperature?)
    ADC0_CTRLA   = 0x02;    //10 bit resolution, free running
     c0a:	d0 93 00 06 	sts	0x0600, r29	; 0x800600 <__TEXT_REGION_LENGTH__+0x700600>
    ADC0_CTRLC   = 0x44;    //Reduced sample capacitor, internal reference, clock/32 => 24038sps
     c0e:	84 e4       	ldi	r24, 0x44	; 68
     c10:	80 93 02 06 	sts	0x0602, r24	; 0x800602 <__TEXT_REGION_LENGTH__+0x700602>
    ADC0_MUXPOS  = 0x1E;    //Audio in: AIN7 at (0x07), Temperature: Internal sensor at (0x1E)
     c14:	8e e1       	ldi	r24, 0x1E	; 30
     c16:	80 93 06 06 	sts	0x0606, r24	; 0x800606 <__TEXT_REGION_LENGTH__+0x700606>
    ADC0_INTCTRL = 0x01;    //Result ready interrupt enabled
     c1a:	c0 93 0a 06 	sts	0x060A, r28	; 0x80060a <__TEXT_REGION_LENGTH__+0x70060a>
    ADC0_CTRLA  |= 0x01;    //ADC0 enabled
     c1e:	80 91 00 06 	lds	r24, 0x0600	; 0x800600 <__TEXT_REGION_LENGTH__+0x700600>
     c22:	81 60       	ori	r24, 0x01	; 1
     c24:	80 93 00 06 	sts	0x0600, r24	; 0x800600 <__TEXT_REGION_LENGTH__+0x700600>
    ADC0_COMMAND = 0x01;    //Start first conversion, after that it will run periodically.
     c28:	c0 93 08 06 	sts	0x0608, r28	; 0x800608 <__TEXT_REGION_LENGTH__+0x700608>

    //Init ADC1 (buttons and sensors: CH0=Photo transistor, CH1=Hall, CH4=Buttons)
    ADC1_CTRLA   = 0;
     c2c:	10 92 40 06 	sts	0x0640, r1	; 0x800640 <__TEXT_REGION_LENGTH__+0x700640>
    ADC1_CTRLB   = 0x02;    //4 results automatically accumulated
     c30:	d0 93 41 06 	sts	0x0641, r29	; 0x800641 <__TEXT_REGION_LENGTH__+0x700641>
    ADC1_CTRLC   = 0x52;    //Reduced sample capacitor, VDD as reference, clock/8
     c34:	82 e5       	ldi	r24, 0x52	; 82
     c36:	80 93 42 06 	sts	0x0642, r24	; 0x800642 <__TEXT_REGION_LENGTH__+0x700642>
    ADC1_SAMPCTRL= 0x04;    //Extend sampling time with 4 cycles (6 total)
     c3a:	84 e0       	ldi	r24, 0x04	; 4
     c3c:	80 93 45 06 	sts	0x0645, r24	; 0x800645 <__TEXT_REGION_LENGTH__+0x700645>
    ADC1_MUXPOS  = 0x04;    //Start with Buttons, for sensors, activate sensor power first.
     c40:	80 93 46 06 	sts	0x0646, r24	; 0x800646 <__TEXT_REGION_LENGTH__+0x700646>
    ADC1_INTCTRL = 0x01;    //Result ready interrupt enabled
     c44:	c0 93 4a 06 	sts	0x064A, r28	; 0x80064a <__TEXT_REGION_LENGTH__+0x70064a>
    ADC1_CTRLA  |= 0x01;    //ADC0 enabled
     c48:	80 91 40 06 	lds	r24, 0x0640	; 0x800640 <__TEXT_REGION_LENGTH__+0x700640>
     c4c:	81 60       	ori	r24, 0x01	; 1
     c4e:	80 93 40 06 	sts	0x0640, r24	; 0x800640 <__TEXT_REGION_LENGTH__+0x700640>
    ADC1_COMMAND = 0x01;    //Start single conversion
     c52:	c0 93 48 06 	sts	0x0648, r28	; 0x800648 <__TEXT_REGION_LENGTH__+0x700648>

    //Init DAC0
    DAC0_CTRLA = 0x40;     //Enable output buffer (connect to pin)
     c56:	80 e4       	ldi	r24, 0x40	; 64
     c58:	80 93 a0 06 	sts	0x06A0, r24	; 0x8006a0 <__TEXT_REGION_LENGTH__+0x7006a0>
    DAC0_DATA = 0x80;      //Data value at half point (about 1.25V)
     c5c:	80 e8       	ldi	r24, 0x80	; 128
     c5e:	80 93 a1 06 	sts	0x06A1, r24	; 0x8006a1 <__TEXT_REGION_LENGTH__+0x7006a1>
    DAC0_CTRLA |= 0x01;    //Enable DAC
     c62:	80 91 a0 06 	lds	r24, 0x06A0	; 0x8006a0 <__TEXT_REGION_LENGTH__+0x7006a0>
     c66:	81 60       	ori	r24, 0x01	; 1
     c68:	80 93 a0 06 	sts	0x06A0, r24	; 0x8006a0 <__TEXT_REGION_LENGTH__+0x7006a0>
     
    //PIT and RTC interrupts
    while(RTC_STATUS & RTC_CTRLABUSY_bm);
     c6c:	80 91 41 01 	lds	r24, 0x0141	; 0x800141 <__TEXT_REGION_LENGTH__+0x700141>
     c70:	80 fd       	sbrc	r24, 0
     c72:	fc cf       	rjmp	.-8      	; 0xc6c <Setup+0x15c>
    RTC_CTRLA          = (0x6)<<3;                         //Prescaler: /64
     c74:	80 e3       	ldi	r24, 0x30	; 48
     c76:	80 93 40 01 	sts	0x0140, r24	; 0x800140 <__TEXT_REGION_LENGTH__+0x700140>
    RTC_CLKSEL         = 0;                                //Clock source: internal 32768Hz clock
     c7a:	10 92 47 01 	sts	0x0147, r1	; 0x800147 <__TEXT_REGION_LENGTH__+0x700147>
    while(RTC_STATUS & RTC_PERBUSY_bm);
     c7e:	80 91 41 01 	lds	r24, 0x0141	; 0x800141 <__TEXT_REGION_LENGTH__+0x700141>
     c82:	82 fd       	sbrc	r24, 2
     c84:	fc cf       	rjmp	.-8      	; 0xc7e <Setup+0x16e>
    RTC_PER            = 512*60;                           //60 second period (for clocking how long the device has been running?)
     c86:	80 e0       	ldi	r24, 0x00	; 0
     c88:	98 e7       	ldi	r25, 0x78	; 120
     c8a:	80 93 4a 01 	sts	0x014A, r24	; 0x80014a <__TEXT_REGION_LENGTH__+0x70014a>
     c8e:	90 93 4b 01 	sts	0x014B, r25	; 0x80014b <__TEXT_REGION_LENGTH__+0x70014b>
    tmp16bit = (RTC_CNT + BTN_TMR);
     c92:	80 91 48 01 	lds	r24, 0x0148	; 0x800148 <__TEXT_REGION_LENGTH__+0x700148>
     c96:	90 91 49 01 	lds	r25, 0x0149	; 0x800149 <__TEXT_REGION_LENGTH__+0x700149>
     c9a:	82 96       	adiw	r24, 0x22	; 34
     c9c:	80 93 f9 3a 	sts	0x3AF9, r24	; 0x803af9 <tmp16bit>
     ca0:	90 93 fa 3a 	sts	0x3AFA, r25	; 0x803afa <tmp16bit+0x1>
    if (tmp16bit > RTC_PER) tmp16bit -= RTC_PER;
     ca4:	20 91 4a 01 	lds	r18, 0x014A	; 0x80014a <__TEXT_REGION_LENGTH__+0x70014a>
     ca8:	30 91 4b 01 	lds	r19, 0x014B	; 0x80014b <__TEXT_REGION_LENGTH__+0x70014b>
     cac:	80 91 f9 3a 	lds	r24, 0x3AF9	; 0x803af9 <tmp16bit>
     cb0:	90 91 fa 3a 	lds	r25, 0x3AFA	; 0x803afa <tmp16bit+0x1>
     cb4:	28 17       	cp	r18, r24
     cb6:	39 07       	cpc	r19, r25
     cb8:	70 f4       	brcc	.+28     	; 0xcd6 <Setup+0x1c6>
     cba:	20 91 4a 01 	lds	r18, 0x014A	; 0x80014a <__TEXT_REGION_LENGTH__+0x70014a>
     cbe:	30 91 4b 01 	lds	r19, 0x014B	; 0x80014b <__TEXT_REGION_LENGTH__+0x70014b>
     cc2:	80 91 f9 3a 	lds	r24, 0x3AF9	; 0x803af9 <tmp16bit>
     cc6:	90 91 fa 3a 	lds	r25, 0x3AFA	; 0x803afa <tmp16bit+0x1>
     cca:	82 1b       	sub	r24, r18
     ccc:	93 0b       	sbc	r25, r19
     cce:	80 93 f9 3a 	sts	0x3AF9, r24	; 0x803af9 <tmp16bit>
     cd2:	90 93 fa 3a 	sts	0x3AFA, r25	; 0x803afa <tmp16bit+0x1>
    while(RTC_STATUS & RTC_CMPBUSY_bm);
     cd6:	80 91 41 01 	lds	r24, 0x0141	; 0x800141 <__TEXT_REGION_LENGTH__+0x700141>
     cda:	83 fd       	sbrc	r24, 3
     cdc:	fc cf       	rjmp	.-8      	; 0xcd6 <Setup+0x1c6>
    RTC_CMP            = tmp16bit;                         //Button timing
     cde:	80 91 f9 3a 	lds	r24, 0x3AF9	; 0x803af9 <tmp16bit>
     ce2:	90 91 fa 3a 	lds	r25, 0x3AFA	; 0x803afa <tmp16bit+0x1>
     ce6:	80 93 4c 01 	sts	0x014C, r24	; 0x80014c <__TEXT_REGION_LENGTH__+0x70014c>
     cea:	90 93 4d 01 	sts	0x014D, r25	; 0x80014d <__TEXT_REGION_LENGTH__+0x70014d>
    RTC_INTCTRL        = 0x03;                             //RTC overflow interrupt enabled
     cee:	83 e0       	ldi	r24, 0x03	; 3
     cf0:	80 93 42 01 	sts	0x0142, r24	; 0x800142 <__TEXT_REGION_LENGTH__+0x700142>
    RTC_PITINTCTRL     = 0x01;                             //PIT interrupt enabled
     cf4:	81 e0       	ldi	r24, 0x01	; 1
     cf6:	80 93 52 01 	sts	0x0152, r24	; 0x800152 <__TEXT_REGION_LENGTH__+0x700152>
    RTC_PITCTRLA       = (0x1)<<3;                         //Interrupt fires after 4 RTC clock cycles Rate=(RTCCLK/(PRESC*PERIOD)) 32768/256=128Hz
     cfa:	88 e0       	ldi	r24, 0x08	; 8
     cfc:	80 93 50 01 	sts	0x0150, r24	; 0x800150 <__TEXT_REGION_LENGTH__+0x700150>
    while(RTC_STATUS & RTC_CTRLABUSY_bm);      
     d00:	80 91 41 01 	lds	r24, 0x0141	; 0x800141 <__TEXT_REGION_LENGTH__+0x700141>
     d04:	80 fd       	sbrc	r24, 0
     d06:	fc cf       	rjmp	.-8      	; 0xd00 <Setup+0x1f0>
    RTC_CTRLA          |= 0x01;                            //Enable RTC
     d08:	80 91 40 01 	lds	r24, 0x0140	; 0x800140 <__TEXT_REGION_LENGTH__+0x700140>
     d0c:	81 60       	ori	r24, 0x01	; 1
     d0e:	80 93 40 01 	sts	0x0140, r24	; 0x800140 <__TEXT_REGION_LENGTH__+0x700140>
    RTC_PITCTRLA       |= 0x01;                            //Enable PIT
     d12:	80 91 50 01 	lds	r24, 0x0150	; 0x800150 <__TEXT_REGION_LENGTH__+0x700150>
     d16:	81 60       	ori	r24, 0x01	; 1
     d18:	80 93 50 01 	sts	0x0150, r24	; 0x800150 <__TEXT_REGION_LENGTH__+0x700150>
     
    //Other inits
    serRx[0] = 0;           // Empty Rx buffer (first char is enough)
     d1c:	10 92 77 3a 	sts	0x3A77, r1	; 0x803a77 <serRx>
    serTxAddr = &serRx[0];  // Point to first address of the Rx buffer
     d20:	87 e7       	ldi	r24, 0x77	; 119
     d22:	9a e3       	ldi	r25, 0x3A	; 58
     d24:	80 93 bb 3a 	sts	0x3ABB, r24	; 0x803abb <serTxAddr>
     d28:	90 93 bc 3a 	sts	0x3ABC, r25	; 0x803abc <serTxAddr+0x1>

    sei();
     d2c:	78 94       	sei
}
     d2e:	df 91       	pop	r29
     d30:	cf 91       	pop	r28
     d32:	08 95       	ret

00000d34 <__vector_8>:

// TCA0 is used for driving the LED matrix at 488Hz (* 5 columns = 2440Hz). The lower 8 bit underflow interrupt is used to load new values and shift between columns.
ISR(TCA0_LUNF_vect){
     d34:	1f 92       	push	r1
     d36:	0f 92       	push	r0
     d38:	0f b6       	in	r0, 0x3f	; 63
     d3a:	0f 92       	push	r0
     d3c:	11 24       	eor	r1, r1
     d3e:	8f 93       	push	r24
     d40:	9f 93       	push	r25
     d42:	af 93       	push	r26
     d44:	bf 93       	push	r27
     d46:	ef 93       	push	r30
     d48:	ff 93       	push	r31
    //Turn off all columns
    PORTC_OUTCLR = 0x07;
     d4a:	87 e0       	ldi	r24, 0x07	; 7
     d4c:	80 93 46 04 	sts	0x0446, r24	; 0x800446 <__TEXT_REGION_LENGTH__+0x700446>
    PORTB_OUTCLR = 0x44;
     d50:	84 e4       	ldi	r24, 0x44	; 68
     d52:	80 93 26 04 	sts	0x0426, r24	; 0x800426 <__TEXT_REGION_LENGTH__+0x700426>
    "ldi r25, 6        \n"
    "ld r24, %a[arr]+  \n"
    "st %a[wo]+, r24   \n"
    "dec r25           \n"
    "brne .-8          \n"
    :: [wo] "e" (&TCA0_SPLIT_LCMP0), [arr] "e" (&iLED[(L_COL<<3)]) : "r25", "r24", "cc", "memory");
     d56:	ec b3       	in	r30, 0x1c	; 28
     d58:	88 e0       	ldi	r24, 0x08	; 8
     d5a:	e8 9f       	mul	r30, r24
     d5c:	f0 01       	movw	r30, r0
     d5e:	11 24       	eor	r1, r1
     d60:	e4 53       	subi	r30, 0x34	; 52
     d62:	f5 4c       	sbci	r31, 0xC5	; 197
    //Turn off all columns
    PORTC_OUTCLR = 0x07;
    PORTB_OUTCLR = 0x44;

    //Write all of the compare registers of TCA0 with PWM values in array (rows)
    asm(
     d64:	a8 e2       	ldi	r26, 0x28	; 40
     d66:	ba e0       	ldi	r27, 0x0A	; 10
     d68:	96 e0       	ldi	r25, 0x06	; 6
     d6a:	81 91       	ld	r24, Z+
     d6c:	8d 93       	st	X+, r24
     d6e:	9a 95       	dec	r25
     d70:	e1 f7       	brne	.-8      	; 0xd6a <__vector_8+0x36>
    "st %a[wo]+, r24   \n"
    "dec r25           \n"
    "brne .-8          \n"
    :: [wo] "e" (&TCA0_SPLIT_LCMP0), [arr] "e" (&iLED[(L_COL<<3)]) : "r25", "r24", "cc", "memory");

    TCA0_SPLIT_CTRLESET = ((0x2)<<2)|0x3; //Sync timers: Moved this below the PWM value loading to fix the data shifting in asm above.
     d72:	8b e0       	ldi	r24, 0x0B	; 11
     d74:	80 93 05 0a 	sts	0x0A05, r24	; 0x800a05 <__TEXT_REGION_LENGTH__+0x700a05>

    //Turn on the right column
    if (L_COL<3) {
     d78:	8c b3       	in	r24, 0x1c	; 28
     d7a:	83 30       	cpi	r24, 0x03	; 3
     d7c:	58 f4       	brcc	.+22     	; 0xd94 <__vector_8+0x60>
        asm(
     d7e:	8c b3       	in	r24, 0x1c	; 28
     d80:	91 e0       	ldi	r25, 0x01	; 1
     d82:	01 c0       	rjmp	.+2      	; 0xd86 <__vector_8+0x52>
     d84:	99 0f       	add	r25, r25
     d86:	8a 95       	dec	r24
     d88:	ea f7       	brpl	.-6      	; 0xd84 <__vector_8+0x50>
     d8a:	99 b9       	out	0x09, r25	; 9
     d8c:	8c b3       	in	r24, 0x1c	; 28
     d8e:	83 95       	inc	r24
     d90:	8c bb       	out	0x1c, r24	; 28
     d92:	0a c0       	rjmp	.+20     	; 0xda8 <__vector_8+0x74>
        "in r24, %[io0]  \n"
        "inc r24         \n"
        "out %[io0], r24 \n"
        :: [io0] "I" (&L_COL), [vpc] "I" (&VPORTC_OUT) : "r24", "r25", "cc");
        } else {
        asm(
     d94:	8c b3       	in	r24, 0x1c	; 28
     d96:	83 30       	cpi	r24, 0x03	; 3
     d98:	21 f4       	brne	.+8      	; 0xda2 <__vector_8+0x6e>
     d9a:	2a 9a       	sbi	0x05, 2	; 5
     d9c:	83 95       	inc	r24
     d9e:	8c bb       	out	0x1c, r24	; 28
     da0:	03 c0       	rjmp	.+6      	; 0xda8 <__vector_8+0x74>
     da2:	2e 9a       	sbi	0x05, 6	; 5
     da4:	88 27       	eor	r24, r24
     da6:	8c bb       	out	0x1c, r24	; 28
        "clr r24         \n"
        "out %[io0], r24 \n"
        :: [io0] "I" (&L_COL), [vpb] "I" (&VPORTB_OUT) : "r24", "cc");
    }
    
    if(timeout_I2C) --timeout_I2C;
     da8:	80 91 62 3a 	lds	r24, 0x3A62	; 0x803a62 <timeout_I2C>
     dac:	88 23       	and	r24, r24
     dae:	29 f0       	breq	.+10     	; 0xdba <__vector_8+0x86>
     db0:	80 91 62 3a 	lds	r24, 0x3A62	; 0x803a62 <timeout_I2C>
     db4:	81 50       	subi	r24, 0x01	; 1
     db6:	80 93 62 3a 	sts	0x3A62, r24	; 0x803a62 <timeout_I2C>
    TCA0_SPLIT_INTFLAGS = 0xFF;
     dba:	8f ef       	ldi	r24, 0xFF	; 255
     dbc:	80 93 0b 0a 	sts	0x0A0B, r24	; 0x800a0b <__TEXT_REGION_LENGTH__+0x700a0b>
}
     dc0:	ff 91       	pop	r31
     dc2:	ef 91       	pop	r30
     dc4:	bf 91       	pop	r27
     dc6:	af 91       	pop	r26
     dc8:	9f 91       	pop	r25
     dca:	8f 91       	pop	r24
     dcc:	0f 90       	pop	r0
     dce:	0f be       	out	0x3f, r0	; 63
     dd0:	0f 90       	pop	r0
     dd2:	1f 90       	pop	r1
     dd4:	18 95       	reti

00000dd6 <__vector_13>:

// TCB0 is used for (slowly) sending serial characters. A 0x00 character code is needed to terminate sending or it will leak memory to serial. It's a feature, honest! 
ISR(TCB0_INT_vect){
     dd6:	1f 92       	push	r1
     dd8:	0f 92       	push	r0
     dda:	0f b6       	in	r0, 0x3f	; 63
     ddc:	0f 92       	push	r0
     dde:	11 24       	eor	r1, r1
     de0:	8f 93       	push	r24
     de2:	9f 93       	push	r25
     de4:	ef 93       	push	r30
     de6:	ff 93       	push	r31
    if (*serTxAddr) {
     de8:	e0 91 bb 3a 	lds	r30, 0x3ABB	; 0x803abb <serTxAddr>
     dec:	f0 91 bc 3a 	lds	r31, 0x3ABC	; 0x803abc <serTxAddr+0x1>
     df0:	80 81       	ld	r24, Z
     df2:	88 23       	and	r24, r24
     df4:	91 f0       	breq	.+36     	; 0xe1a <__vector_13+0x44>
        USART0_TXDATAL = *serTxAddr;
     df6:	80 81       	ld	r24, Z
     df8:	80 93 02 08 	sts	0x0802, r24	; 0x800802 <__TEXT_REGION_LENGTH__+0x700802>
        serTxAddr++;
     dfc:	80 91 bb 3a 	lds	r24, 0x3ABB	; 0x803abb <serTxAddr>
     e00:	90 91 bc 3a 	lds	r25, 0x3ABC	; 0x803abc <serTxAddr+0x1>
     e04:	01 96       	adiw	r24, 0x01	; 1
     e06:	80 93 bb 3a 	sts	0x3ABB, r24	; 0x803abb <serTxAddr>
     e0a:	90 93 bc 3a 	sts	0x3ABC, r25	; 0x803abc <serTxAddr+0x1>
        USART0_CTRLA |= USART_DREIE_bm;
     e0e:	80 91 05 08 	lds	r24, 0x0805	; 0x800805 <__TEXT_REGION_LENGTH__+0x700805>
     e12:	80 62       	ori	r24, 0x20	; 32
     e14:	80 93 05 08 	sts	0x0805, r24	; 0x800805 <__TEXT_REGION_LENGTH__+0x700805>
     e18:	05 c0       	rjmp	.+10     	; 0xe24 <__vector_13+0x4e>
    } else {
        serTxDone = 1;
     e1a:	81 e0       	ldi	r24, 0x01	; 1
     e1c:	80 93 0a 38 	sts	0x380A, r24	; 0x80380a <serTxDone>
        TCB0_INTCTRL = 0x00;
     e20:	10 92 45 0a 	sts	0x0A45, r1	; 0x800a45 <__TEXT_REGION_LENGTH__+0x700a45>
    }
    TCB0_INTFLAGS = TCB_CAPT_bm;
     e24:	81 e0       	ldi	r24, 0x01	; 1
     e26:	80 93 46 0a 	sts	0x0A46, r24	; 0x800a46 <__TEXT_REGION_LENGTH__+0x700a46>
}
     e2a:	ff 91       	pop	r31
     e2c:	ef 91       	pop	r30
     e2e:	9f 91       	pop	r25
     e30:	8f 91       	pop	r24
     e32:	0f 90       	pop	r0
     e34:	0f be       	out	0x3f, r0	; 63
     e36:	0f 90       	pop	r0
     e38:	1f 90       	pop	r1
     e3a:	18 95       	reti

00000e3c <__vector_14>:

// TCB1 is used for audio generation. Keeps playing "data" until 0 is reached. Audio sample data can contain 0x01 to 0xFF, centered around 0x80
ISR(TCB1_INT_vect){
     e3c:	1f 92       	push	r1
     e3e:	0f 92       	push	r0
     e40:	0f b6       	in	r0, 0x3f	; 63
     e42:	0f 92       	push	r0
     e44:	11 24       	eor	r1, r1
     e46:	2f 93       	push	r18
     e48:	3f 93       	push	r19
     e4a:	4f 93       	push	r20
     e4c:	8f 93       	push	r24
     e4e:	9f 93       	push	r25
     e50:	ef 93       	push	r30
     e52:	ff 93       	push	r31
    int16_t volCtrl;
    if (*auSmpAddr == 0) auSmpAddr = auRepAddr;
     e54:	e0 91 07 38 	lds	r30, 0x3807	; 0x803807 <auSmpAddr>
     e58:	f0 91 08 38 	lds	r31, 0x3808	; 0x803808 <auSmpAddr+0x1>
     e5c:	80 81       	ld	r24, Z
     e5e:	81 11       	cpse	r24, r1
     e60:	08 c0       	rjmp	.+16     	; 0xe72 <__vector_14+0x36>
     e62:	80 91 05 38 	lds	r24, 0x3805	; 0x803805 <auRepAddr>
     e66:	90 91 06 38 	lds	r25, 0x3806	; 0x803806 <auRepAddr+0x1>
     e6a:	80 93 07 38 	sts	0x3807, r24	; 0x803807 <auSmpAddr>
     e6e:	90 93 08 38 	sts	0x3808, r25	; 0x803808 <auSmpAddr+0x1>
    if (*auSmpAddr) {
     e72:	e0 91 07 38 	lds	r30, 0x3807	; 0x803807 <auSmpAddr>
     e76:	f0 91 08 38 	lds	r31, 0x3808	; 0x803808 <auSmpAddr+0x1>
     e7a:	80 81       	ld	r24, Z
     e7c:	88 23       	and	r24, r24
     e7e:	e1 f0       	breq	.+56     	; 0xeb8 <__vector_14+0x7c>
        volCtrl = ((((int16_t)(*auSmpAddr) - 0x7f) * auVolume) >> 8) + 0x80;
     e80:	20 81       	ld	r18, Z
     e82:	40 91 b8 3a 	lds	r20, 0x3AB8	; 0x803ab8 <auVolume>
        DAC0_DATA = (uint8_t)(volCtrl);
     e86:	30 e0       	ldi	r19, 0x00	; 0
     e88:	2f 57       	subi	r18, 0x7F	; 127
     e8a:	31 09       	sbc	r19, r1
     e8c:	42 9f       	mul	r20, r18
     e8e:	c0 01       	movw	r24, r0
     e90:	43 9f       	mul	r20, r19
     e92:	90 0d       	add	r25, r0
     e94:	11 24       	eor	r1, r1
     e96:	89 2f       	mov	r24, r25
     e98:	99 0f       	add	r25, r25
     e9a:	99 0b       	sbc	r25, r25
     e9c:	80 58       	subi	r24, 0x80	; 128
     e9e:	9f 4f       	sbci	r25, 0xFF	; 255
     ea0:	80 93 a1 06 	sts	0x06A1, r24	; 0x8006a1 <__TEXT_REGION_LENGTH__+0x7006a1>
        ++auSmpAddr;
     ea4:	80 91 07 38 	lds	r24, 0x3807	; 0x803807 <auSmpAddr>
     ea8:	90 91 08 38 	lds	r25, 0x3808	; 0x803808 <auSmpAddr+0x1>
     eac:	01 96       	adiw	r24, 0x01	; 1
     eae:	80 93 07 38 	sts	0x3807, r24	; 0x803807 <auSmpAddr>
     eb2:	90 93 08 38 	sts	0x3808, r25	; 0x803808 <auSmpAddr+0x1>
     eb6:	06 c0       	rjmp	.+12     	; 0xec4 <__vector_14+0x88>
    } else {
        DAC0_DATA = 0x80;
     eb8:	80 e8       	ldi	r24, 0x80	; 128
     eba:	80 93 a1 06 	sts	0x06A1, r24	; 0x8006a1 <__TEXT_REGION_LENGTH__+0x7006a1>
        auPlayDone = 1;
     ebe:	81 e0       	ldi	r24, 0x01	; 1
     ec0:	80 93 f4 3a 	sts	0x3AF4, r24	; 0x803af4 <auPlayDone>
    }
    TCB1_INTFLAGS = TCB_CAPT_bm;
     ec4:	81 e0       	ldi	r24, 0x01	; 1
     ec6:	80 93 56 0a 	sts	0x0A56, r24	; 0x800a56 <__TEXT_REGION_LENGTH__+0x700a56>
}
     eca:	ff 91       	pop	r31
     ecc:	ef 91       	pop	r30
     ece:	9f 91       	pop	r25
     ed0:	8f 91       	pop	r24
     ed2:	4f 91       	pop	r20
     ed4:	3f 91       	pop	r19
     ed6:	2f 91       	pop	r18
     ed8:	0f 90       	pop	r0
     eda:	0f be       	out	0x3f, r0	; 63
     edc:	0f 90       	pop	r0
     ede:	1f 90       	pop	r1
     ee0:	18 95       	reti

00000ee2 <__vector_27>:

// Reads up to RXLEN characters until LF is found, LF sets the serRxDone flag and writes 0 instead of LF.
ISR(USART0_RXC_vect){
     ee2:	1f 92       	push	r1
     ee4:	0f 92       	push	r0
     ee6:	0f b6       	in	r0, 0x3f	; 63
     ee8:	0f 92       	push	r0
     eea:	11 24       	eor	r1, r1
     eec:	8f 93       	push	r24
     eee:	ef 93       	push	r30
     ef0:	ff 93       	push	r31
    if (serRxDone == 0){
     ef2:	80 91 44 38 	lds	r24, 0x3844	; 0x803844 <serRxDone>
     ef6:	81 11       	cpse	r24, r1
     ef8:	44 c0       	rjmp	.+136    	; 0xf82 <__vector_27+0xa0>
        serRx[RXCNT] = USART0.RXDATAL;
     efa:	ed b3       	in	r30, 0x1d	; 29
     efc:	f0 e0       	ldi	r31, 0x00	; 0
     efe:	80 91 00 08 	lds	r24, 0x0800	; 0x800800 <__TEXT_REGION_LENGTH__+0x700800>
     f02:	e9 58       	subi	r30, 0x89	; 137
     f04:	f5 4c       	sbci	r31, 0xC5	; 197
     f06:	80 83       	st	Z, r24
        USART0_TXDATAL = serRx[RXCNT];
     f08:	ed b3       	in	r30, 0x1d	; 29
     f0a:	f0 e0       	ldi	r31, 0x00	; 0
     f0c:	e9 58       	subi	r30, 0x89	; 137
     f0e:	f5 4c       	sbci	r31, 0xC5	; 197
     f10:	80 81       	ld	r24, Z
     f12:	80 93 02 08 	sts	0x0802, r24	; 0x800802 <__TEXT_REGION_LENGTH__+0x700802>
        if ((serRx[RXCNT] == 0x0A)||(serRx[RXCNT] == 0x0D)){
     f16:	ed b3       	in	r30, 0x1d	; 29
     f18:	f0 e0       	ldi	r31, 0x00	; 0
     f1a:	e9 58       	subi	r30, 0x89	; 137
     f1c:	f5 4c       	sbci	r31, 0xC5	; 197
     f1e:	80 81       	ld	r24, Z
     f20:	8a 30       	cpi	r24, 0x0A	; 10
     f22:	39 f0       	breq	.+14     	; 0xf32 <__vector_27+0x50>
     f24:	ed b3       	in	r30, 0x1d	; 29
     f26:	f0 e0       	ldi	r31, 0x00	; 0
     f28:	e9 58       	subi	r30, 0x89	; 137
     f2a:	f5 4c       	sbci	r31, 0xC5	; 197
     f2c:	80 81       	ld	r24, Z
     f2e:	8d 30       	cpi	r24, 0x0D	; 13
     f30:	49 f4       	brne	.+18     	; 0xf44 <__vector_27+0x62>
            serRx[RXCNT] = 0;
     f32:	ed b3       	in	r30, 0x1d	; 29
     f34:	f0 e0       	ldi	r31, 0x00	; 0
     f36:	e9 58       	subi	r30, 0x89	; 137
     f38:	f5 4c       	sbci	r31, 0xC5	; 197
     f3a:	10 82       	st	Z, r1
            serRxDone = 1;
     f3c:	81 e0       	ldi	r24, 0x01	; 1
     f3e:	80 93 44 38 	sts	0x3844, r24	; 0x803844 <serRxDone>
     f42:	1f c0       	rjmp	.+62     	; 0xf82 <__vector_27+0xa0>
        } else if (((serRx[RXCNT] == 0x08)||(serRx[RXCNT] == 0x7F))&&(RXCNT > 0)) {
     f44:	ed b3       	in	r30, 0x1d	; 29
     f46:	f0 e0       	ldi	r31, 0x00	; 0
     f48:	e9 58       	subi	r30, 0x89	; 137
     f4a:	f5 4c       	sbci	r31, 0xC5	; 197
     f4c:	80 81       	ld	r24, Z
     f4e:	88 30       	cpi	r24, 0x08	; 8
     f50:	39 f0       	breq	.+14     	; 0xf60 <__vector_27+0x7e>
     f52:	ed b3       	in	r30, 0x1d	; 29
     f54:	f0 e0       	ldi	r31, 0x00	; 0
     f56:	e9 58       	subi	r30, 0x89	; 137
     f58:	f5 4c       	sbci	r31, 0xC5	; 197
     f5a:	80 81       	ld	r24, Z
     f5c:	8f 37       	cpi	r24, 0x7F	; 127
     f5e:	59 f4       	brne	.+22     	; 0xf76 <__vector_27+0x94>
     f60:	8d b3       	in	r24, 0x1d	; 29
     f62:	88 23       	and	r24, r24
     f64:	41 f0       	breq	.+16     	; 0xf76 <__vector_27+0x94>
            serRx[RXCNT] = 0;
     f66:	ed b3       	in	r30, 0x1d	; 29
     f68:	f0 e0       	ldi	r31, 0x00	; 0
     f6a:	e9 58       	subi	r30, 0x89	; 137
     f6c:	f5 4c       	sbci	r31, 0xC5	; 197
     f6e:	10 82       	st	Z, r1
            --RXCNT;
     f70:	8d b3       	in	r24, 0x1d	; 29
     f72:	81 50       	subi	r24, 0x01	; 1
     f74:	05 c0       	rjmp	.+10     	; 0xf80 <__vector_27+0x9e>
        } else if (RXCNT < (RXLEN-1)) ++RXCNT;
     f76:	8d b3       	in	r24, 0x1d	; 29
     f78:	80 34       	cpi	r24, 0x40	; 64
     f7a:	18 f4       	brcc	.+6      	; 0xf82 <__vector_27+0xa0>
     f7c:	8d b3       	in	r24, 0x1d	; 29
     f7e:	8f 5f       	subi	r24, 0xFF	; 255
     f80:	8d bb       	out	0x1d, r24	; 29
    }
    USART0_STATUS = USART_RXCIF_bm;
     f82:	80 e8       	ldi	r24, 0x80	; 128
     f84:	80 93 04 08 	sts	0x0804, r24	; 0x800804 <__TEXT_REGION_LENGTH__+0x700804>
};
     f88:	ff 91       	pop	r31
     f8a:	ef 91       	pop	r30
     f8c:	8f 91       	pop	r24
     f8e:	0f 90       	pop	r0
     f90:	0f be       	out	0x3f, r0	; 63
     f92:	0f 90       	pop	r0
     f94:	1f 90       	pop	r1
     f96:	18 95       	reti

00000f98 <__vector_28>:

// Trigger new data write and turn off DRE interrupt.
ISR(USART0_DRE_vect){
     f98:	1f 92       	push	r1
     f9a:	0f 92       	push	r0
     f9c:	0f b6       	in	r0, 0x3f	; 63
     f9e:	0f 92       	push	r0
     fa0:	11 24       	eor	r1, r1
     fa2:	8f 93       	push	r24
     fa4:	ef 93       	push	r30
     fa6:	ff 93       	push	r31
    TCB0_CNT = 0;
     fa8:	10 92 4a 0a 	sts	0x0A4A, r1	; 0x800a4a <__TEXT_REGION_LENGTH__+0x700a4a>
     fac:	10 92 4b 0a 	sts	0x0A4B, r1	; 0x800a4b <__TEXT_REGION_LENGTH__+0x700a4b>
    TCB0_INTCTRL = 0x01;
     fb0:	81 e0       	ldi	r24, 0x01	; 1
     fb2:	80 93 45 0a 	sts	0x0A45, r24	; 0x800a45 <__TEXT_REGION_LENGTH__+0x700a45>
    USART0_CTRLA &= ~(USART_DREIE_bm);
     fb6:	e5 e0       	ldi	r30, 0x05	; 5
     fb8:	f8 e0       	ldi	r31, 0x08	; 8
     fba:	80 81       	ld	r24, Z
     fbc:	8f 7d       	andi	r24, 0xDF	; 223
     fbe:	80 83       	st	Z, r24
};
     fc0:	ff 91       	pop	r31
     fc2:	ef 91       	pop	r30
     fc4:	8f 91       	pop	r24
     fc6:	0f 90       	pop	r0
     fc8:	0f be       	out	0x3f, r0	; 63
     fca:	0f 90       	pop	r0
     fcc:	1f 90       	pop	r1
     fce:	18 95       	reti

00000fd0 <__vector_20>:

// ADC used for audio input and temperature sensor.
ISR(ADC0_RESRDY_vect){
     fd0:	1f 92       	push	r1
     fd2:	0f 92       	push	r0
     fd4:	0f b6       	in	r0, 0x3f	; 63
     fd6:	0f 92       	push	r0
     fd8:	11 24       	eor	r1, r1
     fda:	8f 93       	push	r24
     fdc:	9f 93       	push	r25
     fde:	ef 93       	push	r30
     fe0:	ff 93       	push	r31
    //If just switched reference, discard first few samples
    if (adc0Chg == 0){
     fe2:	80 91 37 38 	lds	r24, 0x3837	; 0x803837 <adc0Chg>
     fe6:	81 11       	cpse	r24, r1
     fe8:	19 c0       	rjmp	.+50     	; 0x101c <__vector_20+0x4c>
        AUPOS = (AUPOS+1)&(AULEN-1);
     fea:	8e b3       	in	r24, 0x1e	; 30
     fec:	8f 5f       	subi	r24, 0xFF	; 255
     fee:	87 70       	andi	r24, 0x07	; 7
     ff0:	8e bb       	out	0x1e, r24	; 30
        if (ADC0_MUXPOS == 0x1E) adcTemp = ADC0_RES; else auIn[AUPOS]=ADC0_RESL;
     ff2:	80 91 06 06 	lds	r24, 0x0606	; 0x800606 <__TEXT_REGION_LENGTH__+0x700606>
     ff6:	8e 31       	cpi	r24, 0x1E	; 30
     ff8:	49 f4       	brne	.+18     	; 0x100c <__vector_20+0x3c>
     ffa:	80 91 10 06 	lds	r24, 0x0610	; 0x800610 <__TEXT_REGION_LENGTH__+0x700610>
     ffe:	90 91 11 06 	lds	r25, 0x0611	; 0x800611 <__TEXT_REGION_LENGTH__+0x700611>
    1002:	80 93 f7 3a 	sts	0x3AF7, r24	; 0x803af7 <adcTemp>
    1006:	90 93 f8 3a 	sts	0x3AF8, r25	; 0x803af8 <adcTemp+0x1>
    100a:	0d c0       	rjmp	.+26     	; 0x1026 <__vector_20+0x56>
    100c:	ee b3       	in	r30, 0x1e	; 30
    100e:	f0 e0       	ldi	r31, 0x00	; 0
    1010:	80 91 10 06 	lds	r24, 0x0610	; 0x800610 <__TEXT_REGION_LENGTH__+0x700610>
    1014:	ec 53       	subi	r30, 0x3C	; 60
    1016:	f5 4c       	sbci	r31, 0xC5	; 197
    1018:	80 83       	st	Z, r24
    101a:	05 c0       	rjmp	.+10     	; 0x1026 <__vector_20+0x56>
    } else --adc0Chg;
    101c:	80 91 37 38 	lds	r24, 0x3837	; 0x803837 <adc0Chg>
    1020:	81 50       	subi	r24, 0x01	; 1
    1022:	80 93 37 38 	sts	0x3837, r24	; 0x803837 <adc0Chg>
    ADC0_INTFLAGS = ADC_RESRDY_bm;
    1026:	81 e0       	ldi	r24, 0x01	; 1
    1028:	80 93 0b 06 	sts	0x060B, r24	; 0x80060b <__TEXT_REGION_LENGTH__+0x70060b>
}
    102c:	ff 91       	pop	r31
    102e:	ef 91       	pop	r30
    1030:	9f 91       	pop	r25
    1032:	8f 91       	pop	r24
    1034:	0f 90       	pop	r0
    1036:	0f be       	out	0x3f, r0	; 63
    1038:	0f 90       	pop	r0
    103a:	1f 90       	pop	r1
    103c:	18 95       	reti

0000103e <__vector_22>:

// Reads out sensors at 8Hz and buttons at 42Hz (timed by PIT), power for the sensors is on 1/8th of the time to save power.
ISR(ADC1_RESRDY_vect){
    103e:	1f 92       	push	r1
    1040:	0f 92       	push	r0
    1042:	0f b6       	in	r0, 0x3f	; 63
    1044:	0f 92       	push	r0
    1046:	11 24       	eor	r1, r1
    1048:	8f 93       	push	r24
    104a:	9f 93       	push	r25
    if (ADC1_MUXPOS == 0) {
    104c:	80 91 46 06 	lds	r24, 0x0646	; 0x800646 <__TEXT_REGION_LENGTH__+0x700646>
    1050:	81 11       	cpse	r24, r1
    1052:	0a c0       	rjmp	.+20     	; 0x1068 <__vector_22+0x2a>
        adcPhot = ADC1_RES;
    1054:	80 91 50 06 	lds	r24, 0x0650	; 0x800650 <__TEXT_REGION_LENGTH__+0x700650>
    1058:	90 91 51 06 	lds	r25, 0x0651	; 0x800651 <__TEXT_REGION_LENGTH__+0x700651>
    105c:	80 93 bf 3a 	sts	0x3ABF, r24	; 0x803abf <adcPhot>
    1060:	90 93 c0 3a 	sts	0x3AC0, r25	; 0x803ac0 <adcPhot+0x1>
        ADC1_MUXPOS = 0x01;             //Select Hall sensor
    1064:	81 e0       	ldi	r24, 0x01	; 1
    1066:	10 c0       	rjmp	.+32     	; 0x1088 <__vector_22+0x4a>
    } else if (ADC1_MUXPOS == 1){
    1068:	80 91 46 06 	lds	r24, 0x0646	; 0x800646 <__TEXT_REGION_LENGTH__+0x700646>
    106c:	81 30       	cpi	r24, 0x01	; 1
    106e:	79 f4       	brne	.+30     	; 0x108e <__vector_22+0x50>
        PORTA_OUTCLR = 0b00001000;      //Turn off sensor power
    1070:	88 e0       	ldi	r24, 0x08	; 8
    1072:	80 93 06 04 	sts	0x0406, r24	; 0x800406 <__TEXT_REGION_LENGTH__+0x700406>
        adcHall = ADC1_RES;
    1076:	80 91 50 06 	lds	r24, 0x0650	; 0x800650 <__TEXT_REGION_LENGTH__+0x700650>
    107a:	90 91 51 06 	lds	r25, 0x0651	; 0x800651 <__TEXT_REGION_LENGTH__+0x700651>
    107e:	80 93 bd 3a 	sts	0x3ABD, r24	; 0x803abd <adcHall>
    1082:	90 93 be 3a 	sts	0x3ABE, r25	; 0x803abe <adcHall+0x1>
        ADC1_MUXPOS = 0x04;             //select buttons
    1086:	84 e0       	ldi	r24, 0x04	; 4
    1088:	80 93 46 06 	sts	0x0646, r24	; 0x800646 <__TEXT_REGION_LENGTH__+0x700646>
    108c:	10 c0       	rjmp	.+32     	; 0x10ae <__vector_22+0x70>
    } else {
        adcBtns = ADC1_RES;
    108e:	80 91 50 06 	lds	r24, 0x0650	; 0x800650 <__TEXT_REGION_LENGTH__+0x700650>
    1092:	90 91 51 06 	lds	r25, 0x0651	; 0x800651 <__TEXT_REGION_LENGTH__+0x700651>
    1096:	80 93 b9 3a 	sts	0x3AB9, r24	; 0x803ab9 <adcBtns>
    109a:	90 93 ba 3a 	sts	0x3ABA, r25	; 0x803aba <adcBtns+0x1>
        if (A1CNT == 15){
    109e:	8f b3       	in	r24, 0x1f	; 31
    10a0:	8f 30       	cpi	r24, 0x0F	; 15
    10a2:	29 f4       	brne	.+10     	; 0x10ae <__vector_22+0x70>
            ADC1_MUXPOS = 0x00;         //Select photo transistor
    10a4:	10 92 46 06 	sts	0x0646, r1	; 0x800646 <__TEXT_REGION_LENGTH__+0x700646>
            PORTA_OUTSET = 0b00001000;  //Turn on sensor power
    10a8:	88 e0       	ldi	r24, 0x08	; 8
    10aa:	80 93 05 04 	sts	0x0405, r24	; 0x800405 <__TEXT_REGION_LENGTH__+0x700405>
        }
    }

    A1CNT=(A1CNT+1)%16;        
    10ae:	8f b3       	in	r24, 0x1f	; 31
    10b0:	90 e0       	ldi	r25, 0x00	; 0
    10b2:	01 96       	adiw	r24, 0x01	; 1
    10b4:	8f 70       	andi	r24, 0x0F	; 15
    10b6:	99 27       	eor	r25, r25
    10b8:	8f bb       	out	0x1f, r24	; 31
    ADC1_INTFLAGS = ADC_RESRDY_bm;
    10ba:	81 e0       	ldi	r24, 0x01	; 1
    10bc:	80 93 4b 06 	sts	0x064B, r24	; 0x80064b <__TEXT_REGION_LENGTH__+0x70064b>
}
    10c0:	9f 91       	pop	r25
    10c2:	8f 91       	pop	r24
    10c4:	0f 90       	pop	r0
    10c6:	0f be       	out	0x3f, r0	; 63
    10c8:	0f 90       	pop	r0
    10ca:	1f 90       	pop	r1
    10cc:	18 95       	reti

000010ce <__vector_6>:

// RTC compare interrupt, triggers at 512/BTN_TMR rate, also RTC overflow interrupt, triggers once a minute
ISR(RTC_CNT_vect) {
    10ce:	1f 92       	push	r1
    10d0:	0f 92       	push	r0
    10d2:	0f b6       	in	r0, 0x3f	; 63
    10d4:	0f 92       	push	r0
    10d6:	11 24       	eor	r1, r1
    10d8:	2f 93       	push	r18
    10da:	3f 93       	push	r19
    10dc:	8f 93       	push	r24
    10de:	9f 93       	push	r25
    if (RTC_INTFLAGS & RTC_CMP_bm){
    10e0:	80 91 43 01 	lds	r24, 0x0143	; 0x800143 <__TEXT_REGION_LENGTH__+0x700143>
    10e4:	81 ff       	sbrs	r24, 1
    10e6:	39 c0       	rjmp	.+114    	; 0x115a <__vector_6+0x8c>
        if (buttonMark<0xff) buttonMark++;   // For button timing purposes
    10e8:	80 91 42 38 	lds	r24, 0x3842	; 0x803842 <buttonMark>
    10ec:	8f 3f       	cpi	r24, 0xFF	; 255
    10ee:	29 f0       	breq	.+10     	; 0x10fa <__vector_6+0x2c>
    10f0:	80 91 42 38 	lds	r24, 0x3842	; 0x803842 <buttonMark>
    10f4:	8f 5f       	subi	r24, 0xFF	; 255
    10f6:	80 93 42 38 	sts	0x3842, r24	; 0x803842 <buttonMark>
        //tmp16bit = (RTC_CNT + BTN_TMR)%RTC_PER;
        tmp16bit = (RTC_CNT + BTN_TMR);
    10fa:	80 91 48 01 	lds	r24, 0x0148	; 0x800148 <__TEXT_REGION_LENGTH__+0x700148>
    10fe:	90 91 49 01 	lds	r25, 0x0149	; 0x800149 <__TEXT_REGION_LENGTH__+0x700149>
    1102:	82 96       	adiw	r24, 0x22	; 34
    1104:	80 93 f9 3a 	sts	0x3AF9, r24	; 0x803af9 <tmp16bit>
    1108:	90 93 fa 3a 	sts	0x3AFA, r25	; 0x803afa <tmp16bit+0x1>
        if (tmp16bit > RTC_PER) tmp16bit -= RTC_PER;
    110c:	20 91 4a 01 	lds	r18, 0x014A	; 0x80014a <__TEXT_REGION_LENGTH__+0x70014a>
    1110:	30 91 4b 01 	lds	r19, 0x014B	; 0x80014b <__TEXT_REGION_LENGTH__+0x70014b>
    1114:	80 91 f9 3a 	lds	r24, 0x3AF9	; 0x803af9 <tmp16bit>
    1118:	90 91 fa 3a 	lds	r25, 0x3AFA	; 0x803afa <tmp16bit+0x1>
    111c:	28 17       	cp	r18, r24
    111e:	39 07       	cpc	r19, r25
    1120:	70 f4       	brcc	.+28     	; 0x113e <__vector_6+0x70>
    1122:	20 91 4a 01 	lds	r18, 0x014A	; 0x80014a <__TEXT_REGION_LENGTH__+0x70014a>
    1126:	30 91 4b 01 	lds	r19, 0x014B	; 0x80014b <__TEXT_REGION_LENGTH__+0x70014b>
    112a:	80 91 f9 3a 	lds	r24, 0x3AF9	; 0x803af9 <tmp16bit>
    112e:	90 91 fa 3a 	lds	r25, 0x3AFA	; 0x803afa <tmp16bit+0x1>
    1132:	82 1b       	sub	r24, r18
    1134:	93 0b       	sbc	r25, r19
    1136:	80 93 f9 3a 	sts	0x3AF9, r24	; 0x803af9 <tmp16bit>
    113a:	90 93 fa 3a 	sts	0x3AFA, r25	; 0x803afa <tmp16bit+0x1>
        while(RTC_STATUS & RTC_CMPBUSY_bm);
    113e:	80 91 41 01 	lds	r24, 0x0141	; 0x800141 <__TEXT_REGION_LENGTH__+0x700141>
    1142:	83 fd       	sbrc	r24, 3
    1144:	fc cf       	rjmp	.-8      	; 0x113e <__vector_6+0x70>
        RTC_CMP = tmp16bit;                 // Button timing: next interrupt set
    1146:	80 91 f9 3a 	lds	r24, 0x3AF9	; 0x803af9 <tmp16bit>
    114a:	90 91 fa 3a 	lds	r25, 0x3AFA	; 0x803afa <tmp16bit+0x1>
    114e:	80 93 4c 01 	sts	0x014C, r24	; 0x80014c <__TEXT_REGION_LENGTH__+0x70014c>
    1152:	90 93 4d 01 	sts	0x014D, r25	; 0x80014d <__TEXT_REGION_LENGTH__+0x70014d>
        RTC_INTFLAGS = RTC_CMP_bm;		    // clear interrupt flag
    1156:	82 e0       	ldi	r24, 0x02	; 2
    1158:	06 c0       	rjmp	.+12     	; 0x1166 <__vector_6+0x98>
    } else {
        minuteMark++;                       // For very slow timing purposes, overflows to 0
    115a:	80 91 43 38 	lds	r24, 0x3843	; 0x803843 <minuteMark>
    115e:	8f 5f       	subi	r24, 0xFF	; 255
    1160:	80 93 43 38 	sts	0x3843, r24	; 0x803843 <minuteMark>
        RTC_INTFLAGS = RTC_OVF_bm;		    // clear interrupt flag
    1164:	81 e0       	ldi	r24, 0x01	; 1
    1166:	80 93 43 01 	sts	0x0143, r24	; 0x800143 <__TEXT_REGION_LENGTH__+0x700143>
    }
}
    116a:	9f 91       	pop	r25
    116c:	8f 91       	pop	r24
    116e:	3f 91       	pop	r19
    1170:	2f 91       	pop	r18
    1172:	0f 90       	pop	r0
    1174:	0f be       	out	0x3f, r0	; 63
    1176:	0f 90       	pop	r0
    1178:	1f 90       	pop	r1
    117a:	18 95       	reti

0000117c <__vector_7>:

// PIT interrupt (timing of ADC1: sensor values)
ISR(RTC_PIT_vect) {						// PIT interrupt handling code
    117c:	1f 92       	push	r1
    117e:	0f 92       	push	r0
    1180:	0f b6       	in	r0, 0x3f	; 63
    1182:	0f 92       	push	r0
    1184:	11 24       	eor	r1, r1
    1186:	8f 93       	push	r24
    ADC1_COMMAND = 0x01;
    1188:	81 e0       	ldi	r24, 0x01	; 1
    118a:	80 93 48 06 	sts	0x0648, r24	; 0x800648 <__TEXT_REGION_LENGTH__+0x700648>
    RTC_PITINTFLAGS = RTC_PI_bm;		// clear interrupt flag
    118e:	80 93 53 01 	sts	0x0153, r24	; 0x800153 <__TEXT_REGION_LENGTH__+0x700153>
}
    1192:	8f 91       	pop	r24
    1194:	0f 90       	pop	r0
    1196:	0f be       	out	0x3f, r0	; 63
    1198:	0f 90       	pop	r0
    119a:	1f 90       	pop	r1
    119c:	18 95       	reti

0000119e <EERead>:

// Read bytes from EEPROM
void EERead(uint8_t eeAddr, uint8_t *eeValues, uint8_t size)
{
    while(NVMCTRL_STATUS & NVMCTRL_EEBUSY_bm);              // Wait until any write operation has finished
    119e:	90 91 02 10 	lds	r25, 0x1002	; 0x801002 <__TEXT_REGION_LENGTH__+0x701002>
    11a2:	91 fd       	sbrc	r25, 1
    11a4:	fc cf       	rjmp	.-8      	; 0x119e <EERead>
    11a6:	fb 01       	movw	r30, r22
    11a8:	48 0f       	add	r20, r24

    while(size){
    11aa:	84 17       	cp	r24, r20
    11ac:	39 f0       	breq	.+14     	; 0x11bc <EERead+0x1e>
        *eeValues++ = *(uint8_t *)(EEPROM_START+eeAddr++);  // Read data from buffer
    11ae:	a8 2f       	mov	r26, r24
    11b0:	b0 e0       	ldi	r27, 0x00	; 0
    11b2:	bc 5e       	subi	r27, 0xEC	; 236
    11b4:	9c 91       	ld	r25, X
    11b6:	91 93       	st	Z+, r25
    11b8:	8f 5f       	subi	r24, 0xFF	; 255
    11ba:	f7 cf       	rjmp	.-18     	; 0x11aa <EERead+0xc>
        --size;
    }
}
    11bc:	08 95       	ret

000011be <EEWrite>:
{
    uint8_t lastByteOfPage;
    while(size){
        lastByteOfPage = 0;
        while(NVMCTRL_STATUS & NVMCTRL_EEBUSY_bm);              // Wait until any write operation has finished
        CCP = CCP_SPM_gc;                                       // Gain access to NVMCTRL_CTRLA
    11be:	9d e9       	ldi	r25, 0x9D	; 157
        NVMCTRL_CTRLA = NVMCTRL_CMD_PAGEBUFCLR_gc;              // Clear page buffer
    11c0:	24 e0       	ldi	r18, 0x04	; 4
            if ((eeAddr % EEPROM_PAGE_SIZE) == (EEPROM_PAGE_SIZE-1)) lastByteOfPage = 1;
            *(uint8_t *)(EEPROM_START+eeAddr++) = *eeValues++;  // Write data to buffer
            --size;
        }
        CCP = CCP_SPM_gc;
        NVMCTRL_CTRLA = NVMCTRL_CMD_PAGEERASEWRITE_gc;          // Erase old data and write new data to EEPROM
    11c2:	33 e0       	ldi	r19, 0x03	; 3

// Write bytes to the EEPROM, if address exceeds EEPROM space data wraps around
uint8_t EEWrite(uint8_t eeAddr, uint8_t *eeValues, uint8_t size)
{
    uint8_t lastByteOfPage;
    while(size){
    11c4:	44 23       	and	r20, r20
    11c6:	09 f1       	breq	.+66     	; 0x120a <EEWrite+0x4c>
        lastByteOfPage = 0;
        while(NVMCTRL_STATUS & NVMCTRL_EEBUSY_bm);              // Wait until any write operation has finished
    11c8:	50 91 02 10 	lds	r21, 0x1002	; 0x801002 <__TEXT_REGION_LENGTH__+0x701002>
    11cc:	51 fd       	sbrc	r21, 1
    11ce:	fc cf       	rjmp	.-8      	; 0x11c8 <EEWrite+0xa>
        CCP = CCP_SPM_gc;                                       // Gain access to NVMCTRL_CTRLA
    11d0:	94 bf       	out	0x34, r25	; 52
        NVMCTRL_CTRLA = NVMCTRL_CMD_PAGEBUFCLR_gc;              // Clear page buffer
    11d2:	20 93 00 10 	sts	0x1000, r18	; 0x801000 <__TEXT_REGION_LENGTH__+0x701000>
    11d6:	e8 2f       	mov	r30, r24
        while((size) && (lastByteOfPage == 0)){
            if ((eeAddr % EEPROM_PAGE_SIZE) == (EEPROM_PAGE_SIZE-1)) lastByteOfPage = 1;
    11d8:	58 2f       	mov	r21, r24
    11da:	5f 71       	andi	r21, 0x1F	; 31
            *(uint8_t *)(EEPROM_START+eeAddr++) = *eeValues++;  // Write data to buffer
    11dc:	8f 5f       	subi	r24, 0xFF	; 255
    11de:	6f 5f       	subi	r22, 0xFF	; 255
    11e0:	7f 4f       	sbci	r23, 0xFF	; 255
    11e2:	db 01       	movw	r26, r22
    11e4:	11 97       	sbiw	r26, 0x01	; 1
    11e6:	ac 91       	ld	r26, X
    11e8:	f0 e0       	ldi	r31, 0x00	; 0
    11ea:	fc 5e       	subi	r31, 0xEC	; 236
    11ec:	a0 83       	st	Z, r26
            --size;
    11ee:	41 50       	subi	r20, 0x01	; 1
    while(size){
        lastByteOfPage = 0;
        while(NVMCTRL_STATUS & NVMCTRL_EEBUSY_bm);              // Wait until any write operation has finished
        CCP = CCP_SPM_gc;                                       // Gain access to NVMCTRL_CTRLA
        NVMCTRL_CTRLA = NVMCTRL_CMD_PAGEBUFCLR_gc;              // Clear page buffer
        while((size) && (lastByteOfPage == 0)){
    11f0:	19 f0       	breq	.+6      	; 0x11f8 <EEWrite+0x3a>
            if ((eeAddr % EEPROM_PAGE_SIZE) == (EEPROM_PAGE_SIZE-1)) lastByteOfPage = 1;
            *(uint8_t *)(EEPROM_START+eeAddr++) = *eeValues++;  // Write data to buffer
    11f2:	e8 2f       	mov	r30, r24
    while(size){
        lastByteOfPage = 0;
        while(NVMCTRL_STATUS & NVMCTRL_EEBUSY_bm);              // Wait until any write operation has finished
        CCP = CCP_SPM_gc;                                       // Gain access to NVMCTRL_CTRLA
        NVMCTRL_CTRLA = NVMCTRL_CMD_PAGEBUFCLR_gc;              // Clear page buffer
        while((size) && (lastByteOfPage == 0)){
    11f4:	5f 31       	cpi	r21, 0x1F	; 31
    11f6:	81 f7       	brne	.-32     	; 0x11d8 <EEWrite+0x1a>
            if ((eeAddr % EEPROM_PAGE_SIZE) == (EEPROM_PAGE_SIZE-1)) lastByteOfPage = 1;
            *(uint8_t *)(EEPROM_START+eeAddr++) = *eeValues++;  // Write data to buffer
            --size;
        }
        CCP = CCP_SPM_gc;
    11f8:	94 bf       	out	0x34, r25	; 52
        NVMCTRL_CTRLA = NVMCTRL_CMD_PAGEERASEWRITE_gc;          // Erase old data and write new data to EEPROM
    11fa:	30 93 00 10 	sts	0x1000, r19	; 0x801000 <__TEXT_REGION_LENGTH__+0x701000>
        if (NVMCTRL_STATUS & NVMCTRL_WRERROR_bm) return 1;
    11fe:	50 91 02 10 	lds	r21, 0x1002	; 0x801002 <__TEXT_REGION_LENGTH__+0x701002>
    1202:	52 ff       	sbrs	r21, 2
    1204:	df cf       	rjmp	.-66     	; 0x11c4 <EEWrite+0x6>
    1206:	81 e0       	ldi	r24, 0x01	; 1
    }
    return 0;
}
    1208:	08 95       	ret
        }
        CCP = CCP_SPM_gc;
        NVMCTRL_CTRLA = NVMCTRL_CMD_PAGEERASEWRITE_gc;          // Erase old data and write new data to EEPROM
        if (NVMCTRL_STATUS & NVMCTRL_WRERROR_bm) return 1;
    }
    return 0;
    120a:	80 e0       	ldi	r24, 0x00	; 0
    120c:	08 95       	ret

0000120e <SerSend>:
}

// Sends a set of characters to the serial port, stops only when character value 0 is reached.
uint8_t SerSend(unsigned char *addr){
    if (serTxDone){
    120e:	20 91 0a 38 	lds	r18, 0x380A	; 0x80380a <serTxDone>
    1212:	22 23       	and	r18, r18
    1214:	59 f0       	breq	.+22     	; 0x122c <SerSend+0x1e>
        serTxAddr = addr;
    1216:	80 93 bb 3a 	sts	0x3ABB, r24	; 0x803abb <serTxAddr>
    121a:	90 93 bc 3a 	sts	0x3ABC, r25	; 0x803abc <serTxAddr+0x1>
        serTxDone = 0;
    121e:	10 92 0a 38 	sts	0x380A, r1	; 0x80380a <serTxDone>
        TCB0_INTCTRL = 0x01;
    1222:	81 e0       	ldi	r24, 0x01	; 1
    1224:	80 93 45 0a 	sts	0x0A45, r24	; 0x800a45 <__TEXT_REGION_LENGTH__+0x700a45>
        return 0;
    1228:	80 e0       	ldi	r24, 0x00	; 0
    122a:	08 95       	ret
    } else return 1;    //Error: Still sending data
    122c:	81 e0       	ldi	r24, 0x01	; 1
};
    122e:	08 95       	ret

00001230 <SerSpeed>:

// Set serial character output speed, 255-0 (0.8 to 100ms delay between characters)
void SerSpeed(uint8_t serSpd){
    1230:	28 2f       	mov	r18, r24
    if (serSpd<1) serSpd = 1;
    1232:	81 11       	cpse	r24, r1
    1234:	01 c0       	rjmp	.+2      	; 0x1238 <SerSpeed+0x8>
    1236:	21 e0       	ldi	r18, 0x01	; 1
    TCB0_CCMP = ((uint16_t)(0xFF-serSpd)<<8) + 0xFF;
    1238:	8f ef       	ldi	r24, 0xFF	; 255
    123a:	90 e0       	ldi	r25, 0x00	; 0
    123c:	82 1b       	sub	r24, r18
    123e:	91 09       	sbc	r25, r1
    1240:	98 2f       	mov	r25, r24
    1242:	88 27       	eor	r24, r24
    1244:	81 50       	subi	r24, 0x01	; 1
    1246:	9f 4f       	sbci	r25, 0xFF	; 255
    1248:	80 93 4c 0a 	sts	0x0A4C, r24	; 0x800a4c <__TEXT_REGION_LENGTH__+0x700a4c>
    124c:	90 93 4d 0a 	sts	0x0A4D, r25	; 0x800a4d <__TEXT_REGION_LENGTH__+0x700a4d>
    1250:	08 95       	ret

00001252 <SelectTSens>:
};

// Select temperature sensor
void SelectTSens(){
     VREF_CTRLA   = 0x12;    //0x22 for audio in/out (2.5V), 0x12 for temperature in, audio out (1.1V/2.5V)
    1252:	82 e1       	ldi	r24, 0x12	; 18
    1254:	80 93 a0 00 	sts	0x00A0, r24	; 0x8000a0 <__TEXT_REGION_LENGTH__+0x7000a0>
     ADC0_CTRLA   &= ~(ADC_RESSEL_bm);
    1258:	e0 e0       	ldi	r30, 0x00	; 0
    125a:	f6 e0       	ldi	r31, 0x06	; 6
    125c:	80 81       	ld	r24, Z
    125e:	8b 7f       	andi	r24, 0xFB	; 251
    1260:	80 83       	st	Z, r24
     ADC0_MUXPOS  = 0x1E;    //Audio in: AIN7 at (0x07), Temperature: Internal sensor at (0x1E)
    1262:	8e e1       	ldi	r24, 0x1E	; 30
    1264:	80 93 06 06 	sts	0x0606, r24	; 0x800606 <__TEXT_REGION_LENGTH__+0x700606>
     adc0Chg = 3;
    1268:	83 e0       	ldi	r24, 0x03	; 3
    126a:	80 93 37 38 	sts	0x3837, r24	; 0x803837 <adc0Chg>
    126e:	08 95       	ret

00001270 <SelectAuIn>:
};

// Select "audio" input (0-2.5V)
void SelectAuIn(){
     VREF_CTRLA   = 0x22;    //0x22 for audio in/out (2.5V), 0x12 for temperature in, audio out (1.1V/2.5V)
    1270:	82 e2       	ldi	r24, 0x22	; 34
    1272:	80 93 a0 00 	sts	0x00A0, r24	; 0x8000a0 <__TEXT_REGION_LENGTH__+0x7000a0>
     ADC0_CTRLA   |= ADC_RESSEL_bm;
    1276:	e0 e0       	ldi	r30, 0x00	; 0
    1278:	f6 e0       	ldi	r31, 0x06	; 6
    127a:	80 81       	ld	r24, Z
    127c:	84 60       	ori	r24, 0x04	; 4
    127e:	80 83       	st	Z, r24
     ADC0_MUXPOS  = 0x07;    //Audio in: AIN7 at (0x07), Temperature: Internal sensor at (0x1E)
    1280:	87 e0       	ldi	r24, 0x07	; 7
    1282:	80 93 06 06 	sts	0x0606, r24	; 0x800606 <__TEXT_REGION_LENGTH__+0x700606>
     adc0Chg = 3;
    1286:	83 e0       	ldi	r24, 0x03	; 3
    1288:	80 93 37 38 	sts	0x3837, r24	; 0x803837 <adc0Chg>
    128c:	08 95       	ret

0000128e <CheckButtons>:
};

// Returns button combination (4LSB) and number of consecutive times this combination is detected. First read should always be ignored! 
uint8_t CheckButtons(uint8_t previousValue){
    uint8_t bADC = (uint8_t)(adcBtns>>4);
    128e:	20 91 b9 3a 	lds	r18, 0x3AB9	; 0x803ab9 <adcBtns>
    1292:	30 91 ba 3a 	lds	r19, 0x3ABA	; 0x803aba <adcBtns+0x1>
    uint8_t bNibble = 0x0F;     //MSB to LSB: Bottom left, top left, top right, bottom right, 0F is error
    
    switch(bADC){
    1296:	94 e0       	ldi	r25, 0x04	; 4
    1298:	36 95       	lsr	r19
    129a:	27 95       	ror	r18
    129c:	9a 95       	dec	r25
    129e:	e1 f7       	brne	.-8      	; 0x1298 <CheckButtons+0xa>
    12a0:	33 27       	eor	r19, r19
    12a2:	2c 35       	cpi	r18, 0x5C	; 92
    12a4:	31 05       	cpc	r19, r1
    12a6:	d0 f4       	brcc	.+52     	; 0x12dc <CheckButtons+0x4e>
    12a8:	23 35       	cpi	r18, 0x53	; 83
    12aa:	31 05       	cpc	r19, r1
    12ac:	a8 f5       	brcc	.+106    	; 0x1318 <CheckButtons+0x8a>
    12ae:	22 33       	cpi	r18, 0x32	; 50
    12b0:	31 05       	cpc	r19, r1
    12b2:	50 f4       	brcc	.+20     	; 0x12c8 <CheckButtons+0x3a>
    12b4:	2d 32       	cpi	r18, 0x2D	; 45
    12b6:	31 05       	cpc	r19, r1
    12b8:	58 f5       	brcc	.+86     	; 0x1310 <CheckButtons+0x82>
    12ba:	23 52       	subi	r18, 0x23	; 35
    12bc:	31 09       	sbc	r19, r1
    12be:	25 30       	cpi	r18, 0x05	; 5
    12c0:	31 05       	cpc	r19, r1
    12c2:	80 f5       	brcc	.+96     	; 0x1324 <CheckButtons+0x96>

        case 35 ... 39:          //37: Both left
        bNibble = 0b1100;
    12c4:	9c e0       	ldi	r25, 0x0C	; 12
    12c6:	2f c0       	rjmp	.+94     	; 0x1326 <CheckButtons+0x98>
// Returns button combination (4LSB) and number of consecutive times this combination is detected. First read should always be ignored! 
uint8_t CheckButtons(uint8_t previousValue){
    uint8_t bADC = (uint8_t)(adcBtns>>4);
    uint8_t bNibble = 0x0F;     //MSB to LSB: Bottom left, top left, top right, bottom right, 0F is error
    
    switch(bADC){
    12c8:	27 33       	cpi	r18, 0x37	; 55
    12ca:	31 05       	cpc	r19, r1
    12cc:	18 f1       	brcs	.+70     	; 0x1314 <CheckButtons+0x86>
    12ce:	2e 53       	subi	r18, 0x3E	; 62
    12d0:	31 09       	sbc	r19, r1
    12d2:	27 30       	cpi	r18, 0x07	; 7
    12d4:	31 05       	cpc	r19, r1
    12d6:	30 f5       	brcc	.+76     	; 0x1324 <CheckButtons+0x96>
        case 50 ... 54:          //52: Bottom left
        bNibble = 0b1000;
        break;

        case 62 ... 68:          //65: Both top
        bNibble = 0b0110;
    12d8:	96 e0       	ldi	r25, 0x06	; 6
        break;
    12da:	25 c0       	rjmp	.+74     	; 0x1326 <CheckButtons+0x98>
// Returns button combination (4LSB) and number of consecutive times this combination is detected. First read should always be ignored! 
uint8_t CheckButtons(uint8_t previousValue){
    uint8_t bADC = (uint8_t)(adcBtns>>4);
    uint8_t bNibble = 0x0F;     //MSB to LSB: Bottom left, top left, top right, bottom right, 0F is error
    
    switch(bADC){
    12dc:	2a 38       	cpi	r18, 0x8A	; 138
    12de:	31 05       	cpc	r19, r1
    12e0:	50 f4       	brcc	.+20     	; 0x12f6 <CheckButtons+0x68>
    12e2:	29 37       	cpi	r18, 0x79	; 121
    12e4:	31 05       	cpc	r19, r1
    12e6:	d0 f4       	brcc	.+52     	; 0x131c <CheckButtons+0x8e>
    12e8:	23 56       	subi	r18, 0x63	; 99
    12ea:	31 09       	sbc	r19, r1
    12ec:	2b 30       	cpi	r18, 0x0B	; 11
    12ee:	31 05       	cpc	r19, r1
    12f0:	c8 f4       	brcc	.+50     	; 0x1324 <CheckButtons+0x96>
        case 83 ... 91:          //87: Top left
        bNibble = 0b0100;
        break;

        case 99 ... 109:         //104: Both right
        bNibble = 0b0011;
    12f2:	93 e0       	ldi	r25, 0x03	; 3
        break;
    12f4:	18 c0       	rjmp	.+48     	; 0x1326 <CheckButtons+0x98>
// Returns button combination (4LSB) and number of consecutive times this combination is detected. First read should always be ignored! 
uint8_t CheckButtons(uint8_t previousValue){
    uint8_t bADC = (uint8_t)(adcBtns>>4);
    uint8_t bNibble = 0x0F;     //MSB to LSB: Bottom left, top left, top right, bottom right, 0F is error
    
    switch(bADC){
    12f6:	22 3a       	cpi	r18, 0xA2	; 162
    12f8:	31 05       	cpc	r19, r1
    12fa:	a0 f0       	brcs	.+40     	; 0x1324 <CheckButtons+0x96>
    12fc:	2b 3b       	cpi	r18, 0xBB	; 187
    12fe:	31 05       	cpc	r19, r1
    1300:	78 f0       	brcs	.+30     	; 0x1320 <CheckButtons+0x92>
    1302:	20 5f       	subi	r18, 0xF0	; 240
    1304:	31 09       	sbc	r19, r1
    1306:	20 31       	cpi	r18, 0x10	; 16
    1308:	31 05       	cpc	r19, r1
    130a:	60 f4       	brcc	.+24     	; 0x1324 <CheckButtons+0x96>
        case 162 ... 186:        //174: Bottom right
        bNibble = 0b0001;
        break;

        case 240 ... 255:        //255: No button pressed
        bNibble = 0b0000;
    130c:	90 e0       	ldi	r25, 0x00	; 0
        break;
    130e:	0b c0       	rjmp	.+22     	; 0x1326 <CheckButtons+0x98>
        case 35 ... 39:          //37: Both left
        bNibble = 0b1100;
        break;

        case 45 ... 49:          //47: Both bottom
        bNibble = 0b1001;
    1310:	99 e0       	ldi	r25, 0x09	; 9
        break;
    1312:	09 c0       	rjmp	.+18     	; 0x1326 <CheckButtons+0x98>

        case 50 ... 54:          //52: Bottom left
        bNibble = 0b1000;
    1314:	98 e0       	ldi	r25, 0x08	; 8
        break;
    1316:	07 c0       	rjmp	.+14     	; 0x1326 <CheckButtons+0x98>
        case 62 ... 68:          //65: Both top
        bNibble = 0b0110;
        break;

        case 83 ... 91:          //87: Top left
        bNibble = 0b0100;
    1318:	94 e0       	ldi	r25, 0x04	; 4
        break;
    131a:	05 c0       	rjmp	.+10     	; 0x1326 <CheckButtons+0x98>
        case 99 ... 109:         //104: Both right
        bNibble = 0b0011;
        break;

        case 121 ... 137:        //129: Top right
        bNibble = 0b0010;
    131c:	92 e0       	ldi	r25, 0x02	; 2
        break;
    131e:	03 c0       	rjmp	.+6      	; 0x1326 <CheckButtons+0x98>

        case 162 ... 186:        //174: Bottom right
        bNibble = 0b0001;
    1320:	91 e0       	ldi	r25, 0x01	; 1
        break;
    1322:	01 c0       	rjmp	.+2      	; 0x1326 <CheckButtons+0x98>
};

// Returns button combination (4LSB) and number of consecutive times this combination is detected. First read should always be ignored! 
uint8_t CheckButtons(uint8_t previousValue){
    uint8_t bADC = (uint8_t)(adcBtns>>4);
    uint8_t bNibble = 0x0F;     //MSB to LSB: Bottom left, top left, top right, bottom right, 0F is error
    1324:	9f e0       	ldi	r25, 0x0F	; 15
        case 240 ... 255:        //255: No button pressed
        bNibble = 0b0000;
        break;
    }

    if ((previousValue&0x0F)==bNibble){
    1326:	28 2f       	mov	r18, r24
    1328:	2f 70       	andi	r18, 0x0F	; 15
    132a:	92 13       	cpse	r25, r18
    132c:	06 c0       	rjmp	.+12     	; 0x133a <CheckButtons+0xac>
        if ((previousValue&0xF0) < 0xF0) previousValue += 0x10; //Same value? Increase time nibble
    132e:	98 2f       	mov	r25, r24
    1330:	90 7f       	andi	r25, 0xF0	; 240
    1332:	90 3f       	cpi	r25, 0xF0	; 240
    1334:	39 f0       	breq	.+14     	; 0x1344 <CheckButtons+0xb6>
    1336:	80 5f       	subi	r24, 0xF0	; 240
    1338:	08 95       	ret
        return previousValue;       
    } else if (bNibble == 0) return 0xFF; //Buttons released, 0xFF triggers readout, previousValue holds last button value.
    133a:	99 23       	and	r25, r25
    133c:	11 f0       	breq	.+4      	; 0x1342 <CheckButtons+0xb4>
    133e:	89 2f       	mov	r24, r25
    1340:	08 95       	ret
    1342:	8f ef       	ldi	r24, 0xFF	; 255
              else return bNibble;  //New value  
}
    1344:	08 95       	ret

00001346 <lfsr>:

uint8_t lfsr(){
    static uint16_t state = 0xd401;
    state ^= (state << 13);
    1346:	80 91 21 38 	lds	r24, 0x3821	; 0x803821 <state.3893>
    134a:	90 91 22 38 	lds	r25, 0x3822	; 0x803822 <state.3893+0x1>
    134e:	9c 01       	movw	r18, r24
    1350:	32 2f       	mov	r19, r18
    1352:	22 27       	eor	r18, r18
    1354:	32 95       	swap	r19
    1356:	33 0f       	add	r19, r19
    1358:	30 7e       	andi	r19, 0xE0	; 224
    135a:	82 27       	eor	r24, r18
    135c:	93 27       	eor	r25, r19
    state ^= (state >> 9);
    135e:	9c 01       	movw	r18, r24
    1360:	23 2f       	mov	r18, r19
    1362:	33 27       	eor	r19, r19
    1364:	26 95       	lsr	r18
    1366:	82 27       	eor	r24, r18
    1368:	93 27       	eor	r25, r19
    state ^= (state << 7);
    136a:	9c 01       	movw	r18, r24
    136c:	36 95       	lsr	r19
    136e:	32 2f       	mov	r19, r18
    1370:	22 27       	eor	r18, r18
    1372:	37 95       	ror	r19
    1374:	27 95       	ror	r18
    1376:	82 27       	eor	r24, r18
    1378:	93 27       	eor	r25, r19
    137a:	80 93 21 38 	sts	0x3821, r24	; 0x803821 <state.3893>
    137e:	90 93 22 38 	sts	0x3822, r25	; 0x803822 <state.3893+0x1>
    return (state & 0xff);
}
    1382:	08 95       	ret

00001384 <floatSpeed>:

void floatSpeed(uint8_t bits, uint16_t min, uint16_t max){
    1384:	df 92       	push	r13
    1386:	ef 92       	push	r14
    1388:	ff 92       	push	r15
    138a:	0f 93       	push	r16
    138c:	1f 93       	push	r17
    138e:	cf 93       	push	r28
    1390:	df 93       	push	r29
    1392:	7b 01       	movw	r14, r22
    1394:	8a 01       	movw	r16, r20
    uint16_t val = TCB1_CCMP;
    1396:	c0 91 5c 0a 	lds	r28, 0x0A5C	; 0x800a5c <__TEXT_REGION_LENGTH__+0x700a5c>
    139a:	d0 91 5d 0a 	lds	r29, 0x0A5D	; 0x800a5d <__TEXT_REGION_LENGTH__+0x700a5d>
    bits = mask[(bits-1)&0x07];
    139e:	e8 2f       	mov	r30, r24
    13a0:	f0 e0       	ldi	r31, 0x00	; 0
    13a2:	31 97       	sbiw	r30, 0x01	; 1
    13a4:	e7 70       	andi	r30, 0x07	; 7
    13a6:	ff 27       	eor	r31, r31
    13a8:	ed 5d       	subi	r30, 0xDD	; 221
    13aa:	f7 4c       	sbci	r31, 0xC7	; 199
    13ac:	d0 80       	ld	r13, Z
    val += (lfsr()&bits);
    13ae:	cb df       	rcall	.-106    	; 0x1346 <lfsr>
    13b0:	8d 21       	and	r24, r13
    13b2:	c8 0f       	add	r28, r24
    13b4:	d1 1d       	adc	r29, r1
    val -= (lfsr()&bits);
    13b6:	c7 df       	rcall	.-114    	; 0x1346 <lfsr>
    13b8:	8d 21       	and	r24, r13
    13ba:	c8 1b       	sub	r28, r24
    13bc:	d1 09       	sbc	r29, r1
    13be:	0c 17       	cp	r16, r28
    13c0:	1d 07       	cpc	r17, r29
    13c2:	08 f4       	brcc	.+2      	; 0x13c6 <floatSpeed+0x42>
    13c4:	e8 01       	movw	r28, r16
    13c6:	c7 01       	movw	r24, r14
    13c8:	ec 16       	cp	r14, r28
    13ca:	fd 06       	cpc	r15, r29
    13cc:	08 f4       	brcc	.+2      	; 0x13d0 <floatSpeed+0x4c>
    13ce:	ce 01       	movw	r24, r28
    13d0:	80 93 5c 0a 	sts	0x0A5C, r24	; 0x800a5c <__TEXT_REGION_LENGTH__+0x700a5c>
    if (val > max) val = max;    
    if (val < min) val = min;  
    TCB1_CCMP = val;
    13d4:	90 93 5d 0a 	sts	0x0A5D, r25	; 0x800a5d <__TEXT_REGION_LENGTH__+0x700a5d>
    13d8:	df 91       	pop	r29
}
    13da:	cf 91       	pop	r28
    13dc:	1f 91       	pop	r17
    13de:	0f 91       	pop	r16
    13e0:	ff 90       	pop	r15
    13e2:	ef 90       	pop	r14
    13e4:	df 90       	pop	r13
    13e6:	08 95       	ret

000013e8 <floatAround>:
    13e8:	0f 93       	push	r16

uint8_t floatAround(uint8_t sample, uint8_t bits, uint8_t min, uint8_t max){
    13ea:	1f 93       	push	r17
    13ec:	cf 93       	push	r28
    13ee:	df 93       	push	r29
    13f0:	c8 2f       	mov	r28, r24
    13f2:	d4 2f       	mov	r29, r20
    13f4:	02 2f       	mov	r16, r18
    bits = mask[(bits-1)&0x07];
    13f6:	e6 2f       	mov	r30, r22
    13f8:	f0 e0       	ldi	r31, 0x00	; 0
    13fa:	31 97       	sbiw	r30, 0x01	; 1
    13fc:	e7 70       	andi	r30, 0x07	; 7
    13fe:	ff 27       	eor	r31, r31
    1400:	ed 5d       	subi	r30, 0xDD	; 221
    1402:	f7 4c       	sbci	r31, 0xC7	; 199
    1404:	10 81       	ld	r17, Z
    sample += lfsr()&bits;
    1406:	9f df       	rcall	.-194    	; 0x1346 <lfsr>
    1408:	81 23       	and	r24, r17
    140a:	c8 0f       	add	r28, r24
    sample -= lfsr()&bits;
    140c:	9c df       	rcall	.-200    	; 0x1346 <lfsr>
    140e:	81 23       	and	r24, r17
    1410:	c8 1b       	sub	r28, r24
    1412:	8c 2f       	mov	r24, r28
    1414:	00 23       	and	r16, r16
    if (max){
    1416:	41 f0       	breq	.+16     	; 0x1428 <floatAround+0x40>
    1418:	9c 2f       	mov	r25, r28
    141a:	0c 17       	cp	r16, r28
    141c:	08 f4       	brcc	.+2      	; 0x1420 <floatAround+0x38>
    141e:	90 2f       	mov	r25, r16
    1420:	8d 2f       	mov	r24, r29
    1422:	d9 17       	cp	r29, r25
    1424:	08 f4       	brcc	.+2      	; 0x1428 <floatAround+0x40>
    1426:	89 2f       	mov	r24, r25
    1428:	41 e0       	ldi	r20, 0x01	; 1
        if (sample > max) sample = max;
        if (sample < min) sample = min;
    }
    if (min & (sample < min)) sample = min;
    142a:	50 e0       	ldi	r21, 0x00	; 0
    142c:	8d 17       	cp	r24, r29
    142e:	10 f0       	brcs	.+4      	; 0x1434 <floatAround+0x4c>
    1430:	40 e0       	ldi	r20, 0x00	; 0
    1432:	50 e0       	ldi	r21, 0x00	; 0
    1434:	2d 2f       	mov	r18, r29
    1436:	30 e0       	ldi	r19, 0x00	; 0
    1438:	24 23       	and	r18, r20
    143a:	35 23       	and	r19, r21
    143c:	23 2b       	or	r18, r19
    143e:	09 f0       	breq	.+2      	; 0x1442 <floatAround+0x5a>
    1440:	8d 2f       	mov	r24, r29
    1442:	df 91       	pop	r29

    return sample;
}
    1444:	cf 91       	pop	r28
    1446:	1f 91       	pop	r17
    1448:	0f 91       	pop	r16
    144a:	08 95       	ret

0000144c <SaveGameState>:
    144c:	cf 92       	push	r12
    inventory[0] = (gameState[INVADDR]<<8|gameState[INVADDR+1]);
    inventory[1] = (gameState[INVADDR+2]<<8|gameState[INVADDR+3]);
}

//Save changed data to EEPROM
uint8_t SaveGameState(){
    144e:	df 92       	push	r13
    1450:	ff 92       	push	r15
    1452:	0f 93       	push	r16
    1454:	1f 93       	push	r17
    1456:	cf 93       	push	r28
    1458:	df 93       	push	r29
    145a:	cd b7       	in	r28, 0x3d	; 61
    145c:	de b7       	in	r29, 0x3e	; 62
    145e:	64 97       	sbiw	r28, 0x14	; 20
    1460:	cd bf       	out	0x3d, r28	; 61
    1462:	de bf       	out	0x3e, r29	; 62
    uint8_t gameCheck[BOOTCHK];

    //Read all data up to the boot/check result address from EEPROM
    EERead(0, &gameCheck[0], BOOTCHK);
    1464:	44 e1       	ldi	r20, 0x14	; 20
    1466:	be 01       	movw	r22, r28
    1468:	6f 5f       	subi	r22, 0xFF	; 255
    146a:	7f 4f       	sbci	r23, 0xFF	; 255
    146c:	80 e0       	ldi	r24, 0x00	; 0
    146e:	97 de       	rcall	.-722    	; 0x119e <EERead>
    1470:	83 e6       	ldi	r24, 0x63	; 99
    1472:	c8 2e       	mov	r12, r24
    1474:	8a e3       	ldi	r24, 0x3A	; 58
    1476:	d8 2e       	mov	r13, r24
    1478:	8e 01       	movw	r16, r28
    147a:	0f 5f       	subi	r16, 0xFF	; 255
    147c:	1f 4f       	sbci	r17, 0xFF	; 255

    //Check game status bits
    for (uint8_t x=0; x<STATLEN; ++x){
    147e:	f1 2c       	mov	r15, r1
        if (gameState[x] != gameCheck[x]){
    1480:	f8 01       	movw	r30, r16
    1482:	81 91       	ld	r24, Z+
    1484:	8f 01       	movw	r16, r30
    1486:	f6 01       	movw	r30, r12
    1488:	90 81       	ld	r25, Z
    148a:	98 13       	cpse	r25, r24
    148c:	08 c0       	rjmp	.+16     	; 0x149e <SaveGameState+0x52>

    //Read all data up to the boot/check result address from EEPROM
    EERead(0, &gameCheck[0], BOOTCHK);

    //Check game status bits
    for (uint8_t x=0; x<STATLEN; ++x){
    148e:	f3 94       	inc	r15
    1490:	ff ef       	ldi	r31, 0xFF	; 255
    1492:	cf 1a       	sub	r12, r31
    1494:	df 0a       	sbc	r13, r31
    1496:	80 e1       	ldi	r24, 0x10	; 16
    1498:	f8 12       	cpse	r15, r24
    149a:	f2 cf       	rjmp	.-28     	; 0x1480 <SaveGameState+0x34>
    149c:	08 c0       	rjmp	.+16     	; 0x14ae <SaveGameState+0x62>
        if (gameState[x] != gameCheck[x]){
            if (EEWrite(x, &gameState[x], 1)) return 1;
    149e:	41 e0       	ldi	r20, 0x01	; 1
    14a0:	b6 01       	movw	r22, r12
    14a2:	8f 2d       	mov	r24, r15
    14a4:	8c de       	rcall	.-744    	; 0x11be <EEWrite>
    14a6:	88 23       	and	r24, r24
    14a8:	91 f3       	breq	.-28     	; 0x148e <SaveGameState+0x42>
    14aa:	91 e0       	ldi	r25, 0x01	; 1
    14ac:	36 c0       	rjmp	.+108    	; 0x151a <SaveGameState+0xce>
        }
    }

    //Check the inventory too
    gameState[INVADDR] = (uint8_t)(inventory[0]>>8);
    14ae:	20 91 3e 38 	lds	r18, 0x383E	; 0x80383e <inventory>
    14b2:	30 91 3f 38 	lds	r19, 0x383F	; 0x80383f <inventory+0x1>
    14b6:	30 93 73 3a 	sts	0x3A73, r19	; 0x803a73 <gameState+0x10>
    gameState[INVADDR+1] = (uint8_t)(inventory[0]&0xff);
    14ba:	20 93 74 3a 	sts	0x3A74, r18	; 0x803a74 <gameState+0x11>
    gameState[INVADDR+2] = (uint8_t)(inventory[1]>>8);
    14be:	80 91 40 38 	lds	r24, 0x3840	; 0x803840 <inventory+0x2>
    14c2:	90 91 41 38 	lds	r25, 0x3841	; 0x803841 <inventory+0x3>
    14c6:	90 93 75 3a 	sts	0x3A75, r25	; 0x803a75 <gameState+0x12>
    gameState[INVADDR+3] = (uint8_t)(inventory[1]&0xff);
    14ca:	80 93 76 3a 	sts	0x3A76, r24	; 0x803a76 <gameState+0x13>
    if (inventory[0] != (gameCheck[INVADDR]<<8|gameCheck[INVADDR+1])) {
    14ce:	89 89       	ldd	r24, Y+17	; 0x11
    14d0:	9a 89       	ldd	r25, Y+18	; 0x12
    14d2:	98 27       	eor	r25, r24
    14d4:	89 27       	eor	r24, r25
    14d6:	98 27       	eor	r25, r24
    14d8:	28 17       	cp	r18, r24
    14da:	39 07       	cpc	r19, r25
    14dc:	69 f4       	brne	.+26     	; 0x14f8 <SaveGameState+0xac>
        if (EEWrite(INVADDR, &gameState[INVADDR], 2)) return 1;
    }
    if (inventory[1] != (gameCheck[INVADDR+2]<<8|gameCheck[INVADDR+3])) {
    14de:	8b 89       	ldd	r24, Y+19	; 0x13
    14e0:	9c 89       	ldd	r25, Y+20	; 0x14
    14e2:	98 27       	eor	r25, r24
    14e4:	89 27       	eor	r24, r25
    14e6:	98 27       	eor	r25, r24
    14e8:	20 91 40 38 	lds	r18, 0x3840	; 0x803840 <inventory+0x2>
    14ec:	30 91 41 38 	lds	r19, 0x3841	; 0x803841 <inventory+0x3>
    14f0:	28 17       	cp	r18, r24
    14f2:	39 07       	cpc	r19, r25
    14f4:	49 f4       	brne	.+18     	; 0x1508 <SaveGameState+0xbc>
    14f6:	10 c0       	rjmp	.+32     	; 0x1518 <SaveGameState+0xcc>
    gameState[INVADDR] = (uint8_t)(inventory[0]>>8);
    gameState[INVADDR+1] = (uint8_t)(inventory[0]&0xff);
    gameState[INVADDR+2] = (uint8_t)(inventory[1]>>8);
    gameState[INVADDR+3] = (uint8_t)(inventory[1]&0xff);
    if (inventory[0] != (gameCheck[INVADDR]<<8|gameCheck[INVADDR+1])) {
        if (EEWrite(INVADDR, &gameState[INVADDR], 2)) return 1;
    14f8:	42 e0       	ldi	r20, 0x02	; 2
    14fa:	63 e7       	ldi	r22, 0x73	; 115
    14fc:	7a e3       	ldi	r23, 0x3A	; 58
    14fe:	80 e1       	ldi	r24, 0x10	; 16
    1500:	5e de       	rcall	.-836    	; 0x11be <EEWrite>
    1502:	88 23       	and	r24, r24
    1504:	61 f3       	breq	.-40     	; 0x14de <SaveGameState+0x92>
    1506:	d1 cf       	rjmp	.-94     	; 0x14aa <SaveGameState+0x5e>
    }
    if (inventory[1] != (gameCheck[INVADDR+2]<<8|gameCheck[INVADDR+3])) {
        if (EEWrite(INVADDR+2, &gameState[INVADDR+2], 2)) return 1;
    1508:	42 e0       	ldi	r20, 0x02	; 2
    150a:	65 e7       	ldi	r22, 0x75	; 117
    150c:	7a e3       	ldi	r23, 0x3A	; 58
    150e:	82 e1       	ldi	r24, 0x12	; 18
    1510:	56 de       	rcall	.-852    	; 0x11be <EEWrite>
    EERead(0, &gameCheck[0], BOOTCHK);

    //Check game status bits
    for (uint8_t x=0; x<STATLEN; ++x){
        if (gameState[x] != gameCheck[x]){
            if (EEWrite(x, &gameState[x], 1)) return 1;
    1512:	91 e0       	ldi	r25, 0x01	; 1
    1514:	81 11       	cpse	r24, r1
    1516:	01 c0       	rjmp	.+2      	; 0x151a <SaveGameState+0xce>
    1518:	90 e0       	ldi	r25, 0x00	; 0
    if (inventory[1] != (gameCheck[INVADDR+2]<<8|gameCheck[INVADDR+3])) {
        if (EEWrite(INVADDR+2, &gameState[INVADDR+2], 2)) return 1;
    }

    return 0;
}
    151a:	89 2f       	mov	r24, r25
    151c:	64 96       	adiw	r28, 0x14	; 20
    151e:	cd bf       	out	0x3d, r28	; 61
    1520:	de bf       	out	0x3e, r29	; 62
    1522:	df 91       	pop	r29
    1524:	cf 91       	pop	r28
    1526:	1f 91       	pop	r17
    1528:	0f 91       	pop	r16
    152a:	ff 90       	pop	r15
    152c:	df 90       	pop	r13
    152e:	cf 90       	pop	r12
    1530:	08 95       	ret

00001532 <ReadStatusBit>:

uint8_t ReadStatusBit(uint8_t number){
    number &= 0x7f;
    if (gameState[number>>3] & (1<<(number&7))) return 1; else return 0;
    1532:	e8 2f       	mov	r30, r24
    1534:	ef 77       	andi	r30, 0x7F	; 127
    1536:	e6 95       	lsr	r30
    1538:	e6 95       	lsr	r30
    153a:	e6 95       	lsr	r30
    153c:	f0 e0       	ldi	r31, 0x00	; 0
    153e:	ed 59       	subi	r30, 0x9D	; 157
    1540:	f5 4c       	sbci	r31, 0xC5	; 197
    1542:	20 81       	ld	r18, Z
    1544:	30 e0       	ldi	r19, 0x00	; 0
    1546:	87 70       	andi	r24, 0x07	; 7
    1548:	a9 01       	movw	r20, r18
    154a:	02 c0       	rjmp	.+4      	; 0x1550 <ReadStatusBit+0x1e>
    154c:	55 95       	asr	r21
    154e:	47 95       	ror	r20
    1550:	8a 95       	dec	r24
    1552:	e2 f7       	brpl	.-8      	; 0x154c <ReadStatusBit+0x1a>
    1554:	ca 01       	movw	r24, r20
}
    1556:	81 70       	andi	r24, 0x01	; 1
    1558:	08 95       	ret

0000155a <WriteStatusBit>:

void WriteStatusBit(uint8_t number, uint8_t state){
    number &= 0x7f;
    155a:	e8 2f       	mov	r30, r24
    155c:	ef 77       	andi	r30, 0x7F	; 127
    155e:	e6 95       	lsr	r30
    1560:	e6 95       	lsr	r30
    1562:	e6 95       	lsr	r30
    1564:	28 2f       	mov	r18, r24
    1566:	27 70       	andi	r18, 0x07	; 7
    if (state) gameState[number>>3] |= 1<<(number&7);
    1568:	f0 e0       	ldi	r31, 0x00	; 0
    156a:	ed 59       	subi	r30, 0x9D	; 157
    156c:	f5 4c       	sbci	r31, 0xC5	; 197
    156e:	81 e0       	ldi	r24, 0x01	; 1
    1570:	90 e0       	ldi	r25, 0x00	; 0
    1572:	01 c0       	rjmp	.+2      	; 0x1576 <WriteStatusBit+0x1c>
    1574:	88 0f       	add	r24, r24
    1576:	2a 95       	dec	r18
    1578:	ea f7       	brpl	.-6      	; 0x1574 <WriteStatusBit+0x1a>
    157a:	66 23       	and	r22, r22
    157c:	19 f0       	breq	.+6      	; 0x1584 <WriteStatusBit+0x2a>
    157e:	90 81       	ld	r25, Z
    1580:	89 2b       	or	r24, r25
    1582:	03 c0       	rjmp	.+6      	; 0x158a <WriteStatusBit+0x30>
    else gameState[number>>3] &= ~(1<<(number&7));
    1584:	80 95       	com	r24
    1586:	90 81       	ld	r25, Z
    1588:	89 23       	and	r24, r25
    158a:	80 83       	st	Z, r24
    158c:	08 95       	ret

0000158e <UpdateState>:
}

//Update game state: num -> vBBBBbbb v=value(0 is set!), BBBB=Byte number, bbb=bit number
void UpdateState(uint8_t num){
    158e:	98 2f       	mov	r25, r24
    uint8_t clearBit = num & 0x80;
    num &= 0x7f;
    1590:	8f 77       	andi	r24, 0x7F	; 127
    if (num) {
    1592:	31 f0       	breq	.+12     	; 0x15a0 <UpdateState+0x12>
        if (clearBit) {
    1594:	97 ff       	sbrs	r25, 7
    1596:	02 c0       	rjmp	.+4      	; 0x159c <UpdateState+0xe>
            WriteStatusBit(num, 0);
    1598:	60 e0       	ldi	r22, 0x00	; 0
    159a:	01 c0       	rjmp	.+2      	; 0x159e <UpdateState+0x10>
        } else {
            WriteStatusBit(num, 1);
    159c:	61 e0       	ldi	r22, 0x01	; 1
    159e:	dd cf       	rjmp	.-70     	; 0x155a <WriteStatusBit>
    15a0:	08 95       	ret

000015a2 <CheckState>:
        }
    }
}

//Checks if state of bit BBBBbbb matches with v (inverted) bit
uint8_t CheckState(uint8_t num){
    15a2:	cf 93       	push	r28
    15a4:	c8 2f       	mov	r28, r24
    uint8_t bitSet = 0;
    if (ReadStatusBit(num & 0x7f)){
    15a6:	8f 77       	andi	r24, 0x7F	; 127
    15a8:	c4 df       	rcall	.-120    	; 0x1532 <ReadStatusBit>
    15aa:	2c 2f       	mov	r18, r28
    15ac:	22 1f       	adc	r18, r18
    15ae:	22 27       	eor	r18, r18
    15b0:	22 1f       	adc	r18, r18
    15b2:	91 e0       	ldi	r25, 0x01	; 1
    15b4:	81 11       	cpse	r24, r1
    15b6:	01 c0       	rjmp	.+2      	; 0x15ba <CheckState+0x18>
    15b8:	90 e0       	ldi	r25, 0x00	; 0
    }
    if (((num & 0x80)>0)^(bitSet>0)){
        return 1;
    }
    return 0;
}
    15ba:	82 2f       	mov	r24, r18
    15bc:	89 27       	eor	r24, r25
    15be:	cf 91       	pop	r28
    15c0:	08 95       	ret

000015c2 <getID>:

//Give out a number 0..3, calculated using serial number fields
uint8_t getID(){
    uint8_t id = 0;
    uint8_t *serNum;
    serNum = (uint8_t*)&SIGROW_SERNUM0;
    15c2:	e3 e0       	ldi	r30, 0x03	; 3
    15c4:	f1 e1       	ldi	r31, 0x11	; 17
    return 0;
}

//Give out a number 0..3, calculated using serial number fields
uint8_t getID(){
    uint8_t id = 0;
    15c6:	80 e0       	ldi	r24, 0x00	; 0
    uint8_t *serNum;
    serNum = (uint8_t*)&SIGROW_SERNUM0;

    for (uint8_t x=0; x<10; ++x){
        id += *serNum;
    15c8:	91 91       	ld	r25, Z+
    15ca:	89 0f       	add	r24, r25
uint8_t getID(){
    uint8_t id = 0;
    uint8_t *serNum;
    serNum = (uint8_t*)&SIGROW_SERNUM0;

    for (uint8_t x=0; x<10; ++x){
    15cc:	ed 30       	cpi	r30, 0x0D	; 13
    15ce:	91 e1       	ldi	r25, 0x11	; 17
    15d0:	f9 07       	cpc	r31, r25
    15d2:	d1 f7       	brne	.-12     	; 0x15c8 <getID+0x6>
        id += *serNum;
        ++serNum;
    }
    id %= 4;
    whoami = id+1;
    15d4:	83 70       	andi	r24, 0x03	; 3
    15d6:	8f 5f       	subi	r24, 0xFF	; 255
    15d8:	80 93 3d 38 	sts	0x383D, r24	; 0x80383d <whoami>
    return whoami;
}
    15dc:	08 95       	ret

000015de <Reset>:

void Reset(){
    15de:	e3 e6       	ldi	r30, 0x63	; 99
    15e0:	fa e3       	ldi	r31, 0x3A	; 58
    //# 110   set to 1 by FW if badge UUID mod 4 == 0
    //# 111   set to 1 by FW if badge UUID mod 4 == 1
    //# 112   set to 1 by FW if badge UUID mod 4 == 2
    //# 113   set to 1 by FW if badge UUID mod 4 == 3
    for (uint8_t x=0; x<sizeof(gameState); ++x){
        gameState[x] = 0;
    15e2:	11 92       	st	Z+, r1
    //Reset game progress (all zeroes) and load some bits:
    //# 110   set to 1 by FW if badge UUID mod 4 == 0
    //# 111   set to 1 by FW if badge UUID mod 4 == 1
    //# 112   set to 1 by FW if badge UUID mod 4 == 2
    //# 113   set to 1 by FW if badge UUID mod 4 == 3
    for (uint8_t x=0; x<sizeof(gameState); ++x){
    15e4:	8a e3       	ldi	r24, 0x3A	; 58
    15e6:	e7 37       	cpi	r30, 0x77	; 119
    15e8:	f8 07       	cpc	r31, r24
    15ea:	d9 f7       	brne	.-10     	; 0x15e2 <Reset+0x4>
        gameState[x] = 0;
    }

    uint8_t id = getID();
    15ec:	ea df       	rcall	.-44     	; 0x15c2 <getID>

    //Write bit in gameState location 110..113
    if (id == 0) WriteStatusBit(110, 1);
    15ee:	81 11       	cpse	r24, r1
    15f0:	04 c0       	rjmp	.+8      	; 0x15fa <Reset+0x1c>
    if (gameState[number>>3] & (1<<(number&7))) return 1; else return 0;
}

void WriteStatusBit(uint8_t number, uint8_t state){
    number &= 0x7f;
    if (state) gameState[number>>3] |= 1<<(number&7);
    15f2:	80 91 70 3a 	lds	r24, 0x3A70	; 0x803a70 <gameState+0xd>
    15f6:	80 64       	ori	r24, 0x40	; 64
    15f8:	05 c0       	rjmp	.+10     	; 0x1604 <Reset+0x26>

    uint8_t id = getID();

    //Write bit in gameState location 110..113
    if (id == 0) WriteStatusBit(110, 1);
    else if (id == 1) WriteStatusBit(111, 1);
    15fa:	81 30       	cpi	r24, 0x01	; 1
    15fc:	31 f4       	brne	.+12     	; 0x160a <Reset+0x2c>
    if (gameState[number>>3] & (1<<(number&7))) return 1; else return 0;
}

void WriteStatusBit(uint8_t number, uint8_t state){
    number &= 0x7f;
    if (state) gameState[number>>3] |= 1<<(number&7);
    15fe:	80 91 70 3a 	lds	r24, 0x3A70	; 0x803a70 <gameState+0xd>
    1602:	80 68       	ori	r24, 0x80	; 128
    1604:	80 93 70 3a 	sts	0x3A70, r24	; 0x803a70 <gameState+0xd>
    1608:	0d c0       	rjmp	.+26     	; 0x1624 <Reset+0x46>
    uint8_t id = getID();

    //Write bit in gameState location 110..113
    if (id == 0) WriteStatusBit(110, 1);
    else if (id == 1) WriteStatusBit(111, 1);
    else if (id == 2) WriteStatusBit(112, 1);
    160a:	82 30       	cpi	r24, 0x02	; 2
    160c:	21 f4       	brne	.+8      	; 0x1616 <Reset+0x38>
    if (gameState[number>>3] & (1<<(number&7))) return 1; else return 0;
}

void WriteStatusBit(uint8_t number, uint8_t state){
    number &= 0x7f;
    if (state) gameState[number>>3] |= 1<<(number&7);
    160e:	80 91 71 3a 	lds	r24, 0x3A71	; 0x803a71 <gameState+0xe>
    1612:	81 60       	ori	r24, 0x01	; 1
    1614:	05 c0       	rjmp	.+10     	; 0x1620 <Reset+0x42>

    //Write bit in gameState location 110..113
    if (id == 0) WriteStatusBit(110, 1);
    else if (id == 1) WriteStatusBit(111, 1);
    else if (id == 2) WriteStatusBit(112, 1);
    else if (id == 3) WriteStatusBit(113, 1);
    1616:	83 30       	cpi	r24, 0x03	; 3
    1618:	29 f4       	brne	.+10     	; 0x1624 <Reset+0x46>
    if (gameState[number>>3] & (1<<(number&7))) return 1; else return 0;
}

void WriteStatusBit(uint8_t number, uint8_t state){
    number &= 0x7f;
    if (state) gameState[number>>3] |= 1<<(number&7);
    161a:	80 91 71 3a 	lds	r24, 0x3A71	; 0x803a71 <gameState+0xe>
    161e:	82 60       	ori	r24, 0x02	; 2
    1620:	80 93 71 3a 	sts	0x3A71, r24	; 0x803a71 <gameState+0xe>
    1624:	80 91 63 3a 	lds	r24, 0x3A63	; 0x803a63 <gameState>
    1628:	81 60       	ori	r24, 0x01	; 1
    162a:	80 93 63 3a 	sts	0x3A63, r24	; 0x803a63 <gameState>
    162e:	08 95       	ret

00001630 <LoadGameState>:

    return sample;
}

//Load game status
void LoadGameState(){
    1630:	cf 93       	push	r28
    1632:	df 93       	push	r29
    EERead(0, &gameState[0], BOOTCHK);   //Load game status bits from EEPROM
    1634:	44 e1       	ldi	r20, 0x14	; 20
    1636:	63 e6       	ldi	r22, 0x63	; 99
    1638:	7a e3       	ldi	r23, 0x3A	; 58
    163a:	80 e0       	ldi	r24, 0x00	; 0
    163c:	b0 dd       	rcall	.-1184   	; 0x119e <EERead>
    163e:	ce e6       	ldi	r28, 0x6E	; 110

    uint8_t idSet = 0;
    1640:	d0 e0       	ldi	r29, 0x00	; 0
    for (uint8_t x=0; x<4; ++x){
        idSet += ReadStatusBit(110+x);
    1642:	8c 2f       	mov	r24, r28
    1644:	76 df       	rcall	.-276    	; 0x1532 <ReadStatusBit>
    1646:	d8 0f       	add	r29, r24
    1648:	cf 5f       	subi	r28, 0xFF	; 255
//Load game status
void LoadGameState(){
    EERead(0, &gameState[0], BOOTCHK);   //Load game status bits from EEPROM

    uint8_t idSet = 0;
    for (uint8_t x=0; x<4; ++x){
    164a:	c2 37       	cpi	r28, 0x72	; 114
    164c:	d1 f7       	brne	.-12     	; 0x1642 <LoadGameState+0x12>
        idSet += ReadStatusBit(110+x);
    }

    //Check if badge is reset(0 = cheated!) or new(3) or error(2)
    if (idSet != 1) {
    164e:	d1 30       	cpi	r29, 0x01	; 1
        Reset();
    1650:	11 f0       	breq	.+4      	; 0x1656 <LoadGameState+0x26>
    1652:	c5 df       	rcall	.-118    	; 0x15de <Reset>
    } else getID();
    1654:	01 c0       	rjmp	.+2      	; 0x1658 <LoadGameState+0x28>
    1656:	b5 df       	rcall	.-150    	; 0x15c2 <getID>

    inventory[0] = (gameState[INVADDR]<<8|gameState[INVADDR+1]);
    1658:	80 91 73 3a 	lds	r24, 0x3A73	; 0x803a73 <gameState+0x10>
    165c:	90 91 74 3a 	lds	r25, 0x3A74	; 0x803a74 <gameState+0x11>
    1660:	98 27       	eor	r25, r24
    1662:	89 27       	eor	r24, r25
    1664:	98 27       	eor	r25, r24
    1666:	80 93 3e 38 	sts	0x383E, r24	; 0x80383e <inventory>
    166a:	90 93 3f 38 	sts	0x383F, r25	; 0x80383f <inventory+0x1>
    inventory[1] = (gameState[INVADDR+2]<<8|gameState[INVADDR+3]);
    166e:	80 91 75 3a 	lds	r24, 0x3A75	; 0x803a75 <gameState+0x12>
    1672:	90 91 76 3a 	lds	r25, 0x3A76	; 0x803a76 <gameState+0x13>
    1676:	98 27       	eor	r25, r24
    1678:	89 27       	eor	r24, r25
    167a:	98 27       	eor	r25, r24
    167c:	80 93 40 38 	sts	0x3840, r24	; 0x803840 <inventory+0x2>
    1680:	90 93 41 38 	sts	0x3841, r25	; 0x803841 <inventory+0x3>
}
    1684:	df 91       	pop	r29
    1686:	cf 91       	pop	r28
    1688:	08 95       	ret

0000168a <HotSummer>:
    //Write bit 0, must always be 1!
    WriteStatusBit(0, 1);
}

//Sets specific game bits after the badge is heated for one and two times.
uint8_t HotSummer(){
    168a:	cf 93       	push	r28
    static uint8_t cooledDown = 0;

    if (CheckState(SUMMERS_COMPLETED)){
    168c:	86 e7       	ldi	r24, 0x76	; 118
    168e:	89 df       	rcall	.-238    	; 0x15a2 <CheckState>
    1690:	c8 2f       	mov	r28, r24
    1692:	88 23       	and	r24, r24
    1694:	81 f0       	breq	.+32     	; 0x16b6 <HotSummer+0x2c>
        iLED[SCARAB[G]] = 0;
    1696:	e0 91 a3 be 	lds	r30, 0xBEA3	; 0x80bea3 <__bss_end+0x8387>
    169a:	f0 e0       	ldi	r31, 0x00	; 0
    169c:	e4 53       	subi	r30, 0x34	; 52
    169e:	f5 4c       	sbci	r31, 0xC5	; 197
    16a0:	10 82       	st	Z, r1
        iLED[SCARAB[R]] = dimValue;
    16a2:	e0 91 a2 be 	lds	r30, 0xBEA2	; 0x80bea2 <__bss_end+0x8386>
    16a6:	f0 e0       	ldi	r31, 0x00	; 0
    16a8:	80 91 0b 38 	lds	r24, 0x380B	; 0x80380b <dimValue>
    16ac:	e4 53       	subi	r30, 0x34	; 52
    16ae:	f5 4c       	sbci	r31, 0xC5	; 197
    16b0:	80 83       	st	Z, r24
        return 1;
    16b2:	c1 e0       	ldi	r28, 0x01	; 1
    16b4:	4c c0       	rjmp	.+152    	; 0x174e <HotSummer+0xc4>
    }

    if (CheckState(FIRST_SUMMER)) {
    16b6:	85 e7       	ldi	r24, 0x75	; 117
    16b8:	74 df       	rcall	.-280    	; 0x15a2 <CheckState>
    16ba:	88 23       	and	r24, r24
    16bc:	59 f1       	breq	.+86     	; 0x1714 <HotSummer+0x8a>
        iLED[SCARAB[G]] = dimValue;
    16be:	e0 91 a3 be 	lds	r30, 0xBEA3	; 0x80bea3 <__bss_end+0x8387>
    16c2:	f0 e0       	ldi	r31, 0x00	; 0
    16c4:	80 91 0b 38 	lds	r24, 0x380B	; 0x80380b <dimValue>
    16c8:	e4 53       	subi	r30, 0x34	; 52
    16ca:	f5 4c       	sbci	r31, 0xC5	; 197
    16cc:	80 83       	st	Z, r24
        if ((cooledDown) && (adcTemp >= (calTemp + 32))) {
    16ce:	80 91 59 38 	lds	r24, 0x3859	; 0x803859 <cooledDown.3952>
    16d2:	88 23       	and	r24, r24
    16d4:	79 f0       	breq	.+30     	; 0x16f4 <HotSummer+0x6a>
    16d6:	80 91 c2 3a 	lds	r24, 0x3AC2	; 0x803ac2 <calTemp>
    16da:	90 91 c3 3a 	lds	r25, 0x3AC3	; 0x803ac3 <calTemp+0x1>
    16de:	20 91 f7 3a 	lds	r18, 0x3AF7	; 0x803af7 <adcTemp>
    16e2:	30 91 f8 3a 	lds	r19, 0x3AF8	; 0x803af8 <adcTemp+0x1>
    16e6:	80 96       	adiw	r24, 0x20	; 32
    16e8:	28 17       	cp	r18, r24
    16ea:	39 07       	cpc	r19, r25
            UpdateState(SUMMERS_COMPLETED);
    16ec:	18 f0       	brcs	.+6      	; 0x16f4 <HotSummer+0x6a>
    16ee:	86 e7       	ldi	r24, 0x76	; 118
    16f0:	4e df       	rcall	.-356    	; 0x158e <UpdateState>
            return 0;
    16f2:	2d c0       	rjmp	.+90     	; 0x174e <HotSummer+0xc4>
        }
        if (adcTemp <= (calTemp + 8)) cooledDown = 1;
    16f4:	80 91 c2 3a 	lds	r24, 0x3AC2	; 0x803ac2 <calTemp>
    16f8:	90 91 c3 3a 	lds	r25, 0x3AC3	; 0x803ac3 <calTemp+0x1>
    16fc:	20 91 f7 3a 	lds	r18, 0x3AF7	; 0x803af7 <adcTemp>
    1700:	30 91 f8 3a 	lds	r19, 0x3AF8	; 0x803af8 <adcTemp+0x1>
    1704:	08 96       	adiw	r24, 0x08	; 8
    1706:	82 17       	cp	r24, r18
    1708:	93 07       	cpc	r25, r19
    170a:	08 f1       	brcs	.+66     	; 0x174e <HotSummer+0xc4>
    170c:	81 e0       	ldi	r24, 0x01	; 1
    170e:	80 93 59 38 	sts	0x3859, r24	; 0x803859 <cooledDown.3952>
    1712:	1d c0       	rjmp	.+58     	; 0x174e <HotSummer+0xc4>
                   
    } else {
        if (calTemp == 0) calTemp = adcTemp;
    1714:	80 91 c2 3a 	lds	r24, 0x3AC2	; 0x803ac2 <calTemp>
    1718:	90 91 c3 3a 	lds	r25, 0x3AC3	; 0x803ac3 <calTemp+0x1>
    171c:	89 2b       	or	r24, r25
    171e:	41 f4       	brne	.+16     	; 0x1730 <HotSummer+0xa6>
    1720:	80 91 f7 3a 	lds	r24, 0x3AF7	; 0x803af7 <adcTemp>
    1724:	90 91 f8 3a 	lds	r25, 0x3AF8	; 0x803af8 <adcTemp+0x1>
    1728:	80 93 c2 3a 	sts	0x3AC2, r24	; 0x803ac2 <calTemp>
    172c:	90 93 c3 3a 	sts	0x3AC3, r25	; 0x803ac3 <calTemp+0x1>
        if (adcTemp >= (calTemp + 32)) {
    1730:	80 91 c2 3a 	lds	r24, 0x3AC2	; 0x803ac2 <calTemp>
    1734:	90 91 c3 3a 	lds	r25, 0x3AC3	; 0x803ac3 <calTemp+0x1>
    1738:	20 91 f7 3a 	lds	r18, 0x3AF7	; 0x803af7 <adcTemp>
    173c:	30 91 f8 3a 	lds	r19, 0x3AF8	; 0x803af8 <adcTemp+0x1>
    1740:	80 96       	adiw	r24, 0x20	; 32
    1742:	28 17       	cp	r18, r24
    1744:	39 07       	cpc	r19, r25
            UpdateState(FIRST_SUMMER);
    1746:	18 f0       	brcs	.+6      	; 0x174e <HotSummer+0xc4>
    1748:	85 e7       	ldi	r24, 0x75	; 117
    174a:	21 df       	rcall	.-446    	; 0x158e <UpdateState>
        }
    }
    return 0;
    174c:	c0 e0       	ldi	r28, 0x00	; 0
}
    174e:	8c 2f       	mov	r24, r28
    1750:	cf 91       	pop	r28
    1752:	08 95       	ret

00001754 <WingBar>:

void WingBar(int8_t l, int8_t r) {
    1754:	e4 ea       	ldi	r30, 0xA4	; 164
    1756:	fe eb       	ldi	r31, 0xBE	; 190
    for (int8_t i=0; i<5; i++) {
    1758:	90 e0       	ldi	r25, 0x00	; 0
        if (i<l)
            iLED[WING[L][i]] = dimValue;
    175a:	a5 81       	ldd	r26, Z+5	; 0x05
    175c:	b0 e0       	ldi	r27, 0x00	; 0
    return 0;
}

void WingBar(int8_t l, int8_t r) {
    for (int8_t i=0; i<5; i++) {
        if (i<l)
    175e:	98 17       	cp	r25, r24
    1760:	34 f4       	brge	.+12     	; 0x176e <WingBar+0x1a>
            iLED[WING[L][i]] = dimValue;
    1762:	20 91 0b 38 	lds	r18, 0x380B	; 0x80380b <dimValue>
    1766:	a4 53       	subi	r26, 0x34	; 52
    1768:	b5 4c       	sbci	r27, 0xC5	; 197
    176a:	2c 93       	st	X, r18
    176c:	03 c0       	rjmp	.+6      	; 0x1774 <WingBar+0x20>
        else
            iLED[WING[L][i]] = 0;
    176e:	a4 53       	subi	r26, 0x34	; 52
    1770:	b5 4c       	sbci	r27, 0xC5	; 197
    1772:	1c 92       	st	X, r1
        if (i<r)
            iLED[WING[R][i]] = dimValue;
    1774:	a0 81       	ld	r26, Z
    1776:	b0 e0       	ldi	r27, 0x00	; 0
    for (int8_t i=0; i<5; i++) {
        if (i<l)
            iLED[WING[L][i]] = dimValue;
        else
            iLED[WING[L][i]] = 0;
        if (i<r)
    1778:	96 17       	cp	r25, r22
    177a:	34 f4       	brge	.+12     	; 0x1788 <WingBar+0x34>
            iLED[WING[R][i]] = dimValue;
    177c:	20 91 0b 38 	lds	r18, 0x380B	; 0x80380b <dimValue>
    1780:	a4 53       	subi	r26, 0x34	; 52
    1782:	b5 4c       	sbci	r27, 0xC5	; 197
    1784:	2c 93       	st	X, r18
    1786:	03 c0       	rjmp	.+6      	; 0x178e <WingBar+0x3a>
        else
            iLED[WING[R][i]] = 0;
    1788:	a4 53       	subi	r26, 0x34	; 52
    178a:	b5 4c       	sbci	r27, 0xC5	; 197
    178c:	1c 92       	st	X, r1
    178e:	9f 5f       	subi	r25, 0xFF	; 255
    1790:	31 96       	adiw	r30, 0x01	; 1
    }
    return 0;
}

void WingBar(int8_t l, int8_t r) {
    for (int8_t i=0; i<5; i++) {
    1792:	95 30       	cpi	r25, 0x05	; 5
    1794:	11 f7       	brne	.-60     	; 0x175a <WingBar+0x6>
        if (i<r)
            iLED[WING[R][i]] = dimValue;
        else
            iLED[WING[R][i]] = 0;
    }
}
    1796:	08 95       	ret

00001798 <SetBothEyes>:

void SetBothEyes(uint8_t r, uint8_t g) {
    for (uint8_t i=0; i<2; i++) {
        iLED[EYE[R][i]] = r;
    1798:	ae ea       	ldi	r26, 0xAE	; 174
    179a:	be eb       	ldi	r27, 0xBE	; 190
    179c:	ec 91       	ld	r30, X
    179e:	f0 e0       	ldi	r31, 0x00	; 0
    17a0:	e4 53       	subi	r30, 0x34	; 52
    17a2:	f5 4c       	sbci	r31, 0xC5	; 197
    17a4:	80 83       	st	Z, r24
        iLED[EYE[G][i]] = g;
    17a6:	12 96       	adiw	r26, 0x02	; 2
    17a8:	ec 91       	ld	r30, X
    17aa:	12 97       	sbiw	r26, 0x02	; 2
    17ac:	f0 e0       	ldi	r31, 0x00	; 0
    17ae:	e4 53       	subi	r30, 0x34	; 52
    17b0:	f5 4c       	sbci	r31, 0xC5	; 197
    17b2:	60 83       	st	Z, r22
    }
}

void SetBothEyes(uint8_t r, uint8_t g) {
    for (uint8_t i=0; i<2; i++) {
        iLED[EYE[R][i]] = r;
    17b4:	11 96       	adiw	r26, 0x01	; 1
    17b6:	ec 91       	ld	r30, X
    17b8:	11 97       	sbiw	r26, 0x01	; 1
    17ba:	f0 e0       	ldi	r31, 0x00	; 0
    17bc:	e4 53       	subi	r30, 0x34	; 52
    17be:	f5 4c       	sbci	r31, 0xC5	; 197
    17c0:	80 83       	st	Z, r24
        iLED[EYE[G][i]] = g;
    17c2:	13 96       	adiw	r26, 0x03	; 3
    17c4:	ec 91       	ld	r30, X
    17c6:	f0 e0       	ldi	r31, 0x00	; 0
    17c8:	e4 53       	subi	r30, 0x34	; 52
    17ca:	f5 4c       	sbci	r31, 0xC5	; 197
    17cc:	60 83       	st	Z, r22
    17ce:	08 95       	ret

000017d0 <GenerateBlinks>:
    }
}

void GenerateBlinks(){
    17d0:	1f 93       	push	r17
    17d2:	cf 93       	push	r28
    17d4:	df 93       	push	r29
    used by the games, the other LEDs can be used by setting 
    effect (or be set directly)
    */

    //Activate HCKR & BADGER leds based on the state-bits
    if (gameNow == TEXT) {
    17d6:	80 91 3c 38 	lds	r24, 0x383C	; 0x80383c <gameNow>
    17da:	88 23       	and	r24, r24
    17dc:	29 f0       	breq	.+10     	; 0x17e8 <GenerateBlinks+0x18>
                iLED[HCKR[R][i]] = dimValue;
            }
        }
    }

    if (CheckState(GEM_STATE)) {
    17de:	80 e4       	ldi	r24, 0x40	; 64
    17e0:	e0 de       	rcall	.-576    	; 0x15a2 <CheckState>
    17e2:	81 11       	cpse	r24, r1
    17e4:	24 c0       	rjmp	.+72     	; 0x182e <GenerateBlinks+0x5e>
    17e6:	50 c0       	rjmp	.+160    	; 0x1888 <GenerateBlinks+0xb8>
    17e8:	c2 eb       	ldi	r28, 0xB2	; 178
    17ea:	de eb       	ldi	r29, 0xBE	; 190
    used by the games, the other LEDs can be used by setting 
    effect (or be set directly)
    */

    //Activate HCKR & BADGER leds based on the state-bits
    if (gameNow == TEXT) {
    17ec:	1a e7       	ldi	r17, 0x7A	; 122
        for (uint8_t i=0;i<6;i++) {
            if(CheckState(HACKER_STATES + i)) {
    17ee:	81 2f       	mov	r24, r17
    17f0:	d8 de       	rcall	.-592    	; 0x15a2 <CheckState>
                iLED[HCKR[G][i]] = dimValue;
    17f2:	ee 81       	ldd	r30, Y+6	; 0x06
    17f4:	f0 e0       	ldi	r31, 0x00	; 0
    */

    //Activate HCKR & BADGER leds based on the state-bits
    if (gameNow == TEXT) {
        for (uint8_t i=0;i<6;i++) {
            if(CheckState(HACKER_STATES + i)) {
    17f6:	88 23       	and	r24, r24
    17f8:	59 f0       	breq	.+22     	; 0x1810 <GenerateBlinks+0x40>
                iLED[HCKR[G][i]] = dimValue;
    17fa:	80 91 0b 38 	lds	r24, 0x380B	; 0x80380b <dimValue>
    17fe:	e4 53       	subi	r30, 0x34	; 52
    1800:	f5 4c       	sbci	r31, 0xC5	; 197
    1802:	80 83       	st	Z, r24
                iLED[HCKR[R][i]] = 0;
    1804:	e8 81       	ld	r30, Y
    1806:	f0 e0       	ldi	r31, 0x00	; 0
    1808:	e4 53       	subi	r30, 0x34	; 52
    180a:	f5 4c       	sbci	r31, 0xC5	; 197
    180c:	10 82       	st	Z, r1
    180e:	0a c0       	rjmp	.+20     	; 0x1824 <GenerateBlinks+0x54>
            } else {
                iLED[HCKR[G][i]] = 0;
    1810:	e4 53       	subi	r30, 0x34	; 52
    1812:	f5 4c       	sbci	r31, 0xC5	; 197
    1814:	10 82       	st	Z, r1
                iLED[HCKR[R][i]] = dimValue;
    1816:	e8 81       	ld	r30, Y
    1818:	f0 e0       	ldi	r31, 0x00	; 0
    181a:	80 91 0b 38 	lds	r24, 0x380B	; 0x80380b <dimValue>
    181e:	e4 53       	subi	r30, 0x34	; 52
    1820:	f5 4c       	sbci	r31, 0xC5	; 197
    1822:	80 83       	st	Z, r24
    1824:	1f 5f       	subi	r17, 0xFF	; 255
    1826:	21 96       	adiw	r28, 0x01	; 1
    effect (or be set directly)
    */

    //Activate HCKR & BADGER leds based on the state-bits
    if (gameNow == TEXT) {
        for (uint8_t i=0;i<6;i++) {
    1828:	10 38       	cpi	r17, 0x80	; 128
    182a:	09 f7       	brne	.-62     	; 0x17ee <GenerateBlinks+0x1e>
    182c:	d8 cf       	rjmp	.-80     	; 0x17de <GenerateBlinks+0xe>
            }
        }
    }

    if (CheckState(GEM_STATE)) {
        if ( HeartCount == 1 || HeartCount == 3 || HeartCount == 5 )
    182e:	80 91 5b 38 	lds	r24, 0x385B	; 0x80385b <HeartCount>
    1832:	98 2f       	mov	r25, r24
    1834:	9d 7f       	andi	r25, 0xFD	; 253
    1836:	e0 91 a1 be 	lds	r30, 0xBEA1	; 0x80bea1 <__bss_end+0x8385>
            iLED[BADGER] = dimValue>>1 ;
    183a:	f0 e0       	ldi	r31, 0x00	; 0
            }
        }
    }

    if (CheckState(GEM_STATE)) {
        if ( HeartCount == 1 || HeartCount == 3 || HeartCount == 5 )
    183c:	91 30       	cpi	r25, 0x01	; 1
    183e:	11 f0       	breq	.+4      	; 0x1844 <GenerateBlinks+0x74>
    1840:	85 30       	cpi	r24, 0x05	; 5
    1842:	21 f4       	brne	.+8      	; 0x184c <GenerateBlinks+0x7c>
            iLED[BADGER] = dimValue>>1 ;
    1844:	90 91 0b 38 	lds	r25, 0x380B	; 0x80380b <dimValue>
    1848:	96 95       	lsr	r25
    184a:	06 c0       	rjmp	.+12     	; 0x1858 <GenerateBlinks+0x88>
        else if ( HeartCount == 2 || HeartCount == 4 )
    184c:	82 30       	cpi	r24, 0x02	; 2
    184e:	11 f0       	breq	.+4      	; 0x1854 <GenerateBlinks+0x84>
    1850:	84 30       	cpi	r24, 0x04	; 4
    1852:	31 f4       	brne	.+12     	; 0x1860 <GenerateBlinks+0x90>
            iLED[BADGER] = dimValue;
    1854:	90 91 0b 38 	lds	r25, 0x380B	; 0x80380b <dimValue>
    1858:	e4 53       	subi	r30, 0x34	; 52
    185a:	f5 4c       	sbci	r31, 0xC5	; 197
    185c:	90 83       	st	Z, r25
    185e:	0c c0       	rjmp	.+24     	; 0x1878 <GenerateBlinks+0xa8>
        else if ( HeartCount == 0 || HeartCount == 6 )
    1860:	88 23       	and	r24, r24
    1862:	11 f0       	breq	.+4      	; 0x1868 <GenerateBlinks+0x98>
    1864:	86 30       	cpi	r24, 0x06	; 6
    1866:	29 f4       	brne	.+10     	; 0x1872 <GenerateBlinks+0xa2>
            iLED[BADGER] = dimValue>>2;
    1868:	90 91 0b 38 	lds	r25, 0x380B	; 0x80380b <dimValue>
    186c:	96 95       	lsr	r25
    186e:	96 95       	lsr	r25
    1870:	f3 cf       	rjmp	.-26     	; 0x1858 <GenerateBlinks+0x88>
        else
            iLED[BADGER] = 0;
    1872:	e4 53       	subi	r30, 0x34	; 52
    1874:	f5 4c       	sbci	r31, 0xC5	; 197
    1876:	10 82       	st	Z, r1
        if (HeartCount<32)
    1878:	80 32       	cpi	r24, 0x20	; 32
    187a:	20 f4       	brcc	.+8      	; 0x1884 <GenerateBlinks+0xb4>
            HeartCount++;
    187c:	8f 5f       	subi	r24, 0xFF	; 255
    187e:	80 93 5b 38 	sts	0x385B, r24	; 0x80385b <HeartCount>
    1882:	02 c0       	rjmp	.+4      	; 0x1888 <GenerateBlinks+0xb8>
        else
            HeartCount = 0;
    1884:	10 92 5b 38 	sts	0x385B, r1	; 0x80385b <HeartCount>
    }

    //LEDs effects for all games
    // Keep a counter for dynamic effects
    LedCount++;
    1888:	90 91 5a 38 	lds	r25, 0x385A	; 0x80385a <LedCount>
    188c:	9f 5f       	subi	r25, 0xFF	; 255
    188e:	90 93 5a 38 	sts	0x385A, r25	; 0x80385a <LedCount>

    switch (effect&0x1f) {
    1892:	20 91 3a 38 	lds	r18, 0x383A	; 0x80383a <effect>
    1896:	30 91 3b 38 	lds	r19, 0x383B	; 0x80383b <effect+0x1>
    189a:	2f 71       	andi	r18, 0x1F	; 31
    189c:	33 27       	eor	r19, r19
    189e:	21 30       	cpi	r18, 0x01	; 1
    18a0:	31 05       	cpc	r19, r1
    18a2:	99 f1       	breq	.+102    	; 0x190a <GenerateBlinks+0x13a>
    18a4:	20 f0       	brcs	.+8      	; 0x18ae <GenerateBlinks+0xde>
    18a6:	22 30       	cpi	r18, 0x02	; 2
    18a8:	31 05       	cpc	r19, r1
    18aa:	b1 f1       	breq	.+108    	; 0x1918 <GenerateBlinks+0x148>
    18ac:	46 c0       	rjmp	.+140    	; 0x193a <GenerateBlinks+0x16a>
        // All LEDs off
        case 0:
            WingBar(0,0);
    18ae:	60 e0       	ldi	r22, 0x00	; 0
    18b0:	80 e0       	ldi	r24, 0x00	; 0
    18b2:	50 df       	rcall	.-352    	; 0x1754 <WingBar>
            for (uint8_t i=0; i<2; i++) {
                iLED[EYE[R][i]] = 0;
    18b4:	e0 91 ae be 	lds	r30, 0xBEAE	; 0x80beae <__bss_end+0x8392>
    18b8:	f0 e0       	ldi	r31, 0x00	; 0
    18ba:	e4 53       	subi	r30, 0x34	; 52
    18bc:	f5 4c       	sbci	r31, 0xC5	; 197
    18be:	10 82       	st	Z, r1
                iLED[EYE[G][i]] = 0;
    18c0:	e0 91 b0 be 	lds	r30, 0xBEB0	; 0x80beb0 <__bss_end+0x8394>
    18c4:	f0 e0       	ldi	r31, 0x00	; 0
    18c6:	e4 53       	subi	r30, 0x34	; 52
    18c8:	f5 4c       	sbci	r31, 0xC5	; 197
    18ca:	10 82       	st	Z, r1
                iLED[SCARAB[i]] = 0;
    18cc:	e0 91 a2 be 	lds	r30, 0xBEA2	; 0x80bea2 <__bss_end+0x8386>
    18d0:	f0 e0       	ldi	r31, 0x00	; 0
    18d2:	e4 53       	subi	r30, 0x34	; 52
    18d4:	f5 4c       	sbci	r31, 0xC5	; 197
    18d6:	10 82       	st	Z, r1
    switch (effect&0x1f) {
        // All LEDs off
        case 0:
            WingBar(0,0);
            for (uint8_t i=0; i<2; i++) {
                iLED[EYE[R][i]] = 0;
    18d8:	e0 91 af be 	lds	r30, 0xBEAF	; 0x80beaf <__bss_end+0x8393>
    18dc:	f0 e0       	ldi	r31, 0x00	; 0
    18de:	e4 53       	subi	r30, 0x34	; 52
    18e0:	f5 4c       	sbci	r31, 0xC5	; 197
    18e2:	10 82       	st	Z, r1
                iLED[EYE[G][i]] = 0;
    18e4:	e0 91 b1 be 	lds	r30, 0xBEB1	; 0x80beb1 <__bss_end+0x8395>
    18e8:	f0 e0       	ldi	r31, 0x00	; 0
    18ea:	e4 53       	subi	r30, 0x34	; 52
    18ec:	f5 4c       	sbci	r31, 0xC5	; 197
    18ee:	10 82       	st	Z, r1
                iLED[SCARAB[i]] = 0;
    18f0:	e0 91 a3 be 	lds	r30, 0xBEA3	; 0x80bea3 <__bss_end+0x8387>
    18f4:	f0 e0       	ldi	r31, 0x00	; 0
    18f6:	e4 53       	subi	r30, 0x34	; 52
    18f8:	f5 4c       	sbci	r31, 0xC5	; 197
    18fa:	10 82       	st	Z, r1
            }
            iLED[CAT] = 0;
    18fc:	e0 91 a0 be 	lds	r30, 0xBEA0	; 0x80bea0 <__bss_end+0x8384>
    1900:	f0 e0       	ldi	r31, 0x00	; 0
    1902:	e4 53       	subi	r30, 0x34	; 52
    1904:	f5 4c       	sbci	r31, 0xC5	; 197
    1906:	10 82       	st	Z, r1
            break;
    1908:	18 c0       	rjmp	.+48     	; 0x193a <GenerateBlinks+0x16a>

        //'flashing red eyes',       # 1 can be used when a bad answer is given
        case 1:
            SetBothEyes((LedCount & 1 ? dimValue : 0),0);
    190a:	89 2f       	mov	r24, r25
    190c:	81 70       	andi	r24, 0x01	; 1
    190e:	90 fd       	sbrc	r25, 0
    1910:	80 91 0b 38 	lds	r24, 0x380B	; 0x80380b <dimValue>
    1914:	60 e0       	ldi	r22, 0x00	; 0
    1916:	0d c0       	rjmp	.+26     	; 0x1932 <GenerateBlinks+0x162>
    1918:	69 2f       	mov	r22, r25
    191a:	70 e0       	ldi	r23, 0x00	; 0
            break;

        //'flashing green eyes',     # 2 can be used when a good answer is given
        case 2:
            SetBothEyes(0, 0x1f + (((LedCount & 0x08) ? ((LedCount&0x07)^0x07) : (LedCount&0x07))<<5));
    191c:	93 ff       	sbrs	r25, 3
    191e:	02 c0       	rjmp	.+4      	; 0x1924 <GenerateBlinks+0x154>
    1920:	60 95       	com	r22
    1922:	70 95       	com	r23
    1924:	85 e0       	ldi	r24, 0x05	; 5
    1926:	66 0f       	add	r22, r22
    1928:	77 1f       	adc	r23, r23
    192a:	8a 95       	dec	r24
    192c:	e1 f7       	brne	.-8      	; 0x1926 <GenerateBlinks+0x156>
    192e:	61 5e       	subi	r22, 0xE1	; 225
    1930:	80 e0       	ldi	r24, 0x00	; 0
        // No LED action, game will do it's own LED magic
        case 31:
        default:
            break;
    }
}
    1932:	df 91       	pop	r29
    1934:	cf 91       	pop	r28
            SetBothEyes((LedCount & 1 ? dimValue : 0),0);
            break;

        //'flashing green eyes',     # 2 can be used when a good answer is given
        case 2:
            SetBothEyes(0, 0x1f + (((LedCount & 0x08) ? ((LedCount&0x07)^0x07) : (LedCount&0x07))<<5));
    1936:	1f 91       	pop	r17
    1938:	2f cf       	rjmp	.-418    	; 0x1798 <SetBothEyes>
        // No LED action, game will do it's own LED magic
        case 31:
        default:
            break;
    }
}
    193a:	df 91       	pop	r29
    193c:	cf 91       	pop	r28
    193e:	1f 91       	pop	r17
    1940:	08 95       	ret

00001942 <GenerateAudio>:


uint8_t GenerateAudio(){
    1942:	0f 93       	push	r16
    1944:	1f 93       	push	r17
    1946:	cf 93       	push	r28

    if (auIn[AULEN>>1] < HPLVL) {
    1948:	80 91 c8 3a 	lds	r24, 0x3AC8	; 0x803ac8 <auIn+0x4>
    194c:	89 31       	cpi	r24, 0x19	; 25
    194e:	08 f0       	brcs	.+2      	; 0x1952 <GenerateAudio+0x10>
    1950:	27 c1       	rjmp	.+590    	; 0x1ba0 <GenerateAudio+0x25e>

        detHdPh = 1;
    1952:	c1 e0       	ldi	r28, 0x01	; 1
    1954:	c0 93 c1 3a 	sts	0x3AC1, r28	; 0x803ac1 <detHdPh>

        //Audio for text adventure
        if ((effect&0xff00)==0) {
    1958:	80 91 3a 38 	lds	r24, 0x383A	; 0x80383a <effect>
    195c:	90 91 3b 38 	lds	r25, 0x383B	; 0x80383b <effect+0x1>
    1960:	88 27       	eor	r24, r24
    1962:	89 2b       	or	r24, r25
    1964:	09 f0       	breq	.+2      	; 0x1968 <GenerateAudio+0x26>
    1966:	bf c0       	rjmp	.+382    	; 0x1ae6 <GenerateAudio+0x1a4>

            //Silence
            if ((effect&0xE0)==0){
    1968:	80 91 3a 38 	lds	r24, 0x383A	; 0x80383a <effect>
    196c:	90 91 3b 38 	lds	r25, 0x383B	; 0x80383b <effect+0x1>
    1970:	80 7e       	andi	r24, 0xE0	; 224
    1972:	99 27       	eor	r25, r25
    1974:	89 2b       	or	r24, r25
    1976:	31 f4       	brne	.+12     	; 0x1984 <GenerateAudio+0x42>
                auRepAddr = &zero;
    1978:	88 e3       	ldi	r24, 0x38	; 56
    197a:	98 e3       	ldi	r25, 0x38	; 56
    197c:	80 93 05 38 	sts	0x3805, r24	; 0x803805 <auRepAddr>
    1980:	90 93 06 38 	sts	0x3806, r25	; 0x803806 <auRepAddr+0x1>
            }

            //Bad (buzzer)
            if ((effect&0xE0)==32){
    1984:	80 91 3a 38 	lds	r24, 0x383A	; 0x80383a <effect>
    1988:	90 91 3b 38 	lds	r25, 0x383B	; 0x80383b <effect+0x1>
    198c:	80 7e       	andi	r24, 0xE0	; 224
    198e:	99 27       	eor	r25, r25
    1990:	80 97       	sbiw	r24, 0x20	; 32
    1992:	09 f0       	breq	.+2      	; 0x1996 <GenerateAudio+0x54>
    1994:	59 c0       	rjmp	.+178    	; 0x1a48 <GenerateAudio+0x106>
                static uint8_t auBuffer[17] = {1, 255, 128, 128, 192, 255, 64, 255, 192, 128, 64, 1, 192, 1, 64, 128, 0}; 
                static uint8_t loudness, duration, start;
                floatSpeed(1, 0x2000, 0x2200);
    1996:	40 e0       	ldi	r20, 0x00	; 0
    1998:	52 e2       	ldi	r21, 0x22	; 34
    199a:	60 e0       	ldi	r22, 0x00	; 0
    199c:	70 e2       	ldi	r23, 0x20	; 32
    199e:	81 e0       	ldi	r24, 0x01	; 1
    19a0:	f1 dc       	rcall	.-1566   	; 0x1384 <floatSpeed>
                auBuffer[2] = floatAround(0x80, 5, 0x01, 0x00);
    19a2:	20 e0       	ldi	r18, 0x00	; 0
    19a4:	41 e0       	ldi	r20, 0x01	; 1
    19a6:	65 e0       	ldi	r22, 0x05	; 5
    19a8:	80 e8       	ldi	r24, 0x80	; 128
    19aa:	1e dd       	rcall	.-1476   	; 0x13e8 <floatAround>
    19ac:	80 93 12 38 	sts	0x3812, r24	; 0x803812 <auBuffer.3987+0x2>

                if (buttonMark) {
    19b0:	80 91 42 38 	lds	r24, 0x3842	; 0x803842 <buttonMark>
    19b4:	88 23       	and	r24, r24
    19b6:	09 f4       	brne	.+2      	; 0x19ba <GenerateAudio+0x78>
    19b8:	47 c0       	rjmp	.+142    	; 0x1a48 <GenerateAudio+0x106>
                    if (start == 0) {
    19ba:	80 91 58 38 	lds	r24, 0x3858	; 0x803858 <start.3990>
    19be:	81 11       	cpse	r24, r1
    19c0:	15 c0       	rjmp	.+42     	; 0x19ec <GenerateAudio+0xaa>
                        duration = 4;
    19c2:	84 e0       	ldi	r24, 0x04	; 4
    19c4:	80 93 57 38 	sts	0x3857, r24	; 0x803857 <duration.3989>
                        loudness = 0xff;
    19c8:	8f ef       	ldi	r24, 0xFF	; 255
    19ca:	80 93 56 38 	sts	0x3856, r24	; 0x803856 <loudness.3988>
                        TCB1_CCMP = 0x2000;
    19ce:	80 e0       	ldi	r24, 0x00	; 0
    19d0:	90 e2       	ldi	r25, 0x20	; 32
    19d2:	80 93 5c 0a 	sts	0x0A5C, r24	; 0x800a5c <__TEXT_REGION_LENGTH__+0x700a5c>
    19d6:	90 93 5d 0a 	sts	0x0A5D, r25	; 0x800a5d <__TEXT_REGION_LENGTH__+0x700a5d>
                        auRepAddr = &auBuffer[0];
    19da:	80 e1       	ldi	r24, 0x10	; 16
    19dc:	98 e3       	ldi	r25, 0x38	; 56
    19de:	80 93 05 38 	sts	0x3805, r24	; 0x803805 <auRepAddr>
    19e2:	90 93 06 38 	sts	0x3806, r25	; 0x803806 <auRepAddr+0x1>
                        start = 1;
    19e6:	81 e0       	ldi	r24, 0x01	; 1
    19e8:	80 93 58 38 	sts	0x3858, r24	; 0x803858 <start.3990>
                    }

                    if (loudness) {
    19ec:	80 91 56 38 	lds	r24, 0x3856	; 0x803856 <loudness.3988>
    19f0:	88 23       	and	r24, r24
    19f2:	69 f0       	breq	.+26     	; 0x1a0e <GenerateAudio+0xcc>
                        auVolume = loudness;
    19f4:	80 93 b8 3a 	sts	0x3AB8, r24	; 0x803ab8 <auVolume>
                        if (duration) duration--; else loudness >>= 1;
    19f8:	90 91 57 38 	lds	r25, 0x3857	; 0x803857 <duration.3989>
    19fc:	99 23       	and	r25, r25
    19fe:	21 f0       	breq	.+8      	; 0x1a08 <GenerateAudio+0xc6>
    1a00:	91 50       	subi	r25, 0x01	; 1
    1a02:	90 93 57 38 	sts	0x3857, r25	; 0x803857 <duration.3989>
    1a06:	03 c0       	rjmp	.+6      	; 0x1a0e <GenerateAudio+0xcc>
    1a08:	86 95       	lsr	r24
    1a0a:	80 93 56 38 	sts	0x3856, r24	; 0x803856 <loudness.3988>
                    } 

                    if (loudness == 0) {
    1a0e:	80 91 56 38 	lds	r24, 0x3856	; 0x803856 <loudness.3988>
    1a12:	81 11       	cpse	r24, r1
    1a14:	19 c0       	rjmp	.+50     	; 0x1a48 <GenerateAudio+0x106>
                        effect &= 0x1f;
    1a16:	80 91 3a 38 	lds	r24, 0x383A	; 0x80383a <effect>
    1a1a:	90 91 3b 38 	lds	r25, 0x383B	; 0x80383b <effect+0x1>
    1a1e:	8f 71       	andi	r24, 0x1F	; 31
    1a20:	99 27       	eor	r25, r25
    1a22:	80 93 3a 38 	sts	0x383A, r24	; 0x80383a <effect>
    1a26:	90 93 3b 38 	sts	0x383B, r25	; 0x80383b <effect+0x1>
                        auRepAddr = &zero;
    1a2a:	88 e3       	ldi	r24, 0x38	; 56
    1a2c:	98 e3       	ldi	r25, 0x38	; 56
    1a2e:	80 93 05 38 	sts	0x3805, r24	; 0x803805 <auRepAddr>
    1a32:	90 93 06 38 	sts	0x3806, r25	; 0x803806 <auRepAddr+0x1>
                        auSmpAddr = &zero;
    1a36:	80 93 07 38 	sts	0x3807, r24	; 0x803807 <auSmpAddr>
    1a3a:	90 93 08 38 	sts	0x3808, r25	; 0x803808 <auSmpAddr+0x1>
                        auVolume = 0xff;
    1a3e:	8f ef       	ldi	r24, 0xFF	; 255
    1a40:	80 93 b8 3a 	sts	0x3AB8, r24	; 0x803ab8 <auVolume>
                        start = 0;
    1a44:	10 92 58 38 	sts	0x3858, r1	; 0x803858 <start.3990>
                    }
                }
            }

            //Good (bell)
            if ((effect&0xE0)==64){
    1a48:	80 91 3a 38 	lds	r24, 0x383A	; 0x80383a <effect>
    1a4c:	90 91 3b 38 	lds	r25, 0x383B	; 0x80383b <effect+0x1>
                //auBuffer = 
            }

            //Rain storm with whistling wind
            if ((effect&0xE0)==96){
    1a50:	80 91 3a 38 	lds	r24, 0x383A	; 0x80383a <effect>
    1a54:	90 91 3b 38 	lds	r25, 0x383B	; 0x80383b <effect+0x1>
    1a58:	80 7e       	andi	r24, 0xE0	; 224
    1a5a:	99 27       	eor	r25, r25
    1a5c:	80 36       	cpi	r24, 0x60	; 96
    1a5e:	91 05       	cpc	r25, r1
    1a60:	a9 f5       	brne	.+106    	; 0x1acc <GenerateAudio+0x18a>
                static uint8_t auBuffer[7];
                auBuffer[6]= 0;        
    1a62:	10 92 55 38 	sts	0x3855, r1	; 0x803855 <auBuffer.3991+0x6>
                auRepAddr = &auBuffer[0];
    1a66:	8f e4       	ldi	r24, 0x4F	; 79
    1a68:	98 e3       	ldi	r25, 0x38	; 56
    1a6a:	80 93 05 38 	sts	0x3805, r24	; 0x803805 <auRepAddr>
    1a6e:	90 93 06 38 	sts	0x3806, r25	; 0x803806 <auRepAddr+0x1>
    1a72:	8c 01       	movw	r16, r24

                //Noise is to be generated fast, outside of buttonMark loop
                for (uint8_t x=1; x<6; ++x){
    1a74:	c1 e0       	ldi	r28, 0x01	; 1
                    if ((x>0) && (x!=3)) auBuffer[x] = floatAround(0x80, 5, 0x01, 0x00);
    1a76:	c3 30       	cpi	r28, 0x03	; 3
    1a78:	39 f0       	breq	.+14     	; 0x1a88 <GenerateAudio+0x146>
    1a7a:	20 e0       	ldi	r18, 0x00	; 0
    1a7c:	41 e0       	ldi	r20, 0x01	; 1
    1a7e:	65 e0       	ldi	r22, 0x05	; 5
    1a80:	80 e8       	ldi	r24, 0x80	; 128
    1a82:	b2 dc       	rcall	.-1692   	; 0x13e8 <floatAround>
    1a84:	f8 01       	movw	r30, r16
    1a86:	81 83       	std	Z+1, r24	; 0x01
                static uint8_t auBuffer[7];
                auBuffer[6]= 0;        
                auRepAddr = &auBuffer[0];

                //Noise is to be generated fast, outside of buttonMark loop
                for (uint8_t x=1; x<6; ++x){
    1a88:	cf 5f       	subi	r28, 0xFF	; 255
    1a8a:	0f 5f       	subi	r16, 0xFF	; 255
    1a8c:	1f 4f       	sbci	r17, 0xFF	; 255
    1a8e:	c6 30       	cpi	r28, 0x06	; 6
    1a90:	91 f7       	brne	.-28     	; 0x1a76 <GenerateAudio+0x134>
                    if ((x>0) && (x!=3)) auBuffer[x] = floatAround(0x80, 5, 0x01, 0x00);
                }

                if (buttonMark){
    1a92:	80 91 42 38 	lds	r24, 0x3842	; 0x803842 <buttonMark>
    1a96:	88 23       	and	r24, r24
    1a98:	c9 f0       	breq	.+50     	; 0x1acc <GenerateAudio+0x18a>
                    //"Floating" speed for howl (and noise, but that's hardly audible)
                    floatSpeed(5, 0x0280, 0x0400);
    1a9a:	40 e0       	ldi	r20, 0x00	; 0
    1a9c:	54 e0       	ldi	r21, 0x04	; 4
    1a9e:	60 e8       	ldi	r22, 0x80	; 128
    1aa0:	72 e0       	ldi	r23, 0x02	; 2
    1aa2:	85 e0       	ldi	r24, 0x05	; 5
    1aa4:	6f dc       	rcall	.-1826   	; 0x1384 <floatSpeed>
            
                    //"Floating" volume and wind howl during 8 bit rainstorm needs some randomness
                    auVolume = floatAround(auVolume, 2, 0x10, 0xA0);
    1aa6:	80 91 b8 3a 	lds	r24, 0x3AB8	; 0x803ab8 <auVolume>
    1aaa:	20 ea       	ldi	r18, 0xA0	; 160
    1aac:	40 e1       	ldi	r20, 0x10	; 16
    1aae:	62 e0       	ldi	r22, 0x02	; 2
    1ab0:	9b dc       	rcall	.-1738   	; 0x13e8 <floatAround>
    1ab2:	80 93 b8 3a 	sts	0x3AB8, r24	; 0x803ab8 <auVolume>
                    auBuffer[0] = floatAround(auBuffer[0], 2, 0x70, 0x90);
    1ab6:	20 e9       	ldi	r18, 0x90	; 144
    1ab8:	40 e7       	ldi	r20, 0x70	; 112
    1aba:	62 e0       	ldi	r22, 0x02	; 2
    1abc:	80 91 4f 38 	lds	r24, 0x384F	; 0x80384f <auBuffer.3991>
    1ac0:	93 dc       	rcall	.-1754   	; 0x13e8 <floatAround>
    1ac2:	80 93 4f 38 	sts	0x384F, r24	; 0x80384f <auBuffer.3991>
                    auBuffer[3] = 0xFF-auBuffer[0];  //Inverse value of wind[0] produces a whistle
    1ac6:	80 95       	com	r24
    1ac8:	80 93 52 38 	sts	0x3852, r24	; 0x803852 <auBuffer.3991+0x3>
                }
            }

            //Footsteps
            if ((effect&0xE0)==128){
    1acc:	80 91 3a 38 	lds	r24, 0x383A	; 0x80383a <effect>
    1ad0:	90 91 3b 38 	lds	r25, 0x383B	; 0x80383b <effect+0x1>

            }

            //
            if ((effect&0xE0)==160){
    1ad4:	80 91 3a 38 	lds	r24, 0x383A	; 0x80383a <effect>
    1ad8:	90 91 3b 38 	lds	r25, 0x383B	; 0x80383b <effect+0x1>

            }

            //
            if ((effect&0xE0)==192){
    1adc:	80 91 3a 38 	lds	r24, 0x383A	; 0x80383a <effect>
    1ae0:	90 91 3b 38 	lds	r25, 0x383B	; 0x80383b <effect+0x1>
    1ae4:	5f c0       	rjmp	.+190    	; 0x1ba4 <GenerateAudio+0x262>
            }

            //
            else {
            }
        } else if ((effect&0xff00)==0x0100) {
    1ae6:	80 91 3a 38 	lds	r24, 0x383A	; 0x80383a <effect>
    1aea:	90 91 3b 38 	lds	r25, 0x383B	; 0x80383b <effect+0x1>
    1aee:	88 27       	eor	r24, r24
    1af0:	81 15       	cp	r24, r1
    1af2:	91 40       	sbci	r25, 0x01	; 1
    1af4:	09 f0       	breq	.+2      	; 0x1af8 <GenerateAudio+0x1b6>
    1af6:	56 c0       	rjmp	.+172    	; 0x1ba4 <GenerateAudio+0x262>
            if ((effect&0xE0) <= 0x90) {
    1af8:	80 91 3a 38 	lds	r24, 0x383A	; 0x80383a <effect>
    1afc:	90 91 3b 38 	lds	r25, 0x383B	; 0x80383b <effect+0x1>
    1b00:	80 7e       	andi	r24, 0xE0	; 224
    1b02:	99 27       	eor	r25, r25
    1b04:	81 39       	cpi	r24, 0x91	; 145
    1b06:	91 05       	cpc	r25, r1
    1b08:	08 f0       	brcs	.+2      	; 0x1b0c <GenerateAudio+0x1ca>
    1b0a:	4c c0       	rjmp	.+152    	; 0x1ba4 <GenerateAudio+0x262>
                
                static uint8_t auBuffer[3] = {255, 1, 0};
                static uint8_t duration, start;
                uint16_t freq = ((effect&0xE0)+1)<<6;
    1b0c:	60 91 3a 38 	lds	r22, 0x383A	; 0x80383a <effect>
    1b10:	70 91 3b 38 	lds	r23, 0x383B	; 0x80383b <effect+0x1>
    1b14:	60 7e       	andi	r22, 0xE0	; 224
    1b16:	77 27       	eor	r23, r23
    1b18:	6f 5f       	subi	r22, 0xFF	; 255
    1b1a:	7f 4f       	sbci	r23, 0xFF	; 255
    1b1c:	86 e0       	ldi	r24, 0x06	; 6
    1b1e:	66 0f       	add	r22, r22
    1b20:	77 1f       	adc	r23, r23
    1b22:	8a 95       	dec	r24
                floatSpeed(1, freq+0x0200, freq+0x0300);
    1b24:	e1 f7       	brne	.-8      	; 0x1b1e <GenerateAudio+0x1dc>
    1b26:	ab 01       	movw	r20, r22
    1b28:	5d 5f       	subi	r21, 0xFD	; 253
    1b2a:	7e 5f       	subi	r23, 0xFE	; 254
    1b2c:	81 e0       	ldi	r24, 0x01	; 1
    1b2e:	2a dc       	rcall	.-1964   	; 0x1384 <floatSpeed>
                //auBuffer[] = floatAround(0x80, 5, 0x01, 0x00);

                if (buttonMark) {
    1b30:	80 91 42 38 	lds	r24, 0x3842	; 0x803842 <buttonMark>
    1b34:	88 23       	and	r24, r24
    1b36:	b1 f1       	breq	.+108    	; 0x1ba4 <GenerateAudio+0x262>
                    if (start == 0) {
    1b38:	80 91 4e 38 	lds	r24, 0x384E	; 0x80384e <start.3998>
    1b3c:	81 11       	cpse	r24, r1
    1b3e:	0e c0       	rjmp	.+28     	; 0x1b5c <GenerateAudio+0x21a>
                        duration = 3;
    1b40:	83 e0       	ldi	r24, 0x03	; 3
    1b42:	80 93 4d 38 	sts	0x384D, r24	; 0x80384d <duration.3997>
                        auRepAddr = &auBuffer[0];
    1b46:	8d e0       	ldi	r24, 0x0D	; 13
    1b48:	98 e3       	ldi	r25, 0x38	; 56
    1b4a:	80 93 05 38 	sts	0x3805, r24	; 0x803805 <auRepAddr>
    1b4e:	90 93 06 38 	sts	0x3806, r25	; 0x803806 <auRepAddr+0x1>
                        auVolume = 255;
    1b52:	8f ef       	ldi	r24, 0xFF	; 255
    1b54:	80 93 b8 3a 	sts	0x3AB8, r24	; 0x803ab8 <auVolume>
                        start = 1;
    1b58:	c0 93 4e 38 	sts	0x384E, r28	; 0x80384e <start.3998>
                    }   if (duration == 0) {
    1b5c:	80 91 4d 38 	lds	r24, 0x384D	; 0x80384d <duration.3997>
    1b60:	81 11       	cpse	r24, r1
    1b62:	1a c0       	rjmp	.+52     	; 0x1b98 <GenerateAudio+0x256>
                        effect &= 0x1f;
    1b64:	80 91 3a 38 	lds	r24, 0x383A	; 0x80383a <effect>
    1b68:	90 91 3b 38 	lds	r25, 0x383B	; 0x80383b <effect+0x1>
    1b6c:	8f 71       	andi	r24, 0x1F	; 31
    1b6e:	99 27       	eor	r25, r25
    1b70:	80 93 3a 38 	sts	0x383A, r24	; 0x80383a <effect>
    1b74:	90 93 3b 38 	sts	0x383B, r25	; 0x80383b <effect+0x1>
                        auRepAddr = &zero;
    1b78:	88 e3       	ldi	r24, 0x38	; 56
    1b7a:	98 e3       	ldi	r25, 0x38	; 56
    1b7c:	80 93 05 38 	sts	0x3805, r24	; 0x803805 <auRepAddr>
    1b80:	90 93 06 38 	sts	0x3806, r25	; 0x803806 <auRepAddr+0x1>
                        auSmpAddr = &zero;
    1b84:	80 93 07 38 	sts	0x3807, r24	; 0x803807 <auSmpAddr>
    1b88:	90 93 08 38 	sts	0x3808, r25	; 0x803808 <auSmpAddr+0x1>
                        auVolume = 0xff;
    1b8c:	8f ef       	ldi	r24, 0xFF	; 255
    1b8e:	80 93 b8 3a 	sts	0x3AB8, r24	; 0x803ab8 <auVolume>
                        start = 0;
    1b92:	10 92 4e 38 	sts	0x384E, r1	; 0x80384e <start.3998>
    1b96:	06 c0       	rjmp	.+12     	; 0x1ba4 <GenerateAudio+0x262>
                    } else duration--;
    1b98:	81 50       	subi	r24, 0x01	; 1
    1b9a:	80 93 4d 38 	sts	0x384D, r24	; 0x80384d <duration.3997>
    1b9e:	02 c0       	rjmp	.+4      	; 0x1ba4 <GenerateAudio+0x262>
                }
            }
        }
    } else {
        detHdPh = 0;
    1ba0:	10 92 c1 3a 	sts	0x3AC1, r1	; 0x803ac1 <detHdPh>
    }
    return buttonMark;
    1ba4:	80 91 42 38 	lds	r24, 0x3842	; 0x803842 <buttonMark>
}
    1ba8:	cf 91       	pop	r28
    1baa:	1f 91       	pop	r17
    1bac:	0f 91       	pop	r16
    1bae:	08 95       	ret

00001bb0 <getClock>:

uint16_t getClock() {
    return 60 * minuteMark + (RTC_CNT>>9);
    1bb0:	20 91 43 38 	lds	r18, 0x3843	; 0x803843 <minuteMark>
    1bb4:	80 91 48 01 	lds	r24, 0x0148	; 0x800148 <__TEXT_REGION_LENGTH__+0x700148>
    1bb8:	90 91 49 01 	lds	r25, 0x0149	; 0x800149 <__TEXT_REGION_LENGTH__+0x700149>
    1bbc:	89 2f       	mov	r24, r25
    1bbe:	99 27       	eor	r25, r25
    1bc0:	86 95       	lsr	r24
}
    1bc2:	3c e3       	ldi	r19, 0x3C	; 60
    1bc4:	23 9f       	mul	r18, r19
    1bc6:	80 0d       	add	r24, r0
    1bc8:	91 1d       	adc	r25, r1
    1bca:	11 24       	eor	r1, r1
    1bcc:	08 95       	ret

00001bce <idleTimeout>:

uint8_t idleTimeout(uint16_t lastActive, uint16_t maxIdle) {
    1bce:	0f 93       	push	r16
    1bd0:	1f 93       	push	r17
    1bd2:	cf 93       	push	r28
    1bd4:	df 93       	push	r29
    1bd6:	8c 01       	movw	r16, r24
    1bd8:	eb 01       	movw	r28, r22
    uint16_t curClock;

    curClock = getClock();
    1bda:	ea df       	rcall	.-44     	; 0x1bb0 <getClock>
    1bdc:	9c 01       	movw	r18, r24
    if (curClock < lastActive)
    1bde:	80 17       	cp	r24, r16
    1be0:	91 07       	cpc	r25, r17
    1be2:	08 f4       	brcc	.+2      	; 0x1be6 <idleTimeout+0x18>
        curClock += 256 * 60;
    1be4:	34 5c       	subi	r19, 0xC4	; 196

    return (curClock > (lastActive + maxIdle));
    1be6:	c0 0f       	add	r28, r16
    1be8:	d1 1f       	adc	r29, r17
    1bea:	81 e0       	ldi	r24, 0x01	; 1
    1bec:	c2 17       	cp	r28, r18
    1bee:	d3 07       	cpc	r29, r19
    1bf0:	08 f0       	brcs	.+2      	; 0x1bf4 <idleTimeout+0x26>
    1bf2:	80 e0       	ldi	r24, 0x00	; 0
}
    1bf4:	df 91       	pop	r29
    1bf6:	cf 91       	pop	r28
    1bf8:	1f 91       	pop	r17
    1bfa:	0f 91       	pop	r16
    1bfc:	08 95       	ret

00001bfe <simonLed>:

void simonTone(uint8_t val) {
    // TODO some way to set teh audio stuff
}

void simonLed(uint8_t val) {
    1bfe:	cf 93       	push	r28
    1c00:	df 93       	push	r29
    1c02:	e4 ea       	ldi	r30, 0xA4	; 164
    1c04:	fe eb       	ldi	r31, 0xBE	; 190
    1c06:	ef 01       	movw	r28, r30
    for (uint8_t n = 0; n < 5; n++) {
        iLED[WING[L][n]] = 0;
    1c08:	a5 81       	ldd	r26, Z+5	; 0x05
    1c0a:	b0 e0       	ldi	r27, 0x00	; 0
    1c0c:	a4 53       	subi	r26, 0x34	; 52
    1c0e:	b5 4c       	sbci	r27, 0xC5	; 197
    1c10:	1c 92       	st	X, r1
    1c12:	31 96       	adiw	r30, 0x01	; 1
        iLED[WING[R][n]] = 0;
    1c14:	a8 81       	ld	r26, Y
    1c16:	b0 e0       	ldi	r27, 0x00	; 0
    1c18:	a4 53       	subi	r26, 0x34	; 52
    1c1a:	b5 4c       	sbci	r27, 0xC5	; 197
    1c1c:	1c 92       	st	X, r1
void simonTone(uint8_t val) {
    // TODO some way to set teh audio stuff
}

void simonLed(uint8_t val) {
    for (uint8_t n = 0; n < 5; n++) {
    1c1e:	9e eb       	ldi	r25, 0xBE	; 190
    1c20:	e9 3a       	cpi	r30, 0xA9	; 169
    1c22:	f9 07       	cpc	r31, r25
    1c24:	81 f7       	brne	.-32     	; 0x1c06 <simonLed+0x8>
        iLED[WING[L][n]] = 0;
        iLED[WING[R][n]] = 0;
    }
    if (val == 1) {
    1c26:	81 30       	cpi	r24, 0x01	; 1
    1c28:	99 f4       	brne	.+38     	; 0x1c50 <simonLed+0x52>
        iLED[WING[L][0]] = dimValue;
    1c2a:	e0 91 a9 be 	lds	r30, 0xBEA9	; 0x80bea9 <__bss_end+0x838d>
    1c2e:	f0 e0       	ldi	r31, 0x00	; 0
    1c30:	80 91 0b 38 	lds	r24, 0x380B	; 0x80380b <dimValue>
    1c34:	e4 53       	subi	r30, 0x34	; 52
    1c36:	f5 4c       	sbci	r31, 0xC5	; 197
    1c38:	80 83       	st	Z, r24
        iLED[WING[L][1]] = dimValue;
    1c3a:	e0 91 aa be 	lds	r30, 0xBEAA	; 0x80beaa <__bss_end+0x838e>
    1c3e:	f0 e0       	ldi	r31, 0x00	; 0
    1c40:	80 91 0b 38 	lds	r24, 0x380B	; 0x80380b <dimValue>
    1c44:	e4 53       	subi	r30, 0x34	; 52
    1c46:	f5 4c       	sbci	r31, 0xC5	; 197
    1c48:	80 83       	st	Z, r24
        iLED[WING[L][2]] = dimValue;
    1c4a:	e0 91 ab be 	lds	r30, 0xBEAB	; 0x80beab <__bss_end+0x838f>
    1c4e:	2e c0       	rjmp	.+92     	; 0x1cac <simonLed+0xae>
    } else if (val == 2) {
    1c50:	82 30       	cpi	r24, 0x02	; 2
    1c52:	59 f4       	brne	.+22     	; 0x1c6a <simonLed+0x6c>
        iLED[WING[L][3]] = dimValue;
    1c54:	e0 91 ac be 	lds	r30, 0xBEAC	; 0x80beac <__bss_end+0x8390>
    1c58:	f0 e0       	ldi	r31, 0x00	; 0
    1c5a:	80 91 0b 38 	lds	r24, 0x380B	; 0x80380b <dimValue>
    1c5e:	e4 53       	subi	r30, 0x34	; 52
    1c60:	f5 4c       	sbci	r31, 0xC5	; 197
    1c62:	80 83       	st	Z, r24
        iLED[WING[L][4]] = dimValue;
    1c64:	e0 91 ad be 	lds	r30, 0xBEAD	; 0x80bead <__bss_end+0x8391>
    1c68:	21 c0       	rjmp	.+66     	; 0x1cac <simonLed+0xae>
    } else if (val == 3) {
    1c6a:	83 30       	cpi	r24, 0x03	; 3
    1c6c:	99 f4       	brne	.+38     	; 0x1c94 <simonLed+0x96>
        iLED[WING[R][0]] = dimValue;
    1c6e:	e0 91 a4 be 	lds	r30, 0xBEA4	; 0x80bea4 <__bss_end+0x8388>
    1c72:	f0 e0       	ldi	r31, 0x00	; 0
    1c74:	80 91 0b 38 	lds	r24, 0x380B	; 0x80380b <dimValue>
    1c78:	e4 53       	subi	r30, 0x34	; 52
    1c7a:	f5 4c       	sbci	r31, 0xC5	; 197
    1c7c:	80 83       	st	Z, r24
        iLED[WING[R][1]] = dimValue;
    1c7e:	e0 91 a5 be 	lds	r30, 0xBEA5	; 0x80bea5 <__bss_end+0x8389>
    1c82:	f0 e0       	ldi	r31, 0x00	; 0
    1c84:	80 91 0b 38 	lds	r24, 0x380B	; 0x80380b <dimValue>
    1c88:	e4 53       	subi	r30, 0x34	; 52
    1c8a:	f5 4c       	sbci	r31, 0xC5	; 197
    1c8c:	80 83       	st	Z, r24
        iLED[WING[R][2]] = dimValue;
    1c8e:	e0 91 a6 be 	lds	r30, 0xBEA6	; 0x80bea6 <__bss_end+0x838a>
    1c92:	0c c0       	rjmp	.+24     	; 0x1cac <simonLed+0xae>
    } else if (val == 4) {
    1c94:	84 30       	cpi	r24, 0x04	; 4
    1c96:	81 f4       	brne	.+32     	; 0x1cb8 <simonLed+0xba>
        iLED[WING[R][3]] = dimValue;
    1c98:	e0 91 a7 be 	lds	r30, 0xBEA7	; 0x80bea7 <__bss_end+0x838b>
    1c9c:	f0 e0       	ldi	r31, 0x00	; 0
    1c9e:	80 91 0b 38 	lds	r24, 0x380B	; 0x80380b <dimValue>
    1ca2:	e4 53       	subi	r30, 0x34	; 52
    1ca4:	f5 4c       	sbci	r31, 0xC5	; 197
    1ca6:	80 83       	st	Z, r24
        iLED[WING[R][4]] = dimValue;
    1ca8:	e0 91 a8 be 	lds	r30, 0xBEA8	; 0x80bea8 <__bss_end+0x838c>
    1cac:	f0 e0       	ldi	r31, 0x00	; 0
    1cae:	80 91 0b 38 	lds	r24, 0x380B	; 0x80380b <dimValue>
    1cb2:	e4 53       	subi	r30, 0x34	; 52
    1cb4:	f5 4c       	sbci	r31, 0xC5	; 197
    1cb6:	80 83       	st	Z, r24
    }
    simonTone(val);
}
    1cb8:	df 91       	pop	r29
    1cba:	cf 91       	pop	r28
    1cbc:	08 95       	ret

00001cbe <BastetDictates>:

// Main game loop
uint8_t BastetDictates() {
    1cbe:	cf 93       	push	r28
    1cc0:	df 93       	push	r29
    if (CheckState(BASTET_COMPLETED))
    1cc2:	8a e7       	ldi	r24, 0x7A	; 122
    1cc4:	6e dc       	rcall	.-1828   	; 0x15a2 <CheckState>
    1cc6:	81 11       	cpse	r24, r1
    1cc8:	b8 c0       	rjmp	.+368    	; 0x1e3a <BastetDictates+0x17c>
        return 0;

    if ((TEXT != gameNow) && (BASTET != gameNow))
    1cca:	80 91 3c 38 	lds	r24, 0x383C	; 0x80383c <gameNow>
    1cce:	8d 7f       	andi	r24, 0xFD	; 253
    1cd0:	09 f0       	breq	.+2      	; 0x1cd4 <BastetDictates+0x16>
    1cd2:	b3 c0       	rjmp	.+358    	; 0x1e3a <BastetDictates+0x17c>
        return 0;

    if (BASTET_BOOT == simonGameState) {
    1cd4:	80 91 5e 38 	lds	r24, 0x385E	; 0x80385e <simonGameState>
    1cd8:	81 11       	cpse	r24, r1
    1cda:	22 c0       	rjmp	.+68     	; 0x1d20 <BastetDictates+0x62>
        simonPos = ((adcPhot+adcTemp)&0x3f);
    1cdc:	20 91 bf 3a 	lds	r18, 0x3ABF	; 0x803abf <adcPhot>
    1ce0:	30 91 c0 3a 	lds	r19, 0x3AC0	; 0x803ac0 <adcPhot+0x1>
    1ce4:	80 91 f7 3a 	lds	r24, 0x3AF7	; 0x803af7 <adcTemp>
    1ce8:	90 91 f8 3a 	lds	r25, 0x3AF8	; 0x803af8 <adcTemp+0x1>
    1cec:	82 0f       	add	r24, r18
    1cee:	8f 73       	andi	r24, 0x3F	; 63
    1cf0:	80 93 2b 38 	sts	0x382B, r24	; 0x80382b <simonPos>
        for(uint8_t x=0; x<simonPos; ++x) lfsr();
    1cf4:	c0 e0       	ldi	r28, 0x00	; 0
    1cf6:	80 91 2b 38 	lds	r24, 0x382B	; 0x80382b <simonPos>
    1cfa:	c8 17       	cp	r28, r24
    1cfc:	18 f4       	brcc	.+6      	; 0x1d04 <BastetDictates+0x46>
    1cfe:	23 db       	rcall	.-2490   	; 0x1346 <lfsr>
    1d00:	cf 5f       	subi	r28, 0xFF	; 255
    1d02:	f9 cf       	rjmp	.-14     	; 0x1cf6 <BastetDictates+0x38>
    1d04:	c0 e6       	ldi	r28, 0x60	; 96

        for (uint8_t i = 0; i < BASTET_LENGTH; i++) {
            simonState[i] = (lfsr() % 4);
    1d06:	d8 e3       	ldi	r29, 0x38	; 56
    1d08:	1e db       	rcall	.-2500   	; 0x1346 <lfsr>
    1d0a:	83 70       	andi	r24, 0x03	; 3
    1d0c:	89 93       	st	Y+, r24

    if (BASTET_BOOT == simonGameState) {
        simonPos = ((adcPhot+adcTemp)&0x3f);
        for(uint8_t x=0; x<simonPos; ++x) lfsr();

        for (uint8_t i = 0; i < BASTET_LENGTH; i++) {
    1d0e:	88 e3       	ldi	r24, 0x38	; 56
    1d10:	c0 37       	cpi	r28, 0x70	; 112
    1d12:	d8 07       	cpc	r29, r24
    1d14:	c9 f7       	brne	.-14     	; 0x1d08 <BastetDictates+0x4a>
            simonState[i] = (lfsr() % 4);
        }
        simonPos = 1;
    1d16:	81 e0       	ldi	r24, 0x01	; 1
    1d18:	80 93 2b 38 	sts	0x382B, r24	; 0x80382b <simonPos>
        simonGameState = BASTET_GAME_START;
    1d1c:	80 93 5e 38 	sts	0x385E, r24	; 0x80385e <simonGameState>
    }

    if (BASTET_GAME_START == simonGameState) {
    1d20:	80 91 5e 38 	lds	r24, 0x385E	; 0x80385e <simonGameState>
    1d24:	81 30       	cpi	r24, 0x01	; 1
    1d26:	29 f4       	brne	.+10     	; 0x1d32 <BastetDictates+0x74>
        // TODO start animu
        simonGameState = BASTET_GAME_SHOW_PATTERN;
    1d28:	83 e0       	ldi	r24, 0x03	; 3
    1d2a:	80 93 5e 38 	sts	0x385E, r24	; 0x80385e <simonGameState>
        simonTimer = 0;
    1d2e:	10 92 5d 38 	sts	0x385D, r1	; 0x80385d <simonTimer>
    }

    if (BASTET_GAME_SHOW_PATTERN == simonGameState) {
    1d32:	80 91 5e 38 	lds	r24, 0x385E	; 0x80385e <simonGameState>
    1d36:	83 30       	cpi	r24, 0x03	; 3
    1d38:	d9 f4       	brne	.+54     	; 0x1d70 <BastetDictates+0xb2>
        // assuming 15Hz
        uint8_t pos = simonTimer / (15 - (simonPos>>1));
    1d3a:	20 91 2b 38 	lds	r18, 0x382B	; 0x80382b <simonPos>
    1d3e:	80 91 5d 38 	lds	r24, 0x385D	; 0x80385d <simonTimer>
    1d42:	90 e0       	ldi	r25, 0x00	; 0
    1d44:	32 2f       	mov	r19, r18
    1d46:	36 95       	lsr	r19
    1d48:	6f e0       	ldi	r22, 0x0F	; 15
    1d4a:	70 e0       	ldi	r23, 0x00	; 0
    1d4c:	63 1b       	sub	r22, r19
    1d4e:	71 09       	sbc	r23, r1
    1d50:	0e 94 13 1f 	call	0x3e26	; 0x3e26 <__divmodhi4>
        if (pos > simonPos) {
    1d54:	26 17       	cp	r18, r22
    1d56:	30 f4       	brcc	.+12     	; 0x1d64 <BastetDictates+0xa6>
            simonGameState = BASTET_GAME_INPUT;
    1d58:	85 e0       	ldi	r24, 0x05	; 5
    1d5a:	80 93 5e 38 	sts	0x385E, r24	; 0x80385e <simonGameState>
            simonLed(0);
    1d5e:	80 e0       	ldi	r24, 0x00	; 0
    1d60:	4e df       	rcall	.-356    	; 0x1bfe <simonLed>
            return 0;
    1d62:	6b c0       	rjmp	.+214    	; 0x1e3a <BastetDictates+0x17c>
        }
        simonLed(simonState[pos]);
    1d64:	77 27       	eor	r23, r23
    1d66:	fb 01       	movw	r30, r22
    1d68:	e0 5a       	subi	r30, 0xA0	; 160
    1d6a:	f7 4c       	sbci	r31, 0xC7	; 199
    1d6c:	80 81       	ld	r24, Z
    1d6e:	47 df       	rcall	.-370    	; 0x1bfe <simonLed>
    }

    if (BASTET_GAME_INPUT == simonGameState) {
    1d70:	80 91 5e 38 	lds	r24, 0x385E	; 0x80385e <simonGameState>
    1d74:	85 30       	cpi	r24, 0x05	; 5
    1d76:	09 f0       	breq	.+2      	; 0x1d7a <BastetDictates+0xbc>
    1d78:	4e c0       	rjmp	.+156    	; 0x1e16 <BastetDictates+0x158>
        uint8_t choice = 0;
        if ((buttonState & 0xf0)&&(buttonState < 0xff)) {
    1d7a:	e0 91 09 38 	lds	r30, 0x3809	; 0x803809 <buttonState>
    1d7e:	8e 2f       	mov	r24, r30
    1d80:	80 7f       	andi	r24, 0xF0	; 240
    1d82:	c9 f1       	breq	.+114    	; 0x1df6 <BastetDictates+0x138>
    1d84:	ef 3f       	cpi	r30, 0xFF	; 255
    1d86:	b9 f1       	breq	.+110    	; 0x1df6 <BastetDictates+0x138>
    1d88:	ef 70       	andi	r30, 0x0F	; 15
    1d8a:	e1 50       	subi	r30, 0x01	; 1
    1d8c:	e8 30       	cpi	r30, 0x08	; 8
    1d8e:	98 f5       	brcc	.+102    	; 0x1df6 <BastetDictates+0x138>
    1d90:	f0 e0       	ldi	r31, 0x00	; 0
    1d92:	e0 51       	subi	r30, 0x10	; 16
    1d94:	f1 44       	sbci	r31, 0x41	; 65
    1d96:	c0 81       	ld	r28, Z
                    break;
            }
        }

        //Button pressed
        if (choice > 0) {
    1d98:	cc 23       	and	r28, r28
    1d9a:	69 f1       	breq	.+90     	; 0x1df6 <BastetDictates+0x138>
            gameNow = BASTET;
    1d9c:	82 e0       	ldi	r24, 0x02	; 2
    1d9e:	80 93 3c 38 	sts	0x383C, r24	; 0x80383c <gameNow>
            if (simonProcessed == 0) {
    1da2:	80 91 5c 38 	lds	r24, 0x385C	; 0x80385c <simonProcessed>
    1da6:	81 11       	cpse	r24, r1
                simonTimer = 0;
    1da8:	43 c0       	rjmp	.+134    	; 0x1e30 <BastetDictates+0x172>
    1daa:	10 92 5d 38 	sts	0x385D, r1	; 0x80385d <simonTimer>
                simonLed(choice);
    1dae:	8c 2f       	mov	r24, r28
    1db0:	26 df       	rcall	.-436    	; 0x1bfe <simonLed>
                // TODO something timer something 
                if (simonState[simonInputPos]+1 == choice) {
    1db2:	40 91 5f 38 	lds	r20, 0x385F	; 0x80385f <simonInputPos>
    1db6:	e4 2f       	mov	r30, r20
    1db8:	f0 e0       	ldi	r31, 0x00	; 0
    1dba:	e0 5a       	subi	r30, 0xA0	; 160
    1dbc:	f7 4c       	sbci	r31, 0xC7	; 199
    1dbe:	20 81       	ld	r18, Z
    1dc0:	30 e0       	ldi	r19, 0x00	; 0
    1dc2:	2f 5f       	subi	r18, 0xFF	; 255
    1dc4:	3f 4f       	sbci	r19, 0xFF	; 255
    1dc6:	8c 2f       	mov	r24, r28
    1dc8:	90 e0       	ldi	r25, 0x00	; 0
    1dca:	28 17       	cp	r18, r24
    1dcc:	39 07       	cpc	r19, r25
    1dce:	21 f4       	brne	.+8      	; 0x1dd8 <BastetDictates+0x11a>
                    // TODO correct sound
                    simonInputPos++;
    1dd0:	4f 5f       	subi	r20, 0xFF	; 255
    1dd2:	40 93 5f 38 	sts	0x385F, r20	; 0x80385f <simonInputPos>
                } else {
                    // TODO fail sound
                    simonInputPos = 0;
    1dd6:	06 c0       	rjmp	.+12     	; 0x1de4 <BastetDictates+0x126>
    1dd8:	10 92 5f 38 	sts	0x385F, r1	; 0x80385f <simonInputPos>
                    gameNow = TEXT;
    1ddc:	10 92 3c 38 	sts	0x383C, r1	; 0x80383c <gameNow>
                    simonLed(0);
    1de0:	80 e0       	ldi	r24, 0x00	; 0
                }

                if (simonInputPos == BASTET_LENGTH) {
    1de2:	0d df       	rcall	.-486    	; 0x1bfe <simonLed>
    1de4:	80 91 5f 38 	lds	r24, 0x385F	; 0x80385f <simonInputPos>
    1de8:	80 31       	cpi	r24, 0x10	; 16
                    // TODO win animu
                    UpdateState(BASTET_COMPLETED);
    1dea:	a9 f4       	brne	.+42     	; 0x1e16 <BastetDictates+0x158>
    1dec:	8a e7       	ldi	r24, 0x7A	; 122
    1dee:	cf db       	rcall	.-2146   	; 0x158e <UpdateState>
                    gameNow = TEXT;
    1df0:	10 92 3c 38 	sts	0x383C, r1	; 0x80383c <gameNow>
    1df4:	10 c0       	rjmp	.+32     	; 0x1e16 <BastetDictates+0x158>
                }
            }
        
        //Button released, next or reset!
        } else {    
            if (simonInputPos == simonPos) {
    1df6:	80 91 5f 38 	lds	r24, 0x385F	; 0x80385f <simonInputPos>
    1dfa:	90 91 2b 38 	lds	r25, 0x382B	; 0x80382b <simonPos>
    1dfe:	89 13       	cpse	r24, r25
    1e00:	08 c0       	rjmp	.+16     	; 0x1e12 <BastetDictates+0x154>
                simonPos++;
    1e02:	8f 5f       	subi	r24, 0xFF	; 255
    1e04:	80 93 2b 38 	sts	0x382B, r24	; 0x80382b <simonPos>
                simonInputPos = 0;
    1e08:	10 92 5f 38 	sts	0x385F, r1	; 0x80385f <simonInputPos>
                simonGameState = BASTET_GAME_SHOW_PATTERN;
    1e0c:	83 e0       	ldi	r24, 0x03	; 3
    1e0e:	80 93 5e 38 	sts	0x385E, r24	; 0x80385e <simonGameState>
            }                    
            simonProcessed = 0;
    1e12:	10 92 5c 38 	sts	0x385C, r1	; 0x80385c <simonProcessed>
        }
    }

    if (BASTET_GAME_WAIT_LEDS == simonGameState) {
    1e16:	80 91 5e 38 	lds	r24, 0x385E	; 0x80385e <simonGameState>
    1e1a:	84 30       	cpi	r24, 0x04	; 4
        if (simonTimer >= 7) {
    1e1c:	49 f4       	brne	.+18     	; 0x1e30 <BastetDictates+0x172>
    1e1e:	80 91 5d 38 	lds	r24, 0x385D	; 0x80385d <simonTimer>
    1e22:	87 30       	cpi	r24, 0x07	; 7
            // on to next state after .5 second
            simonLed(0);  // LEDs off
    1e24:	28 f0       	brcs	.+10     	; 0x1e30 <BastetDictates+0x172>
    1e26:	80 e0       	ldi	r24, 0x00	; 0
    1e28:	ea de       	rcall	.-556    	; 0x1bfe <simonLed>
            simonGameState = BASTET_GAME_INPUT;
    1e2a:	85 e0       	ldi	r24, 0x05	; 5
    1e2c:	80 93 5e 38 	sts	0x385E, r24	; 0x80385e <simonGameState>
        }
    }

    ++simonTimer;
    1e30:	80 91 5d 38 	lds	r24, 0x385D	; 0x80385d <simonTimer>
    1e34:	8f 5f       	subi	r24, 0xFF	; 255
    1e36:	80 93 5d 38 	sts	0x385D, r24	; 0x80385d <simonTimer>
    return 0;
}
    1e3a:	80 e0       	ldi	r24, 0x00	; 0
    1e3c:	df 91       	pop	r29
    1e3e:	cf 91       	pop	r28
    1e40:	08 95       	ret

00001e42 <Cheat>:

//
void SetResponse(uint8_t number, uint16_t address, uint16_t length, uint8_t type){
    reactStr[0][number]=address;
    reactStr[1][number]=length;
    reactStr[2][number]=type;
    1e42:	1f 93       	push	r17
    1e44:	cf 93       	push	r28
    1e46:	df 93       	push	r29
    1e48:	cd b7       	in	r28, 0x3d	; 61
    1e4a:	de b7       	in	r29, 0x3e	; 62
    1e4c:	62 97       	sbiw	r28, 0x12	; 18
    1e4e:	cd bf       	out	0x3d, r28	; 61
    1e50:	de bf       	out	0x3e, r29	; 62
    1e52:	8a 8b       	std	Y+18, r24	; 0x12
    1e54:	80 e1       	ldi	r24, 0x10	; 16
    1e56:	e8 e7       	ldi	r30, 0x78	; 120
    1e58:	fe eb       	ldi	r31, 0xBE	; 190
    1e5a:	de 01       	movw	r26, r28
    1e5c:	11 96       	adiw	r26, 0x01	; 1
    1e5e:	01 90       	ld	r0, Z+
    1e60:	0d 92       	st	X+, r0
    1e62:	8a 95       	dec	r24
    1e64:	e1 f7       	brne	.-8      	; 0x1e5e <Cheat+0x1c>
    1e66:	fe 01       	movw	r30, r28
    1e68:	31 96       	adiw	r30, 0x01	; 1
    1e6a:	90 e0       	ldi	r25, 0x00	; 0
    1e6c:	8f ef       	ldi	r24, 0xFF	; 255
    1e6e:	21 91       	ld	r18, Z+
    1e70:	31 91       	ld	r19, Z+
    1e72:	26 17       	cp	r18, r22
    1e74:	37 07       	cpc	r19, r23
    1e76:	09 f4       	brne	.+2      	; 0x1e7a <Cheat+0x38>
    1e78:	89 2f       	mov	r24, r25
    1e7a:	9f 5f       	subi	r25, 0xFF	; 255
    1e7c:	98 30       	cpi	r25, 0x08	; 8
    1e7e:	b9 f7       	brne	.-18     	; 0x1e6e <Cheat+0x2c>
    1e80:	88 30       	cpi	r24, 0x08	; 8
    1e82:	10 f0       	brcs	.+4      	; 0x1e88 <Cheat+0x46>
    1e84:	80 e0       	ldi	r24, 0x00	; 0
    1e86:	12 c0       	rjmp	.+36     	; 0x1eac <Cheat+0x6a>
    1e88:	18 e1       	ldi	r17, 0x18	; 24
    1e8a:	18 0f       	add	r17, r24
    1e8c:	41 e0       	ldi	r20, 0x01	; 1
    1e8e:	be 01       	movw	r22, r28
    1e90:	6f 5e       	subi	r22, 0xEF	; 239
    1e92:	7f 4f       	sbci	r23, 0xFF	; 255
    1e94:	81 2f       	mov	r24, r17
    1e96:	83 d9       	rcall	.-3322   	; 0x119e <EERead>
    1e98:	89 89       	ldd	r24, Y+17	; 0x11
    1e9a:	8f 3f       	cpi	r24, 0xFF	; 255
    1e9c:	99 f7       	brne	.-26     	; 0x1e84 <Cheat+0x42>
    1e9e:	41 e0       	ldi	r20, 0x01	; 1
    1ea0:	be 01       	movw	r22, r28
    1ea2:	6e 5e       	subi	r22, 0xEE	; 238
    1ea4:	7f 4f       	sbci	r23, 0xFF	; 255
    1ea6:	81 2f       	mov	r24, r17
    1ea8:	8a d9       	rcall	.-3308   	; 0x11be <EEWrite>
    1eaa:	81 e0       	ldi	r24, 0x01	; 1
    1eac:	62 96       	adiw	r28, 0x12	; 18
    1eae:	cd bf       	out	0x3d, r28	; 61
    1eb0:	de bf       	out	0x3e, r29	; 62
    1eb2:	df 91       	pop	r29
    1eb4:	cf 91       	pop	r28
    1eb6:	1f 91       	pop	r17
    1eb8:	08 95       	ret

00001eba <DecryptData>:
    1eba:	f9 01       	movw	r30, r18
    1ebc:	9c 01       	movw	r18, r24
    1ebe:	2e 1b       	sub	r18, r30
    1ec0:	3f 0b       	sbc	r19, r31
    1ec2:	88 e0       	ldi	r24, 0x08	; 8
    1ec4:	48 9f       	mul	r20, r24
    1ec6:	a0 01       	movw	r20, r0
    1ec8:	11 24       	eor	r1, r1
    1eca:	46 59       	subi	r20, 0x96	; 150
    1ecc:	50 44       	sbci	r21, 0x40	; 64
    1ece:	66 23       	and	r22, r22
    1ed0:	69 f0       	breq	.+26     	; 0x1eec <DecryptData+0x32>
    1ed2:	df 01       	movw	r26, r30
    1ed4:	a2 0f       	add	r26, r18
    1ed6:	b3 1f       	adc	r27, r19
    1ed8:	a7 70       	andi	r26, 0x07	; 7
    1eda:	bb 27       	eor	r27, r27
    1edc:	a4 0f       	add	r26, r20
    1ede:	b5 1f       	adc	r27, r21
    1ee0:	80 81       	ld	r24, Z
    1ee2:	9c 91       	ld	r25, X
    1ee4:	98 27       	eor	r25, r24
    1ee6:	91 93       	st	Z+, r25
    1ee8:	61 50       	subi	r22, 0x01	; 1
    1eea:	f1 cf       	rjmp	.-30     	; 0x1ece <DecryptData+0x14>
    1eec:	08 95       	ret

00001eee <UnflipData>:
    1eee:	26 2f       	mov	r18, r22
    1ef0:	fb 01       	movw	r30, r22
    1ef2:	35 e5       	ldi	r19, 0x55	; 85
    1ef4:	9e 2f       	mov	r25, r30
    1ef6:	92 1b       	sub	r25, r18
    1ef8:	98 17       	cp	r25, r24
    1efa:	28 f4       	brcc	.+10     	; 0x1f06 <UnflipData+0x18>
    1efc:	90 81       	ld	r25, Z
    1efe:	92 95       	swap	r25
    1f00:	93 27       	eor	r25, r19
    1f02:	91 93       	st	Z+, r25
    1f04:	f7 cf       	rjmp	.-18     	; 0x1ef4 <UnflipData+0x6>
    1f06:	08 95       	ret

00001f08 <ExtEERead>:
    1f08:	af 92       	push	r10
    1f0a:	bf 92       	push	r11
    1f0c:	cf 92       	push	r12
    1f0e:	df 92       	push	r13
    1f10:	ef 92       	push	r14
    1f12:	ff 92       	push	r15
    1f14:	0f 93       	push	r16
    1f16:	1f 93       	push	r17
    1f18:	cf 93       	push	r28
    1f1a:	df 93       	push	r29
    1f1c:	00 d0       	rcall	.+0      	; 0x1f1e <ExtEERead+0x16>
    1f1e:	cd b7       	in	r28, 0x3d	; 61
    1f20:	de b7       	in	r29, 0x3e	; 62
    1f22:	d6 2e       	mov	r13, r22
    1f24:	c4 2e       	mov	r12, r20
    1f26:	59 01       	movw	r10, r18
    1f28:	7c 01       	movw	r14, r24
    1f2a:	e8 94       	clt
    1f2c:	f7 f8       	bld	r15, 7
    1f2e:	f9 82       	std	Y+1, r15	; 0x01
    1f30:	ea 82       	std	Y+2, r14	; 0x02
    1f32:	06 2f       	mov	r16, r22
    1f34:	42 e0       	ldi	r20, 0x02	; 2
    1f36:	be 01       	movw	r22, r28
    1f38:	6f 5f       	subi	r22, 0xFF	; 255
    1f3a:	7f 4f       	sbci	r23, 0xFF	; 255
    1f3c:	80 e5       	ldi	r24, 0x50	; 80
    1f3e:	0e 94 b8 02 	call	0x570	; 0x570 <I2C_read_bytes>
    1f42:	18 2f       	mov	r17, r24
    1f44:	81 11       	cpse	r24, r1
    1f46:	05 c0       	rjmp	.+10     	; 0x1f52 <ExtEERead+0x4a>
    1f48:	95 01       	movw	r18, r10
    1f4a:	4c 2d       	mov	r20, r12
    1f4c:	6d 2d       	mov	r22, r13
    1f4e:	c7 01       	movw	r24, r14
    1f50:	b4 df       	rcall	.-152    	; 0x1eba <DecryptData>
    1f52:	81 2f       	mov	r24, r17
    1f54:	0f 90       	pop	r0
    1f56:	0f 90       	pop	r0
    1f58:	df 91       	pop	r29
    1f5a:	cf 91       	pop	r28
    1f5c:	1f 91       	pop	r17
    1f5e:	0f 91       	pop	r16
    1f60:	ff 90       	pop	r15
    1f62:	ef 90       	pop	r14
    1f64:	df 90       	pop	r13
    1f66:	cf 90       	pop	r12
    1f68:	bf 90       	pop	r11
    1f6a:	af 90       	pop	r10
    1f6c:	08 95       	ret

00001f6e <ClearTxAfter>:
    1f6e:	8f 5f       	subi	r24, 0xFF	; 255
    1f70:	88 30       	cpi	r24, 0x08	; 8
    1f72:	30 f4       	brcc	.+12     	; 0x1f80 <ClearTxAfter+0x12>
    1f74:	e8 2f       	mov	r30, r24
    1f76:	f0 e0       	ldi	r31, 0x00	; 0
    1f78:	e6 5b       	subi	r30, 0xB6	; 182
    1f7a:	f5 4c       	sbci	r31, 0xC5	; 197
    1f7c:	10 82       	st	Z, r1
    1f7e:	f7 cf       	rjmp	.-18     	; 0x1f6e <ClearTxAfter>
    1f80:	08 95       	ret

00001f82 <StartsWith>:
    1f82:	ac 01       	movw	r20, r24
    1f84:	90 e0       	ldi	r25, 0x00	; 0
    1f86:	e9 2f       	mov	r30, r25
    1f88:	f0 e0       	ldi	r31, 0x00	; 0
    1f8a:	da 01       	movw	r26, r20
    1f8c:	ae 0f       	add	r26, r30
    1f8e:	bf 1f       	adc	r27, r31
    1f90:	3c 91       	ld	r19, X
    1f92:	e6 0f       	add	r30, r22
    1f94:	f7 1f       	adc	r31, r23
    1f96:	31 11       	cpse	r19, r1
    1f98:	05 c0       	rjmp	.+10     	; 0x1fa4 <StartsWith+0x22>
    1f9a:	81 e0       	ldi	r24, 0x01	; 1
    1f9c:	90 81       	ld	r25, Z
    1f9e:	99 23       	and	r25, r25
    1fa0:	49 f0       	breq	.+18     	; 0x1fb4 <StartsWith+0x32>
    1fa2:	07 c0       	rjmp	.+14     	; 0x1fb2 <StartsWith+0x30>
    1fa4:	20 81       	ld	r18, Z
    1fa6:	22 23       	and	r18, r18
    1fa8:	c1 f3       	breq	.-16     	; 0x1f9a <StartsWith+0x18>
    1faa:	32 13       	cpse	r19, r18
    1fac:	02 c0       	rjmp	.+4      	; 0x1fb2 <StartsWith+0x30>
    1fae:	9f 5f       	subi	r25, 0xFF	; 255
    1fb0:	ea cf       	rjmp	.-44     	; 0x1f86 <StartsWith+0x4>
    1fb2:	80 e0       	ldi	r24, 0x00	; 0
    1fb4:	08 95       	ret

00001fb6 <PrepareSending>:
    1fb6:	cf 93       	push	r28
    1fb8:	df 93       	push	r29
    1fba:	fc 01       	movw	r30, r24
    1fbc:	61 15       	cp	r22, r1
    1fbe:	71 05       	cpc	r23, r1
    1fc0:	59 f1       	breq	.+86     	; 0x2018 <PrepareSending+0x62>
    1fc2:	a2 e5       	ldi	r26, 0x52	; 82
    1fc4:	ba e3       	ldi	r27, 0x3A	; 58
    1fc6:	ca e4       	ldi	r28, 0x4A	; 74
    1fc8:	da e3       	ldi	r29, 0x3A	; 58
    1fca:	80 e0       	ldi	r24, 0x00	; 0
    1fcc:	9f ef       	ldi	r25, 0xFF	; 255
    1fce:	6f 3f       	cpi	r22, 0xFF	; 255
    1fd0:	71 05       	cpc	r23, r1
    1fd2:	69 f0       	breq	.+26     	; 0x1fee <PrepareSending+0x38>
    1fd4:	60 f0       	brcs	.+24     	; 0x1fee <PrepareSending+0x38>
    1fd6:	ed 93       	st	X+, r30
    1fd8:	fd 93       	st	X+, r31
    1fda:	99 93       	st	Y+, r25
    1fdc:	e1 50       	subi	r30, 0x01	; 1
    1fde:	ff 4f       	sbci	r31, 0xFF	; 255
    1fe0:	6f 5f       	subi	r22, 0xFF	; 255
    1fe2:	71 09       	sbc	r23, r1
    1fe4:	8f 5f       	subi	r24, 0xFF	; 255
    1fe6:	87 30       	cpi	r24, 0x07	; 7
    1fe8:	91 f7       	brne	.-28     	; 0x1fce <PrepareSending+0x18>
    1fea:	81 e0       	ldi	r24, 0x01	; 1
    1fec:	1e c0       	rjmp	.+60     	; 0x202a <PrepareSending+0x74>
    1fee:	28 2f       	mov	r18, r24
    1ff0:	30 e0       	ldi	r19, 0x00	; 0
    1ff2:	d9 01       	movw	r26, r18
    1ff4:	aa 0f       	add	r26, r26
    1ff6:	bb 1f       	adc	r27, r27
    1ff8:	ae 5a       	subi	r26, 0xAE	; 174
    1ffa:	b5 4c       	sbci	r27, 0xC5	; 197
    1ffc:	ed 93       	st	X+, r30
    1ffe:	fc 93       	st	X, r31
    2000:	6f 3f       	cpi	r22, 0xFF	; 255
    2002:	71 05       	cpc	r23, r1
    2004:	11 f4       	brne	.+4      	; 0x200a <PrepareSending+0x54>
    2006:	6e ef       	ldi	r22, 0xFE	; 254
    2008:	70 e0       	ldi	r23, 0x00	; 0
    200a:	f9 01       	movw	r30, r18
    200c:	e6 5b       	subi	r30, 0xB6	; 182
    200e:	f5 4c       	sbci	r31, 0xC5	; 197
    2010:	60 83       	st	Z, r22
    2012:	40 93 48 3a 	sts	0x3A48, r20	; 0x803a48 <txTypeNow>
    2016:	05 c0       	rjmp	.+10     	; 0x2022 <PrepareSending+0x6c>
    2018:	10 92 52 3a 	sts	0x3A52, r1	; 0x803a52 <txAddrList>
    201c:	10 92 53 3a 	sts	0x3A53, r1	; 0x803a53 <txAddrList+0x1>
    2020:	80 e0       	ldi	r24, 0x00	; 0
    2022:	a5 df       	rcall	.-182    	; 0x1f6e <ClearTxAfter>
    2024:	10 92 49 3a 	sts	0x3A49, r1	; 0x803a49 <txAddrNow>
    2028:	80 e0       	ldi	r24, 0x00	; 0
    202a:	df 91       	pop	r29
    202c:	cf 91       	pop	r28
    202e:	08 95       	ret

00002030 <SetStandardResponse>:
}

//
uint8_t SetStandardResponse(uint8_t custStrEnd){
    2030:	cf 93       	push	r28
    2032:	df 93       	push	r29
    return 0;
}

//
void SetResponse(uint8_t number, uint16_t address, uint16_t length, uint8_t type){
    reactStr[0][number]=address;
    2034:	28 2f       	mov	r18, r24
    2036:	30 e0       	ldi	r19, 0x00	; 0
    2038:	f9 01       	movw	r30, r18
    203a:	ee 0f       	add	r30, r30
    203c:	ff 1f       	adc	r31, r31
    203e:	e3 5e       	subi	r30, 0xE3	; 227
    2040:	f6 4c       	sbci	r31, 0xC6	; 198
    2042:	ab e5       	ldi	r26, 0x5B	; 91
    2044:	ba e7       	ldi	r27, 0x7A	; 122
    2046:	a0 83       	st	Z, r26
    2048:	b1 83       	std	Z+1, r27	; 0x01
    reactStr[1][number]=length;
    204a:	f9 01       	movw	r30, r18
    204c:	ee 0f       	add	r30, r30
    204e:	ff 1f       	adc	r31, r31
    2050:	e3 5a       	subi	r30, 0xA3	; 163
    2052:	f6 4c       	sbci	r31, 0xC6	; 198
    2054:	62 e0       	ldi	r22, 0x02	; 2
    2056:	70 e0       	ldi	r23, 0x00	; 0
    2058:	60 83       	st	Z, r22
    205a:	71 83       	std	Z+1, r23	; 0x01
    reactStr[2][number]=type;
    205c:	22 0f       	add	r18, r18
    205e:	33 1f       	adc	r19, r19
    2060:	f9 01       	movw	r30, r18
    2062:	e3 56       	subi	r30, 0x63	; 99
    2064:	f6 4c       	sbci	r31, 0xC6	; 198
    2066:	41 e0       	ldi	r20, 0x01	; 1
    2068:	50 e0       	ldi	r21, 0x00	; 0
    206a:	40 83       	st	Z, r20
    206c:	51 83       	std	Z+1, r21	; 0x01
    return 0;
}

//
void SetResponse(uint8_t number, uint16_t address, uint16_t length, uint8_t type){
    reactStr[0][number]=address;
    206e:	21 e0       	ldi	r18, 0x01	; 1
    2070:	28 0f       	add	r18, r24
    2072:	30 e0       	ldi	r19, 0x00	; 0
    2074:	f9 01       	movw	r30, r18
    2076:	ee 0f       	add	r30, r30
    2078:	ff 1f       	adc	r31, r31
    207a:	e3 5e       	subi	r30, 0xE3	; 227
    207c:	f6 4c       	sbci	r31, 0xC6	; 198
    207e:	c4 e6       	ldi	r28, 0x64	; 100
    2080:	da e7       	ldi	r29, 0x7A	; 122
    2082:	c0 83       	st	Z, r28
    2084:	d1 83       	std	Z+1, r29	; 0x01
    reactStr[1][number]=length;
    2086:	f9 01       	movw	r30, r18
    2088:	ee 0f       	add	r30, r30
    208a:	ff 1f       	adc	r31, r31
    208c:	e3 5a       	subi	r30, 0xA3	; 163
    208e:	f6 4c       	sbci	r31, 0xC6	; 198
    2090:	ca e0       	ldi	r28, 0x0A	; 10
    2092:	d0 e0       	ldi	r29, 0x00	; 0
    2094:	c0 83       	st	Z, r28
    2096:	d1 83       	std	Z+1, r29	; 0x01
    reactStr[2][number]=type;
    2098:	22 0f       	add	r18, r18
    209a:	33 1f       	adc	r19, r19
    209c:	f9 01       	movw	r30, r18
    209e:	e3 56       	subi	r30, 0x63	; 99
    20a0:	f6 4c       	sbci	r31, 0xC6	; 198
    20a2:	40 83       	st	Z, r20
    20a4:	51 83       	std	Z+1, r21	; 0x01
uint8_t SetStandardResponse(uint8_t custStrEnd){

    SetResponse(custStrEnd++, A_LF, 2, TEASER);
    SetResponse(custStrEnd++, A_LOCATION, L_LOCATION, TEASER);
    //SetResponse(custStrEnd++, A_SPACE, L_SPACE, TEASER);
    reactStr[0][custStrEnd++] = CURR_LOC;
    20a6:	e2 e0       	ldi	r30, 0x02	; 2
    20a8:	e8 0f       	add	r30, r24
    20aa:	f0 e0       	ldi	r31, 0x00	; 0
    20ac:	ee 0f       	add	r30, r30
    20ae:	ff 1f       	adc	r31, r31
    20b0:	e3 5e       	subi	r30, 0xE3	; 227
    20b2:	f6 4c       	sbci	r31, 0xC6	; 198
    20b4:	20 ef       	ldi	r18, 0xF0	; 240
    20b6:	3f ef       	ldi	r19, 0xFF	; 255
    20b8:	20 83       	st	Z, r18
    20ba:	31 83       	std	Z+1, r19	; 0x01
    return 0;
}

//
void SetResponse(uint8_t number, uint16_t address, uint16_t length, uint8_t type){
    reactStr[0][number]=address;
    20bc:	23 e0       	ldi	r18, 0x03	; 3
    20be:	28 0f       	add	r18, r24
    20c0:	30 e0       	ldi	r19, 0x00	; 0
    20c2:	f9 01       	movw	r30, r18
    20c4:	ee 0f       	add	r30, r30
    20c6:	ff 1f       	adc	r31, r31
    20c8:	e3 5e       	subi	r30, 0xE3	; 227
    20ca:	f6 4c       	sbci	r31, 0xC6	; 198
    20cc:	a0 83       	st	Z, r26
    20ce:	b1 83       	std	Z+1, r27	; 0x01
    reactStr[1][number]=length;
    20d0:	f9 01       	movw	r30, r18
    20d2:	ee 0f       	add	r30, r30
    20d4:	ff 1f       	adc	r31, r31
    20d6:	e3 5a       	subi	r30, 0xA3	; 163
    20d8:	f6 4c       	sbci	r31, 0xC6	; 198
    20da:	60 83       	st	Z, r22
    20dc:	71 83       	std	Z+1, r23	; 0x01
    reactStr[2][number]=type;
    20de:	22 0f       	add	r18, r18
    20e0:	33 1f       	adc	r19, r19
    20e2:	f9 01       	movw	r30, r18
    20e4:	e3 56       	subi	r30, 0x63	; 99
    20e6:	f6 4c       	sbci	r31, 0xC6	; 198
    20e8:	40 83       	st	Z, r20
    20ea:	51 83       	std	Z+1, r21	; 0x01
    return 0;
}

//
void SetResponse(uint8_t number, uint16_t address, uint16_t length, uint8_t type){
    reactStr[0][number]=address;
    20ec:	24 e0       	ldi	r18, 0x04	; 4
    20ee:	28 0f       	add	r18, r24
    20f0:	30 e0       	ldi	r19, 0x00	; 0
    20f2:	f9 01       	movw	r30, r18
    20f4:	ee 0f       	add	r30, r30
    20f6:	ff 1f       	adc	r31, r31
    20f8:	e3 5e       	subi	r30, 0xE3	; 227
    20fa:	f6 4c       	sbci	r31, 0xC6	; 198
    20fc:	a7 e5       	ldi	r26, 0x57	; 87
    20fe:	ba e7       	ldi	r27, 0x7A	; 122
    2100:	a0 83       	st	Z, r26
    2102:	b1 83       	std	Z+1, r27	; 0x01
    reactStr[1][number]=length;
    2104:	f9 01       	movw	r30, r18
    2106:	ee 0f       	add	r30, r30
    2108:	ff 1f       	adc	r31, r31
    210a:	e3 5a       	subi	r30, 0xA3	; 163
    210c:	f6 4c       	sbci	r31, 0xC6	; 198
    210e:	60 83       	st	Z, r22
    2110:	71 83       	std	Z+1, r23	; 0x01
    reactStr[2][number]=type;
    2112:	22 0f       	add	r18, r18
    2114:	33 1f       	adc	r19, r19
    2116:	f9 01       	movw	r30, r18
    2118:	e3 56       	subi	r30, 0x63	; 99
    211a:	f6 4c       	sbci	r31, 0xC6	; 198
    211c:	40 83       	st	Z, r20
    211e:	51 83       	std	Z+1, r21	; 0x01
    SetResponse(custStrEnd++, A_LF, 2, TEASER);
    SetResponse(custStrEnd++, A_PROMPT, L_PROMPT, TEASER);
    //SetResponse(custStrEnd++, A_SPACE, L_SPACE, TEASER);

    return custStrEnd;
}
    2120:	8b 5f       	subi	r24, 0xFB	; 251
    2122:	df 91       	pop	r29
    2124:	cf 91       	pop	r28
    2126:	08 95       	ret

00002128 <PopulateObject>:

//Get all the relevant data and string addresses of an object
void PopulateObject(uint16_t offset, object_model_t *object){
    2128:	af 92       	push	r10
    212a:	bf 92       	push	r11
    212c:	df 92       	push	r13
    212e:	ef 92       	push	r14
    2130:	ff 92       	push	r15
    2132:	0f 93       	push	r16
    2134:	1f 93       	push	r17
    2136:	cf 93       	push	r28
    2138:	df 93       	push	r29
    213a:	cd b7       	in	r28, 0x3d	; 61
    213c:	de b7       	in	r29, 0x3e	; 62
    213e:	2c 97       	sbiw	r28, 0x0c	; 12
    2140:	cd bf       	out	0x3d, r28	; 61
    2142:	de bf       	out	0x3e, r29	; 62
    2144:	7c 01       	movw	r14, r24
    2146:	8b 01       	movw	r16, r22
    uint16_t parStr;
    offset += L_BOILER;

    //Fill things with fixed distance to offset
    uint8_t data[OFF_STRINGFLDS];
    ExtEERead(offset, OFF_STRINGFLDS, GAME, &data[0]);
    2148:	9e 01       	movw	r18, r28
    214a:	2f 5f       	subi	r18, 0xFF	; 255
    214c:	3f 4f       	sbci	r19, 0xFF	; 255
    214e:	40 e0       	ldi	r20, 0x00	; 0
    2150:	6c e0       	ldi	r22, 0x0C	; 12
    2152:	80 96       	adiw	r24, 0x20	; 32
    2154:	d9 de       	rcall	.-590    	; 0x1f08 <ExtEERead>
    object->addrNextObj = (data[OFF_NEXTOBJ]<<8|data[OFF_NEXTOBJ+1])+L_BOILER;
    2156:	89 81       	ldd	r24, Y+1	; 0x01
    2158:	9a 81       	ldd	r25, Y+2	; 0x02
    215a:	98 27       	eor	r25, r24
    215c:	89 27       	eor	r24, r25
    215e:	98 27       	eor	r25, r24
    2160:	80 96       	adiw	r24, 0x20	; 32
    2162:	f8 01       	movw	r30, r16
    2164:	80 83       	st	Z, r24
    2166:	91 83       	std	Z+1, r25	; 0x01
    object->addrNextLvl = (data[OFF_NEXTLVL]<<8|data[OFF_NEXTLVL+1])+L_BOILER;
    2168:	8b 81       	ldd	r24, Y+3	; 0x03
    216a:	9c 81       	ldd	r25, Y+4	; 0x04
    216c:	98 27       	eor	r25, r24
    216e:	89 27       	eor	r24, r25
    2170:	98 27       	eor	r25, r24
    2172:	80 96       	adiw	r24, 0x20	; 32
    2174:	82 83       	std	Z+2, r24	; 0x02
    2176:	93 83       	std	Z+3, r25	; 0x03
    2178:	de 01       	movw	r26, r28
    217a:	15 96       	adiw	r26, 0x05	; 5
    217c:	34 96       	adiw	r30, 0x04	; 4
    217e:	c8 01       	movw	r24, r16
    2180:	0c 96       	adiw	r24, 0x0c	; 12
    for (uint8_t x=0; x<BYTE_FIELDS_LEN; ++x){
        object->byteField[x]=data[x+OFF_BYTEFLDS];
    2182:	2d 91       	ld	r18, X+
    2184:	21 93       	st	Z+, r18
    //Fill things with fixed distance to offset
    uint8_t data[OFF_STRINGFLDS];
    ExtEERead(offset, OFF_STRINGFLDS, GAME, &data[0]);
    object->addrNextObj = (data[OFF_NEXTOBJ]<<8|data[OFF_NEXTOBJ+1])+L_BOILER;
    object->addrNextLvl = (data[OFF_NEXTLVL]<<8|data[OFF_NEXTLVL+1])+L_BOILER;
    for (uint8_t x=0; x<BYTE_FIELDS_LEN; ++x){
    2186:	e8 17       	cp	r30, r24
    2188:	f9 07       	cpc	r31, r25
    218a:	d9 f7       	brne	.-10     	; 0x2182 <PopulateObject+0x5a>
        object->byteField[x]=data[x+OFF_BYTEFLDS];
    }

    //Find out where all of the strings begin and how long they are
    offset += OFF_STRINGFLDS;
    218c:	fc e2       	ldi	r31, 0x2C	; 44
    218e:	ef 0e       	add	r14, r31
    2190:	f1 1c       	adc	r15, r1
    2192:	58 01       	movw	r10, r16
    for(uint8_t x=0; x<STRING_FIELDS_LEN; ++x){
    2194:	d1 2c       	mov	r13, r1
        
        //Determine length
        ExtEERead(offset, 3, GAME, &data[0]);
    2196:	9e 01       	movw	r18, r28
    2198:	2f 5f       	subi	r18, 0xFF	; 255
    219a:	3f 4f       	sbci	r19, 0xFF	; 255
    219c:	40 e0       	ldi	r20, 0x00	; 0
    219e:	63 e0       	ldi	r22, 0x03	; 3
    21a0:	c7 01       	movw	r24, r14
    21a2:	b2 de       	rcall	.-668    	; 0x1f08 <ExtEERead>
    21a4:	89 81       	ldd	r24, Y+1	; 0x01
    21a6:	9a 81       	ldd	r25, Y+2	; 0x02
    21a8:	98 27       	eor	r25, r24
    21aa:	89 27       	eor	r24, r25
    21ac:	98 27       	eor	r25, r24
        parStr = (data[0]<<8|data[1]);
        offset += 2;
    21ae:	97 01       	movw	r18, r14
    21b0:	2e 5f       	subi	r18, 0xFE	; 254
    21b2:	3f 4f       	sbci	r19, 0xFF	; 255
        if (x >= OPEN_ACL_MSG){
    21b4:	43 e0       	ldi	r20, 0x03	; 3
    21b6:	4d 15       	cp	r20, r13
    21b8:	80 f4       	brcc	.+32     	; 0x21da <PopulateObject+0xb2>
            object->lenStr[x]= parStr-1;
    21ba:	ac 01       	movw	r20, r24
    21bc:	41 50       	subi	r20, 0x01	; 1
    21be:	51 09       	sbc	r21, r1
    21c0:	f8 01       	movw	r30, r16
    21c2:	42 8f       	std	Z+26, r20	; 0x1a
    21c4:	53 8f       	std	Z+27, r21	; 0x1b
            object->addrStr[x]=offset+1;
    21c6:	f3 e0       	ldi	r31, 0x03	; 3
    21c8:	ef 0e       	add	r14, r31
    21ca:	f1 1c       	adc	r15, r1
    21cc:	f8 01       	movw	r30, r16
    21ce:	e4 86       	std	Z+12, r14	; 0x0c
    21d0:	f5 86       	std	Z+13, r15	; 0x0d
            object->effect[x-OPEN_ACL_MSG] = data[2];
    21d2:	4b 81       	ldd	r20, Y+3	; 0x03
    21d4:	f5 01       	movw	r30, r10
    21d6:	44 a3       	std	Z+36, r20	; 0x24
    21d8:	05 c0       	rjmp	.+10     	; 0x21e4 <PopulateObject+0xbc>
        } else {
            object->lenStr[x]= parStr;
    21da:	f8 01       	movw	r30, r16
    21dc:	82 8f       	std	Z+26, r24	; 0x1a
    21de:	93 8f       	std	Z+27, r25	; 0x1b
            object->addrStr[x]=offset;
    21e0:	24 87       	std	Z+12, r18	; 0x0c
    21e2:	35 87       	std	Z+13, r19	; 0x0d
        }
        
        //Determine string start location for next field
        offset += parStr;
    21e4:	7c 01       	movw	r14, r24
    21e6:	e2 0e       	add	r14, r18
    21e8:	f3 1e       	adc	r15, r19
        object->byteField[x]=data[x+OFF_BYTEFLDS];
    }

    //Find out where all of the strings begin and how long they are
    offset += OFF_STRINGFLDS;
    for(uint8_t x=0; x<STRING_FIELDS_LEN; ++x){
    21ea:	d3 94       	inc	r13
    21ec:	0e 5f       	subi	r16, 0xFE	; 254
    21ee:	1f 4f       	sbci	r17, 0xFF	; 255
    21f0:	ff ef       	ldi	r31, 0xFF	; 255
    21f2:	af 1a       	sub	r10, r31
    21f4:	bf 0a       	sbc	r11, r31
    21f6:	47 e0       	ldi	r20, 0x07	; 7
    21f8:	d4 12       	cpse	r13, r20
    21fa:	cd cf       	rjmp	.-102    	; 0x2196 <PopulateObject+0x6e>
        }
        
        //Determine string start location for next field
        offset += parStr;
    }    
}
    21fc:	2c 96       	adiw	r28, 0x0c	; 12
    21fe:	cd bf       	out	0x3d, r28	; 61
    2200:	de bf       	out	0x3e, r29	; 62
    2202:	df 91       	pop	r29
    2204:	cf 91       	pop	r28
    2206:	1f 91       	pop	r17
    2208:	0f 91       	pop	r16
    220a:	ff 90       	pop	r15
    220c:	ef 90       	pop	r14
    220e:	df 90       	pop	r13
    2210:	bf 90       	pop	r11
    2212:	af 90       	pop	r10
    2214:	08 95       	ret

00002216 <CheckLetter>:

//Check if the entered letter corresponds with a name
uint8_t CheckLetter(uint16_t object, uint8_t letter){
    2216:	cf 92       	push	r12
    2218:	df 92       	push	r13
    221a:	ef 92       	push	r14
    221c:	ff 92       	push	r15
    221e:	0f 93       	push	r16
    2220:	1f 93       	push	r17
    2222:	cf 93       	push	r28
    2224:	df 93       	push	r29
    2226:	cd b7       	in	r28, 0x3d	; 61
    2228:	de b7       	in	r29, 0x3e	; 62
    222a:	a0 97       	sbiw	r28, 0x20	; 32
    222c:	cd bf       	out	0x3d, r28	; 61
    222e:	de bf       	out	0x3e, r29	; 62
    2230:	c6 2e       	mov	r12, r22
    
    uint8_t found = 0;
    uint8_t data[32];

    object += L_BOILER;
    2232:	7c 01       	movw	r14, r24
    2234:	20 e2       	ldi	r18, 0x20	; 32
    2236:	e2 0e       	add	r14, r18
    2238:	f1 1c       	adc	r15, r1
    ExtEERead(object+OFF_STRINGFLDS, 2, GAME, &data[0]);
    223a:	9e 01       	movw	r18, r28
    223c:	2f 5f       	subi	r18, 0xFF	; 255
    223e:	3f 4f       	sbci	r19, 0xFF	; 255
    2240:	40 e0       	ldi	r20, 0x00	; 0
    2242:	62 e0       	ldi	r22, 0x02	; 2
    2244:	8c 96       	adiw	r24, 0x2c	; 44
    2246:	60 de       	rcall	.-832    	; 0x1f08 <ExtEERead>
    uint8_t x = data[1]; //Assuming a name is not longer than 255 characters.
    2248:	1a 81       	ldd	r17, Y+2	; 0x02
}

//Check if the entered letter corresponds with a name
uint8_t CheckLetter(uint16_t object, uint8_t letter){
    
    uint8_t found = 0;
    224a:	d1 2c       	mov	r13, r1

    object += L_BOILER;
    ExtEERead(object+OFF_STRINGFLDS, 2, GAME, &data[0]);
    uint8_t x = data[1]; //Assuming a name is not longer than 255 characters.

    while (x){
    224c:	11 23       	and	r17, r17
    224e:	51 f1       	breq	.+84     	; 0x22a4 <CheckLetter+0x8e>
    2250:	01 2f       	mov	r16, r17
    2252:	11 32       	cpi	r17, 0x21	; 33
    2254:	08 f0       	brcs	.+2      	; 0x2258 <CheckLetter+0x42>
    2256:	00 e2       	ldi	r16, 0x20	; 32
        uint8_t max;
        if (x>32) max = 32; else max = x;
        ExtEERead(object+OFF_STRINGFLDS+2, max, GAME, &data[0]);
    2258:	9e 01       	movw	r18, r28
    225a:	2f 5f       	subi	r18, 0xFF	; 255
    225c:	3f 4f       	sbci	r19, 0xFF	; 255
    225e:	40 e0       	ldi	r20, 0x00	; 0
    2260:	60 2f       	mov	r22, r16
    2262:	c7 01       	movw	r24, r14
    2264:	0e 96       	adiw	r24, 0x0e	; 14
    2266:	50 de       	rcall	.-864    	; 0x1f08 <ExtEERead>
    2268:	fe 01       	movw	r30, r28
    226a:	31 96       	adiw	r30, 0x01	; 1
        for (uint8_t y=0; y<max; ++y){
    226c:	80 e0       	ldi	r24, 0x00	; 0
            if (found){
    226e:	dd 20       	and	r13, r13
    2270:	61 f0       	breq	.+24     	; 0x228a <CheckLetter+0x74>
                if ((data[y]|0x20) == letter) return 1; else return 0;
    2272:	e1 e0       	ldi	r30, 0x01	; 1
    2274:	f0 e0       	ldi	r31, 0x00	; 0
    2276:	ec 0f       	add	r30, r28
    2278:	fd 1f       	adc	r31, r29
    227a:	e8 0f       	add	r30, r24
    227c:	f1 1d       	adc	r31, r1
    227e:	90 81       	ld	r25, Z
    2280:	90 62       	ori	r25, 0x20	; 32
    2282:	81 e0       	ldi	r24, 0x01	; 1
    2284:	9c 11       	cpse	r25, r12
    2286:	0e c0       	rjmp	.+28     	; 0x22a4 <CheckLetter+0x8e>
    2288:	0e c0       	rjmp	.+28     	; 0x22a6 <CheckLetter+0x90>
            }
            if (data[y] == '[') found = 1;
    228a:	91 91       	ld	r25, Z+
    228c:	dd 24       	eor	r13, r13
    228e:	d3 94       	inc	r13
    2290:	9b 35       	cpi	r25, 0x5B	; 91
    2292:	09 f0       	breq	.+2      	; 0x2296 <CheckLetter+0x80>
    2294:	d1 2c       	mov	r13, r1

    while (x){
        uint8_t max;
        if (x>32) max = 32; else max = x;
        ExtEERead(object+OFF_STRINGFLDS+2, max, GAME, &data[0]);
        for (uint8_t y=0; y<max; ++y){
    2296:	8f 5f       	subi	r24, 0xFF	; 255
    2298:	80 17       	cp	r24, r16
    229a:	48 f3       	brcs	.-46     	; 0x226e <CheckLetter+0x58>
            if (found){
                if ((data[y]|0x20) == letter) return 1; else return 0;
            }
            if (data[y] == '[') found = 1;
        }
        object += max;
    229c:	e0 0e       	add	r14, r16
    229e:	f1 1c       	adc	r15, r1
        x -= max;
    22a0:	10 1b       	sub	r17, r16
    22a2:	d4 cf       	rjmp	.-88     	; 0x224c <CheckLetter+0x36>
    }
    return 0;
    22a4:	80 e0       	ldi	r24, 0x00	; 0
}
    22a6:	a0 96       	adiw	r28, 0x20	; 32
    22a8:	cd bf       	out	0x3d, r28	; 61
    22aa:	de bf       	out	0x3e, r29	; 62
    22ac:	df 91       	pop	r29
    22ae:	cf 91       	pop	r28
    22b0:	1f 91       	pop	r17
    22b2:	0f 91       	pop	r16
    22b4:	ff 90       	pop	r15
    22b6:	ef 90       	pop	r14
    22b8:	df 90       	pop	r13
    22ba:	cf 90       	pop	r12
    22bc:	08 95       	ret

000022be <FindChild>:

//Returns the child's address if the child is visible and the search letter matches
uint16_t FindChild(uint16_t parent, uint8_t letter, uint16_t start){
    22be:	af 92       	push	r10
    22c0:	bf 92       	push	r11
    22c2:	df 92       	push	r13
    22c4:	ef 92       	push	r14
    22c6:	ff 92       	push	r15
    22c8:	0f 93       	push	r16
    22ca:	1f 93       	push	r17
    22cc:	cf 93       	push	r28
    22ce:	df 93       	push	r29
    22d0:	00 d0       	rcall	.+0      	; 0x22d2 <FindChild+0x14>
    22d2:	00 d0       	rcall	.+0      	; 0x22d4 <FindChild+0x16>
    22d4:	cd b7       	in	r28, 0x3d	; 61
    22d6:	de b7       	in	r29, 0x3e	; 62
    22d8:	d6 2e       	mov	r13, r22
    22da:	5a 01       	movw	r10, r20
    
    uint16_t child = parent;
    uint8_t data[4];

    ExtEERead(child+L_BOILER, 4, GAME, &data[0]);
    22dc:	9e 01       	movw	r18, r28
    22de:	2f 5f       	subi	r18, 0xFF	; 255
    22e0:	3f 4f       	sbci	r19, 0xFF	; 255
    22e2:	40 e0       	ldi	r20, 0x00	; 0
    22e4:	64 e0       	ldi	r22, 0x04	; 4
    22e6:	80 96       	adiw	r24, 0x20	; 32
    22e8:	0f de       	rcall	.-994    	; 0x1f08 <ExtEERead>
    22ea:	e9 80       	ldd	r14, Y+1	; 0x01
    22ec:	fa 80       	ldd	r15, Y+2	; 0x02
    22ee:	fe 24       	eor	r15, r14
    22f0:	ef 24       	eor	r14, r15
    22f2:	fe 24       	eor	r15, r14
    22f4:	0b 81       	ldd	r16, Y+3	; 0x03
    22f6:	1c 81       	ldd	r17, Y+4	; 0x04
    22f8:	10 27       	eor	r17, r16
    22fa:	01 27       	eor	r16, r17
    22fc:	10 27       	eor	r17, r16
    parent = (data[0]<<8|data[1]);    //Next object on parent level
    child =  (data[2]<<8|data[3]);    //First object on child level

    //As long as the child is within the parent's range
    while (parent>child){
    22fe:	0e 15       	cp	r16, r14
    2300:	1f 05       	cpc	r17, r15
    2302:	30 f5       	brcc	.+76     	; 0x2350 <FindChild+0x92>

        //If child's address is higher than the start address, perform search for letter
        if (child>start){
    2304:	a0 16       	cp	r10, r16
    2306:	b1 06       	cpc	r11, r17
    2308:	58 f0       	brcs	.+22     	; 0x2320 <FindChild+0x62>
                if ((letter == 0)||(CheckLetter(child, letter))) return child;
            }
        }

        //Not visible or name not right
        ExtEERead(child+L_BOILER, 2, GAME, &data[0]);
    230a:	9e 01       	movw	r18, r28
    230c:	2f 5f       	subi	r18, 0xFF	; 255
    230e:	3f 4f       	sbci	r19, 0xFF	; 255
    2310:	40 e0       	ldi	r20, 0x00	; 0
    2312:	62 e0       	ldi	r22, 0x02	; 2
    2314:	c8 01       	movw	r24, r16
    2316:	80 96       	adiw	r24, 0x20	; 32
    2318:	f7 dd       	rcall	.-1042   	; 0x1f08 <ExtEERead>
    231a:	09 81       	ldd	r16, Y+1	; 0x01
    231c:	1a 81       	ldd	r17, Y+2	; 0x02
    231e:	ec cf       	rjmp	.-40     	; 0x22f8 <FindChild+0x3a>
    //As long as the child is within the parent's range
    while (parent>child){

        //If child's address is higher than the start address, perform search for letter
        if (child>start){
            ExtEERead(child+OFF_BYTEFLDS+VISIBLE_ACL+L_BOILER, 1, GAME, &data[0]);
    2320:	9e 01       	movw	r18, r28
    2322:	2f 5f       	subi	r18, 0xFF	; 255
    2324:	3f 4f       	sbci	r19, 0xFF	; 255
    2326:	40 e0       	ldi	r20, 0x00	; 0
    2328:	61 e0       	ldi	r22, 0x01	; 1
    232a:	c8 01       	movw	r24, r16
    232c:	85 96       	adiw	r24, 0x25	; 37
    232e:	ec dd       	rcall	.-1064   	; 0x1f08 <ExtEERead>
            if ((data[0] == 0)||(CheckState(data[0]))) {
    2330:	89 81       	ldd	r24, Y+1	; 0x01
    2332:	81 11       	cpse	r24, r1
    2334:	03 c0       	rjmp	.+6      	; 0x233c <FindChild+0x7e>
                if ((letter == 0)||(CheckLetter(child, letter))) return child;
    2336:	d1 10       	cpse	r13, r1
    2338:	05 c0       	rjmp	.+10     	; 0x2344 <FindChild+0x86>
    while (parent>child){

        //If child's address is higher than the start address, perform search for letter
        if (child>start){
            ExtEERead(child+OFF_BYTEFLDS+VISIBLE_ACL+L_BOILER, 1, GAME, &data[0]);
            if ((data[0] == 0)||(CheckState(data[0]))) {
    233a:	0d c0       	rjmp	.+26     	; 0x2356 <FindChild+0x98>
    233c:	32 d9       	rcall	.-3484   	; 0x15a2 <CheckState>
    233e:	81 11       	cpse	r24, r1
    2340:	fa cf       	rjmp	.-12     	; 0x2336 <FindChild+0x78>
                if ((letter == 0)||(CheckLetter(child, letter))) return child;
    2342:	e3 cf       	rjmp	.-58     	; 0x230a <FindChild+0x4c>
    2344:	6d 2d       	mov	r22, r13
    2346:	c8 01       	movw	r24, r16
    2348:	66 df       	rcall	.-308    	; 0x2216 <CheckLetter>
    234a:	88 23       	and	r24, r24
    234c:	f1 f2       	breq	.-68     	; 0x230a <FindChild+0x4c>
    234e:	03 c0       	rjmp	.+6      	; 0x2356 <FindChild+0x98>

        //Not visible or name not right
        ExtEERead(child+L_BOILER, 2, GAME, &data[0]);
        child = (data[0]<<8|data[1]);    //Next object on child level
        
    } return 0;
    2350:	80 e0       	ldi	r24, 0x00	; 0
    2352:	90 e0       	ldi	r25, 0x00	; 0
    2354:	01 c0       	rjmp	.+2      	; 0x2358 <FindChild+0x9a>
    2356:	c8 01       	movw	r24, r16
}
    2358:	24 96       	adiw	r28, 0x04	; 4
    235a:	cd bf       	out	0x3d, r28	; 61
    235c:	de bf       	out	0x3e, r29	; 62
    235e:	df 91       	pop	r29
    2360:	cf 91       	pop	r28
    2362:	1f 91       	pop	r17
    2364:	0f 91       	pop	r16
    2366:	ff 90       	pop	r15
    2368:	ef 90       	pop	r14
    236a:	df 90       	pop	r13
    236c:	bf 90       	pop	r11
    236e:	af 90       	pop	r10
    2370:	08 95       	ret

00002372 <InpOkChk>:

//Allow only a(A) to z(Z) and 0 to 9 as input
uint8_t InpOkChk(uint8_t test){
    test |= 0x20;
    2372:	80 62       	ori	r24, 0x20	; 32
    if ((test>='a')&&(test<='z')) return 1;
    2374:	9f e9       	ldi	r25, 0x9F	; 159
    2376:	98 0f       	add	r25, r24
    2378:	9a 31       	cpi	r25, 0x1A	; 26
    237a:	38 f0       	brcs	.+14     	; 0x238a <InpOkChk+0x18>
    237c:	90 ed       	ldi	r25, 0xD0	; 208
    237e:	98 0f       	add	r25, r24
    2380:	81 e0       	ldi	r24, 0x01	; 1
    2382:	9a 30       	cpi	r25, 0x0A	; 10
    2384:	18 f0       	brcs	.+6      	; 0x238c <InpOkChk+0x1a>
    2386:	80 e0       	ldi	r24, 0x00	; 0
    2388:	08 95       	ret
    238a:	81 e0       	ldi	r24, 0x01	; 1
    if ((test>='0')&&(test<='9')) return 1;
    return 0;
}
    238c:	08 95       	ret

0000238e <CleanInput>:

//Cleans input of garbage and returns length of cleaned input "o->d2  !\0" becomes "od2\0"
uint8_t CleanInput(uint8_t *data){
    238e:	0f 93       	push	r16
    2390:	1f 93       	push	r17
    2392:	cf 93       	push	r28
    2394:	df 93       	push	r29
    2396:	8c 01       	movw	r16, r24
    uint8_t cnt = 0;
    for (uint8_t x=0; data[x]!=0; ++x){
    2398:	d0 e0       	ldi	r29, 0x00	; 0
    return 0;
}

//Cleans input of garbage and returns length of cleaned input "o->d2  !\0" becomes "od2\0"
uint8_t CleanInput(uint8_t *data){
    uint8_t cnt = 0;
    239a:	c0 e0       	ldi	r28, 0x00	; 0
    for (uint8_t x=0; data[x]!=0; ++x){
    239c:	f8 01       	movw	r30, r16
    239e:	ed 0f       	add	r30, r29
    23a0:	f1 1d       	adc	r31, r1
    23a2:	20 81       	ld	r18, Z
    23a4:	8c 2f       	mov	r24, r28
    23a6:	90 e0       	ldi	r25, 0x00	; 0
    23a8:	22 23       	and	r18, r18
    23aa:	51 f0       	breq	.+20     	; 0x23c0 <CleanInput+0x32>
        data[cnt] = data[x];
    23ac:	d8 01       	movw	r26, r16
    23ae:	a8 0f       	add	r26, r24
    23b0:	b9 1f       	adc	r27, r25
    23b2:	2c 93       	st	X, r18
        if (InpOkChk(data[x])) ++cnt;
    23b4:	80 81       	ld	r24, Z
    23b6:	dd df       	rcall	.-70     	; 0x2372 <InpOkChk>
    23b8:	81 11       	cpse	r24, r1
    23ba:	cf 5f       	subi	r28, 0xFF	; 255
}

//Cleans input of garbage and returns length of cleaned input "o->d2  !\0" becomes "od2\0"
uint8_t CleanInput(uint8_t *data){
    uint8_t cnt = 0;
    for (uint8_t x=0; data[x]!=0; ++x){
    23bc:	df 5f       	subi	r29, 0xFF	; 255
    23be:	ee cf       	rjmp	.-36     	; 0x239c <CleanInput+0xe>
        data[cnt] = data[x];
        if (InpOkChk(data[x])) ++cnt;
    }
    data[cnt] = 0;
    23c0:	f8 01       	movw	r30, r16
    23c2:	e8 0f       	add	r30, r24
    23c4:	f9 1f       	adc	r31, r25
    23c6:	10 82       	st	Z, r1
    return cnt;
}
    23c8:	8c 2f       	mov	r24, r28
    23ca:	df 91       	pop	r29
    23cc:	cf 91       	pop	r28
    23ce:	1f 91       	pop	r17
    23d0:	0f 91       	pop	r16
    23d2:	08 95       	ret

000023d4 <CheckSend>:

//Send routine, optimized for low memory usage
uint8_t CheckSend(){
    23d4:	cf 93       	push	r28
    static uint8_t txPart;
    uint8_t EEreadLength=0;

    //Play effects if available and not already playing
    if (effect == 0){
    23d6:	80 91 3a 38 	lds	r24, 0x383A	; 0x80383a <effect>
    23da:	90 91 3b 38 	lds	r25, 0x383B	; 0x80383b <effect+0x1>
    23de:	89 2b       	or	r24, r25
    23e0:	99 f4       	brne	.+38     	; 0x2408 <CheckSend+0x34>
        effect = currObj.byteField[EFFECTS];
    23e2:	80 91 21 3a 	lds	r24, 0x3A21	; 0x803a21 <currObj+0x4>
    23e6:	90 e0       	ldi	r25, 0x00	; 0
    23e8:	80 93 3a 38 	sts	0x383A, r24	; 0x80383a <effect>
    23ec:	90 93 3b 38 	sts	0x383B, r25	; 0x80383b <effect+0x1>
        auStart = ((effect&0xE0)>0);
    23f0:	80 91 3a 38 	lds	r24, 0x383A	; 0x80383a <effect>
    23f4:	90 91 3b 38 	lds	r25, 0x383B	; 0x80383b <effect+0x1>
    23f8:	80 7e       	andi	r24, 0xE0	; 224
    23fa:	99 27       	eor	r25, r25
    23fc:	21 e0       	ldi	r18, 0x01	; 1
    23fe:	89 2b       	or	r24, r25
    2400:	09 f4       	brne	.+2      	; 0x2404 <CheckSend+0x30>
    2402:	20 e0       	ldi	r18, 0x00	; 0
    2404:	20 93 39 38 	sts	0x3839, r18	; 0x803839 <auStart>
    }

    //Check if more string(part)s have to be sent to the serial output if previous send operation is completed
    if ((txAddrNow < TXLISTLEN) && serTxDone){
    2408:	20 91 49 3a 	lds	r18, 0x3A49	; 0x803a49 <txAddrNow>
    240c:	28 30       	cpi	r18, 0x08	; 8
    240e:	08 f0       	brcs	.+2      	; 0x2412 <CheckSend+0x3e>
    2410:	48 c0       	rjmp	.+144    	; 0x24a2 <CheckSend+0xce>
    2412:	80 91 0a 38 	lds	r24, 0x380A	; 0x80380a <serTxDone>
    2416:	88 23       	and	r24, r24
    2418:	09 f4       	brne	.+2      	; 0x241c <CheckSend+0x48>
    241a:	43 c0       	rjmp	.+134    	; 0x24a2 <CheckSend+0xce>
        if (txStrLen[txAddrNow] == 0){
    241c:	82 2f       	mov	r24, r18
    241e:	90 e0       	ldi	r25, 0x00	; 0
    2420:	fc 01       	movw	r30, r24
    2422:	e6 5b       	subi	r30, 0xB6	; 182
    2424:	f5 4c       	sbci	r31, 0xC5	; 197
    2426:	e0 81       	ld	r30, Z
    2428:	e1 11       	cpse	r30, r1
    242a:	06 c0       	rjmp	.+12     	; 0x2438 <CheckSend+0x64>
            txPart = 0;
    242c:	10 92 08 39 	sts	0x3908, r1	; 0x803908 <txPart.3950>
            txAddrNow = TXLISTLEN;
    2430:	88 e0       	ldi	r24, 0x08	; 8
    2432:	80 93 49 3a 	sts	0x3A49, r24	; 0x803a49 <txAddrNow>
    2436:	2d c0       	rjmp	.+90     	; 0x2492 <CheckSend+0xbe>
        } else if (txPart < txStrLen[txAddrNow]){
    2438:	50 91 08 39 	lds	r21, 0x3908	; 0x803908 <txPart.3950>
    243c:	5e 17       	cp	r21, r30
    243e:	58 f5       	brcc	.+86     	; 0x2496 <CheckSend+0xc2>
            EEreadLength = txStrLen[txAddrNow]-txPart;
    2440:	ce 2f       	mov	r28, r30
    2442:	c5 1b       	sub	r28, r21
    2444:	c1 32       	cpi	r28, 0x21	; 33
    2446:	08 f0       	brcs	.+2      	; 0x244a <CheckSend+0x76>
    2448:	c0 e2       	ldi	r28, 0x20	; 32
            if (EEreadLength>=TXLEN) EEreadLength = TXLEN-1;
            ExtEERead(txAddrList[txAddrNow]+txPart, EEreadLength, txTypeNow, &txBuffer[0]);
    244a:	88 0f       	add	r24, r24
    244c:	99 1f       	adc	r25, r25
    244e:	fc 01       	movw	r30, r24
    2450:	ee 5a       	subi	r30, 0xAE	; 174
    2452:	f5 4c       	sbci	r31, 0xC5	; 197
    2454:	80 81       	ld	r24, Z
    2456:	91 81       	ldd	r25, Z+1	; 0x01
    2458:	2b ef       	ldi	r18, 0xFB	; 251
    245a:	3a e3       	ldi	r19, 0x3A	; 58
    245c:	40 91 48 3a 	lds	r20, 0x3A48	; 0x803a48 <txTypeNow>
    2460:	6c 2f       	mov	r22, r28
    2462:	85 0f       	add	r24, r21
    2464:	91 1d       	adc	r25, r1
    2466:	50 dd       	rcall	.-1376   	; 0x1f08 <ExtEERead>
            txPart += EEreadLength;
    2468:	80 91 08 39 	lds	r24, 0x3908	; 0x803908 <txPart.3950>
    246c:	8c 0f       	add	r24, r28
    246e:	80 93 08 39 	sts	0x3908, r24	; 0x803908 <txPart.3950>
            txBuffer[EEreadLength] = 0; //Add string terminator after piece to send to plug memory leak
    2472:	ec 2f       	mov	r30, r28
    2474:	f0 e0       	ldi	r31, 0x00	; 0
    2476:	e5 50       	subi	r30, 0x05	; 5
    2478:	f5 4c       	sbci	r31, 0xC5	; 197
    247a:	10 82       	st	Z, r1
            if ((txBuffer[0] == 0) && (EEreadLength)) txBuffer[0] = 0xDB; //Block character when data wrong.
    247c:	80 91 fb 3a 	lds	r24, 0x3AFB	; 0x803afb <txBuffer>
    2480:	81 11       	cpse	r24, r1
    2482:	03 c0       	rjmp	.+6      	; 0x248a <CheckSend+0xb6>
    2484:	8b ed       	ldi	r24, 0xDB	; 219
    2486:	80 93 fb 3a 	sts	0x3AFB, r24	; 0x803afb <txBuffer>
            SerSend(&txBuffer[0]);
    248a:	8b ef       	ldi	r24, 0xFB	; 251
    248c:	9a e3       	ldi	r25, 0x3A	; 58
    248e:	0e 94 07 09 	call	0x120e	; 0x120e <SerSend>
        } else {
            txPart = 0;
            ++txAddrNow;
        }
    } else if (serTxDone) return 0; //All is sent!
    return 1; //Still sending, do not change the data in the tx variables
    2492:	81 e0       	ldi	r24, 0x01	; 1
    2494:	0b c0       	rjmp	.+22     	; 0x24ac <CheckSend+0xd8>
            txPart += EEreadLength;
            txBuffer[EEreadLength] = 0; //Add string terminator after piece to send to plug memory leak
            if ((txBuffer[0] == 0) && (EEreadLength)) txBuffer[0] = 0xDB; //Block character when data wrong.
            SerSend(&txBuffer[0]);
        } else {
            txPart = 0;
    2496:	10 92 08 39 	sts	0x3908, r1	; 0x803908 <txPart.3950>
            ++txAddrNow;
    249a:	2f 5f       	subi	r18, 0xFF	; 255
    249c:	20 93 49 3a 	sts	0x3A49, r18	; 0x803a49 <txAddrNow>
    24a0:	f8 cf       	rjmp	.-16     	; 0x2492 <CheckSend+0xbe>
        }
    } else if (serTxDone) return 0; //All is sent!
    24a2:	90 91 0a 38 	lds	r25, 0x380A	; 0x80380a <serTxDone>
    24a6:	81 e0       	ldi	r24, 0x01	; 1
    24a8:	91 11       	cpse	r25, r1
    24aa:	80 e0       	ldi	r24, 0x00	; 0
    return 1; //Still sending, do not change the data in the tx variables
}
    24ac:	cf 91       	pop	r28
    24ae:	08 95       	ret

000024b0 <CheckResponse>:

//Send another part of the response and play the effect afterwards
uint8_t CheckResponse(){
    24b0:	cf 93       	push	r28
    24b2:	df 93       	push	r29
    static uint8_t number = 0;
    if (responseList){
    24b4:	c0 91 1c 39 	lds	r28, 0x391C	; 0x80391c <responseList>
    24b8:	cc 23       	and	r28, r28
    24ba:	e9 f1       	breq	.+122    	; 0x2536 <CheckResponse+0x86>
        --responseList;
    24bc:	c1 50       	subi	r28, 0x01	; 1
    24be:	c0 93 1c 39 	sts	0x391C, r28	; 0x80391c <responseList>
        if (reactStr[0][number] == CURR_LOC) {
    24c2:	d0 91 07 39 	lds	r29, 0x3907	; 0x803907 <number.3954>
    24c6:	2d 2f       	mov	r18, r29
    24c8:	30 e0       	ldi	r19, 0x00	; 0
    24ca:	f9 01       	movw	r30, r18
    24cc:	ee 0f       	add	r30, r30
    24ce:	ff 1f       	adc	r31, r31
    24d0:	e3 5e       	subi	r30, 0xE3	; 227
    24d2:	f6 4c       	sbci	r31, 0xC6	; 198
    24d4:	80 81       	ld	r24, Z
    24d6:	91 81       	ldd	r25, Z+1	; 0x01
    24d8:	80 3f       	cpi	r24, 0xF0	; 240
    24da:	4f ef       	ldi	r20, 0xFF	; 255
    24dc:	94 07       	cpc	r25, r20
    24de:	51 f4       	brne	.+20     	; 0x24f4 <CheckResponse+0x44>
            PrepareSending(currObj.addrStr[NAME], currObj.lenStr[NAME], GAME);
    24e0:	60 91 37 3a 	lds	r22, 0x3A37	; 0x803a37 <currObj+0x1a>
    24e4:	70 91 38 3a 	lds	r23, 0x3A38	; 0x803a38 <currObj+0x1b>
    24e8:	40 e0       	ldi	r20, 0x00	; 0
    24ea:	80 91 29 3a 	lds	r24, 0x3A29	; 0x803a29 <currObj+0xc>
    24ee:	90 91 2a 3a 	lds	r25, 0x3A2A	; 0x803a2a <currObj+0xd>
    24f2:	0d c0       	rjmp	.+26     	; 0x250e <CheckResponse+0x5e>
        } else {
            PrepareSending(reactStr[0][number], reactStr[1][number], reactStr[2][number]);
    24f4:	d9 01       	movw	r26, r18
    24f6:	aa 0f       	add	r26, r26
    24f8:	bb 1f       	adc	r27, r27
    24fa:	a3 56       	subi	r26, 0x63	; 99
    24fc:	b6 4c       	sbci	r27, 0xC6	; 198
    24fe:	22 0f       	add	r18, r18
    2500:	33 1f       	adc	r19, r19
    2502:	f9 01       	movw	r30, r18
    2504:	e3 5a       	subi	r30, 0xA3	; 163
    2506:	f6 4c       	sbci	r31, 0xC6	; 198
    2508:	60 81       	ld	r22, Z
    250a:	71 81       	ldd	r23, Z+1	; 0x01
    250c:	4c 91       	ld	r20, X
    250e:	53 dd       	rcall	.-1370   	; 0x1fb6 <PrepareSending>
        }
        ++number;
    2510:	df 5f       	subi	r29, 0xFF	; 255
    2512:	d0 93 07 39 	sts	0x3907, r29	; 0x803907 <number.3954>

        if (responseList == 0) {
    2516:	c1 11       	cpse	r28, r1
    2518:	0d c0       	rjmp	.+26     	; 0x2534 <CheckResponse+0x84>
            effect = currObj.byteField[EFFECTS];
    251a:	80 91 21 3a 	lds	r24, 0x3A21	; 0x803a21 <currObj+0x4>
    251e:	90 e0       	ldi	r25, 0x00	; 0
    2520:	80 93 3a 38 	sts	0x383A, r24	; 0x80383a <effect>
    2524:	90 93 3b 38 	sts	0x383B, r25	; 0x80383b <effect+0x1>
            RXCNT = 0;
    2528:	1d ba       	out	0x1d, r1	; 29
            serRxDone = 0;
    252a:	10 92 44 38 	sts	0x3844, r1	; 0x803844 <serRxDone>
            number = 0;
    252e:	10 92 07 39 	sts	0x3907, r1	; 0x803907 <number.3954>
    2532:	01 c0       	rjmp	.+2      	; 0x2536 <CheckResponse+0x86>
            return 0;
        }
        return 1;
    2534:	c1 e0       	ldi	r28, 0x01	; 1
    }
    return 0;
}
    2536:	8c 2f       	mov	r24, r28
    2538:	df 91       	pop	r29
    253a:	cf 91       	pop	r28
    253c:	08 95       	ret

0000253e <CheckInput>:

//User input check (and validation)
uint8_t CheckInput(uint8_t *data){
    253e:	3f 92       	push	r3
    2540:	4f 92       	push	r4
    2542:	5f 92       	push	r5
    2544:	6f 92       	push	r6
    2546:	7f 92       	push	r7
    2548:	8f 92       	push	r8
    254a:	9f 92       	push	r9
    254c:	af 92       	push	r10
    254e:	bf 92       	push	r11
    2550:	cf 92       	push	r12
    2552:	df 92       	push	r13
    2554:	ef 92       	push	r14
    2556:	ff 92       	push	r15
    2558:	0f 93       	push	r16
    255a:	1f 93       	push	r17
    255c:	cf 93       	push	r28
    255e:	df 93       	push	r29
    2560:	cd b7       	in	r28, 0x3d	; 61
    2562:	de b7       	in	r29, 0x3e	; 62
    2564:	a1 97       	sbiw	r28, 0x21	; 33
    2566:	cd bf       	out	0x3d, r28	; 61
    2568:	de bf       	out	0x3e, r29	; 62
    256a:	8c 01       	movw	r16, r24
    
    //Load game data after reboot
    if (currDepth == 0xff) {
    256c:	80 91 2c 38 	lds	r24, 0x382C	; 0x80382c <currDepth>
    2570:	8f 3f       	cpi	r24, 0xFF	; 255
    2572:	49 f4       	brne	.+18     	; 0x2586 <CheckInput+0x48>
        //Start at first location
        PopulateObject(route[0], &currObj);
    2574:	6d e1       	ldi	r22, 0x1D	; 29
    2576:	7a e3       	ldi	r23, 0x3A	; 58
    2578:	80 91 dd 39 	lds	r24, 0x39DD	; 0x8039dd <route>
    257c:	90 91 de 39 	lds	r25, 0x39DE	; 0x8039de <route+0x1>
    2580:	d3 dd       	rcall	.-1114   	; 0x2128 <PopulateObject>
        currDepth = 0;
    2582:	10 92 2c 38 	sts	0x382C, r1	; 0x80382c <currDepth>
    }

    if (serRxDone){
    2586:	80 91 44 38 	lds	r24, 0x3844	; 0x803844 <serRxDone>
    258a:	88 23       	and	r24, r24
    258c:	09 f4       	brne	.+2      	; 0x2590 <CheckInput+0x52>
    258e:	6e c2       	rjmp	.+1244   	; 0x2a6c <CheckInput+0x52e>

        //Special input requested from user by game
        if (specialInput[0]){
    2590:	80 91 0c 39 	lds	r24, 0x390C	; 0x80390c <specialInput>
    2594:	88 23       	and	r24, r24
    2596:	09 f4       	brne	.+2      	; 0x259a <CheckInput+0x5c>
    2598:	57 c0       	rjmp	.+174    	; 0x2648 <CheckInput+0x10a>
            specialPassed = 0;
    259a:	10 92 0b 39 	sts	0x390B, r1	; 0x80390b <specialPassed>
            data[0] = 'a';
    259e:	81 e6       	ldi	r24, 0x61	; 97
    25a0:	f8 01       	movw	r30, r16
    25a2:	80 83       	st	Z, r24
            
            //Normal code challenge
            if (StartsWith((uint8_t *)&serRx[0], &specialInput[0])) {
    25a4:	6c e0       	ldi	r22, 0x0C	; 12
    25a6:	79 e3       	ldi	r23, 0x39	; 57
    25a8:	87 e7       	ldi	r24, 0x77	; 119
    25aa:	9a e3       	ldi	r25, 0x3A	; 58
    25ac:	ea dc       	rcall	.-1580   	; 0x1f82 <StartsWith>
    25ae:	f8 2e       	mov	r15, r24
    25b0:	88 23       	and	r24, r24
    25b2:	21 f0       	breq	.+8      	; 0x25bc <CheckInput+0x7e>
                specialPassed = 1;
    25b4:	81 e0       	ldi	r24, 0x01	; 1
    25b6:	80 93 0b 39 	sts	0x390B, r24	; 0x80390b <specialPassed>
    25ba:	04 c0       	rjmp	.+8      	; 0x25c4 <CheckInput+0x86>
                //specialInput[0] = 0;
                //data[1] = 0;

            //Special challenge 1
            } else if ((specialInput[0] == '1')&&(specialInput[2] == 0)) {
    25bc:	80 91 0c 39 	lds	r24, 0x390C	; 0x80390c <specialInput>
    25c0:	81 33       	cpi	r24, 0x31	; 49
    25c2:	11 f0       	breq	.+4      	; 0x25c8 <CheckInput+0x8a>
                responseList = 32;
                return 1;
            }
        } 
        //Data received, but not any of the commands above
        return 0;
    25c4:	f1 2c       	mov	r15, r1
    25c6:	54 c2       	rjmp	.+1192   	; 0x2a70 <CheckInput+0x532>
                specialPassed = 1;
                //specialInput[0] = 0;
                //data[1] = 0;

            //Special challenge 1
            } else if ((specialInput[0] == '1')&&(specialInput[2] == 0)) {
    25c8:	80 91 0e 39 	lds	r24, 0x390E	; 0x80390e <specialInput+0x2>
    25cc:	81 11       	cpse	r24, r1
    25ce:	fa cf       	rjmp	.-12     	; 0x25c4 <CheckInput+0x86>
                uint8_t inputLen = CleanInput((uint8_t *)&serRx[0]);
    25d0:	87 e7       	ldi	r24, 0x77	; 119
    25d2:	9a e3       	ldi	r25, 0x3A	; 58
    25d4:	dc de       	rcall	.-584    	; 0x238e <CleanInput>
                specialPassed = 2;
    25d6:	92 e0       	ldi	r25, 0x02	; 2
    25d8:	90 93 0b 39 	sts	0x390B, r25	; 0x80390b <specialPassed>
                data[1] = 0;
    25dc:	f8 01       	movw	r30, r16
    25de:	11 82       	std	Z+1, r1	; 0x01

                if (inputLen >= 2) {
    25e0:	82 30       	cpi	r24, 0x02	; 2
    25e2:	80 f3       	brcs	.-32     	; 0x25c4 <CheckInput+0x86>
                    if ((serRx[0] == '1')||(serRx[0] == '2')||(serRx[0] == '3')||(serRx[0] == '4')) {
    25e4:	80 91 77 3a 	lds	r24, 0x3A77	; 0x803a77 <serRx>
    25e8:	81 33       	cpi	r24, 0x31	; 49
    25ea:	61 f0       	breq	.+24     	; 0x2604 <CheckInput+0xc6>
    25ec:	80 91 77 3a 	lds	r24, 0x3A77	; 0x803a77 <serRx>
    25f0:	82 33       	cpi	r24, 0x32	; 50
    25f2:	41 f0       	breq	.+16     	; 0x2604 <CheckInput+0xc6>
    25f4:	80 91 77 3a 	lds	r24, 0x3A77	; 0x803a77 <serRx>
    25f8:	83 33       	cpi	r24, 0x33	; 51
    25fa:	21 f0       	breq	.+8      	; 0x2604 <CheckInput+0xc6>
    25fc:	80 91 77 3a 	lds	r24, 0x3A77	; 0x803a77 <serRx>
    2600:	84 33       	cpi	r24, 0x34	; 52
    2602:	01 f7       	brne	.-64     	; 0x25c4 <CheckInput+0x86>
                        serRx[1] |= 0x20;
    2604:	80 91 78 3a 	lds	r24, 0x3A78	; 0x803a78 <serRx+0x1>
    2608:	80 62       	ori	r24, 0x20	; 32
    260a:	80 93 78 3a 	sts	0x3A78, r24	; 0x803a78 <serRx+0x1>
                        if ((serRx[1] == 'a')||(serRx[1] == 'e')||(serRx[1] == 'f')||(serRx[1] == 'w')) {
    260e:	80 91 78 3a 	lds	r24, 0x3A78	; 0x803a78 <serRx+0x1>
    2612:	81 36       	cpi	r24, 0x61	; 97
    2614:	61 f0       	breq	.+24     	; 0x262e <CheckInput+0xf0>
    2616:	80 91 78 3a 	lds	r24, 0x3A78	; 0x803a78 <serRx+0x1>
    261a:	85 36       	cpi	r24, 0x65	; 101
    261c:	41 f0       	breq	.+16     	; 0x262e <CheckInput+0xf0>
    261e:	80 91 78 3a 	lds	r24, 0x3A78	; 0x803a78 <serRx+0x1>
    2622:	86 36       	cpi	r24, 0x66	; 102
    2624:	21 f0       	breq	.+8      	; 0x262e <CheckInput+0xf0>
    2626:	80 91 78 3a 	lds	r24, 0x3A78	; 0x803a78 <serRx+0x1>
    262a:	87 37       	cpi	r24, 0x77	; 119
    262c:	59 f6       	brne	.-106    	; 0x25c4 <CheckInput+0x86>
                            data[1] = specialInput[1]+0x11;
    262e:	80 91 0d 39 	lds	r24, 0x390D	; 0x80390d <specialInput+0x1>
    2632:	8f 5e       	subi	r24, 0xEF	; 239
    2634:	f8 01       	movw	r30, r16
    2636:	81 83       	std	Z+1, r24	; 0x01
                            data[2] = serRx[0];
    2638:	80 91 77 3a 	lds	r24, 0x3A77	; 0x803a77 <serRx>
    263c:	82 83       	std	Z+2, r24	; 0x02
                            data[3] = serRx[1];
    263e:	80 91 78 3a 	lds	r24, 0x3A78	; 0x803a78 <serRx+0x1>
    2642:	83 83       	std	Z+3, r24	; 0x03
                            data[4] = 0;
    2644:	14 82       	std	Z+4, r1	; 0x04
    2646:	14 c2       	rjmp	.+1064   	; 0x2a70 <CheckInput+0x532>
        
        //Normal input
        } else {

            //Change status bit
            if ((serRx[0] == '#')&&(RXCNT == 6)){
    2648:	80 91 77 3a 	lds	r24, 0x3A77	; 0x803a77 <serRx>
    264c:	83 32       	cpi	r24, 0x23	; 35
    264e:	89 f5       	brne	.+98     	; 0x26b2 <CheckInput+0x174>
    2650:	8d b3       	in	r24, 0x1d	; 29
    2652:	86 30       	cpi	r24, 0x06	; 6
    2654:	71 f5       	brne	.+92     	; 0x26b2 <CheckInput+0x174>
    2656:	81 e0       	ldi	r24, 0x01	; 1
    2658:	90 e0       	ldi	r25, 0x00	; 0
    265a:	10 e0       	ldi	r17, 0x00	; 0
                uint8_t bitNr = 0;

                for (uint8_t x=1; x<4; ++x) {
                    serRx[x] -= '0';
    265c:	fc 01       	movw	r30, r24
    265e:	e9 58       	subi	r30, 0x89	; 137
    2660:	f5 4c       	sbci	r31, 0xC5	; 197
    2662:	20 81       	ld	r18, Z
    2664:	20 53       	subi	r18, 0x30	; 48
    2666:	20 83       	st	Z, r18
                    bitNr *= 10;
    2668:	11 0f       	add	r17, r17
    266a:	21 2f       	mov	r18, r17
    266c:	22 0f       	add	r18, r18
    266e:	22 0f       	add	r18, r18
    2670:	12 0f       	add	r17, r18
                    if (serRx[1] > 2) break;
    2672:	20 91 78 3a 	lds	r18, 0x3A78	; 0x803a78 <serRx+0x1>
    2676:	23 30       	cpi	r18, 0x03	; 3
    2678:	48 f4       	brcc	.+18     	; 0x268c <CheckInput+0x14e>
                    if (serRx[x] < 10) {
    267a:	20 81       	ld	r18, Z
    267c:	2a 30       	cpi	r18, 0x0A	; 10
    267e:	b8 f4       	brcc	.+46     	; 0x26ae <CheckInput+0x170>
                        bitNr += serRx[x];
    2680:	20 81       	ld	r18, Z
    2682:	12 0f       	add	r17, r18
    2684:	01 96       	adiw	r24, 0x01	; 1

            //Change status bit
            if ((serRx[0] == '#')&&(RXCNT == 6)){
                uint8_t bitNr = 0;

                for (uint8_t x=1; x<4; ++x) {
    2686:	84 30       	cpi	r24, 0x04	; 4
    2688:	91 05       	cpc	r25, r1
    268a:	41 f7       	brne	.-48     	; 0x265c <CheckInput+0x11e>
                        continue;
                    }
                    bitNr = 0;
                    break;
                }
                if ((bitNr)&&(bitNr!=128)) {
    268c:	81 2f       	mov	r24, r17
    268e:	8f 77       	andi	r24, 0x7F	; 127
    2690:	71 f0       	breq	.+28     	; 0x26ae <CheckInput+0x170>
                    if (Cheat(0xff-bitNr, serRx[4]<<8|serRx[5])) UpdateState(bitNr);
    2692:	80 91 7b 3a 	lds	r24, 0x3A7B	; 0x803a7b <serRx+0x4>
    2696:	60 91 7c 3a 	lds	r22, 0x3A7C	; 0x803a7c <serRx+0x5>
    269a:	70 e0       	ldi	r23, 0x00	; 0
    269c:	78 2b       	or	r23, r24
    269e:	81 2f       	mov	r24, r17
    26a0:	80 95       	com	r24
    26a2:	cf db       	rcall	.-2146   	; 0x1e42 <Cheat>
    26a4:	88 23       	and	r24, r24
    26a6:	19 f0       	breq	.+6      	; 0x26ae <CheckInput+0x170>
    26a8:	81 2f       	mov	r24, r17
    26aa:	0e 94 c7 0a 	call	0x158e	; 0x158e <UpdateState>
                }
                responseList = SetStandardResponse(0);
    26ae:	80 e0       	ldi	r24, 0x00	; 0
    26b0:	50 c0       	rjmp	.+160    	; 0x2752 <CheckInput+0x214>
    26b2:	d8 01       	movw	r26, r16
    26b4:	80 e0       	ldi	r24, 0x00	; 0
    26b6:	90 e0       	ldi	r25, 0x00	; 0
                return 1;            
            }
            
            //Read up to the \0 character and convert to lower case.
            for (uint8_t x=0; x<RXLEN; ++x){
                if ((serRx[x]<'A')||(serRx[x]>'Z')) data[x]=serRx[x]; else data[x]=serRx[x]|0x20;
    26b8:	fc 01       	movw	r30, r24
    26ba:	e9 58       	subi	r30, 0x89	; 137
    26bc:	f5 4c       	sbci	r31, 0xC5	; 197
    26be:	20 81       	ld	r18, Z
    26c0:	21 34       	cpi	r18, 0x41	; 65
    26c2:	18 f0       	brcs	.+6      	; 0x26ca <CheckInput+0x18c>
    26c4:	20 81       	ld	r18, Z
    26c6:	2b 35       	cpi	r18, 0x5B	; 91
    26c8:	10 f0       	brcs	.+4      	; 0x26ce <CheckInput+0x190>
    26ca:	20 81       	ld	r18, Z
    26cc:	02 c0       	rjmp	.+4      	; 0x26d2 <CheckInput+0x194>
    26ce:	20 81       	ld	r18, Z
    26d0:	20 62       	ori	r18, 0x20	; 32
    26d2:	2c 93       	st	X, r18
                if (serRx[x] == 0) {
    26d4:	20 81       	ld	r18, Z
    26d6:	21 11       	cpse	r18, r1
    26d8:	05 c0       	rjmp	.+10     	; 0x26e4 <CheckInput+0x1a6>
                    data[x] = 0;
    26da:	f8 01       	movw	r30, r16
    26dc:	e8 0f       	add	r30, r24
    26de:	f1 1d       	adc	r31, r1
    26e0:	10 82       	st	Z, r1
                    break;
    26e2:	05 c0       	rjmp	.+10     	; 0x26ee <CheckInput+0x1b0>
    26e4:	01 96       	adiw	r24, 0x01	; 1
    26e6:	11 96       	adiw	r26, 0x01	; 1
                responseList = SetStandardResponse(0);
                return 1;            
            }
            
            //Read up to the \0 character and convert to lower case.
            for (uint8_t x=0; x<RXLEN; ++x){
    26e8:	81 34       	cpi	r24, 0x41	; 65
    26ea:	91 05       	cpc	r25, r1
    26ec:	29 f7       	brne	.-54     	; 0x26b8 <CheckInput+0x17a>
                    break;
                }
            }

            //No text
            if (serRx[0] == 0){
    26ee:	80 91 77 3a 	lds	r24, 0x3A77	; 0x803a77 <serRx>
                data[0] = 0;
    26f2:	f8 01       	movw	r30, r16
                    break;
                }
            }

            //No text
            if (serRx[0] == 0){
    26f4:	81 11       	cpse	r24, r1
    26f6:	05 c0       	rjmp	.+10     	; 0x2702 <CheckInput+0x1c4>
                data[0] = 0;
    26f8:	10 82       	st	Z, r1
                RXCNT = 0;
    26fa:	1d ba       	out	0x1d, r1	; 29
                serRxDone = 0;
    26fc:	10 92 44 38 	sts	0x3844, r1	; 0x803844 <serRxDone>
    2700:	b5 c1       	rjmp	.+874    	; 0x2a6c <CheckInput+0x52e>
                return 1;
            }

            //Help text
            if ((data[0] == '?')||(data[0] == 'h')){
    2702:	80 81       	ld	r24, Z
    2704:	8f 33       	cpi	r24, 0x3F	; 63
    2706:	11 f0       	breq	.+4      	; 0x270c <CheckInput+0x1ce>
    2708:	88 36       	cpi	r24, 0x68	; 104
    270a:	39 f5       	brne	.+78     	; 0x275a <CheckInput+0x21c>
    return 0;
}

//
void SetResponse(uint8_t number, uint16_t address, uint16_t length, uint8_t type){
    reactStr[0][number]=address;
    270c:	8b e5       	ldi	r24, 0x5B	; 91
    270e:	9a e7       	ldi	r25, 0x7A	; 122
    2710:	80 93 1d 39 	sts	0x391D, r24	; 0x80391d <reactStr>
    2714:	90 93 1e 39 	sts	0x391E, r25	; 0x80391e <reactStr+0x1>
    reactStr[1][number]=length;
    2718:	84 e0       	ldi	r24, 0x04	; 4
    271a:	90 e0       	ldi	r25, 0x00	; 0
    271c:	80 93 5d 39 	sts	0x395D, r24	; 0x80395d <reactStr+0x40>
    2720:	90 93 5e 39 	sts	0x395E, r25	; 0x80395e <reactStr+0x41>
    reactStr[2][number]=type;
    2724:	81 e0       	ldi	r24, 0x01	; 1
    2726:	90 e0       	ldi	r25, 0x00	; 0
    2728:	80 93 9d 39 	sts	0x399D, r24	; 0x80399d <reactStr+0x80>
    272c:	90 93 9e 39 	sts	0x399E, r25	; 0x80399e <reactStr+0x81>
    return 0;
}

//
void SetResponse(uint8_t number, uint16_t address, uint16_t length, uint8_t type){
    reactStr[0][number]=address;
    2730:	23 e9       	ldi	r18, 0x93	; 147
    2732:	3b e7       	ldi	r19, 0x7B	; 123
    2734:	20 93 1f 39 	sts	0x391F, r18	; 0x80391f <reactStr+0x2>
    2738:	30 93 20 39 	sts	0x3920, r19	; 0x803920 <reactStr+0x3>
    reactStr[1][number]=length;
    273c:	2d e6       	ldi	r18, 0x6D	; 109
    273e:	34 e0       	ldi	r19, 0x04	; 4
    2740:	20 93 5f 39 	sts	0x395F, r18	; 0x80395f <reactStr+0x42>
    2744:	30 93 60 39 	sts	0x3960, r19	; 0x803960 <reactStr+0x43>
    reactStr[2][number]=type;
    2748:	80 93 9f 39 	sts	0x399F, r24	; 0x80399f <reactStr+0x82>
    274c:	90 93 a0 39 	sts	0x39A0, r25	; 0x8039a0 <reactStr+0x83>

            //Help text
            if ((data[0] == '?')||(data[0] == 'h')){
                SetResponse(0, A_LF, 4, TEASER);
                SetResponse(1, A_HELP, L_HELP, TEASER);
                responseList = SetStandardResponse(2);
    2750:	82 e0       	ldi	r24, 0x02	; 2
    2752:	6e dc       	rcall	.-1828   	; 0x2030 <SetStandardResponse>
    2754:	80 93 1c 39 	sts	0x391C, r24	; 0x80391c <responseList>
    2758:	89 c1       	rjmp	.+786    	; 0x2a6c <CheckInput+0x52e>
                return 1;
            }        
        
            //Alphabet text
            if (data[0] == 'a'){
    275a:	81 36       	cpi	r24, 0x61	; 97
    275c:	d9 f4       	brne	.+54     	; 0x2794 <CheckInput+0x256>
    return 0;
}

//
void SetResponse(uint8_t number, uint16_t address, uint16_t length, uint8_t type){
    reactStr[0][number]=address;
    275e:	8b e5       	ldi	r24, 0x5B	; 91
    2760:	9a e7       	ldi	r25, 0x7A	; 122
    2762:	80 93 1d 39 	sts	0x391D, r24	; 0x80391d <reactStr>
    2766:	90 93 1e 39 	sts	0x391E, r25	; 0x80391e <reactStr+0x1>
    reactStr[1][number]=length;
    276a:	84 e0       	ldi	r24, 0x04	; 4
    276c:	90 e0       	ldi	r25, 0x00	; 0
    276e:	80 93 5d 39 	sts	0x395D, r24	; 0x80395d <reactStr+0x40>
    2772:	90 93 5e 39 	sts	0x395E, r25	; 0x80395e <reactStr+0x41>
    reactStr[2][number]=type;
    2776:	81 e0       	ldi	r24, 0x01	; 1
    2778:	90 e0       	ldi	r25, 0x00	; 0
    277a:	80 93 9d 39 	sts	0x399D, r24	; 0x80399d <reactStr+0x80>
    277e:	90 93 9e 39 	sts	0x399E, r25	; 0x80399e <reactStr+0x81>
    return 0;
}

//
void SetResponse(uint8_t number, uint16_t address, uint16_t length, uint8_t type){
    reactStr[0][number]=address;
    2782:	2e e6       	ldi	r18, 0x6E	; 110
    2784:	3a e7       	ldi	r19, 0x7A	; 122
    2786:	20 93 1f 39 	sts	0x391F, r18	; 0x80391f <reactStr+0x2>
    278a:	30 93 20 39 	sts	0x3920, r19	; 0x803920 <reactStr+0x3>
    reactStr[1][number]=length;
    278e:	25 e2       	ldi	r18, 0x25	; 37
    2790:	31 e0       	ldi	r19, 0x01	; 1
    2792:	d6 cf       	rjmp	.-84     	; 0x2740 <CheckInput+0x202>
                responseList = SetStandardResponse(2);
                return 1;
            }

            //Whoami text
            if (data[0] == 'w'){
    2794:	87 37       	cpi	r24, 0x77	; 119
    2796:	09 f0       	breq	.+2      	; 0x279a <CheckInput+0x25c>
    2798:	6e c0       	rjmp	.+220    	; 0x2876 <CheckInput+0x338>
    return 0;
}

//
void SetResponse(uint8_t number, uint16_t address, uint16_t length, uint8_t type){
    reactStr[0][number]=address;
    279a:	8b e5       	ldi	r24, 0x5B	; 91
    279c:	9a e7       	ldi	r25, 0x7A	; 122
    279e:	80 93 1d 39 	sts	0x391D, r24	; 0x80391d <reactStr>
    27a2:	90 93 1e 39 	sts	0x391E, r25	; 0x80391e <reactStr+0x1>
    reactStr[1][number]=length;
    27a6:	84 e0       	ldi	r24, 0x04	; 4
    27a8:	90 e0       	ldi	r25, 0x00	; 0
    27aa:	80 93 5d 39 	sts	0x395D, r24	; 0x80395d <reactStr+0x40>
    27ae:	90 93 5e 39 	sts	0x395E, r25	; 0x80395e <reactStr+0x41>
    reactStr[2][number]=type;
    27b2:	21 e0       	ldi	r18, 0x01	; 1
    27b4:	30 e0       	ldi	r19, 0x00	; 0
    27b6:	20 93 9d 39 	sts	0x399D, r18	; 0x80399d <reactStr+0x80>
    27ba:	30 93 9e 39 	sts	0x399E, r19	; 0x80399e <reactStr+0x81>
    return 0;
}

//
void SetResponse(uint8_t number, uint16_t address, uint16_t length, uint8_t type){
    reactStr[0][number]=address;
    27be:	8a ec       	ldi	r24, 0xCA	; 202
    27c0:	96 e7       	ldi	r25, 0x76	; 118
    27c2:	80 93 1f 39 	sts	0x391F, r24	; 0x80391f <reactStr+0x2>
    27c6:	90 93 20 39 	sts	0x3920, r25	; 0x803920 <reactStr+0x3>
    reactStr[1][number]=length;
    27ca:	82 e1       	ldi	r24, 0x12	; 18
    27cc:	90 e0       	ldi	r25, 0x00	; 0
    27ce:	80 93 5f 39 	sts	0x395F, r24	; 0x80395f <reactStr+0x42>
    27d2:	90 93 60 39 	sts	0x3960, r25	; 0x803960 <reactStr+0x43>
    reactStr[2][number]=type;
    27d6:	20 93 9f 39 	sts	0x399F, r18	; 0x80399f <reactStr+0x82>
    27da:	30 93 a0 39 	sts	0x39A0, r19	; 0x8039a0 <reactStr+0x83>

            //Whoami text
            if (data[0] == 'w'){
                SetResponse(0, A_LF, 4, TEASER);
                SetResponse(1, A_HELLO, L_HELLO, TEASER);
                if (whoami == 1) {
    27de:	80 91 3d 38 	lds	r24, 0x383D	; 0x80383d <whoami>
    27e2:	81 30       	cpi	r24, 0x01	; 1
    27e4:	19 f4       	brne	.+6      	; 0x27ec <CheckInput+0x2ae>
    return 0;
}

//
void SetResponse(uint8_t number, uint16_t address, uint16_t length, uint8_t type){
    reactStr[0][number]=address;
    27e6:	84 ec       	ldi	r24, 0xC4	; 196
    27e8:	96 e7       	ldi	r25, 0x76	; 118
    27ea:	0f c0       	rjmp	.+30     	; 0x280a <CheckInput+0x2cc>
            if (data[0] == 'w'){
                SetResponse(0, A_LF, 4, TEASER);
                SetResponse(1, A_HELLO, L_HELLO, TEASER);
                if (whoami == 1) {
                    SetResponse(2, A_ANUBIS, L_ANUBIS, TEASER);
                } else if (whoami == 2) {
    27ec:	82 30       	cpi	r24, 0x02	; 2
    27ee:	49 f4       	brne	.+18     	; 0x2802 <CheckInput+0x2c4>
    return 0;
}

//
void SetResponse(uint8_t number, uint16_t address, uint16_t length, uint8_t type){
    reactStr[0][number]=address;
    27f0:	81 ec       	ldi	r24, 0xC1	; 193
    27f2:	96 e7       	ldi	r25, 0x76	; 118
    27f4:	80 93 21 39 	sts	0x3921, r24	; 0x803921 <reactStr+0x4>
    27f8:	90 93 22 39 	sts	0x3922, r25	; 0x803922 <reactStr+0x5>
    reactStr[1][number]=length;
    27fc:	83 e0       	ldi	r24, 0x03	; 3
    27fe:	90 e0       	ldi	r25, 0x00	; 0
    2800:	1e c0       	rjmp	.+60     	; 0x283e <CheckInput+0x300>
                SetResponse(1, A_HELLO, L_HELLO, TEASER);
                if (whoami == 1) {
                    SetResponse(2, A_ANUBIS, L_ANUBIS, TEASER);
                } else if (whoami == 2) {
                    SetResponse(2, A_BES, L_BES, TEASER);
                } else if (whoami == 3) {
    2802:	83 30       	cpi	r24, 0x03	; 3
    2804:	49 f4       	brne	.+18     	; 0x2818 <CheckInput+0x2da>
    return 0;
}

//
void SetResponse(uint8_t number, uint16_t address, uint16_t length, uint8_t type){
    reactStr[0][number]=address;
    2806:	8b eb       	ldi	r24, 0xBB	; 187
    2808:	96 e7       	ldi	r25, 0x76	; 118
    280a:	80 93 21 39 	sts	0x3921, r24	; 0x803921 <reactStr+0x4>
    280e:	90 93 22 39 	sts	0x3922, r25	; 0x803922 <reactStr+0x5>
    reactStr[1][number]=length;
    2812:	86 e0       	ldi	r24, 0x06	; 6
    2814:	90 e0       	ldi	r25, 0x00	; 0
    2816:	13 c0       	rjmp	.+38     	; 0x283e <CheckInput+0x300>
                    SetResponse(2, A_ANUBIS, L_ANUBIS, TEASER);
                } else if (whoami == 2) {
                    SetResponse(2, A_BES, L_BES, TEASER);
                } else if (whoami == 3) {
                    SetResponse(2, A_KHONSU, L_KHONSU, TEASER);
                } else if (whoami == 4) {
    2818:	84 30       	cpi	r24, 0x04	; 4
    281a:	49 f4       	brne	.+18     	; 0x282e <CheckInput+0x2f0>
    return 0;
}

//
void SetResponse(uint8_t number, uint16_t address, uint16_t length, uint8_t type){
    reactStr[0][number]=address;
    281c:	86 eb       	ldi	r24, 0xB6	; 182
    281e:	96 e7       	ldi	r25, 0x76	; 118
    2820:	80 93 21 39 	sts	0x3921, r24	; 0x803921 <reactStr+0x4>
    2824:	90 93 22 39 	sts	0x3922, r25	; 0x803922 <reactStr+0x5>
    reactStr[1][number]=length;
    2828:	85 e0       	ldi	r24, 0x05	; 5
    282a:	90 e0       	ldi	r25, 0x00	; 0
    282c:	08 c0       	rjmp	.+16     	; 0x283e <CheckInput+0x300>
    return 0;
}

//
void SetResponse(uint8_t number, uint16_t address, uint16_t length, uint8_t type){
    reactStr[0][number]=address;
    282e:	8f e3       	ldi	r24, 0x3F	; 63
    2830:	96 e7       	ldi	r25, 0x76	; 118
    2832:	80 93 21 39 	sts	0x3921, r24	; 0x803921 <reactStr+0x4>
    2836:	90 93 22 39 	sts	0x3922, r25	; 0x803922 <reactStr+0x5>
    reactStr[1][number]=length;
    283a:	82 e4       	ldi	r24, 0x42	; 66
    283c:	90 e0       	ldi	r25, 0x00	; 0
    283e:	80 93 61 39 	sts	0x3961, r24	; 0x803961 <reactStr+0x44>
    2842:	90 93 62 39 	sts	0x3962, r25	; 0x803962 <reactStr+0x45>
    reactStr[2][number]=type;
    2846:	20 93 a1 39 	sts	0x39A1, r18	; 0x8039a1 <reactStr+0x84>
    284a:	30 93 a2 39 	sts	0x39A2, r19	; 0x8039a2 <reactStr+0x85>
    return 0;
}

//
void SetResponse(uint8_t number, uint16_t address, uint16_t length, uint8_t type){
    reactStr[0][number]=address;
    284e:	8c e9       	ldi	r24, 0x9C	; 156
    2850:	96 e7       	ldi	r25, 0x76	; 118
    2852:	80 93 23 39 	sts	0x3923, r24	; 0x803923 <reactStr+0x6>
    2856:	90 93 24 39 	sts	0x3924, r25	; 0x803924 <reactStr+0x7>
    reactStr[1][number]=length;
    285a:	8a e1       	ldi	r24, 0x1A	; 26
    285c:	90 e0       	ldi	r25, 0x00	; 0
    285e:	80 93 63 39 	sts	0x3963, r24	; 0x803963 <reactStr+0x46>
    2862:	90 93 64 39 	sts	0x3964, r25	; 0x803964 <reactStr+0x47>
    reactStr[2][number]=type;
    2866:	81 e0       	ldi	r24, 0x01	; 1
    2868:	90 e0       	ldi	r25, 0x00	; 0
    286a:	80 93 a3 39 	sts	0x39A3, r24	; 0x8039a3 <reactStr+0x86>
    286e:	90 93 a4 39 	sts	0x39A4, r25	; 0x8039a4 <reactStr+0x87>
                    SetResponse(2, A_THOTH, L_THOTH, TEASER);
                } else {
                    SetResponse(2, A_ERROR, L_ERROR, TEASER);
                }
                SetResponse(3, A_PLEASED, L_PLEASED, TEASER);
                responseList = SetStandardResponse(4);
    2872:	84 e0       	ldi	r24, 0x04	; 4
    2874:	6e cf       	rjmp	.-292    	; 0x2752 <CheckInput+0x214>
                return 1;
            }

            //Quit text
            if (data[0] == 'q'){
    2876:	81 37       	cpi	r24, 0x71	; 113
    2878:	d9 f4       	brne	.+54     	; 0x28b0 <CheckInput+0x372>
    return 0;
}

//
void SetResponse(uint8_t number, uint16_t address, uint16_t length, uint8_t type){
    reactStr[0][number]=address;
    287a:	8b e5       	ldi	r24, 0x5B	; 91
    287c:	9a e7       	ldi	r25, 0x7A	; 122
    287e:	80 93 1d 39 	sts	0x391D, r24	; 0x80391d <reactStr>
    2882:	90 93 1e 39 	sts	0x391E, r25	; 0x80391e <reactStr+0x1>
    reactStr[1][number]=length;
    2886:	84 e0       	ldi	r24, 0x04	; 4
    2888:	90 e0       	ldi	r25, 0x00	; 0
    288a:	80 93 5d 39 	sts	0x395D, r24	; 0x80395d <reactStr+0x40>
    288e:	90 93 5e 39 	sts	0x395E, r25	; 0x80395e <reactStr+0x41>
    reactStr[2][number]=type;
    2892:	81 e0       	ldi	r24, 0x01	; 1
    2894:	90 e0       	ldi	r25, 0x00	; 0
    2896:	80 93 9d 39 	sts	0x399D, r24	; 0x80399d <reactStr+0x80>
    289a:	90 93 9e 39 	sts	0x399E, r25	; 0x80399e <reactStr+0x81>
    return 0;
}

//
void SetResponse(uint8_t number, uint16_t address, uint16_t length, uint8_t type){
    reactStr[0][number]=address;
    289e:	22 e0       	ldi	r18, 0x02	; 2
    28a0:	3a e7       	ldi	r19, 0x7A	; 122
    28a2:	20 93 1f 39 	sts	0x391F, r18	; 0x80391f <reactStr+0x2>
    28a6:	30 93 20 39 	sts	0x3920, r19	; 0x803920 <reactStr+0x3>
    reactStr[1][number]=length;
    28aa:	25 e5       	ldi	r18, 0x55	; 85
    28ac:	30 e0       	ldi	r19, 0x00	; 0
                responseList = SetStandardResponse(2);
                return 1;
            }

            //Fake cheat = reset badge!
            if (StartsWith(&data[0], "iddqd")){
    28ae:	48 cf       	rjmp	.-368    	; 0x2740 <CheckInput+0x202>
    28b0:	68 ef       	ldi	r22, 0xF8	; 248
    28b2:	7e eb       	ldi	r23, 0xBE	; 190
    28b4:	c8 01       	movw	r24, r16
    28b6:	65 db       	rcall	.-2358   	; 0x1f82 <StartsWith>
    28b8:	88 23       	and	r24, r24
    28ba:	f9 f0       	breq	.+62     	; 0x28fa <CheckInput+0x3bc>
    28bc:	1e e6       	ldi	r17, 0x6E	; 110
            
                //Reset game data by wiping the UUID bits
                for (uint8_t x=0; x<4; ++x){
                    WriteStatusBit(110+x, 0);
    28be:	60 e0       	ldi	r22, 0x00	; 0
    28c0:	81 2f       	mov	r24, r17
    28c2:	0e 94 ad 0a 	call	0x155a	; 0x155a <WriteStatusBit>
    28c6:	1f 5f       	subi	r17, 0xFF	; 255

            //Fake cheat = reset badge!
            if (StartsWith(&data[0], "iddqd")){
            
                //Reset game data by wiping the UUID bits
                for (uint8_t x=0; x<4; ++x){
    28c8:	12 37       	cpi	r17, 0x72	; 114
    28ca:	c9 f7       	brne	.-14     	; 0x28be <CheckInput+0x380>
                    WriteStatusBit(110+x, 0);
                }
                SaveGameState();
    28cc:	0e 94 26 0a 	call	0x144c	; 0x144c <SaveGameState>

                uint8_t cheat[] = "Cheater! Contact badge team... ";
    28d0:	80 e2       	ldi	r24, 0x20	; 32
    28d2:	eb e3       	ldi	r30, 0x3B	; 59
    28d4:	ff eb       	ldi	r31, 0xBF	; 191
    28d6:	de 01       	movw	r26, r28
    28d8:	11 96       	adiw	r26, 0x01	; 1
    28da:	01 90       	ld	r0, Z+
    28dc:	0d 92       	st	X+, r0
    28de:	8a 95       	dec	r24
    28e0:	e1 f7       	brne	.-8      	; 0x28da <CheckInput+0x39c>
                SerSpeed(60);
    28e2:	8c e3       	ldi	r24, 0x3C	; 60
    28e4:	0e 94 18 09 	call	0x1230	; 0x1230 <SerSpeed>
                while(1){
                    if (serTxDone) SerSend(&cheat[0]);
    28e8:	80 91 0a 38 	lds	r24, 0x380A	; 0x80380a <serTxDone>
    28ec:	88 23       	and	r24, r24
    28ee:	e1 f3       	breq	.-8      	; 0x28e8 <CheckInput+0x3aa>
    28f0:	ce 01       	movw	r24, r28
    28f2:	01 96       	adiw	r24, 0x01	; 1
    28f4:	0e 94 07 09 	call	0x120e	; 0x120e <SerSend>
                }
            }
            
            //Cheat reset (Quote from: Donald E. Westlake)
            if (StartsWith(&data[0], "the trouble with real life is, there's no reset button")){
    28f8:	f7 cf       	rjmp	.-18     	; 0x28e8 <CheckInput+0x3aa>
    28fa:	6e ef       	ldi	r22, 0xFE	; 254
    28fc:	7e eb       	ldi	r23, 0xBE	; 190
    28fe:	c8 01       	movw	r24, r16
    2900:	40 db       	rcall	.-2432   	; 0x1f82 <StartsWith>
    2902:	88 23       	and	r24, r24
    2904:	61 f1       	breq	.+88     	; 0x295e <CheckInput+0x420>
                
                //Reset cheat data by resetting the EEPROM bytes
                uint8_t empty=0xff;
    2906:	8f ef       	ldi	r24, 0xFF	; 255
    2908:	89 a3       	std	Y+33, r24	; 0x21
    290a:	18 e1       	ldi	r17, 0x18	; 24
                for (uint8_t x=0; x<MAX_CHEATS; ++x){
                    EEWrite(CHEATS+x, &empty, 1);
    290c:	41 e0       	ldi	r20, 0x01	; 1
    290e:	be 01       	movw	r22, r28
    2910:	6f 5d       	subi	r22, 0xDF	; 223
    2912:	7f 4f       	sbci	r23, 0xFF	; 255
    2914:	81 2f       	mov	r24, r17
    2916:	0e 94 df 08 	call	0x11be	; 0x11be <EEWrite>
    291a:	1f 5f       	subi	r17, 0xFF	; 255
            //Cheat reset (Quote from: Donald E. Westlake)
            if (StartsWith(&data[0], "the trouble with real life is, there's no reset button")){
                
                //Reset cheat data by resetting the EEPROM bytes
                uint8_t empty=0xff;
                for (uint8_t x=0; x<MAX_CHEATS; ++x){
    291c:	10 32       	cpi	r17, 0x20	; 32
    291e:	b1 f7       	brne	.-20     	; 0x290c <CheckInput+0x3ce>
    2920:	1e e6       	ldi	r17, 0x6E	; 110
                    EEWrite(CHEATS+x, &empty, 1);
                }
                //Reset game data by wiping the UUID bits
                for (uint8_t x=0; x<4; ++x){
                    WriteStatusBit(110+x, 0);
    2922:	60 e0       	ldi	r22, 0x00	; 0
    2924:	81 2f       	mov	r24, r17
    2926:	0e 94 ad 0a 	call	0x155a	; 0x155a <WriteStatusBit>
    292a:	1f 5f       	subi	r17, 0xFF	; 255
                uint8_t empty=0xff;
                for (uint8_t x=0; x<MAX_CHEATS; ++x){
                    EEWrite(CHEATS+x, &empty, 1);
                }
                //Reset game data by wiping the UUID bits
                for (uint8_t x=0; x<4; ++x){
    292c:	12 37       	cpi	r17, 0x72	; 114
    292e:	c9 f7       	brne	.-14     	; 0x2922 <CheckInput+0x3e4>
                    WriteStatusBit(110+x, 0);
                }
                
                SaveGameState();
    2930:	0e 94 26 0a 	call	0x144c	; 0x144c <SaveGameState>

                uint8_t cheat[] = "Reset please! ";
    2934:	8f e0       	ldi	r24, 0x0F	; 15
    2936:	eb e5       	ldi	r30, 0x5B	; 91
    2938:	ff eb       	ldi	r31, 0xBF	; 191
    293a:	de 01       	movw	r26, r28
    293c:	11 96       	adiw	r26, 0x01	; 1
    293e:	01 90       	ld	r0, Z+
    2940:	0d 92       	st	X+, r0
    2942:	8a 95       	dec	r24
    2944:	e1 f7       	brne	.-8      	; 0x293e <CheckInput+0x400>
                SerSpeed(60);
    2946:	8c e3       	ldi	r24, 0x3C	; 60
    2948:	0e 94 18 09 	call	0x1230	; 0x1230 <SerSpeed>
                while(1){
                    if (serTxDone) SerSend(&cheat[0]);
    294c:	80 91 0a 38 	lds	r24, 0x380A	; 0x80380a <serTxDone>
    2950:	88 23       	and	r24, r24
    2952:	e1 f3       	breq	.-8      	; 0x294c <CheckInput+0x40e>
    2954:	ce 01       	movw	r24, r28
    2956:	01 96       	adiw	r24, 0x01	; 1
    2958:	0e 94 07 09 	call	0x120e	; 0x120e <SerSend>
                }
            }
            if (StartsWith(&data[0], "cheat")){
    295c:	f7 cf       	rjmp	.-18     	; 0x294c <CheckInput+0x40e>
    295e:	65 e3       	ldi	r22, 0x35	; 53
    2960:	7f eb       	ldi	r23, 0xBF	; 191
    2962:	c8 01       	movw	r24, r16
    2964:	0e db       	rcall	.-2532   	; 0x1f82 <StartsWith>
    2966:	88 23       	and	r24, r24
    2968:	09 f4       	brne	.+2      	; 0x296c <CheckInput+0x42e>
    296a:	2c ce       	rjmp	.-936    	; 0x25c4 <CheckInput+0x86>
    296c:	8d e1       	ldi	r24, 0x1D	; 29
    296e:	c8 2e       	mov	r12, r24
    2970:	89 e3       	ldi	r24, 0x39	; 57
    2972:	d8 2e       	mov	r13, r24
    2974:	9d e5       	ldi	r25, 0x5D	; 93
    2976:	e9 2e       	mov	r14, r25
    2978:	99 e3       	ldi	r25, 0x39	; 57
    297a:	f9 2e       	mov	r15, r25
    297c:	0d e9       	ldi	r16, 0x9D	; 157
    297e:	19 e3       	ldi	r17, 0x39	; 57
    2980:	28 e1       	ldi	r18, 0x18	; 24
    2982:	32 2e       	mov	r3, r18
    return 0;
}

//
void SetResponse(uint8_t number, uint16_t address, uint16_t length, uint8_t type){
    reactStr[0][number]=address;
    2984:	3a ed       	ldi	r19, 0xDA	; 218
    2986:	63 2e       	mov	r6, r19
    2988:	34 e7       	ldi	r19, 0x74	; 116
    298a:	73 2e       	mov	r7, r19
    reactStr[1][number]=length;
    298c:	42 e0       	ldi	r20, 0x02	; 2
    298e:	84 2e       	mov	r8, r20
    2990:	91 2c       	mov	r9, r1
    reactStr[2][number]=type;
    2992:	aa 24       	eor	r10, r10
    2994:	a3 94       	inc	r10
    2996:	b1 2c       	mov	r11, r1
    return 0;
}

//
void SetResponse(uint8_t number, uint16_t address, uint16_t length, uint8_t type){
    reactStr[0][number]=address;
    2998:	69 e5       	ldi	r22, 0x59	; 89
    299a:	46 2e       	mov	r4, r22
    299c:	6a e7       	ldi	r22, 0x7A	; 122
    299e:	56 2e       	mov	r5, r22
                uint8_t bit, digit[3];

                for (uint8_t x=0; x<MAX_CHEATS; ++x){
                    
                    //Set up sending out number
                    EERead(CHEATS+x, &bit, 1);
    29a0:	41 e0       	ldi	r20, 0x01	; 1
    29a2:	be 01       	movw	r22, r28
    29a4:	6f 5d       	subi	r22, 0xDF	; 223
    29a6:	7f 4f       	sbci	r23, 0xFF	; 255
    29a8:	83 2d       	mov	r24, r3
    29aa:	0e 94 cf 08 	call	0x119e	; 0x119e <EERead>
                    bit = 0xff-bit;
    29ae:	89 a1       	ldd	r24, Y+33	; 0x21
    29b0:	80 95       	com	r24
    29b2:	89 a3       	std	Y+33, r24	; 0x21
    return 0;
}

//
void SetResponse(uint8_t number, uint16_t address, uint16_t length, uint8_t type){
    reactStr[0][number]=address;
    29b4:	f6 01       	movw	r30, r12
    29b6:	60 82       	st	Z, r6
    29b8:	71 82       	std	Z+1, r7	; 0x01
    reactStr[1][number]=length;
    29ba:	f7 01       	movw	r30, r14
    29bc:	80 82       	st	Z, r8
    29be:	91 82       	std	Z+1, r9	; 0x01
    reactStr[2][number]=type;
    29c0:	f8 01       	movw	r30, r16
    29c2:	a0 82       	st	Z, r10
    29c4:	b1 82       	std	Z+1, r11	; 0x01
                    for (n=0; n<3; ++n) {
                        SetResponse(x*4+n, A_DIGITS+digit[n], 1, TEASER);
                    } 
                    */
                    SetResponse(x*4, A_HEXPREFIX, L_HEXPREFIX, TEASER);
                    SetResponse(x*4+1, A_DIGITS+digit[bit>>4], 1, TEASER);               
    29c6:	98 2f       	mov	r25, r24
    29c8:	92 95       	swap	r25
    29ca:	9f 70       	andi	r25, 0x0F	; 15
    29cc:	e1 e0       	ldi	r30, 0x01	; 1
    29ce:	f0 e0       	ldi	r31, 0x00	; 0
    29d0:	ec 0f       	add	r30, r28
    29d2:	fd 1f       	adc	r31, r29
    29d4:	e9 0f       	add	r30, r25
    29d6:	f1 1d       	adc	r31, r1
    return 0;
}

//
void SetResponse(uint8_t number, uint16_t address, uint16_t length, uint8_t type){
    reactStr[0][number]=address;
    29d8:	20 81       	ld	r18, Z
    29da:	30 e0       	ldi	r19, 0x00	; 0
    29dc:	26 53       	subi	r18, 0x36	; 54
    29de:	3b 48       	sbci	r19, 0x8B	; 139
    29e0:	f6 01       	movw	r30, r12
    29e2:	22 83       	std	Z+2, r18	; 0x02
    29e4:	33 83       	std	Z+3, r19	; 0x03
    reactStr[1][number]=length;
    29e6:	f7 01       	movw	r30, r14
    29e8:	a2 82       	std	Z+2, r10	; 0x02
    29ea:	b3 82       	std	Z+3, r11	; 0x03
    reactStr[2][number]=type;
    29ec:	f8 01       	movw	r30, r16
    29ee:	a2 82       	std	Z+2, r10	; 0x02
    29f0:	b3 82       	std	Z+3, r11	; 0x03
                        SetResponse(x*4+n, A_DIGITS+digit[n], 1, TEASER);
                    } 
                    */
                    SetResponse(x*4, A_HEXPREFIX, L_HEXPREFIX, TEASER);
                    SetResponse(x*4+1, A_DIGITS+digit[bit>>4], 1, TEASER);               
                    SetResponse(x*4+2, A_DIGITS+digit[bit%16], 1, TEASER);
    29f2:	8f 70       	andi	r24, 0x0F	; 15
    29f4:	e1 e0       	ldi	r30, 0x01	; 1
    29f6:	f0 e0       	ldi	r31, 0x00	; 0
    29f8:	ec 0f       	add	r30, r28
    29fa:	fd 1f       	adc	r31, r29
    29fc:	e8 0f       	add	r30, r24
    29fe:	f1 1d       	adc	r31, r1
    return 0;
}

//
void SetResponse(uint8_t number, uint16_t address, uint16_t length, uint8_t type){
    reactStr[0][number]=address;
    2a00:	80 81       	ld	r24, Z
    2a02:	90 e0       	ldi	r25, 0x00	; 0
    2a04:	86 53       	subi	r24, 0x36	; 54
    2a06:	9b 48       	sbci	r25, 0x8B	; 139
    2a08:	f6 01       	movw	r30, r12
    2a0a:	84 83       	std	Z+4, r24	; 0x04
    2a0c:	95 83       	std	Z+5, r25	; 0x05
    reactStr[1][number]=length;
    2a0e:	f7 01       	movw	r30, r14
    2a10:	a4 82       	std	Z+4, r10	; 0x04
    2a12:	b5 82       	std	Z+5, r11	; 0x05
    reactStr[2][number]=type;
    2a14:	f8 01       	movw	r30, r16
    2a16:	a4 82       	std	Z+4, r10	; 0x04
    2a18:	b5 82       	std	Z+5, r11	; 0x05
    return 0;
}

//
void SetResponse(uint8_t number, uint16_t address, uint16_t length, uint8_t type){
    reactStr[0][number]=address;
    2a1a:	f6 01       	movw	r30, r12
    2a1c:	46 82       	std	Z+6, r4	; 0x06
    2a1e:	57 82       	std	Z+7, r5	; 0x07
    reactStr[1][number]=length;
    2a20:	f7 01       	movw	r30, r14
    2a22:	86 82       	std	Z+6, r8	; 0x06
    2a24:	97 82       	std	Z+7, r9	; 0x07
    reactStr[2][number]=type;
    2a26:	f8 01       	movw	r30, r16
    2a28:	a6 82       	std	Z+6, r10	; 0x06
    2a2a:	b7 82       	std	Z+7, r11	; 0x07
    2a2c:	33 94       	inc	r3
    2a2e:	f8 e0       	ldi	r31, 0x08	; 8
    2a30:	cf 0e       	add	r12, r31
    2a32:	d1 1c       	adc	r13, r1
    2a34:	88 e0       	ldi	r24, 0x08	; 8
    2a36:	e8 0e       	add	r14, r24
    2a38:	f1 1c       	adc	r15, r1
    2a3a:	08 5f       	subi	r16, 0xF8	; 248
    2a3c:	1f 4f       	sbci	r17, 0xFF	; 255
            }
            if (StartsWith(&data[0], "cheat")){
                //int8_t n;
                uint8_t bit, digit[3];

                for (uint8_t x=0; x<MAX_CHEATS; ++x){
    2a3e:	e0 e2       	ldi	r30, 0x20	; 32
    2a40:	3e 12       	cpse	r3, r30
    2a42:	ae cf       	rjmp	.-164    	; 0x29a0 <CheckInput+0x462>
    return 0;
}

//
void SetResponse(uint8_t number, uint16_t address, uint16_t length, uint8_t type){
    reactStr[0][number]=address;
    2a44:	8b e5       	ldi	r24, 0x5B	; 91
    2a46:	9a e7       	ldi	r25, 0x7A	; 122
    2a48:	80 93 5b 39 	sts	0x395B, r24	; 0x80395b <reactStr+0x3e>
    2a4c:	90 93 5c 39 	sts	0x395C, r25	; 0x80395c <reactStr+0x3f>
    reactStr[1][number]=length;
    2a50:	84 e0       	ldi	r24, 0x04	; 4
    2a52:	90 e0       	ldi	r25, 0x00	; 0
    2a54:	80 93 9b 39 	sts	0x399B, r24	; 0x80399b <reactStr+0x7e>
    2a58:	90 93 9c 39 	sts	0x399C, r25	; 0x80399c <reactStr+0x7f>
    reactStr[2][number]=type;
    2a5c:	81 e0       	ldi	r24, 0x01	; 1
    2a5e:	90 e0       	ldi	r25, 0x00	; 0
    2a60:	80 93 db 39 	sts	0x39DB, r24	; 0x8039db <reactStr+0xbe>
    2a64:	90 93 dc 39 	sts	0x39DC, r25	; 0x8039dc <reactStr+0xbf>
                    SetResponse(x*4+1, A_DIGITS+digit[bit>>4], 1, TEASER);               
                    SetResponse(x*4+2, A_DIGITS+digit[bit%16], 1, TEASER);
                    SetResponse(x*4+3, A_COMMA, L_COMMA, TEASER);
                }
                SetResponse((4*MAX_CHEATS)-1, A_LF, 4, TEASER);
                responseList = 32;
    2a68:	30 92 1c 39 	sts	0x391C, r3	; 0x80391c <responseList>
        //Data received, but not any of the commands above
        return 0;
    }

    //Serial input not available yet
    return 1;
    2a6c:	ff 24       	eor	r15, r15
    2a6e:	f3 94       	inc	r15
}
    2a70:	8f 2d       	mov	r24, r15
    2a72:	a1 96       	adiw	r28, 0x21	; 33
    2a74:	cd bf       	out	0x3d, r28	; 61
    2a76:	de bf       	out	0x3e, r29	; 62
    2a78:	df 91       	pop	r29
    2a7a:	cf 91       	pop	r28
    2a7c:	1f 91       	pop	r17
    2a7e:	0f 91       	pop	r16
    2a80:	ff 90       	pop	r15
    2a82:	ef 90       	pop	r14
    2a84:	df 90       	pop	r13
    2a86:	cf 90       	pop	r12
    2a88:	bf 90       	pop	r11
    2a8a:	af 90       	pop	r10
    2a8c:	9f 90       	pop	r9
    2a8e:	8f 90       	pop	r8
    2a90:	7f 90       	pop	r7
    2a92:	6f 90       	pop	r6
    2a94:	5f 90       	pop	r5
    2a96:	4f 90       	pop	r4
    2a98:	3f 90       	pop	r3
    2a9a:	08 95       	ret

00002a9c <ProcessInput>:

//The game logic!
uint8_t ProcessInput(uint8_t *data){
    2a9c:	5f 92       	push	r5
    2a9e:	6f 92       	push	r6
    2aa0:	7f 92       	push	r7
    2aa2:	8f 92       	push	r8
    2aa4:	9f 92       	push	r9
    2aa6:	af 92       	push	r10
    2aa8:	bf 92       	push	r11
    2aaa:	cf 92       	push	r12
    2aac:	df 92       	push	r13
    2aae:	ef 92       	push	r14
    2ab0:	ff 92       	push	r15
    2ab2:	0f 93       	push	r16
    2ab4:	1f 93       	push	r17
    2ab6:	cf 93       	push	r28
    2ab8:	df 93       	push	r29
    2aba:	cd b7       	in	r28, 0x3d	; 61
    2abc:	de b7       	in	r29, 0x3e	; 62
    2abe:	28 97       	sbiw	r28, 0x08	; 8
    2ac0:	cd bf       	out	0x3d, r28	; 61
    2ac2:	de bf       	out	0x3e, r29	; 62
    2ac4:	8c 01       	movw	r16, r24
    static object_model_t actObj1, actObj2;
    uint8_t elements = 1;

    CleanInput(&data[0]);
    2ac6:	63 dc       	rcall	.-1850   	; 0x238e <CleanInput>
    uint8_t inputLen = CleanInput(&data[0]);
    2ac8:	c8 01       	movw	r24, r16
    2aca:	61 dc       	rcall	.-1854   	; 0x238e <CleanInput>
    2acc:	f8 2e       	mov	r15, r24

    if (inputLen) {
    2ace:	88 23       	and	r24, r24
    2ad0:	09 f4       	brne	.+2      	; 0x2ad4 <ProcessInput+0x38>
    2ad2:	fc c7       	rjmp	.+4088   	; 0x3acc <ProcessInput+0x1030>

        //eXit to previous location
        if (data[0] == 'x'){
    2ad4:	d8 01       	movw	r26, r16
    2ad6:	8c 91       	ld	r24, X
    2ad8:	88 37       	cpi	r24, 0x78	; 120
    2ada:	09 f0       	breq	.+2      	; 0x2ade <ProcessInput+0x42>
    2adc:	45 c0       	rjmp	.+138    	; 0x2b68 <ProcessInput+0xcc>

            //Standing in the Lobby?
            if ((route[currDepth] == 0)||(currDepth == 0)){
    2ade:	80 91 2c 38 	lds	r24, 0x382C	; 0x80382c <currDepth>
    2ae2:	e8 2f       	mov	r30, r24
    2ae4:	f0 e0       	ldi	r31, 0x00	; 0
    2ae6:	ee 0f       	add	r30, r30
    2ae8:	ff 1f       	adc	r31, r31
    2aea:	e3 52       	subi	r30, 0x23	; 35
    2aec:	f6 4c       	sbci	r31, 0xC6	; 198
    2aee:	20 81       	ld	r18, Z
    2af0:	31 81       	ldd	r19, Z+1	; 0x01
    2af2:	23 2b       	or	r18, r19
    2af4:	11 f0       	breq	.+4      	; 0x2afa <ProcessInput+0x5e>
    2af6:	81 11       	cpse	r24, r1
    2af8:	03 c0       	rjmp	.+6      	; 0x2b00 <ProcessInput+0x64>
    return 0;
}

//
void SetResponse(uint8_t number, uint16_t address, uint16_t length, uint8_t type){
    reactStr[0][number]=address;
    2afa:	81 e8       	ldi	r24, 0x81	; 129
    2afc:	96 e7       	ldi	r25, 0x76	; 118
    2afe:	a1 c5       	rjmp	.+2882   	; 0x3642 <ProcessInput+0xba6>
            //Standing in the Lobby?
            if ((route[currDepth] == 0)||(currDepth == 0)){
                SetResponse(elements++, A_NOTPOSSIBLE, L_NOTPOSSIBLE, TEASER);
            
            //Is there a way to go back?
            } else if (CheckState(currObj.byteField[OPEN_ACL])){
    2b00:	80 91 23 3a 	lds	r24, 0x3A23	; 0x803a23 <currObj+0x6>
    2b04:	0e 94 d1 0a 	call	0x15a2	; 0x15a2 <CheckState>
    2b08:	88 23       	and	r24, r24
    2b0a:	b9 f0       	breq	.+46     	; 0x2b3a <ProcessInput+0x9e>
                --currDepth;
    2b0c:	e0 91 2c 38 	lds	r30, 0x382C	; 0x80382c <currDepth>
    2b10:	e1 50       	subi	r30, 0x01	; 1
    2b12:	e0 93 2c 38 	sts	0x382C, r30	; 0x80382c <currDepth>
                PopulateObject(route[currDepth], &currObj);
    2b16:	f0 e0       	ldi	r31, 0x00	; 0
    2b18:	ee 0f       	add	r30, r30
    2b1a:	ff 1f       	adc	r31, r31
    2b1c:	e3 52       	subi	r30, 0x23	; 35
    2b1e:	f6 4c       	sbci	r31, 0xC6	; 198
    2b20:	6d e1       	ldi	r22, 0x1D	; 29
    2b22:	7a e3       	ldi	r23, 0x3A	; 58
    2b24:	80 81       	ld	r24, Z
    2b26:	91 81       	ldd	r25, Z+1	; 0x01
    2b28:	ff da       	rcall	.-2562   	; 0x2128 <PopulateObject>
                effect = currObj.byteField[EFFECTS];
    2b2a:	80 91 21 3a 	lds	r24, 0x3A21	; 0x803a21 <currObj+0x4>
    2b2e:	90 e0       	ldi	r25, 0x00	; 0
    2b30:	80 93 3a 38 	sts	0x383A, r24	; 0x80383a <effect>
    2b34:	90 93 3b 38 	sts	0x383B, r25	; 0x80383b <effect+0x1>
    2b38:	31 c2       	rjmp	.+1122   	; 0x2f9c <ProcessInput+0x500>
            
            //No way out, print denied message of location
            } else {
                SetResponse(elements++, currObj.addrStr[OPEN_ACL_MSG], currObj.lenStr[OPEN_ACL_MSG], GAME);
    2b3a:	80 91 3f 3a 	lds	r24, 0x3A3F	; 0x803a3f <currObj+0x22>
    2b3e:	90 91 40 3a 	lds	r25, 0x3A40	; 0x803a40 <currObj+0x23>
    return 0;
}

//
void SetResponse(uint8_t number, uint16_t address, uint16_t length, uint8_t type){
    reactStr[0][number]=address;
    2b42:	20 91 31 3a 	lds	r18, 0x3A31	; 0x803a31 <currObj+0x14>
    2b46:	30 91 32 3a 	lds	r19, 0x3A32	; 0x803a32 <currObj+0x15>
    2b4a:	20 93 1f 39 	sts	0x391F, r18	; 0x80391f <reactStr+0x2>
    2b4e:	30 93 20 39 	sts	0x3920, r19	; 0x803920 <reactStr+0x3>
    reactStr[1][number]=length;
    2b52:	80 93 5f 39 	sts	0x395F, r24	; 0x80395f <reactStr+0x42>
    2b56:	90 93 60 39 	sts	0x3960, r25	; 0x803960 <reactStr+0x43>
    reactStr[2][number]=type;
    2b5a:	10 92 9f 39 	sts	0x399F, r1	; 0x80399f <reactStr+0x82>
    2b5e:	10 92 a0 39 	sts	0x39A0, r1	; 0x8039a0 <reactStr+0x83>
                effect = currObj.byteField[EFFECTS];
            
            //No way out, print denied message of location
            } else {
                SetResponse(elements++, currObj.addrStr[OPEN_ACL_MSG], currObj.lenStr[OPEN_ACL_MSG], GAME);
                effect = currObj.effect[0];               
    2b62:	80 91 45 3a 	lds	r24, 0x3A45	; 0x803a45 <currObj+0x28>
    2b66:	3a c6       	rjmp	.+3188   	; 0x37dc <ProcessInput+0xd40>
            }   
        
        //Enter locations or Open objects    
        } else if ((data[0] == 'e')||(data[0] == 'o')) {
    2b68:	85 36       	cpi	r24, 0x65	; 101
    2b6a:	19 f0       	breq	.+6      	; 0x2b72 <ProcessInput+0xd6>
    2b6c:	8f 36       	cpi	r24, 0x6F	; 111
    2b6e:	09 f0       	breq	.+2      	; 0x2b72 <ProcessInput+0xd6>
    2b70:	df c0       	rjmp	.+446    	; 0x2d30 <ProcessInput+0x294>
                
            //Not possible, too many/little characters
            if (inputLen != 2){
    2b72:	b2 e0       	ldi	r27, 0x02	; 2
    2b74:	fb 12       	cpse	r15, r27
    2b76:	c1 cf       	rjmp	.-126    	; 0x2afa <ProcessInput+0x5e>
                SetResponse(elements++, A_NOTPOSSIBLE, L_NOTPOSSIBLE, TEASER);
            } else {
                uint8_t canDo = 0;
                route[currDepth+1] = FindChild(route[currDepth], data[1], 0);
    2b78:	e0 90 2c 38 	lds	r14, 0x382C	; 0x80382c <currDepth>
    2b7c:	f1 2c       	mov	r15, r1
    2b7e:	f7 01       	movw	r30, r14
    2b80:	ee 0f       	add	r30, r30
    2b82:	ff 1f       	adc	r31, r31
    2b84:	e3 52       	subi	r30, 0x23	; 35
    2b86:	f6 4c       	sbci	r31, 0xC6	; 198
    2b88:	40 e0       	ldi	r20, 0x00	; 0
    2b8a:	50 e0       	ldi	r21, 0x00	; 0
    2b8c:	d8 01       	movw	r26, r16
    2b8e:	11 96       	adiw	r26, 0x01	; 1
    2b90:	6c 91       	ld	r22, X
    2b92:	80 81       	ld	r24, Z
    2b94:	91 81       	ldd	r25, Z+1	; 0x01
    2b96:	93 db       	rcall	.-2266   	; 0x22be <FindChild>
    2b98:	f7 01       	movw	r30, r14
    2b9a:	ee 0f       	add	r30, r30
    2b9c:	ff 1f       	adc	r31, r31
    2b9e:	e1 52       	subi	r30, 0x21	; 33
    2ba0:	f6 4c       	sbci	r31, 0xC6	; 198
    2ba2:	80 83       	st	Z, r24
    2ba4:	91 83       	std	Z+1, r25	; 0x01
                    
                //Child found?
                if (route[currDepth+1]) {
    2ba6:	90 91 2c 38 	lds	r25, 0x382C	; 0x80382c <currDepth>
    2baa:	29 2f       	mov	r18, r25
    2bac:	30 e0       	ldi	r19, 0x00	; 0
    2bae:	f9 01       	movw	r30, r18
    2bb0:	ee 0f       	add	r30, r30
    2bb2:	ff 1f       	adc	r31, r31
    2bb4:	e1 52       	subi	r30, 0x21	; 33
    2bb6:	f6 4c       	sbci	r31, 0xC6	; 198
    2bb8:	40 81       	ld	r20, Z
    2bba:	51 81       	ldd	r21, Z+1	; 0x01
    2bbc:	41 15       	cp	r20, r1
    2bbe:	51 05       	cpc	r21, r1
    2bc0:	21 f0       	breq	.+8      	; 0x2bca <ProcessInput+0x12e>
                    PopulateObject(route[currDepth+1], &actObj1);
    2bc2:	6c ed       	ldi	r22, 0xDC	; 220
    2bc4:	78 e3       	ldi	r23, 0x38	; 56
    2bc6:	ca 01       	movw	r24, r20
    2bc8:	1c c0       	rjmp	.+56     	; 0x2c02 <ProcessInput+0x166>
                    canDo = 1;
                //No child, maybe a step back, letter ok?
                } else if (currDepth) {
    2bca:	99 23       	and	r25, r25
    2bcc:	09 f4       	brne	.+2      	; 0x2bd0 <ProcessInput+0x134>
    2bce:	95 c7       	rjmp	.+3882   	; 0x3afa <ProcessInput+0x105e>
                    if (CheckLetter(route[currDepth-1], data[1])) {
    2bd0:	22 0f       	add	r18, r18
    2bd2:	33 1f       	adc	r19, r19
    2bd4:	f9 01       	movw	r30, r18
    2bd6:	e5 52       	subi	r30, 0x25	; 37
    2bd8:	f6 4c       	sbci	r31, 0xC6	; 198
    2bda:	d8 01       	movw	r26, r16
    2bdc:	11 96       	adiw	r26, 0x01	; 1
    2bde:	6c 91       	ld	r22, X
    2be0:	80 81       	ld	r24, Z
    2be2:	91 81       	ldd	r25, Z+1	; 0x01
    2be4:	18 db       	rcall	.-2512   	; 0x2216 <CheckLetter>
    2be6:	88 23       	and	r24, r24
    2be8:	09 f4       	brne	.+2      	; 0x2bec <ProcessInput+0x150>
    2bea:	87 c7       	rjmp	.+3854   	; 0x3afa <ProcessInput+0x105e>
                        PopulateObject(route[currDepth-1], &actObj1);
    2bec:	e0 91 2c 38 	lds	r30, 0x382C	; 0x80382c <currDepth>
    2bf0:	f0 e0       	ldi	r31, 0x00	; 0
    2bf2:	ee 0f       	add	r30, r30
    2bf4:	ff 1f       	adc	r31, r31
    2bf6:	e5 52       	subi	r30, 0x25	; 37
    2bf8:	f6 4c       	sbci	r31, 0xC6	; 198
    2bfa:	6c ed       	ldi	r22, 0xDC	; 220
    2bfc:	78 e3       	ldi	r23, 0x38	; 56
    2bfe:	80 81       	ld	r24, Z
    2c00:	91 81       	ldd	r25, Z+1	; 0x01
    2c02:	92 da       	rcall	.-2780   	; 0x2128 <PopulateObject>
                    }
                }

                //The candidate is found! Let's check if the action is legit
                if (canDo) {
                    if ((data[0] == 'e') && ((actObj1.byteField[ACTION_MASK]&ENTER)==0)) {
    2c04:	f8 01       	movw	r30, r16
    2c06:	80 81       	ld	r24, Z
    2c08:	85 36       	cpi	r24, 0x65	; 101
    2c0a:	c9 f4       	brne	.+50     	; 0x2c3e <ProcessInput+0x1a2>
    2c0c:	80 91 e4 38 	lds	r24, 0x38E4	; 0x8038e4 <actObj1.3995+0x8>
    2c10:	80 fd       	sbrc	r24, 0
    2c12:	1e c0       	rjmp	.+60     	; 0x2c50 <ProcessInput+0x1b4>
    return 0;
}

//
void SetResponse(uint8_t number, uint16_t address, uint16_t length, uint8_t type){
    reactStr[0][number]=address;
    2c14:	8f e9       	ldi	r24, 0x9F	; 159
    2c16:	99 e7       	ldi	r25, 0x79	; 121
    2c18:	80 93 1f 39 	sts	0x391F, r24	; 0x80391f <reactStr+0x2>
    2c1c:	90 93 20 39 	sts	0x3920, r25	; 0x803920 <reactStr+0x3>
    reactStr[1][number]=length;
    2c20:	8e e1       	ldi	r24, 0x1E	; 30
    2c22:	90 e0       	ldi	r25, 0x00	; 0
    2c24:	80 93 5f 39 	sts	0x395F, r24	; 0x80395f <reactStr+0x42>
    2c28:	90 93 60 39 	sts	0x3960, r25	; 0x803960 <reactStr+0x43>
    reactStr[2][number]=type;
    2c2c:	81 e0       	ldi	r24, 0x01	; 1
    2c2e:	90 e0       	ldi	r25, 0x00	; 0
    2c30:	80 93 9f 39 	sts	0x399F, r24	; 0x80399f <reactStr+0x82>
    2c34:	90 93 a0 39 	sts	0x39A0, r25	; 0x8039a0 <reactStr+0x83>
                }

                //The candidate is found! Let's check if the action is legit
                if (canDo) {
                    if ((data[0] == 'e') && ((actObj1.byteField[ACTION_MASK]&ENTER)==0)) {
                        SetResponse(elements++, A_CANTENTER, L_CANTENTER, TEASER);
    2c38:	72 e0       	ldi	r23, 0x02	; 2
    2c3a:	77 2e       	mov	r7, r23
    2c3c:	2c c7       	rjmp	.+3672   	; 0x3a96 <ProcessInput+0xffa>
                    } else if ((data[0] == 'o') && ((actObj1.byteField[ACTION_MASK]&OPEN)==0)) {
    2c3e:	8f 36       	cpi	r24, 0x6F	; 111
    2c40:	39 f4       	brne	.+14     	; 0x2c50 <ProcessInput+0x1b4>
    2c42:	80 91 e4 38 	lds	r24, 0x38E4	; 0x8038e4 <actObj1.3995+0x8>
    2c46:	81 fd       	sbrc	r24, 1
    2c48:	03 c0       	rjmp	.+6      	; 0x2c50 <ProcessInput+0x1b4>
    return 0;
}

//
void SetResponse(uint8_t number, uint16_t address, uint16_t length, uint8_t type){
    reactStr[0][number]=address;
    2c4a:	84 e8       	ldi	r24, 0x84	; 132
    2c4c:	99 e7       	ldi	r25, 0x79	; 121
    2c4e:	f9 c4       	rjmp	.+2546   	; 0x3642 <ProcessInput+0xba6>
                        SetResponse(elements++, A_CANTENTER, L_CANTENTER, TEASER);
                    } else if ((data[0] == 'o') && ((actObj1.byteField[ACTION_MASK]&OPEN)==0)) {
                        SetResponse(elements++, A_CANTOPEN, L_CANTOPEN, TEASER);
                    
                    //Action legit, permission granted?
                    } else if (CheckState(actObj1.byteField[OPEN_ACL])) {
    2c50:	80 91 e2 38 	lds	r24, 0x38E2	; 0x8038e2 <actObj1.3995+0x6>
    2c54:	0e 94 d1 0a 	call	0x15a2	; 0x15a2 <CheckState>
    2c58:	e0 91 2c 38 	lds	r30, 0x382C	; 0x80382c <currDepth>
    2c5c:	88 23       	and	r24, r24
    2c5e:	09 f4       	brne	.+2      	; 0x2c62 <ProcessInput+0x1c6>
    2c60:	49 c0       	rjmp	.+146    	; 0x2cf4 <ProcessInput+0x258>
                            
                        //Yes! Check if we must move forward or backwards.
                        if (route[currDepth+1]) ++currDepth; else --currDepth;
    2c62:	ae 2f       	mov	r26, r30
    2c64:	b0 e0       	ldi	r27, 0x00	; 0
    2c66:	aa 0f       	add	r26, r26
    2c68:	bb 1f       	adc	r27, r27
    2c6a:	a1 52       	subi	r26, 0x21	; 33
    2c6c:	b6 4c       	sbci	r27, 0xC6	; 198
    2c6e:	8d 91       	ld	r24, X+
    2c70:	9c 91       	ld	r25, X
    2c72:	89 2b       	or	r24, r25
    2c74:	11 f0       	breq	.+4      	; 0x2c7a <ProcessInput+0x1de>
    2c76:	ef 5f       	subi	r30, 0xFF	; 255
    2c78:	01 c0       	rjmp	.+2      	; 0x2c7c <ProcessInput+0x1e0>
    2c7a:	e1 50       	subi	r30, 0x01	; 1
    2c7c:	e0 93 2c 38 	sts	0x382C, r30	; 0x80382c <currDepth>
                        PopulateObject(route[currDepth], &currObj);
    2c80:	e0 91 2c 38 	lds	r30, 0x382C	; 0x80382c <currDepth>
    2c84:	f0 e0       	ldi	r31, 0x00	; 0
    2c86:	ee 0f       	add	r30, r30
    2c88:	ff 1f       	adc	r31, r31
    2c8a:	e3 52       	subi	r30, 0x23	; 35
    2c8c:	f6 4c       	sbci	r31, 0xC6	; 198
    2c8e:	6d e1       	ldi	r22, 0x1D	; 29
    2c90:	7a e3       	ldi	r23, 0x3A	; 58
    2c92:	80 81       	ld	r24, Z
    2c94:	91 81       	ldd	r25, Z+1	; 0x01
    2c96:	48 da       	rcall	.-2928   	; 0x2128 <PopulateObject>
                        SetResponse(elements++, currObj.addrStr[DESC], currObj.lenStr[DESC],GAME);
    2c98:	80 91 39 3a 	lds	r24, 0x3A39	; 0x803a39 <currObj+0x1c>
    2c9c:	90 91 3a 3a 	lds	r25, 0x3A3A	; 0x803a3a <currObj+0x1d>
    return 0;
}

//
void SetResponse(uint8_t number, uint16_t address, uint16_t length, uint8_t type){
    reactStr[0][number]=address;
    2ca0:	20 91 2b 3a 	lds	r18, 0x3A2B	; 0x803a2b <currObj+0xe>
    2ca4:	30 91 2c 3a 	lds	r19, 0x3A2C	; 0x803a2c <currObj+0xf>
    2ca8:	20 93 1f 39 	sts	0x391F, r18	; 0x80391f <reactStr+0x2>
    2cac:	30 93 20 39 	sts	0x3920, r19	; 0x803920 <reactStr+0x3>
    reactStr[1][number]=length;
    2cb0:	80 93 5f 39 	sts	0x395F, r24	; 0x80395f <reactStr+0x42>
    2cb4:	90 93 60 39 	sts	0x3960, r25	; 0x803960 <reactStr+0x43>
    reactStr[2][number]=type;
    2cb8:	10 92 9f 39 	sts	0x399F, r1	; 0x80399f <reactStr+0x82>
    2cbc:	10 92 a0 39 	sts	0x39A0, r1	; 0x8039a0 <reactStr+0x83>
    return 0;
}

//
void SetResponse(uint8_t number, uint16_t address, uint16_t length, uint8_t type){
    reactStr[0][number]=address;
    2cc0:	8b e5       	ldi	r24, 0x5B	; 91
    2cc2:	9a e7       	ldi	r25, 0x7A	; 122
    2cc4:	80 93 21 39 	sts	0x3921, r24	; 0x803921 <reactStr+0x4>
    2cc8:	90 93 22 39 	sts	0x3922, r25	; 0x803922 <reactStr+0x5>
    reactStr[1][number]=length;
    2ccc:	82 e0       	ldi	r24, 0x02	; 2
    2cce:	90 e0       	ldi	r25, 0x00	; 0
    2cd0:	80 93 61 39 	sts	0x3961, r24	; 0x803961 <reactStr+0x44>
    2cd4:	90 93 62 39 	sts	0x3962, r25	; 0x803962 <reactStr+0x45>
    reactStr[2][number]=type;
    2cd8:	81 e0       	ldi	r24, 0x01	; 1
    2cda:	90 e0       	ldi	r25, 0x00	; 0
    2cdc:	80 93 a1 39 	sts	0x39A1, r24	; 0x8039a1 <reactStr+0x84>
    2ce0:	90 93 a2 39 	sts	0x39A2, r25	; 0x8039a2 <reactStr+0x85>
                        //Yes! Check if we must move forward or backwards.
                        if (route[currDepth+1]) ++currDepth; else --currDepth;
                        PopulateObject(route[currDepth], &currObj);
                        SetResponse(elements++, currObj.addrStr[DESC], currObj.lenStr[DESC],GAME);
                        SetResponse(elements++, A_LF, 2, TEASER);
                        effect = currObj.byteField[EFFECTS];
    2ce4:	80 91 21 3a 	lds	r24, 0x3A21	; 0x803a21 <currObj+0x4>
    2ce8:	90 e0       	ldi	r25, 0x00	; 0
    2cea:	80 93 3a 38 	sts	0x383A, r24	; 0x80383a <effect>
    2cee:	90 93 3b 38 	sts	0x383B, r25	; 0x80383b <effect+0x1>
    2cf2:	8d c4       	rjmp	.+2330   	; 0x360e <ProcessInput+0xb72>
                                                  
                    //Not granted!
                    } else {
                        route[currDepth+1] = 0;
    2cf4:	f0 e0       	ldi	r31, 0x00	; 0
    2cf6:	ee 0f       	add	r30, r30
    2cf8:	ff 1f       	adc	r31, r31
    2cfa:	e1 52       	subi	r30, 0x21	; 33
    2cfc:	f6 4c       	sbci	r31, 0xC6	; 198
    2cfe:	10 82       	st	Z, r1
    2d00:	11 82       	std	Z+1, r1	; 0x01
                        SetResponse(elements++, actObj1.addrStr[OPEN_ACL_MSG], actObj1.lenStr[OPEN_ACL_MSG], GAME);
    2d02:	80 91 fe 38 	lds	r24, 0x38FE	; 0x8038fe <actObj1.3995+0x22>
    2d06:	90 91 ff 38 	lds	r25, 0x38FF	; 0x8038ff <actObj1.3995+0x23>
    return 0;
}

//
void SetResponse(uint8_t number, uint16_t address, uint16_t length, uint8_t type){
    reactStr[0][number]=address;
    2d0a:	20 91 f0 38 	lds	r18, 0x38F0	; 0x8038f0 <actObj1.3995+0x14>
    2d0e:	30 91 f1 38 	lds	r19, 0x38F1	; 0x8038f1 <actObj1.3995+0x15>
    2d12:	20 93 1f 39 	sts	0x391F, r18	; 0x80391f <reactStr+0x2>
    2d16:	30 93 20 39 	sts	0x3920, r19	; 0x803920 <reactStr+0x3>
    reactStr[1][number]=length;
    2d1a:	80 93 5f 39 	sts	0x395F, r24	; 0x80395f <reactStr+0x42>
    2d1e:	90 93 60 39 	sts	0x3960, r25	; 0x803960 <reactStr+0x43>
    reactStr[2][number]=type;
    2d22:	10 92 9f 39 	sts	0x399F, r1	; 0x80399f <reactStr+0x82>
    2d26:	10 92 a0 39 	sts	0x39A0, r1	; 0x8039a0 <reactStr+0x83>
                                                  
                    //Not granted!
                    } else {
                        route[currDepth+1] = 0;
                        SetResponse(elements++, actObj1.addrStr[OPEN_ACL_MSG], actObj1.lenStr[OPEN_ACL_MSG], GAME);
                        effect = actObj1.effect[0];              
    2d2a:	80 91 04 39 	lds	r24, 0x3904	; 0x803904 <actObj1.3995+0x28>
    2d2e:	56 c5       	rjmp	.+2732   	; 0x37dc <ProcessInput+0xd40>
                    SetResponse(elements++, A_DONTSEE, L_DONTSEE, TEASER);                
                }
            }

        //Look around or at objects
        } else if (data[0] == 'l') {
    2d30:	8c 36       	cpi	r24, 0x6C	; 108
    2d32:	09 f0       	breq	.+2      	; 0x2d36 <ProcessInput+0x29a>
    2d34:	57 c1       	rjmp	.+686    	; 0x2fe4 <ProcessInput+0x548>
    2d36:	e0 91 2c 38 	lds	r30, 0x382C	; 0x80382c <currDepth>
            if (inputLen == 1) {
    2d3a:	b1 e0       	ldi	r27, 0x01	; 1
    2d3c:	fb 12       	cpse	r15, r27
    2d3e:	f6 c0       	rjmp	.+492    	; 0x2f2c <ProcessInput+0x490>

                //Show info about this area first
                SetResponse(elements++, currObj.addrStr[DESC], currObj.lenStr[DESC],GAME);
    2d40:	80 91 39 3a 	lds	r24, 0x3A39	; 0x803a39 <currObj+0x1c>
    2d44:	90 91 3a 3a 	lds	r25, 0x3A3A	; 0x803a3a <currObj+0x1d>
    return 0;
}

//
void SetResponse(uint8_t number, uint16_t address, uint16_t length, uint8_t type){
    reactStr[0][number]=address;
    2d48:	20 91 2b 3a 	lds	r18, 0x3A2B	; 0x803a2b <currObj+0xe>
    2d4c:	30 91 2c 3a 	lds	r19, 0x3A2C	; 0x803a2c <currObj+0xf>
    2d50:	20 93 1f 39 	sts	0x391F, r18	; 0x80391f <reactStr+0x2>
    2d54:	30 93 20 39 	sts	0x3920, r19	; 0x803920 <reactStr+0x3>
    reactStr[1][number]=length;
    2d58:	80 93 5f 39 	sts	0x395F, r24	; 0x80395f <reactStr+0x42>
    2d5c:	90 93 60 39 	sts	0x3960, r25	; 0x803960 <reactStr+0x43>
    reactStr[2][number]=type;
    2d60:	10 92 9f 39 	sts	0x399F, r1	; 0x80399f <reactStr+0x82>
    2d64:	10 92 a0 39 	sts	0x39A0, r1	; 0x8039a0 <reactStr+0x83>
    return 0;
}

//
void SetResponse(uint8_t number, uint16_t address, uint16_t length, uint8_t type){
    reactStr[0][number]=address;
    2d68:	8b e5       	ldi	r24, 0x5B	; 91
    2d6a:	9a e7       	ldi	r25, 0x7A	; 122
    2d6c:	80 93 21 39 	sts	0x3921, r24	; 0x803921 <reactStr+0x4>
    2d70:	90 93 22 39 	sts	0x3922, r25	; 0x803922 <reactStr+0x5>
    reactStr[1][number]=length;
    2d74:	82 e0       	ldi	r24, 0x02	; 2
    2d76:	90 e0       	ldi	r25, 0x00	; 0
    2d78:	80 93 61 39 	sts	0x3961, r24	; 0x803961 <reactStr+0x44>
    2d7c:	90 93 62 39 	sts	0x3962, r25	; 0x803962 <reactStr+0x45>
    reactStr[2][number]=type;
    2d80:	81 e0       	ldi	r24, 0x01	; 1
    2d82:	90 e0       	ldi	r25, 0x00	; 0
    2d84:	80 93 a1 39 	sts	0x39A1, r24	; 0x8039a1 <reactStr+0x84>
    2d88:	90 93 a2 39 	sts	0x39A2, r25	; 0x8039a2 <reactStr+0x85>
    return 0;
}

//
void SetResponse(uint8_t number, uint16_t address, uint16_t length, uint8_t type){
    reactStr[0][number]=address;
    2d8c:	2d ee       	ldi	r18, 0xED	; 237
    2d8e:	39 e7       	ldi	r19, 0x79	; 121
    2d90:	20 93 23 39 	sts	0x3923, r18	; 0x803923 <reactStr+0x6>
    2d94:	30 93 24 39 	sts	0x3924, r19	; 0x803924 <reactStr+0x7>
    reactStr[1][number]=length;
    2d98:	25 e1       	ldi	r18, 0x15	; 21
    2d9a:	30 e0       	ldi	r19, 0x00	; 0
    2d9c:	20 93 63 39 	sts	0x3963, r18	; 0x803963 <reactStr+0x46>
    2da0:	30 93 64 39 	sts	0x3964, r19	; 0x803964 <reactStr+0x47>
    reactStr[2][number]=type;
    2da4:	80 93 a3 39 	sts	0x39A3, r24	; 0x8039a3 <reactStr+0x86>
    2da8:	90 93 a4 39 	sts	0x39A4, r25	; 0x8039a4 <reactStr+0x87>
                SetResponse(elements++, currObj.addrStr[DESC], currObj.lenStr[DESC],GAME);
                SetResponse(elements++, A_LF, 2, TEASER);
                SetResponse(elements++, A_LOOK, L_LOOK, TEASER);

                //Check the visible children first
                route[currDepth+1] = 0;
    2dac:	f0 e0       	ldi	r31, 0x00	; 0
    2dae:	ee 0f       	add	r30, r30
    2db0:	ff 1f       	adc	r31, r31
    2db2:	e1 52       	subi	r30, 0x21	; 33
    2db4:	f6 4c       	sbci	r31, 0xC6	; 198
    2db6:	10 82       	st	Z, r1
    2db8:	11 82       	std	Z+1, r1	; 0x01
            if (inputLen == 1) {

                //Show info about this area first
                SetResponse(elements++, currObj.addrStr[DESC], currObj.lenStr[DESC],GAME);
                SetResponse(elements++, A_LF, 2, TEASER);
                SetResponse(elements++, A_LOOK, L_LOOK, TEASER);
    2dba:	84 e0       	ldi	r24, 0x04	; 4
    2dbc:	68 2e       	mov	r6, r24
    return 0;
}

//
void SetResponse(uint8_t number, uint16_t address, uint16_t length, uint8_t type){
    reactStr[0][number]=address;
    2dbe:	99 e5       	ldi	r25, 0x59	; 89
    2dc0:	c9 2e       	mov	r12, r25
    2dc2:	9a e7       	ldi	r25, 0x7A	; 122
    2dc4:	d9 2e       	mov	r13, r25
    reactStr[1][number]=length;
    2dc6:	22 e0       	ldi	r18, 0x02	; 2
    2dc8:	a2 2e       	mov	r10, r18
    2dca:	b1 2c       	mov	r11, r1
    reactStr[2][number]=type;
    2dcc:	88 24       	eor	r8, r8
    2dce:	83 94       	inc	r8
    2dd0:	91 2c       	mov	r9, r1
                SetResponse(elements++, A_LOOK, L_LOOK, TEASER);

                //Check the visible children first
                route[currDepth+1] = 0;
                do{
                    route[currDepth+1] = FindChild(route[currDepth], 0, route[currDepth+1]);
    2dd2:	80 91 2c 38 	lds	r24, 0x382C	; 0x80382c <currDepth>
    2dd6:	90 e0       	ldi	r25, 0x00	; 0
    2dd8:	9c 01       	movw	r18, r24
    2dda:	22 0f       	add	r18, r18
    2ddc:	33 1f       	adc	r19, r19
    2dde:	f9 01       	movw	r30, r18
    2de0:	e1 52       	subi	r30, 0x21	; 33
    2de2:	f6 4c       	sbci	r31, 0xC6	; 198
    2de4:	7f 01       	movw	r14, r30
    2de6:	40 81       	ld	r20, Z
    2de8:	51 81       	ldd	r21, Z+1	; 0x01
    2dea:	f9 01       	movw	r30, r18
    2dec:	e3 52       	subi	r30, 0x23	; 35
    2dee:	f6 4c       	sbci	r31, 0xC6	; 198
    2df0:	60 e0       	ldi	r22, 0x00	; 0
    2df2:	80 81       	ld	r24, Z
    2df4:	91 81       	ldd	r25, Z+1	; 0x01
    2df6:	63 da       	rcall	.-2874   	; 0x22be <FindChild>
    2df8:	d7 01       	movw	r26, r14
    2dfa:	8d 93       	st	X+, r24
    2dfc:	9c 93       	st	X, r25
                    if (route[currDepth+1]) {
    2dfe:	e0 91 2c 38 	lds	r30, 0x382C	; 0x80382c <currDepth>
    2e02:	f0 e0       	ldi	r31, 0x00	; 0
    2e04:	ee 0f       	add	r30, r30
    2e06:	ff 1f       	adc	r31, r31
    2e08:	e1 52       	subi	r30, 0x21	; 33
    2e0a:	f6 4c       	sbci	r31, 0xC6	; 198
    2e0c:	80 81       	ld	r24, Z
    2e0e:	91 81       	ldd	r25, Z+1	; 0x01
    2e10:	00 97       	sbiw	r24, 0x00	; 0
    2e12:	09 f4       	brne	.+2      	; 0x2e16 <ProcessInput+0x37a>
    2e14:	4a c0       	rjmp	.+148    	; 0x2eaa <ProcessInput+0x40e>
                        if ((route[currDepth+1] != inventory[0])&&(route[currDepth+1] != inventory[1])) {
    2e16:	20 91 3e 38 	lds	r18, 0x383E	; 0x80383e <inventory>
    2e1a:	30 91 3f 38 	lds	r19, 0x383F	; 0x80383f <inventory+0x1>
    2e1e:	82 17       	cp	r24, r18
    2e20:	93 07       	cpc	r25, r19
    2e22:	09 f4       	brne	.+2      	; 0x2e26 <ProcessInput+0x38a>
    2e24:	42 c0       	rjmp	.+132    	; 0x2eaa <ProcessInput+0x40e>
    2e26:	20 91 40 38 	lds	r18, 0x3840	; 0x803840 <inventory+0x2>
    2e2a:	30 91 41 38 	lds	r19, 0x3841	; 0x803841 <inventory+0x3>
    2e2e:	82 17       	cp	r24, r18
    2e30:	93 07       	cpc	r25, r19
                            PopulateObject(route[currDepth+1], &actObj1);
    2e32:	d9 f1       	breq	.+118    	; 0x2eaa <ProcessInput+0x40e>
    2e34:	6c ed       	ldi	r22, 0xDC	; 220
    2e36:	78 e3       	ldi	r23, 0x38	; 56
    2e38:	77 d9       	rcall	.-3346   	; 0x2128 <PopulateObject>
                            SetResponse(elements++, actObj1.addrStr[NAME], actObj1.lenStr[NAME],GAME);
    2e3a:	80 91 f6 38 	lds	r24, 0x38F6	; 0x8038f6 <actObj1.3995+0x1a>
    2e3e:	90 91 f7 38 	lds	r25, 0x38F7	; 0x8038f7 <actObj1.3995+0x1b>
    return 0;
}

//
void SetResponse(uint8_t number, uint16_t address, uint16_t length, uint8_t type){
    reactStr[0][number]=address;
    2e42:	e6 2d       	mov	r30, r6
    2e44:	f0 e0       	ldi	r31, 0x00	; 0
    2e46:	df 01       	movw	r26, r30
    2e48:	aa 0f       	add	r26, r26
    2e4a:	bb 1f       	adc	r27, r27
    2e4c:	a3 5e       	subi	r26, 0xE3	; 227
    2e4e:	b6 4c       	sbci	r27, 0xC6	; 198
    2e50:	20 91 e8 38 	lds	r18, 0x38E8	; 0x8038e8 <actObj1.3995+0xc>
    2e54:	30 91 e9 38 	lds	r19, 0x38E9	; 0x8038e9 <actObj1.3995+0xd>
    2e58:	2d 93       	st	X+, r18
    2e5a:	3c 93       	st	X, r19
    reactStr[1][number]=length;
    2e5c:	df 01       	movw	r26, r30
    2e5e:	aa 0f       	add	r26, r26
    2e60:	bb 1f       	adc	r27, r27
    2e62:	a3 5a       	subi	r26, 0xA3	; 163
    2e64:	b6 4c       	sbci	r27, 0xC6	; 198
    2e66:	8d 93       	st	X+, r24
    2e68:	9c 93       	st	X, r25
    reactStr[2][number]=type;
    2e6a:	ee 0f       	add	r30, r30
    2e6c:	ff 1f       	adc	r31, r31
    2e6e:	e3 56       	subi	r30, 0x63	; 99
    2e70:	f6 4c       	sbci	r31, 0xC6	; 198
    2e72:	10 82       	st	Z, r1
    2e74:	11 82       	std	Z+1, r1	; 0x01
    return 0;
}

//
void SetResponse(uint8_t number, uint16_t address, uint16_t length, uint8_t type){
    reactStr[0][number]=address;
    2e76:	81 e0       	ldi	r24, 0x01	; 1
    2e78:	86 0d       	add	r24, r6
    2e7a:	90 e0       	ldi	r25, 0x00	; 0
    2e7c:	63 94       	inc	r6
    2e7e:	63 94       	inc	r6
    2e80:	fc 01       	movw	r30, r24
    2e82:	ee 0f       	add	r30, r30
    2e84:	ff 1f       	adc	r31, r31
    2e86:	e3 5e       	subi	r30, 0xE3	; 227
    2e88:	f6 4c       	sbci	r31, 0xC6	; 198
    2e8a:	c0 82       	st	Z, r12
    2e8c:	d1 82       	std	Z+1, r13	; 0x01
    reactStr[1][number]=length;
    2e8e:	fc 01       	movw	r30, r24
    2e90:	ee 0f       	add	r30, r30
    2e92:	ff 1f       	adc	r31, r31
    2e94:	e3 5a       	subi	r30, 0xA3	; 163
    2e96:	f6 4c       	sbci	r31, 0xC6	; 198
    2e98:	a0 82       	st	Z, r10
    2e9a:	b1 82       	std	Z+1, r11	; 0x01
    reactStr[2][number]=type;
    2e9c:	88 0f       	add	r24, r24
    2e9e:	99 1f       	adc	r25, r25
    2ea0:	fc 01       	movw	r30, r24
    2ea2:	e3 56       	subi	r30, 0x63	; 99
    2ea4:	f6 4c       	sbci	r31, 0xC6	; 198
    2ea6:	80 82       	st	Z, r8
    2ea8:	91 82       	std	Z+1, r9	; 0x01
                            PopulateObject(route[currDepth+1], &actObj1);
                            SetResponse(elements++, actObj1.addrStr[NAME], actObj1.lenStr[NAME],GAME);
                            SetResponse(elements++, A_COMMA, L_COMMA, TEASER);
                        }
                    }
                }while (route[currDepth+1]);
    2eaa:	20 91 2c 38 	lds	r18, 0x382C	; 0x80382c <currDepth>
    2eae:	82 2f       	mov	r24, r18
    2eb0:	90 e0       	ldi	r25, 0x00	; 0
    2eb2:	fc 01       	movw	r30, r24
    2eb4:	ee 0f       	add	r30, r30
    2eb6:	ff 1f       	adc	r31, r31
    2eb8:	e1 52       	subi	r30, 0x21	; 33
    2eba:	f6 4c       	sbci	r31, 0xC6	; 198
    2ebc:	40 81       	ld	r20, Z
    2ebe:	51 81       	ldd	r21, Z+1	; 0x01
    2ec0:	45 2b       	or	r20, r21
    2ec2:	09 f0       	breq	.+2      	; 0x2ec6 <ProcessInput+0x42a>
    2ec4:	86 cf       	rjmp	.-244    	; 0x2dd2 <ProcessInput+0x336>

                //Look back if not on level 0
                if (currDepth) {
    2ec6:	22 23       	and	r18, r18
    2ec8:	69 f1       	breq	.+90     	; 0x2f24 <ProcessInput+0x488>
                    PopulateObject(route[currDepth-1], &actObj1);
    2eca:	88 0f       	add	r24, r24
    2ecc:	99 1f       	adc	r25, r25
    2ece:	fc 01       	movw	r30, r24
    2ed0:	e5 52       	subi	r30, 0x25	; 37
    2ed2:	f6 4c       	sbci	r31, 0xC6	; 198
    2ed4:	6c ed       	ldi	r22, 0xDC	; 220
    2ed6:	78 e3       	ldi	r23, 0x38	; 56
    2ed8:	80 81       	ld	r24, Z
    2eda:	91 81       	ldd	r25, Z+1	; 0x01
    2edc:	25 d9       	rcall	.-3510   	; 0x2128 <PopulateObject>
                    SetResponse(elements++, actObj1.addrStr[NAME], actObj1.lenStr[NAME],GAME);
    2ede:	20 91 f6 38 	lds	r18, 0x38F6	; 0x8038f6 <actObj1.3995+0x1a>
    2ee2:	30 91 f7 38 	lds	r19, 0x38F7	; 0x8038f7 <actObj1.3995+0x1b>
    2ee6:	77 24       	eor	r7, r7
    2ee8:	73 94       	inc	r7
    2eea:	76 0c       	add	r7, r6
    return 0;
}

//
void SetResponse(uint8_t number, uint16_t address, uint16_t length, uint8_t type){
    reactStr[0][number]=address;
    2eec:	86 2d       	mov	r24, r6
    2eee:	90 e0       	ldi	r25, 0x00	; 0
    2ef0:	fc 01       	movw	r30, r24
    2ef2:	ee 0f       	add	r30, r30
    2ef4:	ff 1f       	adc	r31, r31
    2ef6:	e3 5e       	subi	r30, 0xE3	; 227
    2ef8:	f6 4c       	sbci	r31, 0xC6	; 198
    2efa:	40 91 e8 38 	lds	r20, 0x38E8	; 0x8038e8 <actObj1.3995+0xc>
    2efe:	50 91 e9 38 	lds	r21, 0x38E9	; 0x8038e9 <actObj1.3995+0xd>
    2f02:	40 83       	st	Z, r20
    2f04:	51 83       	std	Z+1, r21	; 0x01
    reactStr[1][number]=length;
    2f06:	fc 01       	movw	r30, r24
    2f08:	ee 0f       	add	r30, r30
    2f0a:	ff 1f       	adc	r31, r31
    2f0c:	e3 5a       	subi	r30, 0xA3	; 163
    2f0e:	f6 4c       	sbci	r31, 0xC6	; 198
    2f10:	20 83       	st	Z, r18
    2f12:	31 83       	std	Z+1, r19	; 0x01
    reactStr[2][number]=type;
    2f14:	88 0f       	add	r24, r24
    2f16:	99 1f       	adc	r25, r25
    2f18:	fc 01       	movw	r30, r24
    2f1a:	e3 56       	subi	r30, 0x63	; 99
    2f1c:	f6 4c       	sbci	r31, 0xC6	; 198
    2f1e:	10 82       	st	Z, r1
    2f20:	11 82       	std	Z+1, r1	; 0x01
    2f22:	b9 c5       	rjmp	.+2930   	; 0x3a96 <ProcessInput+0xffa>

                //Look back if not on level 0
                if (currDepth) {
                    PopulateObject(route[currDepth-1], &actObj1);
                    SetResponse(elements++, actObj1.addrStr[NAME], actObj1.lenStr[NAME],GAME);
                } else elements-=1;
    2f24:	77 24       	eor	r7, r7
    2f26:	7a 94       	dec	r7
    2f28:	76 0c       	add	r7, r6
    2f2a:	b5 c5       	rjmp	.+2922   	; 0x3a96 <ProcessInput+0xffa>

            } else {
                route[currDepth+1] = FindChild(route[currDepth], data[1], 0);
    2f2c:	ee 2e       	mov	r14, r30
    2f2e:	f1 2c       	mov	r15, r1
    2f30:	f7 01       	movw	r30, r14
    2f32:	ee 0f       	add	r30, r30
    2f34:	ff 1f       	adc	r31, r31
    2f36:	e3 52       	subi	r30, 0x23	; 35
    2f38:	f6 4c       	sbci	r31, 0xC6	; 198
    2f3a:	40 e0       	ldi	r20, 0x00	; 0
    2f3c:	50 e0       	ldi	r21, 0x00	; 0
    2f3e:	d8 01       	movw	r26, r16
    2f40:	11 96       	adiw	r26, 0x01	; 1
    2f42:	6c 91       	ld	r22, X
    2f44:	80 81       	ld	r24, Z
    2f46:	91 81       	ldd	r25, Z+1	; 0x01
    2f48:	ba d9       	rcall	.-3212   	; 0x22be <FindChild>
    2f4a:	f7 01       	movw	r30, r14
    2f4c:	ee 0f       	add	r30, r30
    2f4e:	ff 1f       	adc	r31, r31
    2f50:	e1 52       	subi	r30, 0x21	; 33
    2f52:	f6 4c       	sbci	r31, 0xC6	; 198
    2f54:	80 83       	st	Z, r24
    2f56:	91 83       	std	Z+1, r25	; 0x01
                if (route[currDepth+1]) {
    2f58:	90 91 2c 38 	lds	r25, 0x382C	; 0x80382c <currDepth>
    2f5c:	29 2f       	mov	r18, r25
    2f5e:	30 e0       	ldi	r19, 0x00	; 0
    2f60:	f9 01       	movw	r30, r18
    2f62:	ee 0f       	add	r30, r30
    2f64:	ff 1f       	adc	r31, r31
    2f66:	e1 52       	subi	r30, 0x21	; 33
    2f68:	f6 4c       	sbci	r31, 0xC6	; 198
    2f6a:	40 81       	ld	r20, Z
    2f6c:	51 81       	ldd	r21, Z+1	; 0x01
    2f6e:	41 15       	cp	r20, r1
    2f70:	51 05       	cpc	r21, r1
    2f72:	21 f0       	breq	.+8      	; 0x2f7c <ProcessInput+0x4e0>
                    PopulateObject(route[currDepth+1], &actObj1);
    2f74:	6c ed       	ldi	r22, 0xDC	; 220
    2f76:	78 e3       	ldi	r23, 0x38	; 56
    2f78:	ca 01       	movw	r24, r20
    2f7a:	1e c0       	rjmp	.+60     	; 0x2fb8 <ProcessInput+0x51c>
//TODO: CHECKSTATE -> A_CANTLOOK item
                    SetResponse(elements++, actObj1.addrStr[DESC], actObj1.lenStr[DESC],GAME);   
                } else if (currDepth) {
    2f7c:	99 23       	and	r25, r25
    2f7e:	09 f4       	brne	.+2      	; 0x2f82 <ProcessInput+0x4e6>
                    if (CheckLetter(route[currDepth-1], data[1])) {
    2f80:	bc c5       	rjmp	.+2936   	; 0x3afa <ProcessInput+0x105e>
    2f82:	22 0f       	add	r18, r18
    2f84:	33 1f       	adc	r19, r19
    2f86:	f9 01       	movw	r30, r18
    2f88:	e5 52       	subi	r30, 0x25	; 37
    2f8a:	f6 4c       	sbci	r31, 0xC6	; 198
    2f8c:	d8 01       	movw	r26, r16
    2f8e:	11 96       	adiw	r26, 0x01	; 1
    2f90:	6c 91       	ld	r22, X
    2f92:	80 81       	ld	r24, Z
    2f94:	91 81       	ldd	r25, Z+1	; 0x01
    2f96:	3f d9       	rcall	.-3458   	; 0x2216 <CheckLetter>
    2f98:	81 11       	cpse	r24, r1
    2f9a:	03 c0       	rjmp	.+6      	; 0x2fa2 <ProcessInput+0x506>
}

//The game logic!
uint8_t ProcessInput(uint8_t *data){
    static object_model_t actObj1, actObj2;
    uint8_t elements = 1;
    2f9c:	77 24       	eor	r7, r7
    2f9e:	73 94       	inc	r7
                    PopulateObject(route[currDepth+1], &actObj1);
//TODO: CHECKSTATE -> A_CANTLOOK item
                    SetResponse(elements++, actObj1.addrStr[DESC], actObj1.lenStr[DESC],GAME);   
                } else if (currDepth) {
                    if (CheckLetter(route[currDepth-1], data[1])) {
                        PopulateObject(route[currDepth-1], &actObj1);
    2fa0:	7a c5       	rjmp	.+2804   	; 0x3a96 <ProcessInput+0xffa>
    2fa2:	e0 91 2c 38 	lds	r30, 0x382C	; 0x80382c <currDepth>
    2fa6:	f0 e0       	ldi	r31, 0x00	; 0
    2fa8:	ee 0f       	add	r30, r30
    2faa:	ff 1f       	adc	r31, r31
    2fac:	e5 52       	subi	r30, 0x25	; 37
    2fae:	f6 4c       	sbci	r31, 0xC6	; 198
    2fb0:	6c ed       	ldi	r22, 0xDC	; 220
    2fb2:	78 e3       	ldi	r23, 0x38	; 56
    2fb4:	80 81       	ld	r24, Z
    2fb6:	91 81       	ldd	r25, Z+1	; 0x01
    2fb8:	b7 d8       	rcall	.-3730   	; 0x2128 <PopulateObject>
                        SetResponse(elements++, actObj1.addrStr[DESC], actObj1.lenStr[DESC],GAME);
    2fba:	80 91 f8 38 	lds	r24, 0x38F8	; 0x8038f8 <actObj1.3995+0x1c>
    2fbe:	90 91 f9 38 	lds	r25, 0x38F9	; 0x8038f9 <actObj1.3995+0x1d>
    return 0;
}

//
void SetResponse(uint8_t number, uint16_t address, uint16_t length, uint8_t type){
    reactStr[0][number]=address;
    2fc2:	20 91 ea 38 	lds	r18, 0x38EA	; 0x8038ea <actObj1.3995+0xe>
    2fc6:	30 91 eb 38 	lds	r19, 0x38EB	; 0x8038eb <actObj1.3995+0xf>
    2fca:	20 93 1f 39 	sts	0x391F, r18	; 0x80391f <reactStr+0x2>
    2fce:	30 93 20 39 	sts	0x3920, r19	; 0x803920 <reactStr+0x3>
    reactStr[1][number]=length;
    2fd2:	80 93 5f 39 	sts	0x395F, r24	; 0x80395f <reactStr+0x42>
    2fd6:	90 93 60 39 	sts	0x3960, r25	; 0x803960 <reactStr+0x43>
    reactStr[2][number]=type;
    2fda:	10 92 9f 39 	sts	0x399F, r1	; 0x80399f <reactStr+0x82>
    2fde:	10 92 a0 39 	sts	0x39A0, r1	; 0x8039a0 <reactStr+0x83>
    2fe2:	2a ce       	rjmp	.-940    	; 0x2c38 <ProcessInput+0x19c>
                    SetResponse(elements++, A_DONTSEE, L_DONTSEE, TEASER);
                }
            }
        
        //Pick up an object
        } else if (data[0] == 'p') {
    2fe4:	80 37       	cpi	r24, 0x70	; 112
    2fe6:	09 f0       	breq	.+2      	; 0x2fea <ProcessInput+0x54e>
    2fe8:	96 c0       	rjmp	.+300    	; 0x3116 <ProcessInput+0x67a>
            if (inventory[0]&&inventory[1]) {
    2fea:	80 91 3e 38 	lds	r24, 0x383E	; 0x80383e <inventory>
    2fee:	90 91 3f 38 	lds	r25, 0x383F	; 0x80383f <inventory+0x1>
    2ff2:	89 2b       	or	r24, r25
    2ff4:	79 f0       	breq	.+30     	; 0x3014 <ProcessInput+0x578>
    2ff6:	80 91 40 38 	lds	r24, 0x3840	; 0x803840 <inventory+0x2>
    2ffa:	90 91 41 38 	lds	r25, 0x3841	; 0x803841 <inventory+0x3>
    2ffe:	89 2b       	or	r24, r25
    3000:	49 f0       	breq	.+18     	; 0x3014 <ProcessInput+0x578>
    return 0;
}

//
void SetResponse(uint8_t number, uint16_t address, uint16_t length, uint8_t type){
    reactStr[0][number]=address;
    3002:	84 e4       	ldi	r24, 0x44	; 68
    3004:	98 e7       	ldi	r25, 0x78	; 120
    3006:	80 93 1f 39 	sts	0x391F, r24	; 0x80391f <reactStr+0x2>
    300a:	90 93 20 39 	sts	0x3920, r25	; 0x803920 <reactStr+0x3>
    reactStr[1][number]=length;
    300e:	89 e5       	ldi	r24, 0x59	; 89
    3010:	90 e0       	ldi	r25, 0x00	; 0
    3012:	08 ce       	rjmp	.-1008   	; 0x2c24 <ProcessInput+0x188>
        
        //Pick up an object
        } else if (data[0] == 'p') {
            if (inventory[0]&&inventory[1]) {
                SetResponse(elements++, A_CARRYTWO, L_CARRYTWO, TEASER);
            } else if (inputLen != 2) {
    3014:	b2 e0       	ldi	r27, 0x02	; 2
    3016:	fb 12       	cpse	r15, r27
    3018:	70 cd       	rjmp	.-1312   	; 0x2afa <ProcessInput+0x5e>
                SetResponse(elements++, A_NOTPOSSIBLE, L_NOTPOSSIBLE, TEASER);
            } else {
                route[currDepth+1] = FindChild(route[currDepth], data[1], 0);
    301a:	e0 90 2c 38 	lds	r14, 0x382C	; 0x80382c <currDepth>
    301e:	f1 2c       	mov	r15, r1
    3020:	f7 01       	movw	r30, r14
    3022:	ee 0f       	add	r30, r30
    3024:	ff 1f       	adc	r31, r31
    3026:	e3 52       	subi	r30, 0x23	; 35
    3028:	f6 4c       	sbci	r31, 0xC6	; 198
    302a:	40 e0       	ldi	r20, 0x00	; 0
    302c:	50 e0       	ldi	r21, 0x00	; 0
    302e:	d8 01       	movw	r26, r16
    3030:	11 96       	adiw	r26, 0x01	; 1
    3032:	6c 91       	ld	r22, X
    3034:	80 81       	ld	r24, Z
    3036:	91 81       	ldd	r25, Z+1	; 0x01
    3038:	42 d9       	rcall	.-3452   	; 0x22be <FindChild>
    303a:	f7 01       	movw	r30, r14
    303c:	ee 0f       	add	r30, r30
    303e:	ff 1f       	adc	r31, r31
    3040:	e1 52       	subi	r30, 0x21	; 33
    3042:	f6 4c       	sbci	r31, 0xC6	; 198
    3044:	80 83       	st	Z, r24
    3046:	91 83       	std	Z+1, r25	; 0x01
                if (route[currDepth+1]) {
    3048:	20 91 2c 38 	lds	r18, 0x382C	; 0x80382c <currDepth>
    304c:	30 e0       	ldi	r19, 0x00	; 0
    304e:	2f 5f       	subi	r18, 0xFF	; 255
    3050:	3f 4f       	sbci	r19, 0xFF	; 255
    3052:	22 0f       	add	r18, r18
    3054:	33 1f       	adc	r19, r19
    3056:	f9 01       	movw	r30, r18
    3058:	e3 52       	subi	r30, 0x23	; 35
    305a:	f6 4c       	sbci	r31, 0xC6	; 198
    305c:	80 81       	ld	r24, Z
    305e:	91 81       	ldd	r25, Z+1	; 0x01
    3060:	00 97       	sbiw	r24, 0x00	; 0
    3062:	09 f4       	brne	.+2      	; 0x3066 <ProcessInput+0x5ca>
    3064:	ca c3       	rjmp	.+1940   	; 0x37fa <ProcessInput+0xd5e>
                    if ((route[currDepth+1] == inventory[0])||(route[currDepth+1] == inventory[1])) {
    3066:	40 91 3e 38 	lds	r20, 0x383E	; 0x80383e <inventory>
    306a:	50 91 3f 38 	lds	r21, 0x383F	; 0x80383f <inventory+0x1>
    306e:	84 17       	cp	r24, r20
    3070:	95 07       	cpc	r25, r21
    3072:	39 f0       	breq	.+14     	; 0x3082 <ProcessInput+0x5e6>
    3074:	40 91 40 38 	lds	r20, 0x3840	; 0x803840 <inventory+0x2>
    3078:	50 91 41 38 	lds	r21, 0x3841	; 0x803841 <inventory+0x3>
    307c:	84 17       	cp	r24, r20
    307e:	95 07       	cpc	r25, r21
    3080:	c1 f4       	brne	.+48     	; 0x30b2 <ProcessInput+0x616>
    return 0;
}

//
void SetResponse(uint8_t number, uint16_t address, uint16_t length, uint8_t type){
    reactStr[0][number]=address;
    3082:	8f e1       	ldi	r24, 0x1F	; 31
    3084:	98 e7       	ldi	r25, 0x78	; 120
    3086:	80 93 1f 39 	sts	0x391F, r24	; 0x80391f <reactStr+0x2>
    308a:	90 93 20 39 	sts	0x3920, r25	; 0x803920 <reactStr+0x3>
    reactStr[1][number]=length;
    308e:	85 e2       	ldi	r24, 0x25	; 37
    3090:	90 e0       	ldi	r25, 0x00	; 0
    3092:	80 93 5f 39 	sts	0x395F, r24	; 0x80395f <reactStr+0x42>
    3096:	90 93 60 39 	sts	0x3960, r25	; 0x803960 <reactStr+0x43>
    reactStr[2][number]=type;
    309a:	81 e0       	ldi	r24, 0x01	; 1
    309c:	90 e0       	ldi	r25, 0x00	; 0
    309e:	80 93 9f 39 	sts	0x399F, r24	; 0x80399f <reactStr+0x82>
    30a2:	90 93 a0 39 	sts	0x39A0, r25	; 0x8039a0 <reactStr+0x83>
            } else {
                route[currDepth+1] = FindChild(route[currDepth], data[1], 0);
                if (route[currDepth+1]) {
                    if ((route[currDepth+1] == inventory[0])||(route[currDepth+1] == inventory[1])) {
                        SetResponse(elements++, A_ALREADYCARRYING, L_ALREADYCARRYING, TEASER);
                        route[currDepth+1] = 0;
    30a6:	f9 01       	movw	r30, r18
    30a8:	e3 52       	subi	r30, 0x23	; 35
    30aa:	f6 4c       	sbci	r31, 0xC6	; 198
    30ac:	10 82       	st	Z, r1
    30ae:	11 82       	std	Z+1, r1	; 0x01
                    } else {
                        //Put item in the inventory if possible
                        PopulateObject(route[currDepth+1], &actObj1);  
    30b0:	c3 cd       	rjmp	.-1146   	; 0x2c38 <ProcessInput+0x19c>
    30b2:	6c ed       	ldi	r22, 0xDC	; 220
    30b4:	78 e3       	ldi	r23, 0x38	; 56
    30b6:	38 d8       	rcall	.-3984   	; 0x2128 <PopulateObject>
                        if (CheckState(actObj1.byteField[ACTION_ACL])) {
    30b8:	80 91 e3 38 	lds	r24, 0x38E3	; 0x8038e3 <actObj1.3995+0x7>
    30bc:	0e 94 d1 0a 	call	0x15a2	; 0x15a2 <CheckState>
    30c0:	88 23       	and	r24, r24
    30c2:	09 f4       	brne	.+2      	; 0x30c6 <ProcessInput+0x62a>
    30c4:	75 c3       	rjmp	.+1770   	; 0x37b0 <ProcessInput+0xd14>
                            if (actObj1.byteField[ITEM_NR]) {
    30c6:	80 91 e7 38 	lds	r24, 0x38E7	; 0x8038e7 <actObj1.3995+0xb>
    30ca:	88 23       	and	r24, r24
    30cc:	09 f4       	brne	.+2      	; 0x30d0 <ProcessInput+0x634>
    30ce:	15 cd       	rjmp	.-1494   	; 0x2afa <ProcessInput+0x5e>
                                if (inventory[0]) {
    30d0:	80 91 3e 38 	lds	r24, 0x383E	; 0x80383e <inventory>
    30d4:	90 91 3f 38 	lds	r25, 0x383F	; 0x80383f <inventory+0x1>
    30d8:	e0 91 2c 38 	lds	r30, 0x382C	; 0x80382c <currDepth>
                                    inventory[1] = route[currDepth+1];
    30dc:	f0 e0       	ldi	r31, 0x00	; 0
    30de:	ee 0f       	add	r30, r30
    30e0:	ff 1f       	adc	r31, r31
    30e2:	e1 52       	subi	r30, 0x21	; 33
    30e4:	f6 4c       	sbci	r31, 0xC6	; 198
                    } else {
                        //Put item in the inventory if possible
                        PopulateObject(route[currDepth+1], &actObj1);  
                        if (CheckState(actObj1.byteField[ACTION_ACL])) {
                            if (actObj1.byteField[ITEM_NR]) {
                                if (inventory[0]) {
    30e6:	89 2b       	or	r24, r25
    30e8:	39 f0       	breq	.+14     	; 0x30f8 <ProcessInput+0x65c>
                                    inventory[1] = route[currDepth+1];
    30ea:	80 81       	ld	r24, Z
    30ec:	91 81       	ldd	r25, Z+1	; 0x01
    30ee:	80 93 40 38 	sts	0x3840, r24	; 0x803840 <inventory+0x2>
    30f2:	90 93 41 38 	sts	0x3841, r25	; 0x803841 <inventory+0x3>
    30f6:	06 c0       	rjmp	.+12     	; 0x3104 <ProcessInput+0x668>
                                } else {
                                    inventory[0] = route[currDepth+1];
    30f8:	80 81       	ld	r24, Z
    30fa:	91 81       	ldd	r25, Z+1	; 0x01
    30fc:	80 93 3e 38 	sts	0x383E, r24	; 0x80383e <inventory>
    3100:	90 93 3f 38 	sts	0x383F, r25	; 0x80383f <inventory+0x1>
    return 0;
}

//
void SetResponse(uint8_t number, uint16_t address, uint16_t length, uint8_t type){
    reactStr[0][number]=address;
    3104:	89 e0       	ldi	r24, 0x09	; 9
    3106:	98 e7       	ldi	r25, 0x78	; 120
    3108:	80 93 1f 39 	sts	0x391F, r24	; 0x80391f <reactStr+0x2>
    310c:	90 93 20 39 	sts	0x3920, r25	; 0x803920 <reactStr+0x3>
    reactStr[1][number]=length;
    3110:	86 e1       	ldi	r24, 0x16	; 22
    3112:	90 e0       	ldi	r25, 0x00	; 0
    3114:	5e c2       	rjmp	.+1212   	; 0x35d2 <ProcessInput+0xb36>
                } else SetResponse(elements++, A_NOSUCHOBJECT, L_NOSUCHOBJECT, TEASER);
            }
        } else

        //Drop item if in inventory
        if (data[0] == 'd') {
    3116:	84 36       	cpi	r24, 0x64	; 100
    3118:	d9 f4       	brne	.+54     	; 0x3150 <ProcessInput+0x6b4>
            if ((inventory[0] == 0)&&(inventory[1] == 0)){
    311a:	80 91 3e 38 	lds	r24, 0x383E	; 0x80383e <inventory>
    311e:	90 91 3f 38 	lds	r25, 0x383F	; 0x80383f <inventory+0x1>
    3122:	00 97       	sbiw	r24, 0x00	; 0
    3124:	09 f0       	breq	.+2      	; 0x3128 <ProcessInput+0x68c>
    3126:	ec c4       	rjmp	.+2520   	; 0x3b00 <ProcessInput+0x1064>
    3128:	80 91 40 38 	lds	r24, 0x3840	; 0x803840 <inventory+0x2>
    312c:	90 91 41 38 	lds	r25, 0x3841	; 0x803841 <inventory+0x3>
    3130:	89 2b       	or	r24, r25
    3132:	49 f4       	brne	.+18     	; 0x3146 <ProcessInput+0x6aa>
    return 0;
}

//
void SetResponse(uint8_t number, uint16_t address, uint16_t length, uint8_t type){
    reactStr[0][number]=address;
    3134:	83 ee       	ldi	r24, 0xE3	; 227
    3136:	97 e7       	ldi	r25, 0x77	; 119
    3138:	80 93 1f 39 	sts	0x391F, r24	; 0x80391f <reactStr+0x2>
    313c:	90 93 20 39 	sts	0x3920, r25	; 0x803920 <reactStr+0x3>
    reactStr[1][number]=length;
    3140:	86 e2       	ldi	r24, 0x26	; 38
    3142:	90 e0       	ldi	r25, 0x00	; 0
    3144:	6f cd       	rjmp	.-1314   	; 0x2c24 <ProcessInput+0x188>

        //Drop item if in inventory
        if (data[0] == 'd') {
            if ((inventory[0] == 0)&&(inventory[1] == 0)){
                SetResponse(elements++, A_EMPTYHANDS, L_EMPTYHANDS, TEASER);
            } else if (inputLen != 2) {
    3146:	b2 e0       	ldi	r27, 0x02	; 2
    3148:	fb 16       	cp	r15, r27
    314a:	09 f4       	brne	.+2      	; 0x314e <ProcessInput+0x6b2>
    314c:	40 c5       	rjmp	.+2688   	; 0x3bce <ProcessInput+0x1132>
    314e:	d5 cc       	rjmp	.-1622   	; 0x2afa <ProcessInput+0x5e>
                    if (x) SetResponse(elements++, A_NOTCARRYING, L_NOTCARRYING, TEASER);
                }
            }

        //Inventory list
        } else if (data[0] == 'i') {
    3150:	89 36       	cpi	r24, 0x69	; 105
    3152:	09 f0       	breq	.+2      	; 0x3156 <ProcessInput+0x6ba>
    3154:	7b c0       	rjmp	.+246    	; 0x324c <ProcessInput+0x7b0>
            if ((inventory[0] == 0)&&(inventory[1] == 0)){
    3156:	80 91 3e 38 	lds	r24, 0x383E	; 0x80383e <inventory>
    315a:	90 91 3f 38 	lds	r25, 0x383F	; 0x80383f <inventory+0x1>
    315e:	89 2b       	or	r24, r25
    3160:	31 f4       	brne	.+12     	; 0x316e <ProcessInput+0x6d2>
    3162:	80 91 40 38 	lds	r24, 0x3840	; 0x803840 <inventory+0x2>
    3166:	90 91 41 38 	lds	r25, 0x3841	; 0x803841 <inventory+0x3>
    316a:	89 2b       	or	r24, r25
    316c:	19 f3       	breq	.-58     	; 0x3134 <ProcessInput+0x698>
    return 0;
}

//
void SetResponse(uint8_t number, uint16_t address, uint16_t length, uint8_t type){
    reactStr[0][number]=address;
    316e:	89 e0       	ldi	r24, 0x09	; 9
    3170:	98 e7       	ldi	r25, 0x78	; 120
    3172:	80 93 1f 39 	sts	0x391F, r24	; 0x80391f <reactStr+0x2>
    3176:	90 93 20 39 	sts	0x3920, r25	; 0x803920 <reactStr+0x3>
    reactStr[1][number]=length;
    317a:	86 e1       	ldi	r24, 0x16	; 22
    317c:	90 e0       	ldi	r25, 0x00	; 0
    317e:	80 93 5f 39 	sts	0x395F, r24	; 0x80395f <reactStr+0x42>
    3182:	90 93 60 39 	sts	0x3960, r25	; 0x803960 <reactStr+0x43>
    reactStr[2][number]=type;
    3186:	81 e0       	ldi	r24, 0x01	; 1
    3188:	90 e0       	ldi	r25, 0x00	; 0
    318a:	80 93 9f 39 	sts	0x399F, r24	; 0x80399f <reactStr+0x82>
    318e:	90 93 a0 39 	sts	0x39A0, r25	; 0x8039a0 <reactStr+0x83>
    3192:	2e e3       	ldi	r18, 0x3E	; 62
    3194:	e2 2e       	mov	r14, r18
    3196:	28 e3       	ldi	r18, 0x38	; 56
    3198:	f2 2e       	mov	r15, r18
    319a:	32 e4       	ldi	r19, 0x42	; 66
    319c:	63 2e       	mov	r6, r19
    319e:	38 e3       	ldi	r19, 0x38	; 56
    31a0:	73 2e       	mov	r7, r19
        //Inventory list
        } else if (data[0] == 'i') {
            if ((inventory[0] == 0)&&(inventory[1] == 0)){
                SetResponse(elements++, A_EMPTYHANDS, L_EMPTYHANDS, TEASER);
            } else {
                SetResponse(elements++, A_NOWCARRING, L_NOWCARRING, TEASER);
    31a2:	42 e0       	ldi	r20, 0x02	; 2
    31a4:	54 2e       	mov	r5, r20
    return 0;
}

//
void SetResponse(uint8_t number, uint16_t address, uint16_t length, uint8_t type){
    reactStr[0][number]=address;
    31a6:	59 e5       	ldi	r21, 0x59	; 89
    31a8:	c5 2e       	mov	r12, r21
    31aa:	5a e7       	ldi	r21, 0x7A	; 122
    31ac:	d5 2e       	mov	r13, r21
    reactStr[1][number]=length;
    31ae:	62 e0       	ldi	r22, 0x02	; 2
    31b0:	a6 2e       	mov	r10, r22
    31b2:	b1 2c       	mov	r11, r1
    reactStr[2][number]=type;
    31b4:	88 24       	eor	r8, r8
    31b6:	83 94       	inc	r8
    31b8:	91 2c       	mov	r9, r1
            } else {
                SetResponse(elements++, A_NOWCARRING, L_NOWCARRING, TEASER);
                //SetResponse(elements++, A_SPACE, L_SPACE, TEASER);
                
                for (uint8_t x=0; x<2; ++x) {
                    if (inventory[x]) {
    31ba:	d7 01       	movw	r26, r14
    31bc:	8d 91       	ld	r24, X+
    31be:	9d 91       	ld	r25, X+
    31c0:	7d 01       	movw	r14, r26
    31c2:	00 97       	sbiw	r24, 0x00	; 0
    31c4:	d9 f1       	breq	.+118    	; 0x323c <ProcessInput+0x7a0>
                        PopulateObject(inventory[x], &actObj1);
    31c6:	6c ed       	ldi	r22, 0xDC	; 220
    31c8:	78 e3       	ldi	r23, 0x38	; 56
    31ca:	0e 94 94 10 	call	0x2128	; 0x2128 <PopulateObject>
                        SetResponse(elements++, actObj1.addrStr[NAME], actObj1.lenStr[NAME], GAME);
    31ce:	80 91 f6 38 	lds	r24, 0x38F6	; 0x8038f6 <actObj1.3995+0x1a>
    31d2:	90 91 f7 38 	lds	r25, 0x38F7	; 0x8038f7 <actObj1.3995+0x1b>
    return 0;
}

//
void SetResponse(uint8_t number, uint16_t address, uint16_t length, uint8_t type){
    reactStr[0][number]=address;
    31d6:	e5 2d       	mov	r30, r5
    31d8:	f0 e0       	ldi	r31, 0x00	; 0
    31da:	df 01       	movw	r26, r30
    31dc:	aa 0f       	add	r26, r26
    31de:	bb 1f       	adc	r27, r27
    31e0:	a3 5e       	subi	r26, 0xE3	; 227
    31e2:	b6 4c       	sbci	r27, 0xC6	; 198
    31e4:	20 91 e8 38 	lds	r18, 0x38E8	; 0x8038e8 <actObj1.3995+0xc>
    31e8:	30 91 e9 38 	lds	r19, 0x38E9	; 0x8038e9 <actObj1.3995+0xd>
    31ec:	2d 93       	st	X+, r18
    31ee:	3c 93       	st	X, r19
    reactStr[1][number]=length;
    31f0:	df 01       	movw	r26, r30
    31f2:	aa 0f       	add	r26, r26
    31f4:	bb 1f       	adc	r27, r27
    31f6:	a3 5a       	subi	r26, 0xA3	; 163
    31f8:	b6 4c       	sbci	r27, 0xC6	; 198
    31fa:	8d 93       	st	X+, r24
    31fc:	9c 93       	st	X, r25
    reactStr[2][number]=type;
    31fe:	ee 0f       	add	r30, r30
    3200:	ff 1f       	adc	r31, r31
    3202:	e3 56       	subi	r30, 0x63	; 99
    3204:	f6 4c       	sbci	r31, 0xC6	; 198
    3206:	10 82       	st	Z, r1
    3208:	11 82       	std	Z+1, r1	; 0x01
    return 0;
}

//
void SetResponse(uint8_t number, uint16_t address, uint16_t length, uint8_t type){
    reactStr[0][number]=address;
    320a:	e1 e0       	ldi	r30, 0x01	; 1
    320c:	e5 0d       	add	r30, r5
    320e:	f0 e0       	ldi	r31, 0x00	; 0
    3210:	53 94       	inc	r5
    3212:	53 94       	inc	r5
    3214:	df 01       	movw	r26, r30
    3216:	aa 0f       	add	r26, r26
    3218:	bb 1f       	adc	r27, r27
    321a:	a3 5e       	subi	r26, 0xE3	; 227
    321c:	b6 4c       	sbci	r27, 0xC6	; 198
    321e:	cd 92       	st	X+, r12
    3220:	dc 92       	st	X, r13
    reactStr[1][number]=length;
    3222:	df 01       	movw	r26, r30
    3224:	aa 0f       	add	r26, r26
    3226:	bb 1f       	adc	r27, r27
    3228:	a3 5a       	subi	r26, 0xA3	; 163
    322a:	b6 4c       	sbci	r27, 0xC6	; 198
    322c:	ad 92       	st	X+, r10
    322e:	bc 92       	st	X, r11
    reactStr[2][number]=type;
    3230:	ee 0f       	add	r30, r30
    3232:	ff 1f       	adc	r31, r31
    3234:	e3 56       	subi	r30, 0x63	; 99
    3236:	f6 4c       	sbci	r31, 0xC6	; 198
    3238:	80 82       	st	Z, r8
    323a:	91 82       	std	Z+1, r9	; 0x01
                SetResponse(elements++, A_EMPTYHANDS, L_EMPTYHANDS, TEASER);
            } else {
                SetResponse(elements++, A_NOWCARRING, L_NOWCARRING, TEASER);
                //SetResponse(elements++, A_SPACE, L_SPACE, TEASER);
                
                for (uint8_t x=0; x<2; ++x) {
    323c:	6e 14       	cp	r6, r14
    323e:	7f 04       	cpc	r7, r15
    3240:	09 f0       	breq	.+2      	; 0x3244 <ProcessInput+0x7a8>
    3242:	bb cf       	rjmp	.-138    	; 0x31ba <ProcessInput+0x71e>
                        SetResponse(elements++, actObj1.addrStr[NAME], actObj1.lenStr[NAME], GAME);
                        SetResponse(elements++, A_COMMA, L_COMMA, TEASER);
                        //SetResponse(elements++, A_SPACE, L_SPACE, TEASER);
                    }
                }
                elements -= 1;
    3244:	77 24       	eor	r7, r7
    3246:	7a 94       	dec	r7
    3248:	75 0c       	add	r7, r5
    324a:	25 c4       	rjmp	.+2122   	; 0x3a96 <ProcessInput+0xffa>
            }            
        
        //Talk, use, give, read
        } else if ((data[0] == 't')||(data[0] == 'u')||(data[0] == 'g')||(data[0] == 'r')) {
    324c:	9c e8       	ldi	r25, 0x8C	; 140
    324e:	98 0f       	add	r25, r24
    3250:	92 30       	cpi	r25, 0x02	; 2
    3252:	28 f0       	brcs	.+10     	; 0x325e <ProcessInput+0x7c2>
    3254:	87 36       	cpi	r24, 0x67	; 103
    3256:	19 f0       	breq	.+6      	; 0x325e <ProcessInput+0x7c2>
    3258:	82 37       	cpi	r24, 0x72	; 114
    325a:	09 f0       	breq	.+2      	; 0x325e <ProcessInput+0x7c2>
    325c:	d7 c2       	rjmp	.+1454   	; 0x380c <ProcessInput+0xd70>
            if ((inputLen<2)||(inputLen>3)) {
    325e:	8e ef       	ldi	r24, 0xFE	; 254
    3260:	8f 0d       	add	r24, r15
    3262:	82 30       	cpi	r24, 0x02	; 2
    3264:	08 f0       	brcs	.+2      	; 0x3268 <ProcessInput+0x7cc>
    3266:	49 cc       	rjmp	.-1902   	; 0x2afa <ProcessInput+0x5e>
                SetResponse(elements++, A_NOTPOSSIBLE, L_NOTPOSSIBLE, TEASER);                
            
            //Check for visible person or object first
            } else {
                route[currDepth+1] = FindChild(route[currDepth], data[inputLen-1], 0);
    3268:	e0 91 2c 38 	lds	r30, 0x382C	; 0x80382c <currDepth>
    326c:	ce 2e       	mov	r12, r30
    326e:	d1 2c       	mov	r13, r1
    3270:	d8 01       	movw	r26, r16
    3272:	af 0d       	add	r26, r15
    3274:	b1 1d       	adc	r27, r1
    3276:	11 97       	sbiw	r26, 0x01	; 1
    3278:	f6 01       	movw	r30, r12
    327a:	ee 0f       	add	r30, r30
    327c:	ff 1f       	adc	r31, r31
    327e:	e3 52       	subi	r30, 0x23	; 35
    3280:	f6 4c       	sbci	r31, 0xC6	; 198
    3282:	40 e0       	ldi	r20, 0x00	; 0
    3284:	50 e0       	ldi	r21, 0x00	; 0
    3286:	6c 91       	ld	r22, X
    3288:	80 81       	ld	r24, Z
    328a:	91 81       	ldd	r25, Z+1	; 0x01
    328c:	18 d8       	rcall	.-4048   	; 0x22be <FindChild>
    328e:	f6 01       	movw	r30, r12
    3290:	ee 0f       	add	r30, r30
    3292:	ff 1f       	adc	r31, r31
    3294:	e1 52       	subi	r30, 0x21	; 33
    3296:	f6 4c       	sbci	r31, 0xC6	; 198
    3298:	80 83       	st	Z, r24
    329a:	91 83       	std	Z+1, r25	; 0x01
                if (route[currDepth+1]) {
    329c:	e0 91 2c 38 	lds	r30, 0x382C	; 0x80382c <currDepth>
    32a0:	f0 e0       	ldi	r31, 0x00	; 0
    32a2:	ee 0f       	add	r30, r30
    32a4:	ff 1f       	adc	r31, r31
    32a6:	e1 52       	subi	r30, 0x21	; 33
    32a8:	f6 4c       	sbci	r31, 0xC6	; 198
    32aa:	80 81       	ld	r24, Z
    32ac:	91 81       	ldd	r25, Z+1	; 0x01
    32ae:	00 97       	sbiw	r24, 0x00	; 0
    32b0:	09 f4       	brne	.+2      	; 0x32b4 <ProcessInput+0x818>
    32b2:	9a c2       	rjmp	.+1332   	; 0x37e8 <ProcessInput+0xd4c>
                    
                    //Give item to person / use item on object 
                    if ((inputLen == 3)&&((data[0] == 'u')||(data[0] == 'g'))) {
    32b4:	b3 e0       	ldi	r27, 0x03	; 3
    32b6:	fb 12       	cpse	r15, r27
    32b8:	78 c1       	rjmp	.+752    	; 0x35aa <ProcessInput+0xb0e>
    32ba:	f8 01       	movw	r30, r16
    32bc:	20 81       	ld	r18, Z
    32be:	25 37       	cpi	r18, 0x75	; 117
    32c0:	19 f0       	breq	.+6      	; 0x32c8 <ProcessInput+0x82c>
    32c2:	27 36       	cpi	r18, 0x67	; 103
    32c4:	09 f0       	breq	.+2      	; 0x32c8 <ProcessInput+0x82c>
    32c6:	71 c1       	rjmp	.+738    	; 0x35aa <ProcessInput+0xb0e>
    32c8:	61 2c       	mov	r6, r1
    32ca:	77 24       	eor	r7, r7
    32cc:	73 94       	inc	r7
    return 0;
}

//
void SetResponse(uint8_t number, uint16_t address, uint16_t length, uint8_t type){
    reactStr[0][number]=address;
    32ce:	53 e6       	ldi	r21, 0x63	; 99
    32d0:	c5 2e       	mov	r12, r21
    32d2:	59 e7       	ldi	r21, 0x79	; 121
    32d4:	d5 2e       	mov	r13, r21
    reactStr[1][number]=length;
    32d6:	61 e2       	ldi	r22, 0x21	; 33
    32d8:	a6 2e       	mov	r10, r22
    32da:	b1 2c       	mov	r11, r1
    reactStr[2][number]=type;
    32dc:	88 24       	eor	r8, r8
    32de:	83 94       	inc	r8
    32e0:	91 2c       	mov	r9, r1
                if (route[currDepth+1]) {
                    
                    //Give item to person / use item on object 
                    if ((inputLen == 3)&&((data[0] == 'u')||(data[0] == 'g'))) {
                        for (uint8_t x=0; x<2; x++) {
                            if (inventory[x]) { 
    32e2:	e6 2c       	mov	r14, r6
    32e4:	f1 2c       	mov	r15, r1
    32e6:	c7 01       	movw	r24, r14
    32e8:	88 0f       	add	r24, r24
    32ea:	99 1f       	adc	r25, r25
    32ec:	9c 01       	movw	r18, r24
    32ee:	22 5c       	subi	r18, 0xC2	; 194
    32f0:	37 4c       	sbci	r19, 0xC7	; 199
    32f2:	79 01       	movw	r14, r18
    32f4:	d9 01       	movw	r26, r18
    32f6:	8d 91       	ld	r24, X+
    32f8:	9c 91       	ld	r25, X
    32fa:	00 97       	sbiw	r24, 0x00	; 0
    32fc:	81 f0       	breq	.+32     	; 0x331e <ProcessInput+0x882>
                                if (CheckLetter(inventory[x], data[1])) {
    32fe:	f8 01       	movw	r30, r16
    3300:	61 81       	ldd	r22, Z+1	; 0x01
    3302:	0e 94 0b 11 	call	0x2216	; 0x2216 <CheckLetter>
    3306:	88 23       	and	r24, r24
    3308:	51 f0       	breq	.+20     	; 0x331e <ProcessInput+0x882>
                                    PopulateObject(inventory[x], &actObj2);
    330a:	61 eb       	ldi	r22, 0xB1	; 177
    330c:	78 e3       	ldi	r23, 0x38	; 56
    330e:	d7 01       	movw	r26, r14
    3310:	8d 91       	ld	r24, X+
    3312:	9c 91       	ld	r25, X
    3314:	0e 94 94 10 	call	0x2128	; 0x2128 <PopulateObject>
                                    x = 2;
    3318:	32 e0       	ldi	r19, 0x02	; 2
    331a:	63 2e       	mov	r6, r19
    331c:	1e c0       	rjmp	.+60     	; 0x335a <ProcessInput+0x8be>
                                }
                            }
                            if (x == 1) { 
    331e:	b1 e0       	ldi	r27, 0x01	; 1
    3320:	6b 12       	cpse	r6, r27
    3322:	1a c0       	rjmp	.+52     	; 0x3358 <ProcessInput+0x8bc>
    return 0;
}

//
void SetResponse(uint8_t number, uint16_t address, uint16_t length, uint8_t type){
    reactStr[0][number]=address;
    3324:	e7 2d       	mov	r30, r7
    3326:	f0 e0       	ldi	r31, 0x00	; 0
    3328:	df 01       	movw	r26, r30
    332a:	aa 0f       	add	r26, r26
    332c:	bb 1f       	adc	r27, r27
    332e:	a3 5e       	subi	r26, 0xE3	; 227
    3330:	b6 4c       	sbci	r27, 0xC6	; 198
    3332:	cd 92       	st	X+, r12
    3334:	dc 92       	st	X, r13
    reactStr[1][number]=length;
    3336:	df 01       	movw	r26, r30
    3338:	aa 0f       	add	r26, r26
    333a:	bb 1f       	adc	r27, r27
    333c:	a3 5a       	subi	r26, 0xA3	; 163
    333e:	b6 4c       	sbci	r27, 0xC6	; 198
    3340:	ad 92       	st	X+, r10
    3342:	bc 92       	st	X, r11
    reactStr[2][number]=type;
    3344:	ee 0f       	add	r30, r30
    3346:	ff 1f       	adc	r31, r31
    3348:	e3 56       	subi	r30, 0x63	; 99
    334a:	f6 4c       	sbci	r31, 0xC6	; 198
    334c:	80 82       	st	Z, r8
    334e:	91 82       	std	Z+1, r9	; 0x01
                                    x = 2;
                                }
                            }
                            if (x == 1) { 
                                SetResponse(elements++, A_NOTCARRYING, L_NOTCARRYING, TEASER);
                                data[0] = 0;
    3350:	f8 01       	movw	r30, r16
    3352:	10 82       	st	Z, r1
                                    PopulateObject(inventory[x], &actObj2);
                                    x = 2;
                                }
                            }
                            if (x == 1) { 
                                SetResponse(elements++, A_NOTCARRYING, L_NOTCARRYING, TEASER);
    3354:	73 94       	inc	r7
    3356:	01 c0       	rjmp	.+2      	; 0x335a <ProcessInput+0x8be>
    3358:	61 2c       	mov	r6, r1
                route[currDepth+1] = FindChild(route[currDepth], data[inputLen-1], 0);
                if (route[currDepth+1]) {
                    
                    //Give item to person / use item on object 
                    if ((inputLen == 3)&&((data[0] == 'u')||(data[0] == 'g'))) {
                        for (uint8_t x=0; x<2; x++) {
    335a:	63 94       	inc	r6
    335c:	f1 e0       	ldi	r31, 0x01	; 1
    335e:	6f 16       	cp	r6, r31
    3360:	09 f4       	brne	.+2      	; 0x3364 <ProcessInput+0x8c8>
    3362:	bf cf       	rjmp	.-130    	; 0x32e2 <ProcessInput+0x846>
                                data[0] = 0;
                            }
                        }

                        //Both the item and person/object are found, check if action is legit
                        if (data[0]){
    3364:	d8 01       	movw	r26, r16
    3366:	8c 91       	ld	r24, X
    3368:	88 23       	and	r24, r24
    336a:	09 f4       	brne	.+2      	; 0x336e <ProcessInput+0x8d2>
    336c:	94 c3       	rjmp	.+1832   	; 0x3a96 <ProcessInput+0xffa>
                            PopulateObject(route[currDepth+1], &actObj1);
    336e:	e0 91 2c 38 	lds	r30, 0x382C	; 0x80382c <currDepth>
    3372:	f0 e0       	ldi	r31, 0x00	; 0
    3374:	ee 0f       	add	r30, r30
    3376:	ff 1f       	adc	r31, r31
    3378:	e1 52       	subi	r30, 0x21	; 33
    337a:	f6 4c       	sbci	r31, 0xC6	; 198
    337c:	6c ed       	ldi	r22, 0xDC	; 220
    337e:	78 e3       	ldi	r23, 0x38	; 56
    3380:	80 81       	ld	r24, Z
    3382:	91 81       	ldd	r25, Z+1	; 0x01
    3384:	0e 94 94 10 	call	0x2128	; 0x2128 <PopulateObject>

                            //Special game
                            if (actObj1.lenStr[ACTION_STR1] == 1) {
    3388:	e0 90 fa 38 	lds	r14, 0x38FA	; 0x8038fa <actObj1.3995+0x1e>
    338c:	f0 90 fb 38 	lds	r15, 0x38FB	; 0x8038fb <actObj1.3995+0x1f>
    3390:	b1 e0       	ldi	r27, 0x01	; 1
    3392:	eb 16       	cp	r14, r27
    3394:	f1 04       	cpc	r15, r1
    3396:	09 f0       	breq	.+2      	; 0x339a <ProcessInput+0x8fe>
    3398:	9a c0       	rjmp	.+308    	; 0x34ce <ProcessInput+0xa32>
                                ExtEERead(actObj1.addrStr[ACTION_STR1], 1, GAME, &data[2]);
    339a:	98 01       	movw	r18, r16
    339c:	2e 5f       	subi	r18, 0xFE	; 254
    339e:	3f 4f       	sbci	r19, 0xFF	; 255
    33a0:	40 e0       	ldi	r20, 0x00	; 0
    33a2:	61 e0       	ldi	r22, 0x01	; 1
    33a4:	80 91 ec 38 	lds	r24, 0x38EC	; 0x8038ec <actObj1.3995+0x10>
    33a8:	90 91 ed 38 	lds	r25, 0x38ED	; 0x8038ed <actObj1.3995+0x11>
    33ac:	0e 94 84 0f 	call	0x1f08	; 0x1f08 <ExtEERead>
                                if (data[2] == '1') {
    33b0:	f8 01       	movw	r30, r16
    33b2:	42 81       	ldd	r20, Z+2	; 0x02
    33b4:	21 e0       	ldi	r18, 0x01	; 1
    33b6:	27 0d       	add	r18, r7
    33b8:	87 2d       	mov	r24, r7
    33ba:	90 e0       	ldi	r25, 0x00	; 0
    33bc:	41 33       	cpi	r20, 0x31	; 49
    33be:	09 f0       	breq	.+2      	; 0x33c2 <ProcessInput+0x926>
    33c0:	6b c0       	rjmp	.+214    	; 0x3498 <ProcessInput+0x9fc>
                                    uint8_t item = actObj2.byteField[ITEM_NR];
    33c2:	30 91 bc 38 	lds	r19, 0x38BC	; 0x8038bc <actObj2.3996+0xb>
                                    if ((item < 31)||(item > 34)) {
    33c6:	51 ee       	ldi	r21, 0xE1	; 225
    33c8:	53 0f       	add	r21, r19
    return 0;
}

//
void SetResponse(uint8_t number, uint16_t address, uint16_t length, uint8_t type){
    reactStr[0][number]=address;
    33ca:	fc 01       	movw	r30, r24
    33cc:	ee 0f       	add	r30, r30
    33ce:	ff 1f       	adc	r31, r31
    33d0:	e3 5e       	subi	r30, 0xE3	; 227
    33d2:	f6 4c       	sbci	r31, 0xC6	; 198
                            //Special game
                            if (actObj1.lenStr[ACTION_STR1] == 1) {
                                ExtEERead(actObj1.addrStr[ACTION_STR1], 1, GAME, &data[2]);
                                if (data[2] == '1') {
                                    uint8_t item = actObj2.byteField[ITEM_NR];
                                    if ((item < 31)||(item > 34)) {
    33d4:	54 30       	cpi	r21, 0x04	; 4
    33d6:	60 f0       	brcs	.+24     	; 0x33f0 <ProcessInput+0x954>
    return 0;
}

//
void SetResponse(uint8_t number, uint16_t address, uint16_t length, uint8_t type){
    reactStr[0][number]=address;
    33d8:	43 e0       	ldi	r20, 0x03	; 3
    33da:	59 e7       	ldi	r21, 0x79	; 121
    33dc:	40 83       	st	Z, r20
    33de:	51 83       	std	Z+1, r21	; 0x01
    reactStr[1][number]=length;
    33e0:	fc 01       	movw	r30, r24
    33e2:	ee 0f       	add	r30, r30
    33e4:	ff 1f       	adc	r31, r31
    33e6:	e3 5a       	subi	r30, 0xA3	; 163
    33e8:	f6 4c       	sbci	r31, 0xC6	; 198
    33ea:	4a e1       	ldi	r20, 0x1A	; 26
    33ec:	50 e0       	ldi	r21, 0x00	; 0
    33ee:	64 c0       	rjmp	.+200    	; 0x34b8 <ProcessInput+0xa1c>
    return 0;
}

//
void SetResponse(uint8_t number, uint16_t address, uint16_t length, uint8_t type){
    reactStr[0][number]=address;
    33f0:	6d e8       	ldi	r22, 0x8D	; 141
    33f2:	75 e7       	ldi	r23, 0x75	; 117
    33f4:	60 83       	st	Z, r22
    33f6:	71 83       	std	Z+1, r23	; 0x01
    reactStr[1][number]=length;
    33f8:	fc 01       	movw	r30, r24
    33fa:	ee 0f       	add	r30, r30
    33fc:	ff 1f       	adc	r31, r31
    33fe:	e3 5a       	subi	r30, 0xA3	; 163
    3400:	f6 4c       	sbci	r31, 0xC6	; 198
    3402:	62 eb       	ldi	r22, 0xB2	; 178
    3404:	70 e0       	ldi	r23, 0x00	; 0
    3406:	60 83       	st	Z, r22
    3408:	71 83       	std	Z+1, r23	; 0x01
    reactStr[2][number]=type;
    340a:	88 0f       	add	r24, r24
    340c:	99 1f       	adc	r25, r25
    340e:	fc 01       	movw	r30, r24
    3410:	e3 56       	subi	r30, 0x63	; 99
    3412:	f6 4c       	sbci	r31, 0xC6	; 198
    3414:	e0 82       	st	Z, r14
    3416:	f1 82       	std	Z+1, r15	; 0x01
    return 0;
}

//
void SetResponse(uint8_t number, uint16_t address, uint16_t length, uint8_t type){
    reactStr[0][number]=address;
    3418:	82 2f       	mov	r24, r18
    341a:	90 e0       	ldi	r25, 0x00	; 0
    341c:	fc 01       	movw	r30, r24
    341e:	ee 0f       	add	r30, r30
    3420:	ff 1f       	adc	r31, r31
    3422:	e3 5e       	subi	r30, 0xE3	; 227
    3424:	f6 4c       	sbci	r31, 0xC6	; 198
    3426:	6b e5       	ldi	r22, 0x5B	; 91
    3428:	7a e7       	ldi	r23, 0x7A	; 122
    342a:	60 83       	st	Z, r22
    342c:	71 83       	std	Z+1, r23	; 0x01
    reactStr[1][number]=length;
    342e:	fc 01       	movw	r30, r24
    3430:	ee 0f       	add	r30, r30
    3432:	ff 1f       	adc	r31, r31
    3434:	e3 5a       	subi	r30, 0xA3	; 163
    3436:	f6 4c       	sbci	r31, 0xC6	; 198
    3438:	62 e0       	ldi	r22, 0x02	; 2
    343a:	70 e0       	ldi	r23, 0x00	; 0
    343c:	60 83       	st	Z, r22
    343e:	71 83       	std	Z+1, r23	; 0x01
    reactStr[2][number]=type;
    3440:	88 0f       	add	r24, r24
    3442:	99 1f       	adc	r25, r25
    3444:	fc 01       	movw	r30, r24
    3446:	e3 56       	subi	r30, 0x63	; 99
    3448:	f6 4c       	sbci	r31, 0xC6	; 198
    344a:	e0 82       	st	Z, r14
    344c:	f1 82       	std	Z+1, r15	; 0x01
    return 0;
}

//
void SetResponse(uint8_t number, uint16_t address, uint16_t length, uint8_t type){
    reactStr[0][number]=address;
    344e:	82 e0       	ldi	r24, 0x02	; 2
    3450:	87 0d       	add	r24, r7
    3452:	90 e0       	ldi	r25, 0x00	; 0
    3454:	f3 e0       	ldi	r31, 0x03	; 3
    3456:	7f 0e       	add	r7, r31
    3458:	fc 01       	movw	r30, r24
    345a:	ee 0f       	add	r30, r30
    345c:	ff 1f       	adc	r31, r31
    345e:	e3 5e       	subi	r30, 0xE3	; 227
    3460:	f6 4c       	sbci	r31, 0xC6	; 198
    3462:	6f ea       	ldi	r22, 0xAF	; 175
    3464:	78 e7       	ldi	r23, 0x78	; 120
    3466:	60 83       	st	Z, r22
    3468:	71 83       	std	Z+1, r23	; 0x01
    reactStr[1][number]=length;
    346a:	fc 01       	movw	r30, r24
    346c:	ee 0f       	add	r30, r30
    346e:	ff 1f       	adc	r31, r31
    3470:	e3 5a       	subi	r30, 0xA3	; 163
    3472:	f6 4c       	sbci	r31, 0xC6	; 198
    3474:	62 e1       	ldi	r22, 0x12	; 18
    3476:	70 e0       	ldi	r23, 0x00	; 0
    3478:	60 83       	st	Z, r22
    347a:	71 83       	std	Z+1, r23	; 0x01
    reactStr[2][number]=type;
    347c:	88 0f       	add	r24, r24
    347e:	99 1f       	adc	r25, r25
    3480:	fc 01       	movw	r30, r24
    3482:	e3 56       	subi	r30, 0x63	; 99
    3484:	f6 4c       	sbci	r31, 0xC6	; 198
    3486:	e0 82       	st	Z, r14
    3488:	f1 82       	std	Z+1, r15	; 0x01
                                        SetResponse(elements++, A_CANTUSE, L_CANTUSE, TEASER);
                                    } else {
                                        SetResponse(elements++, A_PRIEST, L_PRIEST, TEASER);
                                        SetResponse(elements++, A_LF, 2, TEASER);
                                        SetResponse(elements++, A_RESPONSE, L_RESPONSE, TEASER);
                                        specialInput[0] = '1';
    348a:	40 93 0c 39 	sts	0x390C, r20	; 0x80390c <specialInput>
                                        specialInput[1] = item;
    348e:	30 93 0d 39 	sts	0x390D, r19	; 0x80390d <specialInput+0x1>
                                        specialInput[2] = 0;
    3492:	10 92 0e 39 	sts	0x390E, r1	; 0x80390e <specialInput+0x2>
    3496:	ff c2       	rjmp	.+1534   	; 0x3a96 <ProcessInput+0xffa>
    return 0;
}

//
void SetResponse(uint8_t number, uint16_t address, uint16_t length, uint8_t type){
    reactStr[0][number]=address;
    3498:	fc 01       	movw	r30, r24
    349a:	ee 0f       	add	r30, r30
    349c:	ff 1f       	adc	r31, r31
    349e:	e3 5e       	subi	r30, 0xE3	; 227
    34a0:	f6 4c       	sbci	r31, 0xC6	; 198
    34a2:	4f e3       	ldi	r20, 0x3F	; 63
    34a4:	56 e7       	ldi	r21, 0x76	; 118
    34a6:	40 83       	st	Z, r20
    34a8:	51 83       	std	Z+1, r21	; 0x01
    reactStr[1][number]=length;
    34aa:	fc 01       	movw	r30, r24
    34ac:	ee 0f       	add	r30, r30
    34ae:	ff 1f       	adc	r31, r31
    34b0:	e3 5a       	subi	r30, 0xA3	; 163
    34b2:	f6 4c       	sbci	r31, 0xC6	; 198
    34b4:	42 e4       	ldi	r20, 0x42	; 66
    34b6:	50 e0       	ldi	r21, 0x00	; 0
    34b8:	40 83       	st	Z, r20
    34ba:	51 83       	std	Z+1, r21	; 0x01
    reactStr[2][number]=type;
    34bc:	88 0f       	add	r24, r24
    34be:	99 1f       	adc	r25, r25
    34c0:	fc 01       	movw	r30, r24
    34c2:	e3 56       	subi	r30, 0x63	; 99
    34c4:	f6 4c       	sbci	r31, 0xC6	; 198
    34c6:	e0 82       	st	Z, r14
    34c8:	f1 82       	std	Z+1, r15	; 0x01
                                        specialInput[2] = 0;
                                    }

                                //There should not be another special
                                } else {
                                    SetResponse(elements++, A_ERROR, L_ERROR, TEASER);
    34ca:	72 2e       	mov	r7, r18
    34cc:	e4 c2       	rjmp	.+1480   	; 0x3a96 <ProcessInput+0xffa>
                                }

                            //Normal "use ... on ..." or "give ... to ..." action
                            } else if (actObj1.byteField[ACTION_ITEM] == actObj2.byteField[ITEM_NR]) {
    34ce:	90 91 e5 38 	lds	r25, 0x38E5	; 0x8038e5 <actObj1.3995+0x9>
    34d2:	80 91 bc 38 	lds	r24, 0x38BC	; 0x8038bc <actObj2.3996+0xb>
    34d6:	98 13       	cpse	r25, r24
    34d8:	2f c0       	rjmp	.+94     	; 0x3538 <ProcessInput+0xa9c>
                                SetResponse(elements++, actObj1.addrStr[ACTION_MSG], actObj1.lenStr[ACTION_MSG], GAME);
    34da:	20 91 02 39 	lds	r18, 0x3902	; 0x803902 <actObj1.3995+0x26>
    34de:	30 91 03 39 	lds	r19, 0x3903	; 0x803903 <actObj1.3995+0x27>
    34e2:	ff 24       	eor	r15, r15
    34e4:	f3 94       	inc	r15
    34e6:	f7 0c       	add	r15, r7
    return 0;
}

//
void SetResponse(uint8_t number, uint16_t address, uint16_t length, uint8_t type){
    reactStr[0][number]=address;
    34e8:	87 2d       	mov	r24, r7
    34ea:	90 e0       	ldi	r25, 0x00	; 0
    34ec:	fc 01       	movw	r30, r24
    34ee:	ee 0f       	add	r30, r30
    34f0:	ff 1f       	adc	r31, r31
    34f2:	e3 5e       	subi	r30, 0xE3	; 227
    34f4:	f6 4c       	sbci	r31, 0xC6	; 198
    34f6:	40 91 f4 38 	lds	r20, 0x38F4	; 0x8038f4 <actObj1.3995+0x18>
    34fa:	50 91 f5 38 	lds	r21, 0x38F5	; 0x8038f5 <actObj1.3995+0x19>
    34fe:	40 83       	st	Z, r20
    3500:	51 83       	std	Z+1, r21	; 0x01
    reactStr[1][number]=length;
    3502:	fc 01       	movw	r30, r24
    3504:	ee 0f       	add	r30, r30
    3506:	ff 1f       	adc	r31, r31
    3508:	e3 5a       	subi	r30, 0xA3	; 163
    350a:	f6 4c       	sbci	r31, 0xC6	; 198
    350c:	20 83       	st	Z, r18
    350e:	31 83       	std	Z+1, r19	; 0x01
    reactStr[2][number]=type;
    3510:	88 0f       	add	r24, r24
    3512:	99 1f       	adc	r25, r25
    3514:	fc 01       	movw	r30, r24
    3516:	e3 56       	subi	r30, 0x63	; 99
    3518:	f6 4c       	sbci	r31, 0xC6	; 198
    351a:	10 82       	st	Z, r1
    351c:	11 82       	std	Z+1, r1	; 0x01
                                }

                            //Normal "use ... on ..." or "give ... to ..." action
                            } else if (actObj1.byteField[ACTION_ITEM] == actObj2.byteField[ITEM_NR]) {
                                SetResponse(elements++, actObj1.addrStr[ACTION_MSG], actObj1.lenStr[ACTION_MSG], GAME);
                                effect = actObj1.effect[2];
    351e:	80 91 06 39 	lds	r24, 0x3906	; 0x803906 <actObj1.3995+0x2a>
    3522:	90 e0       	ldi	r25, 0x00	; 0
    3524:	80 93 3a 38 	sts	0x383A, r24	; 0x80383a <effect>
    3528:	90 93 3b 38 	sts	0x383B, r25	; 0x80383b <effect+0x1>
                                UpdateState(actObj1.byteField[ACTION_STATE]);
    352c:	80 91 e6 38 	lds	r24, 0x38E6	; 0x8038e6 <actObj1.3995+0xa>
    3530:	0e 94 c7 0a 	call	0x158e	; 0x158e <UpdateState>
                                    SetResponse(elements++, A_ERROR, L_ERROR, TEASER);
                                }

                            //Normal "use ... on ..." or "give ... to ..." action
                            } else if (actObj1.byteField[ACTION_ITEM] == actObj2.byteField[ITEM_NR]) {
                                SetResponse(elements++, actObj1.addrStr[ACTION_MSG], actObj1.lenStr[ACTION_MSG], GAME);
    3534:	7f 2c       	mov	r7, r15
    3536:	af c2       	rjmp	.+1374   	; 0x3a96 <ProcessInput+0xffa>
                                effect = actObj1.effect[2];
                                UpdateState(actObj1.byteField[ACTION_STATE]);
                                
                            } else {
                                if (data[0] == 'u') {
    3538:	d8 01       	movw	r26, r16
    353a:	8c 91       	ld	r24, X
    353c:	85 37       	cpi	r24, 0x75	; 117
    353e:	99 f4       	brne	.+38     	; 0x3566 <ProcessInput+0xaca>
    return 0;
}

//
void SetResponse(uint8_t number, uint16_t address, uint16_t length, uint8_t type){
    reactStr[0][number]=address;
    3540:	87 2d       	mov	r24, r7
    3542:	90 e0       	ldi	r25, 0x00	; 0
    3544:	fc 01       	movw	r30, r24
    3546:	ee 0f       	add	r30, r30
    3548:	ff 1f       	adc	r31, r31
    354a:	e3 5e       	subi	r30, 0xE3	; 227
    354c:	f6 4c       	sbci	r31, 0xC6	; 198
    354e:	23 e0       	ldi	r18, 0x03	; 3
    3550:	39 e7       	ldi	r19, 0x79	; 121
    3552:	20 83       	st	Z, r18
    3554:	31 83       	std	Z+1, r19	; 0x01
    reactStr[1][number]=length;
    3556:	fc 01       	movw	r30, r24
    3558:	ee 0f       	add	r30, r30
    355a:	ff 1f       	adc	r31, r31
    355c:	e3 5a       	subi	r30, 0xA3	; 163
    355e:	f6 4c       	sbci	r31, 0xC6	; 198
    3560:	2a e1       	ldi	r18, 0x1A	; 26
    3562:	30 e0       	ldi	r19, 0x00	; 0
    3564:	15 c0       	rjmp	.+42     	; 0x3590 <ProcessInput+0xaf4>
                                UpdateState(actObj1.byteField[ACTION_STATE]);
                                
                            } else {
                                if (data[0] == 'u') {
                                    SetResponse(elements++, A_CANTUSE, L_CANTUSE, TEASER);
                                } else if (data[0] == 'g') {
    3566:	87 36       	cpi	r24, 0x67	; 103
    3568:	09 f0       	breq	.+2      	; 0x356c <ProcessInput+0xad0>
    356a:	95 c2       	rjmp	.+1322   	; 0x3a96 <ProcessInput+0xffa>
    return 0;
}

//
void SetResponse(uint8_t number, uint16_t address, uint16_t length, uint8_t type){
    reactStr[0][number]=address;
    356c:	87 2d       	mov	r24, r7
    356e:	90 e0       	ldi	r25, 0x00	; 0
    3570:	fc 01       	movw	r30, r24
    3572:	ee 0f       	add	r30, r30
    3574:	ff 1f       	adc	r31, r31
    3576:	e3 5e       	subi	r30, 0xE3	; 227
    3578:	f6 4c       	sbci	r31, 0xC6	; 198
    357a:	2c ed       	ldi	r18, 0xDC	; 220
    357c:	36 e7       	ldi	r19, 0x76	; 118
    357e:	20 83       	st	Z, r18
    3580:	31 83       	std	Z+1, r19	; 0x01
    reactStr[1][number]=length;
    3582:	fc 01       	movw	r30, r24
    3584:	ee 0f       	add	r30, r30
    3586:	ff 1f       	adc	r31, r31
    3588:	e3 5a       	subi	r30, 0xA3	; 163
    358a:	f6 4c       	sbci	r31, 0xC6	; 198
    358c:	28 e2       	ldi	r18, 0x28	; 40
    358e:	30 e0       	ldi	r19, 0x00	; 0
    3590:	20 83       	st	Z, r18
    3592:	31 83       	std	Z+1, r19	; 0x01
    reactStr[2][number]=type;
    3594:	88 0f       	add	r24, r24
    3596:	99 1f       	adc	r25, r25
    3598:	fc 01       	movw	r30, r24
    359a:	e3 56       	subi	r30, 0x63	; 99
    359c:	f6 4c       	sbci	r31, 0xC6	; 198
    359e:	81 e0       	ldi	r24, 0x01	; 1
    35a0:	90 e0       	ldi	r25, 0x00	; 0
    35a2:	80 83       	st	Z, r24
    35a4:	91 83       	std	Z+1, r25	; 0x01
                                
                            } else {
                                if (data[0] == 'u') {
                                    SetResponse(elements++, A_CANTUSE, L_CANTUSE, TEASER);
                                } else if (data[0] == 'g') {
                                    SetResponse(elements++, A_CANTGIVE, L_CANTGIVE, TEASER);                                    
    35a6:	73 94       	inc	r7
    35a8:	76 c2       	rjmp	.+1260   	; 0x3a96 <ProcessInput+0xffa>
                            }
                        }
                    
                    //Talk to person, read or use object (without item)                          
                    } else {
                        PopulateObject(route[currDepth+1], &actObj1);
    35aa:	6c ed       	ldi	r22, 0xDC	; 220
    35ac:	78 e3       	ldi	r23, 0x38	; 56
    35ae:	0e 94 94 10 	call	0x2128	; 0x2128 <PopulateObject>
                        if ((data[0] == 't')&&((actObj1.byteField[ACTION_MASK]&TALK) == 0)) {
    35b2:	f8 01       	movw	r30, r16
    35b4:	80 81       	ld	r24, Z
    35b6:	84 37       	cpi	r24, 0x74	; 116
    35b8:	69 f5       	brne	.+90     	; 0x3614 <ProcessInput+0xb78>
    35ba:	80 91 e4 38 	lds	r24, 0x38E4	; 0x8038e4 <actObj1.3995+0x8>
    35be:	83 fd       	sbrc	r24, 3
    35c0:	4a c0       	rjmp	.+148    	; 0x3656 <ProcessInput+0xbba>
    return 0;
}

//
void SetResponse(uint8_t number, uint16_t address, uint16_t length, uint8_t type){
    reactStr[0][number]=address;
    35c2:	8d e1       	ldi	r24, 0x1D	; 29
    35c4:	99 e7       	ldi	r25, 0x79	; 121
    35c6:	80 93 1f 39 	sts	0x391F, r24	; 0x80391f <reactStr+0x2>
    35ca:	90 93 20 39 	sts	0x3920, r25	; 0x803920 <reactStr+0x3>
    reactStr[1][number]=length;
    35ce:	8e e1       	ldi	r24, 0x1E	; 30
    35d0:	90 e0       	ldi	r25, 0x00	; 0
    35d2:	80 93 5f 39 	sts	0x395F, r24	; 0x80395f <reactStr+0x42>
    35d6:	90 93 60 39 	sts	0x3960, r25	; 0x803960 <reactStr+0x43>
    reactStr[2][number]=type;
    35da:	81 e0       	ldi	r24, 0x01	; 1
    35dc:	90 e0       	ldi	r25, 0x00	; 0
    35de:	80 93 9f 39 	sts	0x399F, r24	; 0x80399f <reactStr+0x82>
    35e2:	90 93 a0 39 	sts	0x39A0, r25	; 0x8039a0 <reactStr+0x83>
                    //Talk to person, read or use object (without item)                          
                    } else {
                        PopulateObject(route[currDepth+1], &actObj1);
                        if ((data[0] == 't')&&((actObj1.byteField[ACTION_MASK]&TALK) == 0)) {
                            SetResponse(elements++, A_WHYTALK, L_WHYTALK, TEASER);
                            SetResponse(elements++, actObj1.addrStr[NAME], actObj1.lenStr[NAME], GAME);
    35e6:	80 91 f6 38 	lds	r24, 0x38F6	; 0x8038f6 <actObj1.3995+0x1a>
    35ea:	90 91 f7 38 	lds	r25, 0x38F7	; 0x8038f7 <actObj1.3995+0x1b>
    return 0;
}

//
void SetResponse(uint8_t number, uint16_t address, uint16_t length, uint8_t type){
    reactStr[0][number]=address;
    35ee:	20 91 e8 38 	lds	r18, 0x38E8	; 0x8038e8 <actObj1.3995+0xc>
    35f2:	30 91 e9 38 	lds	r19, 0x38E9	; 0x8038e9 <actObj1.3995+0xd>
    35f6:	20 93 21 39 	sts	0x3921, r18	; 0x803921 <reactStr+0x4>
    35fa:	30 93 22 39 	sts	0x3922, r19	; 0x803922 <reactStr+0x5>
    reactStr[1][number]=length;
    35fe:	80 93 61 39 	sts	0x3961, r24	; 0x803961 <reactStr+0x44>
    3602:	90 93 62 39 	sts	0x3962, r25	; 0x803962 <reactStr+0x45>
    reactStr[2][number]=type;
    3606:	10 92 a1 39 	sts	0x39A1, r1	; 0x8039a1 <reactStr+0x84>
    360a:	10 92 a2 39 	sts	0x39A2, r1	; 0x8039a2 <reactStr+0x85>
                    //Talk to person, read or use object (without item)                          
                    } else {
                        PopulateObject(route[currDepth+1], &actObj1);
                        if ((data[0] == 't')&&((actObj1.byteField[ACTION_MASK]&TALK) == 0)) {
                            SetResponse(elements++, A_WHYTALK, L_WHYTALK, TEASER);
                            SetResponse(elements++, actObj1.addrStr[NAME], actObj1.lenStr[NAME], GAME);
    360e:	e3 e0       	ldi	r30, 0x03	; 3
    3610:	7e 2e       	mov	r7, r30
    3612:	41 c2       	rjmp	.+1154   	; 0x3a96 <ProcessInput+0xffa>
                        } else if ((data[0] == 'u')&&((actObj1.byteField[ACTION_MASK]&USE) == 0)) {
    3614:	85 37       	cpi	r24, 0x75	; 117
    3616:	69 f4       	brne	.+26     	; 0x3632 <ProcessInput+0xb96>
    3618:	80 91 e4 38 	lds	r24, 0x38E4	; 0x8038e4 <actObj1.3995+0x8>
    361c:	84 fd       	sbrc	r24, 4
    361e:	1b c0       	rjmp	.+54     	; 0x3656 <ProcessInput+0xbba>
    return 0;
}

//
void SetResponse(uint8_t number, uint16_t address, uint16_t length, uint8_t type){
    reactStr[0][number]=address;
    3620:	83 e0       	ldi	r24, 0x03	; 3
    3622:	99 e7       	ldi	r25, 0x79	; 121
    3624:	80 93 1f 39 	sts	0x391F, r24	; 0x80391f <reactStr+0x2>
    3628:	90 93 20 39 	sts	0x3920, r25	; 0x803920 <reactStr+0x3>
    reactStr[1][number]=length;
    362c:	8a e1       	ldi	r24, 0x1A	; 26
    362e:	90 e0       	ldi	r25, 0x00	; 0
    3630:	f9 ca       	rjmp	.-2574   	; 0x2c24 <ProcessInput+0x188>
                        if ((data[0] == 't')&&((actObj1.byteField[ACTION_MASK]&TALK) == 0)) {
                            SetResponse(elements++, A_WHYTALK, L_WHYTALK, TEASER);
                            SetResponse(elements++, actObj1.addrStr[NAME], actObj1.lenStr[NAME], GAME);
                        } else if ((data[0] == 'u')&&((actObj1.byteField[ACTION_MASK]&USE) == 0)) {
                            SetResponse(elements++, A_CANTUSE, L_CANTUSE, TEASER);
                        } else if ((data[0] == 'r')&&((actObj1.byteField[ACTION_MASK]&READ) == 0)) {
    3632:	82 37       	cpi	r24, 0x72	; 114
    3634:	69 f4       	brne	.+26     	; 0x3650 <ProcessInput+0xbb4>
    3636:	80 91 e4 38 	lds	r24, 0x38E4	; 0x8038e4 <actObj1.3995+0x8>
    363a:	85 fd       	sbrc	r24, 5
    363c:	0c c0       	rjmp	.+24     	; 0x3656 <ProcessInput+0xbba>
    return 0;
}

//
void SetResponse(uint8_t number, uint16_t address, uint16_t length, uint8_t type){
    reactStr[0][number]=address;
    363e:	88 ee       	ldi	r24, 0xE8	; 232
    3640:	98 e7       	ldi	r25, 0x78	; 120
    3642:	80 93 1f 39 	sts	0x391F, r24	; 0x80391f <reactStr+0x2>
    3646:	90 93 20 39 	sts	0x3920, r25	; 0x803920 <reactStr+0x3>
    reactStr[1][number]=length;
    364a:	8b e1       	ldi	r24, 0x1B	; 27
    364c:	90 e0       	ldi	r25, 0x00	; 0
    364e:	ea ca       	rjmp	.-2604   	; 0x2c24 <ProcessInput+0x188>
                            SetResponse(elements++, actObj1.addrStr[NAME], actObj1.lenStr[NAME], GAME);
                        } else if ((data[0] == 'u')&&((actObj1.byteField[ACTION_MASK]&USE) == 0)) {
                            SetResponse(elements++, A_CANTUSE, L_CANTUSE, TEASER);
                        } else if ((data[0] == 'r')&&((actObj1.byteField[ACTION_MASK]&READ) == 0)) {
                            SetResponse(elements++, A_CANTREAD, L_CANTREAD, TEASER);
                        } else if (data[0] == 'g'){ 
    3650:	87 36       	cpi	r24, 0x67	; 103
    3652:	09 f4       	brne	.+2      	; 0x3656 <ProcessInput+0xbba>
    3654:	52 ca       	rjmp	.-2908   	; 0x2afa <ProcessInput+0x5e>
                            SetResponse(elements++, A_NOTPOSSIBLE, L_NOTPOSSIBLE, TEASER);  
                        } else {

                            //Special game, not enough characters
                            if (actObj1.lenStr[ACTION_STR1] == 1) {
    3656:	e0 90 fa 38 	lds	r14, 0x38FA	; 0x8038fa <actObj1.3995+0x1e>
    365a:	f0 90 fb 38 	lds	r15, 0x38FB	; 0x8038fb <actObj1.3995+0x1f>
    365e:	f1 e0       	ldi	r31, 0x01	; 1
    3660:	ef 16       	cp	r14, r31
    3662:	f1 04       	cpc	r15, r1
    3664:	11 f5       	brne	.+68     	; 0x36aa <ProcessInput+0xc0e>
                                ExtEERead(actObj1.addrStr[ACTION_STR1], 1, GAME, &data[2]);
    3666:	98 01       	movw	r18, r16
    3668:	2e 5f       	subi	r18, 0xFE	; 254
    366a:	3f 4f       	sbci	r19, 0xFF	; 255
    366c:	40 e0       	ldi	r20, 0x00	; 0
    366e:	61 e0       	ldi	r22, 0x01	; 1
    3670:	80 91 ec 38 	lds	r24, 0x38EC	; 0x8038ec <actObj1.3995+0x10>
    3674:	90 91 ed 38 	lds	r25, 0x38ED	; 0x8038ed <actObj1.3995+0x11>
    3678:	0e 94 84 0f 	call	0x1f08	; 0x1f08 <ExtEERead>
                                if (data[2] == '1') {
    367c:	d8 01       	movw	r26, r16
    367e:	12 96       	adiw	r26, 0x02	; 2
    3680:	8c 91       	ld	r24, X
    3682:	81 33       	cpi	r24, 0x31	; 49
    3684:	09 f0       	breq	.+2      	; 0x3688 <ProcessInput+0xbec>
    3686:	8a cc       	rjmp	.-1772   	; 0x2f9c <ProcessInput+0x500>
    return 0;
}

//
void SetResponse(uint8_t number, uint16_t address, uint16_t length, uint8_t type){
    reactStr[0][number]=address;
    3688:	82 e6       	ldi	r24, 0x62	; 98
    368a:	95 e7       	ldi	r25, 0x75	; 117
    368c:	80 93 1f 39 	sts	0x391F, r24	; 0x80391f <reactStr+0x2>
    3690:	90 93 20 39 	sts	0x3920, r25	; 0x803920 <reactStr+0x3>
    reactStr[1][number]=length;
    3694:	8b e2       	ldi	r24, 0x2B	; 43
    3696:	90 e0       	ldi	r25, 0x00	; 0
    3698:	80 93 5f 39 	sts	0x395F, r24	; 0x80395f <reactStr+0x42>
    369c:	90 93 60 39 	sts	0x3960, r25	; 0x803960 <reactStr+0x43>
    reactStr[2][number]=type;
    36a0:	e0 92 9f 39 	sts	0x399F, r14	; 0x80399f <reactStr+0x82>
    36a4:	f0 92 a0 39 	sts	0x39A0, r15	; 0x8039a0 <reactStr+0x83>
    36a8:	c7 ca       	rjmp	.-2674   	; 0x2c38 <ProcessInput+0x19c>
                                if (data[2] == '1') {
                                    SetResponse(elements++, A_PLEASEOFFER, L_PLEASEOFFER, TEASER);
                                }

                            //General request
                            } else if (actObj1.lenStr[ACTION_STR1]) {
    36aa:	e1 14       	cp	r14, r1
    36ac:	f1 04       	cpc	r15, r1
    36ae:	09 f4       	brne	.+2      	; 0x36b2 <ProcessInput+0xc16>
    36b0:	59 c0       	rjmp	.+178    	; 0x3764 <ProcessInput+0xcc8>
    return 0;
}

//
void SetResponse(uint8_t number, uint16_t address, uint16_t length, uint8_t type){
    reactStr[0][number]=address;
    36b2:	80 91 ec 38 	lds	r24, 0x38EC	; 0x8038ec <actObj1.3995+0x10>
    36b6:	90 91 ed 38 	lds	r25, 0x38ED	; 0x8038ed <actObj1.3995+0x11>
    36ba:	80 93 1f 39 	sts	0x391F, r24	; 0x80391f <reactStr+0x2>
    36be:	90 93 20 39 	sts	0x3920, r25	; 0x803920 <reactStr+0x3>
    reactStr[1][number]=length;
    36c2:	e0 92 5f 39 	sts	0x395F, r14	; 0x80395f <reactStr+0x42>
    36c6:	f0 92 60 39 	sts	0x3960, r15	; 0x803960 <reactStr+0x43>
    reactStr[2][number]=type;
    36ca:	10 92 9f 39 	sts	0x399F, r1	; 0x80399f <reactStr+0x82>
    36ce:	10 92 a0 39 	sts	0x39A0, r1	; 0x8039a0 <reactStr+0x83>
    return 0;
}

//
void SetResponse(uint8_t number, uint16_t address, uint16_t length, uint8_t type){
    reactStr[0][number]=address;
    36d2:	8b e5       	ldi	r24, 0x5B	; 91
    36d4:	9a e7       	ldi	r25, 0x7A	; 122
    36d6:	80 93 21 39 	sts	0x3921, r24	; 0x803921 <reactStr+0x4>
    36da:	90 93 22 39 	sts	0x3922, r25	; 0x803922 <reactStr+0x5>
    reactStr[1][number]=length;
    36de:	82 e0       	ldi	r24, 0x02	; 2
    36e0:	90 e0       	ldi	r25, 0x00	; 0
    36e2:	80 93 61 39 	sts	0x3961, r24	; 0x803961 <reactStr+0x44>
    36e6:	90 93 62 39 	sts	0x3962, r25	; 0x803962 <reactStr+0x45>
    reactStr[2][number]=type;
    36ea:	81 e0       	ldi	r24, 0x01	; 1
    36ec:	90 e0       	ldi	r25, 0x00	; 0
    36ee:	80 93 a1 39 	sts	0x39A1, r24	; 0x8039a1 <reactStr+0x84>
    36f2:	90 93 a2 39 	sts	0x39A2, r25	; 0x8039a2 <reactStr+0x85>
    return 0;
}

//
void SetResponse(uint8_t number, uint16_t address, uint16_t length, uint8_t type){
    reactStr[0][number]=address;
    36f6:	2f ea       	ldi	r18, 0xAF	; 175
    36f8:	38 e7       	ldi	r19, 0x78	; 120
    36fa:	20 93 23 39 	sts	0x3923, r18	; 0x803923 <reactStr+0x6>
    36fe:	30 93 24 39 	sts	0x3924, r19	; 0x803924 <reactStr+0x7>
    reactStr[1][number]=length;
    3702:	22 e1       	ldi	r18, 0x12	; 18
    3704:	30 e0       	ldi	r19, 0x00	; 0
    3706:	20 93 63 39 	sts	0x3963, r18	; 0x803963 <reactStr+0x46>
    370a:	30 93 64 39 	sts	0x3964, r19	; 0x803964 <reactStr+0x47>
    reactStr[2][number]=type;
    370e:	80 93 a3 39 	sts	0x39A3, r24	; 0x8039a3 <reactStr+0x86>
    3712:	90 93 a4 39 	sts	0x39A4, r25	; 0x8039a4 <reactStr+0x87>
                            //General request
                            } else if (actObj1.lenStr[ACTION_STR1]) {
                                SetResponse(elements++, actObj1.addrStr[ACTION_STR1], actObj1.lenStr[ACTION_STR1], GAME);
                                SetResponse(elements++, A_LF, 2, TEASER);
                                SetResponse(elements++, A_RESPONSE, L_RESPONSE, TEASER);
                                if (actObj1.lenStr[ACTION_STR2]>(INP_LENGTH-1)) actObj1.lenStr[ACTION_STR2] = (INP_LENGTH-1);
    3716:	80 91 fc 38 	lds	r24, 0x38FC	; 0x8038fc <actObj1.3995+0x20>
    371a:	90 91 fd 38 	lds	r25, 0x38FD	; 0x8038fd <actObj1.3995+0x21>
    371e:	40 97       	sbiw	r24, 0x10	; 16
    3720:	30 f0       	brcs	.+12     	; 0x372e <ProcessInput+0xc92>
    3722:	8f e0       	ldi	r24, 0x0F	; 15
    3724:	90 e0       	ldi	r25, 0x00	; 0
    3726:	80 93 fc 38 	sts	0x38FC, r24	; 0x8038fc <actObj1.3995+0x20>
    372a:	90 93 fd 38 	sts	0x38FD, r25	; 0x8038fd <actObj1.3995+0x21>
                                ExtEERead(actObj1.addrStr[ACTION_STR2], actObj1.lenStr[ACTION_STR2], GAME, (uint8_t *)&specialInput[0]);
    372e:	2c e0       	ldi	r18, 0x0C	; 12
    3730:	39 e3       	ldi	r19, 0x39	; 57
    3732:	40 e0       	ldi	r20, 0x00	; 0
    3734:	60 91 fc 38 	lds	r22, 0x38FC	; 0x8038fc <actObj1.3995+0x20>
    3738:	80 91 ee 38 	lds	r24, 0x38EE	; 0x8038ee <actObj1.3995+0x12>
    373c:	90 91 ef 38 	lds	r25, 0x38EF	; 0x8038ef <actObj1.3995+0x13>
    3740:	0e 94 84 0f 	call	0x1f08	; 0x1f08 <ExtEERead>
                                UnflipData(actObj1.lenStr[ACTION_STR2], (uint8_t *)&specialInput[0]);
    3744:	6c e0       	ldi	r22, 0x0C	; 12
    3746:	79 e3       	ldi	r23, 0x39	; 57
    3748:	80 91 fc 38 	lds	r24, 0x38FC	; 0x8038fc <actObj1.3995+0x20>
    374c:	0e 94 77 0f 	call	0x1eee	; 0x1eee <UnflipData>
                                specialInput[actObj1.lenStr[ACTION_STR2]] = 0;
    3750:	e0 91 fc 38 	lds	r30, 0x38FC	; 0x8038fc <actObj1.3995+0x20>
    3754:	f0 91 fd 38 	lds	r31, 0x38FD	; 0x8038fd <actObj1.3995+0x21>
    3758:	e4 5f       	subi	r30, 0xF4	; 244
    375a:	f6 4c       	sbci	r31, 0xC6	; 198
    375c:	10 82       	st	Z, r1

                            //General request
                            } else if (actObj1.lenStr[ACTION_STR1]) {
                                SetResponse(elements++, actObj1.addrStr[ACTION_STR1], actObj1.lenStr[ACTION_STR1], GAME);
                                SetResponse(elements++, A_LF, 2, TEASER);
                                SetResponse(elements++, A_RESPONSE, L_RESPONSE, TEASER);
    375e:	74 e0       	ldi	r23, 0x04	; 4
    3760:	77 2e       	mov	r7, r23
    3762:	99 c1       	rjmp	.+818    	; 0x3a96 <ProcessInput+0xffa>
                                ExtEERead(actObj1.addrStr[ACTION_STR2], actObj1.lenStr[ACTION_STR2], GAME, (uint8_t *)&specialInput[0]);
                                UnflipData(actObj1.lenStr[ACTION_STR2], (uint8_t *)&specialInput[0]);
                                specialInput[actObj1.lenStr[ACTION_STR2]] = 0;
                            
                            //Normal action    
                            } else if (CheckState(actObj1.byteField[ACTION_ACL])){
    3764:	80 91 e3 38 	lds	r24, 0x38E3	; 0x8038e3 <actObj1.3995+0x7>
    3768:	0e 94 d1 0a 	call	0x15a2	; 0x15a2 <CheckState>
    376c:	88 23       	and	r24, r24
    376e:	01 f1       	breq	.+64     	; 0x37b0 <ProcessInput+0xd14>
                                SetResponse(elements++, actObj1.addrStr[ACTION_MSG], actObj1.lenStr[ACTION_MSG], GAME);
    3770:	80 91 02 39 	lds	r24, 0x3902	; 0x803902 <actObj1.3995+0x26>
    3774:	90 91 03 39 	lds	r25, 0x3903	; 0x803903 <actObj1.3995+0x27>
    return 0;
}

//
void SetResponse(uint8_t number, uint16_t address, uint16_t length, uint8_t type){
    reactStr[0][number]=address;
    3778:	20 91 f4 38 	lds	r18, 0x38F4	; 0x8038f4 <actObj1.3995+0x18>
    377c:	30 91 f5 38 	lds	r19, 0x38F5	; 0x8038f5 <actObj1.3995+0x19>
    3780:	20 93 1f 39 	sts	0x391F, r18	; 0x80391f <reactStr+0x2>
    3784:	30 93 20 39 	sts	0x3920, r19	; 0x803920 <reactStr+0x3>
    reactStr[1][number]=length;
    3788:	80 93 5f 39 	sts	0x395F, r24	; 0x80395f <reactStr+0x42>
    378c:	90 93 60 39 	sts	0x3960, r25	; 0x803960 <reactStr+0x43>
    reactStr[2][number]=type;
    3790:	10 92 9f 39 	sts	0x399F, r1	; 0x80399f <reactStr+0x82>
    3794:	10 92 a0 39 	sts	0x39A0, r1	; 0x8039a0 <reactStr+0x83>
                                specialInput[actObj1.lenStr[ACTION_STR2]] = 0;
                            
                            //Normal action    
                            } else if (CheckState(actObj1.byteField[ACTION_ACL])){
                                SetResponse(elements++, actObj1.addrStr[ACTION_MSG], actObj1.lenStr[ACTION_MSG], GAME);
                                effect = actObj1.effect[2];
    3798:	80 91 06 39 	lds	r24, 0x3906	; 0x803906 <actObj1.3995+0x2a>
    379c:	90 e0       	ldi	r25, 0x00	; 0
    379e:	80 93 3a 38 	sts	0x383A, r24	; 0x80383a <effect>
    37a2:	90 93 3b 38 	sts	0x383B, r25	; 0x80383b <effect+0x1>
                                UpdateState(actObj1.byteField[ACTION_STATE]);
    37a6:	80 91 e6 38 	lds	r24, 0x38E6	; 0x8038e6 <actObj1.3995+0xa>
    37aa:	0e 94 c7 0a 	call	0x158e	; 0x158e <UpdateState>
    37ae:	44 ca       	rjmp	.-2936   	; 0x2c38 <ProcessInput+0x19c>
                            } else {
                                SetResponse(elements++, actObj1.addrStr[ACTION_ACL_MSG], actObj1.lenStr[ACTION_ACL_MSG], GAME);
    37b0:	80 91 00 39 	lds	r24, 0x3900	; 0x803900 <actObj1.3995+0x24>
    37b4:	90 91 01 39 	lds	r25, 0x3901	; 0x803901 <actObj1.3995+0x25>
    return 0;
}

//
void SetResponse(uint8_t number, uint16_t address, uint16_t length, uint8_t type){
    reactStr[0][number]=address;
    37b8:	20 91 f2 38 	lds	r18, 0x38F2	; 0x8038f2 <actObj1.3995+0x16>
    37bc:	30 91 f3 38 	lds	r19, 0x38F3	; 0x8038f3 <actObj1.3995+0x17>
    37c0:	20 93 1f 39 	sts	0x391F, r18	; 0x80391f <reactStr+0x2>
    37c4:	30 93 20 39 	sts	0x3920, r19	; 0x803920 <reactStr+0x3>
    reactStr[1][number]=length;
    37c8:	80 93 5f 39 	sts	0x395F, r24	; 0x80395f <reactStr+0x42>
    37cc:	90 93 60 39 	sts	0x3960, r25	; 0x803960 <reactStr+0x43>
    reactStr[2][number]=type;
    37d0:	10 92 9f 39 	sts	0x399F, r1	; 0x80399f <reactStr+0x82>
    37d4:	10 92 a0 39 	sts	0x39A0, r1	; 0x8039a0 <reactStr+0x83>
                                SetResponse(elements++, actObj1.addrStr[ACTION_MSG], actObj1.lenStr[ACTION_MSG], GAME);
                                effect = actObj1.effect[2];
                                UpdateState(actObj1.byteField[ACTION_STATE]);
                            } else {
                                SetResponse(elements++, actObj1.addrStr[ACTION_ACL_MSG], actObj1.lenStr[ACTION_ACL_MSG], GAME);
                                effect = actObj1.effect[1];
    37d8:	80 91 05 39 	lds	r24, 0x3905	; 0x803905 <actObj1.3995+0x29>
    37dc:	90 e0       	ldi	r25, 0x00	; 0
    37de:	80 93 3a 38 	sts	0x383A, r24	; 0x80383a <effect>
    37e2:	90 93 3b 38 	sts	0x383B, r25	; 0x80383b <effect+0x1>
    37e6:	28 ca       	rjmp	.-2992   	; 0x2c38 <ProcessInput+0x19c>
                        }
                    }

                //Person or object not found
                } else {
                    if ((data[0] == 't')||(data[0] == 'g')){
    37e8:	f8 01       	movw	r30, r16
    37ea:	80 81       	ld	r24, Z
    37ec:	84 37       	cpi	r24, 0x74	; 116
    37ee:	11 f0       	breq	.+4      	; 0x37f4 <ProcessInput+0xd58>
    37f0:	87 36       	cpi	r24, 0x67	; 103
    37f2:	19 f4       	brne	.+6      	; 0x37fa <ProcessInput+0xd5e>
    return 0;
}

//
void SetResponse(uint8_t number, uint16_t address, uint16_t length, uint8_t type){
    reactStr[0][number]=address;
    37f4:	8b e3       	ldi	r24, 0x3B	; 59
    37f6:	99 e7       	ldi	r25, 0x79	; 121
    37f8:	02 c0       	rjmp	.+4      	; 0x37fe <ProcessInput+0xd62>
    37fa:	8f e4       	ldi	r24, 0x4F	; 79
    37fc:	99 e7       	ldi	r25, 0x79	; 121
    37fe:	80 93 1f 39 	sts	0x391F, r24	; 0x80391f <reactStr+0x2>
    3802:	90 93 20 39 	sts	0x3920, r25	; 0x803920 <reactStr+0x3>
    reactStr[1][number]=length;
    3806:	84 e1       	ldi	r24, 0x14	; 20
    3808:	90 e0       	ldi	r25, 0x00	; 0
    380a:	0c ca       	rjmp	.-3048   	; 0x2c24 <ProcessInput+0x188>
                    }
                }
            }
        
        //Special answer given
        } else if (data[0] == 'a'){
    380c:	81 36       	cpi	r24, 0x61	; 97
    380e:	09 f0       	breq	.+2      	; 0x3812 <ProcessInput+0xd76>
    3810:	c5 cb       	rjmp	.-2166   	; 0x2f9c <ProcessInput+0x500>
            
            //Priest offerings
            if (specialPassed >= 2) {
    3812:	80 91 0b 39 	lds	r24, 0x390B	; 0x80390b <specialPassed>
    3816:	82 30       	cpi	r24, 0x02	; 2
    3818:	08 f4       	brcc	.+2      	; 0x381c <ProcessInput+0xd80>
    381a:	cb c0       	rjmp	.+406    	; 0x39b2 <ProcessInput+0xf16>
                if (data[1] > 0) {
    381c:	d8 01       	movw	r26, r16
    381e:	11 96       	adiw	r26, 0x01	; 1
    3820:	2c 91       	ld	r18, X
    3822:	22 23       	and	r18, r18
    3824:	09 f4       	brne	.+2      	; 0x3828 <ProcessInput+0xd8c>
    3826:	b2 c0       	rjmp	.+356    	; 0x398c <ProcessInput+0xef0>

                    //uint8_t  digit[10] = {0, 0, 0, 0, 0, 0, 0, 0, 0, 0};
                    uint8_t  digit[8] = {0, 0, 0, 0, 0, 0, 0, 0};
    3828:	fe 01       	movw	r30, r28
    382a:	31 96       	adiw	r30, 0x01	; 1
    382c:	7f 01       	movw	r14, r30
    382e:	88 e0       	ldi	r24, 0x08	; 8
    3830:	df 01       	movw	r26, r30
    3832:	1d 92       	st	X+, r1
    3834:	8a 95       	dec	r24
    3836:	e9 f7       	brne	.-6      	; 0x3832 <ProcessInput+0xd96>
                        answer = ((offering  & 2) << 19) + ((offering  & 1) << 8) + \
                        ((element   & 2) << 15) + ((element   & 1) << 4) + \
                        ((kneelings & 2) << 11) + ((kneelings & 1))
                        answer = answer << (3-person)
                    */
                    data[1]-='1';
    3838:	21 53       	subi	r18, 0x31	; 49
    383a:	f8 01       	movw	r30, r16
    383c:	21 83       	std	Z+1, r18	; 0x01
                    data[2]-='1';
    383e:	32 81       	ldd	r19, Z+2	; 0x02
    3840:	31 53       	subi	r19, 0x31	; 49
    3842:	32 83       	std	Z+2, r19	; 0x02
                    if (data[3] == 'a') data[3] = 1;
    3844:	83 81       	ldd	r24, Z+3	; 0x03
    3846:	81 36       	cpi	r24, 0x61	; 97
    3848:	11 f4       	brne	.+4      	; 0x384e <ProcessInput+0xdb2>
    384a:	81 e0       	ldi	r24, 0x01	; 1
    384c:	08 c0       	rjmp	.+16     	; 0x385e <ProcessInput+0xdc2>
                    else if (data[3] == 'e') data[3] = 0;
    384e:	85 36       	cpi	r24, 0x65	; 101
    3850:	11 f4       	brne	.+4      	; 0x3856 <ProcessInput+0xdba>
    3852:	13 82       	std	Z+3, r1	; 0x03
    3854:	08 c0       	rjmp	.+16     	; 0x3866 <ProcessInput+0xdca>
                    else if (data[3] == 'f') data[3] = 3;
    3856:	86 36       	cpi	r24, 0x66	; 102
    3858:	21 f4       	brne	.+8      	; 0x3862 <ProcessInput+0xdc6>
    385a:	83 e0       	ldi	r24, 0x03	; 3
    385c:	f8 01       	movw	r30, r16
    385e:	83 83       	std	Z+3, r24	; 0x03
    3860:	02 c0       	rjmp	.+4      	; 0x3866 <ProcessInput+0xdca>
                    else data[3] = 2;
    3862:	82 e0       	ldi	r24, 0x02	; 2
    3864:	83 83       	std	Z+3, r24	; 0x03

                    if (data[1] & 2) answer += (1UL << 20);
    3866:	21 fd       	sbrc	r18, 1
    3868:	04 c0       	rjmp	.+8      	; 0x3872 <ProcessInput+0xdd6>
            if (specialPassed >= 2) {
                if (data[1] > 0) {

                    //uint8_t  digit[10] = {0, 0, 0, 0, 0, 0, 0, 0, 0, 0};
                    uint8_t  digit[8] = {0, 0, 0, 0, 0, 0, 0, 0};
                    uint32_t answer = 0;
    386a:	80 e0       	ldi	r24, 0x00	; 0
    386c:	90 e0       	ldi	r25, 0x00	; 0
    386e:	dc 01       	movw	r26, r24
    3870:	04 c0       	rjmp	.+8      	; 0x387a <ProcessInput+0xdde>
                    if (data[3] == 'a') data[3] = 1;
                    else if (data[3] == 'e') data[3] = 0;
                    else if (data[3] == 'f') data[3] = 3;
                    else data[3] = 2;

                    if (data[1] & 2) answer += (1UL << 20);
    3872:	80 e0       	ldi	r24, 0x00	; 0
    3874:	90 e0       	ldi	r25, 0x00	; 0
    3876:	a0 e1       	ldi	r26, 0x10	; 16
    3878:	b0 e0       	ldi	r27, 0x00	; 0
                    if (data[1] & 1) answer += (1 << 8);
    387a:	20 ff       	sbrs	r18, 0
    387c:	03 c0       	rjmp	.+6      	; 0x3884 <ProcessInput+0xde8>
    387e:	9f 5f       	subi	r25, 0xFF	; 255
    3880:	af 4f       	sbci	r26, 0xFF	; 255
    3882:	bf 4f       	sbci	r27, 0xFF	; 255
                    if (data[3] & 2) answer += (1UL << 16);
    3884:	f8 01       	movw	r30, r16
    3886:	23 81       	ldd	r18, Z+3	; 0x03
    3888:	21 fd       	sbrc	r18, 1
    388a:	11 96       	adiw	r26, 0x01	; 1
                    if (data[3] & 1) answer += (1 << 4);
    388c:	20 ff       	sbrs	r18, 0
    388e:	03 c0       	rjmp	.+6      	; 0x3896 <ProcessInput+0xdfa>
    3890:	40 96       	adiw	r24, 0x10	; 16
    3892:	a1 1d       	adc	r26, r1
    3894:	b1 1d       	adc	r27, r1
                    if (data[2] & 2) answer += (1 << 12);
    3896:	31 ff       	sbrs	r19, 1
    3898:	03 c0       	rjmp	.+6      	; 0x38a0 <ProcessInput+0xe04>
    389a:	90 5f       	subi	r25, 0xF0	; 240
    389c:	af 4f       	sbci	r26, 0xFF	; 255
    389e:	bf 4f       	sbci	r27, 0xFF	; 255
                    if (data[2] & 1) answer += 1;
    38a0:	30 ff       	sbrs	r19, 0
    38a2:	03 c0       	rjmp	.+6      	; 0x38aa <ProcessInput+0xe0e>
    38a4:	01 96       	adiw	r24, 0x01	; 1
    38a6:	a1 1d       	adc	r26, r1
    38a8:	b1 1d       	adc	r27, r1
                    answer <<= (4 - whoami);            
    38aa:	40 91 3d 38 	lds	r20, 0x383D	; 0x80383d <whoami>
    38ae:	24 e0       	ldi	r18, 0x04	; 4
    38b0:	30 e0       	ldi	r19, 0x00	; 0
    38b2:	24 1b       	sub	r18, r20
    38b4:	31 09       	sbc	r19, r1
    38b6:	04 c0       	rjmp	.+8      	; 0x38c0 <ProcessInput+0xe24>
    38b8:	88 0f       	add	r24, r24
    38ba:	99 1f       	adc	r25, r25
    38bc:	aa 1f       	adc	r26, r26
    38be:	bb 1f       	adc	r27, r27
    38c0:	2a 95       	dec	r18
    38c2:	d2 f7       	brpl	.-12     	; 0x38b8 <ProcessInput+0xe1c>
    return 0;
}

//
void SetResponse(uint8_t number, uint16_t address, uint16_t length, uint8_t type){
    reactStr[0][number]=address;
    38c4:	25 e0       	ldi	r18, 0x05	; 5
    38c6:	35 e7       	ldi	r19, 0x75	; 117
    38c8:	20 93 1f 39 	sts	0x391F, r18	; 0x80391f <reactStr+0x2>
    38cc:	30 93 20 39 	sts	0x3920, r19	; 0x803920 <reactStr+0x3>
    reactStr[1][number]=length;
    38d0:	20 e2       	ldi	r18, 0x20	; 32
    38d2:	30 e0       	ldi	r19, 0x00	; 0
    38d4:	20 93 5f 39 	sts	0x395F, r18	; 0x80395f <reactStr+0x42>
    38d8:	30 93 60 39 	sts	0x3960, r19	; 0x803960 <reactStr+0x43>
    reactStr[2][number]=type;
    38dc:	21 e0       	ldi	r18, 0x01	; 1
    38de:	30 e0       	ldi	r19, 0x00	; 0
    38e0:	20 93 9f 39 	sts	0x399F, r18	; 0x80399f <reactStr+0x82>
    38e4:	30 93 a0 39 	sts	0x39A0, r19	; 0x8039a0 <reactStr+0x83>
    return 0;
}

//
void SetResponse(uint8_t number, uint16_t address, uint16_t length, uint8_t type){
    reactStr[0][number]=address;
    38e8:	4a ed       	ldi	r20, 0xDA	; 218
    38ea:	54 e7       	ldi	r21, 0x74	; 116
    38ec:	40 93 21 39 	sts	0x3921, r20	; 0x803921 <reactStr+0x4>
    38f0:	50 93 22 39 	sts	0x3922, r21	; 0x803922 <reactStr+0x5>
    reactStr[1][number]=length;
    38f4:	42 e0       	ldi	r20, 0x02	; 2
    38f6:	50 e0       	ldi	r21, 0x00	; 0
    38f8:	40 93 61 39 	sts	0x3961, r20	; 0x803961 <reactStr+0x44>
    38fc:	50 93 62 39 	sts	0x3962, r21	; 0x803962 <reactStr+0x45>
    reactStr[2][number]=type;
    3900:	20 93 a1 39 	sts	0x39A1, r18	; 0x8039a1 <reactStr+0x84>
    3904:	30 93 a2 39 	sts	0x39A2, r19	; 0x8039a2 <reactStr+0x85>

                    SetResponse(elements++, A_YOURPART, L_YOURPART, TEASER);
                    SetResponse(elements++, A_HEXPREFIX, L_HEXPREFIX, TEASER);
                    
                    //Set up sending out number
                    for (n=7; n>=0; --n) {
    3908:	67 e0       	ldi	r22, 0x07	; 7
    390a:	d6 2e       	mov	r13, r22
                        digit[n] = answer % 16;
    390c:	f7 01       	movw	r30, r14
    390e:	ed 0d       	add	r30, r13
    3910:	f1 1d       	adc	r31, r1
    3912:	28 2f       	mov	r18, r24
    3914:	2f 70       	andi	r18, 0x0F	; 15
    3916:	20 83       	st	Z, r18
                        answer /= 16;
    3918:	54 e0       	ldi	r21, 0x04	; 4
    391a:	b6 95       	lsr	r27
    391c:	a7 95       	ror	r26
    391e:	97 95       	ror	r25
    3920:	87 95       	ror	r24
    3922:	5a 95       	dec	r21
    3924:	d1 f7       	brne	.-12     	; 0x391a <ProcessInput+0xe7e>
                        if (answer == 0) break;
    3926:	00 97       	sbiw	r24, 0x00	; 0
    3928:	a1 05       	cpc	r26, r1
    392a:	b1 05       	cpc	r27, r1
    392c:	51 f4       	brne	.+20     	; 0x3942 <ProcessInput+0xea6>
    392e:	2d e1       	ldi	r18, 0x1D	; 29
    3930:	a2 2e       	mov	r10, r18
    3932:	29 e3       	ldi	r18, 0x39	; 57
    3934:	b2 2e       	mov	r11, r18
    3936:	33 e0       	ldi	r19, 0x03	; 3
    3938:	73 2e       	mov	r7, r19
}

//
void SetResponse(uint8_t number, uint16_t address, uint16_t length, uint8_t type){
    reactStr[0][number]=address;
    reactStr[1][number]=length;
    393a:	88 24       	eor	r8, r8
    393c:	83 94       	inc	r8
    393e:	91 2c       	mov	r9, r1
    3940:	02 c0       	rjmp	.+4      	; 0x3946 <ProcessInput+0xeaa>

                    SetResponse(elements++, A_YOURPART, L_YOURPART, TEASER);
                    SetResponse(elements++, A_HEXPREFIX, L_HEXPREFIX, TEASER);
                    
                    //Set up sending out number
                    for (n=7; n>=0; --n) {
    3942:	da 94       	dec	r13
                        digit[n] = answer % 16;
                        answer /= 16;
                        if (answer == 0) break;
                    }
    3944:	e3 cf       	rjmp	.-58     	; 0x390c <ProcessInput+0xe70>
    3946:	b2 e0       	ldi	r27, 0x02	; 2
    3948:	ab 0e       	add	r10, r27
    394a:	b1 1c       	adc	r11, r1

                    for (; n<8; ++n) {
    394c:	e7 e0       	ldi	r30, 0x07	; 7
    394e:	ed 15       	cp	r30, r13
    3950:	08 f4       	brcc	.+2      	; 0x3954 <ProcessInput+0xeb8>
    3952:	9f c0       	rjmp	.+318    	; 0x3a92 <ProcessInput+0xff6>
                        SetResponse(elements++, A_DIGITS+digit[n], 1, TEASER);
    3954:	73 94       	inc	r7
    3956:	f7 01       	movw	r30, r14
    3958:	ed 0d       	add	r30, r13
    395a:	f1 1d       	adc	r31, r1
    return 0;
}

//
void SetResponse(uint8_t number, uint16_t address, uint16_t length, uint8_t type){
    reactStr[0][number]=address;
    395c:	80 81       	ld	r24, Z
    395e:	90 e0       	ldi	r25, 0x00	; 0
    3960:	86 53       	subi	r24, 0x36	; 54
    3962:	9b 48       	sbci	r25, 0x8B	; 139
    3964:	d5 01       	movw	r26, r10
    3966:	14 96       	adiw	r26, 0x04	; 4
    3968:	8d 93       	st	X+, r24
    396a:	9c 93       	st	X, r25
    396c:	15 97       	sbiw	r26, 0x05	; 5
    reactStr[1][number]=length;
    396e:	f5 01       	movw	r30, r10
    3970:	ec 5b       	subi	r30, 0xBC	; 188
    3972:	ff 4f       	sbci	r31, 0xFF	; 255
    3974:	80 82       	st	Z, r8
    3976:	91 82       	std	Z+1, r9	; 0x01
    reactStr[2][number]=type;
    3978:	e0 5c       	subi	r30, 0xC0	; 192
    397a:	ff 4f       	sbci	r31, 0xFF	; 255
    397c:	80 82       	st	Z, r8
    397e:	91 82       	std	Z+1, r9	; 0x01
                        if (answer == 0) break;
                    }

                    for (; n<8; ++n) {
                        SetResponse(elements++, A_DIGITS+digit[n], 1, TEASER);
                        UpdateState(actObj1.byteField[ACTION_STATE]);
    3980:	80 91 e6 38 	lds	r24, 0x38E6	; 0x8038e6 <actObj1.3995+0xa>
    3984:	0e 94 c7 0a 	call	0x158e	; 0x158e <UpdateState>
                        digit[n] = answer % 16;
                        answer /= 16;
                        if (answer == 0) break;
                    }

                    for (; n<8; ++n) {
    3988:	d3 94       	inc	r13
    398a:	dd cf       	rjmp	.-70     	; 0x3946 <ProcessInput+0xeaa>
    return 0;
}

//
void SetResponse(uint8_t number, uint16_t address, uint16_t length, uint8_t type){
    reactStr[0][number]=address;
    398c:	85 e2       	ldi	r24, 0x25	; 37
    398e:	95 e7       	ldi	r25, 0x75	; 117
    3990:	80 93 1f 39 	sts	0x391F, r24	; 0x80391f <reactStr+0x2>
    3994:	90 93 20 39 	sts	0x3920, r25	; 0x803920 <reactStr+0x3>
    reactStr[1][number]=length;
    3998:	8d e3       	ldi	r24, 0x3D	; 61
    399a:	90 e0       	ldi	r25, 0x00	; 0
    399c:	80 93 5f 39 	sts	0x395F, r24	; 0x80395f <reactStr+0x42>
    39a0:	90 93 60 39 	sts	0x3960, r25	; 0x803960 <reactStr+0x43>
    reactStr[2][number]=type;
    39a4:	81 e0       	ldi	r24, 0x01	; 1
    39a6:	90 e0       	ldi	r25, 0x00	; 0
    39a8:	80 93 9f 39 	sts	0x399F, r24	; 0x80399f <reactStr+0x82>
    39ac:	90 93 a0 39 	sts	0x39A0, r25	; 0x8039a0 <reactStr+0x83>
    39b0:	6e c0       	rjmp	.+220    	; 0x3a8e <ProcessInput+0xff2>
    39b2:	e0 91 2c 38 	lds	r30, 0x382C	; 0x80382c <currDepth>
                    SetResponse(elements++, A_BADOFFERING, L_BADOFFERING, TEASER);
                }
            
            //Other questions    
            } else if (specialPassed == 1) {
                PopulateObject(route[currDepth+1], &actObj1);
    39b6:	f0 e0       	ldi	r31, 0x00	; 0
    39b8:	ee 0f       	add	r30, r30
    39ba:	ff 1f       	adc	r31, r31
    39bc:	e1 52       	subi	r30, 0x21	; 33
    39be:	f6 4c       	sbci	r31, 0xC6	; 198
    39c0:	6c ed       	ldi	r22, 0xDC	; 220
    39c2:	78 e3       	ldi	r23, 0x38	; 56
                } else {
                    SetResponse(elements++, A_BADOFFERING, L_BADOFFERING, TEASER);
                }
            
            //Other questions    
            } else if (specialPassed == 1) {
    39c4:	81 30       	cpi	r24, 0x01	; 1
    39c6:	09 f0       	breq	.+2      	; 0x39ca <ProcessInput+0xf2e>
    39c8:	46 c0       	rjmp	.+140    	; 0x3a56 <ProcessInput+0xfba>
                PopulateObject(route[currDepth+1], &actObj1);
    39ca:	80 81       	ld	r24, Z
    39cc:	91 81       	ldd	r25, Z+1	; 0x01
    39ce:	0e 94 94 10 	call	0x2128	; 0x2128 <PopulateObject>
                if (CheckState(actObj1.byteField[ACTION_ACL])){
    39d2:	80 91 e3 38 	lds	r24, 0x38E3	; 0x8038e3 <actObj1.3995+0x7>
    39d6:	0e 94 d1 0a 	call	0x15a2	; 0x15a2 <CheckState>
    39da:	88 23       	and	r24, r24
    39dc:	01 f1       	breq	.+64     	; 0x3a1e <ProcessInput+0xf82>
                    SetResponse(elements++, actObj1.addrStr[ACTION_MSG], actObj1.lenStr[ACTION_MSG], GAME);
    39de:	80 91 02 39 	lds	r24, 0x3902	; 0x803902 <actObj1.3995+0x26>
    39e2:	90 91 03 39 	lds	r25, 0x3903	; 0x803903 <actObj1.3995+0x27>
    return 0;
}

//
void SetResponse(uint8_t number, uint16_t address, uint16_t length, uint8_t type){
    reactStr[0][number]=address;
    39e6:	20 91 f4 38 	lds	r18, 0x38F4	; 0x8038f4 <actObj1.3995+0x18>
    39ea:	30 91 f5 38 	lds	r19, 0x38F5	; 0x8038f5 <actObj1.3995+0x19>
    39ee:	20 93 1f 39 	sts	0x391F, r18	; 0x80391f <reactStr+0x2>
    39f2:	30 93 20 39 	sts	0x3920, r19	; 0x803920 <reactStr+0x3>
    reactStr[1][number]=length;
    39f6:	80 93 5f 39 	sts	0x395F, r24	; 0x80395f <reactStr+0x42>
    39fa:	90 93 60 39 	sts	0x3960, r25	; 0x803960 <reactStr+0x43>
    reactStr[2][number]=type;
    39fe:	10 92 9f 39 	sts	0x399F, r1	; 0x80399f <reactStr+0x82>
    3a02:	10 92 a0 39 	sts	0x39A0, r1	; 0x8039a0 <reactStr+0x83>
            //Other questions    
            } else if (specialPassed == 1) {
                PopulateObject(route[currDepth+1], &actObj1);
                if (CheckState(actObj1.byteField[ACTION_ACL])){
                    SetResponse(elements++, actObj1.addrStr[ACTION_MSG], actObj1.lenStr[ACTION_MSG], GAME);
                    effect = actObj1.effect[2];
    3a06:	80 91 06 39 	lds	r24, 0x3906	; 0x803906 <actObj1.3995+0x2a>
    3a0a:	90 e0       	ldi	r25, 0x00	; 0
    3a0c:	80 93 3a 38 	sts	0x383A, r24	; 0x80383a <effect>
    3a10:	90 93 3b 38 	sts	0x383B, r25	; 0x80383b <effect+0x1>
                    UpdateState(actObj1.byteField[ACTION_STATE]);
    3a14:	80 91 e6 38 	lds	r24, 0x38E6	; 0x8038e6 <actObj1.3995+0xa>
    3a18:	0e 94 c7 0a 	call	0x158e	; 0x158e <UpdateState>
    3a1c:	38 c0       	rjmp	.+112    	; 0x3a8e <ProcessInput+0xff2>
                } else {
                    SetResponse(elements++, actObj1.addrStr[ACTION_ACL_MSG], actObj1.lenStr[ACTION_ACL_MSG], GAME);
    3a1e:	80 91 00 39 	lds	r24, 0x3900	; 0x803900 <actObj1.3995+0x24>
    3a22:	90 91 01 39 	lds	r25, 0x3901	; 0x803901 <actObj1.3995+0x25>
    return 0;
}

//
void SetResponse(uint8_t number, uint16_t address, uint16_t length, uint8_t type){
    reactStr[0][number]=address;
    3a26:	20 91 f2 38 	lds	r18, 0x38F2	; 0x8038f2 <actObj1.3995+0x16>
    3a2a:	30 91 f3 38 	lds	r19, 0x38F3	; 0x8038f3 <actObj1.3995+0x17>
    3a2e:	20 93 1f 39 	sts	0x391F, r18	; 0x80391f <reactStr+0x2>
    3a32:	30 93 20 39 	sts	0x3920, r19	; 0x803920 <reactStr+0x3>
    reactStr[1][number]=length;
    3a36:	80 93 5f 39 	sts	0x395F, r24	; 0x80395f <reactStr+0x42>
    3a3a:	90 93 60 39 	sts	0x3960, r25	; 0x803960 <reactStr+0x43>
    reactStr[2][number]=type;
    3a3e:	10 92 9f 39 	sts	0x399F, r1	; 0x80399f <reactStr+0x82>
    3a42:	10 92 a0 39 	sts	0x39A0, r1	; 0x8039a0 <reactStr+0x83>
                    SetResponse(elements++, actObj1.addrStr[ACTION_MSG], actObj1.lenStr[ACTION_MSG], GAME);
                    effect = actObj1.effect[2];
                    UpdateState(actObj1.byteField[ACTION_STATE]);
                } else {
                    SetResponse(elements++, actObj1.addrStr[ACTION_ACL_MSG], actObj1.lenStr[ACTION_ACL_MSG], GAME);
                    effect = actObj1.effect[1];
    3a46:	80 91 05 39 	lds	r24, 0x3905	; 0x803905 <actObj1.3995+0x29>
    3a4a:	90 e0       	ldi	r25, 0x00	; 0
    3a4c:	80 93 3a 38 	sts	0x383A, r24	; 0x80383a <effect>
    3a50:	90 93 3b 38 	sts	0x383B, r25	; 0x80383b <effect+0x1>
    3a54:	1c c0       	rjmp	.+56     	; 0x3a8e <ProcessInput+0xff2>
                }

            } else {
                PopulateObject(route[currDepth+1], &actObj1);
    3a56:	80 81       	ld	r24, Z
    3a58:	91 81       	ldd	r25, Z+1	; 0x01
    3a5a:	0e 94 94 10 	call	0x2128	; 0x2128 <PopulateObject>
    return 0;
}

//
void SetResponse(uint8_t number, uint16_t address, uint16_t length, uint8_t type){
    reactStr[0][number]=address;
    3a5e:	8d e9       	ldi	r24, 0x9D	; 157
    3a60:	98 e7       	ldi	r25, 0x78	; 120
    3a62:	80 93 1f 39 	sts	0x391F, r24	; 0x80391f <reactStr+0x2>
    3a66:	90 93 20 39 	sts	0x3920, r25	; 0x803920 <reactStr+0x3>
    reactStr[1][number]=length;
    3a6a:	82 e1       	ldi	r24, 0x12	; 18
    3a6c:	90 e0       	ldi	r25, 0x00	; 0
    3a6e:	80 93 5f 39 	sts	0x395F, r24	; 0x80395f <reactStr+0x42>
    3a72:	90 93 60 39 	sts	0x3960, r25	; 0x803960 <reactStr+0x43>
    reactStr[2][number]=type;
    3a76:	81 e0       	ldi	r24, 0x01	; 1
    3a78:	90 e0       	ldi	r25, 0x00	; 0
    3a7a:	80 93 9f 39 	sts	0x399F, r24	; 0x80399f <reactStr+0x82>
    3a7e:	90 93 a0 39 	sts	0x39A0, r25	; 0x8039a0 <reactStr+0x83>
                }

            } else {
                PopulateObject(route[currDepth+1], &actObj1);
                SetResponse(elements++, A_INCORRECT, L_INCORRECT, TEASER);
                PunishmentTime = getClock();
    3a82:	0e 94 d8 0d 	call	0x1bb0	; 0x1bb0 <getClock>
    3a86:	80 93 09 39 	sts	0x3909, r24	; 0x803909 <PunishmentTime>
    3a8a:	90 93 0a 39 	sts	0x390A, r25	; 0x80390a <PunishmentTime+0x1>
                    effect = actObj1.effect[1];
                }

            } else {
                PopulateObject(route[currDepth+1], &actObj1);
                SetResponse(elements++, A_INCORRECT, L_INCORRECT, TEASER);
    3a8e:	82 e0       	ldi	r24, 0x02	; 2
    3a90:	78 2e       	mov	r7, r24
                PunishmentTime = getClock();
            }
            specialInput[0] = 0;
    3a92:	10 92 0c 39 	sts	0x390C, r1	; 0x80390c <specialInput>
    return 0;
}

//
void SetResponse(uint8_t number, uint16_t address, uint16_t length, uint8_t type){
    reactStr[0][number]=address;
    3a96:	8b e5       	ldi	r24, 0x5B	; 91
    3a98:	9a e7       	ldi	r25, 0x7A	; 122
    3a9a:	80 93 1d 39 	sts	0x391D, r24	; 0x80391d <reactStr>
    3a9e:	90 93 1e 39 	sts	0x391E, r25	; 0x80391e <reactStr+0x1>
    reactStr[1][number]=length;
    3aa2:	82 e0       	ldi	r24, 0x02	; 2
    3aa4:	90 e0       	ldi	r25, 0x00	; 0
    3aa6:	80 93 5d 39 	sts	0x395D, r24	; 0x80395d <reactStr+0x40>
    3aaa:	90 93 5e 39 	sts	0x395E, r25	; 0x80395e <reactStr+0x41>
    reactStr[2][number]=type;
    3aae:	81 e0       	ldi	r24, 0x01	; 1
    3ab0:	90 e0       	ldi	r25, 0x00	; 0
    3ab2:	80 93 9d 39 	sts	0x399D, r24	; 0x80399d <reactStr+0x80>
    3ab6:	90 93 9e 39 	sts	0x399E, r25	; 0x80399e <reactStr+0x81>
               
        }
            
        //Input handled
        SetResponse(0, A_LF, 2, TEASER);
        if (specialInput[0]) responseList = elements; else responseList = SetStandardResponse(elements);
    3aba:	80 91 0c 39 	lds	r24, 0x390C	; 0x80390c <specialInput>
    3abe:	88 23       	and	r24, r24
    3ac0:	19 f0       	breq	.+6      	; 0x3ac8 <ProcessInput+0x102c>
    3ac2:	70 92 1c 39 	sts	0x391C, r7	; 0x80391c <responseList>
    3ac6:	9b c0       	rjmp	.+310    	; 0x3bfe <ProcessInput+0x1162>
    3ac8:	87 2d       	mov	r24, r7
    3aca:	12 c0       	rjmp	.+36     	; 0x3af0 <ProcessInput+0x1054>
    return 0;
}

//
void SetResponse(uint8_t number, uint16_t address, uint16_t length, uint8_t type){
    reactStr[0][number]=address;
    3acc:	8b e5       	ldi	r24, 0x5B	; 91
    3ace:	9a e7       	ldi	r25, 0x7A	; 122
    3ad0:	80 93 1d 39 	sts	0x391D, r24	; 0x80391d <reactStr>
    3ad4:	90 93 1e 39 	sts	0x391E, r25	; 0x80391e <reactStr+0x1>
    reactStr[1][number]=length;
    3ad8:	82 e0       	ldi	r24, 0x02	; 2
    3ada:	90 e0       	ldi	r25, 0x00	; 0
    3adc:	80 93 5d 39 	sts	0x395D, r24	; 0x80395d <reactStr+0x40>
    3ae0:	90 93 5e 39 	sts	0x395E, r25	; 0x80395e <reactStr+0x41>
    reactStr[2][number]=type;
    3ae4:	81 e0       	ldi	r24, 0x01	; 1
    3ae6:	90 e0       	ldi	r25, 0x00	; 0
    3ae8:	80 93 9d 39 	sts	0x399D, r24	; 0x80399d <reactStr+0x80>
    3aec:	90 93 9e 39 	sts	0x399E, r25	; 0x80399e <reactStr+0x81>
        SetResponse(0, A_LF, 2, TEASER);
        if (specialInput[0]) responseList = elements; else responseList = SetStandardResponse(elements);

    } else {
        SetResponse(0, A_LF, 2, TEASER);
        responseList = SetStandardResponse(1);
    3af0:	0e 94 18 10 	call	0x2030	; 0x2030 <SetStandardResponse>
    3af4:	80 93 1c 39 	sts	0x391C, r24	; 0x80391c <responseList>
    3af8:	82 c0       	rjmp	.+260    	; 0x3bfe <ProcessInput+0x1162>
    return 0;
}

//
void SetResponse(uint8_t number, uint16_t address, uint16_t length, uint8_t type){
    reactStr[0][number]=address;
    3afa:	83 ed       	ldi	r24, 0xD3	; 211
    3afc:	99 e7       	ldi	r25, 0x79	; 121
    3afe:	92 cd       	rjmp	.-1244   	; 0x3624 <ProcessInput+0xb88>

        //Drop item if in inventory
        if (data[0] == 'd') {
            if ((inventory[0] == 0)&&(inventory[1] == 0)){
                SetResponse(elements++, A_EMPTYHANDS, L_EMPTYHANDS, TEASER);
            } else if (inputLen != 2) {
    3b00:	b2 e0       	ldi	r27, 0x02	; 2
    3b02:	fb 12       	cpse	r15, r27
    3b04:	0c 94 7d 15 	jmp	0x2afa	; 0x2afa <ProcessInput+0x5e>
                SetResponse(elements++, A_NOTPOSSIBLE, L_NOTPOSSIBLE, TEASER);
            } else {
                for (uint8_t x=0; x<2; ++x) {
                    if (inventory[x]) {
                        if (CheckLetter(inventory[x], data[1])) {
    3b08:	d8 01       	movw	r26, r16
    3b0a:	11 96       	adiw	r26, 0x01	; 1
    3b0c:	6c 91       	ld	r22, X
    3b0e:	0e 94 0b 11 	call	0x2216	; 0x2216 <CheckLetter>
    3b12:	88 23       	and	r24, r24
    3b14:	09 f4       	brne	.+2      	; 0x3b18 <ProcessInput+0x107c>
    3b16:	5b c0       	rjmp	.+182    	; 0x3bce <ProcessInput+0x1132>
                SetResponse(elements++, A_EMPTYHANDS, L_EMPTYHANDS, TEASER);
            } else if (inputLen != 2) {
                SetResponse(elements++, A_NOTPOSSIBLE, L_NOTPOSSIBLE, TEASER);
            } else {
                for (uint8_t x=0; x<2; ++x) {
                    if (inventory[x]) {
    3b18:	80 e0       	ldi	r24, 0x00	; 0
    3b1a:	90 e0       	ldi	r25, 0x00	; 0
                        if (CheckLetter(inventory[x], data[1])) {
                            PopulateObject(inventory[x], &actObj1);
    3b1c:	88 0f       	add	r24, r24
    3b1e:	99 1f       	adc	r25, r25
    3b20:	9c 01       	movw	r18, r24
    3b22:	22 5c       	subi	r18, 0xC2	; 194
    3b24:	37 4c       	sbci	r19, 0xC7	; 199
    3b26:	79 01       	movw	r14, r18
    3b28:	6c ed       	ldi	r22, 0xDC	; 220
    3b2a:	78 e3       	ldi	r23, 0x38	; 56
    3b2c:	d9 01       	movw	r26, r18
    3b2e:	8d 91       	ld	r24, X+
    3b30:	9c 91       	ld	r25, X
    3b32:	0e 94 94 10 	call	0x2128	; 0x2128 <PopulateObject>
    return 0;
}

//
void SetResponse(uint8_t number, uint16_t address, uint16_t length, uint8_t type){
    reactStr[0][number]=address;
    3b36:	83 ed       	ldi	r24, 0xD3	; 211
    3b38:	97 e7       	ldi	r25, 0x77	; 119
    3b3a:	80 93 1f 39 	sts	0x391F, r24	; 0x80391f <reactStr+0x2>
    3b3e:	90 93 20 39 	sts	0x3920, r25	; 0x803920 <reactStr+0x3>
    reactStr[1][number]=length;
    3b42:	80 e1       	ldi	r24, 0x10	; 16
    3b44:	90 e0       	ldi	r25, 0x00	; 0
    3b46:	80 93 5f 39 	sts	0x395F, r24	; 0x80395f <reactStr+0x42>
    3b4a:	90 93 60 39 	sts	0x3960, r25	; 0x803960 <reactStr+0x43>
    reactStr[2][number]=type;
    3b4e:	81 e0       	ldi	r24, 0x01	; 1
    3b50:	90 e0       	ldi	r25, 0x00	; 0
    3b52:	80 93 9f 39 	sts	0x399F, r24	; 0x80399f <reactStr+0x82>
    3b56:	90 93 a0 39 	sts	0x39A0, r25	; 0x8039a0 <reactStr+0x83>
                for (uint8_t x=0; x<2; ++x) {
                    if (inventory[x]) {
                        if (CheckLetter(inventory[x], data[1])) {
                            PopulateObject(inventory[x], &actObj1);
                            SetResponse(elements++, A_DROPPING, L_DROPPING, TEASER);
                            SetResponse(elements++, actObj1.addrStr[NAME], actObj1.lenStr[NAME], GAME);
    3b5a:	20 91 f6 38 	lds	r18, 0x38F6	; 0x8038f6 <actObj1.3995+0x1a>
    3b5e:	30 91 f7 38 	lds	r19, 0x38F7	; 0x8038f7 <actObj1.3995+0x1b>
    return 0;
}

//
void SetResponse(uint8_t number, uint16_t address, uint16_t length, uint8_t type){
    reactStr[0][number]=address;
    3b62:	40 91 e8 38 	lds	r20, 0x38E8	; 0x8038e8 <actObj1.3995+0xc>
    3b66:	50 91 e9 38 	lds	r21, 0x38E9	; 0x8038e9 <actObj1.3995+0xd>
    3b6a:	40 93 21 39 	sts	0x3921, r20	; 0x803921 <reactStr+0x4>
    3b6e:	50 93 22 39 	sts	0x3922, r21	; 0x803922 <reactStr+0x5>
    reactStr[1][number]=length;
    3b72:	20 93 61 39 	sts	0x3961, r18	; 0x803961 <reactStr+0x44>
    3b76:	30 93 62 39 	sts	0x3962, r19	; 0x803962 <reactStr+0x45>
    reactStr[2][number]=type;
    3b7a:	10 92 a1 39 	sts	0x39A1, r1	; 0x8039a1 <reactStr+0x84>
    3b7e:	10 92 a2 39 	sts	0x39A2, r1	; 0x8039a2 <reactStr+0x85>
    return 0;
}

//
void SetResponse(uint8_t number, uint16_t address, uint16_t length, uint8_t type){
    reactStr[0][number]=address;
    3b82:	2b e5       	ldi	r18, 0x5B	; 91
    3b84:	3a e7       	ldi	r19, 0x7A	; 122
    3b86:	20 93 23 39 	sts	0x3923, r18	; 0x803923 <reactStr+0x6>
    3b8a:	30 93 24 39 	sts	0x3924, r19	; 0x803924 <reactStr+0x7>
    reactStr[1][number]=length;
    3b8e:	22 e0       	ldi	r18, 0x02	; 2
    3b90:	30 e0       	ldi	r19, 0x00	; 0
    3b92:	20 93 63 39 	sts	0x3963, r18	; 0x803963 <reactStr+0x46>
    3b96:	30 93 64 39 	sts	0x3964, r19	; 0x803964 <reactStr+0x47>
    reactStr[2][number]=type;
    3b9a:	80 93 a3 39 	sts	0x39A3, r24	; 0x8039a3 <reactStr+0x86>
    3b9e:	90 93 a4 39 	sts	0x39A4, r25	; 0x8039a4 <reactStr+0x87>
    return 0;
}

//
void SetResponse(uint8_t number, uint16_t address, uint16_t length, uint8_t type){
    reactStr[0][number]=address;
    3ba2:	26 e9       	ldi	r18, 0x96	; 150
    3ba4:	37 e7       	ldi	r19, 0x77	; 119
    3ba6:	20 93 25 39 	sts	0x3925, r18	; 0x803925 <reactStr+0x8>
    3baa:	30 93 26 39 	sts	0x3926, r19	; 0x803926 <reactStr+0x9>
    reactStr[1][number]=length;
    3bae:	2d e3       	ldi	r18, 0x3D	; 61
    3bb0:	30 e0       	ldi	r19, 0x00	; 0
    3bb2:	20 93 65 39 	sts	0x3965, r18	; 0x803965 <reactStr+0x48>
    3bb6:	30 93 66 39 	sts	0x3966, r19	; 0x803966 <reactStr+0x49>
    reactStr[2][number]=type;
    3bba:	80 93 a5 39 	sts	0x39A5, r24	; 0x8039a5 <reactStr+0x88>
    3bbe:	90 93 a6 39 	sts	0x39A6, r25	; 0x8039a6 <reactStr+0x89>
                            PopulateObject(inventory[x], &actObj1);
                            SetResponse(elements++, A_DROPPING, L_DROPPING, TEASER);
                            SetResponse(elements++, actObj1.addrStr[NAME], actObj1.lenStr[NAME], GAME);
                            SetResponse(elements++, A_LF, 2, TEASER);
                            SetResponse(elements++, A_RETURNING, L_RETURNING, TEASER);
                            inventory[x] = 0;
    3bc2:	f7 01       	movw	r30, r14
    3bc4:	10 82       	st	Z, r1
    3bc6:	11 82       	std	Z+1, r1	; 0x01
                        if (CheckLetter(inventory[x], data[1])) {
                            PopulateObject(inventory[x], &actObj1);
                            SetResponse(elements++, A_DROPPING, L_DROPPING, TEASER);
                            SetResponse(elements++, actObj1.addrStr[NAME], actObj1.lenStr[NAME], GAME);
                            SetResponse(elements++, A_LF, 2, TEASER);
                            SetResponse(elements++, A_RETURNING, L_RETURNING, TEASER);
    3bc8:	f5 e0       	ldi	r31, 0x05	; 5
    3bca:	7f 2e       	mov	r7, r31
                            inventory[x] = 0;
                            break;
    3bcc:	64 cf       	rjmp	.-312    	; 0x3a96 <ProcessInput+0xffa>
                SetResponse(elements++, A_EMPTYHANDS, L_EMPTYHANDS, TEASER);
            } else if (inputLen != 2) {
                SetResponse(elements++, A_NOTPOSSIBLE, L_NOTPOSSIBLE, TEASER);
            } else {
                for (uint8_t x=0; x<2; ++x) {
                    if (inventory[x]) {
    3bce:	80 91 40 38 	lds	r24, 0x3840	; 0x803840 <inventory+0x2>
    3bd2:	90 91 41 38 	lds	r25, 0x3841	; 0x803841 <inventory+0x3>
    3bd6:	00 97       	sbiw	r24, 0x00	; 0
    3bd8:	49 f0       	breq	.+18     	; 0x3bec <ProcessInput+0x1150>
                        if (CheckLetter(inventory[x], data[1])) {
    3bda:	f8 01       	movw	r30, r16
    3bdc:	61 81       	ldd	r22, Z+1	; 0x01
    3bde:	0e 94 0b 11 	call	0x2216	; 0x2216 <CheckLetter>
    3be2:	88 23       	and	r24, r24
    3be4:	19 f0       	breq	.+6      	; 0x3bec <ProcessInput+0x1150>
                SetResponse(elements++, A_EMPTYHANDS, L_EMPTYHANDS, TEASER);
            } else if (inputLen != 2) {
                SetResponse(elements++, A_NOTPOSSIBLE, L_NOTPOSSIBLE, TEASER);
            } else {
                for (uint8_t x=0; x<2; ++x) {
                    if (inventory[x]) {
    3be6:	81 e0       	ldi	r24, 0x01	; 1
    3be8:	90 e0       	ldi	r25, 0x00	; 0
    3bea:	98 cf       	rjmp	.-208    	; 0x3b1c <ProcessInput+0x1080>
    return 0;
}

//
void SetResponse(uint8_t number, uint16_t address, uint16_t length, uint8_t type){
    reactStr[0][number]=address;
    3bec:	83 e6       	ldi	r24, 0x63	; 99
    3bee:	99 e7       	ldi	r25, 0x79	; 121
    3bf0:	80 93 1f 39 	sts	0x391F, r24	; 0x80391f <reactStr+0x2>
    3bf4:	90 93 20 39 	sts	0x3920, r25	; 0x803920 <reactStr+0x3>
    reactStr[1][number]=length;
    3bf8:	81 e2       	ldi	r24, 0x21	; 33
    3bfa:	90 e0       	ldi	r25, 0x00	; 0
    3bfc:	13 c8       	rjmp	.-4058   	; 0x2c24 <ProcessInput+0x188>
    } else {
        SetResponse(0, A_LF, 2, TEASER);
        responseList = SetStandardResponse(1);
    }

    data[0] = 0;
    3bfe:	d8 01       	movw	r26, r16
    3c00:	1c 92       	st	X, r1
    serRxDone = 0;
    3c02:	10 92 44 38 	sts	0x3844, r1	; 0x803844 <serRxDone>
    RXCNT = 0;    
    3c06:	1d ba       	out	0x1d, r1	; 29
    return 0;
}
    3c08:	80 e0       	ldi	r24, 0x00	; 0
    3c0a:	28 96       	adiw	r28, 0x08	; 8
    3c0c:	cd bf       	out	0x3d, r28	; 61
    3c0e:	de bf       	out	0x3e, r29	; 62
    3c10:	df 91       	pop	r29
    3c12:	cf 91       	pop	r28
    3c14:	1f 91       	pop	r17
    3c16:	0f 91       	pop	r16
    3c18:	ff 90       	pop	r15
    3c1a:	ef 90       	pop	r14
    3c1c:	df 90       	pop	r13
    3c1e:	cf 90       	pop	r12
    3c20:	bf 90       	pop	r11
    3c22:	af 90       	pop	r10
    3c24:	9f 90       	pop	r9
    3c26:	8f 90       	pop	r8
    3c28:	7f 90       	pop	r7
    3c2a:	6f 90       	pop	r6
    3c2c:	5f 90       	pop	r5
    3c2e:	08 95       	ret

00003c30 <TextAdventure>:


//MAIN GAME STRUCTURE
uint8_t TextAdventure(){
    3c30:	cf 93       	push	r28
    static uint8_t serInput[RXLEN];
    uint16_t PunishmentCount;
    
    /* Count down PunishmentTime on WING LEDs */
    if (PunishmentTime != 0) {
    3c32:	80 91 09 39 	lds	r24, 0x3909	; 0x803909 <PunishmentTime>
    3c36:	90 91 0a 39 	lds	r25, 0x390A	; 0x80390a <PunishmentTime+0x1>
    3c3a:	89 2b       	or	r24, r25
    3c3c:	09 f1       	breq	.+66     	; 0x3c80 <TextAdventure+0x50>
        PunishmentCount = getClock();
    3c3e:	0e 94 d8 0d 	call	0x1bb0	; 0x1bb0 <getClock>
        if (PunishmentCount < PunishmentTime)
    3c42:	20 91 09 39 	lds	r18, 0x3909	; 0x803909 <PunishmentTime>
    3c46:	30 91 0a 39 	lds	r19, 0x390A	; 0x80390a <PunishmentTime+0x1>
    3c4a:	82 17       	cp	r24, r18
    3c4c:	93 07       	cpc	r25, r19
    3c4e:	08 f4       	brcc	.+2      	; 0x3c52 <TextAdventure+0x22>
            PunishmentCount += 256 * 60;
    3c50:	94 5c       	subi	r25, 0xC4	; 196
        PunishmentCount -= PunishmentTime;
    3c52:	ac 01       	movw	r20, r24
    3c54:	42 1b       	sub	r20, r18
    3c56:	53 0b       	sbc	r21, r19
    3c58:	9a 01       	movw	r18, r20
        if (PunishmentCount > 10) {
    3c5a:	4b 30       	cpi	r20, 0x0B	; 11
    3c5c:	51 05       	cpc	r21, r1
    3c5e:	30 f0       	brcs	.+12     	; 0x3c6c <TextAdventure+0x3c>
            PunishmentTime = 0;
    3c60:	10 92 09 39 	sts	0x3909, r1	; 0x803909 <PunishmentTime>
    3c64:	10 92 0a 39 	sts	0x390A, r1	; 0x80390a <PunishmentTime+0x1>
            PunishmentCount = 10;
    3c68:	2a e0       	ldi	r18, 0x0A	; 10
    3c6a:	30 e0       	ldi	r19, 0x00	; 0
        }
        if (gameNow == TEXT ) {
    3c6c:	80 91 3c 38 	lds	r24, 0x383C	; 0x80383c <gameNow>
    3c70:	81 11       	cpse	r24, r1
    3c72:	06 c0       	rjmp	.+12     	; 0x3c80 <TextAdventure+0x50>
            WingBar(10-PunishmentCount,5-PunishmentCount);
    3c74:	65 e0       	ldi	r22, 0x05	; 5
    3c76:	62 1b       	sub	r22, r18
    3c78:	8a e0       	ldi	r24, 0x0A	; 10
    3c7a:	82 1b       	sub	r24, r18
    3c7c:	0e 94 aa 0b 	call	0x1754	; 0x1754 <WingBar>
        }
    }

    //Still sending data to serial?
    if (CheckSend()) return 1;
    3c80:	0e 94 ea 11 	call	0x23d4	; 0x23d4 <CheckSend>
    3c84:	88 23       	and	r24, r24
    3c86:	11 f0       	breq	.+4      	; 0x3c8c <TextAdventure+0x5c>
    3c88:	c1 e0       	ldi	r28, 0x01	; 1
    3c8a:	18 c0       	rjmp	.+48     	; 0x3cbc <TextAdventure+0x8c>

    //Not sending? Process next response part to send, if any.
    if (CheckResponse()) return 1;        
    3c8c:	0e 94 58 12 	call	0x24b0	; 0x24b0 <CheckResponse>
    3c90:	c8 2f       	mov	r28, r24
    3c92:	81 11       	cpse	r24, r1
    3c94:	f9 cf       	rjmp	.-14     	; 0x3c88 <TextAdventure+0x58>

    if (PunishmentTime == 0) {
    3c96:	80 91 09 39 	lds	r24, 0x3909	; 0x803909 <PunishmentTime>
    3c9a:	90 91 0a 39 	lds	r25, 0x390A	; 0x80390a <PunishmentTime+0x1>
    3c9e:	89 2b       	or	r24, r25
    3ca0:	69 f4       	brne	.+26     	; 0x3cbc <TextAdventure+0x8c>
        //No responses to send, check if there is user input.
        if (CheckInput(&serInput[0])) return 2; 
    3ca2:	80 e7       	ldi	r24, 0x70	; 112
    3ca4:	98 e3       	ldi	r25, 0x38	; 56
    3ca6:	0e 94 9f 12 	call	0x253e	; 0x253e <CheckInput>
    3caa:	c8 2f       	mov	r28, r24
    3cac:	81 11       	cpse	r24, r1
    3cae:	05 c0       	rjmp	.+10     	; 0x3cba <TextAdventure+0x8a>

        //Input found, process and save (changes only)
        ProcessInput(&serInput[0]);
    3cb0:	80 e7       	ldi	r24, 0x70	; 112
    3cb2:	98 e3       	ldi	r25, 0x38	; 56
    3cb4:	0e 94 4e 15 	call	0x2a9c	; 0x2a9c <ProcessInput>
    3cb8:	01 c0       	rjmp	.+2      	; 0x3cbc <TextAdventure+0x8c>
    //Not sending? Process next response part to send, if any.
    if (CheckResponse()) return 1;        

    if (PunishmentTime == 0) {
        //No responses to send, check if there is user input.
        if (CheckInput(&serInput[0])) return 2; 
    3cba:	c2 e0       	ldi	r28, 0x02	; 2
        //Input found, process and save (changes only)
        ProcessInput(&serInput[0]);
    }

    return 0;
}
    3cbc:	8c 2f       	mov	r24, r28
    3cbe:	cf 91       	pop	r28
    3cc0:	08 95       	ret

00003cc2 <main>:


//This is where it begins, inits first and main program in while(1) loop.
int main(void)
{
    Setup();
    3cc2:	0e 94 88 05 	call	0xb10	; 0xb10 <Setup>

    SerSpeed(0xff);
    3cc6:	8f ef       	ldi	r24, 0xFF	; 255
    3cc8:	0e 94 18 09 	call	0x1230	; 0x1230 <SerSpeed>
    3ccc:	a2 eb       	ldi	r26, 0xB2	; 178
    3cce:	be eb       	ldi	r27, 0xBE	; 190
    ////Turn on LEDs on low setting to check for interrupt glitches

    //"Hacker"
    for (uint8_t n=0; n<6; n++){
        iLED[HCKR[R][n]] = 1;
    3cd0:	81 e0       	ldi	r24, 0x01	; 1
    3cd2:	ed 91       	ld	r30, X+
    3cd4:	f0 e0       	ldi	r31, 0x00	; 0
    3cd6:	e4 53       	subi	r30, 0x34	; 52
    3cd8:	f5 4c       	sbci	r31, 0xC5	; 197
    3cda:	80 83       	st	Z, r24
        iLED[HCKR[G][n]] = 1;
    3cdc:	15 96       	adiw	r26, 0x05	; 5
    3cde:	ec 91       	ld	r30, X
    3ce0:	15 97       	sbiw	r26, 0x05	; 5
    3ce2:	f0 e0       	ldi	r31, 0x00	; 0
    3ce4:	e4 53       	subi	r30, 0x34	; 52
    3ce6:	f5 4c       	sbci	r31, 0xC5	; 197
    3ce8:	80 83       	st	Z, r24

    SerSpeed(0xff);
    ////Turn on LEDs on low setting to check for interrupt glitches

    //"Hacker"
    for (uint8_t n=0; n<6; n++){
    3cea:	2e eb       	ldi	r18, 0xBE	; 190
    3cec:	a8 3b       	cpi	r26, 0xB8	; 184
    3cee:	b2 07       	cpc	r27, r18
    3cf0:	81 f7       	brne	.-32     	; 0x3cd2 <main+0x10>
    3cf2:	e4 ea       	ldi	r30, 0xA4	; 164
    3cf4:	fe eb       	ldi	r31, 0xBE	; 190
        iLED[HCKR[G][n]] = 1;
    }

    //"Wings"
    for (uint8_t n=0; n<5; n++){
        iLED[WING[L][n]] = 1;
    3cf6:	91 e0       	ldi	r25, 0x01	; 1
    3cf8:	ef 01       	movw	r28, r30
    3cfa:	a5 81       	ldd	r26, Z+5	; 0x05
    3cfc:	b0 e0       	ldi	r27, 0x00	; 0
    3cfe:	a4 53       	subi	r26, 0x34	; 52
    3d00:	b5 4c       	sbci	r27, 0xC5	; 197
    3d02:	81 e0       	ldi	r24, 0x01	; 1
    3d04:	9c 93       	st	X, r25
    3d06:	31 96       	adiw	r30, 0x01	; 1
        iLED[WING[R][n]] = 1;
    3d08:	a8 81       	ld	r26, Y
    3d0a:	b0 e0       	ldi	r27, 0x00	; 0
    3d0c:	a4 53       	subi	r26, 0x34	; 52
    3d0e:	b5 4c       	sbci	r27, 0xC5	; 197
    3d10:	9c 93       	st	X, r25
        iLED[HCKR[R][n]] = 1;
        iLED[HCKR[G][n]] = 1;
    }

    //"Wings"
    for (uint8_t n=0; n<5; n++){
    3d12:	2e eb       	ldi	r18, 0xBE	; 190
    3d14:	e9 3a       	cpi	r30, 0xA9	; 169
    3d16:	f2 07       	cpc	r31, r18
    3d18:	79 f7       	brne	.-34     	; 0x3cf8 <main+0x36>
        iLED[WING[L][n]] = 1;
        iLED[WING[R][n]] = 1;
    }

    //"Others"
    iLED[EYE[G][R]] = 1;
    3d1a:	e0 91 b0 be 	lds	r30, 0xBEB0	; 0x80beb0 <__bss_end+0x8394>
    3d1e:	f0 e0       	ldi	r31, 0x00	; 0
    3d20:	e4 53       	subi	r30, 0x34	; 52
    3d22:	f5 4c       	sbci	r31, 0xC5	; 197
    3d24:	80 83       	st	Z, r24
    iLED[EYE[G][L]] = 1;
    3d26:	e0 91 b1 be 	lds	r30, 0xBEB1	; 0x80beb1 <__bss_end+0x8395>
    3d2a:	f0 e0       	ldi	r31, 0x00	; 0
    3d2c:	e4 53       	subi	r30, 0x34	; 52
    3d2e:	f5 4c       	sbci	r31, 0xC5	; 197
    3d30:	80 83       	st	Z, r24
    iLED[EYE[R][R]] = 1;
    3d32:	e0 91 ae be 	lds	r30, 0xBEAE	; 0x80beae <__bss_end+0x8392>
    3d36:	f0 e0       	ldi	r31, 0x00	; 0
    3d38:	e4 53       	subi	r30, 0x34	; 52
    3d3a:	f5 4c       	sbci	r31, 0xC5	; 197
    3d3c:	80 83       	st	Z, r24
    iLED[EYE[R][L]] = 1;
    3d3e:	e0 91 af be 	lds	r30, 0xBEAF	; 0x80beaf <__bss_end+0x8393>
    3d42:	f0 e0       	ldi	r31, 0x00	; 0
    3d44:	e4 53       	subi	r30, 0x34	; 52
    3d46:	f5 4c       	sbci	r31, 0xC5	; 197
    3d48:	80 83       	st	Z, r24
    iLED[SCARAB[R]] = 1;
    3d4a:	e0 91 a2 be 	lds	r30, 0xBEA2	; 0x80bea2 <__bss_end+0x8386>
    3d4e:	f0 e0       	ldi	r31, 0x00	; 0
    3d50:	e4 53       	subi	r30, 0x34	; 52
    3d52:	f5 4c       	sbci	r31, 0xC5	; 197
    3d54:	80 83       	st	Z, r24
    iLED[SCARAB[G]] = 1;
    3d56:	e0 91 a3 be 	lds	r30, 0xBEA3	; 0x80bea3 <__bss_end+0x8387>
    3d5a:	f0 e0       	ldi	r31, 0x00	; 0
    3d5c:	e4 53       	subi	r30, 0x34	; 52
    3d5e:	f5 4c       	sbci	r31, 0xC5	; 197
    3d60:	80 83       	st	Z, r24
    iLED[BADGER] = 1;
    3d62:	e0 91 a1 be 	lds	r30, 0xBEA1	; 0x80bea1 <__bss_end+0x8385>
    3d66:	f0 e0       	ldi	r31, 0x00	; 0
    3d68:	e4 53       	subi	r30, 0x34	; 52
    3d6a:	f5 4c       	sbci	r31, 0xC5	; 197
    3d6c:	80 83       	st	Z, r24
    iLED[CAT] = 1;
    3d6e:	e0 91 a0 be 	lds	r30, 0xBEA0	; 0x80bea0 <__bss_end+0x8384>
    3d72:	f0 e0       	ldi	r31, 0x00	; 0
    3d74:	e4 53       	subi	r30, 0x34	; 52
    3d76:	f5 4c       	sbci	r31, 0xC5	; 197
    3d78:	80 83       	st	Z, r24

    LoadGameState();
    3d7a:	0e 94 18 0b 	call	0x1630	; 0x1630 <LoadGameState>
    effect = 0x013f;
    3d7e:	8f e3       	ldi	r24, 0x3F	; 63
    3d80:	91 e0       	ldi	r25, 0x01	; 1
    3d82:	80 93 3a 38 	sts	0x383A, r24	; 0x80383a <effect>
    3d86:	90 93 3b 38 	sts	0x383B, r25	; 0x80383b <effect+0x1>
            SaveGameState();

            //Check light sensor status (added hysteresis to preserve writing cycles to internal EEPROM)
            if (adcPhot < 10) WriteStatusBit(116, 1);
            if (adcPhot > 100) WriteStatusBit(116, 0);
            dimValue = 0 - QSINE[31-(adcPhot>>7)];
    3d8a:	cf e1       	ldi	r28, 0x1F	; 31
    3d8c:	d0 e0       	ldi	r29, 0x00	; 0

    LoadGameState();
    effect = 0x013f;

    while (TRUE) {
        if (GenerateAudio()) {
    3d8e:	0e 94 a1 0c 	call	0x1942	; 0x1942 <GenerateAudio>
    3d92:	88 23       	and	r24, r24
    3d94:	e1 f3       	breq	.-8      	; 0x3d8e <main+0xcc>
            buttonState = CheckButtons(buttonState);
    3d96:	80 91 09 38 	lds	r24, 0x3809	; 0x803809 <buttonState>
    3d9a:	0e 94 47 09 	call	0x128e	; 0x128e <CheckButtons>
    3d9e:	80 93 09 38 	sts	0x3809, r24	; 0x803809 <buttonState>
            buttonMark = 0;
    3da2:	10 92 42 38 	sts	0x3842, r1	; 0x803842 <buttonMark>

            if (VREF_CTRLA == 0x12) SelectAuIn(); else SelectTSens();
    3da6:	80 91 a0 00 	lds	r24, 0x00A0	; 0x8000a0 <__TEXT_REGION_LENGTH__+0x7000a0>
    3daa:	82 31       	cpi	r24, 0x12	; 18
    3dac:	19 f4       	brne	.+6      	; 0x3db4 <main+0xf2>
    3dae:	0e 94 38 09 	call	0x1270	; 0x1270 <SelectAuIn>
    3db2:	02 c0       	rjmp	.+4      	; 0x3db8 <main+0xf6>
    3db4:	0e 94 29 09 	call	0x1252	; 0x1252 <SelectTSens>

            GenerateBlinks();
    3db8:	0e 94 e8 0b 	call	0x17d0	; 0x17d0 <GenerateBlinks>

            //Main game, to complete: Finish sub-game MagnetMaze and MakeFriends too.
            TextAdventure();
    3dbc:	39 df       	rcall	.-398    	; 0x3c30 <TextAdventure>

            //Other games & user interaction checks
            MagnetMaze();
    3dbe:	0e 94 7c 04 	call	0x8f8	; 0x8f8 <MagnetMaze>
            LanyardCode();
    3dc2:	0e 94 31 03 	call	0x662	; 0x662 <LanyardCode>
            BastetDictates();
    3dc6:	0e 94 5f 0e 	call	0x1cbe	; 0x1cbe <BastetDictates>
            MakeFriends();
    3dca:	0e 94 7a 00 	call	0xf4	; 0xf4 <MakeFriends>

            //Save progress
            SaveGameState();
    3dce:	0e 94 26 0a 	call	0x144c	; 0x144c <SaveGameState>

            //Check light sensor status (added hysteresis to preserve writing cycles to internal EEPROM)
            if (adcPhot < 10) WriteStatusBit(116, 1);
    3dd2:	80 91 bf 3a 	lds	r24, 0x3ABF	; 0x803abf <adcPhot>
    3dd6:	90 91 c0 3a 	lds	r25, 0x3AC0	; 0x803ac0 <adcPhot+0x1>
    3dda:	0a 97       	sbiw	r24, 0x0a	; 10
    3ddc:	20 f4       	brcc	.+8      	; 0x3de6 <main+0x124>
    3dde:	61 e0       	ldi	r22, 0x01	; 1
    3de0:	84 e7       	ldi	r24, 0x74	; 116
    3de2:	0e 94 ad 0a 	call	0x155a	; 0x155a <WriteStatusBit>
            if (adcPhot > 100) WriteStatusBit(116, 0);
    3de6:	80 91 bf 3a 	lds	r24, 0x3ABF	; 0x803abf <adcPhot>
    3dea:	90 91 c0 3a 	lds	r25, 0x3AC0	; 0x803ac0 <adcPhot+0x1>
    3dee:	85 36       	cpi	r24, 0x65	; 101
    3df0:	91 05       	cpc	r25, r1
    3df2:	20 f0       	brcs	.+8      	; 0x3dfc <main+0x13a>
    3df4:	60 e0       	ldi	r22, 0x00	; 0
    3df6:	84 e7       	ldi	r24, 0x74	; 116
    3df8:	0e 94 ad 0a 	call	0x155a	; 0x155a <WriteStatusBit>
            dimValue = 0 - QSINE[31-(adcPhot>>7)];
    3dfc:	80 91 bf 3a 	lds	r24, 0x3ABF	; 0x803abf <adcPhot>
    3e00:	90 91 c0 3a 	lds	r25, 0x3AC0	; 0x803ac0 <adcPhot+0x1>
    3e04:	88 0f       	add	r24, r24
    3e06:	89 2f       	mov	r24, r25
    3e08:	88 1f       	adc	r24, r24
    3e0a:	99 0b       	sbc	r25, r25
    3e0c:	91 95       	neg	r25
    3e0e:	fe 01       	movw	r30, r28
    3e10:	e8 1b       	sub	r30, r24
    3e12:	f9 0b       	sbc	r31, r25
    3e14:	e2 54       	subi	r30, 0x42	; 66
    3e16:	f1 44       	sbci	r31, 0x41	; 65
    3e18:	80 81       	ld	r24, Z
    3e1a:	81 95       	neg	r24
    3e1c:	80 93 0b 38 	sts	0x380B, r24	; 0x80380b <dimValue>

            //Check temperature
            HotSummer();
    3e20:	0e 94 45 0b 	call	0x168a	; 0x168a <HotSummer>
    3e24:	b4 cf       	rjmp	.-152    	; 0x3d8e <main+0xcc>

00003e26 <__divmodhi4>:
    3e26:	97 fb       	bst	r25, 7
    3e28:	07 2e       	mov	r0, r23
    3e2a:	16 f4       	brtc	.+4      	; 0x3e30 <__divmodhi4+0xa>
    3e2c:	00 94       	com	r0
    3e2e:	06 d0       	rcall	.+12     	; 0x3e3c <__divmodhi4_neg1>
    3e30:	77 fd       	sbrc	r23, 7
    3e32:	08 d0       	rcall	.+16     	; 0x3e44 <__divmodhi4_neg2>
    3e34:	0b d0       	rcall	.+22     	; 0x3e4c <__udivmodhi4>
    3e36:	07 fc       	sbrc	r0, 7
    3e38:	05 d0       	rcall	.+10     	; 0x3e44 <__divmodhi4_neg2>
    3e3a:	3e f4       	brtc	.+14     	; 0x3e4a <__divmodhi4_exit>

00003e3c <__divmodhi4_neg1>:
    3e3c:	90 95       	com	r25
    3e3e:	81 95       	neg	r24
    3e40:	9f 4f       	sbci	r25, 0xFF	; 255
    3e42:	08 95       	ret

00003e44 <__divmodhi4_neg2>:
    3e44:	70 95       	com	r23
    3e46:	61 95       	neg	r22
    3e48:	7f 4f       	sbci	r23, 0xFF	; 255

00003e4a <__divmodhi4_exit>:
    3e4a:	08 95       	ret

00003e4c <__udivmodhi4>:
    3e4c:	aa 1b       	sub	r26, r26
    3e4e:	bb 1b       	sub	r27, r27
    3e50:	51 e1       	ldi	r21, 0x11	; 17
    3e52:	07 c0       	rjmp	.+14     	; 0x3e62 <__udivmodhi4_ep>

00003e54 <__udivmodhi4_loop>:
    3e54:	aa 1f       	adc	r26, r26
    3e56:	bb 1f       	adc	r27, r27
    3e58:	a6 17       	cp	r26, r22
    3e5a:	b7 07       	cpc	r27, r23
    3e5c:	10 f0       	brcs	.+4      	; 0x3e62 <__udivmodhi4_ep>
    3e5e:	a6 1b       	sub	r26, r22
    3e60:	b7 0b       	sbc	r27, r23

00003e62 <__udivmodhi4_ep>:
    3e62:	88 1f       	adc	r24, r24
    3e64:	99 1f       	adc	r25, r25
    3e66:	5a 95       	dec	r21
    3e68:	a9 f7       	brne	.-22     	; 0x3e54 <__udivmodhi4_loop>
    3e6a:	80 95       	com	r24
    3e6c:	90 95       	com	r25
    3e6e:	bc 01       	movw	r22, r24
    3e70:	cd 01       	movw	r24, r26
    3e72:	08 95       	ret

00003e74 <_exit>:
    3e74:	f8 94       	cli

00003e76 <__stop_program>:
    3e76:	ff cf       	rjmp	.-2      	; 0x3e76 <__stop_program>
