
ISR_IO.elf:     file format elf32-avr

Sections:
Idx Name          Size      VMA       LMA       File off  Algn
  0 .data         00000040  00803800  00003fb0  00004064  2**0
                  CONTENTS, ALLOC, LOAD, DATA
  1 .text         00003f20  00000000  00000000  000000b4  2**1
                  CONTENTS, ALLOC, LOAD, READONLY, CODE
  2 .rodata       00000090  0000bf20  00003f20  00003fd4  2**0
                  CONTENTS, ALLOC, LOAD, READONLY, DATA
  3 .bss          000002e7  00803840  00803840  000040a4  2**0
                  ALLOC
  4 .comment      00000030  00000000  00000000  000040a4  2**0
                  CONTENTS, READONLY
  5 .note.gnu.avr.deviceinfo 00000040  00000000  00000000  000040d4  2**2
                  CONTENTS, READONLY
  6 .debug_aranges 000002f8  00000000  00000000  00004114  2**0
                  CONTENTS, READONLY, DEBUGGING
  7 .debug_info   00006a68  00000000  00000000  0000440c  2**0
                  CONTENTS, READONLY, DEBUGGING
  8 .debug_abbrev 00002660  00000000  00000000  0000ae74  2**0
                  CONTENTS, READONLY, DEBUGGING
  9 .debug_line   00003a48  00000000  00000000  0000d4d4  2**0
                  CONTENTS, READONLY, DEBUGGING
 10 .debug_frame  00000890  00000000  00000000  00010f1c  2**2
                  CONTENTS, READONLY, DEBUGGING
 11 .debug_str    000018e1  00000000  00000000  000117ac  2**0
                  CONTENTS, READONLY, DEBUGGING
 12 .debug_loc    0000391b  00000000  00000000  0001308d  2**0
                  CONTENTS, READONLY, DEBUGGING
 13 .debug_ranges 00000378  00000000  00000000  000169a8  2**0
                  CONTENTS, READONLY, DEBUGGING

Disassembly of section .text:

00000000 <__vectors>:
       0:	56 c0       	rjmp	.+172    	; 0xae <__ctors_end>
       2:	00 00       	nop
       4:	71 c0       	rjmp	.+226    	; 0xe8 <__bad_interrupt>
       6:	00 00       	nop
       8:	6f c0       	rjmp	.+222    	; 0xe8 <__bad_interrupt>
       a:	00 00       	nop
       c:	6d c0       	rjmp	.+218    	; 0xe8 <__bad_interrupt>
       e:	00 00       	nop
      10:	6b c0       	rjmp	.+214    	; 0xe8 <__bad_interrupt>
      12:	00 00       	nop
      14:	69 c0       	rjmp	.+210    	; 0xe8 <__bad_interrupt>
      16:	00 00       	nop
      18:	c0 c6       	rjmp	.+3456   	; 0xd9a <__vector_6>
      1a:	00 00       	nop
      1c:	12 c7       	rjmp	.+3620   	; 0xe42 <__vector_7>
      1e:	00 00       	nop
      20:	9f c4       	rjmp	.+2366   	; 0x960 <__vector_8>
      22:	00 00       	nop
      24:	61 c0       	rjmp	.+194    	; 0xe8 <__bad_interrupt>
      26:	00 00       	nop
      28:	5f c0       	rjmp	.+190    	; 0xe8 <__bad_interrupt>
      2a:	00 00       	nop
      2c:	5d c0       	rjmp	.+186    	; 0xe8 <__bad_interrupt>
      2e:	00 00       	nop
      30:	5b c0       	rjmp	.+182    	; 0xe8 <__bad_interrupt>
      32:	00 00       	nop
      34:	dd c4       	rjmp	.+2490   	; 0x9f0 <__vector_13>
      36:	00 00       	nop
      38:	0e c5       	rjmp	.+2588   	; 0xa56 <__vector_14>
      3a:	00 00       	nop
      3c:	55 c0       	rjmp	.+170    	; 0xe8 <__bad_interrupt>
      3e:	00 00       	nop
      40:	53 c0       	rjmp	.+166    	; 0xe8 <__bad_interrupt>
      42:	00 00       	nop
      44:	51 c0       	rjmp	.+162    	; 0xe8 <__bad_interrupt>
      46:	00 00       	nop
      48:	4f c0       	rjmp	.+158    	; 0xe8 <__bad_interrupt>
      4a:	00 00       	nop
      4c:	4d c0       	rjmp	.+154    	; 0xe8 <__bad_interrupt>
      4e:	00 00       	nop
      50:	30 c6       	rjmp	.+3168   	; 0xcb2 <__vector_20>
      52:	00 00       	nop
      54:	49 c0       	rjmp	.+146    	; 0xe8 <__bad_interrupt>
      56:	00 00       	nop
      58:	58 c6       	rjmp	.+3248   	; 0xd0a <__vector_22>
      5a:	00 00       	nop
      5c:	45 c0       	rjmp	.+138    	; 0xe8 <__bad_interrupt>
      5e:	00 00       	nop
      60:	43 c0       	rjmp	.+134    	; 0xe8 <__bad_interrupt>
      62:	00 00       	nop
      64:	4b c5       	rjmp	.+2710   	; 0xafc <__vector_25>
      66:	00 00       	nop
      68:	3f c0       	rjmp	.+126    	; 0xe8 <__bad_interrupt>
      6a:	00 00       	nop
      6c:	ab c5       	rjmp	.+2902   	; 0xbc4 <__vector_27>
      6e:	00 00       	nop
      70:	04 c6       	rjmp	.+3080   	; 0xc7a <__vector_28>
      72:	00 00       	nop
      74:	39 c0       	rjmp	.+114    	; 0xe8 <__bad_interrupt>
      76:	00 00       	nop
      78:	37 c0       	rjmp	.+110    	; 0xe8 <__bad_interrupt>
      7a:	00 00       	nop
      7c:	1d 0b       	sbc	r17, r29
      7e:	24 0b       	sbc	r18, r20
      80:	2d 0b       	sbc	r18, r29
      82:	24 0b       	sbc	r18, r20
      84:	2d 0b       	sbc	r18, r29
      86:	24 0b       	sbc	r18, r20
      88:	1d 0b       	sbc	r17, r29
      8a:	52 0b       	sbc	r21, r18
      8c:	6c 0b       	sbc	r22, r28
      8e:	7e 0b       	sbc	r23, r30
      90:	39 0c       	add	r3, r9
      92:	39 0c       	add	r3, r9
      94:	8d 0b       	sbc	r24, r29
      96:	9a 0b       	sbc	r25, r26
      98:	d8 0b       	sbc	r29, r24
      9a:	ff 0b       	sbc	r31, r31
      9c:	39 0c       	add	r3, r9
      9e:	39 0c       	add	r3, r9
      a0:	39 0c       	add	r3, r9
      a2:	39 0c       	add	r3, r9
      a4:	39 0c       	add	r3, r9
      a6:	39 0c       	add	r3, r9
      a8:	39 0c       	add	r3, r9
      aa:	52 0b       	sbc	r21, r18
      ac:	6c 0b       	sbc	r22, r28

000000ae <__ctors_end>:
      ae:	11 24       	eor	r1, r1
      b0:	1f be       	out	0x3f, r1	; 63
      b2:	cf ef       	ldi	r28, 0xFF	; 255
      b4:	cd bf       	out	0x3d, r28	; 61
      b6:	df e3       	ldi	r29, 0x3F	; 63
      b8:	de bf       	out	0x3e, r29	; 62

000000ba <__do_copy_data>:
      ba:	18 e3       	ldi	r17, 0x38	; 56
      bc:	a0 e0       	ldi	r26, 0x00	; 0
      be:	b8 e3       	ldi	r27, 0x38	; 56
      c0:	e0 eb       	ldi	r30, 0xB0	; 176
      c2:	ff e3       	ldi	r31, 0x3F	; 63
      c4:	02 c0       	rjmp	.+4      	; 0xca <__do_copy_data+0x10>
      c6:	05 90       	lpm	r0, Z+
      c8:	0d 92       	st	X+, r0
      ca:	a0 34       	cpi	r26, 0x40	; 64
      cc:	b1 07       	cpc	r27, r17
      ce:	d9 f7       	brne	.-10     	; 0xc6 <__do_copy_data+0xc>

000000d0 <__do_clear_bss>:
      d0:	2b e3       	ldi	r18, 0x3B	; 59
      d2:	a0 e4       	ldi	r26, 0x40	; 64
      d4:	b8 e3       	ldi	r27, 0x38	; 56
      d6:	01 c0       	rjmp	.+2      	; 0xda <.do_clear_bss_start>

000000d8 <.do_clear_bss_loop>:
      d8:	1d 92       	st	X+, r1

000000da <.do_clear_bss_start>:
      da:	a7 32       	cpi	r26, 0x27	; 39
      dc:	b2 07       	cpc	r27, r18
      de:	e1 f7       	brne	.-8      	; 0xd8 <.do_clear_bss_loop>
      e0:	0e 94 8c 1e 	call	0x3d18	; 0x3d18 <main>
      e4:	0c 94 8e 1f 	jmp	0x3f1c	; 0x3f1c <_exit>

000000e8 <__bad_interrupt>:
      e8:	8b cf       	rjmp	.-234    	; 0x0 <__vectors>

000000ea <chkVolt250>:
#include <friends.h>
#include <main_def.h>
#include <resources.h>

//Returns measured voltage * 4 (2V returns 8) if it is in the expected range (DELTA)
uint8_t chkVolt250(){
      ea:	28 ed       	ldi	r18, 0xD8	; 216
      ec:	30 e0       	ldi	r19, 0x00	; 0
    uint8_t avgVolt = 9;
      ee:	89 e0       	ldi	r24, 0x09	; 9
        
    for (uint8_t x=225; x>24; x-=25) {
        if ((auIn > (x-DELTA)) && (auIn < (x+DELTA))) {
      f0:	40 91 d7 3a 	lds	r20, 0x3AD7	; 0x803ad7 <auIn>
      f4:	50 e0       	ldi	r21, 0x00	; 0
      f6:	42 17       	cp	r20, r18
      f8:	53 07       	cpc	r21, r19
      fa:	4c f0       	brlt	.+18     	; 0x10e <chkVolt250+0x24>
      fc:	40 91 d7 3a 	lds	r20, 0x3AD7	; 0x803ad7 <auIn>
     100:	50 e0       	ldi	r21, 0x00	; 0
     102:	b9 01       	movw	r22, r18
     104:	6e 5e       	subi	r22, 0xEE	; 238
     106:	7f 4f       	sbci	r23, 0xFF	; 255
     108:	64 17       	cp	r22, r20
     10a:	75 07       	cpc	r23, r21
     10c:	2c f4       	brge	.+10     	; 0x118 <chkVolt250+0x2e>
            break;
        }
        --avgVolt;
     10e:	81 50       	subi	r24, 0x01	; 1
     110:	29 51       	subi	r18, 0x19	; 25
     112:	31 09       	sbc	r19, r1

//Returns measured voltage * 4 (2V returns 8) if it is in the expected range (DELTA)
uint8_t chkVolt250(){
    uint8_t avgVolt = 9;
        
    for (uint8_t x=225; x>24; x-=25) {
     114:	81 11       	cpse	r24, r1
     116:	ec cf       	rjmp	.-40     	; 0xf0 <chkVolt250+0x6>
            break;
        }
        --avgVolt;
    }
    return avgVolt;
}
     118:	08 95       	ret

0000011a <MakeFriends>:

// Main game loop
uint8_t MakeFriends(){
     11a:	cf 93       	push	r28
     11c:	df 93       	push	r29
    static uint8_t setDAC[2] = {255, 0};
    static uint8_t chkTmr = 0;
    static uint8_t jackIn = 0;
    static uint8_t candidate = 0;

    ++chkTmr;
     11e:	80 91 43 38 	lds	r24, 0x3843	; 0x803843 <chkTmr.3770>
     122:	8f 5f       	subi	r24, 0xFF	; 255
     124:	80 93 43 38 	sts	0x3843, r24	; 0x803843 <chkTmr.3770>
     128:	c4 e6       	ldi	r28, 0x64	; 100

    //Check if badge has found 3 friends, if true, don't accept any new connections!
    uint8_t foundAll = 1;
     12a:	d1 e0       	ldi	r29, 0x01	; 1
    for (uint8_t x=0; x<4; ++x){
        if (CheckState(100+x) == 0) foundAll = 0;
     12c:	8c 2f       	mov	r24, r28
     12e:	0e 94 68 09 	call	0x12d0	; 0x12d0 <CheckState>
     132:	81 11       	cpse	r24, r1
     134:	01 c0       	rjmp	.+2      	; 0x138 <MakeFriends+0x1e>
     136:	d0 e0       	ldi	r29, 0x00	; 0
     138:	cf 5f       	subi	r28, 0xFF	; 255

    ++chkTmr;

    //Check if badge has found 3 friends, if true, don't accept any new connections!
    uint8_t foundAll = 1;
    for (uint8_t x=0; x<4; ++x){
     13a:	c8 36       	cpi	r28, 0x68	; 104
     13c:	b9 f7       	brne	.-18     	; 0x12c <MakeFriends+0x12>
        if (CheckState(100+x) == 0) foundAll = 0;
    }
    if (foundAll) {
     13e:	dd 23       	and	r29, r29
     140:	21 f0       	breq	.+8      	; 0x14a <MakeFriends+0x30>
        UpdateState(124);
     142:	8c e7       	ldi	r24, 0x7C	; 124
     144:	0e 94 47 09 	call	0x128e	; 0x128e <UpdateState>
        return 0;
     148:	ee c0       	rjmp	.+476    	; 0x326 <MakeFriends+0x20c>
    }

    //Set game state, must be able to hijack from other games.
    if (progress > FIRST_CONTACT) { 
     14a:	80 91 42 38 	lds	r24, 0x3842	; 0x803842 <progress.3768>
     14e:	82 30       	cpi	r24, 0x02	; 2
     150:	20 f0       	brcs	.+8      	; 0x15a <MakeFriends+0x40>
        gameNow = FRIENDS; 
     152:	94 e0       	ldi	r25, 0x04	; 4
     154:	90 93 4c 38 	sts	0x384C, r25	; 0x80384c <gameNow>
     158:	0d c0       	rjmp	.+26     	; 0x174 <MakeFriends+0x5a>
    }
    
    //Clear game state if not communicating properly or headphones detected
    if (((progress == NO_OTHER) || detHdPh) && (gameNow == FRIENDS)) {
     15a:	81 11       	cpse	r24, r1
     15c:	0b c0       	rjmp	.+22     	; 0x174 <MakeFriends+0x5a>
     15e:	90 91 4c 38 	lds	r25, 0x384C	; 0x80384c <gameNow>
     162:	94 30       	cpi	r25, 0x04	; 4
     164:	61 f4       	brne	.+24     	; 0x17e <MakeFriends+0x64>
        gameNow = TEXT; 
     166:	10 92 4c 38 	sts	0x384C, r1	; 0x80384c <gameNow>
        effect = 0;
     16a:	10 92 4a 38 	sts	0x384A, r1	; 0x80384a <effect>
     16e:	10 92 4b 38 	sts	0x384B, r1	; 0x80384b <effect+0x1>
     172:	05 c0       	rjmp	.+10     	; 0x17e <MakeFriends+0x64>
    if (progress > FIRST_CONTACT) { 
        gameNow = FRIENDS; 
    }
    
    //Clear game state if not communicating properly or headphones detected
    if (((progress == NO_OTHER) || detHdPh) && (gameNow == FRIENDS)) {
     174:	90 91 d4 3a 	lds	r25, 0x3AD4	; 0x803ad4 <detHdPh>
     178:	91 11       	cpse	r25, r1
     17a:	f1 cf       	rjmp	.-30     	; 0x15e <MakeFriends+0x44>
     17c:	18 c0       	rjmp	.+48     	; 0x1ae <MakeFriends+0x94>
        gameNow = TEXT; 
        effect = 0;
    }

    //Audio off, set voltage level (setDAC[0]*10mV)
    if ((progress == NO_OTHER) && (detHdPh == 0)) {
     17e:	81 11       	cpse	r24, r1
     180:	16 c0       	rjmp	.+44     	; 0x1ae <MakeFriends+0x94>
     182:	90 91 d4 3a 	lds	r25, 0x3AD4	; 0x803ad4 <detHdPh>
     186:	91 11       	cpse	r25, r1
     188:	12 c0       	rjmp	.+36     	; 0x1ae <MakeFriends+0x94>
        setDAC[0] = whoami * 51;
     18a:	80 91 4d 38 	lds	r24, 0x384D	; 0x80384d <whoami>
     18e:	93 e3       	ldi	r25, 0x33	; 51
     190:	89 9f       	mul	r24, r25
     192:	80 2d       	mov	r24, r0
     194:	11 24       	eor	r1, r1
     196:	80 93 00 38 	sts	0x3800, r24	; 0x803800 <__data_start>
        auRepAddr = &setDAC[0];
     19a:	80 e0       	ldi	r24, 0x00	; 0
     19c:	98 e3       	ldi	r25, 0x38	; 56
     19e:	80 93 03 38 	sts	0x3803, r24	; 0x803803 <auRepAddr>
     1a2:	90 93 04 38 	sts	0x3804, r25	; 0x803804 <auRepAddr+0x1>
        auVolume = 255;
     1a6:	8f ef       	ldi	r24, 0xFF	; 255
     1a8:	80 93 ca 3a 	sts	0x3ACA, r24	; 0x803aca <auVolume>
     1ac:	09 c0       	rjmp	.+18     	; 0x1c0 <MakeFriends+0xa6>
    } else {
        if (progress & NEXT){
     1ae:	98 2f       	mov	r25, r24
     1b0:	90 7f       	andi	r25, 0xF0	; 240
     1b2:	31 f0       	breq	.+12     	; 0x1c0 <MakeFriends+0xa6>
            progress++;
            progress&=0x0f;
     1b4:	8f 5f       	subi	r24, 0xFF	; 255
     1b6:	8f 70       	andi	r24, 0x0F	; 15
     1b8:	80 93 42 38 	sts	0x3842, r24	; 0x803842 <progress.3768>
            chkTmr = 0;
     1bc:	10 92 43 38 	sts	0x3843, r1	; 0x803843 <chkTmr.3770>
        }
    }

    //Check for other badges ()
    if ((auIn < (setDAC[0] - DELTA)) || (auIn > (setDAC[0] + DELTA)) || (progress > FIRST_CONTACT)) {
     1c0:	40 91 d7 3a 	lds	r20, 0x3AD7	; 0x803ad7 <auIn>
     1c4:	20 91 00 38 	lds	r18, 0x3800	; 0x803800 <__data_start>
     1c8:	30 e0       	ldi	r19, 0x00	; 0
     1ca:	50 e0       	ldi	r21, 0x00	; 0
     1cc:	b9 01       	movw	r22, r18
     1ce:	6a 50       	subi	r22, 0x0A	; 10
     1d0:	71 09       	sbc	r23, r1
     1d2:	80 91 42 38 	lds	r24, 0x3842	; 0x803842 <progress.3768>
     1d6:	46 17       	cp	r20, r22
     1d8:	57 07       	cpc	r21, r23
     1da:	5c f0       	brlt	.+22     	; 0x1f2 <MakeFriends+0xd8>
     1dc:	40 91 d7 3a 	lds	r20, 0x3AD7	; 0x803ad7 <auIn>
     1e0:	50 e0       	ldi	r21, 0x00	; 0
     1e2:	26 5f       	subi	r18, 0xF6	; 246
     1e4:	3f 4f       	sbci	r19, 0xFF	; 255
     1e6:	24 17       	cp	r18, r20
     1e8:	35 07       	cpc	r19, r21
     1ea:	1c f0       	brlt	.+6      	; 0x1f2 <MakeFriends+0xd8>
     1ec:	82 30       	cpi	r24, 0x02	; 2
     1ee:	08 f4       	brcc	.+2      	; 0x1f2 <MakeFriends+0xd8>
     1f0:	43 c0       	rjmp	.+134    	; 0x278 <MakeFriends+0x15e>
        if ((progress == NO_OTHER) && (detHdPh == 0)) {
     1f2:	81 11       	cpse	r24, r1
     1f4:	0b c0       	rjmp	.+22     	; 0x20c <MakeFriends+0xf2>
     1f6:	80 91 d4 3a 	lds	r24, 0x3AD4	; 0x803ad4 <detHdPh>
     1fa:	81 11       	cpse	r24, r1
     1fc:	94 c0       	rjmp	.+296    	; 0x326 <MakeFriends+0x20c>
            if (chkTmr >= 8) {
     1fe:	80 91 43 38 	lds	r24, 0x3843	; 0x803843 <chkTmr.3770>
     202:	88 30       	cpi	r24, 0x08	; 8
     204:	08 f4       	brcc	.+2      	; 0x208 <MakeFriends+0xee>
     206:	8f c0       	rjmp	.+286    	; 0x326 <MakeFriends+0x20c>
                progress |= NEXT;
     208:	80 ef       	ldi	r24, 0xF0	; 240
     20a:	63 c0       	rjmp	.+198    	; 0x2d2 <MakeFriends+0x1b8>
            }
        }

        //Candidate found, check ranges
        else if (progress == FIRST_CONTACT) {
     20c:	81 30       	cpi	r24, 0x01	; 1
     20e:	41 f5       	brne	.+80     	; 0x260 <MakeFriends+0x146>
            jackIn = chkVolt250();
     210:	6c df       	rcall	.-296    	; 0xea <chkVolt250>
     212:	80 93 41 38 	sts	0x3841, r24	; 0x803841 <jackIn.3771>
            if (jackIn) {
     216:	88 23       	and	r24, r24
     218:	79 f1       	breq	.+94     	; 0x278 <MakeFriends+0x15e>
                if (chkTmr >= SHORT_WAIT){
     21a:	90 91 43 38 	lds	r25, 0x3843	; 0x803843 <chkTmr.3770>
     21e:	98 30       	cpi	r25, 0x08	; 8
     220:	08 f4       	brcc	.+2      	; 0x224 <MakeFriends+0x10a>
     222:	81 c0       	rjmp	.+258    	; 0x326 <MakeFriends+0x20c>
                    if (   ((whoami == 1)&&((jackIn >= 3)&&(jackIn <= 5))) 
     224:	90 91 4d 38 	lds	r25, 0x384D	; 0x80384d <whoami>
     228:	91 30       	cpi	r25, 0x01	; 1
     22a:	11 f4       	brne	.+4      	; 0x230 <MakeFriends+0x116>
     22c:	83 50       	subi	r24, 0x03	; 3
     22e:	14 c0       	rjmp	.+40     	; 0x258 <MakeFriends+0x13e>
                    || ((whoami == 2)&&((jackIn == 3)||(jackIn == 5)||(jackIn == 6)))  
     230:	92 30       	cpi	r25, 0x02	; 2
     232:	31 f4       	brne	.+12     	; 0x240 <MakeFriends+0x126>
     234:	83 30       	cpi	r24, 0x03	; 3
     236:	91 f0       	breq	.+36     	; 0x25c <MakeFriends+0x142>
     238:	85 50       	subi	r24, 0x05	; 5
     23a:	82 30       	cpi	r24, 0x02	; 2
     23c:	e8 f4       	brcc	.+58     	; 0x278 <MakeFriends+0x15e>
     23e:	0e c0       	rjmp	.+28     	; 0x25c <MakeFriends+0x142>
                    || ((whoami == 3)&&((jackIn == 4)||(jackIn == 5)||(jackIn == 7))) 
     240:	93 30       	cpi	r25, 0x03	; 3
     242:	39 f4       	brne	.+14     	; 0x252 <MakeFriends+0x138>
     244:	9c ef       	ldi	r25, 0xFC	; 252
     246:	98 0f       	add	r25, r24
     248:	92 30       	cpi	r25, 0x02	; 2
     24a:	40 f0       	brcs	.+16     	; 0x25c <MakeFriends+0x142>
     24c:	87 30       	cpi	r24, 0x07	; 7
     24e:	a1 f4       	brne	.+40     	; 0x278 <MakeFriends+0x15e>
     250:	05 c0       	rjmp	.+10     	; 0x25c <MakeFriends+0x142>
                    || ((whoami == 4)&&((jackIn >= 5)&&(jackIn <= 7)))   ) {
     252:	94 30       	cpi	r25, 0x04	; 4
     254:	89 f4       	brne	.+34     	; 0x278 <MakeFriends+0x15e>
     256:	85 50       	subi	r24, 0x05	; 5
     258:	83 30       	cpi	r24, 0x03	; 3
     25a:	70 f4       	brcc	.+28     	; 0x278 <MakeFriends+0x15e>
                        progress |= NEXT;
     25c:	81 ef       	ldi	r24, 0xF1	; 241
     25e:	39 c0       	rjmp	.+114    	; 0x2d2 <MakeFriends+0x1b8>
                progress = NO_OTHER;
            }
        }

        //Wait for the other badge (and a bit longer for effect)
        else if (progress == SECOND_LOVE){
     260:	82 30       	cpi	r24, 0x02	; 2
     262:	69 f0       	breq	.+26     	; 0x27e <MakeFriends+0x164>
                progress |= NEXT;
            }
        } 
        
        //Wait a bit, check Voltage again, if ok show who you connected with and your own number, save, exit
        else if (progress == THIRD_KISS) {
     264:	83 30       	cpi	r24, 0x03	; 3
     266:	c1 f1       	breq	.+112    	; 0x2d8 <MakeFriends+0x1be>
                    progress |= NEXT;
                } else progress = NO_OTHER;                
            }

        //Wait for quit
        } else if (progress == FOURTH_BASE) {
     268:	84 30       	cpi	r24, 0x04	; 4
     26a:	09 f0       	breq	.+2      	; 0x26e <MakeFriends+0x154>
     26c:	5c c0       	rjmp	.+184    	; 0x326 <MakeFriends+0x20c>
            if (chkTmr >= (SHORT_WAIT<<3)) {
     26e:	80 91 43 38 	lds	r24, 0x3843	; 0x803843 <chkTmr.3770>
     272:	80 34       	cpi	r24, 0x40	; 64
     274:	08 f4       	brcc	.+2      	; 0x278 <MakeFriends+0x15e>
     276:	57 c0       	rjmp	.+174    	; 0x326 <MakeFriends+0x20c>
                    if (   ((whoami == 1)&&((jackIn >= 3)&&(jackIn <= 5))) 
                    || ((whoami == 2)&&((jackIn == 3)||(jackIn == 5)||(jackIn == 6)))  
                    || ((whoami == 3)&&((jackIn == 4)||(jackIn == 5)||(jackIn == 7))) 
                    || ((whoami == 4)&&((jackIn >= 5)&&(jackIn <= 7)))   ) {
                        progress |= NEXT;
                    } else progress = NO_OTHER;
     278:	10 92 42 38 	sts	0x3842, r1	; 0x803842 <progress.3768>
     27c:	54 c0       	rjmp	.+168    	; 0x326 <MakeFriends+0x20c>
        }

        //Wait for the other badge (and a bit longer for effect)
        else if (progress == SECOND_LOVE){
            
            effect = 7;
     27e:	87 e0       	ldi	r24, 0x07	; 7
     280:	90 e0       	ldi	r25, 0x00	; 0
     282:	80 93 4a 38 	sts	0x384A, r24	; 0x80384a <effect>
     286:	90 93 4b 38 	sts	0x384B, r25	; 0x80384b <effect+0x1>
            if (chkTmr >= SHORT_WAIT) {
     28a:	80 91 43 38 	lds	r24, 0x3843	; 0x803843 <chkTmr.3770>
     28e:	88 30       	cpi	r24, 0x08	; 8
     290:	38 f0       	brcs	.+14     	; 0x2a0 <MakeFriends+0x186>
                setDAC[0] = floatAround(0x80, 8, 100, 255); 
     292:	2f ef       	ldi	r18, 0xFF	; 255
     294:	44 e6       	ldi	r20, 0x64	; 100
     296:	68 e0       	ldi	r22, 0x08	; 8
     298:	80 e8       	ldi	r24, 0x80	; 128
     29a:	40 d7       	rcall	.+3712   	; 0x111c <floatAround>
     29c:	80 93 00 38 	sts	0x3800, r24	; 0x803800 <__data_start>
            }

            //The badge with the lowest voltage will now go to 2.5V (impedance check, for people tricking the things with a power supply)
            if (chkTmr >= LONG_WAIT){
     2a0:	80 91 43 38 	lds	r24, 0x3843	; 0x803843 <chkTmr.3770>
     2a4:	8a 3f       	cpi	r24, 0xFA	; 250
     2a6:	08 f4       	brcc	.+2      	; 0x2aa <MakeFriends+0x190>
     2a8:	3e c0       	rjmp	.+124    	; 0x326 <MakeFriends+0x20c>
                candidate = jackIn-whoami;
     2aa:	80 91 4d 38 	lds	r24, 0x384D	; 0x80384d <whoami>
     2ae:	90 91 41 38 	lds	r25, 0x3841	; 0x803841 <jackIn.3771>
     2b2:	98 1b       	sub	r25, r24
     2b4:	90 93 40 38 	sts	0x3840, r25	; 0x803840 <__data_end>
                if (candidate > whoami) {
     2b8:	89 17       	cp	r24, r25
     2ba:	10 f4       	brcc	.+4      	; 0x2c0 <MakeFriends+0x1a6>
                    setDAC[0] = 249;
     2bc:	89 ef       	ldi	r24, 0xF9	; 249
     2be:	04 c0       	rjmp	.+8      	; 0x2c8 <MakeFriends+0x1ae>
                } else {
                    setDAC[0] = whoami * 51;
     2c0:	93 e3       	ldi	r25, 0x33	; 51
     2c2:	89 9f       	mul	r24, r25
     2c4:	80 2d       	mov	r24, r0
     2c6:	11 24       	eor	r1, r1
     2c8:	80 93 00 38 	sts	0x3800, r24	; 0x803800 <__data_start>
                }
                progress |= NEXT;
     2cc:	80 91 42 38 	lds	r24, 0x3842	; 0x803842 <progress.3768>
     2d0:	80 6f       	ori	r24, 0xF0	; 240
     2d2:	80 93 42 38 	sts	0x3842, r24	; 0x803842 <progress.3768>
     2d6:	27 c0       	rjmp	.+78     	; 0x326 <MakeFriends+0x20c>
            }
        } 
        
        //Wait a bit, check Voltage again, if ok show who you connected with and your own number, save, exit
        else if (progress == THIRD_KISS) {
            if (chkTmr >= SHORT_WAIT) {
     2d8:	80 91 43 38 	lds	r24, 0x3843	; 0x803843 <chkTmr.3770>
     2dc:	88 30       	cpi	r24, 0x08	; 8
                jackIn = chkVolt250();
     2de:	18 f1       	brcs	.+70     	; 0x326 <MakeFriends+0x20c>
     2e0:	04 df       	rcall	.-504    	; 0xea <chkVolt250>
     2e2:	80 93 41 38 	sts	0x3841, r24	; 0x803841 <jackIn.3771>
                if (jackIn == (((candidate > whoami)?candidate:whoami) + 5)) {
     2e6:	90 91 40 38 	lds	r25, 0x3840	; 0x803840 <__data_end>
     2ea:	48 2f       	mov	r20, r24
     2ec:	50 e0       	ldi	r21, 0x00	; 0
     2ee:	20 91 4d 38 	lds	r18, 0x384D	; 0x80384d <whoami>
     2f2:	29 17       	cp	r18, r25
     2f4:	08 f4       	brcc	.+2      	; 0x2f8 <MakeFriends+0x1de>
     2f6:	29 2f       	mov	r18, r25
     2f8:	30 e0       	ldi	r19, 0x00	; 0
     2fa:	2b 5f       	subi	r18, 0xFB	; 251
     2fc:	3f 4f       	sbci	r19, 0xFF	; 255
     2fe:	42 17       	cp	r20, r18
     300:	53 07       	cpc	r21, r19
     302:	09 f0       	breq	.+2      	; 0x306 <MakeFriends+0x1ec>
                    UpdateState(99+candidate);
     304:	b9 cf       	rjmp	.-142    	; 0x278 <MakeFriends+0x15e>
     306:	83 e6       	ldi	r24, 0x63	; 99
     308:	89 0f       	add	r24, r25
     30a:	c1 d7       	rcall	.+3970   	; 0x128e <UpdateState>
                 
                    effect = 31;
     30c:	8f e1       	ldi	r24, 0x1F	; 31
     30e:	90 e0       	ldi	r25, 0x00	; 0
     310:	80 93 4a 38 	sts	0x384A, r24	; 0x80384a <effect>
     314:	90 93 4b 38 	sts	0x384B, r25	; 0x80384b <effect+0x1>
                    WingBar(candidate, whoami);
     318:	60 91 4d 38 	lds	r22, 0x384D	; 0x80384d <whoami>
     31c:	80 91 40 38 	lds	r24, 0x3840	; 0x803840 <__data_end>
     320:	0e 94 63 0a 	call	0x14c6	; 0x14c6 <WingBar>
     324:	d3 cf       	rjmp	.-90     	; 0x2cc <MakeFriends+0x1b2>
    } else {
        progress = NO_OTHER;
    }
      
    return 0;
}
     326:	80 e0       	ldi	r24, 0x00	; 0
     328:	df 91       	pop	r29
     32a:	cf 91       	pop	r28
     32c:	08 95       	ret

0000032e <LanyardCode>:
uint16_t        lanyardLastActive = 0;


// Main game loop
uint8_t LanyardCode(){
    if (gameNow == LANYARD && idleTimeout(lanyardLastActive,LANYARD_MAX_IDLE)) {
     32e:	80 91 4c 38 	lds	r24, 0x384C	; 0x80384c <gameNow>
     332:	83 30       	cpi	r24, 0x03	; 3
     334:	89 f4       	brne	.+34     	; 0x358 <LanyardCode+0x2a>
     336:	6a e0       	ldi	r22, 0x0A	; 10
     338:	70 e0       	ldi	r23, 0x00	; 0
     33a:	80 91 44 38 	lds	r24, 0x3844	; 0x803844 <lanyardLastActive>
     33e:	90 91 45 38 	lds	r25, 0x3845	; 0x803845 <lanyardLastActive+0x1>
     342:	0e 94 63 0e 	call	0x1cc6	; 0x1cc6 <idleTimeout>
     346:	88 23       	and	r24, r24
     348:	39 f0       	breq	.+14     	; 0x358 <LanyardCode+0x2a>
        /* clean up maze game and go back to text game */
        gameNow = TEXT;
     34a:	10 92 4c 38 	sts	0x384C, r1	; 0x80384c <gameNow>
        effect = 0;
     34e:	10 92 4a 38 	sts	0x384A, r1	; 0x80384a <effect>
     352:	10 92 4b 38 	sts	0x384B, r1	; 0x80384b <effect+0x1>
        return 0;
     356:	95 c0       	rjmp	.+298    	; 0x482 <__LOCK_REGION_LENGTH__+0x82>
    }

    if (CheckState(LANYARD_COMPLETED))
     358:	8b e7       	ldi	r24, 0x7B	; 123
     35a:	ba d7       	rcall	.+3956   	; 0x12d0 <CheckState>
     35c:	81 11       	cpse	r24, r1
     35e:	91 c0       	rjmp	.+290    	; 0x482 <__LOCK_REGION_LENGTH__+0x82>
        return 0;

    if ( gameNow != TEXT && gameNow != LANYARD )
     360:	80 91 4c 38 	lds	r24, 0x384C	; 0x80384c <gameNow>
     364:	88 23       	and	r24, r24
     366:	19 f0       	breq	.+6      	; 0x36e <LanyardCode+0x40>
     368:	83 30       	cpi	r24, 0x03	; 3
     36a:	09 f0       	breq	.+2      	; 0x36e <LanyardCode+0x40>
     36c:	8a c0       	rjmp	.+276    	; 0x482 <__LOCK_REGION_LENGTH__+0x82>
        return 0;

    if (buttonState == 0xff)
     36e:	80 91 08 38 	lds	r24, 0x3808	; 0x803808 <buttonState>
     372:	8f 3f       	cpi	r24, 0xFF	; 255
     374:	09 f4       	brne	.+2      	; 0x378 <LanyardCode+0x4a>
     376:	85 c0       	rjmp	.+266    	; 0x482 <__LOCK_REGION_LENGTH__+0x82>
        return 0;

    if (buttonState == lastButtonState)
     378:	90 91 07 38 	lds	r25, 0x3807	; 0x803807 <lastButtonState>
     37c:	89 17       	cp	r24, r25
     37e:	09 f4       	brne	.+2      	; 0x382 <LanyardCode+0x54>
     380:	80 c0       	rjmp	.+256    	; 0x482 <__LOCK_REGION_LENGTH__+0x82>
        return 0;

    lanyardLastActive = getClock();
     382:	0e 94 54 0e 	call	0x1ca8	; 0x1ca8 <getClock>
     386:	80 93 44 38 	sts	0x3844, r24	; 0x803844 <lanyardLastActive>
     38a:	90 93 45 38 	sts	0x3845, r25	; 0x803845 <lanyardLastActive+0x1>

    if (lastButtonState == 0xff){
     38e:	80 91 07 38 	lds	r24, 0x3807	; 0x803807 <lastButtonState>
     392:	8f 3f       	cpi	r24, 0xFF	; 255
     394:	09 f0       	breq	.+2      	; 0x398 <LanyardCode+0x6a>
     396:	75 c0       	rjmp	.+234    	; 0x482 <__LOCK_REGION_LENGTH__+0x82>
        if ((gameNow != LANYARD) || (lanyardState == LANYARD_GAMEOVER)) {
     398:	80 91 4c 38 	lds	r24, 0x384C	; 0x80384c <gameNow>
     39c:	83 30       	cpi	r24, 0x03	; 3
     39e:	21 f4       	brne	.+8      	; 0x3a8 <LanyardCode+0x7a>
     3a0:	80 91 02 38 	lds	r24, 0x3802	; 0x803802 <lanyardState>
     3a4:	83 30       	cpi	r24, 0x03	; 3
     3a6:	a1 f4       	brne	.+40     	; 0x3d0 <LanyardCode+0xa2>
            // init Lanyard game
            gameNow         = LANYARD;
     3a8:	83 e0       	ldi	r24, 0x03	; 3
     3aa:	80 93 4c 38 	sts	0x384C, r24	; 0x80384c <gameNow>
            lanyardPos      = 0;
     3ae:	10 92 47 38 	sts	0x3847, r1	; 0x803847 <lanyardPos>
            lanyardCnt      = 0;
     3b2:	10 92 46 38 	sts	0x3846, r1	; 0x803846 <lanyardCnt>
            lanyardState    = LANYARD_GOOD;
     3b6:	81 e0       	ldi	r24, 0x01	; 1
     3b8:	80 93 02 38 	sts	0x3802, r24	; 0x803802 <lanyardState>
            SetHackerLeds(0,0);
     3bc:	60 e0       	ldi	r22, 0x00	; 0
     3be:	80 e0       	ldi	r24, 0x00	; 0
     3c0:	0e 94 a1 0a 	call	0x1542	; 0x1542 <SetHackerLeds>
            effect = 16;
     3c4:	80 e1       	ldi	r24, 0x10	; 16
     3c6:	90 e0       	ldi	r25, 0x00	; 0
     3c8:	80 93 4a 38 	sts	0x384A, r24	; 0x80384a <effect>
     3cc:	90 93 4b 38 	sts	0x384B, r25	; 0x80384b <effect+0x1>
        }

        if (buttonState != lanyardCode[lanyardPos]) {
     3d0:	80 91 47 38 	lds	r24, 0x3847	; 0x803847 <lanyardPos>
     3d4:	e8 2f       	mov	r30, r24
     3d6:	f0 e0       	ldi	r31, 0x00	; 0
     3d8:	e0 5d       	subi	r30, 0xD0	; 208
     3da:	f0 44       	sbci	r31, 0x40	; 64
     3dc:	20 81       	ld	r18, Z
     3de:	90 91 08 38 	lds	r25, 0x3808	; 0x803808 <buttonState>
     3e2:	29 17       	cp	r18, r25
     3e4:	41 f0       	breq	.+16     	; 0x3f6 <LanyardCode+0xc8>
            if (lanyardPos == 0 ) {
     3e6:	81 11       	cpse	r24, r1
     3e8:	03 c0       	rjmp	.+6      	; 0x3f0 <LanyardCode+0xc2>
                gameNow = TEXT;
     3ea:	10 92 4c 38 	sts	0x384C, r1	; 0x80384c <gameNow>
                return 0;
     3ee:	49 c0       	rjmp	.+146    	; 0x482 <__LOCK_REGION_LENGTH__+0x82>
            }
            lanyardState = LANYARD_MISTAKE;
     3f0:	92 e0       	ldi	r25, 0x02	; 2
     3f2:	90 93 02 38 	sts	0x3802, r25	; 0x803802 <lanyardState>
        }
        lanyardPos++;
     3f6:	8f 5f       	subi	r24, 0xFF	; 255
     3f8:	80 93 47 38 	sts	0x3847, r24	; 0x803847 <lanyardPos>
        lanyardCnt++;            
     3fc:	80 91 46 38 	lds	r24, 0x3846	; 0x803846 <lanyardCnt>
     400:	8f 5f       	subi	r24, 0xFF	; 255
     402:	80 93 46 38 	sts	0x3846, r24	; 0x803846 <lanyardCnt>
        WingBar(lanyardCnt,lanyardCnt);
     406:	68 2f       	mov	r22, r24
     408:	0e 94 63 0a 	call	0x14c6	; 0x14c6 <WingBar>
        if (lanyardCnt >= 4) {
     40c:	80 91 46 38 	lds	r24, 0x3846	; 0x803846 <lanyardCnt>
     410:	84 30       	cpi	r24, 0x04	; 4
     412:	b8 f1       	brcs	.+110    	; 0x482 <__LOCK_REGION_LENGTH__+0x82>
            lanyardCnt = 0;
     414:	10 92 46 38 	sts	0x3846, r1	; 0x803846 <lanyardCnt>
            if (lanyardState == LANYARD_GOOD) {
     418:	80 91 02 38 	lds	r24, 0x3802	; 0x803802 <lanyardState>
     41c:	81 30       	cpi	r24, 0x01	; 1
     41e:	21 f5       	brne	.+72     	; 0x468 <__LOCK_REGION_LENGTH__+0x68>
                if (lanyardCnt == 0) {
                    WingBar(0,0);
     420:	60 e0       	ldi	r22, 0x00	; 0
     422:	80 e0       	ldi	r24, 0x00	; 0
     424:	0e 94 63 0a 	call	0x14c6	; 0x14c6 <WingBar>
                    iLED[HCKR[G][(lanyardPos>>1)-2]] = dimValue;
     428:	80 91 47 38 	lds	r24, 0x3847	; 0x803847 <lanyardPos>
     42c:	e8 2f       	mov	r30, r24
     42e:	e6 95       	lsr	r30
     430:	f0 e0       	ldi	r31, 0x00	; 0
     432:	e2 5b       	subi	r30, 0xB2	; 178
     434:	f0 44       	sbci	r31, 0x40	; 64
     436:	a4 81       	ldd	r26, Z+4	; 0x04
     438:	b0 e0       	ldi	r27, 0x00	; 0
     43a:	90 91 0c 38 	lds	r25, 0x380C	; 0x80380c <dimValue>
     43e:	a8 52       	subi	r26, 0x28	; 40
     440:	b5 4c       	sbci	r27, 0xC5	; 197
     442:	9c 93       	st	X, r25
                    iLED[HCKR[G][(lanyardPos>>1)-1]] = dimValue;
     444:	e5 81       	ldd	r30, Z+5	; 0x05
     446:	f0 e0       	ldi	r31, 0x00	; 0
     448:	90 91 0c 38 	lds	r25, 0x380C	; 0x80380c <dimValue>
     44c:	e8 52       	subi	r30, 0x28	; 40
     44e:	f5 4c       	sbci	r31, 0xC5	; 197
     450:	90 83       	st	Z, r25
                }
                if (lanyardPos == LANYARD_LEN) {
     452:	8c 30       	cpi	r24, 0x0C	; 12
     454:	b1 f4       	brne	.+44     	; 0x482 <__LOCK_REGION_LENGTH__+0x82>
                    UpdateState(LANYARD_COMPLETED);
     456:	8b e7       	ldi	r24, 0x7B	; 123
     458:	1a d7       	rcall	.+3636   	; 0x128e <UpdateState>
                    effect    = 0x42;
     45a:	82 e4       	ldi	r24, 0x42	; 66
     45c:	90 e0       	ldi	r25, 0x00	; 0
     45e:	80 93 4a 38 	sts	0x384A, r24	; 0x80384a <effect>
     462:	90 93 4b 38 	sts	0x384B, r25	; 0x80384b <effect+0x1>
     466:	0d c0       	rjmp	.+26     	; 0x482 <__LOCK_REGION_LENGTH__+0x82>
                    /*TODO state = STATE_MUSIC;*/
                }
            } else {
                lanyardState = LANYARD_GAMEOVER;
     468:	83 e0       	ldi	r24, 0x03	; 3
     46a:	80 93 02 38 	sts	0x3802, r24	; 0x803802 <lanyardState>
                effect  = 0x31;
     46e:	81 e3       	ldi	r24, 0x31	; 49
     470:	90 e0       	ldi	r25, 0x00	; 0
     472:	80 93 4a 38 	sts	0x384A, r24	; 0x80384a <effect>
     476:	90 93 4b 38 	sts	0x384B, r25	; 0x80384b <effect+0x1>
                WingBar(0,0);
     47a:	60 e0       	ldi	r22, 0x00	; 0
     47c:	80 e0       	ldi	r24, 0x00	; 0
     47e:	0e 94 63 0a 	call	0x14c6	; 0x14c6 <WingBar>
            }
        }
    }

    return 0;
}
     482:	80 e0       	ldi	r24, 0x00	; 0
     484:	08 95       	ret

00000486 <initMaze>:
uint8_t         mazeState = TRUE;
uint8_t         inverted  = FALSE;
uint16_t        mazeLastActive = 0;

void initMaze() {
    mazeHckrPos = 0;
     486:	10 92 5a 38 	sts	0x385A, r1	; 0x80385a <mazeHckrPos>
    mazePos = 0;
     48a:	10 92 5b 38 	sts	0x385B, r1	; 0x80385b <mazePos>
    mazeCnt = 0;
     48e:	10 92 59 38 	sts	0x3859, r1	; 0x803859 <mazeCnt>
    mazeState = TRUE;
     492:	81 e0       	ldi	r24, 0x01	; 1
     494:	80 93 0d 38 	sts	0x380D, r24	; 0x80380d <mazeState>
    inverted  = FALSE;
     498:	10 92 58 38 	sts	0x3858, r1	; 0x803858 <inverted>
    effect = 16;
     49c:	80 e1       	ldi	r24, 0x10	; 16
     49e:	90 e0       	ldi	r25, 0x00	; 0
     4a0:	80 93 4a 38 	sts	0x384A, r24	; 0x80384a <effect>
     4a4:	90 93 4b 38 	sts	0x384B, r25	; 0x80384b <effect+0x1>
    SetHackerLeds(0,0);
     4a8:	60 e0       	ldi	r22, 0x00	; 0
     4aa:	80 e0       	ldi	r24, 0x00	; 0
     4ac:	0c 94 a1 0a 	jmp	0x1542	; 0x1542 <SetHackerLeds>
     4b0:	08 95       	ret

000004b2 <showFieldStrength>:
}

void showFieldStrength(int16_t val) {
     4b2:	cf 93       	push	r28
     4b4:	df 93       	push	r29
     4b6:	ec 01       	movw	r28, r24
    int16_t field;
 
    field = abs(val);
     4b8:	97 ff       	sbrs	r25, 7
     4ba:	03 c0       	rjmp	.+6      	; 0x4c2 <showFieldStrength+0x10>
     4bc:	d1 95       	neg	r29
     4be:	c1 95       	neg	r28
     4c0:	d1 09       	sbc	r29, r1
 
    if ( field > HALL_FIELD_0 ) {
     4c2:	cd 33       	cpi	r28, 0x3D	; 61
     4c4:	d1 05       	cpc	r29, r1
     4c6:	44 f0       	brlt	.+16     	; 0x4d8 <showFieldStrength+0x26>
        if (gameNow == TEXT) {
     4c8:	80 91 4c 38 	lds	r24, 0x384C	; 0x80384c <gameNow>
     4cc:	81 11       	cpse	r24, r1
     4ce:	04 c0       	rjmp	.+8      	; 0x4d8 <showFieldStrength+0x26>
            initMaze();
     4d0:	da df       	rcall	.-76     	; 0x486 <initMaze>
            gameNow = MAZE;
     4d2:	81 e0       	ldi	r24, 0x01	; 1
     4d4:	80 93 4c 38 	sts	0x384C, r24	; 0x80384c <gameNow>
        }
    }

    if (gameNow == MAZE) {
     4d8:	80 91 4c 38 	lds	r24, 0x384C	; 0x80384c <gameNow>
     4dc:	81 30       	cpi	r24, 0x01	; 1
     4de:	09 f5       	brne	.+66     	; 0x522 <showFieldStrength+0x70>
        if ( field < HALL_FIELD_0 )
     4e0:	cc 33       	cpi	r28, 0x3C	; 60
     4e2:	d1 05       	cpc	r29, r1
     4e4:	1c f4       	brge	.+6      	; 0x4ec <showFieldStrength+0x3a>
            WingBar(0,0);
     4e6:	60 e0       	ldi	r22, 0x00	; 0
     4e8:	80 e0       	ldi	r24, 0x00	; 0
     4ea:	1a c0       	rjmp	.+52     	; 0x520 <showFieldStrength+0x6e>
        else if ( field < HALL_FIELD_1 )
     4ec:	c8 37       	cpi	r28, 0x78	; 120
     4ee:	d1 05       	cpc	r29, r1
     4f0:	1c f4       	brge	.+6      	; 0x4f8 <showFieldStrength+0x46>
            WingBar(1,1);
     4f2:	61 e0       	ldi	r22, 0x01	; 1
     4f4:	81 e0       	ldi	r24, 0x01	; 1
     4f6:	14 c0       	rjmp	.+40     	; 0x520 <showFieldStrength+0x6e>
        else if ( field < HALL_FIELD_2 )
     4f8:	c6 39       	cpi	r28, 0x96	; 150
     4fa:	d1 05       	cpc	r29, r1
     4fc:	1c f4       	brge	.+6      	; 0x504 <showFieldStrength+0x52>
            WingBar(2,2);
     4fe:	62 e0       	ldi	r22, 0x02	; 2
     500:	82 e0       	ldi	r24, 0x02	; 2
     502:	0e c0       	rjmp	.+28     	; 0x520 <showFieldStrength+0x6e>
        else if ( field < HALL_FIELD_3 )
     504:	c8 3c       	cpi	r28, 0xC8	; 200
     506:	d1 05       	cpc	r29, r1
     508:	1c f4       	brge	.+6      	; 0x510 <showFieldStrength+0x5e>
            WingBar(3,3);
     50a:	63 e0       	ldi	r22, 0x03	; 3
     50c:	83 e0       	ldi	r24, 0x03	; 3
     50e:	08 c0       	rjmp	.+16     	; 0x520 <showFieldStrength+0x6e>
        else if ( field < HALL_FIELD_4 )
     510:	cc 32       	cpi	r28, 0x2C	; 44
     512:	d1 40       	sbci	r29, 0x01	; 1
     514:	1c f4       	brge	.+6      	; 0x51c <showFieldStrength+0x6a>
            WingBar(4,4);
     516:	64 e0       	ldi	r22, 0x04	; 4
     518:	84 e0       	ldi	r24, 0x04	; 4
     51a:	02 c0       	rjmp	.+4      	; 0x520 <showFieldStrength+0x6e>
        else
            WingBar(5,5);
     51c:	65 e0       	ldi	r22, 0x05	; 5
     51e:	85 e0       	ldi	r24, 0x05	; 5
     520:	d2 d7       	rcall	.+4004   	; 0x14c6 <WingBar>
    }
}
     522:	df 91       	pop	r29
     524:	cf 91       	pop	r28
     526:	08 95       	ret

00000528 <MagnetMaze>:

// Main game loop
uint8_t MagnetMaze(){
     528:	cf 93       	push	r28
     52a:	df 93       	push	r29
    if (gameNow == MAZE && idleTimeout(mazeLastActive,MAZE_MAX_IDLE)) {
     52c:	80 91 4c 38 	lds	r24, 0x384C	; 0x80384c <gameNow>
     530:	81 30       	cpi	r24, 0x01	; 1
     532:	71 f4       	brne	.+28     	; 0x550 <MagnetMaze+0x28>
     534:	6a e0       	ldi	r22, 0x0A	; 10
     536:	70 e0       	ldi	r23, 0x00	; 0
     538:	80 91 56 38 	lds	r24, 0x3856	; 0x803856 <mazeLastActive>
     53c:	90 91 57 38 	lds	r25, 0x3857	; 0x803857 <mazeLastActive+0x1>
     540:	0e 94 63 0e 	call	0x1cc6	; 0x1cc6 <idleTimeout>
     544:	88 23       	and	r24, r24
     546:	21 f0       	breq	.+8      	; 0x550 <MagnetMaze+0x28>
        /* clean up maze game and go back to text game */
        initMaze();
     548:	9e df       	rcall	.-196    	; 0x486 <initMaze>
        gameNow = TEXT;
     54a:	10 92 4c 38 	sts	0x384C, r1	; 0x80384c <gameNow>
        return 0;
     54e:	e5 c0       	rjmp	.+458    	; 0x71a <MagnetMaze+0x1f2>
    }
        
    if (CheckState(MAZE_INACTIVE))
     550:	87 ef       	ldi	r24, 0xF7	; 247
     552:	be d6       	rcall	.+3452   	; 0x12d0 <CheckState>
     554:	81 11       	cpse	r24, r1
     556:	e1 c0       	rjmp	.+450    	; 0x71a <MagnetMaze+0x1f2>
        return 0;

    if (CheckState(MAZE_COMPLETED))
     558:	8d e7       	ldi	r24, 0x7D	; 125
     55a:	ba d6       	rcall	.+3444   	; 0x12d0 <CheckState>
     55c:	81 11       	cpse	r24, r1
     55e:	dd c0       	rjmp	.+442    	; 0x71a <MagnetMaze+0x1f2>
     560:	80 91 4c 38 	lds	r24, 0x384C	; 0x80384c <gameNow>
        return 0;

    if ( (gameNow != TEXT) && (gameNow != MAZE) )
     564:	82 30       	cpi	r24, 0x02	; 2
     566:	08 f0       	brcs	.+2      	; 0x56a <MagnetMaze+0x42>
     568:	d8 c0       	rjmp	.+432    	; 0x71a <MagnetMaze+0x1f2>
     56a:	80 91 00 3b 	lds	r24, 0x3B00	; 0x803b00 <calHall>
        return 0;

    if (calHall == 0)
     56e:	90 91 01 3b 	lds	r25, 0x3B01	; 0x803b01 <calHall+0x1>
     572:	89 2b       	or	r24, r25
     574:	41 f4       	brne	.+16     	; 0x586 <MagnetMaze+0x5e>
     576:	80 91 cf 3a 	lds	r24, 0x3ACF	; 0x803acf <adcHall>
        calHall = adcHall;
     57a:	90 91 d0 3a 	lds	r25, 0x3AD0	; 0x803ad0 <adcHall+0x1>
     57e:	80 93 00 3b 	sts	0x3B00, r24	; 0x803b00 <calHall>
     582:	90 93 01 3b 	sts	0x3B01, r25	; 0x803b01 <calHall+0x1>
     586:	c0 91 cf 3a 	lds	r28, 0x3ACF	; 0x803acf <adcHall>

    int16_t valHall = adcHall - calHall;
     58a:	d0 91 d0 3a 	lds	r29, 0x3AD0	; 0x803ad0 <adcHall+0x1>
     58e:	80 91 00 3b 	lds	r24, 0x3B00	; 0x803b00 <calHall>
     592:	90 91 01 3b 	lds	r25, 0x3B01	; 0x803b01 <calHall+0x1>
     596:	c8 1b       	sub	r28, r24
     598:	d9 0b       	sbc	r29, r25
    showFieldStrength(valHall);
     59a:	ce 01       	movw	r24, r28
     59c:	8a df       	rcall	.-236    	; 0x4b2 <showFieldStrength>
     59e:	80 91 5d 38 	lds	r24, 0x385D	; 0x80385d <curHallState>

    switch (curHallState) {
     5a2:	81 30       	cpi	r24, 0x01	; 1
     5a4:	89 f0       	breq	.+34     	; 0x5c8 <MagnetMaze+0xa0>
     5a6:	18 f0       	brcs	.+6      	; 0x5ae <MagnetMaze+0x86>
     5a8:	82 30       	cpi	r24, 0x02	; 2
     5aa:	c1 f0       	breq	.+48     	; 0x5dc <MagnetMaze+0xb4>
     5ac:	1f c0       	rjmp	.+62     	; 0x5ec <MagnetMaze+0xc4>
     5ae:	c4 3d       	cpi	r28, 0xD4	; 212
        case 0:
            if ( valHall + HALL_HIGH < 0 ) {
     5b0:	9e ef       	ldi	r25, 0xFE	; 254
     5b2:	d9 07       	cpc	r29, r25
     5b4:	14 f4       	brge	.+4      	; 0x5ba <MagnetMaze+0x92>
     5b6:	91 e0       	ldi	r25, 0x01	; 1
                newHallState = 1;
     5b8:	04 c0       	rjmp	.+8      	; 0x5c2 <MagnetMaze+0x9a>
     5ba:	cd 32       	cpi	r28, 0x2D	; 45
            } else if ( valHall - HALL_HIGH > 0 ) {
     5bc:	d1 40       	sbci	r29, 0x01	; 1
     5be:	5c f0       	brlt	.+22     	; 0x5d6 <MagnetMaze+0xae>
     5c0:	92 e0       	ldi	r25, 0x02	; 2
                newHallState = 2;
     5c2:	90 93 5c 38 	sts	0x385C, r25	; 0x80385c <newHallState>
     5c6:	12 c0       	rjmp	.+36     	; 0x5ec <MagnetMaze+0xc4>
     5c8:	cd 32       	cpi	r28, 0x2D	; 45
                newHallState = 0;
            }
            break;
        
        case 1:
            if ( valHall - HALL_HIGH > 0 ) {
     5ca:	91 e0       	ldi	r25, 0x01	; 1
     5cc:	d9 07       	cpc	r29, r25
     5ce:	c4 f7       	brge	.-16     	; 0x5c0 <MagnetMaze+0x98>
     5d0:	c9 38       	cpi	r28, 0x89	; 137
                newHallState = 2;
            } else if ( valHall + HALL_LOW > 0 ) {
     5d2:	df 4f       	sbci	r29, 0xFF	; 255
     5d4:	84 f3       	brlt	.-32     	; 0x5b6 <MagnetMaze+0x8e>
     5d6:	10 92 5c 38 	sts	0x385C, r1	; 0x80385c <newHallState>
            if ( valHall + HALL_HIGH < 0 ) {
                newHallState = 1;
            } else if ( valHall - HALL_HIGH > 0 ) {
                newHallState = 2;
            } else {
                newHallState = 0;
     5da:	08 c0       	rjmp	.+16     	; 0x5ec <MagnetMaze+0xc4>
     5dc:	c4 3d       	cpi	r28, 0xD4	; 212
                newHallState = 1;
            }
            break;
        
        case 2:
            if ( valHall + HALL_HIGH < 0 ) {
     5de:	9e ef       	ldi	r25, 0xFE	; 254
     5e0:	d9 07       	cpc	r29, r25
     5e2:	4c f3       	brlt	.-46     	; 0x5b6 <MagnetMaze+0x8e>
     5e4:	c8 37       	cpi	r28, 0x78	; 120
                newHallState = 1;
            } else if ( valHall - HALL_LOW < 0 ) {
     5e6:	d1 05       	cpc	r29, r1
     5e8:	b4 f3       	brlt	.-20     	; 0x5d6 <MagnetMaze+0xae>
     5ea:	ea cf       	rjmp	.-44     	; 0x5c0 <MagnetMaze+0x98>
     5ec:	c0 91 3c bf 	lds	r28, 0xBF3C	; 0x80bf3c <__bss_end+0x8415>
            }
            break;
    }

    /* Indicate that the magnet was read succesfully */
    iLED[CAT] = (newHallState ? dimValue : 0);
     5f0:	ec 2f       	mov	r30, r28
     5f2:	f0 e0       	ldi	r31, 0x00	; 0
     5f4:	90 91 5c 38 	lds	r25, 0x385C	; 0x80385c <newHallState>
     5f8:	99 23       	and	r25, r25
     5fa:	19 f0       	breq	.+6      	; 0x602 <MagnetMaze+0xda>
     5fc:	20 91 0c 38 	lds	r18, 0x380C	; 0x80380c <dimValue>
     600:	01 c0       	rjmp	.+2      	; 0x604 <MagnetMaze+0xdc>
     602:	20 e0       	ldi	r18, 0x00	; 0
     604:	e8 52       	subi	r30, 0x28	; 40
     606:	f5 4c       	sbci	r31, 0xC5	; 197
     608:	20 83       	st	Z, r18
     60a:	89 17       	cp	r24, r25

    if (newHallState != curHallState) {
     60c:	09 f4       	brne	.+2      	; 0x610 <MagnetMaze+0xe8>
     60e:	85 c0       	rjmp	.+266    	; 0x71a <MagnetMaze+0x1f2>
     610:	0e 94 54 0e 	call	0x1ca8	; 0x1ca8 <getClock>
        /* keep track of time to enable an idle timeout to exit the game */
        mazeLastActive = getClock();
     614:	80 93 56 38 	sts	0x3856, r24	; 0x803856 <mazeLastActive>
     618:	90 93 57 38 	sts	0x3857, r25	; 0x803857 <mazeLastActive+0x1>
     61c:	90 91 5b 38 	lds	r25, 0x385B	; 0x80385b <mazePos>

        /* Make the maze work regardless of badge orientation */
        if ((mazePos == 0) && (newHallState != 0))
     620:	80 91 5c 38 	lds	r24, 0x385C	; 0x80385c <newHallState>
     624:	91 11       	cpse	r25, r1
     626:	08 c0       	rjmp	.+16     	; 0x638 <MagnetMaze+0x110>
     628:	88 23       	and	r24, r24
     62a:	31 f0       	breq	.+12     	; 0x638 <MagnetMaze+0x110>
     62c:	91 e0       	ldi	r25, 0x01	; 1
            inverted = (newHallState != mazeCode[0]) ? TRUE : FALSE;
     62e:	81 30       	cpi	r24, 0x01	; 1
     630:	09 f4       	brne	.+2      	; 0x634 <MagnetMaze+0x10c>
     632:	90 e0       	ldi	r25, 0x00	; 0
     634:	90 93 58 38 	sts	0x3858, r25	; 0x803858 <inverted>
     638:	80 93 5d 38 	sts	0x385D, r24	; 0x80385d <curHallState>

        curHallState = newHallState;
     63c:	88 23       	and	r24, r24
        
        if (curHallState != 0) {
     63e:	09 f4       	brne	.+2      	; 0x642 <MagnetMaze+0x11a>
     640:	6c c0       	rjmp	.+216    	; 0x71a <MagnetMaze+0x1f2>
     642:	8f e9       	ldi	r24, 0x9F	; 159
            effect = 0x19f;
     644:	91 e0       	ldi	r25, 0x01	; 1
     646:	80 93 4a 38 	sts	0x384A, r24	; 0x80384a <effect>
     64a:	90 93 4b 38 	sts	0x384B, r25	; 0x80384b <effect+0x1>
     64e:	80 91 4c 38 	lds	r24, 0x384C	; 0x80384c <gameNow>
            if (gameNow == TEXT)
     652:	81 11       	cpse	r24, r1
     654:	01 c0       	rjmp	.+2      	; 0x658 <MagnetMaze+0x130>
                initMaze();
     656:	17 df       	rcall	.-466    	; 0x486 <initMaze>
     658:	81 e0       	ldi	r24, 0x01	; 1
            gameNow = MAZE;
     65a:	80 93 4c 38 	sts	0x384C, r24	; 0x80384c <gameNow>
     65e:	80 91 58 38 	lds	r24, 0x3858	; 0x803858 <inverted>

            if ( (inverted ? curHallState^3 : curHallState) == mazeCode[mazePos]) {
     662:	20 91 5d 38 	lds	r18, 0x385D	; 0x80385d <curHallState>
     666:	88 23       	and	r24, r24
     668:	11 f0       	breq	.+4      	; 0x66e <MagnetMaze+0x146>
     66a:	83 e0       	ldi	r24, 0x03	; 3
     66c:	28 27       	eor	r18, r24
     66e:	30 e0       	ldi	r19, 0x00	; 0
     670:	80 91 5b 38 	lds	r24, 0x385B	; 0x80385b <mazePos>
     674:	e8 2f       	mov	r30, r24
     676:	f0 e0       	ldi	r31, 0x00	; 0
     678:	e6 59       	subi	r30, 0x96	; 150
     67a:	f0 44       	sbci	r31, 0x40	; 64
     67c:	40 81       	ld	r20, Z
     67e:	50 e0       	ldi	r21, 0x00	; 0
     680:	24 17       	cp	r18, r20
     682:	35 07       	cpc	r19, r21
     684:	91 f4       	brne	.+36     	; 0x6aa <MagnetMaze+0x182>
     686:	90 91 0d 38 	lds	r25, 0x380D	; 0x80380d <mazeState>
                mazeState &= TRUE;
     68a:	91 70       	andi	r25, 0x01	; 1
     68c:	90 93 0d 38 	sts	0x380D, r25	; 0x80380d <mazeState>
     690:	e0 91 4b bf 	lds	r30, 0xBF4B	; 0x80bf4b <__bss_end+0x8424>
                iLED[EYE[R][L]] = 0;
     694:	f0 e0       	ldi	r31, 0x00	; 0
     696:	e8 52       	subi	r30, 0x28	; 40
     698:	f5 4c       	sbci	r31, 0xC5	; 197
     69a:	10 82       	st	Z, r1
     69c:	e0 91 4a bf 	lds	r30, 0xBF4A	; 0x80bf4a <__bss_end+0x8423>
                iLED[EYE[R][R]] = 0;
     6a0:	f0 e0       	ldi	r31, 0x00	; 0
     6a2:	e8 52       	subi	r30, 0x28	; 40
     6a4:	f5 4c       	sbci	r31, 0xC5	; 197
     6a6:	10 82       	st	Z, r1
     6a8:	02 c0       	rjmp	.+4      	; 0x6ae <MagnetMaze+0x186>
     6aa:	10 92 0d 38 	sts	0x380D, r1	; 0x80380d <mazeState>
            } else {
                mazeState = FALSE;
     6ae:	8f 5f       	subi	r24, 0xFF	; 255
            }
            mazePos++;
     6b0:	80 93 5b 38 	sts	0x385B, r24	; 0x80385b <mazePos>
     6b4:	90 91 59 38 	lds	r25, 0x3859	; 0x803859 <mazeCnt>
            mazeCnt++;            
     6b8:	9f 5f       	subi	r25, 0xFF	; 255
     6ba:	93 30       	cpi	r25, 0x03	; 3
            if (mazeCnt >= 3) {
     6bc:	18 f4       	brcc	.+6      	; 0x6c4 <MagnetMaze+0x19c>
     6be:	90 93 59 38 	sts	0x3859, r25	; 0x803859 <mazeCnt>
                iLED[EYE[R][R]] = 0;
            } else {
                mazeState = FALSE;
            }
            mazePos++;
            mazeCnt++;            
     6c2:	2b c0       	rjmp	.+86     	; 0x71a <MagnetMaze+0x1f2>
     6c4:	10 92 59 38 	sts	0x3859, r1	; 0x803859 <mazeCnt>
            if (mazeCnt >= 3) {
                mazeCnt = 0;
     6c8:	90 91 0d 38 	lds	r25, 0x380D	; 0x80380d <mazeState>
                if (mazeState == TRUE) {
     6cc:	91 30       	cpi	r25, 0x01	; 1
     6ce:	e1 f4       	brne	.+56     	; 0x708 <MagnetMaze+0x1e0>
     6d0:	90 91 5a 38 	lds	r25, 0x385A	; 0x80385a <mazeHckrPos>
                    iLED[HCKR[G][mazeHckrPos]] = dimValue;
     6d4:	e9 2f       	mov	r30, r25
     6d6:	f0 e0       	ldi	r31, 0x00	; 0
     6d8:	e2 5b       	subi	r30, 0xB2	; 178
     6da:	f0 44       	sbci	r31, 0x40	; 64
     6dc:	e6 81       	ldd	r30, Z+6	; 0x06
     6de:	f0 e0       	ldi	r31, 0x00	; 0
     6e0:	20 91 0c 38 	lds	r18, 0x380C	; 0x80380c <dimValue>
     6e4:	e8 52       	subi	r30, 0x28	; 40
     6e6:	f5 4c       	sbci	r31, 0xC5	; 197
     6e8:	20 83       	st	Z, r18
     6ea:	9f 5f       	subi	r25, 0xFF	; 255
                    mazeHckrPos++;
     6ec:	90 93 5a 38 	sts	0x385A, r25	; 0x80385a <mazeHckrPos>
                    if (mazePos == sizeof(mazeCode)) {
     6f0:	82 31       	cpi	r24, 0x12	; 18
     6f2:	99 f4       	brne	.+38     	; 0x71a <MagnetMaze+0x1f2>
                        UpdateState(MAZE_COMPLETED);
     6f4:	8d e7       	ldi	r24, 0x7D	; 125
     6f6:	cb d5       	rcall	.+2966   	; 0x128e <UpdateState>
     6f8:	ec 2f       	mov	r30, r28
                        iLED[CAT]       = 0;
     6fa:	f0 e0       	ldi	r31, 0x00	; 0
     6fc:	e8 52       	subi	r30, 0x28	; 40
     6fe:	f5 4c       	sbci	r31, 0xC5	; 197
     700:	10 82       	st	Z, r1
                        effect = 0x42;
     702:	82 e4       	ldi	r24, 0x42	; 66
     704:	90 e0       	ldi	r25, 0x00	; 0
     706:	05 c0       	rjmp	.+10     	; 0x712 <MagnetMaze+0x1ea>
                        /*TODO state = STATE_MUSIC;*/
                    }
                } else {
                    initMaze();
     708:	be de       	rcall	.-644    	; 0x486 <initMaze>
     70a:	10 92 4c 38 	sts	0x384C, r1	; 0x80384c <gameNow>
                    gameNow   = TEXT;
     70e:	81 e3       	ldi	r24, 0x31	; 49
                    effect = 0x31;
     710:	90 e0       	ldi	r25, 0x00	; 0
     712:	80 93 4a 38 	sts	0x384A, r24	; 0x80384a <effect>
     716:	90 93 4b 38 	sts	0x384B, r25	; 0x80384b <effect+0x1>
     71a:	80 e0       	ldi	r24, 0x00	; 0
                }
            }
        }
    }
    return 0;
}
     71c:	df 91       	pop	r29
     71e:	cf 91       	pop	r28
     720:	08 95       	ret

00000722 <Setup>:
     722:	f8 94       	cli
    TCB1_CCMP = pitch;
    if (repeat) auRepAddr = auBuffer;
    else auSmpAddr = auBuffer;
    auVolume = volume;
    return 1;
}
     724:	88 ed       	ldi	r24, 0xD8	; 216
     726:	84 bf       	out	0x34, r24	; 52
     728:	81 e0       	ldi	r24, 0x01	; 1
     72a:	80 93 61 00 	sts	0x0061, r24	; 0x800061 <__TEXT_REGION_LENGTH__+0x700061>
     72e:	9a e4       	ldi	r25, 0x4A	; 74
     730:	90 93 00 04 	sts	0x0400, r25	; 0x800400 <__TEXT_REGION_LENGTH__+0x700400>
     734:	9c e7       	ldi	r25, 0x7C	; 124
     736:	90 93 20 04 	sts	0x0420, r25	; 0x800420 <__TEXT_REGION_LENGTH__+0x700420>
     73a:	2f e3       	ldi	r18, 0x3F	; 63
     73c:	20 93 40 04 	sts	0x0440, r18	; 0x800440 <__TEXT_REGION_LENGTH__+0x700440>
     740:	90 91 53 04 	lds	r25, 0x0453	; 0x800453 <__TEXT_REGION_LENGTH__+0x700453>
     744:	90 68       	ori	r25, 0x80	; 128
     746:	90 93 53 04 	sts	0x0453, r25	; 0x800453 <__TEXT_REGION_LENGTH__+0x700453>
     74a:	90 91 54 04 	lds	r25, 0x0454	; 0x800454 <__TEXT_REGION_LENGTH__+0x700454>
     74e:	90 68       	ori	r25, 0x80	; 128
     750:	90 93 54 04 	sts	0x0454, r25	; 0x800454 <__TEXT_REGION_LENGTH__+0x700454>
     754:	90 91 55 04 	lds	r25, 0x0455	; 0x800455 <__TEXT_REGION_LENGTH__+0x700455>
     758:	90 68       	ori	r25, 0x80	; 128
     75a:	90 93 55 04 	sts	0x0455, r25	; 0x800455 <__TEXT_REGION_LENGTH__+0x700455>
     75e:	90 91 33 04 	lds	r25, 0x0433	; 0x800433 <__TEXT_REGION_LENGTH__+0x700433>
     762:	90 68       	ori	r25, 0x80	; 128
     764:	90 93 33 04 	sts	0x0433, r25	; 0x800433 <__TEXT_REGION_LENGTH__+0x700433>
     768:	90 91 34 04 	lds	r25, 0x0434	; 0x800434 <__TEXT_REGION_LENGTH__+0x700434>
     76c:	90 68       	ori	r25, 0x80	; 128
     76e:	90 93 34 04 	sts	0x0434, r25	; 0x800434 <__TEXT_REGION_LENGTH__+0x700434>
     772:	90 91 35 04 	lds	r25, 0x0435	; 0x800435 <__TEXT_REGION_LENGTH__+0x700435>
     776:	90 68       	ori	r25, 0x80	; 128
     778:	90 93 35 04 	sts	0x0435, r25	; 0x800435 <__TEXT_REGION_LENGTH__+0x700435>
     77c:	80 93 01 02 	sts	0x0201, r24	; 0x800201 <__TEXT_REGION_LENGTH__+0x700201>
     780:	92 e0       	ldi	r25, 0x02	; 2
     782:	90 93 05 04 	sts	0x0405, r25	; 0x800405 <__TEXT_REGION_LENGTH__+0x700405>
     786:	4b e5       	ldi	r20, 0x5B	; 91
     788:	51 e0       	ldi	r21, 0x01	; 1
     78a:	40 93 08 08 	sts	0x0808, r20	; 0x800808 <__TEXT_REGION_LENGTH__+0x700808>
     78e:	50 93 09 08 	sts	0x0809, r21	; 0x800809 <__TEXT_REGION_LENGTH__+0x700809>
     792:	30 ea       	ldi	r19, 0xA0	; 160
     794:	30 93 05 08 	sts	0x0805, r19	; 0x800805 <__TEXT_REGION_LENGTH__+0x700805>
     798:	30 ec       	ldi	r19, 0xC0	; 192
     79a:	30 93 06 08 	sts	0x0806, r19	; 0x800806 <__TEXT_REGION_LENGTH__+0x700806>
     79e:	33 e0       	ldi	r19, 0x03	; 3
     7a0:	30 93 07 08 	sts	0x0807, r19	; 0x800807 <__TEXT_REGION_LENGTH__+0x700807>
     7a4:	1c ba       	out	0x1c, r1	; 28
     7a6:	1d ba       	out	0x1d, r1	; 29
     7a8:	1f ba       	out	0x1f, r1	; 31
     7aa:	80 93 03 0a 	sts	0x0A03, r24	; 0x800a03 <__TEXT_REGION_LENGTH__+0x700a03>
     7ae:	38 e0       	ldi	r19, 0x08	; 8
     7b0:	30 93 00 0a 	sts	0x0A00, r19	; 0x800a00 <__TEXT_REGION_LENGTH__+0x700a00>
     7b4:	20 93 02 02 	sts	0x0202, r18	; 0x800202 <__TEXT_REGION_LENGTH__+0x700202>
     7b8:	27 e7       	ldi	r18, 0x77	; 119
     7ba:	20 93 01 0a 	sts	0x0A01, r18	; 0x800a01 <__TEXT_REGION_LENGTH__+0x700a01>
     7be:	80 93 0a 0a 	sts	0x0A0A, r24	; 0x800a0a <__TEXT_REGION_LENGTH__+0x700a0a>
     7c2:	2b e0       	ldi	r18, 0x0B	; 11
     7c4:	20 93 05 0a 	sts	0x0A05, r18	; 0x800a05 <__TEXT_REGION_LENGTH__+0x700a05>
     7c8:	20 91 00 0a 	lds	r18, 0x0A00	; 0x800a00 <__TEXT_REGION_LENGTH__+0x700a00>
     7cc:	21 60       	ori	r18, 0x01	; 1
     7ce:	20 93 00 0a 	sts	0x0A00, r18	; 0x800a00 <__TEXT_REGION_LENGTH__+0x700a00>
     7d2:	25 e0       	ldi	r18, 0x05	; 5
     7d4:	20 93 40 0a 	sts	0x0A40, r18	; 0x800a40 <__TEXT_REGION_LENGTH__+0x700a40>
     7d8:	10 92 41 0a 	sts	0x0A41, r1	; 0x800a41 <__TEXT_REGION_LENGTH__+0x700a41>
     7dc:	2f ef       	ldi	r18, 0xFF	; 255
     7de:	31 e0       	ldi	r19, 0x01	; 1
     7e0:	20 93 4c 0a 	sts	0x0A4C, r18	; 0x800a4c <__TEXT_REGION_LENGTH__+0x700a4c>
     7e4:	30 93 4d 0a 	sts	0x0A4D, r19	; 0x800a4d <__TEXT_REGION_LENGTH__+0x700a4d>
     7e8:	10 92 45 0a 	sts	0x0A45, r1	; 0x800a45 <__TEXT_REGION_LENGTH__+0x700a45>
     7ec:	80 93 50 0a 	sts	0x0A50, r24	; 0x800a50 <__TEXT_REGION_LENGTH__+0x700a50>
     7f0:	10 92 51 0a 	sts	0x0A51, r1	; 0x800a51 <__TEXT_REGION_LENGTH__+0x700a51>
     7f4:	2b e8       	ldi	r18, 0x8B	; 139
     7f6:	33 e0       	ldi	r19, 0x03	; 3
     7f8:	20 93 5c 0a 	sts	0x0A5C, r18	; 0x800a5c <__TEXT_REGION_LENGTH__+0x700a5c>
     7fc:	30 93 5d 0a 	sts	0x0A5D, r19	; 0x800a5d <__TEXT_REGION_LENGTH__+0x700a5d>
     800:	80 93 55 0a 	sts	0x0A55, r24	; 0x800a55 <__TEXT_REGION_LENGTH__+0x700a55>
     804:	2c e0       	ldi	r18, 0x0C	; 12
     806:	20 93 16 08 	sts	0x0816, r18	; 0x800816 <__TEXT_REGION_LENGTH__+0x700816>
     80a:	23 ec       	ldi	r18, 0xC3	; 195
     80c:	20 93 13 08 	sts	0x0813, r18	; 0x800813 <__TEXT_REGION_LENGTH__+0x700813>
     810:	20 91 15 08 	lds	r18, 0x0815	; 0x800815 <__TEXT_REGION_LENGTH__+0x700815>
     814:	21 60       	ori	r18, 0x01	; 1
     816:	20 93 15 08 	sts	0x0815, r18	; 0x800815 <__TEXT_REGION_LENGTH__+0x700815>
     81a:	20 91 15 08 	lds	r18, 0x0815	; 0x800815 <__TEXT_REGION_LENGTH__+0x700815>
     81e:	24 6c       	ori	r18, 0xC4	; 196
     820:	20 93 15 08 	sts	0x0815, r18	; 0x800815 <__TEXT_REGION_LENGTH__+0x700815>
     824:	22 e1       	ldi	r18, 0x12	; 18
     826:	20 93 a0 00 	sts	0x00A0, r18	; 0x8000a0 <__TEXT_REGION_LENGTH__+0x7000a0>
     82a:	20 e2       	ldi	r18, 0x20	; 32
     82c:	20 93 a2 00 	sts	0x00A2, r18	; 0x8000a2 <__TEXT_REGION_LENGTH__+0x7000a2>
     830:	80 93 a1 00 	sts	0x00A1, r24	; 0x8000a1 <__TEXT_REGION_LENGTH__+0x7000a1>
     834:	90 93 00 06 	sts	0x0600, r25	; 0x800600 <__TEXT_REGION_LENGTH__+0x700600>
     838:	24 e4       	ldi	r18, 0x44	; 68
     83a:	20 93 02 06 	sts	0x0602, r18	; 0x800602 <__TEXT_REGION_LENGTH__+0x700602>
     83e:	2e e1       	ldi	r18, 0x1E	; 30
     840:	20 93 06 06 	sts	0x0606, r18	; 0x800606 <__TEXT_REGION_LENGTH__+0x700606>
     844:	80 93 0a 06 	sts	0x060A, r24	; 0x80060a <__TEXT_REGION_LENGTH__+0x70060a>
     848:	20 91 00 06 	lds	r18, 0x0600	; 0x800600 <__TEXT_REGION_LENGTH__+0x700600>
     84c:	21 60       	ori	r18, 0x01	; 1
     84e:	20 93 00 06 	sts	0x0600, r18	; 0x800600 <__TEXT_REGION_LENGTH__+0x700600>
     852:	80 93 08 06 	sts	0x0608, r24	; 0x800608 <__TEXT_REGION_LENGTH__+0x700608>
     856:	10 92 40 06 	sts	0x0640, r1	; 0x800640 <__TEXT_REGION_LENGTH__+0x700640>
     85a:	90 93 41 06 	sts	0x0641, r25	; 0x800641 <__TEXT_REGION_LENGTH__+0x700641>
     85e:	92 e5       	ldi	r25, 0x52	; 82
     860:	90 93 42 06 	sts	0x0642, r25	; 0x800642 <__TEXT_REGION_LENGTH__+0x700642>
     864:	94 e0       	ldi	r25, 0x04	; 4
     866:	90 93 45 06 	sts	0x0645, r25	; 0x800645 <__TEXT_REGION_LENGTH__+0x700645>
     86a:	90 93 46 06 	sts	0x0646, r25	; 0x800646 <__TEXT_REGION_LENGTH__+0x700646>
     86e:	80 93 4a 06 	sts	0x064A, r24	; 0x80064a <__TEXT_REGION_LENGTH__+0x70064a>
     872:	90 91 40 06 	lds	r25, 0x0640	; 0x800640 <__TEXT_REGION_LENGTH__+0x700640>
     876:	91 60       	ori	r25, 0x01	; 1
     878:	90 93 40 06 	sts	0x0640, r25	; 0x800640 <__TEXT_REGION_LENGTH__+0x700640>
     87c:	80 93 48 06 	sts	0x0648, r24	; 0x800648 <__TEXT_REGION_LENGTH__+0x700648>
     880:	80 e4       	ldi	r24, 0x40	; 64
     882:	80 93 a0 06 	sts	0x06A0, r24	; 0x8006a0 <__TEXT_REGION_LENGTH__+0x7006a0>
     886:	80 e8       	ldi	r24, 0x80	; 128
     888:	80 93 a1 06 	sts	0x06A1, r24	; 0x8006a1 <__TEXT_REGION_LENGTH__+0x7006a1>
     88c:	80 91 a0 06 	lds	r24, 0x06A0	; 0x8006a0 <__TEXT_REGION_LENGTH__+0x7006a0>
     890:	81 60       	ori	r24, 0x01	; 1
     892:	80 93 a0 06 	sts	0x06A0, r24	; 0x8006a0 <__TEXT_REGION_LENGTH__+0x7006a0>
     896:	80 91 41 01 	lds	r24, 0x0141	; 0x800141 <__TEXT_REGION_LENGTH__+0x700141>
     89a:	80 fd       	sbrc	r24, 0
     89c:	fc cf       	rjmp	.-8      	; 0x896 <Setup+0x174>
     89e:	80 e3       	ldi	r24, 0x30	; 48
     8a0:	80 93 40 01 	sts	0x0140, r24	; 0x800140 <__TEXT_REGION_LENGTH__+0x700140>
     8a4:	10 92 47 01 	sts	0x0147, r1	; 0x800147 <__TEXT_REGION_LENGTH__+0x700147>
     8a8:	80 91 41 01 	lds	r24, 0x0141	; 0x800141 <__TEXT_REGION_LENGTH__+0x700141>
     8ac:	82 fd       	sbrc	r24, 2
     8ae:	fc cf       	rjmp	.-8      	; 0x8a8 <Setup+0x186>
     8b0:	80 e0       	ldi	r24, 0x00	; 0
     8b2:	98 e7       	ldi	r25, 0x78	; 120
     8b4:	80 93 4a 01 	sts	0x014A, r24	; 0x80014a <__TEXT_REGION_LENGTH__+0x70014a>
     8b8:	90 93 4b 01 	sts	0x014B, r25	; 0x80014b <__TEXT_REGION_LENGTH__+0x70014b>
     8bc:	80 91 48 01 	lds	r24, 0x0148	; 0x800148 <__TEXT_REGION_LENGTH__+0x700148>
     8c0:	90 91 49 01 	lds	r25, 0x0149	; 0x800149 <__TEXT_REGION_LENGTH__+0x700149>
     8c4:	82 96       	adiw	r24, 0x22	; 34
     8c6:	80 93 04 3b 	sts	0x3B04, r24	; 0x803b04 <tmp16bit>
     8ca:	90 93 05 3b 	sts	0x3B05, r25	; 0x803b05 <tmp16bit+0x1>
     8ce:	20 91 4a 01 	lds	r18, 0x014A	; 0x80014a <__TEXT_REGION_LENGTH__+0x70014a>
     8d2:	30 91 4b 01 	lds	r19, 0x014B	; 0x80014b <__TEXT_REGION_LENGTH__+0x70014b>
     8d6:	80 91 04 3b 	lds	r24, 0x3B04	; 0x803b04 <tmp16bit>
     8da:	90 91 05 3b 	lds	r25, 0x3B05	; 0x803b05 <tmp16bit+0x1>
     8de:	28 17       	cp	r18, r24
     8e0:	39 07       	cpc	r19, r25
     8e2:	70 f4       	brcc	.+28     	; 0x900 <Setup+0x1de>
     8e4:	20 91 4a 01 	lds	r18, 0x014A	; 0x80014a <__TEXT_REGION_LENGTH__+0x70014a>
     8e8:	30 91 4b 01 	lds	r19, 0x014B	; 0x80014b <__TEXT_REGION_LENGTH__+0x70014b>
     8ec:	80 91 04 3b 	lds	r24, 0x3B04	; 0x803b04 <tmp16bit>
     8f0:	90 91 05 3b 	lds	r25, 0x3B05	; 0x803b05 <tmp16bit+0x1>
     8f4:	82 1b       	sub	r24, r18
     8f6:	93 0b       	sbc	r25, r19
     8f8:	80 93 04 3b 	sts	0x3B04, r24	; 0x803b04 <tmp16bit>
     8fc:	90 93 05 3b 	sts	0x3B05, r25	; 0x803b05 <tmp16bit+0x1>
     900:	80 91 41 01 	lds	r24, 0x0141	; 0x800141 <__TEXT_REGION_LENGTH__+0x700141>
     904:	83 fd       	sbrc	r24, 3
     906:	fc cf       	rjmp	.-8      	; 0x900 <Setup+0x1de>
     908:	80 91 04 3b 	lds	r24, 0x3B04	; 0x803b04 <tmp16bit>
     90c:	90 91 05 3b 	lds	r25, 0x3B05	; 0x803b05 <tmp16bit+0x1>
     910:	80 93 4c 01 	sts	0x014C, r24	; 0x80014c <__TEXT_REGION_LENGTH__+0x70014c>
     914:	90 93 4d 01 	sts	0x014D, r25	; 0x80014d <__TEXT_REGION_LENGTH__+0x70014d>
     918:	83 e0       	ldi	r24, 0x03	; 3
     91a:	80 93 42 01 	sts	0x0142, r24	; 0x800142 <__TEXT_REGION_LENGTH__+0x700142>
     91e:	81 e0       	ldi	r24, 0x01	; 1
     920:	80 93 52 01 	sts	0x0152, r24	; 0x800152 <__TEXT_REGION_LENGTH__+0x700152>
     924:	88 e0       	ldi	r24, 0x08	; 8
     926:	80 93 50 01 	sts	0x0150, r24	; 0x800150 <__TEXT_REGION_LENGTH__+0x700150>
     92a:	80 91 41 01 	lds	r24, 0x0141	; 0x800141 <__TEXT_REGION_LENGTH__+0x700141>
     92e:	80 fd       	sbrc	r24, 0
     930:	fc cf       	rjmp	.-8      	; 0x92a <Setup+0x208>
     932:	80 91 40 01 	lds	r24, 0x0140	; 0x800140 <__TEXT_REGION_LENGTH__+0x700140>
     936:	81 60       	ori	r24, 0x01	; 1
     938:	80 93 40 01 	sts	0x0140, r24	; 0x800140 <__TEXT_REGION_LENGTH__+0x700140>
     93c:	80 91 50 01 	lds	r24, 0x0150	; 0x800150 <__TEXT_REGION_LENGTH__+0x700150>
     940:	81 60       	ori	r24, 0x01	; 1
     942:	80 93 50 01 	sts	0x0150, r24	; 0x800150 <__TEXT_REGION_LENGTH__+0x700150>
     946:	10 92 87 3a 	sts	0x3A87, r1	; 0x803a87 <serRx>
     94a:	87 e8       	ldi	r24, 0x87	; 135
     94c:	9a e3       	ldi	r25, 0x3A	; 58
     94e:	80 93 cd 3a 	sts	0x3ACD, r24	; 0x803acd <serTxAddr>
     952:	90 93 ce 3a 	sts	0x3ACE, r25	; 0x803ace <serTxAddr+0x1>
     956:	8f ef       	ldi	r24, 0xFF	; 255
     958:	80 93 48 38 	sts	0x3848, r24	; 0x803848 <adc0Chg>
     95c:	78 94       	sei
     95e:	08 95       	ret

00000960 <__vector_8>:
     960:	1f 92       	push	r1
     962:	0f 92       	push	r0
     964:	0f b6       	in	r0, 0x3f	; 63
     966:	0f 92       	push	r0
     968:	11 24       	eor	r1, r1
     96a:	8f 93       	push	r24
     96c:	9f 93       	push	r25
     96e:	af 93       	push	r26
     970:	bf 93       	push	r27
     972:	ef 93       	push	r30
     974:	ff 93       	push	r31
     976:	87 e0       	ldi	r24, 0x07	; 7
     978:	80 93 46 04 	sts	0x0446, r24	; 0x800446 <__TEXT_REGION_LENGTH__+0x700446>
     97c:	84 e4       	ldi	r24, 0x44	; 68
     97e:	80 93 26 04 	sts	0x0426, r24	; 0x800426 <__TEXT_REGION_LENGTH__+0x700426>
     982:	ec b3       	in	r30, 0x1c	; 28
     984:	88 e0       	ldi	r24, 0x08	; 8
     986:	e8 9f       	mul	r30, r24
     988:	f0 01       	movw	r30, r0
     98a:	11 24       	eor	r1, r1
     98c:	e8 52       	subi	r30, 0x28	; 40
     98e:	f5 4c       	sbci	r31, 0xC5	; 197
     990:	a8 e2       	ldi	r26, 0x28	; 40
     992:	ba e0       	ldi	r27, 0x0A	; 10
     994:	96 e0       	ldi	r25, 0x06	; 6
     996:	81 91       	ld	r24, Z+
     998:	8d 93       	st	X+, r24
     99a:	9a 95       	dec	r25
     99c:	e1 f7       	brne	.-8      	; 0x996 <__vector_8+0x36>
     99e:	8b e0       	ldi	r24, 0x0B	; 11
     9a0:	80 93 05 0a 	sts	0x0A05, r24	; 0x800a05 <__TEXT_REGION_LENGTH__+0x700a05>
     9a4:	8c b3       	in	r24, 0x1c	; 28
     9a6:	83 30       	cpi	r24, 0x03	; 3
     9a8:	58 f4       	brcc	.+22     	; 0x9c0 <__vector_8+0x60>
     9aa:	8c b3       	in	r24, 0x1c	; 28
     9ac:	91 e0       	ldi	r25, 0x01	; 1
     9ae:	01 c0       	rjmp	.+2      	; 0x9b2 <__vector_8+0x52>
     9b0:	99 0f       	add	r25, r25
     9b2:	8a 95       	dec	r24
     9b4:	ea f7       	brpl	.-6      	; 0x9b0 <__vector_8+0x50>
     9b6:	99 b9       	out	0x09, r25	; 9
     9b8:	8c b3       	in	r24, 0x1c	; 28
     9ba:	83 95       	inc	r24
     9bc:	8c bb       	out	0x1c, r24	; 28
     9be:	0a c0       	rjmp	.+20     	; 0x9d4 <__vector_8+0x74>
     9c0:	8c b3       	in	r24, 0x1c	; 28
     9c2:	83 30       	cpi	r24, 0x03	; 3
     9c4:	21 f4       	brne	.+8      	; 0x9ce <__vector_8+0x6e>
     9c6:	2a 9a       	sbi	0x05, 2	; 5
     9c8:	83 95       	inc	r24
     9ca:	8c bb       	out	0x1c, r24	; 28
     9cc:	03 c0       	rjmp	.+6      	; 0x9d4 <__vector_8+0x74>
     9ce:	2e 9a       	sbi	0x05, 6	; 5
     9d0:	88 27       	eor	r24, r24
     9d2:	8c bb       	out	0x1c, r24	; 28
     9d4:	8f ef       	ldi	r24, 0xFF	; 255
     9d6:	80 93 0b 0a 	sts	0x0A0B, r24	; 0x800a0b <__TEXT_REGION_LENGTH__+0x700a0b>
     9da:	ff 91       	pop	r31
     9dc:	ef 91       	pop	r30
     9de:	bf 91       	pop	r27
     9e0:	af 91       	pop	r26
     9e2:	9f 91       	pop	r25
     9e4:	8f 91       	pop	r24
     9e6:	0f 90       	pop	r0
     9e8:	0f be       	out	0x3f, r0	; 63
     9ea:	0f 90       	pop	r0
     9ec:	1f 90       	pop	r1
     9ee:	18 95       	reti

000009f0 <__vector_13>:
     9f0:	1f 92       	push	r1
     9f2:	0f 92       	push	r0
     9f4:	0f b6       	in	r0, 0x3f	; 63
     9f6:	0f 92       	push	r0
     9f8:	11 24       	eor	r1, r1
     9fa:	8f 93       	push	r24
     9fc:	9f 93       	push	r25
     9fe:	ef 93       	push	r30
     a00:	ff 93       	push	r31
     a02:	e0 91 cd 3a 	lds	r30, 0x3ACD	; 0x803acd <serTxAddr>
     a06:	f0 91 ce 3a 	lds	r31, 0x3ACE	; 0x803ace <serTxAddr+0x1>
     a0a:	80 81       	ld	r24, Z
     a0c:	88 23       	and	r24, r24
     a0e:	91 f0       	breq	.+36     	; 0xa34 <__vector_13+0x44>
     a10:	80 81       	ld	r24, Z
     a12:	80 93 02 08 	sts	0x0802, r24	; 0x800802 <__TEXT_REGION_LENGTH__+0x700802>
     a16:	80 91 cd 3a 	lds	r24, 0x3ACD	; 0x803acd <serTxAddr>
     a1a:	90 91 ce 3a 	lds	r25, 0x3ACE	; 0x803ace <serTxAddr+0x1>
     a1e:	01 96       	adiw	r24, 0x01	; 1
     a20:	80 93 cd 3a 	sts	0x3ACD, r24	; 0x803acd <serTxAddr>
     a24:	90 93 ce 3a 	sts	0x3ACE, r25	; 0x803ace <serTxAddr+0x1>
     a28:	80 91 05 08 	lds	r24, 0x0805	; 0x800805 <__TEXT_REGION_LENGTH__+0x700805>
     a2c:	80 62       	ori	r24, 0x20	; 32
     a2e:	80 93 05 08 	sts	0x0805, r24	; 0x800805 <__TEXT_REGION_LENGTH__+0x700805>
     a32:	05 c0       	rjmp	.+10     	; 0xa3e <__vector_13+0x4e>
     a34:	81 e0       	ldi	r24, 0x01	; 1
     a36:	80 93 09 38 	sts	0x3809, r24	; 0x803809 <serTxDone>
     a3a:	10 92 45 0a 	sts	0x0A45, r1	; 0x800a45 <__TEXT_REGION_LENGTH__+0x700a45>
     a3e:	81 e0       	ldi	r24, 0x01	; 1
     a40:	80 93 46 0a 	sts	0x0A46, r24	; 0x800a46 <__TEXT_REGION_LENGTH__+0x700a46>
     a44:	ff 91       	pop	r31
     a46:	ef 91       	pop	r30
     a48:	9f 91       	pop	r25
     a4a:	8f 91       	pop	r24
     a4c:	0f 90       	pop	r0
     a4e:	0f be       	out	0x3f, r0	; 63
     a50:	0f 90       	pop	r0
     a52:	1f 90       	pop	r1
     a54:	18 95       	reti

00000a56 <__vector_14>:
     a56:	1f 92       	push	r1
     a58:	0f 92       	push	r0
     a5a:	0f b6       	in	r0, 0x3f	; 63
     a5c:	0f 92       	push	r0
     a5e:	11 24       	eor	r1, r1
     a60:	2f 93       	push	r18
     a62:	3f 93       	push	r19
     a64:	4f 93       	push	r20
     a66:	8f 93       	push	r24
     a68:	9f 93       	push	r25
     a6a:	ef 93       	push	r30
     a6c:	ff 93       	push	r31
     a6e:	e0 91 05 38 	lds	r30, 0x3805	; 0x803805 <auSmpAddr>
     a72:	f0 91 06 38 	lds	r31, 0x3806	; 0x803806 <auSmpAddr+0x1>
     a76:	80 81       	ld	r24, Z
     a78:	81 11       	cpse	r24, r1
     a7a:	08 c0       	rjmp	.+16     	; 0xa8c <__vector_14+0x36>
     a7c:	80 91 03 38 	lds	r24, 0x3803	; 0x803803 <auRepAddr>
     a80:	90 91 04 38 	lds	r25, 0x3804	; 0x803804 <auRepAddr+0x1>
     a84:	80 93 05 38 	sts	0x3805, r24	; 0x803805 <auSmpAddr>
     a88:	90 93 06 38 	sts	0x3806, r25	; 0x803806 <auSmpAddr+0x1>
     a8c:	e0 91 05 38 	lds	r30, 0x3805	; 0x803805 <auSmpAddr>
     a90:	f0 91 06 38 	lds	r31, 0x3806	; 0x803806 <auSmpAddr+0x1>
     a94:	80 81       	ld	r24, Z
     a96:	88 23       	and	r24, r24
     a98:	e1 f0       	breq	.+56     	; 0xad2 <__vector_14+0x7c>
     a9a:	20 81       	ld	r18, Z
     a9c:	40 91 ca 3a 	lds	r20, 0x3ACA	; 0x803aca <auVolume>
     aa0:	30 e0       	ldi	r19, 0x00	; 0
     aa2:	2f 57       	subi	r18, 0x7F	; 127
     aa4:	31 09       	sbc	r19, r1
     aa6:	42 9f       	mul	r20, r18
     aa8:	c0 01       	movw	r24, r0
     aaa:	43 9f       	mul	r20, r19
     aac:	90 0d       	add	r25, r0
     aae:	11 24       	eor	r1, r1
     ab0:	89 2f       	mov	r24, r25
     ab2:	99 0f       	add	r25, r25
     ab4:	99 0b       	sbc	r25, r25
     ab6:	80 58       	subi	r24, 0x80	; 128
     ab8:	9f 4f       	sbci	r25, 0xFF	; 255
     aba:	80 93 a1 06 	sts	0x06A1, r24	; 0x8006a1 <__TEXT_REGION_LENGTH__+0x7006a1>
     abe:	80 91 05 38 	lds	r24, 0x3805	; 0x803805 <auSmpAddr>
     ac2:	90 91 06 38 	lds	r25, 0x3806	; 0x803806 <auSmpAddr+0x1>
     ac6:	01 96       	adiw	r24, 0x01	; 1
     ac8:	80 93 05 38 	sts	0x3805, r24	; 0x803805 <auSmpAddr>
     acc:	90 93 06 38 	sts	0x3806, r25	; 0x803806 <auSmpAddr+0x1>
     ad0:	06 c0       	rjmp	.+12     	; 0xade <__vector_14+0x88>
     ad2:	8f ef       	ldi	r24, 0xFF	; 255
     ad4:	80 93 ca 3a 	sts	0x3ACA, r24	; 0x803aca <auVolume>
     ad8:	80 e8       	ldi	r24, 0x80	; 128
     ada:	80 93 a1 06 	sts	0x06A1, r24	; 0x8006a1 <__TEXT_REGION_LENGTH__+0x7006a1>
     ade:	81 e0       	ldi	r24, 0x01	; 1
     ae0:	80 93 56 0a 	sts	0x0A56, r24	; 0x800a56 <__TEXT_REGION_LENGTH__+0x700a56>
     ae4:	ff 91       	pop	r31
     ae6:	ef 91       	pop	r30
     ae8:	9f 91       	pop	r25
     aea:	8f 91       	pop	r24
     aec:	4f 91       	pop	r20
     aee:	3f 91       	pop	r19
     af0:	2f 91       	pop	r18
     af2:	0f 90       	pop	r0
     af4:	0f be       	out	0x3f, r0	; 63
     af6:	0f 90       	pop	r0
     af8:	1f 90       	pop	r1
     afa:	18 95       	reti

00000afc <__vector_25>:
     afc:	1f 92       	push	r1
     afe:	0f 92       	push	r0
     b00:	0f b6       	in	r0, 0x3f	; 63
     b02:	0f 92       	push	r0
     b04:	11 24       	eor	r1, r1
     b06:	8f 93       	push	r24
     b08:	9f 93       	push	r25
     b0a:	ef 93       	push	r30
     b0c:	ff 93       	push	r31
     b0e:	80 91 d3 3a 	lds	r24, 0x3AD3	; 0x803ad3 <bytesLeftI2C>
     b12:	88 23       	and	r24, r24
     b14:	29 f0       	breq	.+10     	; 0xb20 <__vector_25+0x24>
     b16:	80 91 d3 3a 	lds	r24, 0x3AD3	; 0x803ad3 <bytesLeftI2C>
     b1a:	81 50       	subi	r24, 0x01	; 1
     b1c:	80 93 d3 3a 	sts	0x3AD3, r24	; 0x803ad3 <bytesLeftI2C>
     b20:	80 91 15 08 	lds	r24, 0x0815	; 0x800815 <__TEXT_REGION_LENGTH__+0x700815>
     b24:	87 ff       	sbrs	r24, 7
     b26:	18 c0       	rjmp	.+48     	; 0xb58 <__vector_25+0x5c>
     b28:	80 91 d3 3a 	lds	r24, 0x3AD3	; 0x803ad3 <bytesLeftI2C>
     b2c:	88 23       	and	r24, r24
     b2e:	81 f0       	breq	.+32     	; 0xb50 <__vector_25+0x54>
     b30:	e0 91 c8 3a 	lds	r30, 0x3AC8	; 0x803ac8 <addrDataI2C>
     b34:	f0 91 c9 3a 	lds	r31, 0x3AC9	; 0x803ac9 <addrDataI2C+0x1>
     b38:	cf 01       	movw	r24, r30
     b3a:	01 96       	adiw	r24, 0x01	; 1
     b3c:	80 93 c8 3a 	sts	0x3AC8, r24	; 0x803ac8 <addrDataI2C>
     b40:	90 93 c9 3a 	sts	0x3AC9, r25	; 0x803ac9 <addrDataI2C+0x1>
     b44:	80 91 18 08 	lds	r24, 0x0818	; 0x800818 <__TEXT_REGION_LENGTH__+0x700818>
     b48:	80 83       	st	Z, r24
     b4a:	10 92 14 08 	sts	0x0814, r1	; 0x800814 <__TEXT_REGION_LENGTH__+0x700814>
     b4e:	26 c0       	rjmp	.+76     	; 0xb9c <__vector_25+0xa0>
     b50:	84 e0       	ldi	r24, 0x04	; 4
     b52:	80 93 14 08 	sts	0x0814, r24	; 0x800814 <__TEXT_REGION_LENGTH__+0x700814>
     b56:	22 c0       	rjmp	.+68     	; 0xb9c <__vector_25+0xa0>
     b58:	80 91 15 08 	lds	r24, 0x0815	; 0x800815 <__TEXT_REGION_LENGTH__+0x700815>
     b5c:	8c 70       	andi	r24, 0x0C	; 12
     b5e:	19 f0       	breq	.+6      	; 0xb66 <__vector_25+0x6a>
     b60:	10 92 d3 3a 	sts	0x3AD3, r1	; 0x803ad3 <bytesLeftI2C>
     b64:	1b c0       	rjmp	.+54     	; 0xb9c <__vector_25+0xa0>
     b66:	80 91 d3 3a 	lds	r24, 0x3AD3	; 0x803ad3 <bytesLeftI2C>
     b6a:	82 30       	cpi	r24, 0x02	; 2
     b6c:	31 f4       	brne	.+12     	; 0xb7a <__vector_25+0x7e>
     b6e:	e0 91 c8 3a 	lds	r30, 0x3AC8	; 0x803ac8 <addrDataI2C>
     b72:	f0 91 c9 3a 	lds	r31, 0x3AC9	; 0x803ac9 <addrDataI2C+0x1>
     b76:	80 81       	ld	r24, Z
     b78:	09 c0       	rjmp	.+18     	; 0xb8c <__vector_25+0x90>
     b7a:	80 91 d3 3a 	lds	r24, 0x3AD3	; 0x803ad3 <bytesLeftI2C>
     b7e:	81 30       	cpi	r24, 0x01	; 1
     b80:	41 f4       	brne	.+16     	; 0xb92 <__vector_25+0x96>
     b82:	e0 91 c8 3a 	lds	r30, 0x3AC8	; 0x803ac8 <addrDataI2C>
     b86:	f0 91 c9 3a 	lds	r31, 0x3AC9	; 0x803ac9 <addrDataI2C+0x1>
     b8a:	81 81       	ldd	r24, Z+1	; 0x01
     b8c:	80 93 18 08 	sts	0x0818, r24	; 0x800818 <__TEXT_REGION_LENGTH__+0x700818>
     b90:	05 c0       	rjmp	.+10     	; 0xb9c <__vector_25+0xa0>
     b92:	80 91 17 08 	lds	r24, 0x0817	; 0x800817 <__TEXT_REGION_LENGTH__+0x700817>
     b96:	81 60       	ori	r24, 0x01	; 1
     b98:	80 93 17 08 	sts	0x0817, r24	; 0x800817 <__TEXT_REGION_LENGTH__+0x700817>
     b9c:	80 91 15 08 	lds	r24, 0x0815	; 0x800815 <__TEXT_REGION_LENGTH__+0x700815>
     ba0:	87 ff       	sbrs	r24, 7
     ba2:	07 c0       	rjmp	.+14     	; 0xbb2 <__vector_25+0xb6>
     ba4:	80 91 d3 3a 	lds	r24, 0x3AD3	; 0x803ad3 <bytesLeftI2C>
     ba8:	81 11       	cpse	r24, r1
     baa:	03 c0       	rjmp	.+6      	; 0xbb2 <__vector_25+0xb6>
     bac:	87 e0       	ldi	r24, 0x07	; 7
     bae:	80 93 14 08 	sts	0x0814, r24	; 0x800814 <__TEXT_REGION_LENGTH__+0x700814>
     bb2:	ff 91       	pop	r31
     bb4:	ef 91       	pop	r30
     bb6:	9f 91       	pop	r25
     bb8:	8f 91       	pop	r24
     bba:	0f 90       	pop	r0
     bbc:	0f be       	out	0x3f, r0	; 63
     bbe:	0f 90       	pop	r0
     bc0:	1f 90       	pop	r1
     bc2:	18 95       	reti

00000bc4 <__vector_27>:
     bc4:	1f 92       	push	r1
     bc6:	0f 92       	push	r0
     bc8:	0f b6       	in	r0, 0x3f	; 63
     bca:	0f 92       	push	r0
     bcc:	11 24       	eor	r1, r1
     bce:	8f 93       	push	r24
     bd0:	ef 93       	push	r30
     bd2:	ff 93       	push	r31
     bd4:	80 91 55 38 	lds	r24, 0x3855	; 0x803855 <serRxDone>
     bd8:	81 11       	cpse	r24, r1
     bda:	44 c0       	rjmp	.+136    	; 0xc64 <__vector_27+0xa0>
     bdc:	ed b3       	in	r30, 0x1d	; 29
     bde:	f0 e0       	ldi	r31, 0x00	; 0
     be0:	80 91 00 08 	lds	r24, 0x0800	; 0x800800 <__TEXT_REGION_LENGTH__+0x700800>
     be4:	e9 57       	subi	r30, 0x79	; 121
     be6:	f5 4c       	sbci	r31, 0xC5	; 197
     be8:	80 83       	st	Z, r24
     bea:	ed b3       	in	r30, 0x1d	; 29
     bec:	f0 e0       	ldi	r31, 0x00	; 0
     bee:	e9 57       	subi	r30, 0x79	; 121
     bf0:	f5 4c       	sbci	r31, 0xC5	; 197
     bf2:	80 81       	ld	r24, Z
     bf4:	80 93 02 08 	sts	0x0802, r24	; 0x800802 <__TEXT_REGION_LENGTH__+0x700802>
     bf8:	ed b3       	in	r30, 0x1d	; 29
     bfa:	f0 e0       	ldi	r31, 0x00	; 0
     bfc:	e9 57       	subi	r30, 0x79	; 121
     bfe:	f5 4c       	sbci	r31, 0xC5	; 197
     c00:	80 81       	ld	r24, Z
     c02:	8a 30       	cpi	r24, 0x0A	; 10
     c04:	39 f0       	breq	.+14     	; 0xc14 <__vector_27+0x50>
     c06:	ed b3       	in	r30, 0x1d	; 29
     c08:	f0 e0       	ldi	r31, 0x00	; 0
     c0a:	e9 57       	subi	r30, 0x79	; 121
     c0c:	f5 4c       	sbci	r31, 0xC5	; 197
     c0e:	80 81       	ld	r24, Z
     c10:	8d 30       	cpi	r24, 0x0D	; 13
     c12:	49 f4       	brne	.+18     	; 0xc26 <__vector_27+0x62>
     c14:	ed b3       	in	r30, 0x1d	; 29
     c16:	f0 e0       	ldi	r31, 0x00	; 0
     c18:	e9 57       	subi	r30, 0x79	; 121
     c1a:	f5 4c       	sbci	r31, 0xC5	; 197
     c1c:	10 82       	st	Z, r1
     c1e:	81 e0       	ldi	r24, 0x01	; 1
     c20:	80 93 55 38 	sts	0x3855, r24	; 0x803855 <serRxDone>
     c24:	1f c0       	rjmp	.+62     	; 0xc64 <__vector_27+0xa0>
     c26:	ed b3       	in	r30, 0x1d	; 29
     c28:	f0 e0       	ldi	r31, 0x00	; 0
     c2a:	e9 57       	subi	r30, 0x79	; 121
     c2c:	f5 4c       	sbci	r31, 0xC5	; 197
     c2e:	80 81       	ld	r24, Z
     c30:	88 30       	cpi	r24, 0x08	; 8
     c32:	39 f0       	breq	.+14     	; 0xc42 <__vector_27+0x7e>
     c34:	ed b3       	in	r30, 0x1d	; 29
     c36:	f0 e0       	ldi	r31, 0x00	; 0
     c38:	e9 57       	subi	r30, 0x79	; 121
     c3a:	f5 4c       	sbci	r31, 0xC5	; 197
     c3c:	80 81       	ld	r24, Z
     c3e:	8f 37       	cpi	r24, 0x7F	; 127
     c40:	59 f4       	brne	.+22     	; 0xc58 <__vector_27+0x94>
     c42:	8d b3       	in	r24, 0x1d	; 29
     c44:	88 23       	and	r24, r24
     c46:	41 f0       	breq	.+16     	; 0xc58 <__vector_27+0x94>
     c48:	ed b3       	in	r30, 0x1d	; 29
     c4a:	f0 e0       	ldi	r31, 0x00	; 0
     c4c:	e9 57       	subi	r30, 0x79	; 121
     c4e:	f5 4c       	sbci	r31, 0xC5	; 197
     c50:	10 82       	st	Z, r1
     c52:	8d b3       	in	r24, 0x1d	; 29
     c54:	81 50       	subi	r24, 0x01	; 1
     c56:	05 c0       	rjmp	.+10     	; 0xc62 <__vector_27+0x9e>
     c58:	8d b3       	in	r24, 0x1d	; 29
     c5a:	80 34       	cpi	r24, 0x40	; 64
     c5c:	18 f4       	brcc	.+6      	; 0xc64 <__vector_27+0xa0>
     c5e:	8d b3       	in	r24, 0x1d	; 29
     c60:	8f 5f       	subi	r24, 0xFF	; 255
     c62:	8d bb       	out	0x1d, r24	; 29
     c64:	80 e8       	ldi	r24, 0x80	; 128
     c66:	80 93 04 08 	sts	0x0804, r24	; 0x800804 <__TEXT_REGION_LENGTH__+0x700804>
     c6a:	ff 91       	pop	r31
     c6c:	ef 91       	pop	r30
     c6e:	8f 91       	pop	r24
     c70:	0f 90       	pop	r0
     c72:	0f be       	out	0x3f, r0	; 63
     c74:	0f 90       	pop	r0
     c76:	1f 90       	pop	r1
     c78:	18 95       	reti

00000c7a <__vector_28>:
     c7a:	1f 92       	push	r1
     c7c:	0f 92       	push	r0
     c7e:	0f b6       	in	r0, 0x3f	; 63
     c80:	0f 92       	push	r0
     c82:	11 24       	eor	r1, r1
     c84:	8f 93       	push	r24
     c86:	ef 93       	push	r30
     c88:	ff 93       	push	r31
     c8a:	10 92 4a 0a 	sts	0x0A4A, r1	; 0x800a4a <__TEXT_REGION_LENGTH__+0x700a4a>
     c8e:	10 92 4b 0a 	sts	0x0A4B, r1	; 0x800a4b <__TEXT_REGION_LENGTH__+0x700a4b>
     c92:	81 e0       	ldi	r24, 0x01	; 1
     c94:	80 93 45 0a 	sts	0x0A45, r24	; 0x800a45 <__TEXT_REGION_LENGTH__+0x700a45>
     c98:	e5 e0       	ldi	r30, 0x05	; 5
     c9a:	f8 e0       	ldi	r31, 0x08	; 8
     c9c:	80 81       	ld	r24, Z
     c9e:	8f 7d       	andi	r24, 0xDF	; 223
     ca0:	80 83       	st	Z, r24
     ca2:	ff 91       	pop	r31
     ca4:	ef 91       	pop	r30
     ca6:	8f 91       	pop	r24
     ca8:	0f 90       	pop	r0
     caa:	0f be       	out	0x3f, r0	; 63
     cac:	0f 90       	pop	r0
     cae:	1f 90       	pop	r1
     cb0:	18 95       	reti

00000cb2 <__vector_20>:
     cb2:	1f 92       	push	r1
     cb4:	0f 92       	push	r0
     cb6:	0f b6       	in	r0, 0x3f	; 63
     cb8:	0f 92       	push	r0
     cba:	11 24       	eor	r1, r1
     cbc:	8f 93       	push	r24
     cbe:	9f 93       	push	r25
     cc0:	80 91 48 38 	lds	r24, 0x3848	; 0x803848 <adc0Chg>
     cc4:	81 11       	cpse	r24, r1
     cc6:	12 c0       	rjmp	.+36     	; 0xcec <__vector_20+0x3a>
     cc8:	80 91 06 06 	lds	r24, 0x0606	; 0x800606 <__TEXT_REGION_LENGTH__+0x700606>
     ccc:	8e 31       	cpi	r24, 0x1E	; 30
     cce:	49 f4       	brne	.+18     	; 0xce2 <__vector_20+0x30>
     cd0:	80 91 10 06 	lds	r24, 0x0610	; 0x800610 <__TEXT_REGION_LENGTH__+0x700610>
     cd4:	90 91 11 06 	lds	r25, 0x0611	; 0x800611 <__TEXT_REGION_LENGTH__+0x700611>
     cd8:	80 93 02 3b 	sts	0x3B02, r24	; 0x803b02 <adcTemp>
     cdc:	90 93 03 3b 	sts	0x3B03, r25	; 0x803b03 <adcTemp+0x1>
     ce0:	0a c0       	rjmp	.+20     	; 0xcf6 <__vector_20+0x44>
     ce2:	80 91 10 06 	lds	r24, 0x0610	; 0x800610 <__TEXT_REGION_LENGTH__+0x700610>
     ce6:	80 93 d7 3a 	sts	0x3AD7, r24	; 0x803ad7 <auIn>
     cea:	05 c0       	rjmp	.+10     	; 0xcf6 <__vector_20+0x44>
     cec:	80 91 48 38 	lds	r24, 0x3848	; 0x803848 <adc0Chg>
     cf0:	81 50       	subi	r24, 0x01	; 1
     cf2:	80 93 48 38 	sts	0x3848, r24	; 0x803848 <adc0Chg>
     cf6:	81 e0       	ldi	r24, 0x01	; 1
     cf8:	80 93 0b 06 	sts	0x060B, r24	; 0x80060b <__TEXT_REGION_LENGTH__+0x70060b>
     cfc:	9f 91       	pop	r25
     cfe:	8f 91       	pop	r24
     d00:	0f 90       	pop	r0
     d02:	0f be       	out	0x3f, r0	; 63
     d04:	0f 90       	pop	r0
     d06:	1f 90       	pop	r1
     d08:	18 95       	reti

00000d0a <__vector_22>:
     d0a:	1f 92       	push	r1
     d0c:	0f 92       	push	r0
     d0e:	0f b6       	in	r0, 0x3f	; 63
     d10:	0f 92       	push	r0
     d12:	11 24       	eor	r1, r1
     d14:	8f 93       	push	r24
     d16:	9f 93       	push	r25
     d18:	80 91 46 06 	lds	r24, 0x0646	; 0x800646 <__TEXT_REGION_LENGTH__+0x700646>
     d1c:	81 11       	cpse	r24, r1
     d1e:	0a c0       	rjmp	.+20     	; 0xd34 <__vector_22+0x2a>
     d20:	80 91 50 06 	lds	r24, 0x0650	; 0x800650 <__TEXT_REGION_LENGTH__+0x700650>
     d24:	90 91 51 06 	lds	r25, 0x0651	; 0x800651 <__TEXT_REGION_LENGTH__+0x700651>
     d28:	80 93 d1 3a 	sts	0x3AD1, r24	; 0x803ad1 <adcPhot>
     d2c:	90 93 d2 3a 	sts	0x3AD2, r25	; 0x803ad2 <adcPhot+0x1>
     d30:	81 e0       	ldi	r24, 0x01	; 1
     d32:	10 c0       	rjmp	.+32     	; 0xd54 <__vector_22+0x4a>
     d34:	80 91 46 06 	lds	r24, 0x0646	; 0x800646 <__TEXT_REGION_LENGTH__+0x700646>
     d38:	81 30       	cpi	r24, 0x01	; 1
     d3a:	79 f4       	brne	.+30     	; 0xd5a <__vector_22+0x50>
     d3c:	88 e0       	ldi	r24, 0x08	; 8
     d3e:	80 93 06 04 	sts	0x0406, r24	; 0x800406 <__TEXT_REGION_LENGTH__+0x700406>
     d42:	80 91 50 06 	lds	r24, 0x0650	; 0x800650 <__TEXT_REGION_LENGTH__+0x700650>
     d46:	90 91 51 06 	lds	r25, 0x0651	; 0x800651 <__TEXT_REGION_LENGTH__+0x700651>
     d4a:	80 93 cf 3a 	sts	0x3ACF, r24	; 0x803acf <adcHall>
     d4e:	90 93 d0 3a 	sts	0x3AD0, r25	; 0x803ad0 <adcHall+0x1>
     d52:	84 e0       	ldi	r24, 0x04	; 4
     d54:	80 93 46 06 	sts	0x0646, r24	; 0x800646 <__TEXT_REGION_LENGTH__+0x700646>
     d58:	10 c0       	rjmp	.+32     	; 0xd7a <__vector_22+0x70>
     d5a:	80 91 50 06 	lds	r24, 0x0650	; 0x800650 <__TEXT_REGION_LENGTH__+0x700650>
     d5e:	90 91 51 06 	lds	r25, 0x0651	; 0x800651 <__TEXT_REGION_LENGTH__+0x700651>
     d62:	80 93 cb 3a 	sts	0x3ACB, r24	; 0x803acb <adcBtns>
     d66:	90 93 cc 3a 	sts	0x3ACC, r25	; 0x803acc <adcBtns+0x1>
     d6a:	8f b3       	in	r24, 0x1f	; 31
     d6c:	8f 30       	cpi	r24, 0x0F	; 15
     d6e:	29 f4       	brne	.+10     	; 0xd7a <__vector_22+0x70>
     d70:	10 92 46 06 	sts	0x0646, r1	; 0x800646 <__TEXT_REGION_LENGTH__+0x700646>
     d74:	88 e0       	ldi	r24, 0x08	; 8
     d76:	80 93 05 04 	sts	0x0405, r24	; 0x800405 <__TEXT_REGION_LENGTH__+0x700405>
     d7a:	8f b3       	in	r24, 0x1f	; 31
     d7c:	90 e0       	ldi	r25, 0x00	; 0
     d7e:	01 96       	adiw	r24, 0x01	; 1
     d80:	8f 70       	andi	r24, 0x0F	; 15
     d82:	99 27       	eor	r25, r25
     d84:	8f bb       	out	0x1f, r24	; 31
     d86:	81 e0       	ldi	r24, 0x01	; 1
     d88:	80 93 4b 06 	sts	0x064B, r24	; 0x80064b <__TEXT_REGION_LENGTH__+0x70064b>
     d8c:	9f 91       	pop	r25
     d8e:	8f 91       	pop	r24
     d90:	0f 90       	pop	r0
     d92:	0f be       	out	0x3f, r0	; 63
     d94:	0f 90       	pop	r0
     d96:	1f 90       	pop	r1
     d98:	18 95       	reti

00000d9a <__vector_6>:
     d9a:	1f 92       	push	r1
     d9c:	0f 92       	push	r0
     d9e:	0f b6       	in	r0, 0x3f	; 63
     da0:	0f 92       	push	r0
     da2:	11 24       	eor	r1, r1
     da4:	2f 93       	push	r18
     da6:	3f 93       	push	r19
     da8:	8f 93       	push	r24
     daa:	9f 93       	push	r25
     dac:	80 91 43 01 	lds	r24, 0x0143	; 0x800143 <__TEXT_REGION_LENGTH__+0x700143>
     db0:	81 ff       	sbrs	r24, 1
     db2:	36 c0       	rjmp	.+108    	; 0xe20 <__vector_6+0x86>
     db4:	80 91 52 38 	lds	r24, 0x3852	; 0x803852 <buttonMark>
     db8:	8f 3f       	cpi	r24, 0xFF	; 255
     dba:	29 f0       	breq	.+10     	; 0xdc6 <__vector_6+0x2c>
     dbc:	80 91 52 38 	lds	r24, 0x3852	; 0x803852 <buttonMark>
     dc0:	8f 5f       	subi	r24, 0xFF	; 255
     dc2:	80 93 52 38 	sts	0x3852, r24	; 0x803852 <buttonMark>
     dc6:	80 91 48 01 	lds	r24, 0x0148	; 0x800148 <__TEXT_REGION_LENGTH__+0x700148>
     dca:	90 91 49 01 	lds	r25, 0x0149	; 0x800149 <__TEXT_REGION_LENGTH__+0x700149>
     dce:	82 96       	adiw	r24, 0x22	; 34
     dd0:	80 93 04 3b 	sts	0x3B04, r24	; 0x803b04 <tmp16bit>
     dd4:	90 93 05 3b 	sts	0x3B05, r25	; 0x803b05 <tmp16bit+0x1>
     dd8:	20 91 4a 01 	lds	r18, 0x014A	; 0x80014a <__TEXT_REGION_LENGTH__+0x70014a>
     ddc:	30 91 4b 01 	lds	r19, 0x014B	; 0x80014b <__TEXT_REGION_LENGTH__+0x70014b>
     de0:	80 91 04 3b 	lds	r24, 0x3B04	; 0x803b04 <tmp16bit>
     de4:	90 91 05 3b 	lds	r25, 0x3B05	; 0x803b05 <tmp16bit+0x1>
     de8:	28 17       	cp	r18, r24
     dea:	39 07       	cpc	r19, r25
     dec:	58 f4       	brcc	.+22     	; 0xe04 <__vector_6+0x6a>
     dee:	20 91 4a 01 	lds	r18, 0x014A	; 0x80014a <__TEXT_REGION_LENGTH__+0x70014a>
     df2:	30 91 4b 01 	lds	r19, 0x014B	; 0x80014b <__TEXT_REGION_LENGTH__+0x70014b>
     df6:	80 91 04 3b 	lds	r24, 0x3B04	; 0x803b04 <tmp16bit>
     dfa:	90 91 05 3b 	lds	r25, 0x3B05	; 0x803b05 <tmp16bit+0x1>
     dfe:	82 1b       	sub	r24, r18
     e00:	93 0b       	sbc	r25, r19
     e02:	e6 cf       	rjmp	.-52     	; 0xdd0 <__vector_6+0x36>
     e04:	80 91 41 01 	lds	r24, 0x0141	; 0x800141 <__TEXT_REGION_LENGTH__+0x700141>
     e08:	83 fd       	sbrc	r24, 3
     e0a:	fc cf       	rjmp	.-8      	; 0xe04 <__vector_6+0x6a>
     e0c:	80 91 04 3b 	lds	r24, 0x3B04	; 0x803b04 <tmp16bit>
     e10:	90 91 05 3b 	lds	r25, 0x3B05	; 0x803b05 <tmp16bit+0x1>
     e14:	80 93 4c 01 	sts	0x014C, r24	; 0x80014c <__TEXT_REGION_LENGTH__+0x70014c>
     e18:	90 93 4d 01 	sts	0x014D, r25	; 0x80014d <__TEXT_REGION_LENGTH__+0x70014d>
     e1c:	82 e0       	ldi	r24, 0x02	; 2
     e1e:	06 c0       	rjmp	.+12     	; 0xe2c <__vector_6+0x92>
     e20:	80 91 53 38 	lds	r24, 0x3853	; 0x803853 <minuteMark>
     e24:	8f 5f       	subi	r24, 0xFF	; 255
     e26:	80 93 53 38 	sts	0x3853, r24	; 0x803853 <minuteMark>
     e2a:	81 e0       	ldi	r24, 0x01	; 1
     e2c:	80 93 43 01 	sts	0x0143, r24	; 0x800143 <__TEXT_REGION_LENGTH__+0x700143>
     e30:	9f 91       	pop	r25
     e32:	8f 91       	pop	r24
     e34:	3f 91       	pop	r19
     e36:	2f 91       	pop	r18
     e38:	0f 90       	pop	r0
     e3a:	0f be       	out	0x3f, r0	; 63
     e3c:	0f 90       	pop	r0
     e3e:	1f 90       	pop	r1
     e40:	18 95       	reti

00000e42 <__vector_7>:
     e42:	1f 92       	push	r1
     e44:	0f 92       	push	r0
     e46:	0f b6       	in	r0, 0x3f	; 63
     e48:	0f 92       	push	r0
     e4a:	11 24       	eor	r1, r1
     e4c:	8f 93       	push	r24
     e4e:	9f 93       	push	r25
     e50:	91 e0       	ldi	r25, 0x01	; 1
     e52:	90 93 48 06 	sts	0x0648, r25	; 0x800648 <__TEXT_REGION_LENGTH__+0x700648>
     e56:	80 91 54 38 	lds	r24, 0x3854	; 0x803854 <fastTicker>
     e5a:	8f 5f       	subi	r24, 0xFF	; 255
     e5c:	80 93 54 38 	sts	0x3854, r24	; 0x803854 <fastTicker>
     e60:	90 93 53 01 	sts	0x0153, r25	; 0x800153 <__TEXT_REGION_LENGTH__+0x700153>
     e64:	9f 91       	pop	r25
     e66:	8f 91       	pop	r24
     e68:	0f 90       	pop	r0
     e6a:	0f be       	out	0x3f, r0	; 63
     e6c:	0f 90       	pop	r0
     e6e:	1f 90       	pop	r1
     e70:	18 95       	reti

00000e72 <I2C_read_bytes>:
     e72:	0f 93       	push	r16
     e74:	80 91 15 08 	lds	r24, 0x0815	; 0x800815 <__TEXT_REGION_LENGTH__+0x700815>
     e78:	83 70       	andi	r24, 0x03	; 3
     e7a:	11 f4       	brne	.+4      	; 0xe80 <I2C_read_bytes+0xe>
     e7c:	81 e0       	ldi	r24, 0x01	; 1
     e7e:	1d c0       	rjmp	.+58     	; 0xeba <I2C_read_bytes+0x48>
     e80:	60 93 c8 3a 	sts	0x3AC8, r22	; 0x803ac8 <addrDataI2C>
     e84:	70 93 c9 3a 	sts	0x3AC9, r23	; 0x803ac9 <addrDataI2C+0x1>
     e88:	67 2b       	or	r22, r23
     e8a:	c1 f3       	breq	.-16     	; 0xe7c <I2C_read_bytes+0xa>
     e8c:	80 ea       	ldi	r24, 0xA0	; 160
     e8e:	80 93 17 08 	sts	0x0817, r24	; 0x800817 <__TEXT_REGION_LENGTH__+0x700817>
     e92:	4f 5f       	subi	r20, 0xFF	; 255
     e94:	40 93 d3 3a 	sts	0x3AD3, r20	; 0x803ad3 <bytesLeftI2C>
     e98:	80 91 d3 3a 	lds	r24, 0x3AD3	; 0x803ad3 <bytesLeftI2C>
     e9c:	81 11       	cpse	r24, r1
     e9e:	fc cf       	rjmp	.-8      	; 0xe98 <I2C_read_bytes+0x26>
     ea0:	20 93 c8 3a 	sts	0x3AC8, r18	; 0x803ac8 <addrDataI2C>
     ea4:	30 93 c9 3a 	sts	0x3AC9, r19	; 0x803ac9 <addrDataI2C+0x1>
     ea8:	23 2b       	or	r18, r19
     eaa:	41 f3       	breq	.-48     	; 0xe7c <I2C_read_bytes+0xa>
     eac:	0f 5f       	subi	r16, 0xFF	; 255
     eae:	00 93 d3 3a 	sts	0x3AD3, r16	; 0x803ad3 <bytesLeftI2C>
     eb2:	80 91 d3 3a 	lds	r24, 0x3AD3	; 0x803ad3 <bytesLeftI2C>
     eb6:	81 11       	cpse	r24, r1
     eb8:	fc cf       	rjmp	.-8      	; 0xeb2 <I2C_read_bytes+0x40>
     eba:	0f 91       	pop	r16
     ebc:	08 95       	ret

00000ebe <EERead>:
     ebe:	90 91 02 10 	lds	r25, 0x1002	; 0x801002 <__TEXT_REGION_LENGTH__+0x701002>
     ec2:	91 fd       	sbrc	r25, 1
     ec4:	fc cf       	rjmp	.-8      	; 0xebe <EERead>
     ec6:	fb 01       	movw	r30, r22
     ec8:	48 0f       	add	r20, r24
     eca:	84 17       	cp	r24, r20
     ecc:	39 f0       	breq	.+14     	; 0xedc <EERead+0x1e>
     ece:	a8 2f       	mov	r26, r24
     ed0:	b0 e0       	ldi	r27, 0x00	; 0
     ed2:	bc 5e       	subi	r27, 0xEC	; 236
     ed4:	9c 91       	ld	r25, X
     ed6:	91 93       	st	Z+, r25
     ed8:	8f 5f       	subi	r24, 0xFF	; 255
     eda:	f7 cf       	rjmp	.-18     	; 0xeca <EERead+0xc>
     edc:	08 95       	ret

00000ede <EEWrite>:
     ede:	9d e9       	ldi	r25, 0x9D	; 157
     ee0:	24 e0       	ldi	r18, 0x04	; 4
     ee2:	33 e0       	ldi	r19, 0x03	; 3
     ee4:	44 23       	and	r20, r20
     ee6:	09 f1       	breq	.+66     	; 0xf2a <EEWrite+0x4c>
     ee8:	50 91 02 10 	lds	r21, 0x1002	; 0x801002 <__TEXT_REGION_LENGTH__+0x701002>
     eec:	51 fd       	sbrc	r21, 1
     eee:	fc cf       	rjmp	.-8      	; 0xee8 <EEWrite+0xa>
     ef0:	94 bf       	out	0x34, r25	; 52
     ef2:	20 93 00 10 	sts	0x1000, r18	; 0x801000 <__TEXT_REGION_LENGTH__+0x701000>
     ef6:	e8 2f       	mov	r30, r24
     ef8:	58 2f       	mov	r21, r24
     efa:	5f 71       	andi	r21, 0x1F	; 31
     efc:	8f 5f       	subi	r24, 0xFF	; 255
     efe:	6f 5f       	subi	r22, 0xFF	; 255
     f00:	7f 4f       	sbci	r23, 0xFF	; 255
     f02:	db 01       	movw	r26, r22
     f04:	11 97       	sbiw	r26, 0x01	; 1
     f06:	ac 91       	ld	r26, X
     f08:	f0 e0       	ldi	r31, 0x00	; 0
     f0a:	fc 5e       	subi	r31, 0xEC	; 236
     f0c:	a0 83       	st	Z, r26
     f0e:	41 50       	subi	r20, 0x01	; 1
     f10:	19 f0       	breq	.+6      	; 0xf18 <EEWrite+0x3a>
     f12:	e8 2f       	mov	r30, r24
     f14:	5f 31       	cpi	r21, 0x1F	; 31
     f16:	81 f7       	brne	.-32     	; 0xef8 <EEWrite+0x1a>
     f18:	94 bf       	out	0x34, r25	; 52
     f1a:	30 93 00 10 	sts	0x1000, r19	; 0x801000 <__TEXT_REGION_LENGTH__+0x701000>
     f1e:	50 91 02 10 	lds	r21, 0x1002	; 0x801002 <__TEXT_REGION_LENGTH__+0x701002>
     f22:	52 ff       	sbrs	r21, 2
     f24:	df cf       	rjmp	.-66     	; 0xee4 <EEWrite+0x6>
     f26:	81 e0       	ldi	r24, 0x01	; 1
     f28:	08 95       	ret
     f2a:	80 e0       	ldi	r24, 0x00	; 0
     f2c:	08 95       	ret

00000f2e <DecryptData>:
     f2e:	f9 01       	movw	r30, r18
     f30:	9c 01       	movw	r18, r24
     f32:	2e 1b       	sub	r18, r30
     f34:	3f 0b       	sbc	r19, r31
     f36:	88 e0       	ldi	r24, 0x08	; 8
     f38:	48 9f       	mul	r20, r24
     f3a:	a0 01       	movw	r20, r0
     f3c:	11 24       	eor	r1, r1
     f3e:	46 5a       	subi	r20, 0xA6	; 166
     f40:	50 44       	sbci	r21, 0x40	; 64
     f42:	66 23       	and	r22, r22
     f44:	69 f0       	breq	.+26     	; 0xf60 <DecryptData+0x32>
     f46:	df 01       	movw	r26, r30
     f48:	a2 0f       	add	r26, r18
     f4a:	b3 1f       	adc	r27, r19
     f4c:	a7 70       	andi	r26, 0x07	; 7
     f4e:	bb 27       	eor	r27, r27
     f50:	a4 0f       	add	r26, r20
     f52:	b5 1f       	adc	r27, r21
     f54:	80 81       	ld	r24, Z
     f56:	9c 91       	ld	r25, X
     f58:	98 27       	eor	r25, r24
     f5a:	91 93       	st	Z+, r25
     f5c:	61 50       	subi	r22, 0x01	; 1
     f5e:	f1 cf       	rjmp	.-30     	; 0xf42 <DecryptData+0x14>
     f60:	08 95       	ret

00000f62 <ExtEERead>:
     f62:	a2 e0       	ldi	r26, 0x02	; 2
     f64:	b0 e0       	ldi	r27, 0x00	; 0
     f66:	e7 eb       	ldi	r30, 0xB7	; 183
     f68:	f7 e0       	ldi	r31, 0x07	; 7
     f6a:	0c 94 65 1f 	jmp	0x3eca	; 0x3eca <__prologue_saves__+0x10>
     f6e:	d6 2e       	mov	r13, r22
     f70:	c4 2e       	mov	r12, r20
     f72:	59 01       	movw	r10, r18
     f74:	7c 01       	movw	r14, r24
     f76:	e8 94       	clt
     f78:	f7 f8       	bld	r15, 7
     f7a:	f9 82       	std	Y+1, r15	; 0x01
     f7c:	ea 82       	std	Y+2, r14	; 0x02
     f7e:	06 2f       	mov	r16, r22
     f80:	42 e0       	ldi	r20, 0x02	; 2
     f82:	be 01       	movw	r22, r28
     f84:	6f 5f       	subi	r22, 0xFF	; 255
     f86:	7f 4f       	sbci	r23, 0xFF	; 255
     f88:	80 e5       	ldi	r24, 0x50	; 80
     f8a:	73 df       	rcall	.-282    	; 0xe72 <I2C_read_bytes>
     f8c:	18 2f       	mov	r17, r24
     f8e:	81 11       	cpse	r24, r1
     f90:	05 c0       	rjmp	.+10     	; 0xf9c <ExtEERead+0x3a>
     f92:	95 01       	movw	r18, r10
     f94:	4c 2d       	mov	r20, r12
     f96:	6d 2d       	mov	r22, r13
     f98:	c7 01       	movw	r24, r14
     f9a:	c9 df       	rcall	.-110    	; 0xf2e <DecryptData>
     f9c:	81 2f       	mov	r24, r17
     f9e:	22 96       	adiw	r28, 0x02	; 2
     fa0:	ea e0       	ldi	r30, 0x0A	; 10
     fa2:	0c 94 7e 1f 	jmp	0x3efc	; 0x3efc <__epilogue_restores__+0x10>

00000fa6 <SerSend>:
     fa6:	20 91 09 38 	lds	r18, 0x3809	; 0x803809 <serTxDone>
     faa:	22 23       	and	r18, r18
     fac:	59 f0       	breq	.+22     	; 0xfc4 <SerSend+0x1e>
     fae:	80 93 cd 3a 	sts	0x3ACD, r24	; 0x803acd <serTxAddr>
     fb2:	90 93 ce 3a 	sts	0x3ACE, r25	; 0x803ace <serTxAddr+0x1>
     fb6:	10 92 09 38 	sts	0x3809, r1	; 0x803809 <serTxDone>
     fba:	81 e0       	ldi	r24, 0x01	; 1
     fbc:	80 93 45 0a 	sts	0x0A45, r24	; 0x800a45 <__TEXT_REGION_LENGTH__+0x700a45>
     fc0:	80 e0       	ldi	r24, 0x00	; 0
     fc2:	08 95       	ret
     fc4:	81 e0       	ldi	r24, 0x01	; 1
     fc6:	08 95       	ret

00000fc8 <SerSpeed>:
     fc8:	28 2f       	mov	r18, r24
     fca:	81 11       	cpse	r24, r1
     fcc:	01 c0       	rjmp	.+2      	; 0xfd0 <SerSpeed+0x8>
     fce:	21 e0       	ldi	r18, 0x01	; 1
     fd0:	8f ef       	ldi	r24, 0xFF	; 255
     fd2:	90 e0       	ldi	r25, 0x00	; 0
     fd4:	82 1b       	sub	r24, r18
     fd6:	91 09       	sbc	r25, r1
     fd8:	98 2f       	mov	r25, r24
     fda:	88 27       	eor	r24, r24
     fdc:	81 50       	subi	r24, 0x01	; 1
     fde:	9f 4f       	sbci	r25, 0xFF	; 255
     fe0:	80 93 4c 0a 	sts	0x0A4C, r24	; 0x800a4c <__TEXT_REGION_LENGTH__+0x700a4c>
     fe4:	90 93 4d 0a 	sts	0x0A4D, r25	; 0x800a4d <__TEXT_REGION_LENGTH__+0x700a4d>
     fe8:	08 95       	ret

00000fea <SelectTSens>:
     fea:	8f ef       	ldi	r24, 0xFF	; 255
     fec:	80 93 48 38 	sts	0x3848, r24	; 0x803848 <adc0Chg>
     ff0:	82 e1       	ldi	r24, 0x12	; 18
     ff2:	80 93 a0 00 	sts	0x00A0, r24	; 0x8000a0 <__TEXT_REGION_LENGTH__+0x7000a0>
     ff6:	e0 e0       	ldi	r30, 0x00	; 0
     ff8:	f6 e0       	ldi	r31, 0x06	; 6
     ffa:	80 81       	ld	r24, Z
     ffc:	8b 7f       	andi	r24, 0xFB	; 251
     ffe:	80 83       	st	Z, r24
    1000:	8e e1       	ldi	r24, 0x1E	; 30
    1002:	80 93 06 06 	sts	0x0606, r24	; 0x800606 <__TEXT_REGION_LENGTH__+0x700606>
    1006:	08 95       	ret

00001008 <SelectAuIn>:
    1008:	8f ef       	ldi	r24, 0xFF	; 255
    100a:	80 93 48 38 	sts	0x3848, r24	; 0x803848 <adc0Chg>
    100e:	82 e2       	ldi	r24, 0x22	; 34
    1010:	80 93 a0 00 	sts	0x00A0, r24	; 0x8000a0 <__TEXT_REGION_LENGTH__+0x7000a0>
    1014:	e0 e0       	ldi	r30, 0x00	; 0
    1016:	f6 e0       	ldi	r31, 0x06	; 6
    1018:	80 81       	ld	r24, Z
    101a:	84 60       	ori	r24, 0x04	; 4
    101c:	80 83       	st	Z, r24
    101e:	87 e0       	ldi	r24, 0x07	; 7
    1020:	80 93 06 06 	sts	0x0606, r24	; 0x800606 <__TEXT_REGION_LENGTH__+0x700606>
    1024:	08 95       	ret

00001026 <CheckButtons>:
    1026:	80 91 cb 3a 	lds	r24, 0x3ACB	; 0x803acb <adcBtns>
    102a:	90 91 cc 3a 	lds	r25, 0x3ACC	; 0x803acc <adcBtns+0x1>
    102e:	24 e0       	ldi	r18, 0x04	; 4
    1030:	96 95       	lsr	r25
    1032:	87 95       	ror	r24
    1034:	2a 95       	dec	r18
    1036:	e1 f7       	brne	.-8      	; 0x1030 <CheckButtons+0xa>
    1038:	99 27       	eor	r25, r25
    103a:	80 36       	cpi	r24, 0x60	; 96
    103c:	91 05       	cpc	r25, r1
    103e:	40 f4       	brcc	.+16     	; 0x1050 <CheckButtons+0x2a>
    1040:	8f 34       	cpi	r24, 0x4F	; 79
    1042:	91 05       	cpc	r25, r1
    1044:	88 f4       	brcc	.+34     	; 0x1068 <CheckButtons+0x42>
    1046:	c0 97       	sbiw	r24, 0x30	; 48
    1048:	09 97       	sbiw	r24, 0x09	; 9
    104a:	90 f4       	brcc	.+36     	; 0x1070 <CheckButtons+0x4a>
    104c:	92 e0       	ldi	r25, 0x02	; 2
    104e:	11 c0       	rjmp	.+34     	; 0x1072 <CheckButtons+0x4c>
    1050:	85 37       	cpi	r24, 0x75	; 117
    1052:	91 05       	cpc	r25, r1
    1054:	68 f0       	brcs	.+26     	; 0x1070 <CheckButtons+0x4a>
    1056:	8e 38       	cpi	r24, 0x8E	; 142
    1058:	91 05       	cpc	r25, r1
    105a:	40 f0       	brcs	.+16     	; 0x106c <CheckButtons+0x46>
    105c:	8e 59       	subi	r24, 0x9E	; 158
    105e:	91 09       	sbc	r25, r1
    1060:	81 97       	sbiw	r24, 0x21	; 33
    1062:	30 f4       	brcc	.+12     	; 0x1070 <CheckButtons+0x4a>
    1064:	90 e0       	ldi	r25, 0x00	; 0
    1066:	05 c0       	rjmp	.+10     	; 0x1072 <CheckButtons+0x4c>
    1068:	93 e0       	ldi	r25, 0x03	; 3
    106a:	03 c0       	rjmp	.+6      	; 0x1072 <CheckButtons+0x4c>
    106c:	91 e0       	ldi	r25, 0x01	; 1
    106e:	01 c0       	rjmp	.+2      	; 0x1072 <CheckButtons+0x4c>
    1070:	9f ef       	ldi	r25, 0xFF	; 255
    1072:	80 91 34 38 	lds	r24, 0x3834	; 0x803834 <previousValue.3902>
    1076:	98 17       	cp	r25, r24
    1078:	19 f0       	breq	.+6      	; 0x1080 <CheckButtons+0x5a>
    107a:	90 93 34 38 	sts	0x3834, r25	; 0x803834 <previousValue.3902>
    107e:	8f ef       	ldi	r24, 0xFF	; 255
    1080:	08 95       	ret

00001082 <lfsr>:
    1082:	80 91 6c 38 	lds	r24, 0x386C	; 0x80386c <lfsrSeed>
    1086:	90 91 6d 38 	lds	r25, 0x386D	; 0x80386d <lfsrSeed+0x1>
    108a:	9c 01       	movw	r18, r24
    108c:	32 2f       	mov	r19, r18
    108e:	22 27       	eor	r18, r18
    1090:	32 95       	swap	r19
    1092:	33 0f       	add	r19, r19
    1094:	30 7e       	andi	r19, 0xE0	; 224
    1096:	82 27       	eor	r24, r18
    1098:	93 27       	eor	r25, r19
    109a:	9c 01       	movw	r18, r24
    109c:	23 2f       	mov	r18, r19
    109e:	33 27       	eor	r19, r19
    10a0:	26 95       	lsr	r18
    10a2:	82 27       	eor	r24, r18
    10a4:	93 27       	eor	r25, r19
    10a6:	9c 01       	movw	r18, r24
    10a8:	36 95       	lsr	r19
    10aa:	32 2f       	mov	r19, r18
    10ac:	22 27       	eor	r18, r18
    10ae:	37 95       	ror	r19
    10b0:	27 95       	ror	r18
    10b2:	82 27       	eor	r24, r18
    10b4:	93 27       	eor	r25, r19
    10b6:	80 93 6c 38 	sts	0x386C, r24	; 0x80386c <lfsrSeed>
    10ba:	90 93 6d 38 	sts	0x386D, r25	; 0x80386d <lfsrSeed+0x1>
    10be:	08 95       	ret

000010c0 <floatSpeed>:
    10c0:	a0 e0       	ldi	r26, 0x00	; 0
    10c2:	b0 e0       	ldi	r27, 0x00	; 0
    10c4:	e6 e6       	ldi	r30, 0x66	; 102
    10c6:	f8 e0       	ldi	r31, 0x08	; 8
    10c8:	0c 94 68 1f 	jmp	0x3ed0	; 0x3ed0 <__prologue_saves__+0x16>
    10cc:	7b 01       	movw	r14, r22
    10ce:	8a 01       	movw	r16, r20
    10d0:	c0 91 5c 0a 	lds	r28, 0x0A5C	; 0x800a5c <__TEXT_REGION_LENGTH__+0x700a5c>
    10d4:	d0 91 5d 0a 	lds	r29, 0x0A5D	; 0x800a5d <__TEXT_REGION_LENGTH__+0x700a5d>
    10d8:	e8 2f       	mov	r30, r24
    10da:	f0 e0       	ldi	r31, 0x00	; 0
    10dc:	31 97       	sbiw	r30, 0x01	; 1
    10de:	e7 70       	andi	r30, 0x07	; 7
    10e0:	ff 27       	eor	r31, r31
    10e2:	eb 5c       	subi	r30, 0xCB	; 203
    10e4:	f7 4c       	sbci	r31, 0xC7	; 199
    10e6:	d0 80       	ld	r13, Z
    10e8:	cc df       	rcall	.-104    	; 0x1082 <lfsr>
    10ea:	8d 21       	and	r24, r13
    10ec:	c8 0f       	add	r28, r24
    10ee:	d1 1d       	adc	r29, r1
    10f0:	c8 df       	rcall	.-112    	; 0x1082 <lfsr>
    10f2:	8d 21       	and	r24, r13
    10f4:	c8 1b       	sub	r28, r24
    10f6:	d1 09       	sbc	r29, r1
    10f8:	0c 17       	cp	r16, r28
    10fa:	1d 07       	cpc	r17, r29
    10fc:	08 f4       	brcc	.+2      	; 0x1100 <floatSpeed+0x40>
    10fe:	e8 01       	movw	r28, r16
    1100:	c7 01       	movw	r24, r14
    1102:	ec 16       	cp	r14, r28
    1104:	fd 06       	cpc	r15, r29
    1106:	08 f4       	brcc	.+2      	; 0x110a <floatSpeed+0x4a>
    1108:	ce 01       	movw	r24, r28
    110a:	80 93 5c 0a 	sts	0x0A5C, r24	; 0x800a5c <__TEXT_REGION_LENGTH__+0x700a5c>
    110e:	90 93 5d 0a 	sts	0x0A5D, r25	; 0x800a5d <__TEXT_REGION_LENGTH__+0x700a5d>
    1112:	cd b7       	in	r28, 0x3d	; 61
    1114:	de b7       	in	r29, 0x3e	; 62
    1116:	e7 e0       	ldi	r30, 0x07	; 7
    1118:	0c 94 81 1f 	jmp	0x3f02	; 0x3f02 <__epilogue_restores__+0x16>

0000111c <floatAround>:
    111c:	0f 93       	push	r16
    111e:	1f 93       	push	r17
    1120:	cf 93       	push	r28
    1122:	df 93       	push	r29
    1124:	c8 2f       	mov	r28, r24
    1126:	d4 2f       	mov	r29, r20
    1128:	02 2f       	mov	r16, r18
    112a:	e6 2f       	mov	r30, r22
    112c:	f0 e0       	ldi	r31, 0x00	; 0
    112e:	31 97       	sbiw	r30, 0x01	; 1
    1130:	e7 70       	andi	r30, 0x07	; 7
    1132:	ff 27       	eor	r31, r31
    1134:	eb 5c       	subi	r30, 0xCB	; 203
    1136:	f7 4c       	sbci	r31, 0xC7	; 199
    1138:	10 81       	ld	r17, Z
    113a:	a3 df       	rcall	.-186    	; 0x1082 <lfsr>
    113c:	81 23       	and	r24, r17
    113e:	c8 0f       	add	r28, r24
    1140:	a0 df       	rcall	.-192    	; 0x1082 <lfsr>
    1142:	81 23       	and	r24, r17
    1144:	c8 1b       	sub	r28, r24
    1146:	8c 2f       	mov	r24, r28
    1148:	00 23       	and	r16, r16
    114a:	41 f0       	breq	.+16     	; 0x115c <floatAround+0x40>
    114c:	9c 2f       	mov	r25, r28
    114e:	0c 17       	cp	r16, r28
    1150:	08 f4       	brcc	.+2      	; 0x1154 <floatAround+0x38>
    1152:	90 2f       	mov	r25, r16
    1154:	8d 2f       	mov	r24, r29
    1156:	d9 17       	cp	r29, r25
    1158:	08 f4       	brcc	.+2      	; 0x115c <floatAround+0x40>
    115a:	89 2f       	mov	r24, r25
    115c:	41 e0       	ldi	r20, 0x01	; 1
    115e:	50 e0       	ldi	r21, 0x00	; 0
    1160:	8d 17       	cp	r24, r29
    1162:	10 f0       	brcs	.+4      	; 0x1168 <floatAround+0x4c>
    1164:	40 e0       	ldi	r20, 0x00	; 0
    1166:	50 e0       	ldi	r21, 0x00	; 0
    1168:	2d 2f       	mov	r18, r29
    116a:	30 e0       	ldi	r19, 0x00	; 0
    116c:	24 23       	and	r18, r20
    116e:	35 23       	and	r19, r21
    1170:	23 2b       	or	r18, r19
    1172:	09 f0       	breq	.+2      	; 0x1176 <floatAround+0x5a>
    1174:	8d 2f       	mov	r24, r29
    1176:	df 91       	pop	r29
    1178:	cf 91       	pop	r28
    117a:	1f 91       	pop	r17
    117c:	0f 91       	pop	r16
    117e:	08 95       	ret

00001180 <SaveGameState>:
    1180:	cf 92       	push	r12
    1182:	df 92       	push	r13
    1184:	ff 92       	push	r15
    1186:	0f 93       	push	r16
    1188:	1f 93       	push	r17
    118a:	cf 93       	push	r28
    118c:	df 93       	push	r29
    118e:	cd b7       	in	r28, 0x3d	; 61
    1190:	de b7       	in	r29, 0x3e	; 62
    1192:	64 97       	sbiw	r28, 0x14	; 20
    1194:	cd bf       	out	0x3d, r28	; 61
    1196:	de bf       	out	0x3e, r29	; 62
    1198:	44 e1       	ldi	r20, 0x14	; 20
    119a:	be 01       	movw	r22, r28
    119c:	6f 5f       	subi	r22, 0xFF	; 255
    119e:	7f 4f       	sbci	r23, 0xFF	; 255
    11a0:	80 e0       	ldi	r24, 0x00	; 0
    11a2:	8d de       	rcall	.-742    	; 0xebe <EERead>
    11a4:	83 e7       	ldi	r24, 0x73	; 115
    11a6:	c8 2e       	mov	r12, r24
    11a8:	8a e3       	ldi	r24, 0x3A	; 58
    11aa:	d8 2e       	mov	r13, r24
    11ac:	8e 01       	movw	r16, r28
    11ae:	0f 5f       	subi	r16, 0xFF	; 255
    11b0:	1f 4f       	sbci	r17, 0xFF	; 255
    11b2:	f1 2c       	mov	r15, r1
    11b4:	f8 01       	movw	r30, r16
    11b6:	81 91       	ld	r24, Z+
    11b8:	8f 01       	movw	r16, r30
    11ba:	f6 01       	movw	r30, r12
    11bc:	90 81       	ld	r25, Z
    11be:	98 13       	cpse	r25, r24
    11c0:	08 c0       	rjmp	.+16     	; 0x11d2 <SaveGameState+0x52>
    11c2:	f3 94       	inc	r15
    11c4:	ff ef       	ldi	r31, 0xFF	; 255
    11c6:	cf 1a       	sub	r12, r31
    11c8:	df 0a       	sbc	r13, r31
    11ca:	80 e1       	ldi	r24, 0x10	; 16
    11cc:	f8 12       	cpse	r15, r24
    11ce:	f2 cf       	rjmp	.-28     	; 0x11b4 <SaveGameState+0x34>
    11d0:	08 c0       	rjmp	.+16     	; 0x11e2 <SaveGameState+0x62>
    11d2:	41 e0       	ldi	r20, 0x01	; 1
    11d4:	b6 01       	movw	r22, r12
    11d6:	8f 2d       	mov	r24, r15
    11d8:	82 de       	rcall	.-764    	; 0xede <EEWrite>
    11da:	88 23       	and	r24, r24
    11dc:	91 f3       	breq	.-28     	; 0x11c2 <SaveGameState+0x42>
    11de:	91 e0       	ldi	r25, 0x01	; 1
    11e0:	36 c0       	rjmp	.+108    	; 0x124e <SaveGameState+0xce>
    11e2:	20 91 4e 38 	lds	r18, 0x384E	; 0x80384e <inventory>
    11e6:	30 91 4f 38 	lds	r19, 0x384F	; 0x80384f <inventory+0x1>
    11ea:	30 93 83 3a 	sts	0x3A83, r19	; 0x803a83 <gameState+0x10>
    11ee:	20 93 84 3a 	sts	0x3A84, r18	; 0x803a84 <gameState+0x11>
    11f2:	80 91 50 38 	lds	r24, 0x3850	; 0x803850 <inventory+0x2>
    11f6:	90 91 51 38 	lds	r25, 0x3851	; 0x803851 <inventory+0x3>
    11fa:	90 93 85 3a 	sts	0x3A85, r25	; 0x803a85 <gameState+0x12>
    11fe:	80 93 86 3a 	sts	0x3A86, r24	; 0x803a86 <gameState+0x13>
    1202:	89 89       	ldd	r24, Y+17	; 0x11
    1204:	9a 89       	ldd	r25, Y+18	; 0x12
    1206:	98 27       	eor	r25, r24
    1208:	89 27       	eor	r24, r25
    120a:	98 27       	eor	r25, r24
    120c:	28 17       	cp	r18, r24
    120e:	39 07       	cpc	r19, r25
    1210:	69 f4       	brne	.+26     	; 0x122c <SaveGameState+0xac>
    1212:	8b 89       	ldd	r24, Y+19	; 0x13
    1214:	9c 89       	ldd	r25, Y+20	; 0x14
    1216:	98 27       	eor	r25, r24
    1218:	89 27       	eor	r24, r25
    121a:	98 27       	eor	r25, r24
    121c:	20 91 50 38 	lds	r18, 0x3850	; 0x803850 <inventory+0x2>
    1220:	30 91 51 38 	lds	r19, 0x3851	; 0x803851 <inventory+0x3>
    1224:	28 17       	cp	r18, r24
    1226:	39 07       	cpc	r19, r25
    1228:	49 f4       	brne	.+18     	; 0x123c <SaveGameState+0xbc>
    122a:	10 c0       	rjmp	.+32     	; 0x124c <SaveGameState+0xcc>
    122c:	42 e0       	ldi	r20, 0x02	; 2
    122e:	63 e8       	ldi	r22, 0x83	; 131
    1230:	7a e3       	ldi	r23, 0x3A	; 58
    1232:	80 e1       	ldi	r24, 0x10	; 16
    1234:	54 de       	rcall	.-856    	; 0xede <EEWrite>
    1236:	88 23       	and	r24, r24
    1238:	61 f3       	breq	.-40     	; 0x1212 <SaveGameState+0x92>
    123a:	d1 cf       	rjmp	.-94     	; 0x11de <SaveGameState+0x5e>
    123c:	42 e0       	ldi	r20, 0x02	; 2
    123e:	65 e8       	ldi	r22, 0x85	; 133
    1240:	7a e3       	ldi	r23, 0x3A	; 58
    1242:	82 e1       	ldi	r24, 0x12	; 18
    1244:	4c de       	rcall	.-872    	; 0xede <EEWrite>
    1246:	91 e0       	ldi	r25, 0x01	; 1
    1248:	81 11       	cpse	r24, r1
    124a:	01 c0       	rjmp	.+2      	; 0x124e <SaveGameState+0xce>
    124c:	90 e0       	ldi	r25, 0x00	; 0
    124e:	89 2f       	mov	r24, r25
    1250:	64 96       	adiw	r28, 0x14	; 20
    1252:	cd bf       	out	0x3d, r28	; 61
    1254:	de bf       	out	0x3e, r29	; 62
    1256:	df 91       	pop	r29
    1258:	cf 91       	pop	r28
    125a:	1f 91       	pop	r17
    125c:	0f 91       	pop	r16
    125e:	ff 90       	pop	r15
    1260:	df 90       	pop	r13
    1262:	cf 90       	pop	r12
    1264:	08 95       	ret

00001266 <ReadStatusBit>:
    1266:	e8 2f       	mov	r30, r24
    1268:	ef 77       	andi	r30, 0x7F	; 127
    126a:	e6 95       	lsr	r30
    126c:	e6 95       	lsr	r30
    126e:	e6 95       	lsr	r30
    1270:	f0 e0       	ldi	r31, 0x00	; 0
    1272:	ed 58       	subi	r30, 0x8D	; 141
    1274:	f5 4c       	sbci	r31, 0xC5	; 197
    1276:	20 81       	ld	r18, Z
    1278:	30 e0       	ldi	r19, 0x00	; 0
    127a:	87 70       	andi	r24, 0x07	; 7
    127c:	a9 01       	movw	r20, r18
    127e:	02 c0       	rjmp	.+4      	; 0x1284 <ReadStatusBit+0x1e>
    1280:	55 95       	asr	r21
    1282:	47 95       	ror	r20
    1284:	8a 95       	dec	r24
    1286:	e2 f7       	brpl	.-8      	; 0x1280 <ReadStatusBit+0x1a>
    1288:	ca 01       	movw	r24, r20
    128a:	81 70       	andi	r24, 0x01	; 1
    128c:	08 95       	ret

0000128e <UpdateState>:
    128e:	e8 2f       	mov	r30, r24
    1290:	ef 77       	andi	r30, 0x7F	; 127
    1292:	e9 f0       	breq	.+58     	; 0x12ce <UpdateState+0x40>
    1294:	e6 95       	lsr	r30
    1296:	e6 95       	lsr	r30
    1298:	e6 95       	lsr	r30
    129a:	28 2f       	mov	r18, r24
    129c:	27 70       	andi	r18, 0x07	; 7
    129e:	f0 e0       	ldi	r31, 0x00	; 0
    12a0:	ed 58       	subi	r30, 0x8D	; 141
    12a2:	f5 4c       	sbci	r31, 0xC5	; 197
    12a4:	87 ff       	sbrs	r24, 7
    12a6:	0a c0       	rjmp	.+20     	; 0x12bc <UpdateState+0x2e>
    12a8:	81 e0       	ldi	r24, 0x01	; 1
    12aa:	90 e0       	ldi	r25, 0x00	; 0
    12ac:	01 c0       	rjmp	.+2      	; 0x12b0 <UpdateState+0x22>
    12ae:	88 0f       	add	r24, r24
    12b0:	2a 95       	dec	r18
    12b2:	ea f7       	brpl	.-6      	; 0x12ae <UpdateState+0x20>
    12b4:	80 95       	com	r24
    12b6:	90 81       	ld	r25, Z
    12b8:	89 23       	and	r24, r25
    12ba:	08 c0       	rjmp	.+16     	; 0x12cc <UpdateState+0x3e>
    12bc:	81 e0       	ldi	r24, 0x01	; 1
    12be:	90 e0       	ldi	r25, 0x00	; 0
    12c0:	01 c0       	rjmp	.+2      	; 0x12c4 <UpdateState+0x36>
    12c2:	88 0f       	add	r24, r24
    12c4:	2a 95       	dec	r18
    12c6:	ea f7       	brpl	.-6      	; 0x12c2 <UpdateState+0x34>
    12c8:	90 81       	ld	r25, Z
    12ca:	89 2b       	or	r24, r25
    12cc:	80 83       	st	Z, r24
    12ce:	08 95       	ret

000012d0 <CheckState>:
    12d0:	cf 93       	push	r28
    12d2:	c8 2f       	mov	r28, r24
    12d4:	8f 77       	andi	r24, 0x7F	; 127
    12d6:	c7 df       	rcall	.-114    	; 0x1266 <ReadStatusBit>
    12d8:	2c 2f       	mov	r18, r28
    12da:	22 1f       	adc	r18, r18
    12dc:	22 27       	eor	r18, r18
    12de:	22 1f       	adc	r18, r18
    12e0:	91 e0       	ldi	r25, 0x01	; 1
    12e2:	81 11       	cpse	r24, r1
    12e4:	01 c0       	rjmp	.+2      	; 0x12e8 <CheckState+0x18>
    12e6:	90 e0       	ldi	r25, 0x00	; 0
    12e8:	82 2f       	mov	r24, r18
    12ea:	89 27       	eor	r24, r25
    12ec:	cf 91       	pop	r28
    12ee:	08 95       	ret

000012f0 <getID>:
    12f0:	e3 e0       	ldi	r30, 0x03	; 3
    12f2:	f1 e1       	ldi	r31, 0x11	; 17
    12f4:	80 e0       	ldi	r24, 0x00	; 0
    12f6:	91 91       	ld	r25, Z+
    12f8:	89 0f       	add	r24, r25
    12fa:	ed 30       	cpi	r30, 0x0D	; 13
    12fc:	91 e1       	ldi	r25, 0x11	; 17
    12fe:	f9 07       	cpc	r31, r25
    1300:	d1 f7       	brne	.-12     	; 0x12f6 <getID+0x6>
    1302:	83 70       	andi	r24, 0x03	; 3
    1304:	91 e0       	ldi	r25, 0x01	; 1
    1306:	98 0f       	add	r25, r24
    1308:	90 93 4d 38 	sts	0x384D, r25	; 0x80384d <whoami>
    130c:	08 95       	ret

0000130e <WipeAfterBoot>:
    130e:	a1 e0       	ldi	r26, 0x01	; 1
    1310:	b0 e0       	ldi	r27, 0x00	; 0
    1312:	ed e8       	ldi	r30, 0x8D	; 141
    1314:	f9 e0       	ldi	r31, 0x09	; 9
    1316:	0c 94 6c 1f 	jmp	0x3ed8	; 0x3ed8 <__prologue_saves__+0x1e>
    131a:	9f ef       	ldi	r25, 0xFF	; 255
    131c:	99 83       	std	Y+1, r25	; 0x01
    131e:	81 11       	cpse	r24, r1
    1320:	08 c0       	rjmp	.+16     	; 0x1332 <WipeAfterBoot+0x24>
    1322:	80 91 4d 38 	lds	r24, 0x384D	; 0x80384d <whoami>
    1326:	83 51       	subi	r24, 0x13	; 19
    1328:	b2 df       	rcall	.-156    	; 0x128e <UpdateState>
    132a:	21 96       	adiw	r28, 0x01	; 1
    132c:	e3 e0       	ldi	r30, 0x03	; 3
    132e:	0c 94 85 1f 	jmp	0x3f0a	; 0x3f0a <__epilogue_restores__+0x1e>
    1332:	10 e0       	ldi	r17, 0x00	; 0
    1334:	41 e0       	ldi	r20, 0x01	; 1
    1336:	be 01       	movw	r22, r28
    1338:	6f 5f       	subi	r22, 0xFF	; 255
    133a:	7f 4f       	sbci	r23, 0xFF	; 255
    133c:	81 2f       	mov	r24, r17
    133e:	cf dd       	rcall	.-1122   	; 0xede <EEWrite>
    1340:	1f 5f       	subi	r17, 0xFF	; 255
    1342:	10 32       	cpi	r17, 0x20	; 32
    1344:	b9 f7       	brne	.-18     	; 0x1334 <WipeAfterBoot+0x26>
    1346:	ed cf       	rjmp	.-38     	; 0x1322 <WipeAfterBoot+0x14>

00001348 <Reset>:
    1348:	cf 93       	push	r28
    134a:	e3 e7       	ldi	r30, 0x73	; 115
    134c:	fa e3       	ldi	r31, 0x3A	; 58
    134e:	11 92       	st	Z+, r1
    1350:	8a e3       	ldi	r24, 0x3A	; 58
    1352:	e7 38       	cpi	r30, 0x87	; 135
    1354:	f8 07       	cpc	r31, r24
    1356:	d9 f7       	brne	.-10     	; 0x134e <Reset+0x6>
    1358:	cb df       	rcall	.-106    	; 0x12f0 <getID>
    135a:	c8 2f       	mov	r28, r24
    135c:	81 11       	cpse	r24, r1
    135e:	02 c0       	rjmp	.+4      	; 0x1364 <Reset+0x1c>
    1360:	8e e6       	ldi	r24, 0x6E	; 110
    1362:	0b c0       	rjmp	.+22     	; 0x137a <Reset+0x32>
    1364:	81 30       	cpi	r24, 0x01	; 1
    1366:	11 f4       	brne	.+4      	; 0x136c <Reset+0x24>
    1368:	8f e6       	ldi	r24, 0x6F	; 111
    136a:	07 c0       	rjmp	.+14     	; 0x137a <Reset+0x32>
    136c:	82 30       	cpi	r24, 0x02	; 2
    136e:	11 f4       	brne	.+4      	; 0x1374 <Reset+0x2c>
    1370:	80 e7       	ldi	r24, 0x70	; 112
    1372:	03 c0       	rjmp	.+6      	; 0x137a <Reset+0x32>
    1374:	83 30       	cpi	r24, 0x03	; 3
    1376:	11 f4       	brne	.+4      	; 0x137c <Reset+0x34>
    1378:	81 e7       	ldi	r24, 0x71	; 113
    137a:	89 df       	rcall	.-238    	; 0x128e <UpdateState>
    137c:	84 e6       	ldi	r24, 0x64	; 100
    137e:	8c 0f       	add	r24, r28
    1380:	86 df       	rcall	.-244    	; 0x128e <UpdateState>
    1382:	cf 91       	pop	r28
    1384:	08 95       	ret

00001386 <LoadGameState>:
    1386:	cf 93       	push	r28
    1388:	df 93       	push	r29
    138a:	20 91 d1 3a 	lds	r18, 0x3AD1	; 0x803ad1 <adcPhot>
    138e:	30 91 d2 3a 	lds	r19, 0x3AD2	; 0x803ad2 <adcPhot+0x1>
    1392:	80 91 02 3b 	lds	r24, 0x3B02	; 0x803b02 <adcTemp>
    1396:	90 91 03 3b 	lds	r25, 0x3B03	; 0x803b03 <adcTemp+0x1>
    139a:	82 0f       	add	r24, r18
    139c:	93 1f       	adc	r25, r19
    139e:	88 0f       	add	r24, r24
    13a0:	99 1f       	adc	r25, r25
    13a2:	81 60       	ori	r24, 0x01	; 1
    13a4:	80 93 6c 38 	sts	0x386C, r24	; 0x80386c <lfsrSeed>
    13a8:	90 93 6d 38 	sts	0x386D, r25	; 0x80386d <lfsrSeed+0x1>
    13ac:	44 e1       	ldi	r20, 0x14	; 20
    13ae:	63 e7       	ldi	r22, 0x73	; 115
    13b0:	7a e3       	ldi	r23, 0x3A	; 58
    13b2:	80 e0       	ldi	r24, 0x00	; 0
    13b4:	84 dd       	rcall	.-1272   	; 0xebe <EERead>
    13b6:	ce e6       	ldi	r28, 0x6E	; 110
    13b8:	d0 e0       	ldi	r29, 0x00	; 0
    13ba:	8c 2f       	mov	r24, r28
    13bc:	54 df       	rcall	.-344    	; 0x1266 <ReadStatusBit>
    13be:	d8 0f       	add	r29, r24
    13c0:	cf 5f       	subi	r28, 0xFF	; 255
    13c2:	c2 37       	cpi	r28, 0x72	; 114
    13c4:	d1 f7       	brne	.-12     	; 0x13ba <LoadGameState+0x34>
    13c6:	d1 30       	cpi	r29, 0x01	; 1
    13c8:	11 f0       	breq	.+4      	; 0x13ce <LoadGameState+0x48>
    13ca:	be df       	rcall	.-132    	; 0x1348 <Reset>
    13cc:	01 c0       	rjmp	.+2      	; 0x13d0 <LoadGameState+0x4a>
    13ce:	90 df       	rcall	.-224    	; 0x12f0 <getID>
    13d0:	80 91 83 3a 	lds	r24, 0x3A83	; 0x803a83 <gameState+0x10>
    13d4:	90 91 84 3a 	lds	r25, 0x3A84	; 0x803a84 <gameState+0x11>
    13d8:	98 27       	eor	r25, r24
    13da:	89 27       	eor	r24, r25
    13dc:	98 27       	eor	r25, r24
    13de:	80 93 4e 38 	sts	0x384E, r24	; 0x80384e <inventory>
    13e2:	90 93 4f 38 	sts	0x384F, r25	; 0x80384f <inventory+0x1>
    13e6:	80 91 85 3a 	lds	r24, 0x3A85	; 0x803a85 <gameState+0x12>
    13ea:	90 91 86 3a 	lds	r25, 0x3A86	; 0x803a86 <gameState+0x13>
    13ee:	98 27       	eor	r25, r24
    13f0:	89 27       	eor	r24, r25
    13f2:	98 27       	eor	r25, r24
    13f4:	80 93 50 38 	sts	0x3850, r24	; 0x803850 <inventory+0x2>
    13f8:	90 93 51 38 	sts	0x3851, r25	; 0x803851 <inventory+0x3>
    13fc:	df 91       	pop	r29
    13fe:	cf 91       	pop	r28
    1400:	08 95       	ret

00001402 <HotSummer>:
    1402:	cf 93       	push	r28
    1404:	86 e7       	ldi	r24, 0x76	; 118
    1406:	64 df       	rcall	.-312    	; 0x12d0 <CheckState>
    1408:	c8 2f       	mov	r28, r24
    140a:	88 23       	and	r24, r24
    140c:	81 f0       	breq	.+32     	; 0x142e <HotSummer+0x2c>
    140e:	e0 91 3e bf 	lds	r30, 0xBF3E	; 0x80bf3e <__bss_end+0x8417>
    1412:	f0 e0       	ldi	r31, 0x00	; 0
    1414:	e8 52       	subi	r30, 0x28	; 40
    1416:	f5 4c       	sbci	r31, 0xC5	; 197
    1418:	10 82       	st	Z, r1
    141a:	e0 91 3f bf 	lds	r30, 0xBF3F	; 0x80bf3f <__bss_end+0x8418>
    141e:	f0 e0       	ldi	r31, 0x00	; 0
    1420:	80 91 0c 38 	lds	r24, 0x380C	; 0x80380c <dimValue>
    1424:	e8 52       	subi	r30, 0x28	; 40
    1426:	f5 4c       	sbci	r31, 0xC5	; 197
    1428:	80 83       	st	Z, r24
    142a:	c1 e0       	ldi	r28, 0x01	; 1
    142c:	49 c0       	rjmp	.+146    	; 0x14c0 <HotSummer+0xbe>
    142e:	85 e7       	ldi	r24, 0x75	; 117
    1430:	4f df       	rcall	.-354    	; 0x12d0 <CheckState>
    1432:	88 23       	and	r24, r24
    1434:	49 f1       	breq	.+82     	; 0x1488 <HotSummer+0x86>
    1436:	e0 91 3e bf 	lds	r30, 0xBF3E	; 0x80bf3e <__bss_end+0x8417>
    143a:	f0 e0       	ldi	r31, 0x00	; 0
    143c:	80 91 0c 38 	lds	r24, 0x380C	; 0x80380c <dimValue>
    1440:	e8 52       	subi	r30, 0x28	; 40
    1442:	f5 4c       	sbci	r31, 0xC5	; 197
    1444:	80 83       	st	Z, r24
    1446:	80 91 69 38 	lds	r24, 0x3869	; 0x803869 <cooledDown.3974>
    144a:	88 23       	and	r24, r24
    144c:	71 f0       	breq	.+28     	; 0x146a <HotSummer+0x68>
    144e:	80 91 d5 3a 	lds	r24, 0x3AD5	; 0x803ad5 <calTemp>
    1452:	90 91 d6 3a 	lds	r25, 0x3AD6	; 0x803ad6 <calTemp+0x1>
    1456:	20 91 02 3b 	lds	r18, 0x3B02	; 0x803b02 <adcTemp>
    145a:	30 91 03 3b 	lds	r19, 0x3B03	; 0x803b03 <adcTemp+0x1>
    145e:	80 96       	adiw	r24, 0x20	; 32
    1460:	28 17       	cp	r18, r24
    1462:	39 07       	cpc	r19, r25
    1464:	10 f0       	brcs	.+4      	; 0x146a <HotSummer+0x68>
    1466:	86 e7       	ldi	r24, 0x76	; 118
    1468:	2a c0       	rjmp	.+84     	; 0x14be <HotSummer+0xbc>
    146a:	80 91 d5 3a 	lds	r24, 0x3AD5	; 0x803ad5 <calTemp>
    146e:	90 91 d6 3a 	lds	r25, 0x3AD6	; 0x803ad6 <calTemp+0x1>
    1472:	20 91 02 3b 	lds	r18, 0x3B02	; 0x803b02 <adcTemp>
    1476:	30 91 03 3b 	lds	r19, 0x3B03	; 0x803b03 <adcTemp+0x1>
    147a:	08 96       	adiw	r24, 0x08	; 8
    147c:	82 17       	cp	r24, r18
    147e:	93 07       	cpc	r25, r19
    1480:	18 f0       	brcs	.+6      	; 0x1488 <HotSummer+0x86>
    1482:	81 e0       	ldi	r24, 0x01	; 1
    1484:	80 93 69 38 	sts	0x3869, r24	; 0x803869 <cooledDown.3974>
    1488:	80 91 d5 3a 	lds	r24, 0x3AD5	; 0x803ad5 <calTemp>
    148c:	90 91 d6 3a 	lds	r25, 0x3AD6	; 0x803ad6 <calTemp+0x1>
    1490:	89 2b       	or	r24, r25
    1492:	41 f4       	brne	.+16     	; 0x14a4 <HotSummer+0xa2>
    1494:	80 91 02 3b 	lds	r24, 0x3B02	; 0x803b02 <adcTemp>
    1498:	90 91 03 3b 	lds	r25, 0x3B03	; 0x803b03 <adcTemp+0x1>
    149c:	80 93 d5 3a 	sts	0x3AD5, r24	; 0x803ad5 <calTemp>
    14a0:	90 93 d6 3a 	sts	0x3AD6, r25	; 0x803ad6 <calTemp+0x1>
    14a4:	80 91 d5 3a 	lds	r24, 0x3AD5	; 0x803ad5 <calTemp>
    14a8:	90 91 d6 3a 	lds	r25, 0x3AD6	; 0x803ad6 <calTemp+0x1>
    14ac:	20 91 02 3b 	lds	r18, 0x3B02	; 0x803b02 <adcTemp>
    14b0:	30 91 03 3b 	lds	r19, 0x3B03	; 0x803b03 <adcTemp+0x1>
    14b4:	80 96       	adiw	r24, 0x20	; 32
    14b6:	28 17       	cp	r18, r24
    14b8:	39 07       	cpc	r19, r25
    14ba:	10 f0       	brcs	.+4      	; 0x14c0 <HotSummer+0xbe>
    14bc:	85 e7       	ldi	r24, 0x75	; 117
    14be:	e7 de       	rcall	.-562    	; 0x128e <UpdateState>
    14c0:	8c 2f       	mov	r24, r28
    14c2:	cf 91       	pop	r28
    14c4:	08 95       	ret

000014c6 <WingBar>:
    14c6:	e0 e4       	ldi	r30, 0x40	; 64
    14c8:	ff eb       	ldi	r31, 0xBF	; 191
    14ca:	90 e0       	ldi	r25, 0x00	; 0
    14cc:	a5 81       	ldd	r26, Z+5	; 0x05
    14ce:	b0 e0       	ldi	r27, 0x00	; 0
    14d0:	98 17       	cp	r25, r24
    14d2:	34 f4       	brge	.+12     	; 0x14e0 <WingBar+0x1a>
    14d4:	20 91 0c 38 	lds	r18, 0x380C	; 0x80380c <dimValue>
    14d8:	a8 52       	subi	r26, 0x28	; 40
    14da:	b5 4c       	sbci	r27, 0xC5	; 197
    14dc:	2c 93       	st	X, r18
    14de:	03 c0       	rjmp	.+6      	; 0x14e6 <WingBar+0x20>
    14e0:	a8 52       	subi	r26, 0x28	; 40
    14e2:	b5 4c       	sbci	r27, 0xC5	; 197
    14e4:	1c 92       	st	X, r1
    14e6:	a0 81       	ld	r26, Z
    14e8:	b0 e0       	ldi	r27, 0x00	; 0
    14ea:	96 17       	cp	r25, r22
    14ec:	34 f4       	brge	.+12     	; 0x14fa <WingBar+0x34>
    14ee:	20 91 0c 38 	lds	r18, 0x380C	; 0x80380c <dimValue>
    14f2:	a8 52       	subi	r26, 0x28	; 40
    14f4:	b5 4c       	sbci	r27, 0xC5	; 197
    14f6:	2c 93       	st	X, r18
    14f8:	03 c0       	rjmp	.+6      	; 0x1500 <WingBar+0x3a>
    14fa:	a8 52       	subi	r26, 0x28	; 40
    14fc:	b5 4c       	sbci	r27, 0xC5	; 197
    14fe:	1c 92       	st	X, r1
    1500:	9f 5f       	subi	r25, 0xFF	; 255
    1502:	31 96       	adiw	r30, 0x01	; 1
    1504:	95 30       	cpi	r25, 0x05	; 5
    1506:	11 f7       	brne	.-60     	; 0x14cc <WingBar+0x6>
    1508:	08 95       	ret

0000150a <SetBothEyes>:
    150a:	aa e4       	ldi	r26, 0x4A	; 74
    150c:	bf eb       	ldi	r27, 0xBF	; 191
    150e:	ec 91       	ld	r30, X
    1510:	f0 e0       	ldi	r31, 0x00	; 0
    1512:	e8 52       	subi	r30, 0x28	; 40
    1514:	f5 4c       	sbci	r31, 0xC5	; 197
    1516:	80 83       	st	Z, r24
    1518:	12 96       	adiw	r26, 0x02	; 2
    151a:	ec 91       	ld	r30, X
    151c:	12 97       	sbiw	r26, 0x02	; 2
    151e:	f0 e0       	ldi	r31, 0x00	; 0
    1520:	e8 52       	subi	r30, 0x28	; 40
    1522:	f5 4c       	sbci	r31, 0xC5	; 197
    1524:	60 83       	st	Z, r22
    1526:	11 96       	adiw	r26, 0x01	; 1
    1528:	ec 91       	ld	r30, X
    152a:	11 97       	sbiw	r26, 0x01	; 1
    152c:	f0 e0       	ldi	r31, 0x00	; 0
    152e:	e8 52       	subi	r30, 0x28	; 40
    1530:	f5 4c       	sbci	r31, 0xC5	; 197
    1532:	80 83       	st	Z, r24
    1534:	13 96       	adiw	r26, 0x03	; 3
    1536:	ec 91       	ld	r30, X
    1538:	f0 e0       	ldi	r31, 0x00	; 0
    153a:	e8 52       	subi	r30, 0x28	; 40
    153c:	f5 4c       	sbci	r31, 0xC5	; 197
    153e:	60 83       	st	Z, r22
    1540:	08 95       	ret

00001542 <SetHackerLeds>:
    1542:	ae e4       	ldi	r26, 0x4E	; 78
    1544:	bf eb       	ldi	r27, 0xBF	; 191
    1546:	ed 91       	ld	r30, X+
    1548:	f0 e0       	ldi	r31, 0x00	; 0
    154a:	e8 52       	subi	r30, 0x28	; 40
    154c:	f5 4c       	sbci	r31, 0xC5	; 197
    154e:	80 83       	st	Z, r24
    1550:	15 96       	adiw	r26, 0x05	; 5
    1552:	ec 91       	ld	r30, X
    1554:	15 97       	sbiw	r26, 0x05	; 5
    1556:	f0 e0       	ldi	r31, 0x00	; 0
    1558:	e8 52       	subi	r30, 0x28	; 40
    155a:	f5 4c       	sbci	r31, 0xC5	; 197
    155c:	60 83       	st	Z, r22
    155e:	9f eb       	ldi	r25, 0xBF	; 191
    1560:	a4 35       	cpi	r26, 0x54	; 84
    1562:	b9 07       	cpc	r27, r25
    1564:	81 f7       	brne	.-32     	; 0x1546 <SetHackerLeds+0x4>
    1566:	08 95       	ret

00001568 <VictoryDance>:
    1568:	60 91 0c 38 	lds	r22, 0x380C	; 0x80380c <dimValue>
    156c:	80 e0       	ldi	r24, 0x00	; 0
    156e:	cd df       	rcall	.-102    	; 0x150a <SetBothEyes>
    1570:	80 91 48 01 	lds	r24, 0x0148	; 0x800148 <__TEXT_REGION_LENGTH__+0x700148>
    1574:	90 91 49 01 	lds	r25, 0x0149	; 0x800149 <__TEXT_REGION_LENGTH__+0x700149>
    1578:	89 2f       	mov	r24, r25
    157a:	99 27       	eor	r25, r25
    157c:	82 95       	swap	r24
    157e:	8f 70       	andi	r24, 0x0F	; 15
    1580:	87 70       	andi	r24, 0x07	; 7
    1582:	99 27       	eor	r25, r25
    1584:	84 30       	cpi	r24, 0x04	; 4
    1586:	91 05       	cpc	r25, r1
    1588:	59 f0       	breq	.+22     	; 0x15a0 <VictoryDance+0x38>
    158a:	28 f4       	brcc	.+10     	; 0x1596 <VictoryDance+0x2e>
    158c:	03 97       	sbiw	r24, 0x03	; 3
    158e:	58 f4       	brcc	.+22     	; 0x15a6 <VictoryDance+0x3e>
    1590:	88 e0       	ldi	r24, 0x08	; 8
    1592:	90 e0       	ldi	r25, 0x00	; 0
    1594:	0d c0       	rjmp	.+26     	; 0x15b0 <VictoryDance+0x48>
    1596:	06 97       	sbiw	r24, 0x06	; 6
    1598:	31 f4       	brne	.+12     	; 0x15a6 <VictoryDance+0x3e>
    159a:	87 e0       	ldi	r24, 0x07	; 7
    159c:	90 e0       	ldi	r25, 0x00	; 0
    159e:	08 c0       	rjmp	.+16     	; 0x15b0 <VictoryDance+0x48>
    15a0:	86 e0       	ldi	r24, 0x06	; 6
    15a2:	90 e0       	ldi	r25, 0x00	; 0
    15a4:	05 c0       	rjmp	.+10     	; 0x15b0 <VictoryDance+0x48>
    15a6:	60 e0       	ldi	r22, 0x00	; 0
    15a8:	80 e0       	ldi	r24, 0x00	; 0
    15aa:	8d df       	rcall	.-230    	; 0x14c6 <WingBar>
    15ac:	82 e0       	ldi	r24, 0x02	; 2
    15ae:	90 e0       	ldi	r25, 0x00	; 0
    15b0:	80 93 4a 38 	sts	0x384A, r24	; 0x80384a <effect>
    15b4:	90 93 4b 38 	sts	0x384B, r25	; 0x80384b <effect+0x1>
    15b8:	08 95       	ret

000015ba <GenerateBlinks>:
    15ba:	a0 e0       	ldi	r26, 0x00	; 0
    15bc:	b0 e0       	ldi	r27, 0x00	; 0
    15be:	e3 ee       	ldi	r30, 0xE3	; 227
    15c0:	fa e0       	ldi	r31, 0x0A	; 10
    15c2:	0c 94 67 1f 	jmp	0x3ece	; 0x3ece <__prologue_saves__+0x14>
    15c6:	80 91 4c 38 	lds	r24, 0x384C	; 0x80384c <gameNow>
    15ca:	88 23       	and	r24, r24
    15cc:	29 f0       	breq	.+10     	; 0x15d8 <GenerateBlinks+0x1e>
    15ce:	80 e4       	ldi	r24, 0x40	; 64
    15d0:	7f de       	rcall	.-770    	; 0x12d0 <CheckState>
    15d2:	81 11       	cpse	r24, r1
    15d4:	24 c0       	rjmp	.+72     	; 0x161e <GenerateBlinks+0x64>
    15d6:	53 c0       	rjmp	.+166    	; 0x167e <GenerateBlinks+0xc4>
    15d8:	ce e4       	ldi	r28, 0x4E	; 78
    15da:	df eb       	ldi	r29, 0xBF	; 191
    15dc:	1a e7       	ldi	r17, 0x7A	; 122
    15de:	81 2f       	mov	r24, r17
    15e0:	77 de       	rcall	.-786    	; 0x12d0 <CheckState>
    15e2:	ee 81       	ldd	r30, Y+6	; 0x06
    15e4:	f0 e0       	ldi	r31, 0x00	; 0
    15e6:	88 23       	and	r24, r24
    15e8:	59 f0       	breq	.+22     	; 0x1600 <GenerateBlinks+0x46>
    15ea:	80 91 0c 38 	lds	r24, 0x380C	; 0x80380c <dimValue>
    15ee:	e8 52       	subi	r30, 0x28	; 40
    15f0:	f5 4c       	sbci	r31, 0xC5	; 197
    15f2:	80 83       	st	Z, r24
    15f4:	e8 81       	ld	r30, Y
    15f6:	f0 e0       	ldi	r31, 0x00	; 0
    15f8:	e8 52       	subi	r30, 0x28	; 40
    15fa:	f5 4c       	sbci	r31, 0xC5	; 197
    15fc:	10 82       	st	Z, r1
    15fe:	0a c0       	rjmp	.+20     	; 0x1614 <GenerateBlinks+0x5a>
    1600:	e8 52       	subi	r30, 0x28	; 40
    1602:	f5 4c       	sbci	r31, 0xC5	; 197
    1604:	10 82       	st	Z, r1
    1606:	e8 81       	ld	r30, Y
    1608:	f0 e0       	ldi	r31, 0x00	; 0
    160a:	80 91 0c 38 	lds	r24, 0x380C	; 0x80380c <dimValue>
    160e:	e8 52       	subi	r30, 0x28	; 40
    1610:	f5 4c       	sbci	r31, 0xC5	; 197
    1612:	80 83       	st	Z, r24
    1614:	1f 5f       	subi	r17, 0xFF	; 255
    1616:	21 96       	adiw	r28, 0x01	; 1
    1618:	10 38       	cpi	r17, 0x80	; 128
    161a:	09 f7       	brne	.-62     	; 0x15de <GenerateBlinks+0x24>
    161c:	d8 cf       	rjmp	.-80     	; 0x15ce <GenerateBlinks+0x14>
    161e:	90 91 6b 38 	lds	r25, 0x386B	; 0x80386b <HeartCount>
    1622:	49 2f       	mov	r20, r25
    1624:	50 e0       	ldi	r21, 0x00	; 0
    1626:	80 91 3d bf 	lds	r24, 0xBF3D	; 0x80bf3d <__bss_end+0x8416>
    162a:	47 30       	cpi	r20, 0x07	; 7
    162c:	51 05       	cpc	r21, r1
    162e:	d0 f4       	brcc	.+52     	; 0x1664 <GenerateBlinks+0xaa>
    1630:	fa 01       	movw	r30, r20
    1632:	e2 5c       	subi	r30, 0xC2	; 194
    1634:	ff 4f       	sbci	r31, 0xFF	; 255
    1636:	0c 94 57 1f 	jmp	0x3eae	; 0x3eae <__tablejump2__>
    163a:	e8 2f       	mov	r30, r24
    163c:	f0 e0       	ldi	r31, 0x00	; 0
    163e:	80 91 0c 38 	lds	r24, 0x380C	; 0x80380c <dimValue>
    1642:	86 95       	lsr	r24
    1644:	86 95       	lsr	r24
    1646:	05 c0       	rjmp	.+10     	; 0x1652 <GenerateBlinks+0x98>
    1648:	e8 2f       	mov	r30, r24
    164a:	f0 e0       	ldi	r31, 0x00	; 0
    164c:	80 91 0c 38 	lds	r24, 0x380C	; 0x80380c <dimValue>
    1650:	86 95       	lsr	r24
    1652:	e8 52       	subi	r30, 0x28	; 40
    1654:	f5 4c       	sbci	r31, 0xC5	; 197
    1656:	80 83       	st	Z, r24
    1658:	0a c0       	rjmp	.+20     	; 0x166e <GenerateBlinks+0xb4>
    165a:	e8 2f       	mov	r30, r24
    165c:	f0 e0       	ldi	r31, 0x00	; 0
    165e:	80 91 0c 38 	lds	r24, 0x380C	; 0x80380c <dimValue>
    1662:	f7 cf       	rjmp	.-18     	; 0x1652 <GenerateBlinks+0x98>
    1664:	e8 2f       	mov	r30, r24
    1666:	f0 e0       	ldi	r31, 0x00	; 0
    1668:	e8 52       	subi	r30, 0x28	; 40
    166a:	f5 4c       	sbci	r31, 0xC5	; 197
    166c:	10 82       	st	Z, r1
    166e:	90 32       	cpi	r25, 0x20	; 32
    1670:	20 f4       	brcc	.+8      	; 0x167a <GenerateBlinks+0xc0>
    1672:	9f 5f       	subi	r25, 0xFF	; 255
    1674:	90 93 6b 38 	sts	0x386B, r25	; 0x80386b <HeartCount>
    1678:	02 c0       	rjmp	.+4      	; 0x167e <GenerateBlinks+0xc4>
    167a:	10 92 6b 38 	sts	0x386B, r1	; 0x80386b <HeartCount>
    167e:	90 91 6a 38 	lds	r25, 0x386A	; 0x80386a <LedCount>
    1682:	9f 5f       	subi	r25, 0xFF	; 255
    1684:	90 93 6a 38 	sts	0x386A, r25	; 0x80386a <LedCount>
    1688:	e0 91 4a 38 	lds	r30, 0x384A	; 0x80384a <effect>
    168c:	f0 91 4b 38 	lds	r31, 0x384B	; 0x80384b <effect+0x1>
    1690:	ef 71       	andi	r30, 0x1F	; 31
    1692:	ff 27       	eor	r31, r31
    1694:	e2 31       	cpi	r30, 0x12	; 18
    1696:	f1 05       	cpc	r31, r1
    1698:	08 f0       	brcs	.+2      	; 0x169c <GenerateBlinks+0xe2>
    169a:	eb c0       	rjmp	.+470    	; 0x1872 <GenerateBlinks+0x2b8>
    169c:	eb 5b       	subi	r30, 0xBB	; 187
    169e:	ff 4f       	sbci	r31, 0xFF	; 255
    16a0:	0c 94 57 1f 	jmp	0x3eae	; 0x3eae <__tablejump2__>
    16a4:	60 e0       	ldi	r22, 0x00	; 0
    16a6:	80 e0       	ldi	r24, 0x00	; 0
    16a8:	30 df       	rcall	.-416    	; 0x150a <SetBothEyes>
    16aa:	80 91 4a 38 	lds	r24, 0x384A	; 0x80384a <effect>
    16ae:	90 91 4b 38 	lds	r25, 0x384B	; 0x80384b <effect+0x1>
    16b2:	84 fd       	sbrc	r24, 4
    16b4:	0a c0       	rjmp	.+20     	; 0x16ca <GenerateBlinks+0x110>
    16b6:	60 e0       	ldi	r22, 0x00	; 0
    16b8:	80 e0       	ldi	r24, 0x00	; 0
    16ba:	05 df       	rcall	.-502    	; 0x14c6 <WingBar>
    16bc:	e0 91 3c bf 	lds	r30, 0xBF3C	; 0x80bf3c <__bss_end+0x8415>
    16c0:	f0 e0       	ldi	r31, 0x00	; 0
    16c2:	e8 52       	subi	r30, 0x28	; 40
    16c4:	f5 4c       	sbci	r31, 0xC5	; 197
    16c6:	10 82       	st	Z, r1
    16c8:	d4 c0       	rjmp	.+424    	; 0x1872 <GenerateBlinks+0x2b8>
    16ca:	8f e1       	ldi	r24, 0x1F	; 31
    16cc:	90 e0       	ldi	r25, 0x00	; 0
    16ce:	80 93 4a 38 	sts	0x384A, r24	; 0x80384a <effect>
    16d2:	90 93 4b 38 	sts	0x384B, r25	; 0x80384b <effect+0x1>
    16d6:	cd c0       	rjmp	.+410    	; 0x1872 <GenerateBlinks+0x2b8>
    16d8:	89 2f       	mov	r24, r25
    16da:	81 70       	andi	r24, 0x01	; 1
    16dc:	90 fd       	sbrc	r25, 0
    16de:	80 91 0c 38 	lds	r24, 0x380C	; 0x80380c <dimValue>
    16e2:	60 e0       	ldi	r22, 0x00	; 0
    16e4:	12 df       	rcall	.-476    	; 0x150a <SetBothEyes>
    16e6:	80 91 4a 38 	lds	r24, 0x384A	; 0x80384a <effect>
    16ea:	90 91 4b 38 	lds	r25, 0x384B	; 0x80384b <effect+0x1>
    16ee:	84 ff       	sbrs	r24, 4
    16f0:	c0 c0       	rjmp	.+384    	; 0x1872 <GenerateBlinks+0x2b8>
    16f2:	80 91 0c 38 	lds	r24, 0x380C	; 0x80380c <dimValue>
    16f6:	60 e0       	ldi	r22, 0x00	; 0
    16f8:	24 df       	rcall	.-440    	; 0x1542 <SetHackerLeds>
    16fa:	bb c0       	rjmp	.+374    	; 0x1872 <GenerateBlinks+0x2b8>
    16fc:	69 2f       	mov	r22, r25
    16fe:	70 e0       	ldi	r23, 0x00	; 0
    1700:	93 ff       	sbrs	r25, 3
    1702:	02 c0       	rjmp	.+4      	; 0x1708 <GenerateBlinks+0x14e>
    1704:	60 95       	com	r22
    1706:	70 95       	com	r23
    1708:	95 e0       	ldi	r25, 0x05	; 5
    170a:	66 0f       	add	r22, r22
    170c:	77 1f       	adc	r23, r23
    170e:	9a 95       	dec	r25
    1710:	e1 f7       	brne	.-8      	; 0x170a <GenerateBlinks+0x150>
    1712:	61 5e       	subi	r22, 0xE1	; 225
    1714:	80 e0       	ldi	r24, 0x00	; 0
    1716:	f9 de       	rcall	.-526    	; 0x150a <SetBothEyes>
    1718:	ac c0       	rjmp	.+344    	; 0x1872 <GenerateBlinks+0x2b8>
    171a:	89 2f       	mov	r24, r25
    171c:	83 70       	andi	r24, 0x03	; 3
    171e:	09 f0       	breq	.+2      	; 0x1722 <GenerateBlinks+0x168>
    1720:	a8 c0       	rjmp	.+336    	; 0x1872 <GenerateBlinks+0x2b8>
    1722:	92 ff       	sbrs	r25, 2
    1724:	03 c0       	rjmp	.+6      	; 0x172c <GenerateBlinks+0x172>
    1726:	65 e0       	ldi	r22, 0x05	; 5
    1728:	85 e0       	ldi	r24, 0x05	; 5
    172a:	02 c0       	rjmp	.+4      	; 0x1730 <GenerateBlinks+0x176>
    172c:	60 e0       	ldi	r22, 0x00	; 0
    172e:	80 e0       	ldi	r24, 0x00	; 0
    1730:	ca de       	rcall	.-620    	; 0x14c6 <WingBar>
    1732:	9f c0       	rjmp	.+318    	; 0x1872 <GenerateBlinks+0x2b8>
    1734:	95 30       	cpi	r25, 0x05	; 5
    1736:	10 f0       	brcs	.+4      	; 0x173c <GenerateBlinks+0x182>
    1738:	10 92 6a 38 	sts	0x386A, r1	; 0x80386a <LedCount>
    173c:	40 91 6a 38 	lds	r20, 0x386A	; 0x80386a <LedCount>
    1740:	24 2f       	mov	r18, r20
    1742:	30 e0       	ldi	r19, 0x00	; 0
    1744:	f9 01       	movw	r30, r18
    1746:	e0 5c       	subi	r30, 0xC0	; 192
    1748:	f0 44       	sbci	r31, 0x40	; 64
    174a:	e5 81       	ldd	r30, Z+5	; 0x05
    174c:	f0 e0       	ldi	r31, 0x00	; 0
    174e:	e8 52       	subi	r30, 0x28	; 40
    1750:	f5 4c       	sbci	r31, 0xC5	; 197
    1752:	10 82       	st	Z, r1
    1754:	44 30       	cpi	r20, 0x04	; 4
    1756:	19 f0       	breq	.+6      	; 0x175e <GenerateBlinks+0x1a4>
    1758:	c9 01       	movw	r24, r18
    175a:	01 96       	adiw	r24, 0x01	; 1
    175c:	02 c0       	rjmp	.+4      	; 0x1762 <GenerateBlinks+0x1a8>
    175e:	80 e0       	ldi	r24, 0x00	; 0
    1760:	90 e0       	ldi	r25, 0x00	; 0
    1762:	fc 01       	movw	r30, r24
    1764:	e0 5c       	subi	r30, 0xC0	; 192
    1766:	f0 44       	sbci	r31, 0x40	; 64
    1768:	e5 81       	ldd	r30, Z+5	; 0x05
    176a:	f0 e0       	ldi	r31, 0x00	; 0
    176c:	80 91 0c 38 	lds	r24, 0x380C	; 0x80380c <dimValue>
    1770:	e8 52       	subi	r30, 0x28	; 40
    1772:	f5 4c       	sbci	r31, 0xC5	; 197
    1774:	80 83       	st	Z, r24
    1776:	e4 e4       	ldi	r30, 0x44	; 68
    1778:	ff eb       	ldi	r31, 0xBF	; 191
    177a:	e2 1b       	sub	r30, r18
    177c:	f3 0b       	sbc	r31, r19
    177e:	e0 81       	ld	r30, Z
    1780:	f0 e0       	ldi	r31, 0x00	; 0
    1782:	e8 52       	subi	r30, 0x28	; 40
    1784:	f5 4c       	sbci	r31, 0xC5	; 197
    1786:	10 82       	st	Z, r1
    1788:	44 30       	cpi	r20, 0x04	; 4
    178a:	29 f0       	breq	.+10     	; 0x1796 <GenerateBlinks+0x1dc>
    178c:	83 e0       	ldi	r24, 0x03	; 3
    178e:	90 e0       	ldi	r25, 0x00	; 0
    1790:	82 1b       	sub	r24, r18
    1792:	93 0b       	sbc	r25, r19
    1794:	02 c0       	rjmp	.+4      	; 0x179a <GenerateBlinks+0x1e0>
    1796:	84 e0       	ldi	r24, 0x04	; 4
    1798:	90 e0       	ldi	r25, 0x00	; 0
    179a:	fc 01       	movw	r30, r24
    179c:	e0 5c       	subi	r30, 0xC0	; 192
    179e:	f0 44       	sbci	r31, 0x40	; 64
    17a0:	e0 81       	ld	r30, Z
    17a2:	f0 e0       	ldi	r31, 0x00	; 0
    17a4:	80 91 0c 38 	lds	r24, 0x380C	; 0x80380c <dimValue>
    17a8:	e8 52       	subi	r30, 0x28	; 40
    17aa:	f5 4c       	sbci	r31, 0xC5	; 197
    17ac:	80 83       	st	Z, r24
    17ae:	61 c0       	rjmp	.+194    	; 0x1872 <GenerateBlinks+0x2b8>
    17b0:	c0 e4       	ldi	r28, 0x40	; 64
    17b2:	df eb       	ldi	r29, 0xBF	; 191
    17b4:	85 e4       	ldi	r24, 0x45	; 69
    17b6:	e8 2e       	mov	r14, r24
    17b8:	8f eb       	ldi	r24, 0xBF	; 191
    17ba:	f8 2e       	mov	r15, r24
    17bc:	6e 01       	movw	r12, r28
    17be:	0d 81       	ldd	r16, Y+5	; 0x05
    17c0:	10 e0       	ldi	r17, 0x00	; 0
    17c2:	5f dc       	rcall	.-1858   	; 0x1082 <lfsr>
    17c4:	87 ff       	sbrs	r24, 7
    17c6:	03 c0       	rjmp	.+6      	; 0x17ce <GenerateBlinks+0x214>
    17c8:	80 91 0c 38 	lds	r24, 0x380C	; 0x80380c <dimValue>
    17cc:	01 c0       	rjmp	.+2      	; 0x17d0 <GenerateBlinks+0x216>
    17ce:	80 e0       	ldi	r24, 0x00	; 0
    17d0:	f8 01       	movw	r30, r16
    17d2:	e8 52       	subi	r30, 0x28	; 40
    17d4:	f5 4c       	sbci	r31, 0xC5	; 197
    17d6:	80 83       	st	Z, r24
    17d8:	21 96       	adiw	r28, 0x01	; 1
    17da:	f6 01       	movw	r30, r12
    17dc:	00 81       	ld	r16, Z
    17de:	10 e0       	ldi	r17, 0x00	; 0
    17e0:	50 dc       	rcall	.-1888   	; 0x1082 <lfsr>
    17e2:	87 ff       	sbrs	r24, 7
    17e4:	03 c0       	rjmp	.+6      	; 0x17ec <GenerateBlinks+0x232>
    17e6:	80 91 0c 38 	lds	r24, 0x380C	; 0x80380c <dimValue>
    17ea:	01 c0       	rjmp	.+2      	; 0x17ee <GenerateBlinks+0x234>
    17ec:	80 e0       	ldi	r24, 0x00	; 0
    17ee:	f8 01       	movw	r30, r16
    17f0:	e8 52       	subi	r30, 0x28	; 40
    17f2:	f5 4c       	sbci	r31, 0xC5	; 197
    17f4:	80 83       	st	Z, r24
    17f6:	ec 16       	cp	r14, r28
    17f8:	fd 06       	cpc	r15, r29
    17fa:	01 f7       	brne	.-64     	; 0x17bc <GenerateBlinks+0x202>
    17fc:	3a c0       	rjmp	.+116    	; 0x1872 <GenerateBlinks+0x2b8>
    17fe:	90 fd       	sbrc	r25, 0
    1800:	38 c0       	rjmp	.+112    	; 0x1872 <GenerateBlinks+0x2b8>
    1802:	e0 e4       	ldi	r30, 0x40	; 64
    1804:	ff eb       	ldi	r31, 0xBF	; 191
    1806:	84 e4       	ldi	r24, 0x44	; 68
    1808:	9f eb       	ldi	r25, 0xBF	; 191
    180a:	9f 01       	movw	r18, r30
    180c:	a5 81       	ldd	r26, Z+5	; 0x05
    180e:	b0 e0       	ldi	r27, 0x00	; 0
    1810:	c6 81       	ldd	r28, Z+6	; 0x06
    1812:	d0 e0       	ldi	r29, 0x00	; 0
    1814:	c8 52       	subi	r28, 0x28	; 40
    1816:	d5 4c       	sbci	r29, 0xC5	; 197
    1818:	48 81       	ld	r20, Y
    181a:	a8 52       	subi	r26, 0x28	; 40
    181c:	b5 4c       	sbci	r27, 0xC5	; 197
    181e:	4c 93       	st	X, r20
    1820:	31 96       	adiw	r30, 0x01	; 1
    1822:	e9 01       	movw	r28, r18
    1824:	a8 81       	ld	r26, Y
    1826:	b0 e0       	ldi	r27, 0x00	; 0
    1828:	c0 81       	ld	r28, Z
    182a:	d0 e0       	ldi	r29, 0x00	; 0
    182c:	c8 52       	subi	r28, 0x28	; 40
    182e:	d5 4c       	sbci	r29, 0xC5	; 197
    1830:	28 81       	ld	r18, Y
    1832:	a8 52       	subi	r26, 0x28	; 40
    1834:	b5 4c       	sbci	r27, 0xC5	; 197
    1836:	2c 93       	st	X, r18
    1838:	8e 17       	cp	r24, r30
    183a:	9f 07       	cpc	r25, r31
    183c:	31 f7       	brne	.-52     	; 0x180a <GenerateBlinks+0x250>
    183e:	c0 91 49 bf 	lds	r28, 0xBF49	; 0x80bf49 <__bss_end+0x8422>
    1842:	d0 e0       	ldi	r29, 0x00	; 0
    1844:	1e dc       	rcall	.-1988   	; 0x1082 <lfsr>
    1846:	81 3e       	cpi	r24, 0xE1	; 225
    1848:	18 f0       	brcs	.+6      	; 0x1850 <GenerateBlinks+0x296>
    184a:	80 91 0c 38 	lds	r24, 0x380C	; 0x80380c <dimValue>
    184e:	01 c0       	rjmp	.+2      	; 0x1852 <GenerateBlinks+0x298>
    1850:	80 e0       	ldi	r24, 0x00	; 0
    1852:	c8 52       	subi	r28, 0x28	; 40
    1854:	d5 4c       	sbci	r29, 0xC5	; 197
    1856:	88 83       	st	Y, r24
    1858:	c0 91 44 bf 	lds	r28, 0xBF44	; 0x80bf44 <__bss_end+0x841d>
    185c:	d0 e0       	ldi	r29, 0x00	; 0
    185e:	11 dc       	rcall	.-2014   	; 0x1082 <lfsr>
    1860:	81 3e       	cpi	r24, 0xE1	; 225
    1862:	18 f0       	brcs	.+6      	; 0x186a <GenerateBlinks+0x2b0>
    1864:	80 91 0c 38 	lds	r24, 0x380C	; 0x80380c <dimValue>
    1868:	01 c0       	rjmp	.+2      	; 0x186c <GenerateBlinks+0x2b2>
    186a:	80 e0       	ldi	r24, 0x00	; 0
    186c:	c8 52       	subi	r28, 0x28	; 40
    186e:	d5 4c       	sbci	r29, 0xC5	; 197
    1870:	88 83       	st	Y, r24
    1872:	cd b7       	in	r28, 0x3d	; 61
    1874:	de b7       	in	r29, 0x3e	; 62
    1876:	e8 e0       	ldi	r30, 0x08	; 8
    1878:	0c 94 80 1f 	jmp	0x3f00	; 0x3f00 <__epilogue_restores__+0x14>

0000187c <FadeOut>:
    187c:	80 95       	com	r24
    187e:	20 91 54 38 	lds	r18, 0x3854	; 0x803854 <fastTicker>
    1882:	30 e0       	ldi	r19, 0x00	; 0
    1884:	87 70       	andi	r24, 0x07	; 7
    1886:	a9 01       	movw	r20, r18
    1888:	02 c0       	rjmp	.+4      	; 0x188e <FadeOut+0x12>
    188a:	55 95       	asr	r21
    188c:	47 95       	ror	r20
    188e:	8a 95       	dec	r24
    1890:	e2 f7       	brpl	.-8      	; 0x188a <FadeOut+0xe>
    1892:	ca 01       	movw	r24, r20
    1894:	44 23       	and	r20, r20
    1896:	01 f1       	breq	.+64     	; 0x18d8 <FadeOut+0x5c>
    1898:	30 91 ca 3a 	lds	r19, 0x3ACA	; 0x803aca <auVolume>
    189c:	43 17       	cp	r20, r19
    189e:	30 f4       	brcc	.+12     	; 0x18ac <FadeOut+0x30>
    18a0:	90 91 ca 3a 	lds	r25, 0x3ACA	; 0x803aca <auVolume>
    18a4:	98 1b       	sub	r25, r24
    18a6:	90 93 ca 3a 	sts	0x3ACA, r25	; 0x803aca <auVolume>
    18aa:	14 c0       	rjmp	.+40     	; 0x18d4 <FadeOut+0x58>
    18ac:	10 92 ca 3a 	sts	0x3ACA, r1	; 0x803aca <auVolume>
    18b0:	66 23       	and	r22, r22
    18b2:	81 f0       	breq	.+32     	; 0x18d4 <FadeOut+0x58>
    18b4:	89 e4       	ldi	r24, 0x49	; 73
    18b6:	98 e3       	ldi	r25, 0x38	; 56
    18b8:	80 93 03 38 	sts	0x3803, r24	; 0x803803 <auRepAddr>
    18bc:	90 93 04 38 	sts	0x3804, r25	; 0x803804 <auRepAddr+0x1>
    18c0:	80 91 4a 38 	lds	r24, 0x384A	; 0x80384a <effect>
    18c4:	90 91 4b 38 	lds	r25, 0x384B	; 0x80384b <effect+0x1>
    18c8:	8f 71       	andi	r24, 0x1F	; 31
    18ca:	99 27       	eor	r25, r25
    18cc:	80 93 4a 38 	sts	0x384A, r24	; 0x80384a <effect>
    18d0:	90 93 4b 38 	sts	0x384B, r25	; 0x80384b <effect+0x1>
    18d4:	10 92 54 38 	sts	0x3854, r1	; 0x803854 <fastTicker>
    18d8:	08 95       	ret

000018da <GenerateAudio>:

uint8_t GenerateAudio(){
    18da:	0f 93       	push	r16
    18dc:	1f 93       	push	r17
    18de:	cf 93       	push	r28
    18e0:	df 93       	push	r29
    static uint8_t start = 0;
    static uint8_t duration;

    //Headphones detected?
    if (auIn < HPLVL) {
    18e2:	80 91 d7 3a 	lds	r24, 0x3AD7	; 0x803ad7 <auIn>
    18e6:	89 31       	cpi	r24, 0x19	; 25
    18e8:	08 f0       	brcs	.+2      	; 0x18ec <GenerateAudio+0x12>
    18ea:	ca c1       	rjmp	.+916    	; 0x1c80 <GenerateAudio+0x3a6>

        detHdPh = 1;
    18ec:	c1 e0       	ldi	r28, 0x01	; 1
    18ee:	c0 93 d4 3a 	sts	0x3AD4, r28	; 0x803ad4 <detHdPh>

        //Audio for text adventure
        if ((effect&0xff00)==0) {
    18f2:	80 91 4a 38 	lds	r24, 0x384A	; 0x80384a <effect>
    18f6:	90 91 4b 38 	lds	r25, 0x384B	; 0x80384b <effect+0x1>
    18fa:	88 27       	eor	r24, r24
    18fc:	89 2b       	or	r24, r25
    18fe:	09 f0       	breq	.+2      	; 0x1902 <GenerateAudio+0x28>
    1900:	75 c1       	rjmp	.+746    	; 0x1bec <GenerateAudio+0x312>
        
            //Silence, I kill u
            if ((effect&0xE0)==0){
    1902:	80 91 4a 38 	lds	r24, 0x384A	; 0x80384a <effect>
    1906:	90 91 4b 38 	lds	r25, 0x384B	; 0x80384b <effect+0x1>
    190a:	80 7e       	andi	r24, 0xE0	; 224
    190c:	99 27       	eor	r25, r25
    190e:	89 2b       	or	r24, r25
    1910:	39 f4       	brne	.+14     	; 0x1920 <GenerateAudio+0x46>
                auRepAddr = &zero;
    1912:	89 e4       	ldi	r24, 0x49	; 73
    1914:	98 e3       	ldi	r25, 0x38	; 56
    1916:	80 93 03 38 	sts	0x3803, r24	; 0x803803 <auRepAddr>
    191a:	90 93 04 38 	sts	0x3804, r25	; 0x803804 <auRepAddr+0x1>
    191e:	63 c1       	rjmp	.+710    	; 0x1be6 <GenerateAudio+0x30c>
                start = 0;
            }

            //Bad answer (buzzer, also used in other games)
            else if ((effect&0xE0)==32){
    1920:	80 91 4a 38 	lds	r24, 0x384A	; 0x80384a <effect>
    1924:	90 91 4b 38 	lds	r25, 0x384B	; 0x80384b <effect+0x1>
    1928:	80 7e       	andi	r24, 0xE0	; 224
    192a:	99 27       	eor	r25, r25
    192c:	80 97       	sbiw	r24, 0x20	; 32
    192e:	61 f5       	brne	.+88     	; 0x1988 <GenerateAudio+0xae>
                static uint8_t auBuffer[17] = {1, 255, 128, 128, 192, 255, 64, 255, 192, 128, 64, 1, 192, 1, 64, 128, 0}; 
                auBuffer[2] = floatAround(0x80, 5, 0x01, 0x00);
    1930:	20 e0       	ldi	r18, 0x00	; 0
    1932:	41 e0       	ldi	r20, 0x01	; 1
    1934:	65 e0       	ldi	r22, 0x05	; 5
    1936:	80 e8       	ldi	r24, 0x80	; 128
    1938:	f1 db       	rcall	.-2078   	; 0x111c <floatAround>
    193a:	80 93 25 38 	sts	0x3825, r24	; 0x803825 <auBuffer.4058+0x2>

                if (start == 0) {
    193e:	80 91 68 38 	lds	r24, 0x3868	; 0x803868 <start.4056>
    1942:	81 11       	cpse	r24, r1
    1944:	14 c0       	rjmp	.+40     	; 0x196e <GenerateAudio+0x94>
    //}
}

uint8_t Play(uint8_t * auBuffer, uint8_t repeat, uint16_t pitch, uint8_t volume)
{
    TCB1_CCMP = pitch;
    1946:	80 e0       	ldi	r24, 0x00	; 0
    1948:	91 e2       	ldi	r25, 0x21	; 33
    194a:	80 93 5c 0a 	sts	0x0A5C, r24	; 0x800a5c <__TEXT_REGION_LENGTH__+0x700a5c>
    194e:	90 93 5d 0a 	sts	0x0A5D, r25	; 0x800a5d <__TEXT_REGION_LENGTH__+0x700a5d>
    if (repeat) auRepAddr = auBuffer;
    1952:	83 e2       	ldi	r24, 0x23	; 35
    1954:	98 e3       	ldi	r25, 0x38	; 56
    1956:	80 93 03 38 	sts	0x3803, r24	; 0x803803 <auRepAddr>
    195a:	90 93 04 38 	sts	0x3804, r25	; 0x803804 <auRepAddr+0x1>
    else auSmpAddr = auBuffer;
    auVolume = volume;
    195e:	8f ef       	ldi	r24, 0xFF	; 255
    1960:	80 93 ca 3a 	sts	0x3ACA, r24	; 0x803aca <auVolume>
            else if ((effect&0xE0)==32){
                static uint8_t auBuffer[17] = {1, 255, 128, 128, 192, 255, 64, 255, 192, 128, 64, 1, 192, 1, 64, 128, 0}; 
                auBuffer[2] = floatAround(0x80, 5, 0x01, 0x00);

                if (start == 0) {
                    start = Play(&auBuffer[0], 1, 0x2100, 0xff);
    1964:	c0 93 68 38 	sts	0x3868, r28	; 0x803868 <start.4056>
                    duration = 8;
    1968:	88 e0       	ldi	r24, 0x08	; 8
    196a:	80 93 67 38 	sts	0x3867, r24	; 0x803867 <duration.4057>
                }

                if (duration == 0) FadeOut(4, start);
    196e:	80 91 67 38 	lds	r24, 0x3867	; 0x803867 <duration.4057>
    1972:	81 11       	cpse	r24, r1
    1974:	04 c0       	rjmp	.+8      	; 0x197e <GenerateAudio+0xa4>
    1976:	60 91 68 38 	lds	r22, 0x3868	; 0x803868 <start.4056>
    197a:	84 e0       	ldi	r24, 0x04	; 4
    197c:	7f df       	rcall	.-258    	; 0x187c <FadeOut>
                floatSpeed(1, 0x2000, 0x2200);
    197e:	40 e0       	ldi	r20, 0x00	; 0
    1980:	52 e2       	ldi	r21, 0x22	; 34
    1982:	60 e0       	ldi	r22, 0x00	; 0
    1984:	70 e2       	ldi	r23, 0x20	; 32
    1986:	79 c1       	rjmp	.+754    	; 0x1c7a <GenerateAudio+0x3a0>
            }

            //Good (bell)
            else if ((effect&0xE0)==64){   //64
    1988:	80 91 4a 38 	lds	r24, 0x384A	; 0x80384a <effect>
    198c:	90 91 4b 38 	lds	r25, 0x384B	; 0x80384b <effect+0x1>
    1990:	80 7e       	andi	r24, 0xE0	; 224
    1992:	99 27       	eor	r25, r25
    1994:	80 34       	cpi	r24, 0x40	; 64
    1996:	91 05       	cpc	r25, r1
    1998:	c1 f5       	brne	.+112    	; 0x1a0a <GenerateAudio+0x130>
                static uint8_t auBuffer[3] = {255, 1, 0};

                if (start == 0) {
    199a:	80 91 68 38 	lds	r24, 0x3868	; 0x803868 <start.4056>
    199e:	81 11       	cpse	r24, r1
    19a0:	14 c0       	rjmp	.+40     	; 0x19ca <GenerateAudio+0xf0>
    //}
}

uint8_t Play(uint8_t * auBuffer, uint8_t repeat, uint16_t pitch, uint8_t volume)
{
    TCB1_CCMP = pitch;
    19a2:	80 e0       	ldi	r24, 0x00	; 0
    19a4:	9a e0       	ldi	r25, 0x0A	; 10
    19a6:	80 93 5c 0a 	sts	0x0A5C, r24	; 0x800a5c <__TEXT_REGION_LENGTH__+0x700a5c>
    19aa:	90 93 5d 0a 	sts	0x0A5D, r25	; 0x800a5d <__TEXT_REGION_LENGTH__+0x700a5d>
    if (repeat) auRepAddr = auBuffer;
    19ae:	80 e2       	ldi	r24, 0x20	; 32
    19b0:	98 e3       	ldi	r25, 0x38	; 56
    19b2:	80 93 03 38 	sts	0x3803, r24	; 0x803803 <auRepAddr>
    19b6:	90 93 04 38 	sts	0x3804, r25	; 0x803804 <auRepAddr+0x1>
    else auSmpAddr = auBuffer;
    auVolume = volume;
    19ba:	8f ef       	ldi	r24, 0xFF	; 255
    19bc:	80 93 ca 3a 	sts	0x3ACA, r24	; 0x803aca <auVolume>
            //Good (bell)
            else if ((effect&0xE0)==64){   //64
                static uint8_t auBuffer[3] = {255, 1, 0};

                if (start == 0) {
                    start = Play(&auBuffer[0], 1, 0x0a00, 0xff);
    19c0:	c0 93 68 38 	sts	0x3868, r28	; 0x803868 <start.4056>
                    duration = 6;
    19c4:	86 e0       	ldi	r24, 0x06	; 6
    19c6:	80 93 67 38 	sts	0x3867, r24	; 0x803867 <duration.4057>
                }

                if (duration == 0) FadeOut(4, start);
    19ca:	80 91 67 38 	lds	r24, 0x3867	; 0x803867 <duration.4057>
    19ce:	81 11       	cpse	r24, r1
    19d0:	04 c0       	rjmp	.+8      	; 0x19da <GenerateAudio+0x100>
    19d2:	60 91 68 38 	lds	r22, 0x3868	; 0x803868 <start.4056>
    19d6:	84 e0       	ldi	r24, 0x04	; 4
    19d8:	51 df       	rcall	.-350    	; 0x187c <FadeOut>
                if (buttonMark){
    19da:	80 91 52 38 	lds	r24, 0x3852	; 0x803852 <buttonMark>
    19de:	88 23       	and	r24, r24
    19e0:	09 f4       	brne	.+2      	; 0x19e4 <GenerateAudio+0x10a>
    19e2:	50 c1       	rjmp	.+672    	; 0x1c84 <GenerateAudio+0x3aa>
                    TCB1_CCMP -= 0x080;                    
    19e4:	80 91 5c 0a 	lds	r24, 0x0A5C	; 0x800a5c <__TEXT_REGION_LENGTH__+0x700a5c>
    19e8:	90 91 5d 0a 	lds	r25, 0x0A5D	; 0x800a5d <__TEXT_REGION_LENGTH__+0x700a5d>
    19ec:	80 58       	subi	r24, 0x80	; 128
    19ee:	91 09       	sbc	r25, r1
    19f0:	80 93 5c 0a 	sts	0x0A5C, r24	; 0x800a5c <__TEXT_REGION_LENGTH__+0x700a5c>
    19f4:	90 93 5d 0a 	sts	0x0A5D, r25	; 0x800a5d <__TEXT_REGION_LENGTH__+0x700a5d>
                    if (auVolume == 0) effect = 0;
    19f8:	80 91 ca 3a 	lds	r24, 0x3ACA	; 0x803aca <auVolume>
    19fc:	81 11       	cpse	r24, r1
    19fe:	42 c1       	rjmp	.+644    	; 0x1c84 <GenerateAudio+0x3aa>
    1a00:	10 92 4a 38 	sts	0x384A, r1	; 0x80384a <effect>
    1a04:	10 92 4b 38 	sts	0x384B, r1	; 0x80384b <effect+0x1>
    1a08:	3d c1       	rjmp	.+634    	; 0x1c84 <GenerateAudio+0x3aa>
                }
            }

            //Rain storm with whistling wind and ghostly 
            else if (((effect&0xE0)==128)||((effect&0xE0)==96)){
    1a0a:	80 91 4a 38 	lds	r24, 0x384A	; 0x80384a <effect>
    1a0e:	90 91 4b 38 	lds	r25, 0x384B	; 0x80384b <effect+0x1>
    1a12:	80 7e       	andi	r24, 0xE0	; 224
    1a14:	99 27       	eor	r25, r25
    1a16:	80 38       	cpi	r24, 0x80	; 128
    1a18:	91 05       	cpc	r25, r1
    1a1a:	51 f0       	breq	.+20     	; 0x1a30 <GenerateAudio+0x156>
    1a1c:	80 91 4a 38 	lds	r24, 0x384A	; 0x80384a <effect>
    1a20:	90 91 4b 38 	lds	r25, 0x384B	; 0x80384b <effect+0x1>
    1a24:	80 7e       	andi	r24, 0xE0	; 224
    1a26:	99 27       	eor	r25, r25
    1a28:	80 36       	cpi	r24, 0x60	; 96
    1a2a:	91 05       	cpc	r25, r1
    1a2c:	09 f0       	breq	.+2      	; 0x1a30 <GenerateAudio+0x156>
    1a2e:	55 c0       	rjmp	.+170    	; 0x1ada <GenerateAudio+0x200>
                static uint8_t auBuffer[7];
                auBuffer[6]= 0;        
    1a30:	10 92 66 38 	sts	0x3866, r1	; 0x803866 <auBuffer.4060+0x6>
                auRepAddr = &auBuffer[0];
    1a34:	80 e6       	ldi	r24, 0x60	; 96
    1a36:	98 e3       	ldi	r25, 0x38	; 56
    1a38:	80 93 03 38 	sts	0x3803, r24	; 0x803803 <auRepAddr>
    1a3c:	90 93 04 38 	sts	0x3804, r25	; 0x803804 <auRepAddr+0x1>
    1a40:	8c 01       	movw	r16, r24

                //Noise is to be generated fast, outside of buttonMark loop
                for (uint8_t x=1; x<6; ++x){
    1a42:	c1 e0       	ldi	r28, 0x01	; 1
                    if ((x>0) && (x!=3)) {
                        auBuffer[x] = floatAround(0x80, 6-((effect&0xa0)>>5), 0x01, 0x00);
    1a44:	d6 e0       	ldi	r29, 0x06	; 6
                auBuffer[6]= 0;        
                auRepAddr = &auBuffer[0];

                //Noise is to be generated fast, outside of buttonMark loop
                for (uint8_t x=1; x<6; ++x){
                    if ((x>0) && (x!=3)) {
    1a46:	c3 30       	cpi	r28, 0x03	; 3
    1a48:	99 f0       	breq	.+38     	; 0x1a70 <GenerateAudio+0x196>
                        auBuffer[x] = floatAround(0x80, 6-((effect&0xa0)>>5), 0x01, 0x00);
    1a4a:	80 91 4a 38 	lds	r24, 0x384A	; 0x80384a <effect>
    1a4e:	90 91 4b 38 	lds	r25, 0x384B	; 0x80384b <effect+0x1>
    1a52:	80 7a       	andi	r24, 0xA0	; 160
    1a54:	99 27       	eor	r25, r25
    1a56:	35 e0       	ldi	r19, 0x05	; 5
    1a58:	96 95       	lsr	r25
    1a5a:	87 95       	ror	r24
    1a5c:	3a 95       	dec	r19
    1a5e:	e1 f7       	brne	.-8      	; 0x1a58 <GenerateAudio+0x17e>
    1a60:	6d 2f       	mov	r22, r29
    1a62:	68 1b       	sub	r22, r24
    1a64:	20 e0       	ldi	r18, 0x00	; 0
    1a66:	41 e0       	ldi	r20, 0x01	; 1
    1a68:	80 e8       	ldi	r24, 0x80	; 128
    1a6a:	58 db       	rcall	.-2384   	; 0x111c <floatAround>
    1a6c:	f8 01       	movw	r30, r16
    1a6e:	81 83       	std	Z+1, r24	; 0x01
                static uint8_t auBuffer[7];
                auBuffer[6]= 0;        
                auRepAddr = &auBuffer[0];

                //Noise is to be generated fast, outside of buttonMark loop
                for (uint8_t x=1; x<6; ++x){
    1a70:	cf 5f       	subi	r28, 0xFF	; 255
    1a72:	0f 5f       	subi	r16, 0xFF	; 255
    1a74:	1f 4f       	sbci	r17, 0xFF	; 255
    1a76:	c6 30       	cpi	r28, 0x06	; 6
    1a78:	31 f7       	brne	.-52     	; 0x1a46 <GenerateAudio+0x16c>
                    if ((x>0) && (x!=3)) {
                        auBuffer[x] = floatAround(0x80, 6-((effect&0xa0)>>5), 0x01, 0x00);
                    }
                }

                if (buttonMark){
    1a7a:	80 91 52 38 	lds	r24, 0x3852	; 0x803852 <buttonMark>
    1a7e:	88 23       	and	r24, r24
    1a80:	09 f4       	brne	.+2      	; 0x1a84 <GenerateAudio+0x1aa>
    1a82:	00 c1       	rjmp	.+512    	; 0x1c84 <GenerateAudio+0x3aa>
                    //"Floating" speed for howl (and noise, but that's hardly audible)
                    if (effect & 128) floatSpeed(6, 0x0800, 0x2000); 
    1a84:	80 91 4a 38 	lds	r24, 0x384A	; 0x80384a <effect>
    1a88:	90 91 4b 38 	lds	r25, 0x384B	; 0x80384b <effect+0x1>
    1a8c:	87 ff       	sbrs	r24, 7
    1a8e:	06 c0       	rjmp	.+12     	; 0x1a9c <GenerateAudio+0x1c2>
    1a90:	40 e0       	ldi	r20, 0x00	; 0
    1a92:	50 e2       	ldi	r21, 0x20	; 32
    1a94:	60 e0       	ldi	r22, 0x00	; 0
    1a96:	78 e0       	ldi	r23, 0x08	; 8
    1a98:	86 e0       	ldi	r24, 0x06	; 6
    1a9a:	05 c0       	rjmp	.+10     	; 0x1aa6 <GenerateAudio+0x1cc>
                    else              floatSpeed(5, 0x0280, 0x0400);
    1a9c:	40 e0       	ldi	r20, 0x00	; 0
    1a9e:	54 e0       	ldi	r21, 0x04	; 4
    1aa0:	60 e8       	ldi	r22, 0x80	; 128
    1aa2:	72 e0       	ldi	r23, 0x02	; 2
    1aa4:	85 e0       	ldi	r24, 0x05	; 5
    1aa6:	0c db       	rcall	.-2536   	; 0x10c0 <floatSpeed>
            
                    //"Floating" volume and wind howl during 8 bit rainstorm needs some randomness
                    auVolume = floatAround(auVolume, 2, 0x10, 0xA0);
    1aa8:	80 91 ca 3a 	lds	r24, 0x3ACA	; 0x803aca <auVolume>
    1aac:	20 ea       	ldi	r18, 0xA0	; 160
    1aae:	40 e1       	ldi	r20, 0x10	; 16
    1ab0:	62 e0       	ldi	r22, 0x02	; 2
    1ab2:	34 db       	rcall	.-2456   	; 0x111c <floatAround>
    1ab4:	80 93 ca 3a 	sts	0x3ACA, r24	; 0x803aca <auVolume>
                    auBuffer[0] = floatAround(auBuffer[0], 2, 0xD0-effect, 0x90);
    1ab8:	80 91 4a 38 	lds	r24, 0x384A	; 0x80384a <effect>
    1abc:	90 91 4b 38 	lds	r25, 0x384B	; 0x80384b <effect+0x1>
    1ac0:	40 ed       	ldi	r20, 0xD0	; 208
    1ac2:	48 1b       	sub	r20, r24
    1ac4:	20 e9       	ldi	r18, 0x90	; 144
    1ac6:	62 e0       	ldi	r22, 0x02	; 2
    1ac8:	80 91 60 38 	lds	r24, 0x3860	; 0x803860 <auBuffer.4060>
    1acc:	27 db       	rcall	.-2482   	; 0x111c <floatAround>
    1ace:	80 93 60 38 	sts	0x3860, r24	; 0x803860 <auBuffer.4060>
                    auBuffer[3] = 0xFF-auBuffer[0];  //Inverse value of wind[0] produces a whistle
    1ad2:	80 95       	com	r24
    1ad4:	80 93 63 38 	sts	0x3863, r24	; 0x803863 <auBuffer.4060+0x3>
    1ad8:	d5 c0       	rjmp	.+426    	; 0x1c84 <GenerateAudio+0x3aa>
                }
            }

            //AAAhhhh failed sound effect, too tired...
            else if ((effect&0xE0)==192){ //128//192
    1ada:	80 91 4a 38 	lds	r24, 0x384A	; 0x80384a <effect>
    1ade:	90 91 4b 38 	lds	r25, 0x384B	; 0x80384b <effect+0x1>
    1ae2:	80 7e       	andi	r24, 0xE0	; 224
    1ae4:	99 27       	eor	r25, r25
    1ae6:	80 3c       	cpi	r24, 0xC0	; 192
    1ae8:	91 05       	cpc	r25, r1
    1aea:	09 f4       	brne	.+2      	; 0x1aee <GenerateAudio+0x214>
    1aec:	cb c0       	rjmp	.+406    	; 0x1c84 <GenerateAudio+0x3aa>
                FadeOut(1, start);         
                */
            }

            //Bleeps
            else if ((effect&0xE0)==160){
    1aee:	80 91 4a 38 	lds	r24, 0x384A	; 0x80384a <effect>
    1af2:	90 91 4b 38 	lds	r25, 0x384B	; 0x80384b <effect+0x1>
    1af6:	80 7e       	andi	r24, 0xE0	; 224
    1af8:	99 27       	eor	r25, r25
    1afa:	80 3a       	cpi	r24, 0xA0	; 160
    1afc:	91 05       	cpc	r25, r1
    1afe:	81 f5       	brne	.+96     	; 0x1b60 <GenerateAudio+0x286>
                static uint8_t auBuffer[6] = {255, 192, 128, 64 ,1 ,0};
                
                start = Play(&auBuffer[0], 1, TCB1_CCMP, auVolume);
    1b00:	80 91 ca 3a 	lds	r24, 0x3ACA	; 0x803aca <auVolume>
    1b04:	20 91 5c 0a 	lds	r18, 0x0A5C	; 0x800a5c <__TEXT_REGION_LENGTH__+0x700a5c>
    1b08:	30 91 5d 0a 	lds	r19, 0x0A5D	; 0x800a5d <__TEXT_REGION_LENGTH__+0x700a5d>
    //}
}

uint8_t Play(uint8_t * auBuffer, uint8_t repeat, uint16_t pitch, uint8_t volume)
{
    TCB1_CCMP = pitch;
    1b0c:	20 93 5c 0a 	sts	0x0A5C, r18	; 0x800a5c <__TEXT_REGION_LENGTH__+0x700a5c>
    1b10:	30 93 5d 0a 	sts	0x0A5D, r19	; 0x800a5d <__TEXT_REGION_LENGTH__+0x700a5d>
    if (repeat) auRepAddr = auBuffer;
    1b14:	2a e1       	ldi	r18, 0x1A	; 26
    1b16:	38 e3       	ldi	r19, 0x38	; 56
    1b18:	20 93 03 38 	sts	0x3803, r18	; 0x803803 <auRepAddr>
    1b1c:	30 93 04 38 	sts	0x3804, r19	; 0x803804 <auRepAddr+0x1>
    else auSmpAddr = auBuffer;
    auVolume = volume;
    1b20:	80 93 ca 3a 	sts	0x3ACA, r24	; 0x803aca <auVolume>

            //Bleeps
            else if ((effect&0xE0)==160){
                static uint8_t auBuffer[6] = {255, 192, 128, 64 ,1 ,0};
                
                start = Play(&auBuffer[0], 1, TCB1_CCMP, auVolume);
    1b24:	c0 93 68 38 	sts	0x3868, r28	; 0x803868 <start.4056>

                FadeOut(0, start);
    1b28:	61 e0       	ldi	r22, 0x01	; 1
    1b2a:	80 e0       	ldi	r24, 0x00	; 0
                if (buttonMark){
    1b2c:	a7 de       	rcall	.-690    	; 0x187c <FadeOut>
    1b2e:	80 91 52 38 	lds	r24, 0x3852	; 0x803852 <buttonMark>
    1b32:	88 23       	and	r24, r24
    1b34:	09 f4       	brne	.+2      	; 0x1b38 <GenerateAudio+0x25e>
                    TCB1_CCMP = 0x0400 + (lfsr()<<5);
    1b36:	a6 c0       	rjmp	.+332    	; 0x1c84 <GenerateAudio+0x3aa>
    1b38:	a4 da       	rcall	.-2744   	; 0x1082 <lfsr>
    1b3a:	f0 e2       	ldi	r31, 0x20	; 32
    1b3c:	8f 9f       	mul	r24, r31
    1b3e:	c0 01       	movw	r24, r0
    1b40:	11 24       	eor	r1, r1
    1b42:	9c 5f       	subi	r25, 0xFC	; 252
    1b44:	80 93 5c 0a 	sts	0x0A5C, r24	; 0x800a5c <__TEXT_REGION_LENGTH__+0x700a5c>
    1b48:	90 93 5d 0a 	sts	0x0A5D, r25	; 0x800a5d <__TEXT_REGION_LENGTH__+0x700a5d>
    1b4c:	ca e1       	ldi	r28, 0x1A	; 26
                    for(uint8_t x=0; x<5; ++x){
                        auBuffer[x]=lfsr()|0x01;
    1b4e:	d8 e3       	ldi	r29, 0x38	; 56
    1b50:	98 da       	rcall	.-2768   	; 0x1082 <lfsr>
    1b52:	81 60       	ori	r24, 0x01	; 1
    1b54:	89 93       	st	Y+, r24
                start = Play(&auBuffer[0], 1, TCB1_CCMP, auVolume);

                FadeOut(0, start);
                if (buttonMark){
                    TCB1_CCMP = 0x0400 + (lfsr()<<5);
                    for(uint8_t x=0; x<5; ++x){
    1b56:	28 e3       	ldi	r18, 0x38	; 56
    1b58:	cf 31       	cpi	r28, 0x1F	; 31
    1b5a:	d2 07       	cpc	r29, r18
    1b5c:	c9 f7       	brne	.-14     	; 0x1b50 <GenerateAudio+0x276>
    1b5e:	92 c0       	rjmp	.+292    	; 0x1c84 <GenerateAudio+0x3aa>
                    }
                }
            }

            //Footsteps
            else if ((effect&0xE0)==224){//224){
    1b60:	80 91 4a 38 	lds	r24, 0x384A	; 0x80384a <effect>
    1b64:	90 91 4b 38 	lds	r25, 0x384B	; 0x80384b <effect+0x1>
    1b68:	80 7e       	andi	r24, 0xE0	; 224
    1b6a:	99 27       	eor	r25, r25
    1b6c:	80 3e       	cpi	r24, 0xE0	; 224
    1b6e:	91 05       	cpc	r25, r1
    1b70:	09 f0       	breq	.+2      	; 0x1b74 <GenerateAudio+0x29a>
    1b72:	88 c0       	rjmp	.+272    	; 0x1c84 <GenerateAudio+0x3aa>
                static uint8_t auBuffer[8] = {64, 200, 240, 128, 64, 32, 16, 0};
                static uint8_t interval = 6;

                
                if (start == 0) {
    1b74:	80 91 68 38 	lds	r24, 0x3868	; 0x803868 <start.4056>
    1b78:	81 11       	cpse	r24, r1
    1b7a:	19 c0       	rjmp	.+50     	; 0x1bae <GenerateAudio+0x2d4>
                    auRepAddr = &auBuffer[6];
    1b7c:	88 e1       	ldi	r24, 0x18	; 24
    1b7e:	98 e3       	ldi	r25, 0x38	; 56
    1b80:	80 93 03 38 	sts	0x3803, r24	; 0x803803 <auRepAddr>
    1b84:	90 93 04 38 	sts	0x3804, r25	; 0x803804 <auRepAddr+0x1>
                    start = Play(&auBuffer[0], 0, 0x6000, auVolume);
    1b88:	80 91 ca 3a 	lds	r24, 0x3ACA	; 0x803aca <auVolume>
    //}
}

uint8_t Play(uint8_t * auBuffer, uint8_t repeat, uint16_t pitch, uint8_t volume)
{
    TCB1_CCMP = pitch;
    1b8c:	20 e0       	ldi	r18, 0x00	; 0
    1b8e:	30 e6       	ldi	r19, 0x60	; 96
    1b90:	20 93 5c 0a 	sts	0x0A5C, r18	; 0x800a5c <__TEXT_REGION_LENGTH__+0x700a5c>
    1b94:	30 93 5d 0a 	sts	0x0A5D, r19	; 0x800a5d <__TEXT_REGION_LENGTH__+0x700a5d>
    if (repeat) auRepAddr = auBuffer;
    else auSmpAddr = auBuffer;
    1b98:	22 e1       	ldi	r18, 0x12	; 18
    1b9a:	38 e3       	ldi	r19, 0x38	; 56
    1b9c:	20 93 05 38 	sts	0x3805, r18	; 0x803805 <auSmpAddr>
    1ba0:	30 93 06 38 	sts	0x3806, r19	; 0x803806 <auSmpAddr+0x1>
    auVolume = volume;
    1ba4:	80 93 ca 3a 	sts	0x3ACA, r24	; 0x803aca <auVolume>
                static uint8_t interval = 6;

                
                if (start == 0) {
                    auRepAddr = &auBuffer[6];
                    start = Play(&auBuffer[0], 0, 0x6000, auVolume);
    1ba8:	81 e0       	ldi	r24, 0x01	; 1
    1baa:	80 93 68 38 	sts	0x3868, r24	; 0x803868 <start.4056>
                }

                FadeOut(0, start);
    1bae:	60 91 68 38 	lds	r22, 0x3868	; 0x803868 <start.4056>
    1bb2:	80 e0       	ldi	r24, 0x00	; 0
    1bb4:	63 de       	rcall	.-826    	; 0x187c <FadeOut>
                if (buttonMark){
    1bb6:	80 91 52 38 	lds	r24, 0x3852	; 0x803852 <buttonMark>
    1bba:	88 23       	and	r24, r24
    1bbc:	09 f4       	brne	.+2      	; 0x1bc0 <GenerateAudio+0x2e6>
    1bbe:	62 c0       	rjmp	.+196    	; 0x1c84 <GenerateAudio+0x3aa>
                    --interval;
    1bc0:	80 91 11 38 	lds	r24, 0x3811	; 0x803811 <interval.4071>
    1bc4:	81 50       	subi	r24, 0x01	; 1
    1bc6:	80 93 11 38 	sts	0x3811, r24	; 0x803811 <interval.4071>
                    if (interval == 0){
    1bca:	81 11       	cpse	r24, r1
    1bcc:	5b c0       	rjmp	.+182    	; 0x1c84 <GenerateAudio+0x3aa>
                        TCB1_CCMP += 0x0300;
    1bce:	80 91 5c 0a 	lds	r24, 0x0A5C	; 0x800a5c <__TEXT_REGION_LENGTH__+0x700a5c>
    1bd2:	90 91 5d 0a 	lds	r25, 0x0A5D	; 0x800a5d <__TEXT_REGION_LENGTH__+0x700a5d>
    1bd6:	9d 5f       	subi	r25, 0xFD	; 253
    1bd8:	80 93 5c 0a 	sts	0x0A5C, r24	; 0x800a5c <__TEXT_REGION_LENGTH__+0x700a5c>
    1bdc:	90 93 5d 0a 	sts	0x0A5D, r25	; 0x800a5d <__TEXT_REGION_LENGTH__+0x700a5d>
                        interval = 6;
    1be0:	86 e0       	ldi	r24, 0x06	; 6
    1be2:	80 93 11 38 	sts	0x3811, r24	; 0x803811 <interval.4071>
                        start = 0;
    1be6:	10 92 68 38 	sts	0x3868, r1	; 0x803868 <start.4056>
    1bea:	4c c0       	rjmp	.+152    	; 0x1c84 <GenerateAudio+0x3aa>
                    }
                }
            }

        } else if ((effect&0xff00)==0x0100) {
    1bec:	80 91 4a 38 	lds	r24, 0x384A	; 0x80384a <effect>
    1bf0:	90 91 4b 38 	lds	r25, 0x384B	; 0x80384b <effect+0x1>
    1bf4:	88 27       	eor	r24, r24
    1bf6:	81 15       	cp	r24, r1
    1bf8:	91 40       	sbci	r25, 0x01	; 1
    1bfa:	09 f0       	breq	.+2      	; 0x1bfe <GenerateAudio+0x324>
    1bfc:	43 c0       	rjmp	.+134    	; 0x1c84 <GenerateAudio+0x3aa>
            if ((effect&0xE0) <= 0x90) {
    1bfe:	80 91 4a 38 	lds	r24, 0x384A	; 0x80384a <effect>
    1c02:	90 91 4b 38 	lds	r25, 0x384B	; 0x80384b <effect+0x1>
    1c06:	80 7e       	andi	r24, 0xE0	; 224
    1c08:	99 27       	eor	r25, r25
    1c0a:	81 39       	cpi	r24, 0x91	; 145
    1c0c:	91 05       	cpc	r25, r1
    1c0e:	d0 f5       	brcc	.+116    	; 0x1c84 <GenerateAudio+0x3aa>
                
                static uint8_t auBuffer[3] = {255, 1, 0};
                static uint16_t freq;

                if (start == 0) {
    1c10:	80 91 68 38 	lds	r24, 0x3868	; 0x803868 <start.4056>
    1c14:	81 11       	cpse	r24, r1
    1c16:	22 c0       	rjmp	.+68     	; 0x1c5c <GenerateAudio+0x382>
                    freq = ((effect&0xE0)+1)<<6;
    1c18:	80 91 4a 38 	lds	r24, 0x384A	; 0x80384a <effect>
    1c1c:	90 91 4b 38 	lds	r25, 0x384B	; 0x80384b <effect+0x1>
    1c20:	80 7e       	andi	r24, 0xE0	; 224
    1c22:	99 27       	eor	r25, r25
    1c24:	01 96       	adiw	r24, 0x01	; 1
    1c26:	26 e0       	ldi	r18, 0x06	; 6
    1c28:	88 0f       	add	r24, r24
    1c2a:	99 1f       	adc	r25, r25
    1c2c:	2a 95       	dec	r18
    1c2e:	e1 f7       	brne	.-8      	; 0x1c28 <GenerateAudio+0x34e>
    1c30:	80 93 5e 38 	sts	0x385E, r24	; 0x80385e <freq.4073>
    1c34:	90 93 5f 38 	sts	0x385F, r25	; 0x80385f <freq.4073+0x1>
    //}
}

uint8_t Play(uint8_t * auBuffer, uint8_t repeat, uint16_t pitch, uint8_t volume)
{
    TCB1_CCMP = pitch;
    1c38:	80 93 5c 0a 	sts	0x0A5C, r24	; 0x800a5c <__TEXT_REGION_LENGTH__+0x700a5c>
    1c3c:	90 93 5d 0a 	sts	0x0A5D, r25	; 0x800a5d <__TEXT_REGION_LENGTH__+0x700a5d>
    if (repeat) auRepAddr = auBuffer;
    1c40:	8e e0       	ldi	r24, 0x0E	; 14
    1c42:	98 e3       	ldi	r25, 0x38	; 56
    1c44:	80 93 03 38 	sts	0x3803, r24	; 0x803803 <auRepAddr>
    1c48:	90 93 04 38 	sts	0x3804, r25	; 0x803804 <auRepAddr+0x1>
    else auSmpAddr = auBuffer;
    auVolume = volume;
    1c4c:	8f ef       	ldi	r24, 0xFF	; 255
    1c4e:	80 93 ca 3a 	sts	0x3ACA, r24	; 0x803aca <auVolume>
                static uint8_t auBuffer[3] = {255, 1, 0};
                static uint16_t freq;

                if (start == 0) {
                    freq = ((effect&0xE0)+1)<<6;
                    start = Play(&auBuffer[0], 1, freq, 0xff);
    1c52:	c0 93 68 38 	sts	0x3868, r28	; 0x803868 <start.4056>
                    duration = 3;
    1c56:	83 e0       	ldi	r24, 0x03	; 3
    1c58:	80 93 67 38 	sts	0x3867, r24	; 0x803867 <duration.4057>
                }

                if (duration == 0) FadeOut(7, start);
    1c5c:	80 91 67 38 	lds	r24, 0x3867	; 0x803867 <duration.4057>
    1c60:	81 11       	cpse	r24, r1
    1c62:	04 c0       	rjmp	.+8      	; 0x1c6c <GenerateAudio+0x392>
    1c64:	60 91 68 38 	lds	r22, 0x3868	; 0x803868 <start.4056>
    1c68:	87 e0       	ldi	r24, 0x07	; 7
                floatSpeed(1, freq+0x0200, freq+0x0300);
    1c6a:	08 de       	rcall	.-1008   	; 0x187c <FadeOut>
    1c6c:	60 91 5e 38 	lds	r22, 0x385E	; 0x80385e <freq.4073>
    1c70:	70 91 5f 38 	lds	r23, 0x385F	; 0x80385f <freq.4073+0x1>
    1c74:	ab 01       	movw	r20, r22
    1c76:	5d 5f       	subi	r21, 0xFD	; 253
    1c78:	7e 5f       	subi	r23, 0xFE	; 254
    1c7a:	81 e0       	ldi	r24, 0x01	; 1
    1c7c:	21 da       	rcall	.-3006   	; 0x10c0 <floatSpeed>
    1c7e:	02 c0       	rjmp	.+4      	; 0x1c84 <GenerateAudio+0x3aa>
                //auBuffer[] = floatAround(0x80, 5, 0x01, 0x00);
            }
        }
    } else {
        detHdPh = 0;
    1c80:	10 92 d4 3a 	sts	0x3AD4, r1	; 0x803ad4 <detHdPh>
    }

    if (buttonMark && duration) --duration;
    1c84:	80 91 52 38 	lds	r24, 0x3852	; 0x803852 <buttonMark>
    1c88:	88 23       	and	r24, r24
    1c8a:	39 f0       	breq	.+14     	; 0x1c9a <GenerateAudio+0x3c0>
    1c8c:	80 91 67 38 	lds	r24, 0x3867	; 0x803867 <duration.4057>
    1c90:	88 23       	and	r24, r24
    1c92:	19 f0       	breq	.+6      	; 0x1c9a <GenerateAudio+0x3c0>
    1c94:	81 50       	subi	r24, 0x01	; 1
    1c96:	80 93 67 38 	sts	0x3867, r24	; 0x803867 <duration.4057>

    return buttonMark;
    1c9a:	80 91 52 38 	lds	r24, 0x3852	; 0x803852 <buttonMark>
}
    1c9e:	df 91       	pop	r29
    1ca0:	cf 91       	pop	r28
    1ca2:	1f 91       	pop	r17
    1ca4:	0f 91       	pop	r16
    1ca6:	08 95       	ret

00001ca8 <getClock>:

uint16_t getClock() {
    uint16_t tmp = RTC_CNT;
    1ca8:	80 91 48 01 	lds	r24, 0x0148	; 0x800148 <__TEXT_REGION_LENGTH__+0x700148>
    1cac:	90 91 49 01 	lds	r25, 0x0149	; 0x800149 <__TEXT_REGION_LENGTH__+0x700149>
    return 60 * minuteMark + (tmp>>9);
    1cb0:	20 91 53 38 	lds	r18, 0x3853	; 0x803853 <minuteMark>
    1cb4:	89 2f       	mov	r24, r25
    1cb6:	99 27       	eor	r25, r25
    1cb8:	86 95       	lsr	r24
}
    1cba:	3c e3       	ldi	r19, 0x3C	; 60
    1cbc:	23 9f       	mul	r18, r19
    1cbe:	80 0d       	add	r24, r0
    1cc0:	91 1d       	adc	r25, r1
    1cc2:	11 24       	eor	r1, r1
    1cc4:	08 95       	ret

00001cc6 <idleTimeout>:

uint8_t idleTimeout(uint16_t lastActive, uint16_t maxIdle) {
    1cc6:	0f 93       	push	r16
    1cc8:	1f 93       	push	r17
    1cca:	cf 93       	push	r28
    1ccc:	df 93       	push	r29
    1cce:	8c 01       	movw	r16, r24
    1cd0:	eb 01       	movw	r28, r22
    uint16_t curClock;

    curClock = getClock();
    1cd2:	ea df       	rcall	.-44     	; 0x1ca8 <getClock>
    1cd4:	9c 01       	movw	r18, r24
    if (curClock < lastActive)
    1cd6:	80 17       	cp	r24, r16
    1cd8:	91 07       	cpc	r25, r17
    1cda:	08 f4       	brcc	.+2      	; 0x1cde <idleTimeout+0x18>
        curClock += 256 * 60;
    1cdc:	34 5c       	subi	r19, 0xC4	; 196

    return (curClock > (lastActive + maxIdle));
    1cde:	c0 0f       	add	r28, r16
    1ce0:	d1 1f       	adc	r29, r17
    1ce2:	81 e0       	ldi	r24, 0x01	; 1
    1ce4:	c2 17       	cp	r28, r18
    1ce6:	d3 07       	cpc	r29, r19
    1ce8:	08 f0       	brcs	.+2      	; 0x1cec <idleTimeout+0x26>
    1cea:	80 e0       	ldi	r24, 0x00	; 0
}
    1cec:	df 91       	pop	r29
    1cee:	cf 91       	pop	r28
    1cf0:	1f 91       	pop	r17
    1cf2:	0f 91       	pop	r16
    1cf4:	08 95       	ret

00001cf6 <SelfTest>:

uint8_t SelfTest(){
    1cf6:	a4 e0       	ldi	r26, 0x04	; 4
    1cf8:	b0 e0       	ldi	r27, 0x00	; 0
    1cfa:	e1 e8       	ldi	r30, 0x81	; 129
    1cfc:	fe e0       	ldi	r31, 0x0E	; 14
    1cfe:	0c 94 66 1f 	jmp	0x3ecc	; 0x3ecc <__prologue_saves__+0x12>
    uint8_t tstVal[4] = {0, 0, 0, 0};
    1d02:	19 82       	std	Y+1, r1	; 0x01
    1d04:	1a 82       	std	Y+2, r1	; 0x02
    1d06:	1b 82       	std	Y+3, r1	; 0x03
    1d08:	1c 82       	std	Y+4, r1	; 0x04

    while (adcTemp == 0) ;
    1d0a:	80 91 02 3b 	lds	r24, 0x3B02	; 0x803b02 <adcTemp>
    1d0e:	90 91 03 3b 	lds	r25, 0x3B03	; 0x803b03 <adcTemp+0x1>
    1d12:	89 2b       	or	r24, r25
    1d14:	d1 f3       	breq	.-12     	; 0x1d0a <SelfTest+0x14>
    EERead(BOOTCHK, &tstVal[0], 4);
    1d16:	44 e0       	ldi	r20, 0x04	; 4
    1d18:	be 01       	movw	r22, r28
    1d1a:	6f 5f       	subi	r22, 0xFF	; 255
    1d1c:	7f 4f       	sbci	r23, 0xFF	; 255
    1d1e:	84 e1       	ldi	r24, 0x14	; 20
    1d20:	ce d8       	rcall	.-3684   	; 0xebe <EERead>
    //already checked and ok, skip test, can be reset by using "ikillu" command.
    if (tstVal[0] == 0xA5) {
    1d22:	89 81       	ldd	r24, Y+1	; 0x01
    1d24:	85 3a       	cpi	r24, 0xA5	; 165
    1d26:	a1 f4       	brne	.+40     	; 0x1d50 <SelfTest+0x5a>
        calTemp =  tstVal[1]<<8;
    1d28:	8a 81       	ldd	r24, Y+2	; 0x02
    1d2a:	90 e0       	ldi	r25, 0x00	; 0
    1d2c:	98 2f       	mov	r25, r24
    1d2e:	88 27       	eor	r24, r24
    1d30:	80 93 d5 3a 	sts	0x3AD5, r24	; 0x803ad5 <calTemp>
    1d34:	90 93 d6 3a 	sts	0x3AD6, r25	; 0x803ad6 <calTemp+0x1>
        calTemp |= tstVal[2];
    1d38:	80 91 d5 3a 	lds	r24, 0x3AD5	; 0x803ad5 <calTemp>
    1d3c:	90 91 d6 3a 	lds	r25, 0x3AD6	; 0x803ad6 <calTemp+0x1>
    1d40:	2b 81       	ldd	r18, Y+3	; 0x03
    1d42:	82 2b       	or	r24, r18
    1d44:	80 93 d5 3a 	sts	0x3AD5, r24	; 0x803ad5 <calTemp>
    1d48:	90 93 d6 3a 	sts	0x3AD6, r25	; 0x803ad6 <calTemp+0x1>
        return 0; 
    1d4c:	b1 2c       	mov	r11, r1
    1d4e:	7c c0       	rjmp	.+248    	; 0x1e48 <SelfTest+0x152>
    } 

    //Old data in EEPROM, wipe!
    if (tstVal[3] != 0xff) return 1;
    1d50:	8c 81       	ldd	r24, Y+4	; 0x04
    1d52:	8f 3f       	cpi	r24, 0xFF	; 255
    1d54:	09 f0       	breq	.+2      	; 0x1d58 <SelfTest+0x62>
    1d56:	76 c0       	rjmp	.+236    	; 0x1e44 <SelfTest+0x14e>

    //Red BADGER, CAT, EYEs and SCARAB LED on 100% = error
    iLED[BADGER] = 255;
    1d58:	00 91 3d bf 	lds	r16, 0xBF3D	; 0x80bf3d <__bss_end+0x8416>
    1d5c:	10 e0       	ldi	r17, 0x00	; 0
    1d5e:	08 52       	subi	r16, 0x28	; 40
    1d60:	15 4c       	sbci	r17, 0xC5	; 197
    1d62:	d8 01       	movw	r26, r16
    1d64:	8c 93       	st	X, r24
    iLED[CAT] = 255;
    1d66:	e0 91 3c bf 	lds	r30, 0xBF3C	; 0x80bf3c <__bss_end+0x8415>
    1d6a:	f0 e0       	ldi	r31, 0x00	; 0
    1d6c:	e8 52       	subi	r30, 0x28	; 40
    1d6e:	f5 4c       	sbci	r31, 0xC5	; 197
    1d70:	80 83       	st	Z, r24
    iLED[EYE[R][R]] = 255;    
    1d72:	c0 90 4a bf 	lds	r12, 0xBF4A	; 0x80bf4a <__bss_end+0x8423>
    1d76:	2c 2d       	mov	r18, r12
    1d78:	30 e0       	ldi	r19, 0x00	; 0
    1d7a:	a9 01       	movw	r20, r18
    1d7c:	48 52       	subi	r20, 0x28	; 40
    1d7e:	55 4c       	sbci	r21, 0xC5	; 197
    1d80:	6a 01       	movw	r12, r20
    1d82:	da 01       	movw	r26, r20
    1d84:	8c 93       	st	X, r24
    iLED[EYE[R][L]] = 255;
    1d86:	e0 90 4b bf 	lds	r14, 0xBF4B	; 0x80bf4b <__bss_end+0x8424>
    1d8a:	2e 2d       	mov	r18, r14
    1d8c:	30 e0       	ldi	r19, 0x00	; 0
    1d8e:	a9 01       	movw	r20, r18
    1d90:	48 52       	subi	r20, 0x28	; 40
    1d92:	55 4c       	sbci	r21, 0xC5	; 197
    1d94:	7a 01       	movw	r14, r20
    1d96:	da 01       	movw	r26, r20
    1d98:	8c 93       	st	X, r24
    iLED[SCARAB[R]] = 255;
    1d9a:	a0 91 3e bf 	lds	r26, 0xBF3E	; 0x80bf3e <__bss_end+0x8417>
    1d9e:	b0 e0       	ldi	r27, 0x00	; 0
    1da0:	a8 52       	subi	r26, 0x28	; 40
    1da2:	b5 4c       	sbci	r27, 0xC5	; 197
    1da4:	8c 93       	st	X, r24

    //Light sensor OK, scarab off
    tstVal[0] = adcPhot&0xff;
    1da6:	80 91 d1 3a 	lds	r24, 0x3AD1	; 0x803ad1 <adcPhot>
    1daa:	90 91 d2 3a 	lds	r25, 0x3AD2	; 0x803ad2 <adcPhot+0x1>
    1dae:	89 83       	std	Y+1, r24	; 0x01
    while (tstVal[0] == (adcPhot&0xff)) ;
    1db0:	99 27       	eor	r25, r25
    1db2:	20 91 d1 3a 	lds	r18, 0x3AD1	; 0x803ad1 <adcPhot>
    1db6:	30 91 d2 3a 	lds	r19, 0x3AD2	; 0x803ad2 <adcPhot+0x1>
    1dba:	33 27       	eor	r19, r19
    1dbc:	28 17       	cp	r18, r24
    1dbe:	39 07       	cpc	r19, r25
    1dc0:	c1 f3       	breq	.-16     	; 0x1db2 <SelfTest+0xbc>
    iLED[SCARAB[R]] = 0x00;
    1dc2:	1c 92       	st	X, r1

    //Buttons OK (none pressed / shorted), cat forehead off
    while ((adcBtns>>4) < 200) ;
    1dc4:	80 91 cb 3a 	lds	r24, 0x3ACB	; 0x803acb <adcBtns>
    1dc8:	90 91 cc 3a 	lds	r25, 0x3ACC	; 0x803acc <adcBtns+0x1>
    1dcc:	80 38       	cpi	r24, 0x80	; 128
    1dce:	9c 40       	sbci	r25, 0x0C	; 12
    1dd0:	c8 f3       	brcs	.-14     	; 0x1dc4 <SelfTest+0xce>
    iLED[CAT] = 0x00;
    1dd2:	10 82       	st	Z, r1

    //Right ROM?
    ExtEERead(0x3CCC, 4, 0, (uint8_t *)&tstVal[0]);
    1dd4:	9e 01       	movw	r18, r28
    1dd6:	2f 5f       	subi	r18, 0xFF	; 255
    1dd8:	3f 4f       	sbci	r19, 0xFF	; 255
    1dda:	40 e0       	ldi	r20, 0x00	; 0
    1ddc:	64 e0       	ldi	r22, 0x04	; 4
    1dde:	8c ec       	ldi	r24, 0xCC	; 204
    1de0:	9c e3       	ldi	r25, 0x3C	; 60
    1de2:	bf d8       	rcall	.-3714   	; 0xf62 <ExtEERead>
    if ((tstVal[0] != 63) || (tstVal[1] != 0) || (tstVal[2] != 192) || (tstVal[3] != 20)){
    1de4:	89 81       	ldd	r24, Y+1	; 0x01
    1de6:	8f 33       	cpi	r24, 0x3F	; 63
    1de8:	49 f4       	brne	.+18     	; 0x1dfc <SelfTest+0x106>
    1dea:	ba 80       	ldd	r11, Y+2	; 0x02
    1dec:	b1 10       	cpse	r11, r1
    1dee:	06 c0       	rjmp	.+12     	; 0x1dfc <SelfTest+0x106>
    1df0:	8b 81       	ldd	r24, Y+3	; 0x03
    1df2:	80 3c       	cpi	r24, 0xC0	; 192
    1df4:	19 f4       	brne	.+6      	; 0x1dfc <SelfTest+0x106>
    1df6:	8c 81       	ldd	r24, Y+4	; 0x04
    1df8:	84 31       	cpi	r24, 0x14	; 20
    1dfa:	09 f0       	breq	.+2      	; 0x1dfe <SelfTest+0x108>
        while(1);
    }
    
    SelectAuIn();
    1dfc:	ff cf       	rjmp	.-2      	; 0x1dfc <SelfTest+0x106>
    1dfe:	04 d9       	rcall	.-3576   	; 0x1008 <SelectAuIn>
    //Audio in/out OK, eyes off
    while ((auIn < 0x78) || (auIn > 0x88)) ;
    1e00:	80 91 d7 3a 	lds	r24, 0x3AD7	; 0x803ad7 <auIn>
    1e04:	88 37       	cpi	r24, 0x78	; 120
    1e06:	e0 f3       	brcs	.-8      	; 0x1e00 <SelfTest+0x10a>
    1e08:	80 91 d7 3a 	lds	r24, 0x3AD7	; 0x803ad7 <auIn>
    1e0c:	89 38       	cpi	r24, 0x89	; 137
    1e0e:	c0 f7       	brcc	.-16     	; 0x1e00 <SelfTest+0x10a>
    iLED[EYE[R][R]] = 0x00;
    1e10:	f6 01       	movw	r30, r12
    1e12:	10 82       	st	Z, r1
    iLED[EYE[R][L]] = 0x00;
    1e14:	d7 01       	movw	r26, r14
    1e16:	1c 92       	st	X, r1
    
    //All ok!
    tstVal[0] = 0xA5;
    1e18:	85 ea       	ldi	r24, 0xA5	; 165
    1e1a:	89 83       	std	Y+1, r24	; 0x01
    tstVal[1] = adcTemp>>8;
    1e1c:	80 91 02 3b 	lds	r24, 0x3B02	; 0x803b02 <adcTemp>
    1e20:	90 91 03 3b 	lds	r25, 0x3B03	; 0x803b03 <adcTemp+0x1>
    1e24:	9a 83       	std	Y+2, r25	; 0x02
    tstVal[2] = adcTemp&0xff;
    1e26:	80 91 02 3b 	lds	r24, 0x3B02	; 0x803b02 <adcTemp>
    1e2a:	90 91 03 3b 	lds	r25, 0x3B03	; 0x803b03 <adcTemp+0x1>
    1e2e:	8b 83       	std	Y+3, r24	; 0x03

    EEWrite(BOOTCHK, &tstVal[0], 3);
    1e30:	43 e0       	ldi	r20, 0x03	; 3
    1e32:	be 01       	movw	r22, r28
    1e34:	6f 5f       	subi	r22, 0xFF	; 255
    1e36:	7f 4f       	sbci	r23, 0xFF	; 255
    1e38:	84 e1       	ldi	r24, 0x14	; 20
    1e3a:	51 d8       	rcall	.-3934   	; 0xede <EEWrite>
    iLED[BADGER] = 0x08;
    1e3c:	88 e0       	ldi	r24, 0x08	; 8
    1e3e:	f8 01       	movw	r30, r16
    1e40:	80 83       	st	Z, r24
    return 0;
    1e42:	02 c0       	rjmp	.+4      	; 0x1e48 <SelfTest+0x152>
        calTemp |= tstVal[2];
        return 0; 
    } 

    //Old data in EEPROM, wipe!
    if (tstVal[3] != 0xff) return 1;
    1e44:	bb 24       	eor	r11, r11
    1e46:	b3 94       	inc	r11
    tstVal[2] = adcTemp&0xff;

    EEWrite(BOOTCHK, &tstVal[0], 3);
    iLED[BADGER] = 0x08;
    return 0;
}
    1e48:	8b 2d       	mov	r24, r11
    1e4a:	24 96       	adiw	r28, 0x04	; 4
    1e4c:	e9 e0       	ldi	r30, 0x09	; 9
    1e4e:	0c 94 7f 1f 	jmp	0x3efe	; 0x3efe <__epilogue_restores__+0x12>

00001e52 <simonLed>:

/**
 * Set the wing LED blocks to selected option
 * @param val
 */
void simonLed(uint8_t val) {
    1e52:	cf 93       	push	r28
    1e54:	c8 2f       	mov	r28, r24
    WingBar(0,0);
    1e56:	60 e0       	ldi	r22, 0x00	; 0
    1e58:	80 e0       	ldi	r24, 0x00	; 0
    1e5a:	35 db       	rcall	.-2454   	; 0x14c6 <WingBar>
    if (val==0)
    1e5c:	cc 23       	and	r28, r28
    1e5e:	51 f1       	breq	.+84     	; 0x1eb4 <simonLed+0x62>
        return;

    if ((effect & 0xffe0)==0)
    1e60:	80 91 4a 38 	lds	r24, 0x384A	; 0x80384a <effect>
    1e64:	90 91 4b 38 	lds	r25, 0x384B	; 0x80384b <effect+0x1>
    1e68:	80 7e       	andi	r24, 0xE0	; 224
    1e6a:	89 2b       	or	r24, r25
    1e6c:	51 f4       	brne	.+20     	; 0x1e82 <simonLed+0x30>
        effect = 0x13f + ((val-1)<<5);
    1e6e:	20 e2       	ldi	r18, 0x20	; 32
    1e70:	c2 9f       	mul	r28, r18
    1e72:	c0 01       	movw	r24, r0
    1e74:	11 24       	eor	r1, r1
    1e76:	81 5e       	subi	r24, 0xE1	; 225
    1e78:	9e 4f       	sbci	r25, 0xFE	; 254
    1e7a:	80 93 4a 38 	sts	0x384A, r24	; 0x80384a <effect>
    1e7e:	90 93 4b 38 	sts	0x384B, r25	; 0x80384b <effect+0x1>

    if (val == 1) {                     //
    1e82:	c1 30       	cpi	r28, 0x01	; 1
    1e84:	19 f4       	brne	.+6      	; 0x1e8c <simonLed+0x3a>
        iLED[WING[L][4]] = dimValue;
    1e86:	e0 91 49 bf 	lds	r30, 0xBF49	; 0x80bf49 <__bss_end+0x8422>
    1e8a:	0e c0       	rjmp	.+28     	; 0x1ea8 <simonLed+0x56>
    } else if (val == 2) {              // I
    1e8c:	c2 30       	cpi	r28, 0x02	; 2
    1e8e:	19 f4       	brne	.+6      	; 0x1e96 <simonLed+0x44>
        iLED[WING[R][4]] = dimValue;
    1e90:	e0 91 44 bf 	lds	r30, 0xBF44	; 0x80bf44 <__bss_end+0x841d>
    1e94:	09 c0       	rjmp	.+18     	; 0x1ea8 <simonLed+0x56>
    } else if (val == 3) {              // II
    1e96:	c3 30       	cpi	r28, 0x03	; 3
    1e98:	19 f4       	brne	.+6      	; 0x1ea0 <simonLed+0x4e>
        iLED[WING[L][2]] = dimValue;
    1e9a:	e0 91 47 bf 	lds	r30, 0xBF47	; 0x80bf47 <__bss_end+0x8420>
    1e9e:	04 c0       	rjmp	.+8      	; 0x1ea8 <simonLed+0x56>
    } else if (val == 4) {              // III
    1ea0:	c4 30       	cpi	r28, 0x04	; 4
    1ea2:	41 f4       	brne	.+16     	; 0x1eb4 <simonLed+0x62>
        iLED[WING[R][2]] = dimValue;
    1ea4:	e0 91 42 bf 	lds	r30, 0xBF42	; 0x80bf42 <__bss_end+0x841b>
    1ea8:	f0 e0       	ldi	r31, 0x00	; 0
    1eaa:	80 91 0c 38 	lds	r24, 0x380C	; 0x80380c <dimValue>
    1eae:	e8 52       	subi	r30, 0x28	; 40
    1eb0:	f5 4c       	sbci	r31, 0xC5	; 197
    1eb2:	80 83       	st	Z, r24
    }
}
    1eb4:	cf 91       	pop	r28
    1eb6:	08 95       	ret

00001eb8 <BastetDictates>:

/**
 * Main game loop
 * @return 0
 */
uint8_t BastetDictates() {
    1eb8:	0f 93       	push	r16
    1eba:	1f 93       	push	r17
    1ebc:	cf 93       	push	r28
    1ebe:	df 93       	push	r29
    if ((TEXT != gameNow) && (BASTET != gameNow))
    1ec0:	80 91 4c 38 	lds	r24, 0x384C	; 0x80384c <gameNow>
    1ec4:	88 23       	and	r24, r24
    1ec6:	21 f0       	breq	.+8      	; 0x1ed0 <BastetDictates+0x18>
    1ec8:	82 30       	cpi	r24, 0x02	; 2
    1eca:	09 f0       	breq	.+2      	; 0x1ece <BastetDictates+0x16>
    1ecc:	6b c1       	rjmp	.+726    	; 0x21a4 <BastetDictates+0x2ec>
    1ece:	0a c0       	rjmp	.+20     	; 0x1ee4 <BastetDictates+0x2c>
        return 0;
    }
    */

    if (TEXT == gameNow)
        if (buttonState!=0xff) {
    1ed0:	80 91 08 38 	lds	r24, 0x3808	; 0x803808 <buttonState>
    1ed4:	8f 3f       	cpi	r24, 0xFF	; 255
    1ed6:	31 f0       	breq	.+12     	; 0x1ee4 <BastetDictates+0x2c>
            WingBar(0,0);
    1ed8:	60 e0       	ldi	r22, 0x00	; 0
    1eda:	80 e0       	ldi	r24, 0x00	; 0
    1edc:	f4 da       	rcall	.-2584   	; 0x14c6 <WingBar>
            gameNow = BASTET;
    1ede:	82 e0       	ldi	r24, 0x02	; 2
    1ee0:	80 93 4c 38 	sts	0x384C, r24	; 0x80384c <gameNow>
        }

    if (BASTET_BOOT == simonGameState) {
    1ee4:	80 91 6e 38 	lds	r24, 0x386E	; 0x80386e <simonGameState>
    1ee8:	81 11       	cpse	r24, r1
    1eea:	0d c0       	rjmp	.+26     	; 0x1f06 <BastetDictates+0x4e>
    1eec:	c4 e7       	ldi	r28, 0x74	; 116
    1eee:	d8 e3       	ldi	r29, 0x38	; 56
    1ef0:	00 e8       	ldi	r16, 0x80	; 128
        for (uint8_t i = 0; i < BASTET_LENGTH; i++) {
            simonState[i] = (lfsr() % 4);
    1ef2:	18 e3       	ldi	r17, 0x38	; 56
    1ef4:	c6 d8       	rcall	.-3700   	; 0x1082 <lfsr>
    1ef6:	83 70       	andi	r24, 0x03	; 3
    1ef8:	89 93       	st	Y+, r24
            WingBar(0,0);
            gameNow = BASTET;
        }

    if (BASTET_BOOT == simonGameState) {
        for (uint8_t i = 0; i < BASTET_LENGTH; i++) {
    1efa:	0c 17       	cp	r16, r28
    1efc:	1d 07       	cpc	r17, r29
    1efe:	d1 f7       	brne	.-12     	; 0x1ef4 <BastetDictates+0x3c>
            simonState[i] = (lfsr() % 4);
        }
        simonGameState = BASTET_GAME_START;
    1f00:	81 e0       	ldi	r24, 0x01	; 1
    1f02:	80 93 6e 38 	sts	0x386E, r24	; 0x80386e <simonGameState>
    }

    if (BASTET_GAME_START == simonGameState && BASTET == gameNow) {
    1f06:	80 91 6e 38 	lds	r24, 0x386E	; 0x80386e <simonGameState>
    1f0a:	81 30       	cpi	r24, 0x01	; 1
    1f0c:	91 f4       	brne	.+36     	; 0x1f32 <BastetDictates+0x7a>
    1f0e:	80 91 4c 38 	lds	r24, 0x384C	; 0x80384c <gameNow>
    1f12:	82 30       	cpi	r24, 0x02	; 2
    1f14:	71 f4       	brne	.+28     	; 0x1f32 <BastetDictates+0x7a>
        simonGameState = BASTET_GAME_INTRO;
    1f16:	80 93 6e 38 	sts	0x386E, r24	; 0x80386e <simonGameState>
        simonPos = 0;
    1f1a:	10 92 73 38 	sts	0x3873, r1	; 0x803873 <simonPos>
        simonInputPos = 0;
    1f1e:	10 92 72 38 	sts	0x3872, r1	; 0x803872 <simonInputPos>
        simonTimer = 0;
    1f22:	10 92 71 38 	sts	0x3871, r1	; 0x803871 <simonTimer>
        simonCounter = 0;
    1f26:	10 92 6f 38 	sts	0x386F, r1	; 0x80386f <simonCounter>
        effect = 0;
    1f2a:	10 92 4a 38 	sts	0x384A, r1	; 0x80384a <effect>
    1f2e:	10 92 4b 38 	sts	0x384B, r1	; 0x80384b <effect+0x1>
    }

    if (BASTET_GAME_INTRO == simonGameState) {
    1f32:	80 91 6e 38 	lds	r24, 0x386E	; 0x80386e <simonGameState>
    1f36:	82 30       	cpi	r24, 0x02	; 2
    1f38:	51 f5       	brne	.+84     	; 0x1f8e <BastetDictates+0xd6>
        if (simonTimer > 3) {   // ? seconds
    1f3a:	80 91 71 38 	lds	r24, 0x3871	; 0x803871 <simonTimer>
    1f3e:	84 30       	cpi	r24, 0x04	; 4
    1f40:	38 f0       	brcs	.+14     	; 0x1f50 <BastetDictates+0x98>
            simonCounter++;
    1f42:	80 91 6f 38 	lds	r24, 0x386F	; 0x80386f <simonCounter>
    1f46:	8f 5f       	subi	r24, 0xFF	; 255
    1f48:	80 93 6f 38 	sts	0x386F, r24	; 0x80386f <simonCounter>
            simonTimer = 0;
    1f4c:	10 92 71 38 	sts	0x3871, r1	; 0x803871 <simonTimer>
        }
        if (simonCounter > 5) {
    1f50:	e0 91 6f 38 	lds	r30, 0x386F	; 0x80386f <simonCounter>
    1f54:	e6 30       	cpi	r30, 0x06	; 6
    1f56:	58 f0       	brcs	.+22     	; 0x1f6e <BastetDictates+0xb6>
            simonGameState = BASTET_GAME_SHOW_PATTERN;
    1f58:	83 e0       	ldi	r24, 0x03	; 3
    1f5a:	80 93 6e 38 	sts	0x386E, r24	; 0x80386e <simonGameState>
            simonTimer = 0;
    1f5e:	10 92 71 38 	sts	0x3871, r1	; 0x803871 <simonTimer>
            simonCounter = 0;
    1f62:	10 92 6f 38 	sts	0x386F, r1	; 0x80386f <simonCounter>
            SetHackerLeds(0,0);
    1f66:	60 e0       	ldi	r22, 0x00	; 0
    1f68:	80 e0       	ldi	r24, 0x00	; 0
    1f6a:	eb da       	rcall	.-2602   	; 0x1542 <SetHackerLeds>
            return 0;
    1f6c:	1b c1       	rjmp	.+566    	; 0x21a4 <BastetDictates+0x2ec>
        }
        iLED[HCKR[R][simonCounter]] = dimValue;
    1f6e:	f0 e0       	ldi	r31, 0x00	; 0
    1f70:	e2 5b       	subi	r30, 0xB2	; 178
    1f72:	f0 44       	sbci	r31, 0x40	; 64
    1f74:	a0 81       	ld	r26, Z
    1f76:	b0 e0       	ldi	r27, 0x00	; 0
    1f78:	80 91 0c 38 	lds	r24, 0x380C	; 0x80380c <dimValue>
    1f7c:	a8 52       	subi	r26, 0x28	; 40
    1f7e:	b5 4c       	sbci	r27, 0xC5	; 197
    1f80:	8c 93       	st	X, r24
        iLED[HCKR[G][simonCounter]] = 0;
    1f82:	e6 81       	ldd	r30, Z+6	; 0x06
    1f84:	f0 e0       	ldi	r31, 0x00	; 0
    1f86:	e8 52       	subi	r30, 0x28	; 40
    1f88:	f5 4c       	sbci	r31, 0xC5	; 197
    1f8a:	10 82       	st	Z, r1
    1f8c:	2a c0       	rjmp	.+84     	; 0x1fe2 <BastetDictates+0x12a>
    }

    if (BASTET_GAME_SHOW_PATTERN == simonGameState) {
    1f8e:	83 30       	cpi	r24, 0x03	; 3
    1f90:	41 f5       	brne	.+80     	; 0x1fe2 <BastetDictates+0x12a>
        if (simonTimer > 8) {   // .6 second
    1f92:	80 91 71 38 	lds	r24, 0x3871	; 0x803871 <simonTimer>
    1f96:	89 30       	cpi	r24, 0x09	; 9
    1f98:	38 f0       	brcs	.+14     	; 0x1fa8 <BastetDictates+0xf0>
            simonCounter++;
    1f9a:	80 91 6f 38 	lds	r24, 0x386F	; 0x80386f <simonCounter>
    1f9e:	8f 5f       	subi	r24, 0xFF	; 255
    1fa0:	80 93 6f 38 	sts	0x386F, r24	; 0x80386f <simonCounter>
            simonTimer = 0;
    1fa4:	10 92 71 38 	sts	0x3871, r1	; 0x803871 <simonTimer>
        }
        if (simonCounter > simonPos) {
    1fa8:	e0 91 6f 38 	lds	r30, 0x386F	; 0x80386f <simonCounter>
    1fac:	80 91 73 38 	lds	r24, 0x3873	; 0x803873 <simonPos>
    1fb0:	8e 17       	cp	r24, r30
    1fb2:	40 f4       	brcc	.+16     	; 0x1fc4 <BastetDictates+0x10c>
            simonInputPos = 0;
    1fb4:	10 92 72 38 	sts	0x3872, r1	; 0x803872 <simonInputPos>
            simonGameState = BASTET_GAME_INPUT;
    1fb8:	85 e0       	ldi	r24, 0x05	; 5
    1fba:	80 93 6e 38 	sts	0x386E, r24	; 0x80386e <simonGameState>
            simonLed(0);
    1fbe:	80 e0       	ldi	r24, 0x00	; 0
    1fc0:	48 df       	rcall	.-368    	; 0x1e52 <simonLed>
    1fc2:	98 c0       	rjmp	.+304    	; 0x20f4 <BastetDictates+0x23c>
            simonTimer = 0;
            return 0;
        }
        if (simonTimer > 7 ) {
    1fc4:	80 91 71 38 	lds	r24, 0x3871	; 0x803871 <simonTimer>
    1fc8:	88 30       	cpi	r24, 0x08	; 8
    1fca:	10 f0       	brcs	.+4      	; 0x1fd0 <BastetDictates+0x118>
            simonLed(0);
    1fcc:	80 e0       	ldi	r24, 0x00	; 0
    1fce:	08 c0       	rjmp	.+16     	; 0x1fe0 <BastetDictates+0x128>
        } else if (simonTimer > 5) {
    1fd0:	86 30       	cpi	r24, 0x06	; 6
    1fd2:	08 f4       	brcc	.+2      	; 0x1fd6 <BastetDictates+0x11e>
    1fd4:	92 c0       	rjmp	.+292    	; 0x20fa <BastetDictates+0x242>
            simonLed(simonState[simonCounter] + 1);
    1fd6:	f0 e0       	ldi	r31, 0x00	; 0
    1fd8:	ec 58       	subi	r30, 0x8C	; 140
    1fda:	f7 4c       	sbci	r31, 0xC7	; 199
    1fdc:	80 81       	ld	r24, Z
    1fde:	8f 5f       	subi	r24, 0xFF	; 255
    1fe0:	38 df       	rcall	.-400    	; 0x1e52 <simonLed>
        }
    }

    if (BASTET_GAME_INPUT == simonGameState) {
    1fe2:	c0 91 6e 38 	lds	r28, 0x386E	; 0x80386e <simonGameState>
    1fe6:	c5 30       	cpi	r28, 0x05	; 5
    1fe8:	09 f0       	breq	.+2      	; 0x1fec <BastetDictates+0x134>
    1fea:	87 c0       	rjmp	.+270    	; 0x20fa <BastetDictates+0x242>
        //Button pressed
        if (lastButtonState != buttonState && (buttonState+1) > 0) {
    1fec:	80 91 08 38 	lds	r24, 0x3808	; 0x803808 <buttonState>
    1ff0:	90 91 07 38 	lds	r25, 0x3807	; 0x803807 <lastButtonState>
    1ff4:	98 17       	cp	r25, r24
    1ff6:	09 f4       	brne	.+2      	; 0x1ffa <BastetDictates+0x142>
    1ff8:	72 c0       	rjmp	.+228    	; 0x20de <BastetDictates+0x226>
            if (simonWait == 0 && buttonState < 4) {
    1ffa:	90 91 70 38 	lds	r25, 0x3870	; 0x803870 <simonWait>
    1ffe:	91 11       	cpse	r25, r1
    2000:	70 c0       	rjmp	.+224    	; 0x20e2 <BastetDictates+0x22a>
    2002:	84 30       	cpi	r24, 0x04	; 4
    2004:	08 f0       	brcs	.+2      	; 0x2008 <BastetDictates+0x150>
    2006:	6d c0       	rjmp	.+218    	; 0x20e2 <BastetDictates+0x22a>
                simonWait = 1;
    2008:	91 e0       	ldi	r25, 0x01	; 1
    200a:	90 93 70 38 	sts	0x3870, r25	; 0x803870 <simonWait>
                simonTimer = 0;
    200e:	10 92 71 38 	sts	0x3871, r1	; 0x803871 <simonTimer>
                simonLed(buttonState+1);
    2012:	8f 5f       	subi	r24, 0xFF	; 255
    2014:	1e df       	rcall	.-452    	; 0x1e52 <simonLed>
                simonGameState = BASTET_GAME_WAIT_LEDS;
    2016:	84 e0       	ldi	r24, 0x04	; 4
    2018:	80 93 6e 38 	sts	0x386E, r24	; 0x80386e <simonGameState>
                simonNextGameState = BASTET_GAME_INPUT;
    201c:	c0 93 3d 38 	sts	0x383D, r28	; 0x80383d <simonNextGameState>

                if (simonState[simonInputPos] == buttonState) {
    2020:	80 91 72 38 	lds	r24, 0x3872	; 0x803872 <simonInputPos>
    2024:	e8 2f       	mov	r30, r24
    2026:	f0 e0       	ldi	r31, 0x00	; 0
    2028:	ec 58       	subi	r30, 0x8C	; 140
    202a:	f7 4c       	sbci	r31, 0xC7	; 199
    202c:	20 81       	ld	r18, Z
    202e:	90 91 08 38 	lds	r25, 0x3808	; 0x803808 <buttonState>
    2032:	29 13       	cpse	r18, r25
    2034:	1d c0       	rjmp	.+58     	; 0x2070 <BastetDictates+0x1b8>
                    simonInputPos++;
    2036:	8f 5f       	subi	r24, 0xFF	; 255
    2038:	80 93 72 38 	sts	0x3872, r24	; 0x803872 <simonInputPos>
                    if (simonInputPos > simonPos) {
    203c:	e0 91 73 38 	lds	r30, 0x3873	; 0x803873 <simonPos>
    2040:	e8 17       	cp	r30, r24
    2042:	a8 f5       	brcc	.+106    	; 0x20ae <BastetDictates+0x1f6>
                        simonPos++;
    2044:	ef 5f       	subi	r30, 0xFF	; 255
    2046:	e0 93 73 38 	sts	0x3873, r30	; 0x803873 <simonPos>
                        simonTimer = 0;
    204a:	10 92 71 38 	sts	0x3871, r1	; 0x803871 <simonTimer>
                        simonCounter = 0;
    204e:	10 92 6f 38 	sts	0x386F, r1	; 0x80386f <simonCounter>
                        if (simonPos > 1) { // BASTET_LENGTH = 12
    2052:	e1 30       	cpi	r30, 0x01	; 1
    2054:	59 f0       	breq	.+22     	; 0x206c <BastetDictates+0x1b4>
                            iLED[HCKR[G][(simonPos / 2) - 1]] = dimValue;
    2056:	e6 95       	lsr	r30
    2058:	f0 e0       	ldi	r31, 0x00	; 0
    205a:	e2 5b       	subi	r30, 0xB2	; 178
    205c:	f0 44       	sbci	r31, 0x40	; 64
    205e:	e5 81       	ldd	r30, Z+5	; 0x05
    2060:	f0 e0       	ldi	r31, 0x00	; 0
    2062:	80 91 0c 38 	lds	r24, 0x380C	; 0x80380c <dimValue>
    2066:	e8 52       	subi	r30, 0x28	; 40
    2068:	f5 4c       	sbci	r31, 0xC5	; 197
    206a:	80 83       	st	Z, r24
                        }
                        simonNextGameState = BASTET_GAME_SHOW_PATTERN;
    206c:	83 e0       	ldi	r24, 0x03	; 3
    206e:	1d c0       	rjmp	.+58     	; 0x20aa <BastetDictates+0x1f2>
                    }
                } else {
                    effect = 32|1;
    2070:	81 e2       	ldi	r24, 0x21	; 33
    2072:	90 e0       	ldi	r25, 0x00	; 0
    2074:	80 93 4a 38 	sts	0x384A, r24	; 0x80384a <effect>
    2078:	90 93 4b 38 	sts	0x384B, r25	; 0x80384b <effect+0x1>
    207c:	ae e4       	ldi	r26, 0x4E	; 78
    207e:	bf eb       	ldi	r27, 0xBF	; 191
    2080:	84 e5       	ldi	r24, 0x54	; 84
    2082:	9f eb       	ldi	r25, 0xBF	; 191
                    for (uint8_t n=0; n<6; n++){
                        iLED[HCKR[R][n]] = dimValue;
    2084:	ed 91       	ld	r30, X+
    2086:	f0 e0       	ldi	r31, 0x00	; 0
    2088:	20 91 0c 38 	lds	r18, 0x380C	; 0x80380c <dimValue>
    208c:	e8 52       	subi	r30, 0x28	; 40
    208e:	f5 4c       	sbci	r31, 0xC5	; 197
    2090:	20 83       	st	Z, r18
                        }
                        simonNextGameState = BASTET_GAME_SHOW_PATTERN;
                    }
                } else {
                    effect = 32|1;
                    for (uint8_t n=0; n<6; n++){
    2092:	8a 17       	cp	r24, r26
    2094:	9b 07       	cpc	r25, r27
    2096:	b1 f7       	brne	.-20     	; 0x2084 <BastetDictates+0x1cc>
                        iLED[HCKR[R][n]] = dimValue;
                    }
                    simonInputPos = 0;
    2098:	10 92 72 38 	sts	0x3872, r1	; 0x803872 <simonInputPos>
                    simonPos = 0;
    209c:	10 92 73 38 	sts	0x3873, r1	; 0x803873 <simonPos>
                    simonTimer = 0;
    20a0:	10 92 71 38 	sts	0x3871, r1	; 0x803871 <simonTimer>
                    simonCounter = 0;
    20a4:	10 92 6f 38 	sts	0x386F, r1	; 0x80386f <simonCounter>
                    simonNextGameState = BASTET_GAME_OUTRO;
    20a8:	86 e0       	ldi	r24, 0x06	; 6
    20aa:	80 93 3d 38 	sts	0x383D, r24	; 0x80383d <simonNextGameState>
                }

                if (simonInputPos >= BASTET_LENGTH || simonPos >= BASTET_LENGTH) { // beetje dubbel
    20ae:	80 91 72 38 	lds	r24, 0x3872	; 0x803872 <simonInputPos>
    20b2:	8c 30       	cpi	r24, 0x0C	; 12
    20b4:	20 f4       	brcc	.+8      	; 0x20be <BastetDictates+0x206>
    20b6:	80 91 73 38 	lds	r24, 0x3873	; 0x803873 <simonPos>
    20ba:	8c 30       	cpi	r24, 0x0C	; 12
    20bc:	90 f0       	brcs	.+36     	; 0x20e2 <BastetDictates+0x22a>
                    effect = 64|2;
    20be:	82 e4       	ldi	r24, 0x42	; 66
    20c0:	90 e0       	ldi	r25, 0x00	; 0
    20c2:	80 93 4a 38 	sts	0x384A, r24	; 0x80384a <effect>
    20c6:	90 93 4b 38 	sts	0x384B, r25	; 0x80384b <effect+0x1>
                    UpdateState(BASTET_COMPLETED);
    20ca:	8a e7       	ldi	r24, 0x7A	; 122
    20cc:	e0 d8       	rcall	.-3648   	; 0x128e <UpdateState>
                    simonTimer = 0;
    20ce:	10 92 71 38 	sts	0x3871, r1	; 0x803871 <simonTimer>
                    simonCounter = 0;
    20d2:	10 92 6f 38 	sts	0x386F, r1	; 0x80386f <simonCounter>
                    simonNextGameState = BASTET_GAME_OVER;
    20d6:	87 e0       	ldi	r24, 0x07	; 7
    20d8:	80 93 3d 38 	sts	0x383D, r24	; 0x80383d <simonNextGameState>
    20dc:	02 c0       	rjmp	.+4      	; 0x20e2 <BastetDictates+0x22a>
                }
            }
        
        //Button released, next or reset!
        } else {
            simonWait = 0;
    20de:	10 92 70 38 	sts	0x3870, r1	; 0x803870 <simonWait>
        }

        if (simonTimer == 75) {    // did you forget about Bastet?
    20e2:	80 91 71 38 	lds	r24, 0x3871	; 0x803871 <simonTimer>
    20e6:	8b 34       	cpi	r24, 0x4B	; 75
    20e8:	41 f4       	brne	.+16     	; 0x20fa <BastetDictates+0x242>
            simonGameState = BASTET_GAME_SHOW_PATTERN;
    20ea:	83 e0       	ldi	r24, 0x03	; 3
    20ec:	80 93 6e 38 	sts	0x386E, r24	; 0x80386e <simonGameState>
            simonCounter = 0;
    20f0:	10 92 6f 38 	sts	0x386F, r1	; 0x80386f <simonCounter>
            simonTimer = 0;
    20f4:	10 92 71 38 	sts	0x3871, r1	; 0x803871 <simonTimer>
            return 0;
    20f8:	55 c0       	rjmp	.+170    	; 0x21a4 <BastetDictates+0x2ec>
        }
    }

    if (BASTET_GAME_WAIT_LEDS == simonGameState) {
    20fa:	80 91 6e 38 	lds	r24, 0x386E	; 0x80386e <simonGameState>
    20fe:	84 30       	cpi	r24, 0x04	; 4
        if (simonTimer >= 3) {
    2100:	81 f4       	brne	.+32     	; 0x2122 <BastetDictates+0x26a>
    2102:	80 91 71 38 	lds	r24, 0x3871	; 0x803871 <simonTimer>
    2106:	83 30       	cpi	r24, 0x03	; 3
            // on to next state after .2 second
            simonLed(0);  // LEDs off
    2108:	60 f0       	brcs	.+24     	; 0x2122 <BastetDictates+0x26a>
    210a:	80 e0       	ldi	r24, 0x00	; 0
    210c:	a2 de       	rcall	.-700    	; 0x1e52 <simonLed>
            simonWait = 0;
    210e:	10 92 70 38 	sts	0x3870, r1	; 0x803870 <simonWait>
            simonTimer = 0;
    2112:	10 92 71 38 	sts	0x3871, r1	; 0x803871 <simonTimer>
            simonCounter = 0;
    2116:	10 92 6f 38 	sts	0x386F, r1	; 0x80386f <simonCounter>
            simonGameState = simonNextGameState;
    211a:	80 91 3d 38 	lds	r24, 0x383D	; 0x80383d <simonNextGameState>
    211e:	80 93 6e 38 	sts	0x386E, r24	; 0x80386e <simonGameState>
        }
    }

    if (BASTET_GAME_OUTRO == simonGameState) {
    2122:	80 91 6e 38 	lds	r24, 0x386E	; 0x80386e <simonGameState>
    2126:	86 30       	cpi	r24, 0x06	; 6
    2128:	61 f5       	brne	.+88     	; 0x2182 <BastetDictates+0x2ca>
        if (simonTimer > 3) {
    212a:	80 91 71 38 	lds	r24, 0x3871	; 0x803871 <simonTimer>
    212e:	84 30       	cpi	r24, 0x04	; 4
    2130:	38 f0       	brcs	.+14     	; 0x2140 <BastetDictates+0x288>
            simonCounter++;
    2132:	80 91 6f 38 	lds	r24, 0x386F	; 0x80386f <simonCounter>
    2136:	8f 5f       	subi	r24, 0xFF	; 255
    2138:	80 93 6f 38 	sts	0x386F, r24	; 0x80386f <simonCounter>
            simonTimer = 0;
    213c:	10 92 71 38 	sts	0x3871, r1	; 0x803871 <simonTimer>
        }
        if (simonCounter > 5) {
    2140:	80 91 6f 38 	lds	r24, 0x386F	; 0x80386f <simonCounter>
    2144:	86 30       	cpi	r24, 0x06	; 6
    2146:	60 f0       	brcs	.+24     	; 0x2160 <BastetDictates+0x2a8>
            simonTimer = 0;
    2148:	10 92 71 38 	sts	0x3871, r1	; 0x803871 <simonTimer>
            simonCounter = 0;
    214c:	10 92 6f 38 	sts	0x386F, r1	; 0x80386f <simonCounter>
            simonGameState = BASTET_GAME_OVER;
    2150:	87 e0       	ldi	r24, 0x07	; 7
    2152:	80 93 6e 38 	sts	0x386E, r24	; 0x80386e <simonGameState>
            effect = 0;
    2156:	10 92 4a 38 	sts	0x384A, r1	; 0x80384a <effect>
    215a:	10 92 4b 38 	sts	0x384B, r1	; 0x80384b <effect+0x1>
            return 0;
    215e:	22 c0       	rjmp	.+68     	; 0x21a4 <BastetDictates+0x2ec>
        }
        iLED[HCKR[R][5-simonCounter]] = 0;
    2160:	e5 e0       	ldi	r30, 0x05	; 5
    2162:	f0 e0       	ldi	r31, 0x00	; 0
    2164:	e8 1b       	sub	r30, r24
    2166:	f1 09       	sbc	r31, r1
    2168:	e2 5b       	subi	r30, 0xB2	; 178
    216a:	f0 44       	sbci	r31, 0x40	; 64
    216c:	a0 81       	ld	r26, Z
    216e:	b0 e0       	ldi	r27, 0x00	; 0
    2170:	a8 52       	subi	r26, 0x28	; 40
    2172:	b5 4c       	sbci	r27, 0xC5	; 197
    2174:	1c 92       	st	X, r1
        iLED[HCKR[G][5-simonCounter]] = 0;
    2176:	e6 81       	ldd	r30, Z+6	; 0x06
    2178:	f0 e0       	ldi	r31, 0x00	; 0
    217a:	e8 52       	subi	r30, 0x28	; 40
    217c:	f5 4c       	sbci	r31, 0xC5	; 197
    217e:	10 82       	st	Z, r1
    2180:	0c c0       	rjmp	.+24     	; 0x219a <BastetDictates+0x2e2>
    }

    if (BASTET_GAME_OVER == simonGameState) {
    2182:	87 30       	cpi	r24, 0x07	; 7
    2184:	51 f4       	brne	.+20     	; 0x219a <BastetDictates+0x2e2>
        simonInputPos = 0;
    2186:	10 92 72 38 	sts	0x3872, r1	; 0x803872 <simonInputPos>
        simonPos = 0;
    218a:	10 92 73 38 	sts	0x3873, r1	; 0x803873 <simonPos>
        simonGameState = BASTET_BOOT; // BASTET_GAME_START for stale "field" s
    218e:	10 92 6e 38 	sts	0x386E, r1	; 0x80386e <simonGameState>
        gameNow = TEXT;
    2192:	10 92 4c 38 	sts	0x384C, r1	; 0x80384c <gameNow>
        simonLed(0);
    2196:	80 e0       	ldi	r24, 0x00	; 0
    2198:	5c de       	rcall	.-840    	; 0x1e52 <simonLed>
    }

    ++simonTimer;
    219a:	80 91 71 38 	lds	r24, 0x3871	; 0x803871 <simonTimer>
    219e:	8f 5f       	subi	r24, 0xFF	; 255
    21a0:	80 93 71 38 	sts	0x3871, r24	; 0x803871 <simonTimer>
    return 0;
}
    21a4:	80 e0       	ldi	r24, 0x00	; 0
    21a6:	df 91       	pop	r29
    21a8:	cf 91       	pop	r28
    21aa:	1f 91       	pop	r17
    21ac:	0f 91       	pop	r16
    21ae:	08 95       	ret

000021b0 <Cheat>:

//
void SetResponse(uint8_t number, uint16_t address, uint16_t length, uint8_t type){
    reactStr[0][number]=address;
    reactStr[1][number]=length;
    reactStr[2][number]=type;
    21b0:	a2 e1       	ldi	r26, 0x12	; 18
    21b2:	b0 e0       	ldi	r27, 0x00	; 0
    21b4:	ee ed       	ldi	r30, 0xDE	; 222
    21b6:	f0 e1       	ldi	r31, 0x10	; 16
    21b8:	0c 94 6c 1f 	jmp	0x3ed8	; 0x3ed8 <__prologue_saves__+0x1e>
    21bc:	8a 8b       	std	Y+18, r24	; 0x12
    21be:	80 e1       	ldi	r24, 0x10	; 16
    21c0:	e0 e2       	ldi	r30, 0x20	; 32
    21c2:	ff eb       	ldi	r31, 0xBF	; 191
    21c4:	de 01       	movw	r26, r28
    21c6:	11 96       	adiw	r26, 0x01	; 1
    21c8:	01 90       	ld	r0, Z+
    21ca:	0d 92       	st	X+, r0
    21cc:	8a 95       	dec	r24
    21ce:	e1 f7       	brne	.-8      	; 0x21c8 <Cheat+0x18>
    21d0:	fe 01       	movw	r30, r28
    21d2:	31 96       	adiw	r30, 0x01	; 1
    21d4:	90 e0       	ldi	r25, 0x00	; 0
    21d6:	8f ef       	ldi	r24, 0xFF	; 255
    21d8:	21 91       	ld	r18, Z+
    21da:	31 91       	ld	r19, Z+
    21dc:	26 17       	cp	r18, r22
    21de:	37 07       	cpc	r19, r23
    21e0:	09 f4       	brne	.+2      	; 0x21e4 <Cheat+0x34>
    21e2:	89 2f       	mov	r24, r25
    21e4:	9f 5f       	subi	r25, 0xFF	; 255
    21e6:	98 30       	cpi	r25, 0x08	; 8
    21e8:	b9 f7       	brne	.-18     	; 0x21d8 <Cheat+0x28>
    21ea:	88 30       	cpi	r24, 0x08	; 8
    21ec:	10 f0       	brcs	.+4      	; 0x21f2 <Cheat+0x42>
    21ee:	80 e0       	ldi	r24, 0x00	; 0
    21f0:	14 c0       	rjmp	.+40     	; 0x221a <Cheat+0x6a>
    21f2:	18 e1       	ldi	r17, 0x18	; 24
    21f4:	18 0f       	add	r17, r24
    21f6:	41 e0       	ldi	r20, 0x01	; 1
    21f8:	be 01       	movw	r22, r28
    21fa:	6f 5e       	subi	r22, 0xEF	; 239
    21fc:	7f 4f       	sbci	r23, 0xFF	; 255
    21fe:	81 2f       	mov	r24, r17
    2200:	0e 94 5f 07 	call	0xebe	; 0xebe <EERead>
    2204:	89 89       	ldd	r24, Y+17	; 0x11
    2206:	8f 3f       	cpi	r24, 0xFF	; 255
    2208:	91 f7       	brne	.-28     	; 0x21ee <Cheat+0x3e>
    220a:	41 e0       	ldi	r20, 0x01	; 1
    220c:	be 01       	movw	r22, r28
    220e:	6e 5e       	subi	r22, 0xEE	; 238
    2210:	7f 4f       	sbci	r23, 0xFF	; 255
    2212:	81 2f       	mov	r24, r17
    2214:	0e 94 6f 07 	call	0xede	; 0xede <EEWrite>
    2218:	81 e0       	ldi	r24, 0x01	; 1
    221a:	62 96       	adiw	r28, 0x12	; 18
    221c:	e3 e0       	ldi	r30, 0x03	; 3
    221e:	0c 94 85 1f 	jmp	0x3f0a	; 0x3f0a <__epilogue_restores__+0x1e>

00002222 <UnflipData>:
    2222:	26 2f       	mov	r18, r22
    2224:	fb 01       	movw	r30, r22
    2226:	35 e5       	ldi	r19, 0x55	; 85
    2228:	9e 2f       	mov	r25, r30
    222a:	92 1b       	sub	r25, r18
    222c:	98 17       	cp	r25, r24
    222e:	28 f4       	brcc	.+10     	; 0x223a <UnflipData+0x18>
    2230:	90 81       	ld	r25, Z
    2232:	92 95       	swap	r25
    2234:	93 27       	eor	r25, r19
    2236:	91 93       	st	Z+, r25
    2238:	f7 cf       	rjmp	.-18     	; 0x2228 <UnflipData+0x6>
    223a:	08 95       	ret

0000223c <ClearTxAfter>:
    223c:	8f 5f       	subi	r24, 0xFF	; 255
    223e:	88 30       	cpi	r24, 0x08	; 8
    2240:	30 f4       	brcc	.+12     	; 0x224e <ClearTxAfter+0x12>
    2242:	e8 2f       	mov	r30, r24
    2244:	f0 e0       	ldi	r31, 0x00	; 0
    2246:	e6 5a       	subi	r30, 0xA6	; 166
    2248:	f5 4c       	sbci	r31, 0xC5	; 197
    224a:	10 82       	st	Z, r1
    224c:	f7 cf       	rjmp	.-18     	; 0x223c <ClearTxAfter>
    224e:	08 95       	ret

00002250 <StartsWith>:
    2250:	ac 01       	movw	r20, r24
    2252:	90 e0       	ldi	r25, 0x00	; 0
    2254:	e9 2f       	mov	r30, r25
    2256:	f0 e0       	ldi	r31, 0x00	; 0
    2258:	da 01       	movw	r26, r20
    225a:	ae 0f       	add	r26, r30
    225c:	bf 1f       	adc	r27, r31
    225e:	3c 91       	ld	r19, X
    2260:	e6 0f       	add	r30, r22
    2262:	f7 1f       	adc	r31, r23
    2264:	31 11       	cpse	r19, r1
    2266:	05 c0       	rjmp	.+10     	; 0x2272 <StartsWith+0x22>
    2268:	81 e0       	ldi	r24, 0x01	; 1
    226a:	90 81       	ld	r25, Z
    226c:	99 23       	and	r25, r25
    226e:	49 f0       	breq	.+18     	; 0x2282 <StartsWith+0x32>
    2270:	07 c0       	rjmp	.+14     	; 0x2280 <StartsWith+0x30>
    2272:	20 81       	ld	r18, Z
    2274:	22 23       	and	r18, r18
    2276:	c1 f3       	breq	.-16     	; 0x2268 <StartsWith+0x18>
    2278:	32 13       	cpse	r19, r18
    227a:	02 c0       	rjmp	.+4      	; 0x2280 <StartsWith+0x30>
    227c:	9f 5f       	subi	r25, 0xFF	; 255
    227e:	ea cf       	rjmp	.-44     	; 0x2254 <StartsWith+0x4>
    2280:	80 e0       	ldi	r24, 0x00	; 0
    2282:	08 95       	ret

00002284 <PrepareSending>:
    2284:	cf 93       	push	r28
    2286:	df 93       	push	r29
    2288:	fc 01       	movw	r30, r24
    228a:	61 15       	cp	r22, r1
    228c:	71 05       	cpc	r23, r1
    228e:	59 f1       	breq	.+86     	; 0x22e6 <PrepareSending+0x62>
    2290:	a2 e6       	ldi	r26, 0x62	; 98
    2292:	ba e3       	ldi	r27, 0x3A	; 58
    2294:	ca e5       	ldi	r28, 0x5A	; 90
    2296:	da e3       	ldi	r29, 0x3A	; 58
    2298:	80 e0       	ldi	r24, 0x00	; 0
    229a:	9f ef       	ldi	r25, 0xFF	; 255
    229c:	6f 3f       	cpi	r22, 0xFF	; 255
    229e:	71 05       	cpc	r23, r1
    22a0:	69 f0       	breq	.+26     	; 0x22bc <PrepareSending+0x38>
    22a2:	60 f0       	brcs	.+24     	; 0x22bc <PrepareSending+0x38>
    22a4:	ed 93       	st	X+, r30
    22a6:	fd 93       	st	X+, r31
    22a8:	99 93       	st	Y+, r25
    22aa:	e1 50       	subi	r30, 0x01	; 1
    22ac:	ff 4f       	sbci	r31, 0xFF	; 255
    22ae:	6f 5f       	subi	r22, 0xFF	; 255
    22b0:	71 09       	sbc	r23, r1
    22b2:	8f 5f       	subi	r24, 0xFF	; 255
    22b4:	87 30       	cpi	r24, 0x07	; 7
    22b6:	91 f7       	brne	.-28     	; 0x229c <PrepareSending+0x18>
    22b8:	81 e0       	ldi	r24, 0x01	; 1
    22ba:	1e c0       	rjmp	.+60     	; 0x22f8 <PrepareSending+0x74>
    22bc:	28 2f       	mov	r18, r24
    22be:	30 e0       	ldi	r19, 0x00	; 0
    22c0:	d9 01       	movw	r26, r18
    22c2:	aa 0f       	add	r26, r26
    22c4:	bb 1f       	adc	r27, r27
    22c6:	ae 59       	subi	r26, 0x9E	; 158
    22c8:	b5 4c       	sbci	r27, 0xC5	; 197
    22ca:	ed 93       	st	X+, r30
    22cc:	fc 93       	st	X, r31
    22ce:	6f 3f       	cpi	r22, 0xFF	; 255
    22d0:	71 05       	cpc	r23, r1
    22d2:	11 f4       	brne	.+4      	; 0x22d8 <PrepareSending+0x54>
    22d4:	6e ef       	ldi	r22, 0xFE	; 254
    22d6:	70 e0       	ldi	r23, 0x00	; 0
    22d8:	f9 01       	movw	r30, r18
    22da:	e6 5a       	subi	r30, 0xA6	; 166
    22dc:	f5 4c       	sbci	r31, 0xC5	; 197
    22de:	60 83       	st	Z, r22
    22e0:	40 93 58 3a 	sts	0x3A58, r20	; 0x803a58 <txTypeNow>
    22e4:	05 c0       	rjmp	.+10     	; 0x22f0 <PrepareSending+0x6c>
    22e6:	10 92 62 3a 	sts	0x3A62, r1	; 0x803a62 <txAddrList>
    22ea:	10 92 63 3a 	sts	0x3A63, r1	; 0x803a63 <txAddrList+0x1>
    22ee:	80 e0       	ldi	r24, 0x00	; 0
    22f0:	a5 df       	rcall	.-182    	; 0x223c <ClearTxAfter>
    22f2:	10 92 59 3a 	sts	0x3A59, r1	; 0x803a59 <txAddrNow>
    22f6:	80 e0       	ldi	r24, 0x00	; 0
    22f8:	df 91       	pop	r29
    22fa:	cf 91       	pop	r28
    22fc:	08 95       	ret

000022fe <SetStandardResponse>:
}

//
uint8_t SetStandardResponse(uint8_t custStrEnd){
    22fe:	cf 93       	push	r28
    2300:	df 93       	push	r29
    return 0;
}

//
void SetResponse(uint8_t number, uint16_t address, uint16_t length, uint8_t type){
    reactStr[0][number]=address;
    2302:	28 2f       	mov	r18, r24
    2304:	30 e0       	ldi	r19, 0x00	; 0
    2306:	f9 01       	movw	r30, r18
    2308:	ee 0f       	add	r30, r30
    230a:	ff 1f       	adc	r31, r31
    230c:	e3 5d       	subi	r30, 0xD3	; 211
    230e:	f6 4c       	sbci	r31, 0xC6	; 198
    2310:	a9 e5       	ldi	r26, 0x59	; 89
    2312:	ba e7       	ldi	r27, 0x7A	; 122
    2314:	a0 83       	st	Z, r26
    2316:	b1 83       	std	Z+1, r27	; 0x01
    reactStr[1][number]=length;
    2318:	f9 01       	movw	r30, r18
    231a:	ee 0f       	add	r30, r30
    231c:	ff 1f       	adc	r31, r31
    231e:	e3 59       	subi	r30, 0x93	; 147
    2320:	f6 4c       	sbci	r31, 0xC6	; 198
    2322:	62 e0       	ldi	r22, 0x02	; 2
    2324:	70 e0       	ldi	r23, 0x00	; 0
    2326:	60 83       	st	Z, r22
    2328:	71 83       	std	Z+1, r23	; 0x01
    reactStr[2][number]=type;
    232a:	22 0f       	add	r18, r18
    232c:	33 1f       	adc	r19, r19
    232e:	f9 01       	movw	r30, r18
    2330:	e3 55       	subi	r30, 0x53	; 83
    2332:	f6 4c       	sbci	r31, 0xC6	; 198
    2334:	41 e0       	ldi	r20, 0x01	; 1
    2336:	50 e0       	ldi	r21, 0x00	; 0
    2338:	40 83       	st	Z, r20
    233a:	51 83       	std	Z+1, r21	; 0x01
    return 0;
}

//
void SetResponse(uint8_t number, uint16_t address, uint16_t length, uint8_t type){
    reactStr[0][number]=address;
    233c:	21 e0       	ldi	r18, 0x01	; 1
    233e:	28 0f       	add	r18, r24
    2340:	30 e0       	ldi	r19, 0x00	; 0
    2342:	f9 01       	movw	r30, r18
    2344:	ee 0f       	add	r30, r30
    2346:	ff 1f       	adc	r31, r31
    2348:	e3 5d       	subi	r30, 0xD3	; 211
    234a:	f6 4c       	sbci	r31, 0xC6	; 198
    234c:	c2 e6       	ldi	r28, 0x62	; 98
    234e:	da e7       	ldi	r29, 0x7A	; 122
    2350:	c0 83       	st	Z, r28
    2352:	d1 83       	std	Z+1, r29	; 0x01
    reactStr[1][number]=length;
    2354:	f9 01       	movw	r30, r18
    2356:	ee 0f       	add	r30, r30
    2358:	ff 1f       	adc	r31, r31
    235a:	e3 59       	subi	r30, 0x93	; 147
    235c:	f6 4c       	sbci	r31, 0xC6	; 198
    235e:	cc e0       	ldi	r28, 0x0C	; 12
    2360:	d0 e0       	ldi	r29, 0x00	; 0
    2362:	c0 83       	st	Z, r28
    2364:	d1 83       	std	Z+1, r29	; 0x01
    reactStr[2][number]=type;
    2366:	22 0f       	add	r18, r18
    2368:	33 1f       	adc	r19, r19
    236a:	f9 01       	movw	r30, r18
    236c:	e3 55       	subi	r30, 0x53	; 83
    236e:	f6 4c       	sbci	r31, 0xC6	; 198
    2370:	40 83       	st	Z, r20
    2372:	51 83       	std	Z+1, r21	; 0x01
//
uint8_t SetStandardResponse(uint8_t custStrEnd){

    SetResponse(custStrEnd++, A_LF, 2, TEASER);
    SetResponse(custStrEnd++, A_LOCATION, L_LOCATION, TEASER);
    reactStr[0][custStrEnd++] = CURR_LOC;
    2374:	e2 e0       	ldi	r30, 0x02	; 2
    2376:	e8 0f       	add	r30, r24
    2378:	f0 e0       	ldi	r31, 0x00	; 0
    237a:	ee 0f       	add	r30, r30
    237c:	ff 1f       	adc	r31, r31
    237e:	e3 5d       	subi	r30, 0xD3	; 211
    2380:	f6 4c       	sbci	r31, 0xC6	; 198
    2382:	20 ef       	ldi	r18, 0xF0	; 240
    2384:	3f ef       	ldi	r19, 0xFF	; 255
    2386:	20 83       	st	Z, r18
    2388:	31 83       	std	Z+1, r19	; 0x01
    return 0;
}

//
void SetResponse(uint8_t number, uint16_t address, uint16_t length, uint8_t type){
    reactStr[0][number]=address;
    238a:	23 e0       	ldi	r18, 0x03	; 3
    238c:	28 0f       	add	r18, r24
    238e:	30 e0       	ldi	r19, 0x00	; 0
    2390:	f9 01       	movw	r30, r18
    2392:	ee 0f       	add	r30, r30
    2394:	ff 1f       	adc	r31, r31
    2396:	e3 5d       	subi	r30, 0xD3	; 211
    2398:	f6 4c       	sbci	r31, 0xC6	; 198
    239a:	a0 83       	st	Z, r26
    239c:	b1 83       	std	Z+1, r27	; 0x01
    reactStr[1][number]=length;
    239e:	f9 01       	movw	r30, r18
    23a0:	ee 0f       	add	r30, r30
    23a2:	ff 1f       	adc	r31, r31
    23a4:	e3 59       	subi	r30, 0x93	; 147
    23a6:	f6 4c       	sbci	r31, 0xC6	; 198
    23a8:	60 83       	st	Z, r22
    23aa:	71 83       	std	Z+1, r23	; 0x01
    reactStr[2][number]=type;
    23ac:	22 0f       	add	r18, r18
    23ae:	33 1f       	adc	r19, r19
    23b0:	f9 01       	movw	r30, r18
    23b2:	e3 55       	subi	r30, 0x53	; 83
    23b4:	f6 4c       	sbci	r31, 0xC6	; 198
    23b6:	40 83       	st	Z, r20
    23b8:	51 83       	std	Z+1, r21	; 0x01
    return 0;
}

//
void SetResponse(uint8_t number, uint16_t address, uint16_t length, uint8_t type){
    reactStr[0][number]=address;
    23ba:	24 e0       	ldi	r18, 0x04	; 4
    23bc:	28 0f       	add	r18, r24
    23be:	30 e0       	ldi	r19, 0x00	; 0
    23c0:	f9 01       	movw	r30, r18
    23c2:	ee 0f       	add	r30, r30
    23c4:	ff 1f       	adc	r31, r31
    23c6:	e3 5d       	subi	r30, 0xD3	; 211
    23c8:	f6 4c       	sbci	r31, 0xC6	; 198
    23ca:	a5 e5       	ldi	r26, 0x55	; 85
    23cc:	ba e7       	ldi	r27, 0x7A	; 122
    23ce:	a0 83       	st	Z, r26
    23d0:	b1 83       	std	Z+1, r27	; 0x01
    reactStr[1][number]=length;
    23d2:	f9 01       	movw	r30, r18
    23d4:	ee 0f       	add	r30, r30
    23d6:	ff 1f       	adc	r31, r31
    23d8:	e3 59       	subi	r30, 0x93	; 147
    23da:	f6 4c       	sbci	r31, 0xC6	; 198
    23dc:	60 83       	st	Z, r22
    23de:	71 83       	std	Z+1, r23	; 0x01
    reactStr[2][number]=type;
    23e0:	22 0f       	add	r18, r18
    23e2:	33 1f       	adc	r19, r19
    23e4:	f9 01       	movw	r30, r18
    23e6:	e3 55       	subi	r30, 0x53	; 83
    23e8:	f6 4c       	sbci	r31, 0xC6	; 198
    23ea:	40 83       	st	Z, r20
    23ec:	51 83       	std	Z+1, r21	; 0x01
    reactStr[0][custStrEnd++] = CURR_LOC;
    SetResponse(custStrEnd++, A_LF, 2, TEASER);
    SetResponse(custStrEnd++, A_PROMPT, L_PROMPT, TEASER);

    return custStrEnd;
}
    23ee:	8b 5f       	subi	r24, 0xFB	; 251
    23f0:	df 91       	pop	r29
    23f2:	cf 91       	pop	r28
    23f4:	08 95       	ret

000023f6 <PopulateObject>:

//Get all the relevant data and string addresses of an object
void PopulateObject(uint16_t offset, object_model_t *object){
    23f6:	af 92       	push	r10
    23f8:	bf 92       	push	r11
    23fa:	df 92       	push	r13
    23fc:	ef 92       	push	r14
    23fe:	ff 92       	push	r15
    2400:	0f 93       	push	r16
    2402:	1f 93       	push	r17
    2404:	cf 93       	push	r28
    2406:	df 93       	push	r29
    2408:	cd b7       	in	r28, 0x3d	; 61
    240a:	de b7       	in	r29, 0x3e	; 62
    240c:	2c 97       	sbiw	r28, 0x0c	; 12
    240e:	cd bf       	out	0x3d, r28	; 61
    2410:	de bf       	out	0x3e, r29	; 62
    2412:	7c 01       	movw	r14, r24
    2414:	8b 01       	movw	r16, r22
    uint16_t parStr;
    offset += L_BOILER;

    //Fill things with fixed distance to offset
    uint8_t data[OFF_STRINGFLDS];
    ExtEERead(offset, OFF_STRINGFLDS, GAME, &data[0]);
    2416:	9e 01       	movw	r18, r28
    2418:	2f 5f       	subi	r18, 0xFF	; 255
    241a:	3f 4f       	sbci	r19, 0xFF	; 255
    241c:	40 e0       	ldi	r20, 0x00	; 0
    241e:	6c e0       	ldi	r22, 0x0C	; 12
    2420:	80 96       	adiw	r24, 0x20	; 32
    2422:	0e 94 b1 07 	call	0xf62	; 0xf62 <ExtEERead>
    object->addrNextObj = (data[OFF_NEXTOBJ]<<8|data[OFF_NEXTOBJ+1])+L_BOILER;
    2426:	89 81       	ldd	r24, Y+1	; 0x01
    2428:	9a 81       	ldd	r25, Y+2	; 0x02
    242a:	98 27       	eor	r25, r24
    242c:	89 27       	eor	r24, r25
    242e:	98 27       	eor	r25, r24
    2430:	80 96       	adiw	r24, 0x20	; 32
    2432:	f8 01       	movw	r30, r16
    2434:	80 83       	st	Z, r24
    2436:	91 83       	std	Z+1, r25	; 0x01
    object->addrNextLvl = (data[OFF_NEXTLVL]<<8|data[OFF_NEXTLVL+1])+L_BOILER;
    2438:	8b 81       	ldd	r24, Y+3	; 0x03
    243a:	9c 81       	ldd	r25, Y+4	; 0x04
    243c:	98 27       	eor	r25, r24
    243e:	89 27       	eor	r24, r25
    2440:	98 27       	eor	r25, r24
    2442:	80 96       	adiw	r24, 0x20	; 32
    2444:	82 83       	std	Z+2, r24	; 0x02
    2446:	93 83       	std	Z+3, r25	; 0x03
    2448:	de 01       	movw	r26, r28
    244a:	15 96       	adiw	r26, 0x05	; 5
    244c:	34 96       	adiw	r30, 0x04	; 4
    244e:	c8 01       	movw	r24, r16
    2450:	0c 96       	adiw	r24, 0x0c	; 12
    for (uint8_t x=0; x<BYTE_FIELDS_LEN; ++x){
        object->byteField[x]=data[x+OFF_BYTEFLDS];
    2452:	2d 91       	ld	r18, X+
    2454:	21 93       	st	Z+, r18
    //Fill things with fixed distance to offset
    uint8_t data[OFF_STRINGFLDS];
    ExtEERead(offset, OFF_STRINGFLDS, GAME, &data[0]);
    object->addrNextObj = (data[OFF_NEXTOBJ]<<8|data[OFF_NEXTOBJ+1])+L_BOILER;
    object->addrNextLvl = (data[OFF_NEXTLVL]<<8|data[OFF_NEXTLVL+1])+L_BOILER;
    for (uint8_t x=0; x<BYTE_FIELDS_LEN; ++x){
    2456:	e8 17       	cp	r30, r24
    2458:	f9 07       	cpc	r31, r25
    245a:	d9 f7       	brne	.-10     	; 0x2452 <PopulateObject+0x5c>
        object->byteField[x]=data[x+OFF_BYTEFLDS];
    }

    //Find out where all of the strings begin and how long they are
    offset += OFF_STRINGFLDS;
    245c:	fc e2       	ldi	r31, 0x2C	; 44
    245e:	ef 0e       	add	r14, r31
    2460:	f1 1c       	adc	r15, r1
    2462:	58 01       	movw	r10, r16
    for(uint8_t x=0; x<STRING_FIELDS_LEN; ++x){
    2464:	d1 2c       	mov	r13, r1
        
        //Determine length
        ExtEERead(offset, 3, GAME, &data[0]);
    2466:	9e 01       	movw	r18, r28
    2468:	2f 5f       	subi	r18, 0xFF	; 255
    246a:	3f 4f       	sbci	r19, 0xFF	; 255
    246c:	40 e0       	ldi	r20, 0x00	; 0
    246e:	63 e0       	ldi	r22, 0x03	; 3
    2470:	c7 01       	movw	r24, r14
    2472:	0e 94 b1 07 	call	0xf62	; 0xf62 <ExtEERead>
    2476:	89 81       	ldd	r24, Y+1	; 0x01
    2478:	9a 81       	ldd	r25, Y+2	; 0x02
    247a:	98 27       	eor	r25, r24
    247c:	89 27       	eor	r24, r25
    247e:	98 27       	eor	r25, r24
        parStr = (data[0]<<8|data[1]);
        offset += 2;
    2480:	97 01       	movw	r18, r14
    2482:	2e 5f       	subi	r18, 0xFE	; 254
    2484:	3f 4f       	sbci	r19, 0xFF	; 255
        if (x >= OPEN_ACL_MSG){
    2486:	43 e0       	ldi	r20, 0x03	; 3
    2488:	4d 15       	cp	r20, r13
    248a:	80 f4       	brcc	.+32     	; 0x24ac <PopulateObject+0xb6>
            object->lenStr[x]= parStr-1;
    248c:	ac 01       	movw	r20, r24
    248e:	41 50       	subi	r20, 0x01	; 1
    2490:	51 09       	sbc	r21, r1
    2492:	f8 01       	movw	r30, r16
    2494:	42 8f       	std	Z+26, r20	; 0x1a
    2496:	53 8f       	std	Z+27, r21	; 0x1b
            object->addrStr[x]=offset+1;
    2498:	f3 e0       	ldi	r31, 0x03	; 3
    249a:	ef 0e       	add	r14, r31
    249c:	f1 1c       	adc	r15, r1
    249e:	f8 01       	movw	r30, r16
    24a0:	e4 86       	std	Z+12, r14	; 0x0c
    24a2:	f5 86       	std	Z+13, r15	; 0x0d
            object->effect[x-OPEN_ACL_MSG] = data[2];
    24a4:	4b 81       	ldd	r20, Y+3	; 0x03
    24a6:	f5 01       	movw	r30, r10
    24a8:	44 a3       	std	Z+36, r20	; 0x24
    24aa:	05 c0       	rjmp	.+10     	; 0x24b6 <PopulateObject+0xc0>
        } else {
            object->lenStr[x]= parStr;
    24ac:	f8 01       	movw	r30, r16
    24ae:	82 8f       	std	Z+26, r24	; 0x1a
    24b0:	93 8f       	std	Z+27, r25	; 0x1b
            object->addrStr[x]=offset;
    24b2:	24 87       	std	Z+12, r18	; 0x0c
    24b4:	35 87       	std	Z+13, r19	; 0x0d
        }
        
        //Determine string start location for next field
        offset += parStr;
    24b6:	7c 01       	movw	r14, r24
    24b8:	e2 0e       	add	r14, r18
    24ba:	f3 1e       	adc	r15, r19
        object->byteField[x]=data[x+OFF_BYTEFLDS];
    }

    //Find out where all of the strings begin and how long they are
    offset += OFF_STRINGFLDS;
    for(uint8_t x=0; x<STRING_FIELDS_LEN; ++x){
    24bc:	d3 94       	inc	r13
    24be:	0e 5f       	subi	r16, 0xFE	; 254
    24c0:	1f 4f       	sbci	r17, 0xFF	; 255
    24c2:	ff ef       	ldi	r31, 0xFF	; 255
    24c4:	af 1a       	sub	r10, r31
    24c6:	bf 0a       	sbc	r11, r31
    24c8:	47 e0       	ldi	r20, 0x07	; 7
    24ca:	d4 12       	cpse	r13, r20
    24cc:	cc cf       	rjmp	.-104    	; 0x2466 <PopulateObject+0x70>
        }
        
        //Determine string start location for next field
        offset += parStr;
    }    
}
    24ce:	2c 96       	adiw	r28, 0x0c	; 12
    24d0:	cd bf       	out	0x3d, r28	; 61
    24d2:	de bf       	out	0x3e, r29	; 62
    24d4:	df 91       	pop	r29
    24d6:	cf 91       	pop	r28
    24d8:	1f 91       	pop	r17
    24da:	0f 91       	pop	r16
    24dc:	ff 90       	pop	r15
    24de:	ef 90       	pop	r14
    24e0:	df 90       	pop	r13
    24e2:	bf 90       	pop	r11
    24e4:	af 90       	pop	r10
    24e6:	08 95       	ret

000024e8 <CheckLetter>:

//Check if the entered letter corresponds with a name
uint8_t CheckLetter(uint16_t object, uint8_t letter){
    24e8:	a0 e2       	ldi	r26, 0x20	; 32
    24ea:	b0 e0       	ldi	r27, 0x00	; 0
    24ec:	ea e7       	ldi	r30, 0x7A	; 122
    24ee:	f2 e1       	ldi	r31, 0x12	; 18
    24f0:	0c 94 67 1f 	jmp	0x3ece	; 0x3ece <__prologue_saves__+0x14>
    24f4:	c6 2e       	mov	r12, r22
    
    uint8_t found = 0;
    uint8_t data[32];

    object += L_BOILER;
    24f6:	7c 01       	movw	r14, r24
    24f8:	20 e2       	ldi	r18, 0x20	; 32
    24fa:	e2 0e       	add	r14, r18
    24fc:	f1 1c       	adc	r15, r1
    ExtEERead(object+OFF_STRINGFLDS, 2, GAME, &data[0]);
    24fe:	9e 01       	movw	r18, r28
    2500:	2f 5f       	subi	r18, 0xFF	; 255
    2502:	3f 4f       	sbci	r19, 0xFF	; 255
    2504:	40 e0       	ldi	r20, 0x00	; 0
    2506:	62 e0       	ldi	r22, 0x02	; 2
    2508:	8c 96       	adiw	r24, 0x2c	; 44
    250a:	0e 94 b1 07 	call	0xf62	; 0xf62 <ExtEERead>
    uint8_t x = data[1]; //Assuming a name is not longer than 255 characters.
    250e:	1a 81       	ldd	r17, Y+2	; 0x02
}

//Check if the entered letter corresponds with a name
uint8_t CheckLetter(uint16_t object, uint8_t letter){
    
    uint8_t found = 0;
    2510:	d1 2c       	mov	r13, r1

    object += L_BOILER;
    ExtEERead(object+OFF_STRINGFLDS, 2, GAME, &data[0]);
    uint8_t x = data[1]; //Assuming a name is not longer than 255 characters.

    while (x){
    2512:	11 23       	and	r17, r17
    2514:	59 f1       	breq	.+86     	; 0x256c <CheckLetter+0x84>
    2516:	01 2f       	mov	r16, r17
    2518:	11 32       	cpi	r17, 0x21	; 33
    251a:	08 f0       	brcs	.+2      	; 0x251e <CheckLetter+0x36>
    251c:	00 e2       	ldi	r16, 0x20	; 32
        uint8_t max;
        if (x>32) max = 32; else max = x;
        ExtEERead(object+OFF_STRINGFLDS+2, max, GAME, &data[0]);
    251e:	9e 01       	movw	r18, r28
    2520:	2f 5f       	subi	r18, 0xFF	; 255
    2522:	3f 4f       	sbci	r19, 0xFF	; 255
    2524:	40 e0       	ldi	r20, 0x00	; 0
    2526:	60 2f       	mov	r22, r16
    2528:	c7 01       	movw	r24, r14
    252a:	0e 96       	adiw	r24, 0x0e	; 14
    252c:	0e 94 b1 07 	call	0xf62	; 0xf62 <ExtEERead>
    2530:	fe 01       	movw	r30, r28
    2532:	31 96       	adiw	r30, 0x01	; 1
        for (uint8_t y=0; y<max; ++y){
    2534:	80 e0       	ldi	r24, 0x00	; 0
            if (found){
    2536:	dd 20       	and	r13, r13
    2538:	61 f0       	breq	.+24     	; 0x2552 <CheckLetter+0x6a>
                if ((data[y]|0x20) == letter) return 1; else return 0;
    253a:	e1 e0       	ldi	r30, 0x01	; 1
    253c:	f0 e0       	ldi	r31, 0x00	; 0
    253e:	ec 0f       	add	r30, r28
    2540:	fd 1f       	adc	r31, r29
    2542:	e8 0f       	add	r30, r24
    2544:	f1 1d       	adc	r31, r1
    2546:	90 81       	ld	r25, Z
    2548:	90 62       	ori	r25, 0x20	; 32
    254a:	81 e0       	ldi	r24, 0x01	; 1
    254c:	9c 11       	cpse	r25, r12
    254e:	0e c0       	rjmp	.+28     	; 0x256c <CheckLetter+0x84>
    2550:	0e c0       	rjmp	.+28     	; 0x256e <CheckLetter+0x86>
            }
            if (data[y] == '[') found = 1;
    2552:	91 91       	ld	r25, Z+
    2554:	dd 24       	eor	r13, r13
    2556:	d3 94       	inc	r13
    2558:	9b 35       	cpi	r25, 0x5B	; 91
    255a:	09 f0       	breq	.+2      	; 0x255e <CheckLetter+0x76>
    255c:	d1 2c       	mov	r13, r1

    while (x){
        uint8_t max;
        if (x>32) max = 32; else max = x;
        ExtEERead(object+OFF_STRINGFLDS+2, max, GAME, &data[0]);
        for (uint8_t y=0; y<max; ++y){
    255e:	8f 5f       	subi	r24, 0xFF	; 255
    2560:	80 17       	cp	r24, r16
    2562:	48 f3       	brcs	.-46     	; 0x2536 <CheckLetter+0x4e>
            if (found){
                if ((data[y]|0x20) == letter) return 1; else return 0;
            }
            if (data[y] == '[') found = 1;
        }
        object += max;
    2564:	e0 0e       	add	r14, r16
    2566:	f1 1c       	adc	r15, r1
        x -= max;
    2568:	10 1b       	sub	r17, r16
    256a:	d3 cf       	rjmp	.-90     	; 0x2512 <CheckLetter+0x2a>
    }
    return 0;
    256c:	80 e0       	ldi	r24, 0x00	; 0
}
    256e:	a0 96       	adiw	r28, 0x20	; 32
    2570:	e8 e0       	ldi	r30, 0x08	; 8
    2572:	0c 94 80 1f 	jmp	0x3f00	; 0x3f00 <__epilogue_restores__+0x14>

00002576 <FindChild>:

//Returns the child's address if the child is visible and the search letter matches
uint16_t FindChild(uint16_t parent, uint8_t letter, uint16_t start){
    2576:	af 92       	push	r10
    2578:	bf 92       	push	r11
    257a:	df 92       	push	r13
    257c:	ef 92       	push	r14
    257e:	ff 92       	push	r15
    2580:	0f 93       	push	r16
    2582:	1f 93       	push	r17
    2584:	cf 93       	push	r28
    2586:	df 93       	push	r29
    2588:	00 d0       	rcall	.+0      	; 0x258a <FindChild+0x14>
    258a:	00 d0       	rcall	.+0      	; 0x258c <FindChild+0x16>
    258c:	cd b7       	in	r28, 0x3d	; 61
    258e:	de b7       	in	r29, 0x3e	; 62
    2590:	d6 2e       	mov	r13, r22
    2592:	5a 01       	movw	r10, r20
    
    uint16_t child = parent;
    uint8_t data[4];

    ExtEERead(child+L_BOILER, 4, GAME, &data[0]);
    2594:	9e 01       	movw	r18, r28
    2596:	2f 5f       	subi	r18, 0xFF	; 255
    2598:	3f 4f       	sbci	r19, 0xFF	; 255
    259a:	40 e0       	ldi	r20, 0x00	; 0
    259c:	64 e0       	ldi	r22, 0x04	; 4
    259e:	80 96       	adiw	r24, 0x20	; 32
    25a0:	0e 94 b1 07 	call	0xf62	; 0xf62 <ExtEERead>
    25a4:	e9 80       	ldd	r14, Y+1	; 0x01
    25a6:	fa 80       	ldd	r15, Y+2	; 0x02
    25a8:	fe 24       	eor	r15, r14
    25aa:	ef 24       	eor	r14, r15
    25ac:	fe 24       	eor	r15, r14
    25ae:	0b 81       	ldd	r16, Y+3	; 0x03
    25b0:	1c 81       	ldd	r17, Y+4	; 0x04
    25b2:	10 27       	eor	r17, r16
    25b4:	01 27       	eor	r16, r17
    25b6:	10 27       	eor	r17, r16
    parent = (data[0]<<8|data[1]);    //Next object on parent level
    child =  (data[2]<<8|data[3]);    //First object on child level

    //As long as the child is within the parent's range
    while (parent>child){
    25b8:	0e 15       	cp	r16, r14
    25ba:	1f 05       	cpc	r17, r15
    25bc:	48 f5       	brcc	.+82     	; 0x2610 <FindChild+0x9a>

        //If child's address is higher than the start address, perform search for letter
        if (child>start){
    25be:	a0 16       	cp	r10, r16
    25c0:	b1 06       	cpc	r11, r17
    25c2:	60 f0       	brcs	.+24     	; 0x25dc <FindChild+0x66>
                if ((letter == 0)||(CheckLetter(child, letter))) return child;
            }
        }

        //Not visible or name not right
        ExtEERead(child+L_BOILER, 2, GAME, &data[0]);
    25c4:	9e 01       	movw	r18, r28
    25c6:	2f 5f       	subi	r18, 0xFF	; 255
    25c8:	3f 4f       	sbci	r19, 0xFF	; 255
    25ca:	40 e0       	ldi	r20, 0x00	; 0
    25cc:	62 e0       	ldi	r22, 0x02	; 2
    25ce:	c8 01       	movw	r24, r16
    25d0:	80 96       	adiw	r24, 0x20	; 32
    25d2:	0e 94 b1 07 	call	0xf62	; 0xf62 <ExtEERead>
    25d6:	09 81       	ldd	r16, Y+1	; 0x01
    25d8:	1a 81       	ldd	r17, Y+2	; 0x02
    25da:	eb cf       	rjmp	.-42     	; 0x25b2 <FindChild+0x3c>
    //As long as the child is within the parent's range
    while (parent>child){

        //If child's address is higher than the start address, perform search for letter
        if (child>start){
            ExtEERead(child+OFF_BYTEFLDS+VISIBLE_ACL+L_BOILER, 1, GAME, &data[0]);
    25dc:	9e 01       	movw	r18, r28
    25de:	2f 5f       	subi	r18, 0xFF	; 255
    25e0:	3f 4f       	sbci	r19, 0xFF	; 255
    25e2:	40 e0       	ldi	r20, 0x00	; 0
    25e4:	61 e0       	ldi	r22, 0x01	; 1
    25e6:	c8 01       	movw	r24, r16
    25e8:	85 96       	adiw	r24, 0x25	; 37
    25ea:	0e 94 b1 07 	call	0xf62	; 0xf62 <ExtEERead>
            if ((data[0] == 0)||(CheckState(data[0]))) {
    25ee:	89 81       	ldd	r24, Y+1	; 0x01
    25f0:	81 11       	cpse	r24, r1
    25f2:	03 c0       	rjmp	.+6      	; 0x25fa <FindChild+0x84>
                if ((letter == 0)||(CheckLetter(child, letter))) return child;
    25f4:	d1 10       	cpse	r13, r1
    25f6:	06 c0       	rjmp	.+12     	; 0x2604 <FindChild+0x8e>
    25f8:	0e c0       	rjmp	.+28     	; 0x2616 <FindChild+0xa0>
    while (parent>child){

        //If child's address is higher than the start address, perform search for letter
        if (child>start){
            ExtEERead(child+OFF_BYTEFLDS+VISIBLE_ACL+L_BOILER, 1, GAME, &data[0]);
            if ((data[0] == 0)||(CheckState(data[0]))) {
    25fa:	0e 94 68 09 	call	0x12d0	; 0x12d0 <CheckState>
    25fe:	81 11       	cpse	r24, r1
    2600:	f9 cf       	rjmp	.-14     	; 0x25f4 <FindChild+0x7e>
    2602:	e0 cf       	rjmp	.-64     	; 0x25c4 <FindChild+0x4e>
                if ((letter == 0)||(CheckLetter(child, letter))) return child;
    2604:	6d 2d       	mov	r22, r13
    2606:	c8 01       	movw	r24, r16
    2608:	6f df       	rcall	.-290    	; 0x24e8 <CheckLetter>
    260a:	88 23       	and	r24, r24
    260c:	d9 f2       	breq	.-74     	; 0x25c4 <FindChild+0x4e>
    260e:	03 c0       	rjmp	.+6      	; 0x2616 <FindChild+0xa0>

        //Not visible or name not right
        ExtEERead(child+L_BOILER, 2, GAME, &data[0]);
        child = (data[0]<<8|data[1]);    //Next object on child level
        
    } return 0;
    2610:	80 e0       	ldi	r24, 0x00	; 0
    2612:	90 e0       	ldi	r25, 0x00	; 0
    2614:	01 c0       	rjmp	.+2      	; 0x2618 <FindChild+0xa2>
    2616:	c8 01       	movw	r24, r16
}
    2618:	24 96       	adiw	r28, 0x04	; 4
    261a:	cd bf       	out	0x3d, r28	; 61
    261c:	de bf       	out	0x3e, r29	; 62
    261e:	df 91       	pop	r29
    2620:	cf 91       	pop	r28
    2622:	1f 91       	pop	r17
    2624:	0f 91       	pop	r16
    2626:	ff 90       	pop	r15
    2628:	ef 90       	pop	r14
    262a:	df 90       	pop	r13
    262c:	bf 90       	pop	r11
    262e:	af 90       	pop	r10
    2630:	08 95       	ret

00002632 <InpOkChk>:

//Allow only a(A) to z(Z) and 0 to 9 as input
uint8_t InpOkChk(uint8_t test){
    test |= 0x20;
    2632:	80 62       	ori	r24, 0x20	; 32
    if ((test>='a')&&(test<='z')) return 1;
    2634:	9f e9       	ldi	r25, 0x9F	; 159
    2636:	98 0f       	add	r25, r24
    2638:	9a 31       	cpi	r25, 0x1A	; 26
    263a:	38 f0       	brcs	.+14     	; 0x264a <InpOkChk+0x18>
    263c:	90 ed       	ldi	r25, 0xD0	; 208
    263e:	98 0f       	add	r25, r24
    2640:	81 e0       	ldi	r24, 0x01	; 1
    2642:	9a 30       	cpi	r25, 0x0A	; 10
    2644:	18 f0       	brcs	.+6      	; 0x264c <InpOkChk+0x1a>
    2646:	80 e0       	ldi	r24, 0x00	; 0
    2648:	08 95       	ret
    264a:	81 e0       	ldi	r24, 0x01	; 1
    if ((test>='0')&&(test<='9')) return 1;
    return 0;
}
    264c:	08 95       	ret

0000264e <CleanInput>:

//Cleans input of garbage and returns length of cleaned input "o->d2  !\0" becomes "od2\0"
uint8_t CleanInput(uint8_t *data){
    264e:	0f 93       	push	r16
    2650:	1f 93       	push	r17
    2652:	cf 93       	push	r28
    2654:	df 93       	push	r29
    2656:	8c 01       	movw	r16, r24
    uint8_t cnt = 0;
    for (uint8_t x=0; data[x]!=0; ++x){
    2658:	d0 e0       	ldi	r29, 0x00	; 0
    return 0;
}

//Cleans input of garbage and returns length of cleaned input "o->d2  !\0" becomes "od2\0"
uint8_t CleanInput(uint8_t *data){
    uint8_t cnt = 0;
    265a:	c0 e0       	ldi	r28, 0x00	; 0
    for (uint8_t x=0; data[x]!=0; ++x){
    265c:	f8 01       	movw	r30, r16
    265e:	ed 0f       	add	r30, r29
    2660:	f1 1d       	adc	r31, r1
    2662:	80 81       	ld	r24, Z
    2664:	2c 2f       	mov	r18, r28
    2666:	30 e0       	ldi	r19, 0x00	; 0
    2668:	88 23       	and	r24, r24
    266a:	61 f0       	breq	.+24     	; 0x2684 <CleanInput+0x36>
        data[cnt] = data[x];
    266c:	d8 01       	movw	r26, r16
    266e:	a2 0f       	add	r26, r18
    2670:	b3 1f       	adc	r27, r19
    2672:	8c 93       	st	X, r24
        if (data[x] == 0x1b) break; //Escape characters are not supported!
    2674:	80 81       	ld	r24, Z
    2676:	8b 31       	cpi	r24, 0x1B	; 27
    2678:	29 f0       	breq	.+10     	; 0x2684 <CleanInput+0x36>
        if (InpOkChk(data[x])) ++cnt;
    267a:	db df       	rcall	.-74     	; 0x2632 <InpOkChk>
    267c:	81 11       	cpse	r24, r1
    267e:	cf 5f       	subi	r28, 0xFF	; 255
}

//Cleans input of garbage and returns length of cleaned input "o->d2  !\0" becomes "od2\0"
uint8_t CleanInput(uint8_t *data){
    uint8_t cnt = 0;
    for (uint8_t x=0; data[x]!=0; ++x){
    2680:	df 5f       	subi	r29, 0xFF	; 255
    2682:	ec cf       	rjmp	.-40     	; 0x265c <CleanInput+0xe>
        data[cnt] = data[x];
        if (data[x] == 0x1b) break; //Escape characters are not supported!
        if (InpOkChk(data[x])) ++cnt;
    }
    data[cnt] = 0;
    2684:	f8 01       	movw	r30, r16
    2686:	e2 0f       	add	r30, r18
    2688:	f3 1f       	adc	r31, r19
    268a:	10 82       	st	Z, r1
    return cnt;
}
    268c:	8c 2f       	mov	r24, r28
    268e:	df 91       	pop	r29
    2690:	cf 91       	pop	r28
    2692:	1f 91       	pop	r17
    2694:	0f 91       	pop	r16
    2696:	08 95       	ret

00002698 <CheckSend>:

//Send routine, optimized for low memory usage
uint8_t CheckSend(){
    2698:	cf 93       	push	r28
    /*if (effect == 0){
        effect = currObj.byteField[EFFECTS];
    }*/

    //Check if more string(part)s have to be sent to the serial output if previous send operation is completed
    if ((txAddrNow < TXLISTLEN) && serTxDone){
    269a:	20 91 59 3a 	lds	r18, 0x3A59	; 0x803a59 <txAddrNow>
    269e:	28 30       	cpi	r18, 0x08	; 8
    26a0:	08 f0       	brcs	.+2      	; 0x26a4 <CheckSend+0xc>
    26a2:	49 c0       	rjmp	.+146    	; 0x2736 <CheckSend+0x9e>
    26a4:	80 91 09 38 	lds	r24, 0x3809	; 0x803809 <serTxDone>
    26a8:	88 23       	and	r24, r24
    26aa:	09 f4       	brne	.+2      	; 0x26ae <CheckSend+0x16>
    26ac:	44 c0       	rjmp	.+136    	; 0x2736 <CheckSend+0x9e>
        if (txStrLen[txAddrNow] == 0){
    26ae:	82 2f       	mov	r24, r18
    26b0:	90 e0       	ldi	r25, 0x00	; 0
    26b2:	fc 01       	movw	r30, r24
    26b4:	e6 5a       	subi	r30, 0xA6	; 166
    26b6:	f5 4c       	sbci	r31, 0xC5	; 197
    26b8:	e0 81       	ld	r30, Z
    26ba:	e1 11       	cpse	r30, r1
    26bc:	06 c0       	rjmp	.+12     	; 0x26ca <CheckSend+0x32>
            txPart = 0;
    26be:	10 92 18 39 	sts	0x3918, r1	; 0x803918 <txPart.3917>
            txAddrNow = TXLISTLEN;
    26c2:	88 e0       	ldi	r24, 0x08	; 8
    26c4:	80 93 59 3a 	sts	0x3A59, r24	; 0x803a59 <txAddrNow>
    26c8:	2e c0       	rjmp	.+92     	; 0x2726 <CheckSend+0x8e>
        } else if (txPart < txStrLen[txAddrNow]){
    26ca:	50 91 18 39 	lds	r21, 0x3918	; 0x803918 <txPart.3917>
    26ce:	5e 17       	cp	r21, r30
    26d0:	60 f5       	brcc	.+88     	; 0x272a <CheckSend+0x92>
            EEreadLength = txStrLen[txAddrNow]-txPart;
    26d2:	ce 2f       	mov	r28, r30
    26d4:	c5 1b       	sub	r28, r21
    26d6:	c1 32       	cpi	r28, 0x21	; 33
    26d8:	08 f0       	brcs	.+2      	; 0x26dc <CheckSend+0x44>
    26da:	c0 e2       	ldi	r28, 0x20	; 32
            if (EEreadLength>=TXLEN) EEreadLength = TXLEN-1;
            ExtEERead(txAddrList[txAddrNow]+txPart, EEreadLength, txTypeNow, &txBuffer[0]);
    26dc:	88 0f       	add	r24, r24
    26de:	99 1f       	adc	r25, r25
    26e0:	fc 01       	movw	r30, r24
    26e2:	ee 59       	subi	r30, 0x9E	; 158
    26e4:	f5 4c       	sbci	r31, 0xC5	; 197
    26e6:	80 81       	ld	r24, Z
    26e8:	91 81       	ldd	r25, Z+1	; 0x01
    26ea:	26 e0       	ldi	r18, 0x06	; 6
    26ec:	3b e3       	ldi	r19, 0x3B	; 59
    26ee:	40 91 58 3a 	lds	r20, 0x3A58	; 0x803a58 <txTypeNow>
    26f2:	6c 2f       	mov	r22, r28
    26f4:	85 0f       	add	r24, r21
    26f6:	91 1d       	adc	r25, r1
    26f8:	0e 94 b1 07 	call	0xf62	; 0xf62 <ExtEERead>
            txPart += EEreadLength;
    26fc:	80 91 18 39 	lds	r24, 0x3918	; 0x803918 <txPart.3917>
    2700:	8c 0f       	add	r24, r28
    2702:	80 93 18 39 	sts	0x3918, r24	; 0x803918 <txPart.3917>
            txBuffer[EEreadLength] = 0; //Add string terminator after piece to send to plug memory leak
    2706:	ec 2f       	mov	r30, r28
    2708:	f0 e0       	ldi	r31, 0x00	; 0
    270a:	ea 5f       	subi	r30, 0xFA	; 250
    270c:	f4 4c       	sbci	r31, 0xC4	; 196
    270e:	10 82       	st	Z, r1
            if ((txBuffer[0] == 0) && (EEreadLength)) txBuffer[0] = 0xDB; //Block character when data wrong.
    2710:	80 91 06 3b 	lds	r24, 0x3B06	; 0x803b06 <txBuffer>
    2714:	81 11       	cpse	r24, r1
    2716:	03 c0       	rjmp	.+6      	; 0x271e <CheckSend+0x86>
    2718:	8b ed       	ldi	r24, 0xDB	; 219
    271a:	80 93 06 3b 	sts	0x3B06, r24	; 0x803b06 <txBuffer>
            SerSend(&txBuffer[0]);
    271e:	86 e0       	ldi	r24, 0x06	; 6
    2720:	9b e3       	ldi	r25, 0x3B	; 59
    2722:	0e 94 d3 07 	call	0xfa6	; 0xfa6 <SerSend>
        } else {
            txPart = 0;
            ++txAddrNow;
        }
    } else if (serTxDone) return 0; //All is sent!
    return 1; //Still sending, do not change the data in the tx variables
    2726:	81 e0       	ldi	r24, 0x01	; 1
    2728:	0b c0       	rjmp	.+22     	; 0x2740 <CheckSend+0xa8>
            txPart += EEreadLength;
            txBuffer[EEreadLength] = 0; //Add string terminator after piece to send to plug memory leak
            if ((txBuffer[0] == 0) && (EEreadLength)) txBuffer[0] = 0xDB; //Block character when data wrong.
            SerSend(&txBuffer[0]);
        } else {
            txPart = 0;
    272a:	10 92 18 39 	sts	0x3918, r1	; 0x803918 <txPart.3917>
            ++txAddrNow;
    272e:	2f 5f       	subi	r18, 0xFF	; 255
    2730:	20 93 59 3a 	sts	0x3A59, r18	; 0x803a59 <txAddrNow>
    2734:	f8 cf       	rjmp	.-16     	; 0x2726 <CheckSend+0x8e>
        }
    } else if (serTxDone) return 0; //All is sent!
    2736:	90 91 09 38 	lds	r25, 0x3809	; 0x803809 <serTxDone>
    273a:	81 e0       	ldi	r24, 0x01	; 1
    273c:	91 11       	cpse	r25, r1
    273e:	80 e0       	ldi	r24, 0x00	; 0
    return 1; //Still sending, do not change the data in the tx variables
}
    2740:	cf 91       	pop	r28
    2742:	08 95       	ret

00002744 <CheckResponse>:

//Send another part of the response and play the effect afterwards
uint8_t CheckResponse(){
    2744:	cf 93       	push	r28
    2746:	df 93       	push	r29
    static uint8_t number = 0;
    if (responseList){
    2748:	c0 91 2c 39 	lds	r28, 0x392C	; 0x80392c <responseList>
    274c:	cc 23       	and	r28, r28
    274e:	b1 f1       	breq	.+108    	; 0x27bc <CheckResponse+0x78>
        --responseList;
    2750:	c1 50       	subi	r28, 0x01	; 1
    2752:	c0 93 2c 39 	sts	0x392C, r28	; 0x80392c <responseList>
        if (reactStr[0][number] == CURR_LOC) {
    2756:	d0 91 17 39 	lds	r29, 0x3917	; 0x803917 <number.3921>
    275a:	2d 2f       	mov	r18, r29
    275c:	30 e0       	ldi	r19, 0x00	; 0
    275e:	f9 01       	movw	r30, r18
    2760:	ee 0f       	add	r30, r30
    2762:	ff 1f       	adc	r31, r31
    2764:	e3 5d       	subi	r30, 0xD3	; 211
    2766:	f6 4c       	sbci	r31, 0xC6	; 198
    2768:	80 81       	ld	r24, Z
    276a:	91 81       	ldd	r25, Z+1	; 0x01
    276c:	80 3f       	cpi	r24, 0xF0	; 240
    276e:	4f ef       	ldi	r20, 0xFF	; 255
    2770:	94 07       	cpc	r25, r20
    2772:	51 f4       	brne	.+20     	; 0x2788 <CheckResponse+0x44>
            PrepareSending(currObj.addrStr[NAME], currObj.lenStr[NAME], GAME);
    2774:	60 91 47 3a 	lds	r22, 0x3A47	; 0x803a47 <currObj+0x1a>
    2778:	70 91 48 3a 	lds	r23, 0x3A48	; 0x803a48 <currObj+0x1b>
    277c:	40 e0       	ldi	r20, 0x00	; 0
    277e:	80 91 39 3a 	lds	r24, 0x3A39	; 0x803a39 <currObj+0xc>
    2782:	90 91 3a 3a 	lds	r25, 0x3A3A	; 0x803a3a <currObj+0xd>
    2786:	0d c0       	rjmp	.+26     	; 0x27a2 <CheckResponse+0x5e>
        } else {
            PrepareSending(reactStr[0][number], reactStr[1][number], reactStr[2][number]);
    2788:	d9 01       	movw	r26, r18
    278a:	aa 0f       	add	r26, r26
    278c:	bb 1f       	adc	r27, r27
    278e:	a3 55       	subi	r26, 0x53	; 83
    2790:	b6 4c       	sbci	r27, 0xC6	; 198
    2792:	22 0f       	add	r18, r18
    2794:	33 1f       	adc	r19, r19
    2796:	f9 01       	movw	r30, r18
    2798:	e3 59       	subi	r30, 0x93	; 147
    279a:	f6 4c       	sbci	r31, 0xC6	; 198
    279c:	60 81       	ld	r22, Z
    279e:	71 81       	ldd	r23, Z+1	; 0x01
    27a0:	4c 91       	ld	r20, X
    27a2:	70 dd       	rcall	.-1312   	; 0x2284 <PrepareSending>
        }
        ++number;
    27a4:	df 5f       	subi	r29, 0xFF	; 255
    27a6:	d0 93 17 39 	sts	0x3917, r29	; 0x803917 <number.3921>

        if (responseList == 0) {
    27aa:	c1 11       	cpse	r28, r1
    27ac:	06 c0       	rjmp	.+12     	; 0x27ba <CheckResponse+0x76>
            //effect = currObj.byteField[EFFECTS];
            RXCNT = 0;
    27ae:	1d ba       	out	0x1d, r1	; 29
            serRxDone = 0;
    27b0:	10 92 55 38 	sts	0x3855, r1	; 0x803855 <serRxDone>
            number = 0;
    27b4:	10 92 17 39 	sts	0x3917, r1	; 0x803917 <number.3921>
    27b8:	01 c0       	rjmp	.+2      	; 0x27bc <CheckResponse+0x78>
            return 0;
        }
        return 1;
    27ba:	c1 e0       	ldi	r28, 0x01	; 1
    }
    return 0;
}
    27bc:	8c 2f       	mov	r24, r28
    27be:	df 91       	pop	r29
    27c0:	cf 91       	pop	r28
    27c2:	08 95       	ret

000027c4 <CheckInput>:

//User input check (and validation)
uint8_t CheckInput(uint8_t *data){
    27c4:	a9 e0       	ldi	r26, 0x09	; 9
    27c6:	b0 e0       	ldi	r27, 0x00	; 0
    27c8:	e8 ee       	ldi	r30, 0xE8	; 232
    27ca:	f3 e1       	ldi	r31, 0x13	; 19
    27cc:	0c 94 60 1f 	jmp	0x3ec0	; 0x3ec0 <__prologue_saves__+0x6>
    27d0:	8c 01       	movw	r16, r24
    
    //Load game data after reboot
    if (currDepth == 0xff) {
    27d2:	80 91 3e 38 	lds	r24, 0x383E	; 0x80383e <currDepth>
    27d6:	8f 3f       	cpi	r24, 0xFF	; 255
    27d8:	49 f4       	brne	.+18     	; 0x27ec <CheckInput+0x28>
        //Start at first location
        PopulateObject(route[0], &currObj);
    27da:	6d e2       	ldi	r22, 0x2D	; 45
    27dc:	7a e3       	ldi	r23, 0x3A	; 58
    27de:	80 91 ed 39 	lds	r24, 0x39ED	; 0x8039ed <route>
    27e2:	90 91 ee 39 	lds	r25, 0x39EE	; 0x8039ee <route+0x1>
    27e6:	07 de       	rcall	.-1010   	; 0x23f6 <PopulateObject>
        currDepth = 0;
    27e8:	10 92 3e 38 	sts	0x383E, r1	; 0x80383e <currDepth>
    }

    if (serRxDone){
    27ec:	80 91 55 38 	lds	r24, 0x3855	; 0x803855 <serRxDone>
    27f0:	88 23       	and	r24, r24
    27f2:	09 f4       	brne	.+2      	; 0x27f6 <CheckInput+0x32>
    27f4:	c0 c1       	rjmp	.+896    	; 0x2b76 <CheckInput+0x3b2>

        //Special input requested from user by game
        if (specialInput[0]){
    27f6:	80 91 1c 39 	lds	r24, 0x391C	; 0x80391c <specialInput>
    27fa:	88 23       	and	r24, r24
    27fc:	09 f4       	brne	.+2      	; 0x2800 <CheckInput+0x3c>
    27fe:	4f c0       	rjmp	.+158    	; 0x289e <CheckInput+0xda>
            specialPassed = 0;
    2800:	10 92 1b 39 	sts	0x391B, r1	; 0x80391b <specialPassed>
            data[0] = 'a';
    2804:	81 e6       	ldi	r24, 0x61	; 97
    2806:	f8 01       	movw	r30, r16
    2808:	80 83       	st	Z, r24
            
            //Normal code challenge
            if (StartsWith((uint8_t *)&serRx[0], &specialInput[0])) {
    280a:	6c e1       	ldi	r22, 0x1C	; 28
    280c:	79 e3       	ldi	r23, 0x39	; 57
    280e:	87 e8       	ldi	r24, 0x87	; 135
    2810:	9a e3       	ldi	r25, 0x3A	; 58
    2812:	1e dd       	rcall	.-1476   	; 0x2250 <StartsWith>
    2814:	f8 2e       	mov	r15, r24
    2816:	88 23       	and	r24, r24
    2818:	21 f0       	breq	.+8      	; 0x2822 <CheckInput+0x5e>
                specialPassed = 1;
    281a:	81 e0       	ldi	r24, 0x01	; 1
    281c:	80 93 1b 39 	sts	0x391B, r24	; 0x80391b <specialPassed>
    2820:	04 c0       	rjmp	.+8      	; 0x282a <CheckInput+0x66>

            //Special challenge 1
            } else if ((specialInput[0] == '1')&&(specialInput[2] == 0)) {
    2822:	80 91 1c 39 	lds	r24, 0x391C	; 0x80391c <specialInput>
    2826:	81 33       	cpi	r24, 0x31	; 49
    2828:	11 f0       	breq	.+4      	; 0x282e <CheckInput+0x6a>
                responseList = SetStandardResponse((3*MAX_CHEATS));
                return 1;
            }
        } 
        //Data received, but not any of the commands above
        return 0;
    282a:	f1 2c       	mov	r15, r1
    282c:	a6 c1       	rjmp	.+844    	; 0x2b7a <CheckInput+0x3b6>
            //Normal code challenge
            if (StartsWith((uint8_t *)&serRx[0], &specialInput[0])) {
                specialPassed = 1;

            //Special challenge 1
            } else if ((specialInput[0] == '1')&&(specialInput[2] == 0)) {
    282e:	80 91 1e 39 	lds	r24, 0x391E	; 0x80391e <specialInput+0x2>
    2832:	81 11       	cpse	r24, r1
    2834:	fa cf       	rjmp	.-12     	; 0x282a <CheckInput+0x66>
                uint8_t inputLen = CleanInput((uint8_t *)&serRx[0]);
    2836:	87 e8       	ldi	r24, 0x87	; 135
    2838:	9a e3       	ldi	r25, 0x3A	; 58
    283a:	09 df       	rcall	.-494    	; 0x264e <CleanInput>
                specialPassed = 2;
    283c:	92 e0       	ldi	r25, 0x02	; 2
    283e:	90 93 1b 39 	sts	0x391B, r25	; 0x80391b <specialPassed>
                data[1] = 0;
    2842:	f8 01       	movw	r30, r16
    2844:	11 82       	std	Z+1, r1	; 0x01

                if (inputLen >= 2) {
    2846:	82 30       	cpi	r24, 0x02	; 2
    2848:	80 f3       	brcs	.-32     	; 0x282a <CheckInput+0x66>
                    if ((serRx[0] >= '1') && (serRx[0] <= '4')) {
    284a:	80 91 87 3a 	lds	r24, 0x3A87	; 0x803a87 <serRx>
    284e:	81 33       	cpi	r24, 0x31	; 49
    2850:	60 f3       	brcs	.-40     	; 0x282a <CheckInput+0x66>
    2852:	80 91 87 3a 	lds	r24, 0x3A87	; 0x803a87 <serRx>
    2856:	85 33       	cpi	r24, 0x35	; 53
    2858:	40 f7       	brcc	.-48     	; 0x282a <CheckInput+0x66>
                        serRx[1] |= 0x20;
    285a:	80 91 88 3a 	lds	r24, 0x3A88	; 0x803a88 <serRx+0x1>
    285e:	80 62       	ori	r24, 0x20	; 32
    2860:	80 93 88 3a 	sts	0x3A88, r24	; 0x803a88 <serRx+0x1>
                        if ((serRx[1] == 'a')||(serRx[1] == 'e')||(serRx[1] == 'f')||(serRx[1] == 'w')) {
    2864:	80 91 88 3a 	lds	r24, 0x3A88	; 0x803a88 <serRx+0x1>
    2868:	81 36       	cpi	r24, 0x61	; 97
    286a:	61 f0       	breq	.+24     	; 0x2884 <CheckInput+0xc0>
    286c:	80 91 88 3a 	lds	r24, 0x3A88	; 0x803a88 <serRx+0x1>
    2870:	85 36       	cpi	r24, 0x65	; 101
    2872:	41 f0       	breq	.+16     	; 0x2884 <CheckInput+0xc0>
    2874:	80 91 88 3a 	lds	r24, 0x3A88	; 0x803a88 <serRx+0x1>
    2878:	86 36       	cpi	r24, 0x66	; 102
    287a:	21 f0       	breq	.+8      	; 0x2884 <CheckInput+0xc0>
    287c:	80 91 88 3a 	lds	r24, 0x3A88	; 0x803a88 <serRx+0x1>
    2880:	87 37       	cpi	r24, 0x77	; 119
    2882:	99 f6       	brne	.-90     	; 0x282a <CheckInput+0x66>
                            data[1] = specialInput[1]+0x11;
    2884:	80 91 1d 39 	lds	r24, 0x391D	; 0x80391d <specialInput+0x1>
    2888:	8f 5e       	subi	r24, 0xEF	; 239
    288a:	f8 01       	movw	r30, r16
    288c:	81 83       	std	Z+1, r24	; 0x01
                            data[2] = serRx[0];
    288e:	80 91 87 3a 	lds	r24, 0x3A87	; 0x803a87 <serRx>
    2892:	82 83       	std	Z+2, r24	; 0x02
                            data[3] = serRx[1];
    2894:	80 91 88 3a 	lds	r24, 0x3A88	; 0x803a88 <serRx+0x1>
    2898:	83 83       	std	Z+3, r24	; 0x03
                            data[4] = 0;
    289a:	14 82       	std	Z+4, r1	; 0x04
    289c:	6e c1       	rjmp	.+732    	; 0x2b7a <CheckInput+0x3b6>
        } else {
      
            //SetResponse(0, A_LF, 4, TEASER);

            //Change status bit
            if ((serRx[0] == '#')&&(RXCNT == 6)){
    289e:	80 91 87 3a 	lds	r24, 0x3A87	; 0x803a87 <serRx>
    28a2:	83 32       	cpi	r24, 0x23	; 35
    28a4:	89 f5       	brne	.+98     	; 0x2908 <CheckInput+0x144>
    28a6:	8d b3       	in	r24, 0x1d	; 29
    28a8:	86 30       	cpi	r24, 0x06	; 6
    28aa:	71 f5       	brne	.+92     	; 0x2908 <CheckInput+0x144>
    28ac:	81 e0       	ldi	r24, 0x01	; 1
    28ae:	90 e0       	ldi	r25, 0x00	; 0
    28b0:	10 e0       	ldi	r17, 0x00	; 0
                uint8_t bitNr = 0;

                for (uint8_t x=1; x<4; ++x) {
                    serRx[x] -= '0';
    28b2:	fc 01       	movw	r30, r24
    28b4:	e9 57       	subi	r30, 0x79	; 121
    28b6:	f5 4c       	sbci	r31, 0xC5	; 197
    28b8:	20 81       	ld	r18, Z
    28ba:	20 53       	subi	r18, 0x30	; 48
    28bc:	20 83       	st	Z, r18
                    bitNr *= 10;
    28be:	11 0f       	add	r17, r17
    28c0:	21 2f       	mov	r18, r17
    28c2:	22 0f       	add	r18, r18
    28c4:	22 0f       	add	r18, r18
    28c6:	12 0f       	add	r17, r18
                    if (serRx[1] > 2) break;
    28c8:	20 91 88 3a 	lds	r18, 0x3A88	; 0x803a88 <serRx+0x1>
    28cc:	23 30       	cpi	r18, 0x03	; 3
    28ce:	48 f4       	brcc	.+18     	; 0x28e2 <CheckInput+0x11e>
                    if (serRx[x] < 10) {
    28d0:	20 81       	ld	r18, Z
    28d2:	2a 30       	cpi	r18, 0x0A	; 10
    28d4:	b8 f4       	brcc	.+46     	; 0x2904 <CheckInput+0x140>
                        bitNr += serRx[x];
    28d6:	20 81       	ld	r18, Z
    28d8:	12 0f       	add	r17, r18
    28da:	01 96       	adiw	r24, 0x01	; 1

            //Change status bit
            if ((serRx[0] == '#')&&(RXCNT == 6)){
                uint8_t bitNr = 0;

                for (uint8_t x=1; x<4; ++x) {
    28dc:	84 30       	cpi	r24, 0x04	; 4
    28de:	91 05       	cpc	r25, r1
    28e0:	41 f7       	brne	.-48     	; 0x28b2 <CheckInput+0xee>
                        continue;
                    }
                    bitNr = 0;
                    break;
                }
                if ((bitNr)&&(bitNr!=128)) {
    28e2:	81 2f       	mov	r24, r17
    28e4:	8f 77       	andi	r24, 0x7F	; 127
    28e6:	71 f0       	breq	.+28     	; 0x2904 <CheckInput+0x140>
                    if (Cheat(0xff-bitNr, serRx[4]<<8|serRx[5])) UpdateState(bitNr);
    28e8:	80 91 8b 3a 	lds	r24, 0x3A8B	; 0x803a8b <serRx+0x4>
    28ec:	60 91 8c 3a 	lds	r22, 0x3A8C	; 0x803a8c <serRx+0x5>
    28f0:	70 e0       	ldi	r23, 0x00	; 0
    28f2:	78 2b       	or	r23, r24
    28f4:	81 2f       	mov	r24, r17
    28f6:	80 95       	com	r24
    28f8:	5b dc       	rcall	.-1866   	; 0x21b0 <Cheat>
    28fa:	88 23       	and	r24, r24
    28fc:	19 f0       	breq	.+6      	; 0x2904 <CheckInput+0x140>
    28fe:	81 2f       	mov	r24, r17
    2900:	0e 94 47 09 	call	0x128e	; 0x128e <UpdateState>
                }
                
                responseList = SetStandardResponse(1);
    2904:	81 e0       	ldi	r24, 0x01	; 1
    2906:	34 c1       	rjmp	.+616    	; 0x2b70 <CheckInput+0x3ac>
    2908:	d8 01       	movw	r26, r16
    290a:	80 e0       	ldi	r24, 0x00	; 0
    290c:	90 e0       	ldi	r25, 0x00	; 0
                return 1;            
            }
            
            //Read up to the \0 character and convert to lower case.
            for (uint8_t x=0; x<RXLEN; ++x){
                if ((serRx[x]<'A')||(serRx[x]>'Z')) data[x]=serRx[x]; else data[x]=serRx[x]|0x20;
    290e:	fc 01       	movw	r30, r24
    2910:	e9 57       	subi	r30, 0x79	; 121
    2912:	f5 4c       	sbci	r31, 0xC5	; 197
    2914:	20 81       	ld	r18, Z
    2916:	21 34       	cpi	r18, 0x41	; 65
    2918:	18 f0       	brcs	.+6      	; 0x2920 <CheckInput+0x15c>
    291a:	20 81       	ld	r18, Z
    291c:	2b 35       	cpi	r18, 0x5B	; 91
    291e:	10 f0       	brcs	.+4      	; 0x2924 <CheckInput+0x160>
    2920:	20 81       	ld	r18, Z
    2922:	02 c0       	rjmp	.+4      	; 0x2928 <CheckInput+0x164>
    2924:	20 81       	ld	r18, Z
    2926:	20 62       	ori	r18, 0x20	; 32
    2928:	2c 93       	st	X, r18
                if (serRx[x] == 0) {
    292a:	20 81       	ld	r18, Z
    292c:	21 11       	cpse	r18, r1
    292e:	05 c0       	rjmp	.+10     	; 0x293a <CheckInput+0x176>
                    data[x] = 0;
    2930:	f8 01       	movw	r30, r16
    2932:	e8 0f       	add	r30, r24
    2934:	f1 1d       	adc	r31, r1
    2936:	10 82       	st	Z, r1
                    break;
    2938:	05 c0       	rjmp	.+10     	; 0x2944 <CheckInput+0x180>
    293a:	01 96       	adiw	r24, 0x01	; 1
    293c:	11 96       	adiw	r26, 0x01	; 1
                
                return 1;            
            }
            
            //Read up to the \0 character and convert to lower case.
            for (uint8_t x=0; x<RXLEN; ++x){
    293e:	81 34       	cpi	r24, 0x41	; 65
    2940:	91 05       	cpc	r25, r1
    2942:	29 f7       	brne	.-54     	; 0x290e <CheckInput+0x14a>
                    break;
                }
            }

            //No text
            if (serRx[0] == 0){
    2944:	80 91 87 3a 	lds	r24, 0x3A87	; 0x803a87 <serRx>
                data[0] = 0;
    2948:	f8 01       	movw	r30, r16
                    break;
                }
            }

            //No text
            if (serRx[0] == 0){
    294a:	81 11       	cpse	r24, r1
    294c:	05 c0       	rjmp	.+10     	; 0x2958 <CheckInput+0x194>
                data[0] = 0;
    294e:	10 82       	st	Z, r1
                RXCNT = 0;
    2950:	1d ba       	out	0x1d, r1	; 29
                serRxDone = 0;
    2952:	10 92 55 38 	sts	0x3855, r1	; 0x803855 <serRxDone>
    2956:	0f c1       	rjmp	.+542    	; 0x2b76 <CheckInput+0x3b2>
                return 1;
            }

            //Help text
            if ((data[0] == '?')||(data[0] == 'h')){
    2958:	80 81       	ld	r24, Z
    295a:	8f 33       	cpi	r24, 0x3F	; 63
    295c:	11 f0       	breq	.+4      	; 0x2962 <CheckInput+0x19e>
    295e:	88 36       	cpi	r24, 0x68	; 104
    2960:	49 f4       	brne	.+18     	; 0x2974 <CheckInput+0x1b0>
    return 0;
}

//
void SetResponse(uint8_t number, uint16_t address, uint16_t length, uint8_t type){
    reactStr[0][number]=address;
    2962:	83 e9       	ldi	r24, 0x93	; 147
    2964:	9b e7       	ldi	r25, 0x7B	; 123
    2966:	80 93 2f 39 	sts	0x392F, r24	; 0x80392f <reactStr+0x2>
    296a:	90 93 30 39 	sts	0x3930, r25	; 0x803930 <reactStr+0x3>
    reactStr[1][number]=length;
    296e:	8d e6       	ldi	r24, 0x6D	; 109
    2970:	94 e0       	ldi	r25, 0x04	; 4
    2972:	59 c0       	rjmp	.+178    	; 0x2a26 <CheckInput+0x262>
                responseList = SetStandardResponse(2);
                return 1;
            }        
        
            //Alphabet text
            if (data[0] == 'a'){
    2974:	81 36       	cpi	r24, 0x61	; 97
    2976:	49 f4       	brne	.+18     	; 0x298a <CheckInput+0x1c6>
    return 0;
}

//
void SetResponse(uint8_t number, uint16_t address, uint16_t length, uint8_t type){
    reactStr[0][number]=address;
    2978:	8e e6       	ldi	r24, 0x6E	; 110
    297a:	9a e7       	ldi	r25, 0x7A	; 122
    297c:	80 93 2f 39 	sts	0x392F, r24	; 0x80392f <reactStr+0x2>
    2980:	90 93 30 39 	sts	0x3930, r25	; 0x803930 <reactStr+0x3>
    reactStr[1][number]=length;
    2984:	85 e2       	ldi	r24, 0x25	; 37
    2986:	91 e0       	ldi	r25, 0x01	; 1
    2988:	4e c0       	rjmp	.+156    	; 0x2a26 <CheckInput+0x262>
                responseList = SetStandardResponse(2);
                return 1;
            }

            //Whoami text
            if (data[0] == 'w'){
    298a:	87 37       	cpi	r24, 0x77	; 119
    298c:	09 f0       	breq	.+2      	; 0x2990 <CheckInput+0x1cc>
    298e:	41 c0       	rjmp	.+130    	; 0x2a12 <CheckInput+0x24e>
    return 0;
}

//
void SetResponse(uint8_t number, uint16_t address, uint16_t length, uint8_t type){
    reactStr[0][number]=address;
    2990:	8d e8       	ldi	r24, 0x8D	; 141
    2992:	96 e7       	ldi	r25, 0x76	; 118
    2994:	80 93 2f 39 	sts	0x392F, r24	; 0x80392f <reactStr+0x2>
    2998:	90 93 30 39 	sts	0x3930, r25	; 0x803930 <reactStr+0x3>
    reactStr[1][number]=length;
    299c:	82 e1       	ldi	r24, 0x12	; 18
    299e:	90 e0       	ldi	r25, 0x00	; 0
    29a0:	80 93 6f 39 	sts	0x396F, r24	; 0x80396f <reactStr+0x42>
    29a4:	90 93 70 39 	sts	0x3970, r25	; 0x803970 <reactStr+0x43>
    reactStr[2][number]=type;
    29a8:	21 e0       	ldi	r18, 0x01	; 1
    29aa:	30 e0       	ldi	r19, 0x00	; 0
    29ac:	20 93 af 39 	sts	0x39AF, r18	; 0x8039af <reactStr+0x82>
    29b0:	30 93 b0 39 	sts	0x39B0, r19	; 0x8039b0 <reactStr+0x83>
            }

            //Whoami text
            if (data[0] == 'w'){
                SetResponse(1, A_HELLO, L_HELLO, TEASER);
                SetResponse(2, names[0][whoami-1], names[1][whoami-1], TEASER);
    29b4:	80 91 4d 38 	lds	r24, 0x384D	; 0x80384d <whoami>
    29b8:	90 e0       	ldi	r25, 0x00	; 0
    29ba:	fc 01       	movw	r30, r24
    29bc:	ee 0f       	add	r30, r30
    29be:	ff 1f       	adc	r31, r31
    29c0:	ea 55       	subi	r30, 0x5A	; 90
    29c2:	f0 44       	sbci	r31, 0x40	; 64
    29c4:	40 81       	ld	r20, Z
    29c6:	51 81       	ldd	r21, Z+1	; 0x01
    29c8:	88 0f       	add	r24, r24
    29ca:	99 1f       	adc	r25, r25
    29cc:	fc 01       	movw	r30, r24
    29ce:	e2 56       	subi	r30, 0x62	; 98
    29d0:	f0 44       	sbci	r31, 0x40	; 64
    return 0;
}

//
void SetResponse(uint8_t number, uint16_t address, uint16_t length, uint8_t type){
    reactStr[0][number]=address;
    29d2:	80 81       	ld	r24, Z
    29d4:	91 81       	ldd	r25, Z+1	; 0x01
    29d6:	80 93 31 39 	sts	0x3931, r24	; 0x803931 <reactStr+0x4>
    29da:	90 93 32 39 	sts	0x3932, r25	; 0x803932 <reactStr+0x5>
    reactStr[1][number]=length;
    29de:	40 93 71 39 	sts	0x3971, r20	; 0x803971 <reactStr+0x44>
    29e2:	50 93 72 39 	sts	0x3972, r21	; 0x803972 <reactStr+0x45>
    reactStr[2][number]=type;
    29e6:	20 93 b1 39 	sts	0x39B1, r18	; 0x8039b1 <reactStr+0x84>
    29ea:	30 93 b2 39 	sts	0x39B2, r19	; 0x8039b2 <reactStr+0x85>
    return 0;
}

//
void SetResponse(uint8_t number, uint16_t address, uint16_t length, uint8_t type){
    reactStr[0][number]=address;
    29ee:	8f e5       	ldi	r24, 0x5F	; 95
    29f0:	96 e7       	ldi	r25, 0x76	; 118
    29f2:	80 93 33 39 	sts	0x3933, r24	; 0x803933 <reactStr+0x6>
    29f6:	90 93 34 39 	sts	0x3934, r25	; 0x803934 <reactStr+0x7>
    reactStr[1][number]=length;
    29fa:	8a e1       	ldi	r24, 0x1A	; 26
    29fc:	90 e0       	ldi	r25, 0x00	; 0
    29fe:	80 93 73 39 	sts	0x3973, r24	; 0x803973 <reactStr+0x46>
    2a02:	90 93 74 39 	sts	0x3974, r25	; 0x803974 <reactStr+0x47>
    reactStr[2][number]=type;
    2a06:	20 93 b3 39 	sts	0x39B3, r18	; 0x8039b3 <reactStr+0x86>
    2a0a:	30 93 b4 39 	sts	0x39B4, r19	; 0x8039b4 <reactStr+0x87>
            //Whoami text
            if (data[0] == 'w'){
                SetResponse(1, A_HELLO, L_HELLO, TEASER);
                SetResponse(2, names[0][whoami-1], names[1][whoami-1], TEASER);
                SetResponse(3, A_PLEASED, L_PLEASED, TEASER);
                responseList = SetStandardResponse(4);
    2a0e:	84 e0       	ldi	r24, 0x04	; 4
    2a10:	af c0       	rjmp	.+350    	; 0x2b70 <CheckInput+0x3ac>
                return 1;
            }

            //Quit text
            if (data[0] == 'q'){
    2a12:	81 37       	cpi	r24, 0x71	; 113
    2a14:	a1 f4       	brne	.+40     	; 0x2a3e <CheckInput+0x27a>
    return 0;
}

//
void SetResponse(uint8_t number, uint16_t address, uint16_t length, uint8_t type){
    reactStr[0][number]=address;
    2a16:	80 e0       	ldi	r24, 0x00	; 0
    2a18:	9a e7       	ldi	r25, 0x7A	; 122
    2a1a:	80 93 2f 39 	sts	0x392F, r24	; 0x80392f <reactStr+0x2>
    2a1e:	90 93 30 39 	sts	0x3930, r25	; 0x803930 <reactStr+0x3>
    reactStr[1][number]=length;
    2a22:	85 e5       	ldi	r24, 0x55	; 85
    2a24:	90 e0       	ldi	r25, 0x00	; 0
    2a26:	80 93 6f 39 	sts	0x396F, r24	; 0x80396f <reactStr+0x42>
    2a2a:	90 93 70 39 	sts	0x3970, r25	; 0x803970 <reactStr+0x43>
    reactStr[2][number]=type;
    2a2e:	81 e0       	ldi	r24, 0x01	; 1
    2a30:	90 e0       	ldi	r25, 0x00	; 0
    2a32:	80 93 af 39 	sts	0x39AF, r24	; 0x8039af <reactStr+0x82>
    2a36:	90 93 b0 39 	sts	0x39B0, r25	; 0x8039b0 <reactStr+0x83>
            }

            //Quit text
            if (data[0] == 'q'){
                SetResponse(1, A_QUIT, L_QUIT, TEASER);
                responseList = SetStandardResponse(2);
    2a3a:	82 e0       	ldi	r24, 0x02	; 2
                return 1;
            }

            //Fake cheat = reset badge!
            if (StartsWith(&data[0], "iddqd")){
    2a3c:	99 c0       	rjmp	.+306    	; 0x2b70 <CheckInput+0x3ac>
    2a3e:	6c e7       	ldi	r22, 0x7C	; 124
    2a40:	7f eb       	ldi	r23, 0xBF	; 191
    2a42:	c8 01       	movw	r24, r16
    2a44:	05 dc       	rcall	.-2038   	; 0x2250 <StartsWith>
    2a46:	88 23       	and	r24, r24
    2a48:	d1 f0       	breq	.+52     	; 0x2a7e <CheckInput+0x2ba>
            
                //Wipe, but not the cheat data, hidden easter egg in ext. eeprom. ;)
                WipeAfterBoot(0);
    2a4a:	80 e0       	ldi	r24, 0x00	; 0
    2a4c:	0e 94 87 09 	call	0x130e	; 0x130e <WipeAfterBoot>
                SaveGameState();
    2a50:	0e 94 c0 08 	call	0x1180	; 0x1180 <SaveGameState>

                uint8_t cheat[] = "Gotcha! ";
    2a54:	89 e0       	ldi	r24, 0x09	; 9
    2a56:	ef e8       	ldi	r30, 0x8F	; 143
    2a58:	ff eb       	ldi	r31, 0xBF	; 191
    2a5a:	de 01       	movw	r26, r28
    2a5c:	11 96       	adiw	r26, 0x01	; 1
    2a5e:	01 90       	ld	r0, Z+
    2a60:	0d 92       	st	X+, r0
    2a62:	8a 95       	dec	r24
    2a64:	e1 f7       	brne	.-8      	; 0x2a5e <CheckInput+0x29a>
                SerSpeed(60);
    2a66:	8c e3       	ldi	r24, 0x3C	; 60
    2a68:	0e 94 e4 07 	call	0xfc8	; 0xfc8 <SerSpeed>
                while(1){
                    if (serTxDone) SerSend(&cheat[0]);
    2a6c:	80 91 09 38 	lds	r24, 0x3809	; 0x803809 <serTxDone>
    2a70:	88 23       	and	r24, r24
    2a72:	e1 f3       	breq	.-8      	; 0x2a6c <CheckInput+0x2a8>
    2a74:	ce 01       	movw	r24, r28
    2a76:	01 96       	adiw	r24, 0x01	; 1
    2a78:	0e 94 d3 07 	call	0xfa6	; 0xfa6 <SerSend>
                }
            }
            
            //Cheat reset
            if (StartsWith(&data[0], "ikillu")){
    2a7c:	f7 cf       	rjmp	.-18     	; 0x2a6c <CheckInput+0x2a8>
    2a7e:	62 e8       	ldi	r22, 0x82	; 130
    2a80:	7f eb       	ldi	r23, 0xBF	; 191
    2a82:	c8 01       	movw	r24, r16
    2a84:	e5 db       	rcall	.-2102   	; 0x2250 <StartsWith>
    2a86:	88 23       	and	r24, r24
    2a88:	d1 f0       	breq	.+52     	; 0x2abe <CheckInput+0x2fa>
                
                //Full wipe, including cheats, for badge.team use only!
                WipeAfterBoot(1);
    2a8a:	81 e0       	ldi	r24, 0x01	; 1
    2a8c:	0e 94 87 09 	call	0x130e	; 0x130e <WipeAfterBoot>
                SaveGameState();
    2a90:	0e 94 c0 08 	call	0x1180	; 0x1180 <SaveGameState>

                uint8_t cheat[] = "Reset! ";
    2a94:	88 e0       	ldi	r24, 0x08	; 8
    2a96:	e8 e9       	ldi	r30, 0x98	; 152
    2a98:	ff eb       	ldi	r31, 0xBF	; 191
    2a9a:	de 01       	movw	r26, r28
    2a9c:	11 96       	adiw	r26, 0x01	; 1
    2a9e:	01 90       	ld	r0, Z+
    2aa0:	0d 92       	st	X+, r0
    2aa2:	8a 95       	dec	r24
    2aa4:	e1 f7       	brne	.-8      	; 0x2a9e <CheckInput+0x2da>
                SerSpeed(60);
    2aa6:	8c e3       	ldi	r24, 0x3C	; 60
    2aa8:	0e 94 e4 07 	call	0xfc8	; 0xfc8 <SerSpeed>
                while(1){
                    if (serTxDone) SerSend(&cheat[0]);
    2aac:	80 91 09 38 	lds	r24, 0x3809	; 0x803809 <serTxDone>
    2ab0:	88 23       	and	r24, r24
    2ab2:	e1 f3       	breq	.-8      	; 0x2aac <CheckInput+0x2e8>
    2ab4:	ce 01       	movw	r24, r28
    2ab6:	01 96       	adiw	r24, 0x01	; 1
    2ab8:	0e 94 d3 07 	call	0xfa6	; 0xfa6 <SerSend>
                }
            }

            //Show used cheat codes
            if (StartsWith(&data[0], "cheat")){
    2abc:	f7 cf       	rjmp	.-18     	; 0x2aac <CheckInput+0x2e8>
    2abe:	69 e8       	ldi	r22, 0x89	; 137
    2ac0:	7f eb       	ldi	r23, 0xBF	; 191
    2ac2:	c8 01       	movw	r24, r16
    2ac4:	c5 db       	rcall	.-2166   	; 0x2250 <StartsWith>
    2ac6:	88 23       	and	r24, r24
    2ac8:	09 f4       	brne	.+2      	; 0x2acc <CheckInput+0x308>
    2aca:	af ce       	rjmp	.-674    	; 0x282a <CheckInput+0x66>
    2acc:	8d e2       	ldi	r24, 0x2D	; 45
    2ace:	c8 2e       	mov	r12, r24
    2ad0:	89 e3       	ldi	r24, 0x39	; 57
    2ad2:	d8 2e       	mov	r13, r24
    2ad4:	9d e6       	ldi	r25, 0x6D	; 109
    2ad6:	e9 2e       	mov	r14, r25
    2ad8:	99 e3       	ldi	r25, 0x39	; 57
    2ada:	f9 2e       	mov	r15, r25
    2adc:	0d ea       	ldi	r16, 0xAD	; 173
    2ade:	19 e3       	ldi	r17, 0x39	; 57
    2ae0:	28 e1       	ldi	r18, 0x18	; 24
    2ae2:	52 2e       	mov	r5, r18
}

//
void SetResponse(uint8_t number, uint16_t address, uint16_t length, uint8_t type){
    reactStr[0][number]=address;
    reactStr[1][number]=length;
    2ae4:	aa 24       	eor	r10, r10
    2ae6:	a3 94       	inc	r10
    2ae8:	b1 2c       	mov	r11, r1
    return 0;
}

//
void SetResponse(uint8_t number, uint16_t address, uint16_t length, uint8_t type){
    reactStr[0][number]=address;
    2aea:	47 e5       	ldi	r20, 0x57	; 87
    2aec:	84 2e       	mov	r8, r20
    2aee:	4a e7       	ldi	r20, 0x7A	; 122
    2af0:	94 2e       	mov	r9, r20
    reactStr[1][number]=length;
    2af2:	52 e0       	ldi	r21, 0x02	; 2
    2af4:	65 2e       	mov	r6, r21
    2af6:	71 2c       	mov	r7, r1
            if (StartsWith(&data[0], "cheat")){
                uint8_t bit;
                for (uint8_t x=0; x<MAX_CHEATS; ++x){
                    
                    //Set up sending out number
                    EERead(CHEATS+x, &bit, 1);
    2af8:	41 e0       	ldi	r20, 0x01	; 1
    2afa:	be 01       	movw	r22, r28
    2afc:	6f 5f       	subi	r22, 0xFF	; 255
    2afe:	7f 4f       	sbci	r23, 0xFF	; 255
    2b00:	85 2d       	mov	r24, r5
    2b02:	0e 94 5f 07 	call	0xebe	; 0xebe <EERead>
                    bit = 0xff-bit;
    2b06:	89 81       	ldd	r24, Y+1	; 0x01
    2b08:	80 95       	com	r24
    2b0a:	89 83       	std	Y+1, r24	; 0x01
    return 0;
}

//
void SetResponse(uint8_t number, uint16_t address, uint16_t length, uint8_t type){
    reactStr[0][number]=address;
    2b0c:	28 2f       	mov	r18, r24
    2b0e:	22 95       	swap	r18
    2b10:	2f 70       	andi	r18, 0x0F	; 15
    2b12:	30 e0       	ldi	r19, 0x00	; 0
    2b14:	23 57       	subi	r18, 0x73	; 115
    2b16:	3b 48       	sbci	r19, 0x8B	; 139
    2b18:	f6 01       	movw	r30, r12
    2b1a:	20 83       	st	Z, r18
    2b1c:	31 83       	std	Z+1, r19	; 0x01
    reactStr[1][number]=length;
    2b1e:	f7 01       	movw	r30, r14
    2b20:	a0 82       	st	Z, r10
    2b22:	b1 82       	std	Z+1, r11	; 0x01
    reactStr[2][number]=type;
    2b24:	f8 01       	movw	r30, r16
    2b26:	a0 82       	st	Z, r10
    2b28:	b1 82       	std	Z+1, r11	; 0x01
    return 0;
}

//
void SetResponse(uint8_t number, uint16_t address, uint16_t length, uint8_t type){
    reactStr[0][number]=address;
    2b2a:	8f 70       	andi	r24, 0x0F	; 15
    2b2c:	90 e0       	ldi	r25, 0x00	; 0
    2b2e:	83 57       	subi	r24, 0x73	; 115
    2b30:	9b 48       	sbci	r25, 0x8B	; 139
    2b32:	f6 01       	movw	r30, r12
    2b34:	82 83       	std	Z+2, r24	; 0x02
    2b36:	93 83       	std	Z+3, r25	; 0x03
    reactStr[1][number]=length;
    2b38:	f7 01       	movw	r30, r14
    2b3a:	a2 82       	std	Z+2, r10	; 0x02
    2b3c:	b3 82       	std	Z+3, r11	; 0x03
    reactStr[2][number]=type;
    2b3e:	f8 01       	movw	r30, r16
    2b40:	a2 82       	std	Z+2, r10	; 0x02
    2b42:	b3 82       	std	Z+3, r11	; 0x03
    return 0;
}

//
void SetResponse(uint8_t number, uint16_t address, uint16_t length, uint8_t type){
    reactStr[0][number]=address;
    2b44:	f6 01       	movw	r30, r12
    2b46:	84 82       	std	Z+4, r8	; 0x04
    2b48:	95 82       	std	Z+5, r9	; 0x05
    reactStr[1][number]=length;
    2b4a:	f7 01       	movw	r30, r14
    2b4c:	64 82       	std	Z+4, r6	; 0x04
    2b4e:	75 82       	std	Z+5, r7	; 0x05
    reactStr[2][number]=type;
    2b50:	f8 01       	movw	r30, r16
    2b52:	a4 82       	std	Z+4, r10	; 0x04
    2b54:	b5 82       	std	Z+5, r11	; 0x05
    2b56:	53 94       	inc	r5
    2b58:	f6 e0       	ldi	r31, 0x06	; 6
    2b5a:	cf 0e       	add	r12, r31
    2b5c:	d1 1c       	adc	r13, r1
    2b5e:	86 e0       	ldi	r24, 0x06	; 6
    2b60:	e8 0e       	add	r14, r24
    2b62:	f1 1c       	adc	r15, r1
    2b64:	0a 5f       	subi	r16, 0xFA	; 250
            }

            //Show used cheat codes
            if (StartsWith(&data[0], "cheat")){
                uint8_t bit;
                for (uint8_t x=0; x<MAX_CHEATS; ++x){
    2b66:	1f 4f       	sbci	r17, 0xFF	; 255
    2b68:	e0 e2       	ldi	r30, 0x20	; 32
    2b6a:	5e 12       	cpse	r5, r30
                    //SetResponse(x*4, A_HEXPREFIX, L_HEXPREFIX, TEASER);
                    SetResponse(x*3, A_DIGITS+(bit>>4), 1, TEASER);               
                    SetResponse(x*3+1, A_DIGITS+(bit%16), 1, TEASER);
                    SetResponse(x*3+2, A_COMMA, L_COMMA, TEASER);
                }
                responseList = SetStandardResponse((3*MAX_CHEATS));
    2b6c:	c5 cf       	rjmp	.-118    	; 0x2af8 <CheckInput+0x334>
    2b6e:	88 e1       	ldi	r24, 0x18	; 24
    2b70:	c6 db       	rcall	.-2164   	; 0x22fe <SetStandardResponse>
    2b72:	80 93 2c 39 	sts	0x392C, r24	; 0x80392c <responseList>
        //Data received, but not any of the commands above
        return 0;
    }

    //Serial input not available yet
    return 1;
    2b76:	ff 24       	eor	r15, r15
    2b78:	f3 94       	inc	r15
}
    2b7a:	8f 2d       	mov	r24, r15
    2b7c:	29 96       	adiw	r28, 0x09	; 9
    2b7e:	ef e0       	ldi	r30, 0x0F	; 15
    2b80:	0c 94 79 1f 	jmp	0x3ef2	; 0x3ef2 <__epilogue_restores__+0x6>

00002b84 <ShowInventory>:

uint8_t ShowInventory(uint8_t elements){
    2b84:	ab e2       	ldi	r26, 0x2B	; 43
    2b86:	b0 e0       	ldi	r27, 0x00	; 0
    2b88:	e8 ec       	ldi	r30, 0xC8	; 200
    2b8a:	f5 e1       	ldi	r31, 0x15	; 21
    2b8c:	0c 94 64 1f 	jmp	0x3ec8	; 0x3ec8 <__prologue_saves__+0xe>
    object_model_t actObj1;

    SetResponse(elements++, A_NOWCARRING, L_NOWCARRING, TEASER);
    2b90:	99 24       	eor	r9, r9
    2b92:	93 94       	inc	r9
    2b94:	98 0e       	add	r9, r24
    return 0;
}

//
void SetResponse(uint8_t number, uint16_t address, uint16_t length, uint8_t type){
    reactStr[0][number]=address;
    2b96:	90 e0       	ldi	r25, 0x00	; 0
    2b98:	fc 01       	movw	r30, r24
    2b9a:	ee 0f       	add	r30, r30
    2b9c:	ff 1f       	adc	r31, r31
    2b9e:	e3 5d       	subi	r30, 0xD3	; 211
    2ba0:	f6 4c       	sbci	r31, 0xC6	; 198
    2ba2:	2c ec       	ldi	r18, 0xCC	; 204
    2ba4:	37 e7       	ldi	r19, 0x77	; 119
    2ba6:	20 83       	st	Z, r18
    2ba8:	31 83       	std	Z+1, r19	; 0x01
    reactStr[1][number]=length;
    2baa:	fc 01       	movw	r30, r24
    2bac:	ee 0f       	add	r30, r30
    2bae:	ff 1f       	adc	r31, r31
    2bb0:	e3 59       	subi	r30, 0x93	; 147
    2bb2:	f6 4c       	sbci	r31, 0xC6	; 198
    2bb4:	26 e1       	ldi	r18, 0x16	; 22
    2bb6:	30 e0       	ldi	r19, 0x00	; 0
    2bb8:	20 83       	st	Z, r18
    2bba:	31 83       	std	Z+1, r19	; 0x01
    reactStr[2][number]=type;
    2bbc:	88 0f       	add	r24, r24
    2bbe:	99 1f       	adc	r25, r25
    2bc0:	fc 01       	movw	r30, r24
    2bc2:	e3 55       	subi	r30, 0x53	; 83
    2bc4:	f6 4c       	sbci	r31, 0xC6	; 198
    2bc6:	81 e0       	ldi	r24, 0x01	; 1
    2bc8:	90 e0       	ldi	r25, 0x00	; 0
    2bca:	80 83       	st	Z, r24
    2bcc:	91 83       	std	Z+1, r25	; 0x01
    2bce:	0e e4       	ldi	r16, 0x4E	; 78
    2bd0:	18 e3       	ldi	r17, 0x38	; 56
    return 0;
}

//
void SetResponse(uint8_t number, uint16_t address, uint16_t length, uint8_t type){
    reactStr[0][number]=address;
    2bd2:	37 e5       	ldi	r19, 0x57	; 87
    2bd4:	e3 2e       	mov	r14, r19
    2bd6:	3a e7       	ldi	r19, 0x7A	; 122
    2bd8:	f3 2e       	mov	r15, r19
    reactStr[1][number]=length;
    2bda:	42 e0       	ldi	r20, 0x02	; 2
    2bdc:	c4 2e       	mov	r12, r20
    2bde:	d1 2c       	mov	r13, r1
    reactStr[2][number]=type;
    2be0:	aa 24       	eor	r10, r10
    2be2:	a3 94       	inc	r10
    2be4:	b1 2c       	mov	r11, r1
    object_model_t actObj1;

    SetResponse(elements++, A_NOWCARRING, L_NOWCARRING, TEASER);

    for (uint8_t x=0; x<2; ++x) {
        if (inventory[x]) {
    2be6:	f8 01       	movw	r30, r16
    2be8:	81 91       	ld	r24, Z+
    2bea:	91 91       	ld	r25, Z+
    2bec:	8f 01       	movw	r16, r30
    2bee:	00 97       	sbiw	r24, 0x00	; 0
    2bf0:	c9 f1       	breq	.+114    	; 0x2c64 <ShowInventory+0xe0>
            PopulateObject(inventory[x], &actObj1);
    2bf2:	be 01       	movw	r22, r28
    2bf4:	6f 5f       	subi	r22, 0xFF	; 255
    2bf6:	7f 4f       	sbci	r23, 0xFF	; 255
    2bf8:	fe db       	rcall	.-2052   	; 0x23f6 <PopulateObject>
            SetResponse(elements++, actObj1.addrStr[NAME], actObj1.lenStr[NAME], GAME);
    2bfa:	2b 8d       	ldd	r18, Y+27	; 0x1b
    2bfc:	3c 8d       	ldd	r19, Y+28	; 0x1c
    return 0;
}

//
void SetResponse(uint8_t number, uint16_t address, uint16_t length, uint8_t type){
    reactStr[0][number]=address;
    2bfe:	89 2d       	mov	r24, r9
    2c00:	90 e0       	ldi	r25, 0x00	; 0
    2c02:	fc 01       	movw	r30, r24
    2c04:	ee 0f       	add	r30, r30
    2c06:	ff 1f       	adc	r31, r31
    2c08:	e3 5d       	subi	r30, 0xD3	; 211
    2c0a:	f6 4c       	sbci	r31, 0xC6	; 198
    2c0c:	4d 85       	ldd	r20, Y+13	; 0x0d
    2c0e:	5e 85       	ldd	r21, Y+14	; 0x0e
    2c10:	40 83       	st	Z, r20
    2c12:	51 83       	std	Z+1, r21	; 0x01
    reactStr[1][number]=length;
    2c14:	fc 01       	movw	r30, r24
    2c16:	ee 0f       	add	r30, r30
    2c18:	ff 1f       	adc	r31, r31
    2c1a:	e3 59       	subi	r30, 0x93	; 147
    2c1c:	f6 4c       	sbci	r31, 0xC6	; 198
    2c1e:	20 83       	st	Z, r18
    2c20:	31 83       	std	Z+1, r19	; 0x01
    reactStr[2][number]=type;
    2c22:	88 0f       	add	r24, r24
    2c24:	99 1f       	adc	r25, r25
    2c26:	fc 01       	movw	r30, r24
    2c28:	e3 55       	subi	r30, 0x53	; 83
    2c2a:	f6 4c       	sbci	r31, 0xC6	; 198
    2c2c:	10 82       	st	Z, r1
    2c2e:	11 82       	std	Z+1, r1	; 0x01
    return 0;
}

//
void SetResponse(uint8_t number, uint16_t address, uint16_t length, uint8_t type){
    reactStr[0][number]=address;
    2c30:	81 e0       	ldi	r24, 0x01	; 1
    2c32:	89 0d       	add	r24, r9
    2c34:	90 e0       	ldi	r25, 0x00	; 0
    2c36:	93 94       	inc	r9
    2c38:	93 94       	inc	r9
    2c3a:	fc 01       	movw	r30, r24
    2c3c:	ee 0f       	add	r30, r30
    2c3e:	ff 1f       	adc	r31, r31
    2c40:	e3 5d       	subi	r30, 0xD3	; 211
    2c42:	f6 4c       	sbci	r31, 0xC6	; 198
    2c44:	e0 82       	st	Z, r14
    2c46:	f1 82       	std	Z+1, r15	; 0x01
    reactStr[1][number]=length;
    2c48:	fc 01       	movw	r30, r24
    2c4a:	ee 0f       	add	r30, r30
    2c4c:	ff 1f       	adc	r31, r31
    2c4e:	e3 59       	subi	r30, 0x93	; 147
    2c50:	f6 4c       	sbci	r31, 0xC6	; 198
    2c52:	c0 82       	st	Z, r12
    2c54:	d1 82       	std	Z+1, r13	; 0x01
    reactStr[2][number]=type;
    2c56:	88 0f       	add	r24, r24
    2c58:	99 1f       	adc	r25, r25
    2c5a:	fc 01       	movw	r30, r24
    2c5c:	e3 55       	subi	r30, 0x53	; 83
    2c5e:	f6 4c       	sbci	r31, 0xC6	; 198
    2c60:	a0 82       	st	Z, r10
    2c62:	b1 82       	std	Z+1, r11	; 0x01
uint8_t ShowInventory(uint8_t elements){
    object_model_t actObj1;

    SetResponse(elements++, A_NOWCARRING, L_NOWCARRING, TEASER);

    for (uint8_t x=0; x<2; ++x) {
    2c64:	f8 e3       	ldi	r31, 0x38	; 56
    2c66:	02 35       	cpi	r16, 0x52	; 82
    2c68:	1f 07       	cpc	r17, r31
    2c6a:	09 f0       	breq	.+2      	; 0x2c6e <ShowInventory+0xea>
    2c6c:	bc cf       	rjmp	.-136    	; 0x2be6 <ShowInventory+0x62>
        }
    }
    elements -= 1;
            
    return elements;
}
    2c6e:	8f ef       	ldi	r24, 0xFF	; 255
    2c70:	89 0d       	add	r24, r9
    2c72:	ab 96       	adiw	r28, 0x2b	; 43
    2c74:	eb e0       	ldi	r30, 0x0B	; 11
    2c76:	0c 94 7d 1f 	jmp	0x3efa	; 0x3efa <__epilogue_restores__+0xe>

00002c7a <ProcessInput>:

//The game logic!
uint8_t ProcessInput(uint8_t *data){
    2c7a:	a8 e0       	ldi	r26, 0x08	; 8
    2c7c:	b0 e0       	ldi	r27, 0x00	; 0
    2c7e:	e3 e4       	ldi	r30, 0x43	; 67
    2c80:	f6 e1       	ldi	r31, 0x16	; 22
    2c82:	0c 94 61 1f 	jmp	0x3ec2	; 0x3ec2 <__prologue_saves__+0x8>
    2c86:	3c 01       	movw	r6, r24
    static object_model_t actObj1, actObj2;
    uint8_t elements = 1;

    CleanInput(&data[0]);
    2c88:	e2 dc       	rcall	.-1596   	; 0x264e <CleanInput>
    uint8_t inputLen = CleanInput(&data[0]);
    2c8a:	c3 01       	movw	r24, r6
    2c8c:	e0 dc       	rcall	.-1600   	; 0x264e <CleanInput>
    2c8e:	f8 2e       	mov	r15, r24
    return 0;
}

//
void SetResponse(uint8_t number, uint16_t address, uint16_t length, uint8_t type){
    reactStr[0][number]=address;
    2c90:	29 e5       	ldi	r18, 0x59	; 89
    2c92:	3a e7       	ldi	r19, 0x7A	; 122
    2c94:	20 93 2d 39 	sts	0x392D, r18	; 0x80392d <reactStr>
    2c98:	30 93 2e 39 	sts	0x392E, r19	; 0x80392e <reactStr+0x1>
    reactStr[1][number]=length;
    2c9c:	84 e0       	ldi	r24, 0x04	; 4
    2c9e:	90 e0       	ldi	r25, 0x00	; 0
    2ca0:	80 93 6d 39 	sts	0x396D, r24	; 0x80396d <reactStr+0x40>
    2ca4:	90 93 6e 39 	sts	0x396E, r25	; 0x80396e <reactStr+0x41>
    reactStr[2][number]=type;
    2ca8:	01 e0       	ldi	r16, 0x01	; 1
    2caa:	10 e0       	ldi	r17, 0x00	; 0
    2cac:	00 93 ad 39 	sts	0x39AD, r16	; 0x8039ad <reactStr+0x80>
    2cb0:	10 93 ae 39 	sts	0x39AE, r17	; 0x8039ae <reactStr+0x81>

    CleanInput(&data[0]);
    uint8_t inputLen = CleanInput(&data[0]);
    SetResponse(0, A_LF, 4, TEASER);

    if (inputLen) {
    2cb4:	ff 20       	and	r15, r15
    2cb6:	09 f4       	brne	.+2      	; 0x2cba <ProcessInput+0x40>
    2cb8:	54 c7       	rjmp	.+3752   	; 0x3b62 <ProcessInput+0xee8>

        //eXit to previous location
        if (data[0] == 'x'){
    2cba:	d3 01       	movw	r26, r6
    2cbc:	8c 91       	ld	r24, X
    2cbe:	88 37       	cpi	r24, 0x78	; 120
    2cc0:	09 f0       	breq	.+2      	; 0x2cc4 <ProcessInput+0x4a>
    2cc2:	45 c0       	rjmp	.+138    	; 0x2d4e <ProcessInput+0xd4>

            //Standing in the Lobby?
            if ((route[currDepth] == 0)||(currDepth == 0)){
    2cc4:	80 91 3e 38 	lds	r24, 0x383E	; 0x80383e <currDepth>
    2cc8:	e8 2f       	mov	r30, r24
    2cca:	f0 e0       	ldi	r31, 0x00	; 0
    2ccc:	ee 0f       	add	r30, r30
    2cce:	ff 1f       	adc	r31, r31
    2cd0:	e3 51       	subi	r30, 0x13	; 19
    2cd2:	f6 4c       	sbci	r31, 0xC6	; 198
    2cd4:	20 81       	ld	r18, Z
    2cd6:	31 81       	ldd	r19, Z+1	; 0x01
    2cd8:	23 2b       	or	r18, r19
    2cda:	11 f0       	breq	.+4      	; 0x2ce0 <ProcessInput+0x66>
    2cdc:	81 11       	cpse	r24, r1
    2cde:	03 c0       	rjmp	.+6      	; 0x2ce6 <ProcessInput+0x6c>
    return 0;
}

//
void SetResponse(uint8_t number, uint16_t address, uint16_t length, uint8_t type){
    reactStr[0][number]=address;
    2ce0:	84 e4       	ldi	r24, 0x44	; 68
    2ce2:	96 e7       	ldi	r25, 0x76	; 118
    2ce4:	13 c5       	rjmp	.+2598   	; 0x370c <ProcessInput+0xa92>
            //Standing in the Lobby?
            if ((route[currDepth] == 0)||(currDepth == 0)){
                SetResponse(elements++, A_NOTPOSSIBLE, L_NOTPOSSIBLE, TEASER);
            
            //Is there a way to go back?
            } else if (CheckState(currObj.byteField[OPEN_ACL])){
    2ce6:	80 91 33 3a 	lds	r24, 0x3A33	; 0x803a33 <currObj+0x6>
    2cea:	0e 94 68 09 	call	0x12d0	; 0x12d0 <CheckState>
    2cee:	88 23       	and	r24, r24
    2cf0:	b9 f0       	breq	.+46     	; 0x2d20 <ProcessInput+0xa6>
                --currDepth;
    2cf2:	e0 91 3e 38 	lds	r30, 0x383E	; 0x80383e <currDepth>
    2cf6:	e1 50       	subi	r30, 0x01	; 1
    2cf8:	e0 93 3e 38 	sts	0x383E, r30	; 0x80383e <currDepth>
                PopulateObject(route[currDepth], &currObj);
    2cfc:	f0 e0       	ldi	r31, 0x00	; 0
    2cfe:	ee 0f       	add	r30, r30
    2d00:	ff 1f       	adc	r31, r31
    2d02:	e3 51       	subi	r30, 0x13	; 19
    2d04:	f6 4c       	sbci	r31, 0xC6	; 198
    2d06:	6d e2       	ldi	r22, 0x2D	; 45
    2d08:	7a e3       	ldi	r23, 0x3A	; 58
    2d0a:	80 81       	ld	r24, Z
    2d0c:	91 81       	ldd	r25, Z+1	; 0x01
    2d0e:	73 db       	rcall	.-2330   	; 0x23f6 <PopulateObject>
                effect = currObj.byteField[EFFECTS];
    2d10:	80 91 31 3a 	lds	r24, 0x3A31	; 0x803a31 <currObj+0x4>
    2d14:	90 e0       	ldi	r25, 0x00	; 0
    2d16:	80 93 4a 38 	sts	0x384A, r24	; 0x80384a <effect>
    2d1a:	90 93 4b 38 	sts	0x384B, r25	; 0x80384b <effect+0x1>
    2d1e:	2a c2       	rjmp	.+1108   	; 0x3174 <ProcessInput+0x4fa>
            
            //No way out, print denied message of location
            } else {
                SetResponse(elements++, currObj.addrStr[OPEN_ACL_MSG], currObj.lenStr[OPEN_ACL_MSG], GAME);
    2d20:	80 91 4f 3a 	lds	r24, 0x3A4F	; 0x803a4f <currObj+0x22>
    2d24:	90 91 50 3a 	lds	r25, 0x3A50	; 0x803a50 <currObj+0x23>
    return 0;
}

//
void SetResponse(uint8_t number, uint16_t address, uint16_t length, uint8_t type){
    reactStr[0][number]=address;
    2d28:	20 91 41 3a 	lds	r18, 0x3A41	; 0x803a41 <currObj+0x14>
    2d2c:	30 91 42 3a 	lds	r19, 0x3A42	; 0x803a42 <currObj+0x15>
    2d30:	20 93 2f 39 	sts	0x392F, r18	; 0x80392f <reactStr+0x2>
    2d34:	30 93 30 39 	sts	0x3930, r19	; 0x803930 <reactStr+0x3>
    reactStr[1][number]=length;
    2d38:	80 93 6f 39 	sts	0x396F, r24	; 0x80396f <reactStr+0x42>
    2d3c:	90 93 70 39 	sts	0x3970, r25	; 0x803970 <reactStr+0x43>
    reactStr[2][number]=type;
    2d40:	10 92 af 39 	sts	0x39AF, r1	; 0x8039af <reactStr+0x82>
    2d44:	10 92 b0 39 	sts	0x39B0, r1	; 0x8039b0 <reactStr+0x83>
                effect = currObj.byteField[EFFECTS];
            
            //No way out, print denied message of location
            } else {
                SetResponse(elements++, currObj.addrStr[OPEN_ACL_MSG], currObj.lenStr[OPEN_ACL_MSG], GAME);
                effect = currObj.effect[0];               
    2d48:	80 91 55 3a 	lds	r24, 0x3A55	; 0x803a55 <currObj+0x28>
    2d4c:	a9 c5       	rjmp	.+2898   	; 0x38a0 <ProcessInput+0xc26>
            }   
        
        //Enter locations or Open objects    
        } else if ((data[0] == 'e')||(data[0] == 'o')) {
    2d4e:	85 36       	cpi	r24, 0x65	; 101
    2d50:	19 f0       	breq	.+6      	; 0x2d58 <ProcessInput+0xde>
    2d52:	8f 36       	cpi	r24, 0x6F	; 111
    2d54:	09 f0       	breq	.+2      	; 0x2d58 <ProcessInput+0xde>
    2d56:	de c0       	rjmp	.+444    	; 0x2f14 <ProcessInput+0x29a>
                
            //Not possible, too many/little characters
            if (inputLen != 2){
    2d58:	b2 e0       	ldi	r27, 0x02	; 2
    2d5a:	fb 12       	cpse	r15, r27
    2d5c:	c1 cf       	rjmp	.-126    	; 0x2ce0 <ProcessInput+0x66>
                SetResponse(elements++, A_NOTPOSSIBLE, L_NOTPOSSIBLE, TEASER);
            } else {
                uint8_t canDo = 0;
                route[currDepth+1] = FindChild(route[currDepth], data[1], 0);
    2d5e:	00 91 3e 38 	lds	r16, 0x383E	; 0x80383e <currDepth>
    2d62:	10 e0       	ldi	r17, 0x00	; 0
    2d64:	f8 01       	movw	r30, r16
    2d66:	ee 0f       	add	r30, r30
    2d68:	ff 1f       	adc	r31, r31
    2d6a:	e3 51       	subi	r30, 0x13	; 19
    2d6c:	f6 4c       	sbci	r31, 0xC6	; 198
    2d6e:	40 e0       	ldi	r20, 0x00	; 0
    2d70:	50 e0       	ldi	r21, 0x00	; 0
    2d72:	d3 01       	movw	r26, r6
    2d74:	11 96       	adiw	r26, 0x01	; 1
    2d76:	6c 91       	ld	r22, X
    2d78:	80 81       	ld	r24, Z
    2d7a:	91 81       	ldd	r25, Z+1	; 0x01
    2d7c:	fc db       	rcall	.-2056   	; 0x2576 <FindChild>
    2d7e:	00 0f       	add	r16, r16
    2d80:	11 1f       	adc	r17, r17
    2d82:	f8 01       	movw	r30, r16
    2d84:	e1 51       	subi	r30, 0x11	; 17
    2d86:	f6 4c       	sbci	r31, 0xC6	; 198
    2d88:	80 83       	st	Z, r24
    2d8a:	91 83       	std	Z+1, r25	; 0x01
                    
                //Child found?
                if (route[currDepth+1]) {
    2d8c:	90 91 3e 38 	lds	r25, 0x383E	; 0x80383e <currDepth>
    2d90:	29 2f       	mov	r18, r25
    2d92:	30 e0       	ldi	r19, 0x00	; 0
    2d94:	f9 01       	movw	r30, r18
    2d96:	ee 0f       	add	r30, r30
    2d98:	ff 1f       	adc	r31, r31
    2d9a:	e1 51       	subi	r30, 0x11	; 17
    2d9c:	f6 4c       	sbci	r31, 0xC6	; 198
    2d9e:	40 81       	ld	r20, Z
    2da0:	51 81       	ldd	r21, Z+1	; 0x01
    2da2:	41 15       	cp	r20, r1
    2da4:	51 05       	cpc	r21, r1
    2da6:	21 f0       	breq	.+8      	; 0x2db0 <ProcessInput+0x136>
                    PopulateObject(route[currDepth+1], &actObj1);
    2da8:	6c ee       	ldi	r22, 0xEC	; 236
    2daa:	78 e3       	ldi	r23, 0x38	; 56
    2dac:	ca 01       	movw	r24, r20
    2dae:	1c c0       	rjmp	.+56     	; 0x2de8 <ProcessInput+0x16e>
                    canDo = 1;
                //No child, maybe a step back, letter ok?
                } else if (currDepth) {
    2db0:	99 23       	and	r25, r25
    2db2:	09 f4       	brne	.+2      	; 0x2db6 <ProcessInput+0x13c>
    2db4:	dc c6       	rjmp	.+3512   	; 0x3b6e <ProcessInput+0xef4>
                    if (CheckLetter(route[currDepth-1], data[1])) {
    2db6:	22 0f       	add	r18, r18
    2db8:	33 1f       	adc	r19, r19
    2dba:	f9 01       	movw	r30, r18
    2dbc:	e5 51       	subi	r30, 0x15	; 21
    2dbe:	f6 4c       	sbci	r31, 0xC6	; 198
    2dc0:	d3 01       	movw	r26, r6
    2dc2:	11 96       	adiw	r26, 0x01	; 1
    2dc4:	6c 91       	ld	r22, X
    2dc6:	80 81       	ld	r24, Z
    2dc8:	91 81       	ldd	r25, Z+1	; 0x01
    2dca:	8e db       	rcall	.-2276   	; 0x24e8 <CheckLetter>
    2dcc:	88 23       	and	r24, r24
    2dce:	09 f4       	brne	.+2      	; 0x2dd2 <ProcessInput+0x158>
    2dd0:	ce c6       	rjmp	.+3484   	; 0x3b6e <ProcessInput+0xef4>
                        PopulateObject(route[currDepth-1], &actObj1);
    2dd2:	e0 91 3e 38 	lds	r30, 0x383E	; 0x80383e <currDepth>
    2dd6:	f0 e0       	ldi	r31, 0x00	; 0
    2dd8:	ee 0f       	add	r30, r30
    2dda:	ff 1f       	adc	r31, r31
    2ddc:	e5 51       	subi	r30, 0x15	; 21
    2dde:	f6 4c       	sbci	r31, 0xC6	; 198
    2de0:	6c ee       	ldi	r22, 0xEC	; 236
    2de2:	78 e3       	ldi	r23, 0x38	; 56
    2de4:	80 81       	ld	r24, Z
    2de6:	91 81       	ldd	r25, Z+1	; 0x01
    2de8:	06 db       	rcall	.-2548   	; 0x23f6 <PopulateObject>
                    }
                }

                //The candidate is found! Let's check if the action is legit
                if (canDo) {
                    if ((data[0] == 'e') && ((actObj1.byteField[ACTION_MASK]&ENTER)==0)) {
    2dea:	d3 01       	movw	r26, r6
    2dec:	8c 91       	ld	r24, X
    2dee:	85 36       	cpi	r24, 0x65	; 101
    2df0:	c1 f4       	brne	.+48     	; 0x2e22 <ProcessInput+0x1a8>
    2df2:	80 91 f4 38 	lds	r24, 0x38F4	; 0x8038f4 <actObj1.3956+0x8>
    2df6:	80 fd       	sbrc	r24, 0
    2df8:	1d c0       	rjmp	.+58     	; 0x2e34 <ProcessInput+0x1ba>
    return 0;
}

//
void SetResponse(uint8_t number, uint16_t address, uint16_t length, uint8_t type){
    reactStr[0][number]=address;
    2dfa:	8d e9       	ldi	r24, 0x9D	; 157
    2dfc:	99 e7       	ldi	r25, 0x79	; 121
    2dfe:	80 93 2f 39 	sts	0x392F, r24	; 0x80392f <reactStr+0x2>
    2e02:	90 93 30 39 	sts	0x3930, r25	; 0x803930 <reactStr+0x3>
    reactStr[1][number]=length;
    2e06:	8e e1       	ldi	r24, 0x1E	; 30
    2e08:	90 e0       	ldi	r25, 0x00	; 0
    2e0a:	80 93 6f 39 	sts	0x396F, r24	; 0x80396f <reactStr+0x42>
    2e0e:	90 93 70 39 	sts	0x3970, r25	; 0x803970 <reactStr+0x43>
    reactStr[2][number]=type;
    2e12:	81 e0       	ldi	r24, 0x01	; 1
    2e14:	90 e0       	ldi	r25, 0x00	; 0
    2e16:	80 93 af 39 	sts	0x39AF, r24	; 0x8039af <reactStr+0x82>
    2e1a:	90 93 b0 39 	sts	0x39B0, r25	; 0x8039b0 <reactStr+0x83>
                }

                //The candidate is found! Let's check if the action is legit
                if (canDo) {
                    if ((data[0] == 'e') && ((actObj1.byteField[ACTION_MASK]&ENTER)==0)) {
                        SetResponse(elements++, A_CANTENTER, L_CANTENTER, TEASER);
    2e1e:	12 e0       	ldi	r17, 0x02	; 2
    2e20:	97 c6       	rjmp	.+3374   	; 0x3b50 <ProcessInput+0xed6>
                    } else if ((data[0] == 'o') && ((actObj1.byteField[ACTION_MASK]&OPEN)==0)) {
    2e22:	8f 36       	cpi	r24, 0x6F	; 111
    2e24:	39 f4       	brne	.+14     	; 0x2e34 <ProcessInput+0x1ba>
    2e26:	80 91 f4 38 	lds	r24, 0x38F4	; 0x8038f4 <actObj1.3956+0x8>
    2e2a:	81 fd       	sbrc	r24, 1
    2e2c:	03 c0       	rjmp	.+6      	; 0x2e34 <ProcessInput+0x1ba>
    return 0;
}

//
void SetResponse(uint8_t number, uint16_t address, uint16_t length, uint8_t type){
    reactStr[0][number]=address;
    2e2e:	82 e8       	ldi	r24, 0x82	; 130
    2e30:	99 e7       	ldi	r25, 0x79	; 121
    2e32:	6c c4       	rjmp	.+2264   	; 0x370c <ProcessInput+0xa92>
                        SetResponse(elements++, A_CANTENTER, L_CANTENTER, TEASER);
                    } else if ((data[0] == 'o') && ((actObj1.byteField[ACTION_MASK]&OPEN)==0)) {
                        SetResponse(elements++, A_CANTOPEN, L_CANTOPEN, TEASER);
                    
                    //Action legit, permission granted?
                    } else if (CheckState(actObj1.byteField[OPEN_ACL])) {
    2e34:	80 91 f2 38 	lds	r24, 0x38F2	; 0x8038f2 <actObj1.3956+0x6>
    2e38:	0e 94 68 09 	call	0x12d0	; 0x12d0 <CheckState>
    2e3c:	e0 91 3e 38 	lds	r30, 0x383E	; 0x80383e <currDepth>
    2e40:	88 23       	and	r24, r24
    2e42:	09 f4       	brne	.+2      	; 0x2e46 <ProcessInput+0x1cc>
    2e44:	49 c0       	rjmp	.+146    	; 0x2ed8 <ProcessInput+0x25e>
                            
                        //Yes! Check if we must move forward or backwards.
                        if (route[currDepth+1]) ++currDepth; else --currDepth;
    2e46:	ae 2f       	mov	r26, r30
    2e48:	b0 e0       	ldi	r27, 0x00	; 0
    2e4a:	aa 0f       	add	r26, r26
    2e4c:	bb 1f       	adc	r27, r27
    2e4e:	a1 51       	subi	r26, 0x11	; 17
    2e50:	b6 4c       	sbci	r27, 0xC6	; 198
    2e52:	8d 91       	ld	r24, X+
    2e54:	9c 91       	ld	r25, X
    2e56:	89 2b       	or	r24, r25
    2e58:	11 f0       	breq	.+4      	; 0x2e5e <ProcessInput+0x1e4>
    2e5a:	ef 5f       	subi	r30, 0xFF	; 255
    2e5c:	01 c0       	rjmp	.+2      	; 0x2e60 <ProcessInput+0x1e6>
    2e5e:	e1 50       	subi	r30, 0x01	; 1
    2e60:	e0 93 3e 38 	sts	0x383E, r30	; 0x80383e <currDepth>
                        PopulateObject(route[currDepth], &currObj);
    2e64:	e0 91 3e 38 	lds	r30, 0x383E	; 0x80383e <currDepth>
    2e68:	f0 e0       	ldi	r31, 0x00	; 0
    2e6a:	ee 0f       	add	r30, r30
    2e6c:	ff 1f       	adc	r31, r31
    2e6e:	e3 51       	subi	r30, 0x13	; 19
    2e70:	f6 4c       	sbci	r31, 0xC6	; 198
    2e72:	6d e2       	ldi	r22, 0x2D	; 45
    2e74:	7a e3       	ldi	r23, 0x3A	; 58
    2e76:	80 81       	ld	r24, Z
    2e78:	91 81       	ldd	r25, Z+1	; 0x01
    2e7a:	bd da       	rcall	.-2694   	; 0x23f6 <PopulateObject>
                        SetResponse(elements++, currObj.addrStr[DESC], currObj.lenStr[DESC],GAME);
    2e7c:	80 91 49 3a 	lds	r24, 0x3A49	; 0x803a49 <currObj+0x1c>
    2e80:	90 91 4a 3a 	lds	r25, 0x3A4A	; 0x803a4a <currObj+0x1d>
    return 0;
}

//
void SetResponse(uint8_t number, uint16_t address, uint16_t length, uint8_t type){
    reactStr[0][number]=address;
    2e84:	20 91 3b 3a 	lds	r18, 0x3A3B	; 0x803a3b <currObj+0xe>
    2e88:	30 91 3c 3a 	lds	r19, 0x3A3C	; 0x803a3c <currObj+0xf>
    2e8c:	20 93 2f 39 	sts	0x392F, r18	; 0x80392f <reactStr+0x2>
    2e90:	30 93 30 39 	sts	0x3930, r19	; 0x803930 <reactStr+0x3>
    reactStr[1][number]=length;
    2e94:	80 93 6f 39 	sts	0x396F, r24	; 0x80396f <reactStr+0x42>
    2e98:	90 93 70 39 	sts	0x3970, r25	; 0x803970 <reactStr+0x43>
    reactStr[2][number]=type;
    2e9c:	10 92 af 39 	sts	0x39AF, r1	; 0x8039af <reactStr+0x82>
    2ea0:	10 92 b0 39 	sts	0x39B0, r1	; 0x8039b0 <reactStr+0x83>
    return 0;
}

//
void SetResponse(uint8_t number, uint16_t address, uint16_t length, uint8_t type){
    reactStr[0][number]=address;
    2ea4:	89 e5       	ldi	r24, 0x59	; 89
    2ea6:	9a e7       	ldi	r25, 0x7A	; 122
    2ea8:	80 93 31 39 	sts	0x3931, r24	; 0x803931 <reactStr+0x4>
    2eac:	90 93 32 39 	sts	0x3932, r25	; 0x803932 <reactStr+0x5>
    reactStr[1][number]=length;
    2eb0:	82 e0       	ldi	r24, 0x02	; 2
    2eb2:	90 e0       	ldi	r25, 0x00	; 0
    2eb4:	80 93 71 39 	sts	0x3971, r24	; 0x803971 <reactStr+0x44>
    2eb8:	90 93 72 39 	sts	0x3972, r25	; 0x803972 <reactStr+0x45>
    reactStr[2][number]=type;
    2ebc:	81 e0       	ldi	r24, 0x01	; 1
    2ebe:	90 e0       	ldi	r25, 0x00	; 0
    2ec0:	80 93 b1 39 	sts	0x39B1, r24	; 0x8039b1 <reactStr+0x84>
    2ec4:	90 93 b2 39 	sts	0x39B2, r25	; 0x8039b2 <reactStr+0x85>
                        //Yes! Check if we must move forward or backwards.
                        if (route[currDepth+1]) ++currDepth; else --currDepth;
                        PopulateObject(route[currDepth], &currObj);
                        SetResponse(elements++, currObj.addrStr[DESC], currObj.lenStr[DESC],GAME);
                        SetResponse(elements++, A_LF, 2, TEASER);
                        effect = currObj.byteField[EFFECTS];
    2ec8:	80 91 31 3a 	lds	r24, 0x3A31	; 0x803a31 <currObj+0x4>
    2ecc:	90 e0       	ldi	r25, 0x00	; 0
    2ece:	80 93 4a 38 	sts	0x384A, r24	; 0x80384a <effect>
    2ed2:	90 93 4b 38 	sts	0x384B, r25	; 0x80384b <effect+0x1>
    2ed6:	07 c4       	rjmp	.+2062   	; 0x36e6 <ProcessInput+0xa6c>
                                                  
                    //Not granted!
                    } else {
                        route[currDepth+1] = 0;
    2ed8:	f0 e0       	ldi	r31, 0x00	; 0
    2eda:	ee 0f       	add	r30, r30
    2edc:	ff 1f       	adc	r31, r31
    2ede:	e1 51       	subi	r30, 0x11	; 17
    2ee0:	f6 4c       	sbci	r31, 0xC6	; 198
    2ee2:	10 82       	st	Z, r1
    2ee4:	11 82       	std	Z+1, r1	; 0x01
                        SetResponse(elements++, actObj1.addrStr[OPEN_ACL_MSG], actObj1.lenStr[OPEN_ACL_MSG], GAME);
    2ee6:	80 91 0e 39 	lds	r24, 0x390E	; 0x80390e <actObj1.3956+0x22>
    2eea:	90 91 0f 39 	lds	r25, 0x390F	; 0x80390f <actObj1.3956+0x23>
    return 0;
}

//
void SetResponse(uint8_t number, uint16_t address, uint16_t length, uint8_t type){
    reactStr[0][number]=address;
    2eee:	20 91 00 39 	lds	r18, 0x3900	; 0x803900 <actObj1.3956+0x14>
    2ef2:	30 91 01 39 	lds	r19, 0x3901	; 0x803901 <actObj1.3956+0x15>
    2ef6:	20 93 2f 39 	sts	0x392F, r18	; 0x80392f <reactStr+0x2>
    2efa:	30 93 30 39 	sts	0x3930, r19	; 0x803930 <reactStr+0x3>
    reactStr[1][number]=length;
    2efe:	80 93 6f 39 	sts	0x396F, r24	; 0x80396f <reactStr+0x42>
    2f02:	90 93 70 39 	sts	0x3970, r25	; 0x803970 <reactStr+0x43>
    reactStr[2][number]=type;
    2f06:	10 92 af 39 	sts	0x39AF, r1	; 0x8039af <reactStr+0x82>
    2f0a:	10 92 b0 39 	sts	0x39B0, r1	; 0x8039b0 <reactStr+0x83>
                                                  
                    //Not granted!
                    } else {
                        route[currDepth+1] = 0;
                        SetResponse(elements++, actObj1.addrStr[OPEN_ACL_MSG], actObj1.lenStr[OPEN_ACL_MSG], GAME);
                        effect = actObj1.effect[0];              
    2f0e:	80 91 14 39 	lds	r24, 0x3914	; 0x803914 <actObj1.3956+0x28>
    2f12:	c6 c4       	rjmp	.+2444   	; 0x38a0 <ProcessInput+0xc26>
                    SetResponse(elements++, A_DONTSEE, L_DONTSEE, TEASER);                
                }
            }

        //Look around or at objects
        } else if (data[0] == 'l') {
    2f14:	8c 36       	cpi	r24, 0x6C	; 108
    2f16:	09 f0       	breq	.+2      	; 0x2f1a <ProcessInput+0x2a0>
    2f18:	59 c1       	rjmp	.+690    	; 0x31cc <ProcessInput+0x552>
    2f1a:	e0 91 3e 38 	lds	r30, 0x383E	; 0x80383e <currDepth>
            if (inputLen == 1) {
    2f1e:	b1 e0       	ldi	r27, 0x01	; 1
    2f20:	fb 12       	cpse	r15, r27
    2f22:	f1 c0       	rjmp	.+482    	; 0x3106 <ProcessInput+0x48c>

                //Show info about this area first
                SetResponse(elements++, currObj.addrStr[DESC], currObj.lenStr[DESC],GAME);
    2f24:	80 91 49 3a 	lds	r24, 0x3A49	; 0x803a49 <currObj+0x1c>
    2f28:	90 91 4a 3a 	lds	r25, 0x3A4A	; 0x803a4a <currObj+0x1d>
    return 0;
}

//
void SetResponse(uint8_t number, uint16_t address, uint16_t length, uint8_t type){
    reactStr[0][number]=address;
    2f2c:	40 91 3b 3a 	lds	r20, 0x3A3B	; 0x803a3b <currObj+0xe>
    2f30:	50 91 3c 3a 	lds	r21, 0x3A3C	; 0x803a3c <currObj+0xf>
    2f34:	40 93 2f 39 	sts	0x392F, r20	; 0x80392f <reactStr+0x2>
    2f38:	50 93 30 39 	sts	0x3930, r21	; 0x803930 <reactStr+0x3>
    reactStr[1][number]=length;
    2f3c:	80 93 6f 39 	sts	0x396F, r24	; 0x80396f <reactStr+0x42>
    2f40:	90 93 70 39 	sts	0x3970, r25	; 0x803970 <reactStr+0x43>
    reactStr[2][number]=type;
    2f44:	10 92 af 39 	sts	0x39AF, r1	; 0x8039af <reactStr+0x82>
    2f48:	10 92 b0 39 	sts	0x39B0, r1	; 0x8039b0 <reactStr+0x83>
    return 0;
}

//
void SetResponse(uint8_t number, uint16_t address, uint16_t length, uint8_t type){
    reactStr[0][number]=address;
    2f4c:	20 93 31 39 	sts	0x3931, r18	; 0x803931 <reactStr+0x4>
    2f50:	30 93 32 39 	sts	0x3932, r19	; 0x803932 <reactStr+0x5>
    reactStr[1][number]=length;
    2f54:	82 e0       	ldi	r24, 0x02	; 2
    2f56:	90 e0       	ldi	r25, 0x00	; 0
    2f58:	80 93 71 39 	sts	0x3971, r24	; 0x803971 <reactStr+0x44>
    2f5c:	90 93 72 39 	sts	0x3972, r25	; 0x803972 <reactStr+0x45>
    reactStr[2][number]=type;
    2f60:	00 93 b1 39 	sts	0x39B1, r16	; 0x8039b1 <reactStr+0x84>
    2f64:	10 93 b2 39 	sts	0x39B2, r17	; 0x8039b2 <reactStr+0x85>
    return 0;
}

//
void SetResponse(uint8_t number, uint16_t address, uint16_t length, uint8_t type){
    reactStr[0][number]=address;
    2f68:	8b ee       	ldi	r24, 0xEB	; 235
    2f6a:	99 e7       	ldi	r25, 0x79	; 121
    2f6c:	80 93 33 39 	sts	0x3933, r24	; 0x803933 <reactStr+0x6>
    2f70:	90 93 34 39 	sts	0x3934, r25	; 0x803934 <reactStr+0x7>
    reactStr[1][number]=length;
    2f74:	85 e1       	ldi	r24, 0x15	; 21
    2f76:	90 e0       	ldi	r25, 0x00	; 0
    2f78:	80 93 73 39 	sts	0x3973, r24	; 0x803973 <reactStr+0x46>
    2f7c:	90 93 74 39 	sts	0x3974, r25	; 0x803974 <reactStr+0x47>
    reactStr[2][number]=type;
    2f80:	00 93 b3 39 	sts	0x39B3, r16	; 0x8039b3 <reactStr+0x86>
    2f84:	10 93 b4 39 	sts	0x39B4, r17	; 0x8039b4 <reactStr+0x87>
                SetResponse(elements++, currObj.addrStr[DESC], currObj.lenStr[DESC],GAME);
                SetResponse(elements++, A_LF, 2, TEASER);
                SetResponse(elements++, A_LOOK, L_LOOK, TEASER);

                //Check the visible children first
                route[currDepth+1] = 0;
    2f88:	f0 e0       	ldi	r31, 0x00	; 0
    2f8a:	ee 0f       	add	r30, r30
    2f8c:	ff 1f       	adc	r31, r31
    2f8e:	e1 51       	subi	r30, 0x11	; 17
    2f90:	f6 4c       	sbci	r31, 0xC6	; 198
    2f92:	10 82       	st	Z, r1
    2f94:	11 82       	std	Z+1, r1	; 0x01
            if (inputLen == 1) {

                //Show info about this area first
                SetResponse(elements++, currObj.addrStr[DESC], currObj.lenStr[DESC],GAME);
                SetResponse(elements++, A_LF, 2, TEASER);
                SetResponse(elements++, A_LOOK, L_LOOK, TEASER);
    2f96:	14 e0       	ldi	r17, 0x04	; 4
    2f98:	91 2e       	mov	r9, r17
    return 0;
}

//
void SetResponse(uint8_t number, uint16_t address, uint16_t length, uint8_t type){
    reactStr[0][number]=address;
    2f9a:	07 e5       	ldi	r16, 0x57	; 87
    2f9c:	e0 2e       	mov	r14, r16
    2f9e:	0a e7       	ldi	r16, 0x7A	; 122
    2fa0:	f0 2e       	mov	r15, r16
    reactStr[1][number]=length;
    2fa2:	82 e0       	ldi	r24, 0x02	; 2
    2fa4:	c8 2e       	mov	r12, r24
    2fa6:	d1 2c       	mov	r13, r1
    reactStr[2][number]=type;
    2fa8:	aa 24       	eor	r10, r10
    2faa:	a3 94       	inc	r10
    2fac:	b1 2c       	mov	r11, r1
                SetResponse(elements++, A_LOOK, L_LOOK, TEASER);

                //Check the visible children first
                route[currDepth+1] = 0;
                do{
                    route[currDepth+1] = FindChild(route[currDepth], 0, route[currDepth+1]);
    2fae:	80 91 3e 38 	lds	r24, 0x383E	; 0x80383e <currDepth>
    2fb2:	90 e0       	ldi	r25, 0x00	; 0
    2fb4:	8c 01       	movw	r16, r24
    2fb6:	00 0f       	add	r16, r16
    2fb8:	11 1f       	adc	r17, r17
    2fba:	01 51       	subi	r16, 0x11	; 17
    2fbc:	16 4c       	sbci	r17, 0xC6	; 198
    2fbe:	f8 01       	movw	r30, r16
    2fc0:	40 81       	ld	r20, Z
    2fc2:	51 81       	ldd	r21, Z+1	; 0x01
    2fc4:	88 0f       	add	r24, r24
    2fc6:	99 1f       	adc	r25, r25
    2fc8:	fc 01       	movw	r30, r24
    2fca:	e3 51       	subi	r30, 0x13	; 19
    2fcc:	f6 4c       	sbci	r31, 0xC6	; 198
    2fce:	60 e0       	ldi	r22, 0x00	; 0
    2fd0:	80 81       	ld	r24, Z
    2fd2:	91 81       	ldd	r25, Z+1	; 0x01
    2fd4:	d0 da       	rcall	.-2656   	; 0x2576 <FindChild>
    2fd6:	d8 01       	movw	r26, r16
    2fd8:	8d 93       	st	X+, r24
    2fda:	9c 93       	st	X, r25
                    if (route[currDepth+1]) {
    2fdc:	e0 91 3e 38 	lds	r30, 0x383E	; 0x80383e <currDepth>
    2fe0:	f0 e0       	ldi	r31, 0x00	; 0
    2fe2:	ee 0f       	add	r30, r30
    2fe4:	ff 1f       	adc	r31, r31
    2fe6:	e1 51       	subi	r30, 0x11	; 17
    2fe8:	f6 4c       	sbci	r31, 0xC6	; 198
    2fea:	80 81       	ld	r24, Z
    2fec:	91 81       	ldd	r25, Z+1	; 0x01
    2fee:	00 97       	sbiw	r24, 0x00	; 0
    2ff0:	09 f4       	brne	.+2      	; 0x2ff4 <ProcessInput+0x37a>
    2ff2:	4a c0       	rjmp	.+148    	; 0x3088 <ProcessInput+0x40e>
                        if ((route[currDepth+1] != inventory[0])&&(route[currDepth+1] != inventory[1])) {
    2ff4:	20 91 4e 38 	lds	r18, 0x384E	; 0x80384e <inventory>
    2ff8:	30 91 4f 38 	lds	r19, 0x384F	; 0x80384f <inventory+0x1>
    2ffc:	82 17       	cp	r24, r18
    2ffe:	93 07       	cpc	r25, r19
    3000:	09 f4       	brne	.+2      	; 0x3004 <ProcessInput+0x38a>
    3002:	42 c0       	rjmp	.+132    	; 0x3088 <ProcessInput+0x40e>
    3004:	20 91 50 38 	lds	r18, 0x3850	; 0x803850 <inventory+0x2>
    3008:	30 91 51 38 	lds	r19, 0x3851	; 0x803851 <inventory+0x3>
    300c:	82 17       	cp	r24, r18
    300e:	93 07       	cpc	r25, r19
                            PopulateObject(route[currDepth+1], &actObj1);
    3010:	d9 f1       	breq	.+118    	; 0x3088 <ProcessInput+0x40e>
    3012:	6c ee       	ldi	r22, 0xEC	; 236
    3014:	78 e3       	ldi	r23, 0x38	; 56
    3016:	ef d9       	rcall	.-3106   	; 0x23f6 <PopulateObject>
                            SetResponse(elements++, actObj1.addrStr[NAME], actObj1.lenStr[NAME],GAME);
    3018:	80 91 06 39 	lds	r24, 0x3906	; 0x803906 <actObj1.3956+0x1a>
    301c:	90 91 07 39 	lds	r25, 0x3907	; 0x803907 <actObj1.3956+0x1b>
    return 0;
}

//
void SetResponse(uint8_t number, uint16_t address, uint16_t length, uint8_t type){
    reactStr[0][number]=address;
    3020:	e9 2d       	mov	r30, r9
    3022:	f0 e0       	ldi	r31, 0x00	; 0
    3024:	df 01       	movw	r26, r30
    3026:	aa 0f       	add	r26, r26
    3028:	bb 1f       	adc	r27, r27
    302a:	a3 5d       	subi	r26, 0xD3	; 211
    302c:	b6 4c       	sbci	r27, 0xC6	; 198
    302e:	20 91 f8 38 	lds	r18, 0x38F8	; 0x8038f8 <actObj1.3956+0xc>
    3032:	30 91 f9 38 	lds	r19, 0x38F9	; 0x8038f9 <actObj1.3956+0xd>
    3036:	2d 93       	st	X+, r18
    3038:	3c 93       	st	X, r19
    reactStr[1][number]=length;
    303a:	df 01       	movw	r26, r30
    303c:	aa 0f       	add	r26, r26
    303e:	bb 1f       	adc	r27, r27
    3040:	a3 59       	subi	r26, 0x93	; 147
    3042:	b6 4c       	sbci	r27, 0xC6	; 198
    3044:	8d 93       	st	X+, r24
    3046:	9c 93       	st	X, r25
    reactStr[2][number]=type;
    3048:	ee 0f       	add	r30, r30
    304a:	ff 1f       	adc	r31, r31
    304c:	e3 55       	subi	r30, 0x53	; 83
    304e:	f6 4c       	sbci	r31, 0xC6	; 198
    3050:	10 82       	st	Z, r1
    3052:	11 82       	std	Z+1, r1	; 0x01
    return 0;
}

//
void SetResponse(uint8_t number, uint16_t address, uint16_t length, uint8_t type){
    reactStr[0][number]=address;
    3054:	81 e0       	ldi	r24, 0x01	; 1
    3056:	89 0d       	add	r24, r9
    3058:	90 e0       	ldi	r25, 0x00	; 0
    305a:	93 94       	inc	r9
    305c:	93 94       	inc	r9
    305e:	fc 01       	movw	r30, r24
    3060:	ee 0f       	add	r30, r30
    3062:	ff 1f       	adc	r31, r31
    3064:	e3 5d       	subi	r30, 0xD3	; 211
    3066:	f6 4c       	sbci	r31, 0xC6	; 198
    3068:	e0 82       	st	Z, r14
    306a:	f1 82       	std	Z+1, r15	; 0x01
    reactStr[1][number]=length;
    306c:	fc 01       	movw	r30, r24
    306e:	ee 0f       	add	r30, r30
    3070:	ff 1f       	adc	r31, r31
    3072:	e3 59       	subi	r30, 0x93	; 147
    3074:	f6 4c       	sbci	r31, 0xC6	; 198
    3076:	c0 82       	st	Z, r12
    3078:	d1 82       	std	Z+1, r13	; 0x01
    reactStr[2][number]=type;
    307a:	88 0f       	add	r24, r24
    307c:	99 1f       	adc	r25, r25
    307e:	fc 01       	movw	r30, r24
    3080:	e3 55       	subi	r30, 0x53	; 83
    3082:	f6 4c       	sbci	r31, 0xC6	; 198
    3084:	a0 82       	st	Z, r10
    3086:	b1 82       	std	Z+1, r11	; 0x01
                            PopulateObject(route[currDepth+1], &actObj1);
                            SetResponse(elements++, actObj1.addrStr[NAME], actObj1.lenStr[NAME],GAME);
                            SetResponse(elements++, A_COMMA, L_COMMA, TEASER);
                        }
                    }
                }while (route[currDepth+1]);
    3088:	20 91 3e 38 	lds	r18, 0x383E	; 0x80383e <currDepth>
    308c:	82 2f       	mov	r24, r18
    308e:	90 e0       	ldi	r25, 0x00	; 0
    3090:	fc 01       	movw	r30, r24
    3092:	ee 0f       	add	r30, r30
    3094:	ff 1f       	adc	r31, r31
    3096:	e1 51       	subi	r30, 0x11	; 17
    3098:	f6 4c       	sbci	r31, 0xC6	; 198
    309a:	40 81       	ld	r20, Z
    309c:	51 81       	ldd	r21, Z+1	; 0x01
    309e:	45 2b       	or	r20, r21
    30a0:	09 f0       	breq	.+2      	; 0x30a4 <ProcessInput+0x42a>
    30a2:	85 cf       	rjmp	.-246    	; 0x2fae <ProcessInput+0x334>

                //Look back if not on level 0
                if (currDepth) {
    30a4:	22 23       	and	r18, r18
    30a6:	61 f1       	breq	.+88     	; 0x3100 <ProcessInput+0x486>
                    PopulateObject(route[currDepth-1], &actObj1);
    30a8:	88 0f       	add	r24, r24
    30aa:	99 1f       	adc	r25, r25
    30ac:	fc 01       	movw	r30, r24
    30ae:	e5 51       	subi	r30, 0x15	; 21
    30b0:	f6 4c       	sbci	r31, 0xC6	; 198
    30b2:	6c ee       	ldi	r22, 0xEC	; 236
    30b4:	78 e3       	ldi	r23, 0x38	; 56
    30b6:	80 81       	ld	r24, Z
    30b8:	91 81       	ldd	r25, Z+1	; 0x01
    30ba:	9d d9       	rcall	.-3270   	; 0x23f6 <PopulateObject>
                    SetResponse(elements++, actObj1.addrStr[NAME], actObj1.lenStr[NAME],GAME);
    30bc:	20 91 06 39 	lds	r18, 0x3906	; 0x803906 <actObj1.3956+0x1a>
    30c0:	30 91 07 39 	lds	r19, 0x3907	; 0x803907 <actObj1.3956+0x1b>
    30c4:	11 e0       	ldi	r17, 0x01	; 1
    30c6:	19 0d       	add	r17, r9
    return 0;
}

//
void SetResponse(uint8_t number, uint16_t address, uint16_t length, uint8_t type){
    reactStr[0][number]=address;
    30c8:	89 2d       	mov	r24, r9
    30ca:	90 e0       	ldi	r25, 0x00	; 0
    30cc:	fc 01       	movw	r30, r24
    30ce:	ee 0f       	add	r30, r30
    30d0:	ff 1f       	adc	r31, r31
    30d2:	e3 5d       	subi	r30, 0xD3	; 211
    30d4:	f6 4c       	sbci	r31, 0xC6	; 198
    30d6:	40 91 f8 38 	lds	r20, 0x38F8	; 0x8038f8 <actObj1.3956+0xc>
    30da:	50 91 f9 38 	lds	r21, 0x38F9	; 0x8038f9 <actObj1.3956+0xd>
    30de:	40 83       	st	Z, r20
    30e0:	51 83       	std	Z+1, r21	; 0x01
    reactStr[1][number]=length;
    30e2:	fc 01       	movw	r30, r24
    30e4:	ee 0f       	add	r30, r30
    30e6:	ff 1f       	adc	r31, r31
    30e8:	e3 59       	subi	r30, 0x93	; 147
    30ea:	f6 4c       	sbci	r31, 0xC6	; 198
    30ec:	20 83       	st	Z, r18
    30ee:	31 83       	std	Z+1, r19	; 0x01
    reactStr[2][number]=type;
    30f0:	88 0f       	add	r24, r24
    30f2:	99 1f       	adc	r25, r25
    30f4:	fc 01       	movw	r30, r24
    30f6:	e3 55       	subi	r30, 0x53	; 83
    30f8:	f6 4c       	sbci	r31, 0xC6	; 198
    30fa:	10 82       	st	Z, r1
    30fc:	11 82       	std	Z+1, r1	; 0x01
    30fe:	28 c5       	rjmp	.+2640   	; 0x3b50 <ProcessInput+0xed6>

                //Look back if not on level 0
                if (currDepth) {
                    PopulateObject(route[currDepth-1], &actObj1);
                    SetResponse(elements++, actObj1.addrStr[NAME], actObj1.lenStr[NAME],GAME);
                } else elements-=1;
    3100:	1f ef       	ldi	r17, 0xFF	; 255
    3102:	19 0d       	add	r17, r9
    3104:	25 c5       	rjmp	.+2634   	; 0x3b50 <ProcessInput+0xed6>

            } else {
                route[currDepth+1] = FindChild(route[currDepth], data[1], 0);
    3106:	ee 2e       	mov	r14, r30
    3108:	f1 2c       	mov	r15, r1
    310a:	f7 01       	movw	r30, r14
    310c:	ee 0f       	add	r30, r30
    310e:	ff 1f       	adc	r31, r31
    3110:	e3 51       	subi	r30, 0x13	; 19
    3112:	f6 4c       	sbci	r31, 0xC6	; 198
    3114:	40 e0       	ldi	r20, 0x00	; 0
    3116:	50 e0       	ldi	r21, 0x00	; 0
    3118:	d3 01       	movw	r26, r6
    311a:	11 96       	adiw	r26, 0x01	; 1
    311c:	6c 91       	ld	r22, X
    311e:	80 81       	ld	r24, Z
    3120:	91 81       	ldd	r25, Z+1	; 0x01
    3122:	29 da       	rcall	.-2990   	; 0x2576 <FindChild>
    3124:	f7 01       	movw	r30, r14
    3126:	ee 0f       	add	r30, r30
    3128:	ff 1f       	adc	r31, r31
    312a:	e1 51       	subi	r30, 0x11	; 17
    312c:	f6 4c       	sbci	r31, 0xC6	; 198
    312e:	80 83       	st	Z, r24
    3130:	91 83       	std	Z+1, r25	; 0x01
                if (route[currDepth+1]) {
    3132:	90 91 3e 38 	lds	r25, 0x383E	; 0x80383e <currDepth>
    3136:	29 2f       	mov	r18, r25
    3138:	30 e0       	ldi	r19, 0x00	; 0
    313a:	f9 01       	movw	r30, r18
    313c:	ee 0f       	add	r30, r30
    313e:	ff 1f       	adc	r31, r31
    3140:	e1 51       	subi	r30, 0x11	; 17
    3142:	f6 4c       	sbci	r31, 0xC6	; 198
    3144:	40 81       	ld	r20, Z
    3146:	51 81       	ldd	r21, Z+1	; 0x01
    3148:	41 15       	cp	r20, r1
    314a:	51 05       	cpc	r21, r1
    314c:	21 f0       	breq	.+8      	; 0x3156 <ProcessInput+0x4dc>
                    PopulateObject(route[currDepth+1], &actObj1);
    314e:	6c ee       	ldi	r22, 0xEC	; 236
    3150:	78 e3       	ldi	r23, 0x38	; 56
    3152:	ca 01       	movw	r24, r20
    3154:	1c c0       	rjmp	.+56     	; 0x318e <ProcessInput+0x514>
                    SetResponse(elements++, actObj1.addrStr[DESC], actObj1.lenStr[DESC],GAME);   
                } else if (currDepth) {
    3156:	99 23       	and	r25, r25
                    if (CheckLetter(route[currDepth-1], data[1])) {
    3158:	81 f1       	breq	.+96     	; 0x31ba <ProcessInput+0x540>
    315a:	22 0f       	add	r18, r18
    315c:	33 1f       	adc	r19, r19
    315e:	f9 01       	movw	r30, r18
    3160:	e5 51       	subi	r30, 0x15	; 21
    3162:	f6 4c       	sbci	r31, 0xC6	; 198
    3164:	d3 01       	movw	r26, r6
    3166:	11 96       	adiw	r26, 0x01	; 1
    3168:	6c 91       	ld	r22, X
    316a:	80 81       	ld	r24, Z
    316c:	91 81       	ldd	r25, Z+1	; 0x01
    316e:	bc d9       	rcall	.-3208   	; 0x24e8 <CheckLetter>
    3170:	81 11       	cpse	r24, r1
    3172:	02 c0       	rjmp	.+4      	; 0x3178 <ProcessInput+0x4fe>
}

//The game logic!
uint8_t ProcessInput(uint8_t *data){
    static object_model_t actObj1, actObj2;
    uint8_t elements = 1;
    3174:	11 e0       	ldi	r17, 0x01	; 1
                if (route[currDepth+1]) {
                    PopulateObject(route[currDepth+1], &actObj1);
                    SetResponse(elements++, actObj1.addrStr[DESC], actObj1.lenStr[DESC],GAME);   
                } else if (currDepth) {
                    if (CheckLetter(route[currDepth-1], data[1])) {
                        PopulateObject(route[currDepth-1], &actObj1);
    3176:	ec c4       	rjmp	.+2520   	; 0x3b50 <ProcessInput+0xed6>
    3178:	e0 91 3e 38 	lds	r30, 0x383E	; 0x80383e <currDepth>
    317c:	f0 e0       	ldi	r31, 0x00	; 0
    317e:	ee 0f       	add	r30, r30
    3180:	ff 1f       	adc	r31, r31
    3182:	e5 51       	subi	r30, 0x15	; 21
    3184:	f6 4c       	sbci	r31, 0xC6	; 198
    3186:	6c ee       	ldi	r22, 0xEC	; 236
    3188:	78 e3       	ldi	r23, 0x38	; 56
    318a:	80 81       	ld	r24, Z
    318c:	91 81       	ldd	r25, Z+1	; 0x01
    318e:	33 d9       	rcall	.-3482   	; 0x23f6 <PopulateObject>
                        SetResponse(elements++, actObj1.addrStr[DESC], actObj1.lenStr[DESC],GAME);
    3190:	80 91 08 39 	lds	r24, 0x3908	; 0x803908 <actObj1.3956+0x1c>
    3194:	90 91 09 39 	lds	r25, 0x3909	; 0x803909 <actObj1.3956+0x1d>
    return 0;
}

//
void SetResponse(uint8_t number, uint16_t address, uint16_t length, uint8_t type){
    reactStr[0][number]=address;
    3198:	20 91 fa 38 	lds	r18, 0x38FA	; 0x8038fa <actObj1.3956+0xe>
    319c:	30 91 fb 38 	lds	r19, 0x38FB	; 0x8038fb <actObj1.3956+0xf>
    31a0:	20 93 2f 39 	sts	0x392F, r18	; 0x80392f <reactStr+0x2>
    31a4:	30 93 30 39 	sts	0x3930, r19	; 0x803930 <reactStr+0x3>
    reactStr[1][number]=length;
    31a8:	80 93 6f 39 	sts	0x396F, r24	; 0x80396f <reactStr+0x42>
    31ac:	90 93 70 39 	sts	0x3970, r25	; 0x803970 <reactStr+0x43>
    reactStr[2][number]=type;
    31b0:	10 92 af 39 	sts	0x39AF, r1	; 0x8039af <reactStr+0x82>
    31b4:	10 92 b0 39 	sts	0x39B0, r1	; 0x8039b0 <reactStr+0x83>
    31b8:	32 ce       	rjmp	.-924    	; 0x2e1e <ProcessInput+0x1a4>
    return 0;
}

//
void SetResponse(uint8_t number, uint16_t address, uint16_t length, uint8_t type){
    reactStr[0][number]=address;
    31ba:	81 ed       	ldi	r24, 0xD1	; 209
    31bc:	99 e7       	ldi	r25, 0x79	; 121
    31be:	80 93 2f 39 	sts	0x392F, r24	; 0x80392f <reactStr+0x2>
    31c2:	90 93 30 39 	sts	0x3930, r25	; 0x803930 <reactStr+0x3>
    reactStr[1][number]=length;
    31c6:	8a e1       	ldi	r24, 0x1A	; 26
    31c8:	90 e0       	ldi	r25, 0x00	; 0
    31ca:	c9 c2       	rjmp	.+1426   	; 0x375e <ProcessInput+0xae4>
                    SetResponse(elements++, A_DONTSEE, L_DONTSEE, TEASER);
                }
            }
        
        //Pick up an object
        } else if (data[0] == 'p') {
    31cc:	80 37       	cpi	r24, 0x70	; 112
    31ce:	09 f0       	breq	.+2      	; 0x31d2 <ProcessInput+0x558>
    31d0:	92 c0       	rjmp	.+292    	; 0x32f6 <ProcessInput+0x67c>
            if (inventory[0]&&inventory[1]) {
    31d2:	80 91 4e 38 	lds	r24, 0x384E	; 0x80384e <inventory>
    31d6:	90 91 4f 38 	lds	r25, 0x384F	; 0x80384f <inventory+0x1>
    31da:	89 2b       	or	r24, r25
    31dc:	79 f0       	breq	.+30     	; 0x31fc <ProcessInput+0x582>
    31de:	80 91 50 38 	lds	r24, 0x3850	; 0x803850 <inventory+0x2>
    31e2:	90 91 51 38 	lds	r25, 0x3851	; 0x803851 <inventory+0x3>
    31e6:	89 2b       	or	r24, r25
    31e8:	49 f0       	breq	.+18     	; 0x31fc <ProcessInput+0x582>
    return 0;
}

//
void SetResponse(uint8_t number, uint16_t address, uint16_t length, uint8_t type){
    reactStr[0][number]=address;
    31ea:	87 e0       	ldi	r24, 0x07	; 7
    31ec:	98 e7       	ldi	r25, 0x78	; 120
    31ee:	80 93 2f 39 	sts	0x392F, r24	; 0x80392f <reactStr+0x2>
    31f2:	90 93 30 39 	sts	0x3930, r25	; 0x803930 <reactStr+0x3>
    reactStr[1][number]=length;
    31f6:	89 e5       	ldi	r24, 0x59	; 89
    31f8:	90 e0       	ldi	r25, 0x00	; 0
    31fa:	b1 c2       	rjmp	.+1378   	; 0x375e <ProcessInput+0xae4>
        
        //Pick up an object
        } else if (data[0] == 'p') {
            if (inventory[0]&&inventory[1]) {
                SetResponse(elements++, A_CARRYTWO, L_CARRYTWO, TEASER);
            } else if (inputLen != 2) {
    31fc:	b2 e0       	ldi	r27, 0x02	; 2
    31fe:	fb 12       	cpse	r15, r27
    3200:	6f cd       	rjmp	.-1314   	; 0x2ce0 <ProcessInput+0x66>
                SetResponse(elements++, A_NOTPOSSIBLE, L_NOTPOSSIBLE, TEASER);
            } else {
                route[currDepth+1] = FindChild(route[currDepth], data[1], 0);
    3202:	00 91 3e 38 	lds	r16, 0x383E	; 0x80383e <currDepth>
    3206:	10 e0       	ldi	r17, 0x00	; 0
    3208:	f8 01       	movw	r30, r16
    320a:	ee 0f       	add	r30, r30
    320c:	ff 1f       	adc	r31, r31
    320e:	e3 51       	subi	r30, 0x13	; 19
    3210:	f6 4c       	sbci	r31, 0xC6	; 198
    3212:	40 e0       	ldi	r20, 0x00	; 0
    3214:	50 e0       	ldi	r21, 0x00	; 0
    3216:	d3 01       	movw	r26, r6
    3218:	11 96       	adiw	r26, 0x01	; 1
    321a:	6c 91       	ld	r22, X
    321c:	80 81       	ld	r24, Z
    321e:	91 81       	ldd	r25, Z+1	; 0x01
    3220:	aa d9       	rcall	.-3244   	; 0x2576 <FindChild>
    3222:	00 0f       	add	r16, r16
    3224:	11 1f       	adc	r17, r17
    3226:	f8 01       	movw	r30, r16
    3228:	e1 51       	subi	r30, 0x11	; 17
    322a:	f6 4c       	sbci	r31, 0xC6	; 198
    322c:	80 83       	st	Z, r24
    322e:	91 83       	std	Z+1, r25	; 0x01
                if (route[currDepth+1]) {
    3230:	20 91 3e 38 	lds	r18, 0x383E	; 0x80383e <currDepth>
    3234:	30 e0       	ldi	r19, 0x00	; 0
    3236:	2f 5f       	subi	r18, 0xFF	; 255
    3238:	3f 4f       	sbci	r19, 0xFF	; 255
    323a:	22 0f       	add	r18, r18
    323c:	33 1f       	adc	r19, r19
    323e:	f9 01       	movw	r30, r18
    3240:	e3 51       	subi	r30, 0x13	; 19
    3242:	f6 4c       	sbci	r31, 0xC6	; 198
    3244:	80 81       	ld	r24, Z
    3246:	91 81       	ldd	r25, Z+1	; 0x01
    3248:	00 97       	sbiw	r24, 0x00	; 0
    324a:	09 f4       	brne	.+2      	; 0x324e <ProcessInput+0x5d4>
    324c:	38 c3       	rjmp	.+1648   	; 0x38be <ProcessInput+0xc44>
                    if ((route[currDepth+1] == inventory[0])||(route[currDepth+1] == inventory[1])) {
    324e:	40 91 4e 38 	lds	r20, 0x384E	; 0x80384e <inventory>
    3252:	50 91 4f 38 	lds	r21, 0x384F	; 0x80384f <inventory+0x1>
    3256:	84 17       	cp	r24, r20
    3258:	95 07       	cpc	r25, r21
    325a:	39 f0       	breq	.+14     	; 0x326a <ProcessInput+0x5f0>
    325c:	40 91 50 38 	lds	r20, 0x3850	; 0x803850 <inventory+0x2>
    3260:	50 91 51 38 	lds	r21, 0x3851	; 0x803851 <inventory+0x3>
    3264:	84 17       	cp	r24, r20
    3266:	95 07       	cpc	r25, r21
    3268:	c1 f4       	brne	.+48     	; 0x329a <ProcessInput+0x620>
    return 0;
}

//
void SetResponse(uint8_t number, uint16_t address, uint16_t length, uint8_t type){
    reactStr[0][number]=address;
    326a:	82 ee       	ldi	r24, 0xE2	; 226
    326c:	97 e7       	ldi	r25, 0x77	; 119
    326e:	80 93 2f 39 	sts	0x392F, r24	; 0x80392f <reactStr+0x2>
    3272:	90 93 30 39 	sts	0x3930, r25	; 0x803930 <reactStr+0x3>
    reactStr[1][number]=length;
    3276:	85 e2       	ldi	r24, 0x25	; 37
    3278:	90 e0       	ldi	r25, 0x00	; 0
    327a:	80 93 6f 39 	sts	0x396F, r24	; 0x80396f <reactStr+0x42>
    327e:	90 93 70 39 	sts	0x3970, r25	; 0x803970 <reactStr+0x43>
    reactStr[2][number]=type;
    3282:	81 e0       	ldi	r24, 0x01	; 1
    3284:	90 e0       	ldi	r25, 0x00	; 0
    3286:	80 93 af 39 	sts	0x39AF, r24	; 0x8039af <reactStr+0x82>
    328a:	90 93 b0 39 	sts	0x39B0, r25	; 0x8039b0 <reactStr+0x83>
            } else {
                route[currDepth+1] = FindChild(route[currDepth], data[1], 0);
                if (route[currDepth+1]) {
                    if ((route[currDepth+1] == inventory[0])||(route[currDepth+1] == inventory[1])) {
                        SetResponse(elements++, A_ALREADYCARRYING, L_ALREADYCARRYING, TEASER);
                        route[currDepth+1] = 0;
    328e:	f9 01       	movw	r30, r18
    3290:	e3 51       	subi	r30, 0x13	; 19
    3292:	f6 4c       	sbci	r31, 0xC6	; 198
    3294:	10 82       	st	Z, r1
    3296:	11 82       	std	Z+1, r1	; 0x01
                    } else {
                        //Put item in the inventory if possible
                        PopulateObject(route[currDepth+1], &actObj1);  
    3298:	c2 cd       	rjmp	.-1148   	; 0x2e1e <ProcessInput+0x1a4>
    329a:	6c ee       	ldi	r22, 0xEC	; 236
    329c:	78 e3       	ldi	r23, 0x38	; 56
    329e:	ab d8       	rcall	.-3754   	; 0x23f6 <PopulateObject>
                        if (CheckState(actObj1.byteField[ACTION_ACL])) {
    32a0:	80 91 f3 38 	lds	r24, 0x38F3	; 0x8038f3 <actObj1.3956+0x7>
    32a4:	0e 94 68 09 	call	0x12d0	; 0x12d0 <CheckState>
    32a8:	88 23       	and	r24, r24
    32aa:	09 f4       	brne	.+2      	; 0x32ae <ProcessInput+0x634>
    32ac:	e3 c2       	rjmp	.+1478   	; 0x3874 <ProcessInput+0xbfa>
                            if (actObj1.byteField[ITEM_NR]) {
    32ae:	80 91 f7 38 	lds	r24, 0x38F7	; 0x8038f7 <actObj1.3956+0xb>
    32b2:	88 23       	and	r24, r24
    32b4:	09 f4       	brne	.+2      	; 0x32b8 <ProcessInput+0x63e>
    32b6:	14 cd       	rjmp	.-1496   	; 0x2ce0 <ProcessInput+0x66>
                                if (inventory[0]) {
    32b8:	80 91 4e 38 	lds	r24, 0x384E	; 0x80384e <inventory>
    32bc:	90 91 4f 38 	lds	r25, 0x384F	; 0x80384f <inventory+0x1>
    32c0:	e0 91 3e 38 	lds	r30, 0x383E	; 0x80383e <currDepth>
                                    inventory[1] = route[currDepth+1];
    32c4:	f0 e0       	ldi	r31, 0x00	; 0
    32c6:	ee 0f       	add	r30, r30
    32c8:	ff 1f       	adc	r31, r31
    32ca:	e1 51       	subi	r30, 0x11	; 17
    32cc:	f6 4c       	sbci	r31, 0xC6	; 198
                    } else {
                        //Put item in the inventory if possible
                        PopulateObject(route[currDepth+1], &actObj1);  
                        if (CheckState(actObj1.byteField[ACTION_ACL])) {
                            if (actObj1.byteField[ITEM_NR]) {
                                if (inventory[0]) {
    32ce:	89 2b       	or	r24, r25
    32d0:	39 f0       	breq	.+14     	; 0x32e0 <ProcessInput+0x666>
                                    inventory[1] = route[currDepth+1];
    32d2:	80 81       	ld	r24, Z
    32d4:	91 81       	ldd	r25, Z+1	; 0x01
    32d6:	80 93 50 38 	sts	0x3850, r24	; 0x803850 <inventory+0x2>
    32da:	90 93 51 38 	sts	0x3851, r25	; 0x803851 <inventory+0x3>
    32de:	06 c0       	rjmp	.+12     	; 0x32ec <ProcessInput+0x672>
                                } else {
                                    inventory[0] = route[currDepth+1];
    32e0:	80 81       	ld	r24, Z
    32e2:	91 81       	ldd	r25, Z+1	; 0x01
    32e4:	80 93 4e 38 	sts	0x384E, r24	; 0x80384e <inventory>
    32e8:	90 93 4f 38 	sts	0x384F, r25	; 0x80384f <inventory+0x1>
                                }
                                UpdateState(actObj1.byteField[ACTION_STATE]);
    32ec:	80 91 f6 38 	lds	r24, 0x38F6	; 0x8038f6 <actObj1.3956+0xa>
    32f0:	0e 94 47 09 	call	0x128e	; 0x128e <UpdateState>
    32f4:	2b c0       	rjmp	.+86     	; 0x334c <ProcessInput+0x6d2>
                } else SetResponse(elements++, A_NOSUCHOBJECT, L_NOSUCHOBJECT, TEASER);
            }
        } else

        //Drop item if in inventory
        if (data[0] == 'd') {
    32f6:	84 36       	cpi	r24, 0x64	; 100
    32f8:	d9 f4       	brne	.+54     	; 0x3330 <ProcessInput+0x6b6>
            if ((inventory[0] == 0)&&(inventory[1] == 0)){
    32fa:	80 91 4e 38 	lds	r24, 0x384E	; 0x80384e <inventory>
    32fe:	90 91 4f 38 	lds	r25, 0x384F	; 0x80384f <inventory+0x1>
    3302:	00 97       	sbiw	r24, 0x00	; 0
    3304:	09 f0       	breq	.+2      	; 0x3308 <ProcessInput+0x68e>
    3306:	3c c4       	rjmp	.+2168   	; 0x3b80 <ProcessInput+0xf06>
    3308:	80 91 50 38 	lds	r24, 0x3850	; 0x803850 <inventory+0x2>
    330c:	90 91 51 38 	lds	r25, 0x3851	; 0x803851 <inventory+0x3>
    3310:	89 2b       	or	r24, r25
    3312:	49 f4       	brne	.+18     	; 0x3326 <ProcessInput+0x6ac>
    return 0;
}

//
void SetResponse(uint8_t number, uint16_t address, uint16_t length, uint8_t type){
    reactStr[0][number]=address;
    3314:	86 ea       	ldi	r24, 0xA6	; 166
    3316:	97 e7       	ldi	r25, 0x77	; 119
    3318:	80 93 2f 39 	sts	0x392F, r24	; 0x80392f <reactStr+0x2>
    331c:	90 93 30 39 	sts	0x3930, r25	; 0x803930 <reactStr+0x3>
    reactStr[1][number]=length;
    3320:	86 e2       	ldi	r24, 0x26	; 38
    3322:	90 e0       	ldi	r25, 0x00	; 0
    3324:	72 cd       	rjmp	.-1308   	; 0x2e0a <ProcessInput+0x190>

        //Drop item if in inventory
        if (data[0] == 'd') {
            if ((inventory[0] == 0)&&(inventory[1] == 0)){
                SetResponse(elements++, A_EMPTYHANDS, L_EMPTYHANDS, TEASER);
            } else if (inputLen != 2) {
    3326:	b2 e0       	ldi	r27, 0x02	; 2
    3328:	fb 16       	cp	r15, r27
    332a:	09 f4       	brne	.+2      	; 0x332e <ProcessInput+0x6b4>
    332c:	8b c4       	rjmp	.+2326   	; 0x3c44 <ProcessInput+0xfca>
    332e:	d8 cc       	rjmp	.-1616   	; 0x2ce0 <ProcessInput+0x66>
                }
            }
        } 

        //Inventory list
        else if (data[0] == 'i') {
    3330:	89 36       	cpi	r24, 0x69	; 105
            if ((inventory[0] == 0)&&(inventory[1] == 0)){
    3332:	81 f4       	brne	.+32     	; 0x3354 <ProcessInput+0x6da>
    3334:	80 91 4e 38 	lds	r24, 0x384E	; 0x80384e <inventory>
    3338:	90 91 4f 38 	lds	r25, 0x384F	; 0x80384f <inventory+0x1>
    333c:	89 2b       	or	r24, r25
    333e:	31 f4       	brne	.+12     	; 0x334c <ProcessInput+0x6d2>
    3340:	80 91 50 38 	lds	r24, 0x3850	; 0x803850 <inventory+0x2>
    3344:	90 91 51 38 	lds	r25, 0x3851	; 0x803851 <inventory+0x3>
    3348:	89 2b       	or	r24, r25
                SetResponse(elements++, A_EMPTYHANDS, L_EMPTYHANDS, TEASER);
                } else {
                    elements = ShowInventory(elements);
    334a:	21 f3       	breq	.-56     	; 0x3314 <ProcessInput+0x69a>
    334c:	81 e0       	ldi	r24, 0x01	; 1
    334e:	1a dc       	rcall	.-1996   	; 0x2b84 <ShowInventory>
    3350:	18 2f       	mov	r17, r24
    3352:	fe c3       	rjmp	.+2044   	; 0x3b50 <ProcessInput+0xed6>
                }        
        
        //Talk, use, give, read
        } else if ((data[0] == 't')||(data[0] == 'u')||(data[0] == 'g')||(data[0] == 'r')) {
    3354:	9c e8       	ldi	r25, 0x8C	; 140
    3356:	98 0f       	add	r25, r24
    3358:	92 30       	cpi	r25, 0x02	; 2
    335a:	28 f0       	brcs	.+10     	; 0x3366 <ProcessInput+0x6ec>
    335c:	87 36       	cpi	r24, 0x67	; 103
    335e:	19 f0       	breq	.+6      	; 0x3366 <ProcessInput+0x6ec>
    3360:	82 37       	cpi	r24, 0x72	; 114
    3362:	09 f0       	breq	.+2      	; 0x3366 <ProcessInput+0x6ec>
    3364:	b5 c2       	rjmp	.+1386   	; 0x38d0 <ProcessInput+0xc56>
            if ((inputLen<2)||(inputLen>3)) {
    3366:	8e ef       	ldi	r24, 0xFE	; 254
    3368:	8f 0d       	add	r24, r15
    336a:	82 30       	cpi	r24, 0x02	; 2
    336c:	08 f0       	brcs	.+2      	; 0x3370 <ProcessInput+0x6f6>
    336e:	b8 cc       	rjmp	.-1680   	; 0x2ce0 <ProcessInput+0x66>
                SetResponse(elements++, A_NOTPOSSIBLE, L_NOTPOSSIBLE, TEASER);                
            
            //Check for visible person or object first
            } else {
                route[currDepth+1] = FindChild(route[currDepth], data[inputLen-1], 0);
    3370:	e0 91 3e 38 	lds	r30, 0x383E	; 0x80383e <currDepth>
    3374:	0e 2f       	mov	r16, r30
    3376:	10 e0       	ldi	r17, 0x00	; 0
    3378:	d3 01       	movw	r26, r6
    337a:	af 0d       	add	r26, r15
    337c:	b1 1d       	adc	r27, r1
    337e:	11 97       	sbiw	r26, 0x01	; 1
    3380:	f8 01       	movw	r30, r16
    3382:	ee 0f       	add	r30, r30
    3384:	ff 1f       	adc	r31, r31
    3386:	e3 51       	subi	r30, 0x13	; 19
    3388:	f6 4c       	sbci	r31, 0xC6	; 198
    338a:	40 e0       	ldi	r20, 0x00	; 0
    338c:	50 e0       	ldi	r21, 0x00	; 0
    338e:	6c 91       	ld	r22, X
    3390:	80 81       	ld	r24, Z
    3392:	91 81       	ldd	r25, Z+1	; 0x01
    3394:	f0 d8       	rcall	.-3616   	; 0x2576 <FindChild>
    3396:	f8 01       	movw	r30, r16
    3398:	ee 0f       	add	r30, r30
    339a:	ff 1f       	adc	r31, r31
    339c:	e1 51       	subi	r30, 0x11	; 17
    339e:	f6 4c       	sbci	r31, 0xC6	; 198
    33a0:	80 83       	st	Z, r24
    33a2:	91 83       	std	Z+1, r25	; 0x01
                if (route[currDepth+1]) {
    33a4:	e0 91 3e 38 	lds	r30, 0x383E	; 0x80383e <currDepth>
    33a8:	f0 e0       	ldi	r31, 0x00	; 0
    33aa:	ee 0f       	add	r30, r30
    33ac:	ff 1f       	adc	r31, r31
    33ae:	e1 51       	subi	r30, 0x11	; 17
    33b0:	f6 4c       	sbci	r31, 0xC6	; 198
    33b2:	80 81       	ld	r24, Z
    33b4:	91 81       	ldd	r25, Z+1	; 0x01
    33b6:	00 97       	sbiw	r24, 0x00	; 0
    33b8:	09 f4       	brne	.+2      	; 0x33bc <ProcessInput+0x742>
    33ba:	78 c2       	rjmp	.+1264   	; 0x38ac <ProcessInput+0xc32>
                    
                    //Give item to person / use item on object 
                    if ((inputLen == 3)&&((data[0] == 'u')||(data[0] == 'g'))) {
    33bc:	f3 e0       	ldi	r31, 0x03	; 3
    33be:	ff 12       	cpse	r15, r31
    33c0:	60 c1       	rjmp	.+704    	; 0x3682 <ProcessInput+0xa08>
    33c2:	d3 01       	movw	r26, r6
    33c4:	2c 91       	ld	r18, X
    33c6:	25 37       	cpi	r18, 0x75	; 117
    33c8:	19 f0       	breq	.+6      	; 0x33d0 <ProcessInput+0x756>
    33ca:	27 36       	cpi	r18, 0x67	; 103
    33cc:	09 f0       	breq	.+2      	; 0x33d0 <ProcessInput+0x756>
    33ce:	59 c1       	rjmp	.+690    	; 0x3682 <ProcessInput+0xa08>
    33d0:	00 e0       	ldi	r16, 0x00	; 0
    33d2:	11 e0       	ldi	r17, 0x01	; 1
    return 0;
}

//
void SetResponse(uint8_t number, uint16_t address, uint16_t length, uint8_t type){
    reactStr[0][number]=address;
    33d4:	41 e6       	ldi	r20, 0x61	; 97
    33d6:	c4 2e       	mov	r12, r20
    33d8:	49 e7       	ldi	r20, 0x79	; 121
    33da:	d4 2e       	mov	r13, r20
    reactStr[1][number]=length;
    33dc:	51 e2       	ldi	r21, 0x21	; 33
    33de:	a5 2e       	mov	r10, r21
    33e0:	b1 2c       	mov	r11, r1
    reactStr[2][number]=type;
    33e2:	88 24       	eor	r8, r8
    33e4:	83 94       	inc	r8
                if (route[currDepth+1]) {
                    
                    //Give item to person / use item on object 
                    if ((inputLen == 3)&&((data[0] == 'u')||(data[0] == 'g'))) {
                        for (uint8_t x=0; x<2; ++x) {
                            if (inventory[x]) { 
    33e6:	91 2c       	mov	r9, r1
    33e8:	e0 2e       	mov	r14, r16
    33ea:	f1 2c       	mov	r15, r1
    33ec:	c7 01       	movw	r24, r14
    33ee:	88 0f       	add	r24, r24
    33f0:	99 1f       	adc	r25, r25
    33f2:	fc 01       	movw	r30, r24
    33f4:	e2 5b       	subi	r30, 0xB2	; 178
    33f6:	f7 4c       	sbci	r31, 0xC7	; 199
    33f8:	7f 01       	movw	r14, r30
    33fa:	80 81       	ld	r24, Z
    33fc:	91 81       	ldd	r25, Z+1	; 0x01
    33fe:	00 97       	sbiw	r24, 0x00	; 0
                                if (CheckLetter(inventory[x], data[1])) {
    3400:	79 f0       	breq	.+30     	; 0x3420 <ProcessInput+0x7a6>
    3402:	d3 01       	movw	r26, r6
    3404:	11 96       	adiw	r26, 0x01	; 1
    3406:	6c 91       	ld	r22, X
    3408:	6f d8       	rcall	.-3874   	; 0x24e8 <CheckLetter>
    340a:	88 23       	and	r24, r24
    340c:	49 f0       	breq	.+18     	; 0x3420 <ProcessInput+0x7a6>
                                    PopulateObject(inventory[x], &actObj2);
    340e:	61 ec       	ldi	r22, 0xC1	; 193
    3410:	78 e3       	ldi	r23, 0x38	; 56
    3412:	f7 01       	movw	r30, r14
    3414:	80 81       	ld	r24, Z
    3416:	91 81       	ldd	r25, Z+1	; 0x01
    3418:	0e 94 fb 11 	call	0x23f6	; 0x23f6 <PopulateObject>
                                    x = 2;
    341c:	02 e0       	ldi	r16, 0x02	; 2
    341e:	1d c0       	rjmp	.+58     	; 0x345a <ProcessInput+0x7e0>
                                }
                            }
                            if (x == 1) { 
    3420:	01 30       	cpi	r16, 0x01	; 1
    3422:	d1 f4       	brne	.+52     	; 0x3458 <ProcessInput+0x7de>
    return 0;
}

//
void SetResponse(uint8_t number, uint16_t address, uint16_t length, uint8_t type){
    reactStr[0][number]=address;
    3424:	e1 2f       	mov	r30, r17
    3426:	f0 e0       	ldi	r31, 0x00	; 0
    3428:	df 01       	movw	r26, r30
    342a:	aa 0f       	add	r26, r26
    342c:	bb 1f       	adc	r27, r27
    342e:	a3 5d       	subi	r26, 0xD3	; 211
    3430:	b6 4c       	sbci	r27, 0xC6	; 198
    3432:	cd 92       	st	X+, r12
    3434:	dc 92       	st	X, r13
    reactStr[1][number]=length;
    3436:	df 01       	movw	r26, r30
    3438:	aa 0f       	add	r26, r26
    343a:	bb 1f       	adc	r27, r27
    343c:	a3 59       	subi	r26, 0x93	; 147
    343e:	b6 4c       	sbci	r27, 0xC6	; 198
    3440:	ad 92       	st	X+, r10
    3442:	bc 92       	st	X, r11
    reactStr[2][number]=type;
    3444:	ee 0f       	add	r30, r30
    3446:	ff 1f       	adc	r31, r31
    3448:	e3 55       	subi	r30, 0x53	; 83
    344a:	f6 4c       	sbci	r31, 0xC6	; 198
    344c:	80 82       	st	Z, r8
    344e:	91 82       	std	Z+1, r9	; 0x01
                                    x = 2;
                                }
                            }
                            if (x == 1) { 
                                SetResponse(elements++, A_NOTCARRYING, L_NOTCARRYING, TEASER);
                                data[0] = 0;
    3450:	d3 01       	movw	r26, r6
    3452:	1c 92       	st	X, r1
                                    PopulateObject(inventory[x], &actObj2);
                                    x = 2;
                                }
                            }
                            if (x == 1) { 
                                SetResponse(elements++, A_NOTCARRYING, L_NOTCARRYING, TEASER);
    3454:	1f 5f       	subi	r17, 0xFF	; 255
    3456:	01 c0       	rjmp	.+2      	; 0x345a <ProcessInput+0x7e0>
    3458:	00 e0       	ldi	r16, 0x00	; 0
                route[currDepth+1] = FindChild(route[currDepth], data[inputLen-1], 0);
                if (route[currDepth+1]) {
                    
                    //Give item to person / use item on object 
                    if ((inputLen == 3)&&((data[0] == 'u')||(data[0] == 'g'))) {
                        for (uint8_t x=0; x<2; ++x) {
    345a:	0f 5f       	subi	r16, 0xFF	; 255
    345c:	01 30       	cpi	r16, 0x01	; 1
    345e:	21 f2       	breq	.-120    	; 0x33e8 <ProcessInput+0x76e>
                                data[0] = 0;
                            }
                        }

                        //Both the item and person/object are found, check if action is legit
                        if (data[0]){
    3460:	f3 01       	movw	r30, r6
    3462:	80 81       	ld	r24, Z
    3464:	88 23       	and	r24, r24
    3466:	09 f4       	brne	.+2      	; 0x346a <ProcessInput+0x7f0>
    3468:	73 c3       	rjmp	.+1766   	; 0x3b50 <ProcessInput+0xed6>
                            PopulateObject(route[currDepth+1], &actObj1);
    346a:	e0 91 3e 38 	lds	r30, 0x383E	; 0x80383e <currDepth>
    346e:	f0 e0       	ldi	r31, 0x00	; 0
    3470:	ee 0f       	add	r30, r30
    3472:	ff 1f       	adc	r31, r31
    3474:	e1 51       	subi	r30, 0x11	; 17
    3476:	f6 4c       	sbci	r31, 0xC6	; 198
    3478:	6c ee       	ldi	r22, 0xEC	; 236
    347a:	78 e3       	ldi	r23, 0x38	; 56
    347c:	80 81       	ld	r24, Z
    347e:	91 81       	ldd	r25, Z+1	; 0x01
    3480:	0e 94 fb 11 	call	0x23f6	; 0x23f6 <PopulateObject>

                            //Special game
                            if (actObj1.lenStr[ACTION_STR1] == 1) {
    3484:	e0 90 0a 39 	lds	r14, 0x390A	; 0x80390a <actObj1.3956+0x1e>
    3488:	f0 90 0b 39 	lds	r15, 0x390B	; 0x80390b <actObj1.3956+0x1f>
    348c:	f1 e0       	ldi	r31, 0x01	; 1
    348e:	ef 16       	cp	r14, r31
    3490:	f1 04       	cpc	r15, r1
    3492:	09 f0       	breq	.+2      	; 0x3496 <ProcessInput+0x81c>
    3494:	89 c0       	rjmp	.+274    	; 0x35a8 <ProcessInput+0x92e>
                                ExtEERead(actObj1.addrStr[ACTION_STR1], 1, GAME, &data[2]);
    3496:	93 01       	movw	r18, r6
    3498:	2e 5f       	subi	r18, 0xFE	; 254
    349a:	3f 4f       	sbci	r19, 0xFF	; 255
    349c:	40 e0       	ldi	r20, 0x00	; 0
    349e:	61 e0       	ldi	r22, 0x01	; 1
    34a0:	80 91 fc 38 	lds	r24, 0x38FC	; 0x8038fc <actObj1.3956+0x10>
    34a4:	90 91 fd 38 	lds	r25, 0x38FD	; 0x8038fd <actObj1.3956+0x11>
    34a8:	0e 94 b1 07 	call	0xf62	; 0xf62 <ExtEERead>
                                if (data[2] == '1') {
    34ac:	d3 01       	movw	r26, r6
    34ae:	12 96       	adiw	r26, 0x02	; 2
    34b0:	3c 91       	ld	r19, X
    34b2:	31 33       	cpi	r19, 0x31	; 49
    34b4:	09 f0       	breq	.+2      	; 0x34b8 <ProcessInput+0x83e>
    34b6:	4c c3       	rjmp	.+1688   	; 0x3b50 <ProcessInput+0xed6>
                                    uint8_t item = actObj2.byteField[ITEM_NR];
    34b8:	20 91 cc 38 	lds	r18, 0x38CC	; 0x8038cc <actObj2.3957+0xb>
                                    if ((item < 31)||(item > 34)) {
    34bc:	51 ee       	ldi	r21, 0xE1	; 225
    34be:	52 0f       	add	r21, r18
    34c0:	41 e0       	ldi	r20, 0x01	; 1
    34c2:	41 0f       	add	r20, r17
    34c4:	81 2f       	mov	r24, r17
    34c6:	90 e0       	ldi	r25, 0x00	; 0
    return 0;
}

//
void SetResponse(uint8_t number, uint16_t address, uint16_t length, uint8_t type){
    reactStr[0][number]=address;
    34c8:	fc 01       	movw	r30, r24
    34ca:	ee 0f       	add	r30, r30
    34cc:	ff 1f       	adc	r31, r31
    34ce:	e3 5d       	subi	r30, 0xD3	; 211
    34d0:	f6 4c       	sbci	r31, 0xC6	; 198
                            //Special game
                            if (actObj1.lenStr[ACTION_STR1] == 1) {
                                ExtEERead(actObj1.addrStr[ACTION_STR1], 1, GAME, &data[2]);
                                if (data[2] == '1') {
                                    uint8_t item = actObj2.byteField[ITEM_NR];
                                    if ((item < 31)||(item > 34)) {
    34d2:	54 30       	cpi	r21, 0x04	; 4
    34d4:	b0 f0       	brcs	.+44     	; 0x3502 <ProcessInput+0x888>
    return 0;
}

//
void SetResponse(uint8_t number, uint16_t address, uint16_t length, uint8_t type){
    reactStr[0][number]=address;
    34d6:	21 e0       	ldi	r18, 0x01	; 1
    34d8:	39 e7       	ldi	r19, 0x79	; 121
    34da:	20 83       	st	Z, r18
    34dc:	31 83       	std	Z+1, r19	; 0x01
    reactStr[1][number]=length;
    34de:	fc 01       	movw	r30, r24
    34e0:	ee 0f       	add	r30, r30
    34e2:	ff 1f       	adc	r31, r31
    34e4:	e3 59       	subi	r30, 0x93	; 147
    34e6:	f6 4c       	sbci	r31, 0xC6	; 198
    34e8:	2a e1       	ldi	r18, 0x1A	; 26
    34ea:	30 e0       	ldi	r19, 0x00	; 0
    34ec:	20 83       	st	Z, r18
    34ee:	31 83       	std	Z+1, r19	; 0x01
    reactStr[2][number]=type;
    34f0:	88 0f       	add	r24, r24
    34f2:	99 1f       	adc	r25, r25
    34f4:	fc 01       	movw	r30, r24
    34f6:	e3 55       	subi	r30, 0x53	; 83
    34f8:	f6 4c       	sbci	r31, 0xC6	; 198
    34fa:	e0 82       	st	Z, r14
    34fc:	f1 82       	std	Z+1, r15	; 0x01
                            if (actObj1.lenStr[ACTION_STR1] == 1) {
                                ExtEERead(actObj1.addrStr[ACTION_STR1], 1, GAME, &data[2]);
                                if (data[2] == '1') {
                                    uint8_t item = actObj2.byteField[ITEM_NR];
                                    if ((item < 31)||(item > 34)) {
                                        SetResponse(elements++, A_CANTUSE, L_CANTUSE, TEASER);
    34fe:	14 2f       	mov	r17, r20
    3500:	27 c3       	rjmp	.+1614   	; 0x3b50 <ProcessInput+0xed6>
    return 0;
}

//
void SetResponse(uint8_t number, uint16_t address, uint16_t length, uint8_t type){
    reactStr[0][number]=address;
    3502:	60 e5       	ldi	r22, 0x50	; 80
    3504:	75 e7       	ldi	r23, 0x75	; 117
    3506:	60 83       	st	Z, r22
    3508:	71 83       	std	Z+1, r23	; 0x01
    reactStr[1][number]=length;
    350a:	fc 01       	movw	r30, r24
    350c:	ee 0f       	add	r30, r30
    350e:	ff 1f       	adc	r31, r31
    3510:	e3 59       	subi	r30, 0x93	; 147
    3512:	f6 4c       	sbci	r31, 0xC6	; 198
    3514:	62 eb       	ldi	r22, 0xB2	; 178
    3516:	70 e0       	ldi	r23, 0x00	; 0
    3518:	60 83       	st	Z, r22
    351a:	71 83       	std	Z+1, r23	; 0x01
    reactStr[2][number]=type;
    351c:	88 0f       	add	r24, r24
    351e:	99 1f       	adc	r25, r25
    3520:	fc 01       	movw	r30, r24
    3522:	e3 55       	subi	r30, 0x53	; 83
    3524:	f6 4c       	sbci	r31, 0xC6	; 198
    3526:	e0 82       	st	Z, r14
    3528:	f1 82       	std	Z+1, r15	; 0x01
    return 0;
}

//
void SetResponse(uint8_t number, uint16_t address, uint16_t length, uint8_t type){
    reactStr[0][number]=address;
    352a:	84 2f       	mov	r24, r20
    352c:	90 e0       	ldi	r25, 0x00	; 0
    352e:	fc 01       	movw	r30, r24
    3530:	ee 0f       	add	r30, r30
    3532:	ff 1f       	adc	r31, r31
    3534:	e3 5d       	subi	r30, 0xD3	; 211
    3536:	f6 4c       	sbci	r31, 0xC6	; 198
    3538:	49 e5       	ldi	r20, 0x59	; 89
    353a:	5a e7       	ldi	r21, 0x7A	; 122
    353c:	40 83       	st	Z, r20
    353e:	51 83       	std	Z+1, r21	; 0x01
    reactStr[1][number]=length;
    3540:	fc 01       	movw	r30, r24
    3542:	ee 0f       	add	r30, r30
    3544:	ff 1f       	adc	r31, r31
    3546:	e3 59       	subi	r30, 0x93	; 147
    3548:	f6 4c       	sbci	r31, 0xC6	; 198
    354a:	42 e0       	ldi	r20, 0x02	; 2
    354c:	50 e0       	ldi	r21, 0x00	; 0
    354e:	40 83       	st	Z, r20
    3550:	51 83       	std	Z+1, r21	; 0x01
    reactStr[2][number]=type;
    3552:	88 0f       	add	r24, r24
    3554:	99 1f       	adc	r25, r25
    3556:	fc 01       	movw	r30, r24
    3558:	e3 55       	subi	r30, 0x53	; 83
    355a:	f6 4c       	sbci	r31, 0xC6	; 198
    355c:	e0 82       	st	Z, r14
    355e:	f1 82       	std	Z+1, r15	; 0x01
    return 0;
}

//
void SetResponse(uint8_t number, uint16_t address, uint16_t length, uint8_t type){
    reactStr[0][number]=address;
    3560:	82 e0       	ldi	r24, 0x02	; 2
    3562:	81 0f       	add	r24, r17
    3564:	90 e0       	ldi	r25, 0x00	; 0
    3566:	1d 5f       	subi	r17, 0xFD	; 253
    3568:	fc 01       	movw	r30, r24
    356a:	ee 0f       	add	r30, r30
    356c:	ff 1f       	adc	r31, r31
    356e:	e3 5d       	subi	r30, 0xD3	; 211
    3570:	f6 4c       	sbci	r31, 0xC6	; 198
    3572:	4d ea       	ldi	r20, 0xAD	; 173
    3574:	58 e7       	ldi	r21, 0x78	; 120
    3576:	40 83       	st	Z, r20
    3578:	51 83       	std	Z+1, r21	; 0x01
    reactStr[1][number]=length;
    357a:	fc 01       	movw	r30, r24
    357c:	ee 0f       	add	r30, r30
    357e:	ff 1f       	adc	r31, r31
    3580:	e3 59       	subi	r30, 0x93	; 147
    3582:	f6 4c       	sbci	r31, 0xC6	; 198
    3584:	42 e1       	ldi	r20, 0x12	; 18
    3586:	50 e0       	ldi	r21, 0x00	; 0
    3588:	40 83       	st	Z, r20
    358a:	51 83       	std	Z+1, r21	; 0x01
    reactStr[2][number]=type;
    358c:	88 0f       	add	r24, r24
    358e:	99 1f       	adc	r25, r25
    3590:	fc 01       	movw	r30, r24
    3592:	e3 55       	subi	r30, 0x53	; 83
    3594:	f6 4c       	sbci	r31, 0xC6	; 198
    3596:	e0 82       	st	Z, r14
    3598:	f1 82       	std	Z+1, r15	; 0x01
                                        SetResponse(elements++, A_CANTUSE, L_CANTUSE, TEASER);
                                    } else {
                                        SetResponse(elements++, A_PRIEST, L_PRIEST, TEASER);
                                        SetResponse(elements++, A_LF, 2, TEASER);
                                        SetResponse(elements++, A_RESPONSE, L_RESPONSE, TEASER);
                                        specialInput[0] = '1';
    359a:	30 93 1c 39 	sts	0x391C, r19	; 0x80391c <specialInput>
                                        specialInput[1] = item;
    359e:	20 93 1d 39 	sts	0x391D, r18	; 0x80391d <specialInput+0x1>
                                        specialInput[2] = 0;
    35a2:	10 92 1e 39 	sts	0x391E, r1	; 0x80391e <specialInput+0x2>
    35a6:	d4 c2       	rjmp	.+1448   	; 0x3b50 <ProcessInput+0xed6>
                                    }
                                }

                            //Normal "use ... on ..." or "give ... to ..." action
                            } else if (actObj1.byteField[ACTION_ITEM] == actObj2.byteField[ITEM_NR]) {
    35a8:	90 91 f5 38 	lds	r25, 0x38F5	; 0x8038f5 <actObj1.3956+0x9>
    35ac:	80 91 cc 38 	lds	r24, 0x38CC	; 0x8038cc <actObj2.3957+0xb>
    35b0:	98 13       	cpse	r25, r24
    35b2:	2e c0       	rjmp	.+92     	; 0x3610 <ProcessInput+0x996>
                                SetResponse(elements++, actObj1.addrStr[ACTION_MSG], actObj1.lenStr[ACTION_MSG], GAME);
    35b4:	20 91 12 39 	lds	r18, 0x3912	; 0x803912 <actObj1.3956+0x26>
    35b8:	30 91 13 39 	lds	r19, 0x3913	; 0x803913 <actObj1.3956+0x27>
    35bc:	01 e0       	ldi	r16, 0x01	; 1
    35be:	01 0f       	add	r16, r17
    return 0;
}

//
void SetResponse(uint8_t number, uint16_t address, uint16_t length, uint8_t type){
    reactStr[0][number]=address;
    35c0:	81 2f       	mov	r24, r17
    35c2:	90 e0       	ldi	r25, 0x00	; 0
    35c4:	fc 01       	movw	r30, r24
    35c6:	ee 0f       	add	r30, r30
    35c8:	ff 1f       	adc	r31, r31
    35ca:	e3 5d       	subi	r30, 0xD3	; 211
    35cc:	f6 4c       	sbci	r31, 0xC6	; 198
    35ce:	40 91 04 39 	lds	r20, 0x3904	; 0x803904 <actObj1.3956+0x18>
    35d2:	50 91 05 39 	lds	r21, 0x3905	; 0x803905 <actObj1.3956+0x19>
    35d6:	40 83       	st	Z, r20
    35d8:	51 83       	std	Z+1, r21	; 0x01
    reactStr[1][number]=length;
    35da:	fc 01       	movw	r30, r24
    35dc:	ee 0f       	add	r30, r30
    35de:	ff 1f       	adc	r31, r31
    35e0:	e3 59       	subi	r30, 0x93	; 147
    35e2:	f6 4c       	sbci	r31, 0xC6	; 198
    35e4:	20 83       	st	Z, r18
    35e6:	31 83       	std	Z+1, r19	; 0x01
    reactStr[2][number]=type;
    35e8:	88 0f       	add	r24, r24
    35ea:	99 1f       	adc	r25, r25
    35ec:	fc 01       	movw	r30, r24
    35ee:	e3 55       	subi	r30, 0x53	; 83
    35f0:	f6 4c       	sbci	r31, 0xC6	; 198
    35f2:	10 82       	st	Z, r1
    35f4:	11 82       	std	Z+1, r1	; 0x01
                                }

                            //Normal "use ... on ..." or "give ... to ..." action
                            } else if (actObj1.byteField[ACTION_ITEM] == actObj2.byteField[ITEM_NR]) {
                                SetResponse(elements++, actObj1.addrStr[ACTION_MSG], actObj1.lenStr[ACTION_MSG], GAME);
                                effect = actObj1.effect[2];
    35f6:	80 91 16 39 	lds	r24, 0x3916	; 0x803916 <actObj1.3956+0x2a>
    35fa:	90 e0       	ldi	r25, 0x00	; 0
    35fc:	80 93 4a 38 	sts	0x384A, r24	; 0x80384a <effect>
    3600:	90 93 4b 38 	sts	0x384B, r25	; 0x80384b <effect+0x1>
                                UpdateState(actObj1.byteField[ACTION_STATE]);
    3604:	80 91 f6 38 	lds	r24, 0x38F6	; 0x8038f6 <actObj1.3956+0xa>
    3608:	0e 94 47 09 	call	0x128e	; 0x128e <UpdateState>
                                    }
                                }

                            //Normal "use ... on ..." or "give ... to ..." action
                            } else if (actObj1.byteField[ACTION_ITEM] == actObj2.byteField[ITEM_NR]) {
                                SetResponse(elements++, actObj1.addrStr[ACTION_MSG], actObj1.lenStr[ACTION_MSG], GAME);
    360c:	10 2f       	mov	r17, r16
    360e:	a0 c2       	rjmp	.+1344   	; 0x3b50 <ProcessInput+0xed6>
                                effect = actObj1.effect[2];
                                UpdateState(actObj1.byteField[ACTION_STATE]);
                                
                            } else {
                                if (data[0] == 'u') {
    3610:	f3 01       	movw	r30, r6
    3612:	80 81       	ld	r24, Z
    3614:	85 37       	cpi	r24, 0x75	; 117
    3616:	99 f4       	brne	.+38     	; 0x363e <ProcessInput+0x9c4>
    return 0;
}

//
void SetResponse(uint8_t number, uint16_t address, uint16_t length, uint8_t type){
    reactStr[0][number]=address;
    3618:	81 2f       	mov	r24, r17
    361a:	90 e0       	ldi	r25, 0x00	; 0
    361c:	fc 01       	movw	r30, r24
    361e:	ee 0f       	add	r30, r30
    3620:	ff 1f       	adc	r31, r31
    3622:	e3 5d       	subi	r30, 0xD3	; 211
    3624:	f6 4c       	sbci	r31, 0xC6	; 198
    3626:	21 e0       	ldi	r18, 0x01	; 1
    3628:	39 e7       	ldi	r19, 0x79	; 121
    362a:	20 83       	st	Z, r18
    362c:	31 83       	std	Z+1, r19	; 0x01
    reactStr[1][number]=length;
    362e:	fc 01       	movw	r30, r24
    3630:	ee 0f       	add	r30, r30
    3632:	ff 1f       	adc	r31, r31
    3634:	e3 59       	subi	r30, 0x93	; 147
    3636:	f6 4c       	sbci	r31, 0xC6	; 198
    3638:	2a e1       	ldi	r18, 0x1A	; 26
    363a:	30 e0       	ldi	r19, 0x00	; 0
    363c:	15 c0       	rjmp	.+42     	; 0x3668 <ProcessInput+0x9ee>
                                UpdateState(actObj1.byteField[ACTION_STATE]);
                                
                            } else {
                                if (data[0] == 'u') {
                                    SetResponse(elements++, A_CANTUSE, L_CANTUSE, TEASER);
                                } else if (data[0] == 'g') {
    363e:	87 36       	cpi	r24, 0x67	; 103
    3640:	09 f0       	breq	.+2      	; 0x3644 <ProcessInput+0x9ca>
    3642:	86 c2       	rjmp	.+1292   	; 0x3b50 <ProcessInput+0xed6>
    return 0;
}

//
void SetResponse(uint8_t number, uint16_t address, uint16_t length, uint8_t type){
    reactStr[0][number]=address;
    3644:	81 2f       	mov	r24, r17
    3646:	90 e0       	ldi	r25, 0x00	; 0
    3648:	fc 01       	movw	r30, r24
    364a:	ee 0f       	add	r30, r30
    364c:	ff 1f       	adc	r31, r31
    364e:	e3 5d       	subi	r30, 0xD3	; 211
    3650:	f6 4c       	sbci	r31, 0xC6	; 198
    3652:	2f e9       	ldi	r18, 0x9F	; 159
    3654:	36 e7       	ldi	r19, 0x76	; 118
    3656:	20 83       	st	Z, r18
    3658:	31 83       	std	Z+1, r19	; 0x01
    reactStr[1][number]=length;
    365a:	fc 01       	movw	r30, r24
    365c:	ee 0f       	add	r30, r30
    365e:	ff 1f       	adc	r31, r31
    3660:	e3 59       	subi	r30, 0x93	; 147
    3662:	f6 4c       	sbci	r31, 0xC6	; 198
    3664:	28 e2       	ldi	r18, 0x28	; 40
    3666:	30 e0       	ldi	r19, 0x00	; 0
    3668:	20 83       	st	Z, r18
    366a:	31 83       	std	Z+1, r19	; 0x01
    reactStr[2][number]=type;
    366c:	88 0f       	add	r24, r24
    366e:	99 1f       	adc	r25, r25
    3670:	fc 01       	movw	r30, r24
    3672:	e3 55       	subi	r30, 0x53	; 83
    3674:	f6 4c       	sbci	r31, 0xC6	; 198
    3676:	81 e0       	ldi	r24, 0x01	; 1
    3678:	90 e0       	ldi	r25, 0x00	; 0
    367a:	80 83       	st	Z, r24
    367c:	91 83       	std	Z+1, r25	; 0x01
                                
                            } else {
                                if (data[0] == 'u') {
                                    SetResponse(elements++, A_CANTUSE, L_CANTUSE, TEASER);
                                } else if (data[0] == 'g') {
                                    SetResponse(elements++, A_CANTGIVE, L_CANTGIVE, TEASER);                                    
    367e:	1f 5f       	subi	r17, 0xFF	; 255
    3680:	67 c2       	rjmp	.+1230   	; 0x3b50 <ProcessInput+0xed6>
                            }
                        }
                    
                    //Talk to person, read or use object (without item)                          
                    } else {
                        PopulateObject(route[currDepth+1], &actObj1);
    3682:	6c ee       	ldi	r22, 0xEC	; 236
    3684:	78 e3       	ldi	r23, 0x38	; 56
    3686:	0e 94 fb 11 	call	0x23f6	; 0x23f6 <PopulateObject>
                        if ((data[0] == 't')&&((actObj1.byteField[ACTION_MASK]&TALK) == 0)) {
    368a:	d3 01       	movw	r26, r6
    368c:	8c 91       	ld	r24, X
    368e:	84 37       	cpi	r24, 0x74	; 116
    3690:	61 f5       	brne	.+88     	; 0x36ea <ProcessInput+0xa70>
    3692:	80 91 f4 38 	lds	r24, 0x38F4	; 0x8038f4 <actObj1.3956+0x8>
    3696:	83 fd       	sbrc	r24, 3
    3698:	43 c0       	rjmp	.+134    	; 0x3720 <ProcessInput+0xaa6>
    return 0;
}

//
void SetResponse(uint8_t number, uint16_t address, uint16_t length, uint8_t type){
    reactStr[0][number]=address;
    369a:	8b e1       	ldi	r24, 0x1B	; 27
    369c:	99 e7       	ldi	r25, 0x79	; 121
    369e:	80 93 2f 39 	sts	0x392F, r24	; 0x80392f <reactStr+0x2>
    36a2:	90 93 30 39 	sts	0x3930, r25	; 0x803930 <reactStr+0x3>
    reactStr[1][number]=length;
    36a6:	8e e1       	ldi	r24, 0x1E	; 30
    36a8:	90 e0       	ldi	r25, 0x00	; 0
    36aa:	80 93 6f 39 	sts	0x396F, r24	; 0x80396f <reactStr+0x42>
    36ae:	90 93 70 39 	sts	0x3970, r25	; 0x803970 <reactStr+0x43>
    reactStr[2][number]=type;
    36b2:	81 e0       	ldi	r24, 0x01	; 1
    36b4:	90 e0       	ldi	r25, 0x00	; 0
    36b6:	80 93 af 39 	sts	0x39AF, r24	; 0x8039af <reactStr+0x82>
    36ba:	90 93 b0 39 	sts	0x39B0, r25	; 0x8039b0 <reactStr+0x83>
                    //Talk to person, read or use object (without item)                          
                    } else {
                        PopulateObject(route[currDepth+1], &actObj1);
                        if ((data[0] == 't')&&((actObj1.byteField[ACTION_MASK]&TALK) == 0)) {
                            SetResponse(elements++, A_WHYTALK, L_WHYTALK, TEASER);
                            SetResponse(elements++, actObj1.addrStr[NAME], actObj1.lenStr[NAME], GAME);
    36be:	80 91 06 39 	lds	r24, 0x3906	; 0x803906 <actObj1.3956+0x1a>
    36c2:	90 91 07 39 	lds	r25, 0x3907	; 0x803907 <actObj1.3956+0x1b>
    return 0;
}

//
void SetResponse(uint8_t number, uint16_t address, uint16_t length, uint8_t type){
    reactStr[0][number]=address;
    36c6:	20 91 f8 38 	lds	r18, 0x38F8	; 0x8038f8 <actObj1.3956+0xc>
    36ca:	30 91 f9 38 	lds	r19, 0x38F9	; 0x8038f9 <actObj1.3956+0xd>
    36ce:	20 93 31 39 	sts	0x3931, r18	; 0x803931 <reactStr+0x4>
    36d2:	30 93 32 39 	sts	0x3932, r19	; 0x803932 <reactStr+0x5>
    reactStr[1][number]=length;
    36d6:	80 93 71 39 	sts	0x3971, r24	; 0x803971 <reactStr+0x44>
    36da:	90 93 72 39 	sts	0x3972, r25	; 0x803972 <reactStr+0x45>
    reactStr[2][number]=type;
    36de:	10 92 b1 39 	sts	0x39B1, r1	; 0x8039b1 <reactStr+0x84>
    36e2:	10 92 b2 39 	sts	0x39B2, r1	; 0x8039b2 <reactStr+0x85>
                    //Talk to person, read or use object (without item)                          
                    } else {
                        PopulateObject(route[currDepth+1], &actObj1);
                        if ((data[0] == 't')&&((actObj1.byteField[ACTION_MASK]&TALK) == 0)) {
                            SetResponse(elements++, A_WHYTALK, L_WHYTALK, TEASER);
                            SetResponse(elements++, actObj1.addrStr[NAME], actObj1.lenStr[NAME], GAME);
    36e6:	13 e0       	ldi	r17, 0x03	; 3
    36e8:	33 c2       	rjmp	.+1126   	; 0x3b50 <ProcessInput+0xed6>
                        } else if ((data[0] == 'u')&&((actObj1.byteField[ACTION_MASK]&USE) == 0)) {
    36ea:	85 37       	cpi	r24, 0x75	; 117
    36ec:	39 f4       	brne	.+14     	; 0x36fc <ProcessInput+0xa82>
    36ee:	80 91 f4 38 	lds	r24, 0x38F4	; 0x8038f4 <actObj1.3956+0x8>
    36f2:	84 fd       	sbrc	r24, 4
    36f4:	15 c0       	rjmp	.+42     	; 0x3720 <ProcessInput+0xaa6>
    return 0;
}

//
void SetResponse(uint8_t number, uint16_t address, uint16_t length, uint8_t type){
    reactStr[0][number]=address;
    36f6:	81 e0       	ldi	r24, 0x01	; 1
    36f8:	99 e7       	ldi	r25, 0x79	; 121
    36fa:	3b c2       	rjmp	.+1142   	; 0x3b72 <ProcessInput+0xef8>
                        if ((data[0] == 't')&&((actObj1.byteField[ACTION_MASK]&TALK) == 0)) {
                            SetResponse(elements++, A_WHYTALK, L_WHYTALK, TEASER);
                            SetResponse(elements++, actObj1.addrStr[NAME], actObj1.lenStr[NAME], GAME);
                        } else if ((data[0] == 'u')&&((actObj1.byteField[ACTION_MASK]&USE) == 0)) {
                            SetResponse(elements++, A_CANTUSE, L_CANTUSE, TEASER);
                        } else if ((data[0] == 'r')&&((actObj1.byteField[ACTION_MASK]&READ) == 0)) {
    36fc:	82 37       	cpi	r24, 0x72	; 114
    36fe:	69 f4       	brne	.+26     	; 0x371a <ProcessInput+0xaa0>
    3700:	80 91 f4 38 	lds	r24, 0x38F4	; 0x8038f4 <actObj1.3956+0x8>
    3704:	85 fd       	sbrc	r24, 5
    3706:	0c c0       	rjmp	.+24     	; 0x3720 <ProcessInput+0xaa6>
    return 0;
}

//
void SetResponse(uint8_t number, uint16_t address, uint16_t length, uint8_t type){
    reactStr[0][number]=address;
    3708:	86 ee       	ldi	r24, 0xE6	; 230
    370a:	98 e7       	ldi	r25, 0x78	; 120
    370c:	80 93 2f 39 	sts	0x392F, r24	; 0x80392f <reactStr+0x2>
    3710:	90 93 30 39 	sts	0x3930, r25	; 0x803930 <reactStr+0x3>
    reactStr[1][number]=length;
    3714:	8b e1       	ldi	r24, 0x1B	; 27
    3716:	90 e0       	ldi	r25, 0x00	; 0
    3718:	78 cb       	rjmp	.-2320   	; 0x2e0a <ProcessInput+0x190>
                            SetResponse(elements++, actObj1.addrStr[NAME], actObj1.lenStr[NAME], GAME);
                        } else if ((data[0] == 'u')&&((actObj1.byteField[ACTION_MASK]&USE) == 0)) {
                            SetResponse(elements++, A_CANTUSE, L_CANTUSE, TEASER);
                        } else if ((data[0] == 'r')&&((actObj1.byteField[ACTION_MASK]&READ) == 0)) {
                            SetResponse(elements++, A_CANTREAD, L_CANTREAD, TEASER);
                        } else if (data[0] == 'g'){ 
    371a:	87 36       	cpi	r24, 0x67	; 103
    371c:	09 f4       	brne	.+2      	; 0x3720 <ProcessInput+0xaa6>
    371e:	e0 ca       	rjmp	.-2624   	; 0x2ce0 <ProcessInput+0x66>
                            SetResponse(elements++, A_NOTPOSSIBLE, L_NOTPOSSIBLE, TEASER);  
                        } else {

                            //Special game, not enough characters
                            if (actObj1.lenStr[ACTION_STR1] == 1) {
    3720:	00 91 0a 39 	lds	r16, 0x390A	; 0x80390a <actObj1.3956+0x1e>
    3724:	10 91 0b 39 	lds	r17, 0x390B	; 0x80390b <actObj1.3956+0x1f>
    3728:	01 30       	cpi	r16, 0x01	; 1
    372a:	11 05       	cpc	r17, r1
    372c:	09 f5       	brne	.+66     	; 0x3770 <ProcessInput+0xaf6>
                                ExtEERead(actObj1.addrStr[ACTION_STR1], 1, GAME, &data[2]);
    372e:	93 01       	movw	r18, r6
    3730:	2e 5f       	subi	r18, 0xFE	; 254
    3732:	3f 4f       	sbci	r19, 0xFF	; 255
    3734:	40 e0       	ldi	r20, 0x00	; 0
    3736:	61 e0       	ldi	r22, 0x01	; 1
    3738:	80 91 fc 38 	lds	r24, 0x38FC	; 0x8038fc <actObj1.3956+0x10>
    373c:	90 91 fd 38 	lds	r25, 0x38FD	; 0x8038fd <actObj1.3956+0x11>
    3740:	0e 94 b1 07 	call	0xf62	; 0xf62 <ExtEERead>
                                if (data[2] == '1') {
    3744:	f3 01       	movw	r30, r6
    3746:	82 81       	ldd	r24, Z+2	; 0x02
    3748:	81 33       	cpi	r24, 0x31	; 49
    374a:	09 f0       	breq	.+2      	; 0x374e <ProcessInput+0xad4>
    374c:	13 cd       	rjmp	.-1498   	; 0x3174 <ProcessInput+0x4fa>
    return 0;
}

//
void SetResponse(uint8_t number, uint16_t address, uint16_t length, uint8_t type){
    reactStr[0][number]=address;
    374e:	85 e2       	ldi	r24, 0x25	; 37
    3750:	95 e7       	ldi	r25, 0x75	; 117
    3752:	80 93 2f 39 	sts	0x392F, r24	; 0x80392f <reactStr+0x2>
    3756:	90 93 30 39 	sts	0x3930, r25	; 0x803930 <reactStr+0x3>
    reactStr[1][number]=length;
    375a:	8b e2       	ldi	r24, 0x2B	; 43
    375c:	90 e0       	ldi	r25, 0x00	; 0
    375e:	80 93 6f 39 	sts	0x396F, r24	; 0x80396f <reactStr+0x42>
    3762:	90 93 70 39 	sts	0x3970, r25	; 0x803970 <reactStr+0x43>
    reactStr[2][number]=type;
    3766:	00 93 af 39 	sts	0x39AF, r16	; 0x8039af <reactStr+0x82>
    376a:	10 93 b0 39 	sts	0x39B0, r17	; 0x8039b0 <reactStr+0x83>
    376e:	57 cb       	rjmp	.-2386   	; 0x2e1e <ProcessInput+0x1a4>
                                if (data[2] == '1') {
                                    SetResponse(elements++, A_PLEASEOFFER, L_PLEASEOFFER, TEASER);
                                }

                            //General request
                            } else if (actObj1.lenStr[ACTION_STR1]) {
    3770:	01 15       	cp	r16, r1
    3772:	11 05       	cpc	r17, r1
    3774:	09 f4       	brne	.+2      	; 0x3778 <ProcessInput+0xafe>
    3776:	58 c0       	rjmp	.+176    	; 0x3828 <ProcessInput+0xbae>
    return 0;
}

//
void SetResponse(uint8_t number, uint16_t address, uint16_t length, uint8_t type){
    reactStr[0][number]=address;
    3778:	80 91 fc 38 	lds	r24, 0x38FC	; 0x8038fc <actObj1.3956+0x10>
    377c:	90 91 fd 38 	lds	r25, 0x38FD	; 0x8038fd <actObj1.3956+0x11>
    3780:	80 93 2f 39 	sts	0x392F, r24	; 0x80392f <reactStr+0x2>
    3784:	90 93 30 39 	sts	0x3930, r25	; 0x803930 <reactStr+0x3>
    reactStr[1][number]=length;
    3788:	00 93 6f 39 	sts	0x396F, r16	; 0x80396f <reactStr+0x42>
    378c:	10 93 70 39 	sts	0x3970, r17	; 0x803970 <reactStr+0x43>
    reactStr[2][number]=type;
    3790:	10 92 af 39 	sts	0x39AF, r1	; 0x8039af <reactStr+0x82>
    3794:	10 92 b0 39 	sts	0x39B0, r1	; 0x8039b0 <reactStr+0x83>
    return 0;
}

//
void SetResponse(uint8_t number, uint16_t address, uint16_t length, uint8_t type){
    reactStr[0][number]=address;
    3798:	89 e5       	ldi	r24, 0x59	; 89
    379a:	9a e7       	ldi	r25, 0x7A	; 122
    379c:	80 93 31 39 	sts	0x3931, r24	; 0x803931 <reactStr+0x4>
    37a0:	90 93 32 39 	sts	0x3932, r25	; 0x803932 <reactStr+0x5>
    reactStr[1][number]=length;
    37a4:	82 e0       	ldi	r24, 0x02	; 2
    37a6:	90 e0       	ldi	r25, 0x00	; 0
    37a8:	80 93 71 39 	sts	0x3971, r24	; 0x803971 <reactStr+0x44>
    37ac:	90 93 72 39 	sts	0x3972, r25	; 0x803972 <reactStr+0x45>
    reactStr[2][number]=type;
    37b0:	81 e0       	ldi	r24, 0x01	; 1
    37b2:	90 e0       	ldi	r25, 0x00	; 0
    37b4:	80 93 b1 39 	sts	0x39B1, r24	; 0x8039b1 <reactStr+0x84>
    37b8:	90 93 b2 39 	sts	0x39B2, r25	; 0x8039b2 <reactStr+0x85>
    return 0;
}

//
void SetResponse(uint8_t number, uint16_t address, uint16_t length, uint8_t type){
    reactStr[0][number]=address;
    37bc:	2d ea       	ldi	r18, 0xAD	; 173
    37be:	38 e7       	ldi	r19, 0x78	; 120
    37c0:	20 93 33 39 	sts	0x3933, r18	; 0x803933 <reactStr+0x6>
    37c4:	30 93 34 39 	sts	0x3934, r19	; 0x803934 <reactStr+0x7>
    reactStr[1][number]=length;
    37c8:	22 e1       	ldi	r18, 0x12	; 18
    37ca:	30 e0       	ldi	r19, 0x00	; 0
    37cc:	20 93 73 39 	sts	0x3973, r18	; 0x803973 <reactStr+0x46>
    37d0:	30 93 74 39 	sts	0x3974, r19	; 0x803974 <reactStr+0x47>
    reactStr[2][number]=type;
    37d4:	80 93 b3 39 	sts	0x39B3, r24	; 0x8039b3 <reactStr+0x86>
    37d8:	90 93 b4 39 	sts	0x39B4, r25	; 0x8039b4 <reactStr+0x87>
                            //General request
                            } else if (actObj1.lenStr[ACTION_STR1]) {
                                SetResponse(elements++, actObj1.addrStr[ACTION_STR1], actObj1.lenStr[ACTION_STR1], GAME);
                                SetResponse(elements++, A_LF, 2, TEASER);
                                SetResponse(elements++, A_RESPONSE, L_RESPONSE, TEASER);
                                if (actObj1.lenStr[ACTION_STR2]>(INP_LENGTH-1)) actObj1.lenStr[ACTION_STR2] = (INP_LENGTH-1);
    37dc:	80 91 0c 39 	lds	r24, 0x390C	; 0x80390c <actObj1.3956+0x20>
    37e0:	90 91 0d 39 	lds	r25, 0x390D	; 0x80390d <actObj1.3956+0x21>
    37e4:	40 97       	sbiw	r24, 0x10	; 16
    37e6:	30 f0       	brcs	.+12     	; 0x37f4 <ProcessInput+0xb7a>
    37e8:	8f e0       	ldi	r24, 0x0F	; 15
    37ea:	90 e0       	ldi	r25, 0x00	; 0
    37ec:	80 93 0c 39 	sts	0x390C, r24	; 0x80390c <actObj1.3956+0x20>
    37f0:	90 93 0d 39 	sts	0x390D, r25	; 0x80390d <actObj1.3956+0x21>
                                ExtEERead(actObj1.addrStr[ACTION_STR2], actObj1.lenStr[ACTION_STR2], GAME, (uint8_t *)&specialInput[0]);
    37f4:	2c e1       	ldi	r18, 0x1C	; 28
    37f6:	39 e3       	ldi	r19, 0x39	; 57
    37f8:	40 e0       	ldi	r20, 0x00	; 0
    37fa:	60 91 0c 39 	lds	r22, 0x390C	; 0x80390c <actObj1.3956+0x20>
    37fe:	80 91 fe 38 	lds	r24, 0x38FE	; 0x8038fe <actObj1.3956+0x12>
    3802:	90 91 ff 38 	lds	r25, 0x38FF	; 0x8038ff <actObj1.3956+0x13>
    3806:	0e 94 b1 07 	call	0xf62	; 0xf62 <ExtEERead>
                                UnflipData(actObj1.lenStr[ACTION_STR2], (uint8_t *)&specialInput[0]);
    380a:	6c e1       	ldi	r22, 0x1C	; 28
    380c:	79 e3       	ldi	r23, 0x39	; 57
    380e:	80 91 0c 39 	lds	r24, 0x390C	; 0x80390c <actObj1.3956+0x20>
    3812:	0e 94 11 11 	call	0x2222	; 0x2222 <UnflipData>
                                specialInput[actObj1.lenStr[ACTION_STR2]] = 0;
    3816:	e0 91 0c 39 	lds	r30, 0x390C	; 0x80390c <actObj1.3956+0x20>
    381a:	f0 91 0d 39 	lds	r31, 0x390D	; 0x80390d <actObj1.3956+0x21>
    381e:	e4 5e       	subi	r30, 0xE4	; 228
    3820:	f6 4c       	sbci	r31, 0xC6	; 198
    3822:	10 82       	st	Z, r1

                            //General request
                            } else if (actObj1.lenStr[ACTION_STR1]) {
                                SetResponse(elements++, actObj1.addrStr[ACTION_STR1], actObj1.lenStr[ACTION_STR1], GAME);
                                SetResponse(elements++, A_LF, 2, TEASER);
                                SetResponse(elements++, A_RESPONSE, L_RESPONSE, TEASER);
    3824:	14 e0       	ldi	r17, 0x04	; 4
    3826:	94 c1       	rjmp	.+808    	; 0x3b50 <ProcessInput+0xed6>
                                ExtEERead(actObj1.addrStr[ACTION_STR2], actObj1.lenStr[ACTION_STR2], GAME, (uint8_t *)&specialInput[0]);
                                UnflipData(actObj1.lenStr[ACTION_STR2], (uint8_t *)&specialInput[0]);
                                specialInput[actObj1.lenStr[ACTION_STR2]] = 0;
                            
                            //Normal action    
                            } else if (CheckState(actObj1.byteField[ACTION_ACL])){
    3828:	80 91 f3 38 	lds	r24, 0x38F3	; 0x8038f3 <actObj1.3956+0x7>
    382c:	0e 94 68 09 	call	0x12d0	; 0x12d0 <CheckState>
    3830:	88 23       	and	r24, r24
    3832:	01 f1       	breq	.+64     	; 0x3874 <ProcessInput+0xbfa>
                                SetResponse(elements++, actObj1.addrStr[ACTION_MSG], actObj1.lenStr[ACTION_MSG], GAME);
    3834:	80 91 12 39 	lds	r24, 0x3912	; 0x803912 <actObj1.3956+0x26>
    3838:	90 91 13 39 	lds	r25, 0x3913	; 0x803913 <actObj1.3956+0x27>
    return 0;
}

//
void SetResponse(uint8_t number, uint16_t address, uint16_t length, uint8_t type){
    reactStr[0][number]=address;
    383c:	20 91 04 39 	lds	r18, 0x3904	; 0x803904 <actObj1.3956+0x18>
    3840:	30 91 05 39 	lds	r19, 0x3905	; 0x803905 <actObj1.3956+0x19>
    3844:	20 93 2f 39 	sts	0x392F, r18	; 0x80392f <reactStr+0x2>
    3848:	30 93 30 39 	sts	0x3930, r19	; 0x803930 <reactStr+0x3>
    reactStr[1][number]=length;
    384c:	80 93 6f 39 	sts	0x396F, r24	; 0x80396f <reactStr+0x42>
    3850:	90 93 70 39 	sts	0x3970, r25	; 0x803970 <reactStr+0x43>
    reactStr[2][number]=type;
    3854:	10 92 af 39 	sts	0x39AF, r1	; 0x8039af <reactStr+0x82>
    3858:	10 92 b0 39 	sts	0x39B0, r1	; 0x8039b0 <reactStr+0x83>
                                specialInput[actObj1.lenStr[ACTION_STR2]] = 0;
                            
                            //Normal action    
                            } else if (CheckState(actObj1.byteField[ACTION_ACL])){
                                SetResponse(elements++, actObj1.addrStr[ACTION_MSG], actObj1.lenStr[ACTION_MSG], GAME);
                                effect = actObj1.effect[2];
    385c:	80 91 16 39 	lds	r24, 0x3916	; 0x803916 <actObj1.3956+0x2a>
    3860:	90 e0       	ldi	r25, 0x00	; 0
    3862:	80 93 4a 38 	sts	0x384A, r24	; 0x80384a <effect>
    3866:	90 93 4b 38 	sts	0x384B, r25	; 0x80384b <effect+0x1>
                                UpdateState(actObj1.byteField[ACTION_STATE]);
    386a:	80 91 f6 38 	lds	r24, 0x38F6	; 0x8038f6 <actObj1.3956+0xa>
    386e:	0e 94 47 09 	call	0x128e	; 0x128e <UpdateState>
    3872:	d5 ca       	rjmp	.-2646   	; 0x2e1e <ProcessInput+0x1a4>
                            } else {
                                SetResponse(elements++, actObj1.addrStr[ACTION_ACL_MSG], actObj1.lenStr[ACTION_ACL_MSG], GAME);
    3874:	80 91 10 39 	lds	r24, 0x3910	; 0x803910 <actObj1.3956+0x24>
    3878:	90 91 11 39 	lds	r25, 0x3911	; 0x803911 <actObj1.3956+0x25>
    return 0;
}

//
void SetResponse(uint8_t number, uint16_t address, uint16_t length, uint8_t type){
    reactStr[0][number]=address;
    387c:	20 91 02 39 	lds	r18, 0x3902	; 0x803902 <actObj1.3956+0x16>
    3880:	30 91 03 39 	lds	r19, 0x3903	; 0x803903 <actObj1.3956+0x17>
    3884:	20 93 2f 39 	sts	0x392F, r18	; 0x80392f <reactStr+0x2>
    3888:	30 93 30 39 	sts	0x3930, r19	; 0x803930 <reactStr+0x3>
    reactStr[1][number]=length;
    388c:	80 93 6f 39 	sts	0x396F, r24	; 0x80396f <reactStr+0x42>
    3890:	90 93 70 39 	sts	0x3970, r25	; 0x803970 <reactStr+0x43>
    reactStr[2][number]=type;
    3894:	10 92 af 39 	sts	0x39AF, r1	; 0x8039af <reactStr+0x82>
    3898:	10 92 b0 39 	sts	0x39B0, r1	; 0x8039b0 <reactStr+0x83>
                                SetResponse(elements++, actObj1.addrStr[ACTION_MSG], actObj1.lenStr[ACTION_MSG], GAME);
                                effect = actObj1.effect[2];
                                UpdateState(actObj1.byteField[ACTION_STATE]);
                            } else {
                                SetResponse(elements++, actObj1.addrStr[ACTION_ACL_MSG], actObj1.lenStr[ACTION_ACL_MSG], GAME);
                                effect = actObj1.effect[1];
    389c:	80 91 15 39 	lds	r24, 0x3915	; 0x803915 <actObj1.3956+0x29>
    38a0:	90 e0       	ldi	r25, 0x00	; 0
    38a2:	80 93 4a 38 	sts	0x384A, r24	; 0x80384a <effect>
    38a6:	90 93 4b 38 	sts	0x384B, r25	; 0x80384b <effect+0x1>
    38aa:	b9 ca       	rjmp	.-2702   	; 0x2e1e <ProcessInput+0x1a4>
                        }
                    }

                //Person or object not found
                } else {
                    if ((data[0] == 't')||(data[0] == 'g')){
    38ac:	d3 01       	movw	r26, r6
    38ae:	8c 91       	ld	r24, X
    38b0:	84 37       	cpi	r24, 0x74	; 116
    38b2:	11 f0       	breq	.+4      	; 0x38b8 <ProcessInput+0xc3e>
    38b4:	87 36       	cpi	r24, 0x67	; 103
    38b6:	19 f4       	brne	.+6      	; 0x38be <ProcessInput+0xc44>
    return 0;
}

//
void SetResponse(uint8_t number, uint16_t address, uint16_t length, uint8_t type){
    reactStr[0][number]=address;
    38b8:	89 e3       	ldi	r24, 0x39	; 57
    38ba:	99 e7       	ldi	r25, 0x79	; 121
    38bc:	02 c0       	rjmp	.+4      	; 0x38c2 <ProcessInput+0xc48>
    38be:	8d e4       	ldi	r24, 0x4D	; 77
    38c0:	99 e7       	ldi	r25, 0x79	; 121
    38c2:	80 93 2f 39 	sts	0x392F, r24	; 0x80392f <reactStr+0x2>
    38c6:	90 93 30 39 	sts	0x3930, r25	; 0x803930 <reactStr+0x3>
    reactStr[1][number]=length;
    38ca:	84 e1       	ldi	r24, 0x14	; 20
    38cc:	90 e0       	ldi	r25, 0x00	; 0
    38ce:	9d ca       	rjmp	.-2758   	; 0x2e0a <ProcessInput+0x190>
                    }
                }
            }
        
        //Special answer given
        } else if (data[0] == 'a'){
    38d0:	81 36       	cpi	r24, 0x61	; 97
    38d2:	09 f0       	breq	.+2      	; 0x38d6 <ProcessInput+0xc5c>
    38d4:	4f cc       	rjmp	.-1890   	; 0x3174 <ProcessInput+0x4fa>
            
            //Priest offerings
            if (specialPassed >= 2) {
    38d6:	80 91 1b 39 	lds	r24, 0x391B	; 0x80391b <specialPassed>
    38da:	82 30       	cpi	r24, 0x02	; 2
    38dc:	08 f4       	brcc	.+2      	; 0x38e0 <ProcessInput+0xc66>
    38de:	c7 c0       	rjmp	.+398    	; 0x3a6e <ProcessInput+0xdf4>
                if (data[1] > 0) {
    38e0:	f3 01       	movw	r30, r6
    38e2:	21 81       	ldd	r18, Z+1	; 0x01
    38e4:	22 23       	and	r18, r18
    38e6:	09 f4       	brne	.+2      	; 0x38ea <ProcessInput+0xc70>
    38e8:	af c0       	rjmp	.+350    	; 0x3a48 <ProcessInput+0xdce>

                    //uint8_t  digit[10] = {0, 0, 0, 0, 0, 0, 0, 0, 0, 0};
                    uint8_t  digit[8] = {0, 0, 0, 0, 0, 0, 0, 0};
    38ea:	ce 01       	movw	r24, r28
    38ec:	01 96       	adiw	r24, 0x01	; 1
    38ee:	7c 01       	movw	r14, r24
    38f0:	88 e0       	ldi	r24, 0x08	; 8
    38f2:	d7 01       	movw	r26, r14
    38f4:	1d 92       	st	X+, r1
    38f6:	8a 95       	dec	r24
    38f8:	e9 f7       	brne	.-6      	; 0x38f4 <ProcessInput+0xc7a>
                        answer = ((offering  & 2) << 19) + ((offering  & 1) << 8) + \
                        ((element   & 2) << 15) + ((element   & 1) << 4) + \
                        ((kneelings & 2) << 11) + ((kneelings & 1))
                        answer = answer << (3-person)
                    */
                    data[1]-='0'; // item 31 needs to become something that results in 0 when doing %4
    38fa:	20 53       	subi	r18, 0x30	; 48
    38fc:	21 83       	std	Z+1, r18	; 0x01
                    data[2]-='1';
    38fe:	32 81       	ldd	r19, Z+2	; 0x02
    3900:	31 53       	subi	r19, 0x31	; 49
    3902:	32 83       	std	Z+2, r19	; 0x02
                    if (data[3] == 'a') data[3] = 1;
    3904:	83 81       	ldd	r24, Z+3	; 0x03
    3906:	81 36       	cpi	r24, 0x61	; 97
    3908:	11 f4       	brne	.+4      	; 0x390e <ProcessInput+0xc94>
    390a:	81 e0       	ldi	r24, 0x01	; 1
    390c:	0c c0       	rjmp	.+24     	; 0x3926 <ProcessInput+0xcac>
                    else if (data[3] == 'e') data[3] = 0;
    390e:	85 36       	cpi	r24, 0x65	; 101
    3910:	19 f4       	brne	.+6      	; 0x3918 <ProcessInput+0xc9e>
    3912:	f3 01       	movw	r30, r6
    3914:	13 82       	std	Z+3, r1	; 0x03
    3916:	08 c0       	rjmp	.+16     	; 0x3928 <ProcessInput+0xcae>
                    else if (data[3] == 'f') data[3] = 3;
    3918:	86 36       	cpi	r24, 0x66	; 102
    391a:	19 f4       	brne	.+6      	; 0x3922 <ProcessInput+0xca8>
    391c:	83 e0       	ldi	r24, 0x03	; 3
    391e:	83 83       	std	Z+3, r24	; 0x03
    3920:	03 c0       	rjmp	.+6      	; 0x3928 <ProcessInput+0xcae>
                    else data[3] = 2;
    3922:	82 e0       	ldi	r24, 0x02	; 2
    3924:	f3 01       	movw	r30, r6
    3926:	83 83       	std	Z+3, r24	; 0x03

                    if (data[1] & 2) answer += (1UL << 20);
    3928:	21 fd       	sbrc	r18, 1
    392a:	04 c0       	rjmp	.+8      	; 0x3934 <ProcessInput+0xcba>
            if (specialPassed >= 2) {
                if (data[1] > 0) {

                    //uint8_t  digit[10] = {0, 0, 0, 0, 0, 0, 0, 0, 0, 0};
                    uint8_t  digit[8] = {0, 0, 0, 0, 0, 0, 0, 0};
                    uint32_t answer = 0;
    392c:	80 e0       	ldi	r24, 0x00	; 0
    392e:	90 e0       	ldi	r25, 0x00	; 0
    3930:	dc 01       	movw	r26, r24
    3932:	04 c0       	rjmp	.+8      	; 0x393c <ProcessInput+0xcc2>
                    if (data[3] == 'a') data[3] = 1;
                    else if (data[3] == 'e') data[3] = 0;
                    else if (data[3] == 'f') data[3] = 3;
                    else data[3] = 2;

                    if (data[1] & 2) answer += (1UL << 20);
    3934:	80 e0       	ldi	r24, 0x00	; 0
    3936:	90 e0       	ldi	r25, 0x00	; 0
    3938:	a0 e1       	ldi	r26, 0x10	; 16
    393a:	b0 e0       	ldi	r27, 0x00	; 0
                    if (data[1] & 1) answer += (1 << 8);
    393c:	20 ff       	sbrs	r18, 0
    393e:	03 c0       	rjmp	.+6      	; 0x3946 <ProcessInput+0xccc>
    3940:	9f 5f       	subi	r25, 0xFF	; 255
    3942:	af 4f       	sbci	r26, 0xFF	; 255
    3944:	bf 4f       	sbci	r27, 0xFF	; 255
                    if (data[3] & 2) answer += (1UL << 16);
    3946:	f3 01       	movw	r30, r6
    3948:	23 81       	ldd	r18, Z+3	; 0x03
    394a:	21 fd       	sbrc	r18, 1
    394c:	11 96       	adiw	r26, 0x01	; 1
                    if (data[3] & 1) answer += (1 << 4);
    394e:	20 ff       	sbrs	r18, 0
    3950:	03 c0       	rjmp	.+6      	; 0x3958 <ProcessInput+0xcde>
    3952:	40 96       	adiw	r24, 0x10	; 16
    3954:	a1 1d       	adc	r26, r1
    3956:	b1 1d       	adc	r27, r1
                    if (data[2] & 2) answer += (1 << 12);
    3958:	31 ff       	sbrs	r19, 1
    395a:	03 c0       	rjmp	.+6      	; 0x3962 <ProcessInput+0xce8>
    395c:	90 5f       	subi	r25, 0xF0	; 240
    395e:	af 4f       	sbci	r26, 0xFF	; 255
    3960:	bf 4f       	sbci	r27, 0xFF	; 255
                    if (data[2] & 1) answer += 1;
    3962:	30 ff       	sbrs	r19, 0
    3964:	03 c0       	rjmp	.+6      	; 0x396c <ProcessInput+0xcf2>
    3966:	01 96       	adiw	r24, 0x01	; 1
    3968:	a1 1d       	adc	r26, r1
    396a:	b1 1d       	adc	r27, r1
                    answer <<= (4 - whoami);            
    396c:	40 91 4d 38 	lds	r20, 0x384D	; 0x80384d <whoami>
    3970:	24 e0       	ldi	r18, 0x04	; 4
    3972:	30 e0       	ldi	r19, 0x00	; 0
    3974:	24 1b       	sub	r18, r20
    3976:	31 09       	sbc	r19, r1
    3978:	04 c0       	rjmp	.+8      	; 0x3982 <ProcessInput+0xd08>
    397a:	88 0f       	add	r24, r24
    397c:	99 1f       	adc	r25, r25
    397e:	aa 1f       	adc	r26, r26
    3980:	bb 1f       	adc	r27, r27
    3982:	2a 95       	dec	r18
    3984:	d2 f7       	brpl	.-12     	; 0x397a <ProcessInput+0xd00>
    return 0;
}

//
void SetResponse(uint8_t number, uint16_t address, uint16_t length, uint8_t type){
    reactStr[0][number]=address;
    3986:	28 ec       	ldi	r18, 0xC8	; 200
    3988:	34 e7       	ldi	r19, 0x74	; 116
    398a:	20 93 2f 39 	sts	0x392F, r18	; 0x80392f <reactStr+0x2>
    398e:	30 93 30 39 	sts	0x3930, r19	; 0x803930 <reactStr+0x3>
    reactStr[1][number]=length;
    3992:	20 e2       	ldi	r18, 0x20	; 32
    3994:	30 e0       	ldi	r19, 0x00	; 0
    3996:	20 93 6f 39 	sts	0x396F, r18	; 0x80396f <reactStr+0x42>
    399a:	30 93 70 39 	sts	0x3970, r19	; 0x803970 <reactStr+0x43>
    reactStr[2][number]=type;
    399e:	21 e0       	ldi	r18, 0x01	; 1
    39a0:	30 e0       	ldi	r19, 0x00	; 0
    39a2:	20 93 af 39 	sts	0x39AF, r18	; 0x8039af <reactStr+0x82>
    39a6:	30 93 b0 39 	sts	0x39B0, r19	; 0x8039b0 <reactStr+0x83>
    return 0;
}

//
void SetResponse(uint8_t number, uint16_t address, uint16_t length, uint8_t type){
    reactStr[0][number]=address;
    39aa:	4d e9       	ldi	r20, 0x9D	; 157
    39ac:	54 e7       	ldi	r21, 0x74	; 116
    39ae:	40 93 31 39 	sts	0x3931, r20	; 0x803931 <reactStr+0x4>
    39b2:	50 93 32 39 	sts	0x3932, r21	; 0x803932 <reactStr+0x5>
    reactStr[1][number]=length;
    39b6:	42 e0       	ldi	r20, 0x02	; 2
    39b8:	50 e0       	ldi	r21, 0x00	; 0
    39ba:	40 93 71 39 	sts	0x3971, r20	; 0x803971 <reactStr+0x44>
    39be:	50 93 72 39 	sts	0x3972, r21	; 0x803972 <reactStr+0x45>
    reactStr[2][number]=type;
    39c2:	20 93 b1 39 	sts	0x39B1, r18	; 0x8039b1 <reactStr+0x84>
    39c6:	30 93 b2 39 	sts	0x39B2, r19	; 0x8039b2 <reactStr+0x85>

                    SetResponse(elements++, A_YOURPART, L_YOURPART, TEASER);
                    SetResponse(elements++, A_HEXPREFIX, L_HEXPREFIX, TEASER);
                    
                    //Set up sending out number
                    for (n=7; n>=0; --n) {
    39ca:	07 e0       	ldi	r16, 0x07	; 7
                        digit[n] = answer % 16;
    39cc:	f7 01       	movw	r30, r14
    39ce:	e0 0f       	add	r30, r16
    39d0:	f1 1d       	adc	r31, r1
    39d2:	28 2f       	mov	r18, r24
    39d4:	2f 70       	andi	r18, 0x0F	; 15
    39d6:	20 83       	st	Z, r18
                        answer /= 16;
    39d8:	44 e0       	ldi	r20, 0x04	; 4
    39da:	b6 95       	lsr	r27
    39dc:	a7 95       	ror	r26
    39de:	97 95       	ror	r25
    39e0:	87 95       	ror	r24
    39e2:	4a 95       	dec	r20
    39e4:	d1 f7       	brne	.-12     	; 0x39da <ProcessInput+0xd60>
                        if (answer == 0) break;
    39e6:	00 97       	sbiw	r24, 0x00	; 0
    39e8:	a1 05       	cpc	r26, r1
    39ea:	b1 05       	cpc	r27, r1
    39ec:	49 f4       	brne	.+18     	; 0x3a00 <ProcessInput+0xd86>
    39ee:	2d e2       	ldi	r18, 0x2D	; 45
    39f0:	c2 2e       	mov	r12, r18
    39f2:	29 e3       	ldi	r18, 0x39	; 57
    39f4:	d2 2e       	mov	r13, r18
    39f6:	13 e0       	ldi	r17, 0x03	; 3
}

//
void SetResponse(uint8_t number, uint16_t address, uint16_t length, uint8_t type){
    reactStr[0][number]=address;
    reactStr[1][number]=length;
    39f8:	aa 24       	eor	r10, r10
    39fa:	a3 94       	inc	r10
    39fc:	b1 2c       	mov	r11, r1
    39fe:	02 c0       	rjmp	.+4      	; 0x3a04 <ProcessInput+0xd8a>

                    SetResponse(elements++, A_YOURPART, L_YOURPART, TEASER);
                    SetResponse(elements++, A_HEXPREFIX, L_HEXPREFIX, TEASER);
                    
                    //Set up sending out number
                    for (n=7; n>=0; --n) {
    3a00:	01 50       	subi	r16, 0x01	; 1
                        digit[n] = answer % 16;
                        answer /= 16;
                        if (answer == 0) break;
                    }
    3a02:	e4 cf       	rjmp	.-56     	; 0x39cc <ProcessInput+0xd52>
    3a04:	b2 e0       	ldi	r27, 0x02	; 2
    3a06:	cb 0e       	add	r12, r27
    3a08:	d1 1c       	adc	r13, r1

                    for (; n<8; ++n) {
    3a0a:	08 30       	cpi	r16, 0x08	; 8
    3a0c:	08 f0       	brcs	.+2      	; 0x3a10 <ProcessInput+0xd96>
    3a0e:	9e c0       	rjmp	.+316    	; 0x3b4c <ProcessInput+0xed2>
                        SetResponse(elements++, A_DIGITS+digit[n], 1, TEASER);
    3a10:	1f 5f       	subi	r17, 0xFF	; 255
    3a12:	f7 01       	movw	r30, r14
    3a14:	e0 0f       	add	r30, r16
    3a16:	f1 1d       	adc	r31, r1
    return 0;
}

//
void SetResponse(uint8_t number, uint16_t address, uint16_t length, uint8_t type){
    reactStr[0][number]=address;
    3a18:	80 81       	ld	r24, Z
    3a1a:	90 e0       	ldi	r25, 0x00	; 0
    3a1c:	83 57       	subi	r24, 0x73	; 115
    3a1e:	9b 48       	sbci	r25, 0x8B	; 139
    3a20:	d6 01       	movw	r26, r12
    3a22:	14 96       	adiw	r26, 0x04	; 4
    3a24:	8d 93       	st	X+, r24
    3a26:	9c 93       	st	X, r25
    3a28:	15 97       	sbiw	r26, 0x05	; 5
    reactStr[1][number]=length;
    3a2a:	f6 01       	movw	r30, r12
    3a2c:	ec 5b       	subi	r30, 0xBC	; 188
    3a2e:	ff 4f       	sbci	r31, 0xFF	; 255
    3a30:	a0 82       	st	Z, r10
    3a32:	b1 82       	std	Z+1, r11	; 0x01
    reactStr[2][number]=type;
    3a34:	e0 5c       	subi	r30, 0xC0	; 192
    3a36:	ff 4f       	sbci	r31, 0xFF	; 255
    3a38:	a0 82       	st	Z, r10
    3a3a:	b1 82       	std	Z+1, r11	; 0x01
                        if (answer == 0) break;
                    }

                    for (; n<8; ++n) {
                        SetResponse(elements++, A_DIGITS+digit[n], 1, TEASER);
                        UpdateState(actObj1.byteField[ACTION_STATE]);
    3a3c:	80 91 f6 38 	lds	r24, 0x38F6	; 0x8038f6 <actObj1.3956+0xa>
    3a40:	0e 94 47 09 	call	0x128e	; 0x128e <UpdateState>
                        digit[n] = answer % 16;
                        answer /= 16;
                        if (answer == 0) break;
                    }

                    for (; n<8; ++n) {
    3a44:	0f 5f       	subi	r16, 0xFF	; 255
    3a46:	de cf       	rjmp	.-68     	; 0x3a04 <ProcessInput+0xd8a>
    return 0;
}

//
void SetResponse(uint8_t number, uint16_t address, uint16_t length, uint8_t type){
    reactStr[0][number]=address;
    3a48:	88 ee       	ldi	r24, 0xE8	; 232
    3a4a:	94 e7       	ldi	r25, 0x74	; 116
    3a4c:	80 93 2f 39 	sts	0x392F, r24	; 0x80392f <reactStr+0x2>
    3a50:	90 93 30 39 	sts	0x3930, r25	; 0x803930 <reactStr+0x3>
    reactStr[1][number]=length;
    3a54:	8d e3       	ldi	r24, 0x3D	; 61
    3a56:	90 e0       	ldi	r25, 0x00	; 0
    3a58:	80 93 6f 39 	sts	0x396F, r24	; 0x80396f <reactStr+0x42>
    3a5c:	90 93 70 39 	sts	0x3970, r25	; 0x803970 <reactStr+0x43>
    reactStr[2][number]=type;
    3a60:	81 e0       	ldi	r24, 0x01	; 1
    3a62:	90 e0       	ldi	r25, 0x00	; 0
    3a64:	80 93 af 39 	sts	0x39AF, r24	; 0x8039af <reactStr+0x82>
    3a68:	90 93 b0 39 	sts	0x39B0, r25	; 0x8039b0 <reactStr+0x83>
    3a6c:	6e c0       	rjmp	.+220    	; 0x3b4a <ProcessInput+0xed0>
    3a6e:	e0 91 3e 38 	lds	r30, 0x383E	; 0x80383e <currDepth>
                    SetResponse(elements++, A_BADOFFERING, L_BADOFFERING, TEASER);
                }
            
            //Other questions    
            } else if (specialPassed == 1) {
                PopulateObject(route[currDepth+1], &actObj1);
    3a72:	f0 e0       	ldi	r31, 0x00	; 0
    3a74:	ee 0f       	add	r30, r30
    3a76:	ff 1f       	adc	r31, r31
    3a78:	e1 51       	subi	r30, 0x11	; 17
    3a7a:	f6 4c       	sbci	r31, 0xC6	; 198
    3a7c:	6c ee       	ldi	r22, 0xEC	; 236
    3a7e:	78 e3       	ldi	r23, 0x38	; 56
                } else {
                    SetResponse(elements++, A_BADOFFERING, L_BADOFFERING, TEASER);
                }
            
            //Other questions    
            } else if (specialPassed == 1) {
    3a80:	81 30       	cpi	r24, 0x01	; 1
    3a82:	09 f0       	breq	.+2      	; 0x3a86 <ProcessInput+0xe0c>
    3a84:	46 c0       	rjmp	.+140    	; 0x3b12 <ProcessInput+0xe98>
                PopulateObject(route[currDepth+1], &actObj1);
    3a86:	80 81       	ld	r24, Z
    3a88:	91 81       	ldd	r25, Z+1	; 0x01
    3a8a:	0e 94 fb 11 	call	0x23f6	; 0x23f6 <PopulateObject>
                if (CheckState(actObj1.byteField[ACTION_ACL])){
    3a8e:	80 91 f3 38 	lds	r24, 0x38F3	; 0x8038f3 <actObj1.3956+0x7>
    3a92:	0e 94 68 09 	call	0x12d0	; 0x12d0 <CheckState>
    3a96:	88 23       	and	r24, r24
    3a98:	01 f1       	breq	.+64     	; 0x3ada <ProcessInput+0xe60>
                    SetResponse(elements++, actObj1.addrStr[ACTION_MSG], actObj1.lenStr[ACTION_MSG], GAME);
    3a9a:	80 91 12 39 	lds	r24, 0x3912	; 0x803912 <actObj1.3956+0x26>
    3a9e:	90 91 13 39 	lds	r25, 0x3913	; 0x803913 <actObj1.3956+0x27>
    return 0;
}

//
void SetResponse(uint8_t number, uint16_t address, uint16_t length, uint8_t type){
    reactStr[0][number]=address;
    3aa2:	20 91 04 39 	lds	r18, 0x3904	; 0x803904 <actObj1.3956+0x18>
    3aa6:	30 91 05 39 	lds	r19, 0x3905	; 0x803905 <actObj1.3956+0x19>
    3aaa:	20 93 2f 39 	sts	0x392F, r18	; 0x80392f <reactStr+0x2>
    3aae:	30 93 30 39 	sts	0x3930, r19	; 0x803930 <reactStr+0x3>
    reactStr[1][number]=length;
    3ab2:	80 93 6f 39 	sts	0x396F, r24	; 0x80396f <reactStr+0x42>
    3ab6:	90 93 70 39 	sts	0x3970, r25	; 0x803970 <reactStr+0x43>
    reactStr[2][number]=type;
    3aba:	10 92 af 39 	sts	0x39AF, r1	; 0x8039af <reactStr+0x82>
    3abe:	10 92 b0 39 	sts	0x39B0, r1	; 0x8039b0 <reactStr+0x83>
            //Other questions    
            } else if (specialPassed == 1) {
                PopulateObject(route[currDepth+1], &actObj1);
                if (CheckState(actObj1.byteField[ACTION_ACL])){
                    SetResponse(elements++, actObj1.addrStr[ACTION_MSG], actObj1.lenStr[ACTION_MSG], GAME);
                    effect = actObj1.effect[2];
    3ac2:	80 91 16 39 	lds	r24, 0x3916	; 0x803916 <actObj1.3956+0x2a>
    3ac6:	90 e0       	ldi	r25, 0x00	; 0
    3ac8:	80 93 4a 38 	sts	0x384A, r24	; 0x80384a <effect>
    3acc:	90 93 4b 38 	sts	0x384B, r25	; 0x80384b <effect+0x1>
                    UpdateState(actObj1.byteField[ACTION_STATE]);
    3ad0:	80 91 f6 38 	lds	r24, 0x38F6	; 0x8038f6 <actObj1.3956+0xa>
    3ad4:	0e 94 47 09 	call	0x128e	; 0x128e <UpdateState>
    3ad8:	38 c0       	rjmp	.+112    	; 0x3b4a <ProcessInput+0xed0>
                } else {
                    SetResponse(elements++, actObj1.addrStr[ACTION_ACL_MSG], actObj1.lenStr[ACTION_ACL_MSG], GAME);
    3ada:	80 91 10 39 	lds	r24, 0x3910	; 0x803910 <actObj1.3956+0x24>
    3ade:	90 91 11 39 	lds	r25, 0x3911	; 0x803911 <actObj1.3956+0x25>
    return 0;
}

//
void SetResponse(uint8_t number, uint16_t address, uint16_t length, uint8_t type){
    reactStr[0][number]=address;
    3ae2:	20 91 02 39 	lds	r18, 0x3902	; 0x803902 <actObj1.3956+0x16>
    3ae6:	30 91 03 39 	lds	r19, 0x3903	; 0x803903 <actObj1.3956+0x17>
    3aea:	20 93 2f 39 	sts	0x392F, r18	; 0x80392f <reactStr+0x2>
    3aee:	30 93 30 39 	sts	0x3930, r19	; 0x803930 <reactStr+0x3>
    reactStr[1][number]=length;
    3af2:	80 93 6f 39 	sts	0x396F, r24	; 0x80396f <reactStr+0x42>
    3af6:	90 93 70 39 	sts	0x3970, r25	; 0x803970 <reactStr+0x43>
    reactStr[2][number]=type;
    3afa:	10 92 af 39 	sts	0x39AF, r1	; 0x8039af <reactStr+0x82>
    3afe:	10 92 b0 39 	sts	0x39B0, r1	; 0x8039b0 <reactStr+0x83>
                    SetResponse(elements++, actObj1.addrStr[ACTION_MSG], actObj1.lenStr[ACTION_MSG], GAME);
                    effect = actObj1.effect[2];
                    UpdateState(actObj1.byteField[ACTION_STATE]);
                } else {
                    SetResponse(elements++, actObj1.addrStr[ACTION_ACL_MSG], actObj1.lenStr[ACTION_ACL_MSG], GAME);
                    effect = actObj1.effect[1];
    3b02:	80 91 15 39 	lds	r24, 0x3915	; 0x803915 <actObj1.3956+0x29>
    3b06:	90 e0       	ldi	r25, 0x00	; 0
    3b08:	80 93 4a 38 	sts	0x384A, r24	; 0x80384a <effect>
    3b0c:	90 93 4b 38 	sts	0x384B, r25	; 0x80384b <effect+0x1>
    3b10:	1c c0       	rjmp	.+56     	; 0x3b4a <ProcessInput+0xed0>
                }

            } else {
                PopulateObject(route[currDepth+1], &actObj1);
    3b12:	80 81       	ld	r24, Z
    3b14:	91 81       	ldd	r25, Z+1	; 0x01
    3b16:	0e 94 fb 11 	call	0x23f6	; 0x23f6 <PopulateObject>
    return 0;
}

//
void SetResponse(uint8_t number, uint16_t address, uint16_t length, uint8_t type){
    reactStr[0][number]=address;
    3b1a:	80 e6       	ldi	r24, 0x60	; 96
    3b1c:	98 e7       	ldi	r25, 0x78	; 120
    3b1e:	80 93 2f 39 	sts	0x392F, r24	; 0x80392f <reactStr+0x2>
    3b22:	90 93 30 39 	sts	0x3930, r25	; 0x803930 <reactStr+0x3>
    reactStr[1][number]=length;
    3b26:	8d e4       	ldi	r24, 0x4D	; 77
    3b28:	90 e0       	ldi	r25, 0x00	; 0
    3b2a:	80 93 6f 39 	sts	0x396F, r24	; 0x80396f <reactStr+0x42>
    3b2e:	90 93 70 39 	sts	0x3970, r25	; 0x803970 <reactStr+0x43>
    reactStr[2][number]=type;
    3b32:	81 e0       	ldi	r24, 0x01	; 1
    3b34:	90 e0       	ldi	r25, 0x00	; 0
    3b36:	80 93 af 39 	sts	0x39AF, r24	; 0x8039af <reactStr+0x82>
    3b3a:	90 93 b0 39 	sts	0x39B0, r25	; 0x8039b0 <reactStr+0x83>
                }

            } else {
                PopulateObject(route[currDepth+1], &actObj1);
                SetResponse(elements++, A_INCORRECT, L_INCORRECT, TEASER);
                PunishmentTime = getClock();
    3b3e:	0e 94 54 0e 	call	0x1ca8	; 0x1ca8 <getClock>
    3b42:	80 93 19 39 	sts	0x3919, r24	; 0x803919 <PunishmentTime>
    3b46:	90 93 1a 39 	sts	0x391A, r25	; 0x80391a <PunishmentTime+0x1>
                    effect = actObj1.effect[1];
                }

            } else {
                PopulateObject(route[currDepth+1], &actObj1);
                SetResponse(elements++, A_INCORRECT, L_INCORRECT, TEASER);
    3b4a:	12 e0       	ldi	r17, 0x02	; 2
                PunishmentTime = getClock();
            }
            specialInput[0] = 0;
    3b4c:	10 92 1c 39 	sts	0x391C, r1	; 0x80391c <specialInput>

        }
                    
        //Input handled
        if (specialInput[0]) responseList = elements; else responseList = SetStandardResponse(elements);
    3b50:	80 91 1c 39 	lds	r24, 0x391C	; 0x80391c <specialInput>
    3b54:	88 23       	and	r24, r24
    3b56:	19 f0       	breq	.+6      	; 0x3b5e <ProcessInput+0xee4>
    3b58:	10 93 2c 39 	sts	0x392C, r17	; 0x80392c <responseList>
    3b5c:	8b c0       	rjmp	.+278    	; 0x3c74 <ProcessInput+0xffa>
    3b5e:	81 2f       	mov	r24, r17
    3b60:	01 c0       	rjmp	.+2      	; 0x3b64 <ProcessInput+0xeea>

    } else {

        responseList = SetStandardResponse(1);
    3b62:	81 e0       	ldi	r24, 0x01	; 1
    3b64:	0e 94 7f 11 	call	0x22fe	; 0x22fe <SetStandardResponse>
    3b68:	80 93 2c 39 	sts	0x392C, r24	; 0x80392c <responseList>
    3b6c:	83 c0       	rjmp	.+262    	; 0x3c74 <ProcessInput+0xffa>
    return 0;
}

//
void SetResponse(uint8_t number, uint16_t address, uint16_t length, uint8_t type){
    reactStr[0][number]=address;
    3b6e:	81 ed       	ldi	r24, 0xD1	; 209
    3b70:	99 e7       	ldi	r25, 0x79	; 121
    3b72:	80 93 2f 39 	sts	0x392F, r24	; 0x80392f <reactStr+0x2>
    3b76:	90 93 30 39 	sts	0x3930, r25	; 0x803930 <reactStr+0x3>
    reactStr[1][number]=length;
    3b7a:	8a e1       	ldi	r24, 0x1A	; 26
    3b7c:	90 e0       	ldi	r25, 0x00	; 0
    3b7e:	45 c9       	rjmp	.-3446   	; 0x2e0a <ProcessInput+0x190>

        //Drop item if in inventory
        if (data[0] == 'd') {
            if ((inventory[0] == 0)&&(inventory[1] == 0)){
                SetResponse(elements++, A_EMPTYHANDS, L_EMPTYHANDS, TEASER);
            } else if (inputLen != 2) {
    3b80:	f2 e0       	ldi	r31, 0x02	; 2
    3b82:	ff 12       	cpse	r15, r31
    3b84:	ad c8       	rjmp	.-3750   	; 0x2ce0 <ProcessInput+0x66>
                SetResponse(elements++, A_NOTPOSSIBLE, L_NOTPOSSIBLE, TEASER);
            } else {
                for (uint8_t x=0; x<2; ++x) {
                    if (inventory[x]) {
                        if (CheckLetter(inventory[x], data[1])) {
    3b86:	f3 01       	movw	r30, r6
    3b88:	61 81       	ldd	r22, Z+1	; 0x01
    3b8a:	0e 94 74 12 	call	0x24e8	; 0x24e8 <CheckLetter>
    3b8e:	88 23       	and	r24, r24
    3b90:	09 f4       	brne	.+2      	; 0x3b94 <ProcessInput+0xf1a>
    3b92:	58 c0       	rjmp	.+176    	; 0x3c44 <ProcessInput+0xfca>
                SetResponse(elements++, A_EMPTYHANDS, L_EMPTYHANDS, TEASER);
            } else if (inputLen != 2) {
                SetResponse(elements++, A_NOTPOSSIBLE, L_NOTPOSSIBLE, TEASER);
            } else {
                for (uint8_t x=0; x<2; ++x) {
                    if (inventory[x]) {
    3b94:	00 e0       	ldi	r16, 0x00	; 0
    3b96:	10 e0       	ldi	r17, 0x00	; 0
                        if (CheckLetter(inventory[x], data[1])) {
                            PopulateObject(inventory[x], &actObj1);
    3b98:	00 0f       	add	r16, r16
    3b9a:	11 1f       	adc	r17, r17
    3b9c:	02 5b       	subi	r16, 0xB2	; 178
    3b9e:	17 4c       	sbci	r17, 0xC7	; 199
    3ba0:	6c ee       	ldi	r22, 0xEC	; 236
    3ba2:	78 e3       	ldi	r23, 0x38	; 56
    3ba4:	d8 01       	movw	r26, r16
    3ba6:	8d 91       	ld	r24, X+
    3ba8:	9c 91       	ld	r25, X
    3baa:	0e 94 fb 11 	call	0x23f6	; 0x23f6 <PopulateObject>
    return 0;
}

//
void SetResponse(uint8_t number, uint16_t address, uint16_t length, uint8_t type){
    reactStr[0][number]=address;
    3bae:	86 e9       	ldi	r24, 0x96	; 150
    3bb0:	97 e7       	ldi	r25, 0x77	; 119
    3bb2:	80 93 2f 39 	sts	0x392F, r24	; 0x80392f <reactStr+0x2>
    3bb6:	90 93 30 39 	sts	0x3930, r25	; 0x803930 <reactStr+0x3>
    reactStr[1][number]=length;
    3bba:	80 e1       	ldi	r24, 0x10	; 16
    3bbc:	90 e0       	ldi	r25, 0x00	; 0
    3bbe:	80 93 6f 39 	sts	0x396F, r24	; 0x80396f <reactStr+0x42>
    3bc2:	90 93 70 39 	sts	0x3970, r25	; 0x803970 <reactStr+0x43>
    reactStr[2][number]=type;
    3bc6:	81 e0       	ldi	r24, 0x01	; 1
    3bc8:	90 e0       	ldi	r25, 0x00	; 0
    3bca:	80 93 af 39 	sts	0x39AF, r24	; 0x8039af <reactStr+0x82>
    3bce:	90 93 b0 39 	sts	0x39B0, r25	; 0x8039b0 <reactStr+0x83>
                for (uint8_t x=0; x<2; ++x) {
                    if (inventory[x]) {
                        if (CheckLetter(inventory[x], data[1])) {
                            PopulateObject(inventory[x], &actObj1);
                            SetResponse(elements++, A_DROPPING, L_DROPPING, TEASER);
                            SetResponse(elements++, actObj1.addrStr[NAME], actObj1.lenStr[NAME], GAME);
    3bd2:	20 91 06 39 	lds	r18, 0x3906	; 0x803906 <actObj1.3956+0x1a>
    3bd6:	30 91 07 39 	lds	r19, 0x3907	; 0x803907 <actObj1.3956+0x1b>
    return 0;
}

//
void SetResponse(uint8_t number, uint16_t address, uint16_t length, uint8_t type){
    reactStr[0][number]=address;
    3bda:	40 91 f8 38 	lds	r20, 0x38F8	; 0x8038f8 <actObj1.3956+0xc>
    3bde:	50 91 f9 38 	lds	r21, 0x38F9	; 0x8038f9 <actObj1.3956+0xd>
    3be2:	40 93 31 39 	sts	0x3931, r20	; 0x803931 <reactStr+0x4>
    3be6:	50 93 32 39 	sts	0x3932, r21	; 0x803932 <reactStr+0x5>
    reactStr[1][number]=length;
    3bea:	20 93 71 39 	sts	0x3971, r18	; 0x803971 <reactStr+0x44>
    3bee:	30 93 72 39 	sts	0x3972, r19	; 0x803972 <reactStr+0x45>
    reactStr[2][number]=type;
    3bf2:	10 92 b1 39 	sts	0x39B1, r1	; 0x8039b1 <reactStr+0x84>
    3bf6:	10 92 b2 39 	sts	0x39B2, r1	; 0x8039b2 <reactStr+0x85>
    return 0;
}

//
void SetResponse(uint8_t number, uint16_t address, uint16_t length, uint8_t type){
    reactStr[0][number]=address;
    3bfa:	29 e5       	ldi	r18, 0x59	; 89
    3bfc:	3a e7       	ldi	r19, 0x7A	; 122
    3bfe:	20 93 33 39 	sts	0x3933, r18	; 0x803933 <reactStr+0x6>
    3c02:	30 93 34 39 	sts	0x3934, r19	; 0x803934 <reactStr+0x7>
    reactStr[1][number]=length;
    3c06:	22 e0       	ldi	r18, 0x02	; 2
    3c08:	30 e0       	ldi	r19, 0x00	; 0
    3c0a:	20 93 73 39 	sts	0x3973, r18	; 0x803973 <reactStr+0x46>
    3c0e:	30 93 74 39 	sts	0x3974, r19	; 0x803974 <reactStr+0x47>
    reactStr[2][number]=type;
    3c12:	80 93 b3 39 	sts	0x39B3, r24	; 0x8039b3 <reactStr+0x86>
    3c16:	90 93 b4 39 	sts	0x39B4, r25	; 0x8039b4 <reactStr+0x87>
    return 0;
}

//
void SetResponse(uint8_t number, uint16_t address, uint16_t length, uint8_t type){
    reactStr[0][number]=address;
    3c1a:	29 e5       	ldi	r18, 0x59	; 89
    3c1c:	37 e7       	ldi	r19, 0x77	; 119
    3c1e:	20 93 35 39 	sts	0x3935, r18	; 0x803935 <reactStr+0x8>
    3c22:	30 93 36 39 	sts	0x3936, r19	; 0x803936 <reactStr+0x9>
    reactStr[1][number]=length;
    3c26:	2d e3       	ldi	r18, 0x3D	; 61
    3c28:	30 e0       	ldi	r19, 0x00	; 0
    3c2a:	20 93 75 39 	sts	0x3975, r18	; 0x803975 <reactStr+0x48>
    3c2e:	30 93 76 39 	sts	0x3976, r19	; 0x803976 <reactStr+0x49>
    reactStr[2][number]=type;
    3c32:	80 93 b5 39 	sts	0x39B5, r24	; 0x8039b5 <reactStr+0x88>
    3c36:	90 93 b6 39 	sts	0x39B6, r25	; 0x8039b6 <reactStr+0x89>
                            PopulateObject(inventory[x], &actObj1);
                            SetResponse(elements++, A_DROPPING, L_DROPPING, TEASER);
                            SetResponse(elements++, actObj1.addrStr[NAME], actObj1.lenStr[NAME], GAME);
                            SetResponse(elements++, A_LF, 2, TEASER);
                            SetResponse(elements++, A_RETURNING, L_RETURNING, TEASER);
                            inventory[x] = 0;
    3c3a:	f8 01       	movw	r30, r16
    3c3c:	10 82       	st	Z, r1
    3c3e:	11 82       	std	Z+1, r1	; 0x01
                        if (CheckLetter(inventory[x], data[1])) {
                            PopulateObject(inventory[x], &actObj1);
                            SetResponse(elements++, A_DROPPING, L_DROPPING, TEASER);
                            SetResponse(elements++, actObj1.addrStr[NAME], actObj1.lenStr[NAME], GAME);
                            SetResponse(elements++, A_LF, 2, TEASER);
                            SetResponse(elements++, A_RETURNING, L_RETURNING, TEASER);
    3c40:	15 e0       	ldi	r17, 0x05	; 5
                            inventory[x] = 0;
                            break;
    3c42:	86 cf       	rjmp	.-244    	; 0x3b50 <ProcessInput+0xed6>
                SetResponse(elements++, A_EMPTYHANDS, L_EMPTYHANDS, TEASER);
            } else if (inputLen != 2) {
                SetResponse(elements++, A_NOTPOSSIBLE, L_NOTPOSSIBLE, TEASER);
            } else {
                for (uint8_t x=0; x<2; ++x) {
                    if (inventory[x]) {
    3c44:	80 91 50 38 	lds	r24, 0x3850	; 0x803850 <inventory+0x2>
    3c48:	90 91 51 38 	lds	r25, 0x3851	; 0x803851 <inventory+0x3>
    3c4c:	00 97       	sbiw	r24, 0x00	; 0
    3c4e:	49 f0       	breq	.+18     	; 0x3c62 <ProcessInput+0xfe8>
                        if (CheckLetter(inventory[x], data[1])) {
    3c50:	f3 01       	movw	r30, r6
    3c52:	61 81       	ldd	r22, Z+1	; 0x01
    3c54:	0e 94 74 12 	call	0x24e8	; 0x24e8 <CheckLetter>
    3c58:	88 23       	and	r24, r24
    3c5a:	19 f0       	breq	.+6      	; 0x3c62 <ProcessInput+0xfe8>
                SetResponse(elements++, A_EMPTYHANDS, L_EMPTYHANDS, TEASER);
            } else if (inputLen != 2) {
                SetResponse(elements++, A_NOTPOSSIBLE, L_NOTPOSSIBLE, TEASER);
            } else {
                for (uint8_t x=0; x<2; ++x) {
                    if (inventory[x]) {
    3c5c:	01 e0       	ldi	r16, 0x01	; 1
    3c5e:	10 e0       	ldi	r17, 0x00	; 0
    return 0;
}

//
void SetResponse(uint8_t number, uint16_t address, uint16_t length, uint8_t type){
    reactStr[0][number]=address;
    3c60:	9b cf       	rjmp	.-202    	; 0x3b98 <ProcessInput+0xf1e>
    3c62:	81 e6       	ldi	r24, 0x61	; 97
    3c64:	99 e7       	ldi	r25, 0x79	; 121
    3c66:	80 93 2f 39 	sts	0x392F, r24	; 0x80392f <reactStr+0x2>
    3c6a:	90 93 30 39 	sts	0x3930, r25	; 0x803930 <reactStr+0x3>
    reactStr[1][number]=length;
    3c6e:	81 e2       	ldi	r24, 0x21	; 33
    3c70:	90 e0       	ldi	r25, 0x00	; 0
    } else {

        responseList = SetStandardResponse(1);
    }

    data[0] = 0;
    3c72:	cb c8       	rjmp	.-3690   	; 0x2e0a <ProcessInput+0x190>
    3c74:	f3 01       	movw	r30, r6
    serRxDone = 0;
    3c76:	10 82       	st	Z, r1
    3c78:	10 92 55 38 	sts	0x3855, r1	; 0x803855 <serRxDone>
    RXCNT = 0;    
    return 0;
}
    3c7c:	1d ba       	out	0x1d, r1	; 29
    3c7e:	80 e0       	ldi	r24, 0x00	; 0
    3c80:	28 96       	adiw	r28, 0x08	; 8
    3c82:	ee e0       	ldi	r30, 0x0E	; 14
    3c84:	37 c1       	rjmp	.+622    	; 0x3ef4 <__epilogue_restores__+0x8>

00003c86 <TextAdventure>:


//MAIN GAME STRUCTURE
uint8_t TextAdventure(){
    3c86:	cf 93       	push	r28
    static uint8_t serInput[RXLEN];
    uint16_t PunishmentCount;
    
    /* Count down PunishmentTime on WING LEDs */
    if (PunishmentTime != 0) {
    3c88:	80 91 19 39 	lds	r24, 0x3919	; 0x803919 <PunishmentTime>
    3c8c:	90 91 1a 39 	lds	r25, 0x391A	; 0x80391a <PunishmentTime+0x1>
    3c90:	89 2b       	or	r24, r25
    3c92:	09 f1       	breq	.+66     	; 0x3cd6 <TextAdventure+0x50>
        PunishmentCount = getClock();
    3c94:	0e 94 54 0e 	call	0x1ca8	; 0x1ca8 <getClock>
        if (PunishmentCount < PunishmentTime)
    3c98:	20 91 19 39 	lds	r18, 0x3919	; 0x803919 <PunishmentTime>
    3c9c:	30 91 1a 39 	lds	r19, 0x391A	; 0x80391a <PunishmentTime+0x1>
    3ca0:	82 17       	cp	r24, r18
    3ca2:	93 07       	cpc	r25, r19
    3ca4:	08 f4       	brcc	.+2      	; 0x3ca8 <TextAdventure+0x22>
            PunishmentCount += 256 * 60;
    3ca6:	94 5c       	subi	r25, 0xC4	; 196
        PunishmentCount -= PunishmentTime;
    3ca8:	ac 01       	movw	r20, r24
    3caa:	42 1b       	sub	r20, r18
    3cac:	53 0b       	sbc	r21, r19
    3cae:	9a 01       	movw	r18, r20
        if (PunishmentCount > 10) {
    3cb0:	4b 30       	cpi	r20, 0x0B	; 11
    3cb2:	51 05       	cpc	r21, r1
    3cb4:	30 f0       	brcs	.+12     	; 0x3cc2 <TextAdventure+0x3c>
            PunishmentTime = 0;
    3cb6:	10 92 19 39 	sts	0x3919, r1	; 0x803919 <PunishmentTime>
    3cba:	10 92 1a 39 	sts	0x391A, r1	; 0x80391a <PunishmentTime+0x1>
            PunishmentCount = 10;
    3cbe:	2a e0       	ldi	r18, 0x0A	; 10
    3cc0:	30 e0       	ldi	r19, 0x00	; 0
        }
        if (gameNow == TEXT ) {
    3cc2:	80 91 4c 38 	lds	r24, 0x384C	; 0x80384c <gameNow>
    3cc6:	81 11       	cpse	r24, r1
    3cc8:	06 c0       	rjmp	.+12     	; 0x3cd6 <TextAdventure+0x50>
            WingBar(10-PunishmentCount,5-PunishmentCount);
    3cca:	65 e0       	ldi	r22, 0x05	; 5
    3ccc:	62 1b       	sub	r22, r18
    3cce:	8a e0       	ldi	r24, 0x0A	; 10
    3cd0:	82 1b       	sub	r24, r18
    3cd2:	0e 94 63 0a 	call	0x14c6	; 0x14c6 <WingBar>
        }
    }

    //Still sending data to serial?
    if (CheckSend()) return 1;
    3cd6:	0e 94 4c 13 	call	0x2698	; 0x2698 <CheckSend>
    3cda:	88 23       	and	r24, r24
    3cdc:	11 f0       	breq	.+4      	; 0x3ce2 <TextAdventure+0x5c>
    3cde:	c1 e0       	ldi	r28, 0x01	; 1
    3ce0:	18 c0       	rjmp	.+48     	; 0x3d12 <TextAdventure+0x8c>

    //Not sending? Process next response part to send, if any.
    if (CheckResponse()) return 1;        
    3ce2:	0e 94 a2 13 	call	0x2744	; 0x2744 <CheckResponse>
    3ce6:	c8 2f       	mov	r28, r24
    3ce8:	81 11       	cpse	r24, r1
    3cea:	f9 cf       	rjmp	.-14     	; 0x3cde <TextAdventure+0x58>

    if (PunishmentTime == 0) {
    3cec:	80 91 19 39 	lds	r24, 0x3919	; 0x803919 <PunishmentTime>
    3cf0:	90 91 1a 39 	lds	r25, 0x391A	; 0x80391a <PunishmentTime+0x1>
    3cf4:	89 2b       	or	r24, r25
    3cf6:	69 f4       	brne	.+26     	; 0x3d12 <TextAdventure+0x8c>
        //No responses to send, check if there is user input.
        if (CheckInput(&serInput[0])) return 2; 
    3cf8:	80 e8       	ldi	r24, 0x80	; 128
    3cfa:	98 e3       	ldi	r25, 0x38	; 56
    3cfc:	0e 94 e2 13 	call	0x27c4	; 0x27c4 <CheckInput>
    3d00:	c8 2f       	mov	r28, r24
    3d02:	81 11       	cpse	r24, r1
    3d04:	05 c0       	rjmp	.+10     	; 0x3d10 <TextAdventure+0x8a>

        //Input found, process and save (changes only)
        ProcessInput(&serInput[0]);
    3d06:	80 e8       	ldi	r24, 0x80	; 128
    3d08:	98 e3       	ldi	r25, 0x38	; 56
    3d0a:	0e 94 3d 16 	call	0x2c7a	; 0x2c7a <ProcessInput>
    3d0e:	01 c0       	rjmp	.+2      	; 0x3d12 <TextAdventure+0x8c>
    //Not sending? Process next response part to send, if any.
    if (CheckResponse()) return 1;        

    if (PunishmentTime == 0) {
        //No responses to send, check if there is user input.
        if (CheckInput(&serInput[0])) return 2; 
    3d10:	c2 e0       	ldi	r28, 0x02	; 2
        //Input found, process and save (changes only)
        ProcessInput(&serInput[0]);
    }

    return 0;
}
    3d12:	8c 2f       	mov	r24, r28
    3d14:	cf 91       	pop	r28
    3d16:	08 95       	ret

00003d18 <main>:


//This is where it begins, inits first and main program in while(1) loop.
int main(void)
{
    Setup();
    3d18:	0e 94 91 03 	call	0x722	; 0x722 <Setup>
    LoadGameState();
    3d1c:	0e 94 c3 09 	call	0x1386	; 0x1386 <LoadGameState>
    gameState[0]|=1;
    3d20:	80 91 73 3a 	lds	r24, 0x3A73	; 0x803a73 <gameState>
    3d24:	81 60       	ori	r24, 0x01	; 1
    3d26:	80 93 73 3a 	sts	0x3A73, r24	; 0x803a73 <gameState>

    //Check if fine
    if (SelfTest()) {
    3d2a:	0e 94 7b 0e 	call	0x1cf6	; 0x1cf6 <SelfTest>
    3d2e:	88 23       	and	r24, r24
    3d30:	21 f0       	breq	.+8      	; 0x3d3a <main+0x22>
        WipeAfterBoot(1);
    3d32:	81 e0       	ldi	r24, 0x01	; 1
    3d34:	0e 94 87 09 	call	0x130e	; 0x130e <WipeAfterBoot>
    3d38:	ff cf       	rjmp	.-2      	; 0x3d38 <main+0x20>
    3d3a:	c0 91 3c bf 	lds	r28, 0xBF3C	; 0x80bf3c <__bss_end+0x8415>
                if (buttonState != 0xff) {
                    iLED[CAT] = dimValue;
                    if ((effect & 0xffe0)==0)
                        effect = 0x13f + (buttonState << 5);
                } else {
                    iLED[CAT] = 0;
    3d3e:	d0 e0       	ldi	r29, 0x00	; 0
    3d40:	c8 52       	subi	r28, 0x28	; 40
    3d42:	d5 4c       	sbci	r29, 0xC5	; 197
                if (lightsensorSum>>6 < 128) {
                    dimValue = lightsensorSum>>5;
                    if (dimValue < 8)
                        dimValue = 8;
                } else {
                    dimValue = 255;
    3d44:	1f ef       	ldi	r17, 0xFF	; 255
                lightsensorSum -= (lightsensorSum>>6);
                lightsensorSum += adcPhot>>4;
                if (lightsensorSum>>6 < 128) {
                    dimValue = lightsensorSum>>5;
                    if (dimValue < 8)
                        dimValue = 8;
    3d46:	08 e0       	ldi	r16, 0x08	; 8

    //Startup
    } else {

        while (TRUE) {
            if (GenerateAudio()) {
    3d48:	0e 94 6d 0c 	call	0x18da	; 0x18da <GenerateAudio>
    3d4c:	88 23       	and	r24, r24
    3d4e:	e1 f3       	breq	.-8      	; 0x3d48 <main+0x30>

                //Some sound effects and button readout 
                lastButtonState = buttonState;
    3d50:	80 91 08 38 	lds	r24, 0x3808	; 0x803808 <buttonState>
    3d54:	80 93 07 38 	sts	0x3807, r24	; 0x803807 <lastButtonState>
                buttonState = CheckButtons();
    3d58:	0e 94 13 08 	call	0x1026	; 0x1026 <CheckButtons>
    3d5c:	80 93 08 38 	sts	0x3808, r24	; 0x803808 <buttonState>
                if (buttonState != 0xff) {
    3d60:	8f 3f       	cpi	r24, 0xFF	; 255
    3d62:	a9 f0       	breq	.+42     	; 0x3d8e <main+0x76>
                    iLED[CAT] = dimValue;
    3d64:	90 91 0c 38 	lds	r25, 0x380C	; 0x80380c <dimValue>
    3d68:	98 83       	st	Y, r25
                    if ((effect & 0xffe0)==0)
    3d6a:	20 91 4a 38 	lds	r18, 0x384A	; 0x80384a <effect>
    3d6e:	30 91 4b 38 	lds	r19, 0x384B	; 0x80384b <effect+0x1>
    3d72:	20 7e       	andi	r18, 0xE0	; 224
    3d74:	23 2b       	or	r18, r19
    3d76:	61 f4       	brne	.+24     	; 0x3d90 <main+0x78>
                        effect = 0x13f + (buttonState << 5);
    3d78:	20 e2       	ldi	r18, 0x20	; 32
    3d7a:	82 9f       	mul	r24, r18
    3d7c:	c0 01       	movw	r24, r0
    3d7e:	11 24       	eor	r1, r1
    3d80:	81 5c       	subi	r24, 0xC1	; 193
    3d82:	9e 4f       	sbci	r25, 0xFE	; 254
    3d84:	80 93 4a 38 	sts	0x384A, r24	; 0x80384a <effect>
    3d88:	90 93 4b 38 	sts	0x384B, r25	; 0x80384b <effect+0x1>
    3d8c:	01 c0       	rjmp	.+2      	; 0x3d90 <main+0x78>
                } else {
                    iLED[CAT] = 0;
    3d8e:	18 82       	st	Y, r1
                }
                --buttonMark;
    3d90:	80 91 52 38 	lds	r24, 0x3852	; 0x803852 <buttonMark>
    3d94:	81 50       	subi	r24, 0x01	; 1
    3d96:	80 93 52 38 	sts	0x3852, r24	; 0x803852 <buttonMark>

                //Switch between audio port input (badge to badge comms) and onboard temperature sensor
                if (VREF_CTRLA == 0x12) SelectAuIn(); else SelectTSens();
    3d9a:	80 91 a0 00 	lds	r24, 0x00A0	; 0x8000a0 <__TEXT_REGION_LENGTH__+0x7000a0>
    3d9e:	82 31       	cpi	r24, 0x12	; 18
    3da0:	19 f4       	brne	.+6      	; 0x3da8 <main+0x90>
    3da2:	0e 94 04 08 	call	0x1008	; 0x1008 <SelectAuIn>
    3da6:	02 c0       	rjmp	.+4      	; 0x3dac <main+0x94>
    3da8:	0e 94 f5 07 	call	0xfea	; 0xfea <SelectTSens>

                //Victory dance when the game is completed
                if ((gameNow == TEXT) &&
    3dac:	80 91 4c 38 	lds	r24, 0x384C	; 0x80384c <gameNow>
    3db0:	81 11       	cpse	r24, r1
    3db2:	19 c0       	rjmp	.+50     	; 0x3de6 <main+0xce>
    3db4:	80 91 7d 3a 	lds	r24, 0x3A7D	; 0x803a7d <gameState+0xa>
    3db8:	81 11       	cpse	r24, r1
    3dba:	15 c0       	rjmp	.+42     	; 0x3de6 <main+0xce>
                     (gameState[10] == 0) &&    // No "all ones" EEPROM failure (due to glitching etc.) detected
                     CheckState(122) &&         // Finished BastetDictates
    3dbc:	8a e7       	ldi	r24, 0x7A	; 122
    3dbe:	0e 94 68 09 	call	0x12d0	; 0x12d0 <CheckState>
                //Switch between audio port input (badge to badge comms) and onboard temperature sensor
                if (VREF_CTRLA == 0x12) SelectAuIn(); else SelectTSens();

                //Victory dance when the game is completed
                if ((gameNow == TEXT) &&
                     (gameState[10] == 0) &&    // No "all ones" EEPROM failure (due to glitching etc.) detected
    3dc2:	88 23       	and	r24, r24
    3dc4:	81 f0       	breq	.+32     	; 0x3de6 <main+0xce>
                     CheckState(122) &&         // Finished BastetDictates
                     CheckState(123) &&         // Finished Lanyard
    3dc6:	8b e7       	ldi	r24, 0x7B	; 123
    3dc8:	0e 94 68 09 	call	0x12d0	; 0x12d0 <CheckState>
                if (VREF_CTRLA == 0x12) SelectAuIn(); else SelectTSens();

                //Victory dance when the game is completed
                if ((gameNow == TEXT) &&
                     (gameState[10] == 0) &&    // No "all ones" EEPROM failure (due to glitching etc.) detected
                     CheckState(122) &&         // Finished BastetDictates
    3dcc:	88 23       	and	r24, r24
    3dce:	59 f0       	breq	.+22     	; 0x3de6 <main+0xce>
                     CheckState(123) &&         // Finished Lanyard
                     CheckState(124) &&         // Connected to 3 others
    3dd0:	8c e7       	ldi	r24, 0x7C	; 124
    3dd2:	0e 94 68 09 	call	0x12d0	; 0x12d0 <CheckState>

                //Victory dance when the game is completed
                if ((gameNow == TEXT) &&
                     (gameState[10] == 0) &&    // No "all ones" EEPROM failure (due to glitching etc.) detected
                     CheckState(122) &&         // Finished BastetDictates
                     CheckState(123) &&         // Finished Lanyard
    3dd6:	88 23       	and	r24, r24
    3dd8:	31 f0       	breq	.+12     	; 0x3de6 <main+0xce>
                     CheckState(124) &&         // Connected to 3 others
                     CheckState(127)) {         // Finished the text adventure (implies state 125 and 126)
    3dda:	8f e7       	ldi	r24, 0x7F	; 127
    3ddc:	0e 94 68 09 	call	0x12d0	; 0x12d0 <CheckState>
                //Victory dance when the game is completed
                if ((gameNow == TEXT) &&
                     (gameState[10] == 0) &&    // No "all ones" EEPROM failure (due to glitching etc.) detected
                     CheckState(122) &&         // Finished BastetDictates
                     CheckState(123) &&         // Finished Lanyard
                     CheckState(124) &&         // Connected to 3 others
    3de0:	81 11       	cpse	r24, r1
                     CheckState(127)) {         // Finished the text adventure (implies state 125 and 126)
                
                    //Completed!!!
                    VictoryDance();
    3de2:	0e 94 b4 0a 	call	0x1568	; 0x1568 <VictoryDance>
                }

                //Light effects
                GenerateBlinks();
    3de6:	0e 94 dd 0a 	call	0x15ba	; 0x15ba <GenerateBlinks>

                //Main game, to complete: Finish sub-game MagnetMaze and MakeFriends too.
                TextAdventure();
    3dea:	4d df       	rcall	.-358    	; 0x3c86 <TextAdventure>

                //Other games & user interaction checks
                MagnetMaze();
    3dec:	0e 94 94 02 	call	0x528	; 0x528 <MagnetMaze>
                LanyardCode();
    3df0:	0e 94 97 01 	call	0x32e	; 0x32e <LanyardCode>
                BastetDictates();
    3df4:	0e 94 5c 0f 	call	0x1eb8	; 0x1eb8 <BastetDictates>
                MakeFriends();
    3df8:	0e 94 8d 00 	call	0x11a	; 0x11a <MakeFriends>

                //Save progress
                SaveGameState();
    3dfc:	0e 94 c0 08 	call	0x1180	; 0x1180 <SaveGameState>

                //Check light sensor status (added hysteresis to preserve writing cycles to internal EEPROM)
                if (adcPhot < 10) UpdateState(116);
    3e00:	80 91 d1 3a 	lds	r24, 0x3AD1	; 0x803ad1 <adcPhot>
    3e04:	90 91 d2 3a 	lds	r25, 0x3AD2	; 0x803ad2 <adcPhot+0x1>
    3e08:	0a 97       	sbiw	r24, 0x0a	; 10
    3e0a:	18 f4       	brcc	.+6      	; 0x3e12 <main+0xfa>
    3e0c:	84 e7       	ldi	r24, 0x74	; 116
    3e0e:	0e 94 47 09 	call	0x128e	; 0x128e <UpdateState>
                if (adcPhot > 100) UpdateState(128+116);
    3e12:	80 91 d1 3a 	lds	r24, 0x3AD1	; 0x803ad1 <adcPhot>
    3e16:	90 91 d2 3a 	lds	r25, 0x3AD2	; 0x803ad2 <adcPhot+0x1>
    3e1a:	85 36       	cpi	r24, 0x65	; 101
    3e1c:	91 05       	cpc	r25, r1
    3e1e:	18 f0       	brcs	.+6      	; 0x3e26 <main+0x10e>
    3e20:	84 ef       	ldi	r24, 0xF4	; 244
    3e22:	0e 94 47 09 	call	0x128e	; 0x128e <UpdateState>

                lightsensorSum -= (lightsensorSum>>6);
    3e26:	20 91 0a 38 	lds	r18, 0x380A	; 0x80380a <lightsensorSum>
    3e2a:	30 91 0b 38 	lds	r19, 0x380B	; 0x80380b <lightsensorSum+0x1>
    3e2e:	80 91 0a 38 	lds	r24, 0x380A	; 0x80380a <lightsensorSum>
    3e32:	90 91 0b 38 	lds	r25, 0x380B	; 0x80380b <lightsensorSum+0x1>
    3e36:	46 e0       	ldi	r20, 0x06	; 6
    3e38:	36 95       	lsr	r19
    3e3a:	27 95       	ror	r18
    3e3c:	4a 95       	dec	r20
    3e3e:	e1 f7       	brne	.-8      	; 0x3e38 <main+0x120>
    3e40:	82 1b       	sub	r24, r18
    3e42:	93 0b       	sbc	r25, r19
    3e44:	80 93 0a 38 	sts	0x380A, r24	; 0x80380a <lightsensorSum>
    3e48:	90 93 0b 38 	sts	0x380B, r25	; 0x80380b <lightsensorSum+0x1>
                lightsensorSum += adcPhot>>4;
    3e4c:	80 91 d1 3a 	lds	r24, 0x3AD1	; 0x803ad1 <adcPhot>
    3e50:	90 91 d2 3a 	lds	r25, 0x3AD2	; 0x803ad2 <adcPhot+0x1>
    3e54:	20 91 0a 38 	lds	r18, 0x380A	; 0x80380a <lightsensorSum>
    3e58:	30 91 0b 38 	lds	r19, 0x380B	; 0x80380b <lightsensorSum+0x1>
    3e5c:	54 e0       	ldi	r21, 0x04	; 4
    3e5e:	96 95       	lsr	r25
    3e60:	87 95       	ror	r24
    3e62:	5a 95       	dec	r21
    3e64:	e1 f7       	brne	.-8      	; 0x3e5e <main+0x146>
    3e66:	82 0f       	add	r24, r18
    3e68:	93 1f       	adc	r25, r19
    3e6a:	80 93 0a 38 	sts	0x380A, r24	; 0x80380a <lightsensorSum>
    3e6e:	90 93 0b 38 	sts	0x380B, r25	; 0x80380b <lightsensorSum+0x1>
                if (lightsensorSum>>6 < 128) {
    3e72:	80 91 0a 38 	lds	r24, 0x380A	; 0x80380a <lightsensorSum>
    3e76:	90 91 0b 38 	lds	r25, 0x380B	; 0x80380b <lightsensorSum+0x1>
    3e7a:	81 15       	cp	r24, r1
    3e7c:	90 42       	sbci	r25, 0x20	; 32
    3e7e:	90 f4       	brcc	.+36     	; 0x3ea4 <main+0x18c>
                    dimValue = lightsensorSum>>5;
    3e80:	80 91 0a 38 	lds	r24, 0x380A	; 0x80380a <lightsensorSum>
    3e84:	90 91 0b 38 	lds	r25, 0x380B	; 0x80380b <lightsensorSum+0x1>
    3e88:	25 e0       	ldi	r18, 0x05	; 5
    3e8a:	96 95       	lsr	r25
    3e8c:	87 95       	ror	r24
    3e8e:	2a 95       	dec	r18
    3e90:	e1 f7       	brne	.-8      	; 0x3e8a <main+0x172>
    3e92:	80 93 0c 38 	sts	0x380C, r24	; 0x80380c <dimValue>
                    if (dimValue < 8)
    3e96:	80 91 0c 38 	lds	r24, 0x380C	; 0x80380c <dimValue>
    3e9a:	88 30       	cpi	r24, 0x08	; 8
    3e9c:	28 f4       	brcc	.+10     	; 0x3ea8 <main+0x190>
                        dimValue = 8;
    3e9e:	00 93 0c 38 	sts	0x380C, r16	; 0x80380c <dimValue>
    3ea2:	02 c0       	rjmp	.+4      	; 0x3ea8 <main+0x190>
                } else {
                    dimValue = 255;
    3ea4:	10 93 0c 38 	sts	0x380C, r17	; 0x80380c <dimValue>
                }

                //Check temperature
                HotSummer();
    3ea8:	0e 94 01 0a 	call	0x1402	; 0x1402 <HotSummer>
    3eac:	4d cf       	rjmp	.-358    	; 0x3d48 <main+0x30>

00003eae <__tablejump2__>:
    3eae:	ee 0f       	add	r30, r30
    3eb0:	ff 1f       	adc	r31, r31
    3eb2:	05 90       	lpm	r0, Z+
    3eb4:	f4 91       	lpm	r31, Z
    3eb6:	e0 2d       	mov	r30, r0
    3eb8:	09 94       	ijmp

00003eba <__prologue_saves__>:
    3eba:	2f 92       	push	r2
    3ebc:	3f 92       	push	r3
    3ebe:	4f 92       	push	r4
    3ec0:	5f 92       	push	r5
    3ec2:	6f 92       	push	r6
    3ec4:	7f 92       	push	r7
    3ec6:	8f 92       	push	r8
    3ec8:	9f 92       	push	r9
    3eca:	af 92       	push	r10
    3ecc:	bf 92       	push	r11
    3ece:	cf 92       	push	r12
    3ed0:	df 92       	push	r13
    3ed2:	ef 92       	push	r14
    3ed4:	ff 92       	push	r15
    3ed6:	0f 93       	push	r16
    3ed8:	1f 93       	push	r17
    3eda:	cf 93       	push	r28
    3edc:	df 93       	push	r29
    3ede:	cd b7       	in	r28, 0x3d	; 61
    3ee0:	de b7       	in	r29, 0x3e	; 62
    3ee2:	ca 1b       	sub	r28, r26
    3ee4:	db 0b       	sbc	r29, r27
    3ee6:	cd bf       	out	0x3d, r28	; 61
    3ee8:	de bf       	out	0x3e, r29	; 62
    3eea:	09 94       	ijmp

00003eec <__epilogue_restores__>:
    3eec:	2a 88       	ldd	r2, Y+18	; 0x12
    3eee:	39 88       	ldd	r3, Y+17	; 0x11
    3ef0:	48 88       	ldd	r4, Y+16	; 0x10
    3ef2:	5f 84       	ldd	r5, Y+15	; 0x0f
    3ef4:	6e 84       	ldd	r6, Y+14	; 0x0e
    3ef6:	7d 84       	ldd	r7, Y+13	; 0x0d
    3ef8:	8c 84       	ldd	r8, Y+12	; 0x0c
    3efa:	9b 84       	ldd	r9, Y+11	; 0x0b
    3efc:	aa 84       	ldd	r10, Y+10	; 0x0a
    3efe:	b9 84       	ldd	r11, Y+9	; 0x09
    3f00:	c8 84       	ldd	r12, Y+8	; 0x08
    3f02:	df 80       	ldd	r13, Y+7	; 0x07
    3f04:	ee 80       	ldd	r14, Y+6	; 0x06
    3f06:	fd 80       	ldd	r15, Y+5	; 0x05
    3f08:	0c 81       	ldd	r16, Y+4	; 0x04
    3f0a:	1b 81       	ldd	r17, Y+3	; 0x03
    3f0c:	aa 81       	ldd	r26, Y+2	; 0x02
    3f0e:	b9 81       	ldd	r27, Y+1	; 0x01
    3f10:	ce 0f       	add	r28, r30
    3f12:	d1 1d       	adc	r29, r1
    3f14:	cd bf       	out	0x3d, r28	; 61
    3f16:	de bf       	out	0x3e, r29	; 62
    3f18:	ed 01       	movw	r28, r26
    3f1a:	08 95       	ret

00003f1c <_exit>:
    3f1c:	f8 94       	cli

00003f1e <__stop_program>:
    3f1e:	ff cf       	rjmp	.-2      	; 0x3f1e <__stop_program>
