
ISR_IO.elf:     file format elf32-avr

Sections:
Idx Name          Size      VMA       LMA       File off  Algn
  0 .data         00000090  00803800  000025dc  00002690  2**0
                  CONTENTS, ALLOC, LOAD, DATA
  1 .text         0000259e  00000000  00000000  000000b4  2**1
                  CONTENTS, ALLOC, LOAD, READONLY, CODE
  2 .rodata       0000003e  0000a59e  0000259e  00002652  2**0
                  CONTENTS, ALLOC, LOAD, READONLY, DATA
  3 .bss          000002cb  00803890  00803890  00002720  2**0
                  ALLOC
  4 .comment      00000030  00000000  00000000  00002720  2**0
                  CONTENTS, READONLY
  5 .note.gnu.avr.deviceinfo 00000040  00000000  00000000  00002750  2**2
                  CONTENTS, READONLY
  6 .debug_aranges 00000260  00000000  00000000  00002790  2**0
                  CONTENTS, READONLY, DEBUGGING
  7 .debug_info   000051e2  00000000  00000000  000029f0  2**0
                  CONTENTS, READONLY, DEBUGGING
  8 .debug_abbrev 00002348  00000000  00000000  00007bd2  2**0
                  CONTENTS, READONLY, DEBUGGING
  9 .debug_line   0000248c  00000000  00000000  00009f1a  2**0
                  CONTENTS, READONLY, DEBUGGING
 10 .debug_frame  00000764  00000000  00000000  0000c3a8  2**2
                  CONTENTS, READONLY, DEBUGGING
 11 .debug_str    00001733  00000000  00000000  0000cb0c  2**0
                  CONTENTS, READONLY, DEBUGGING
 12 .debug_loc    0000353a  00000000  00000000  0000e23f  2**0
                  CONTENTS, READONLY, DEBUGGING
 13 .debug_ranges 00000288  00000000  00000000  00011779  2**0
                  CONTENTS, READONLY, DEBUGGING

Disassembly of section .text:

00000000 <__vectors>:
       0:	3d c0       	rjmp	.+122    	; 0x7c <__ctors_end>
       2:	00 00       	nop
       4:	58 c0       	rjmp	.+176    	; 0xb6 <__bad_interrupt>
       6:	00 00       	nop
       8:	56 c0       	rjmp	.+172    	; 0xb6 <__bad_interrupt>
       a:	00 00       	nop
       c:	54 c0       	rjmp	.+168    	; 0xb6 <__bad_interrupt>
       e:	00 00       	nop
      10:	52 c0       	rjmp	.+164    	; 0xb6 <__bad_interrupt>
      12:	00 00       	nop
      14:	50 c0       	rjmp	.+160    	; 0xb6 <__bad_interrupt>
      16:	00 00       	nop
      18:	3d c4       	rjmp	.+2170   	; 0x894 <__vector_6>
      1a:	00 00       	nop
      1c:	89 c4       	rjmp	.+2322   	; 0x930 <__vector_7>
      1e:	00 00       	nop
      20:	8e c2       	rjmp	.+1308   	; 0x53e <__vector_8>
      22:	00 00       	nop
      24:	48 c0       	rjmp	.+144    	; 0xb6 <__bad_interrupt>
      26:	00 00       	nop
      28:	46 c0       	rjmp	.+140    	; 0xb6 <__bad_interrupt>
      2a:	00 00       	nop
      2c:	44 c0       	rjmp	.+136    	; 0xb6 <__bad_interrupt>
      2e:	00 00       	nop
      30:	42 c0       	rjmp	.+132    	; 0xb6 <__bad_interrupt>
      32:	00 00       	nop
      34:	d5 c2       	rjmp	.+1450   	; 0x5e0 <__vector_13>
      36:	00 00       	nop
      38:	06 c3       	rjmp	.+1548   	; 0x646 <__vector_14>
      3a:	00 00       	nop
      3c:	3c c0       	rjmp	.+120    	; 0xb6 <__bad_interrupt>
      3e:	00 00       	nop
      40:	3a c0       	rjmp	.+116    	; 0xb6 <__bad_interrupt>
      42:	00 00       	nop
      44:	38 c0       	rjmp	.+112    	; 0xb6 <__bad_interrupt>
      46:	00 00       	nop
      48:	36 c0       	rjmp	.+108    	; 0xb6 <__bad_interrupt>
      4a:	00 00       	nop
      4c:	34 c0       	rjmp	.+104    	; 0xb6 <__bad_interrupt>
      4e:	00 00       	nop
      50:	ab c3       	rjmp	.+1878   	; 0x7a8 <__vector_20>
      52:	00 00       	nop
      54:	30 c0       	rjmp	.+96     	; 0xb6 <__bad_interrupt>
      56:	00 00       	nop
      58:	d5 c3       	rjmp	.+1962   	; 0x804 <__vector_22>
      5a:	00 00       	nop
      5c:	2c c0       	rjmp	.+88     	; 0xb6 <__bad_interrupt>
      5e:	00 00       	nop
      60:	2a c0       	rjmp	.+84     	; 0xb6 <__bad_interrupt>
      62:	00 00       	nop
      64:	28 c0       	rjmp	.+80     	; 0xb6 <__bad_interrupt>
      66:	00 00       	nop
      68:	26 c0       	rjmp	.+76     	; 0xb6 <__bad_interrupt>
      6a:	00 00       	nop
      6c:	3f c3       	rjmp	.+1662   	; 0x6ec <__vector_27>
      6e:	00 00       	nop
      70:	7f c3       	rjmp	.+1790   	; 0x770 <__vector_28>
      72:	00 00       	nop
      74:	20 c0       	rjmp	.+64     	; 0xb6 <__bad_interrupt>
      76:	00 00       	nop
      78:	1e c0       	rjmp	.+60     	; 0xb6 <__bad_interrupt>
	...

0000007c <__ctors_end>:
      7c:	11 24       	eor	r1, r1
      7e:	1f be       	out	0x3f, r1	; 63
      80:	cf ef       	ldi	r28, 0xFF	; 255
      82:	cd bf       	out	0x3d, r28	; 61
      84:	df e3       	ldi	r29, 0x3F	; 63
      86:	de bf       	out	0x3e, r29	; 62

00000088 <__do_copy_data>:
      88:	18 e3       	ldi	r17, 0x38	; 56
      8a:	a0 e0       	ldi	r26, 0x00	; 0
      8c:	b8 e3       	ldi	r27, 0x38	; 56
      8e:	ec ed       	ldi	r30, 0xDC	; 220
      90:	f5 e2       	ldi	r31, 0x25	; 37
      92:	02 c0       	rjmp	.+4      	; 0x98 <__do_copy_data+0x10>
      94:	05 90       	lpm	r0, Z+
      96:	0d 92       	st	X+, r0
      98:	a0 39       	cpi	r26, 0x90	; 144
      9a:	b1 07       	cpc	r27, r17
      9c:	d9 f7       	brne	.-10     	; 0x94 <__do_copy_data+0xc>

0000009e <__do_clear_bss>:
      9e:	2b e3       	ldi	r18, 0x3B	; 59
      a0:	a0 e9       	ldi	r26, 0x90	; 144
      a2:	b8 e3       	ldi	r27, 0x38	; 56
      a4:	01 c0       	rjmp	.+2      	; 0xa8 <.do_clear_bss_start>

000000a6 <.do_clear_bss_loop>:
      a6:	1d 92       	st	X+, r1

000000a8 <.do_clear_bss_start>:
      a8:	ab 35       	cpi	r26, 0x5B	; 91
      aa:	b2 07       	cpc	r27, r18
      ac:	e1 f7       	brne	.-8      	; 0xa6 <.do_clear_bss_loop>
      ae:	0e 94 2a 12 	call	0x2454	; 0x2454 <main>
      b2:	0c 94 cd 12 	jmp	0x259a	; 0x259a <_exit>

000000b6 <__bad_interrupt>:
      b6:	a4 cf       	rjmp	.-184    	; 0x0 <__vectors>

000000b8 <I2C_init>:
// the Atmel device documentation mentions a special command for repeated start TWI_MCMD_REPSTART_gc,
// but this is not used in Atmel's demo code, so we don't use it either

void I2C_rep_start(uint8_t shifted_addr)						    // send repeated start, device_addr + LSB set if READ
{
	TWI0.MADDR = shifted_addr;	
      b8:	81 e0       	ldi	r24, 0x01	; 1
      ba:	80 93 22 04 	sts	0x0422, r24	; 0x800422 <__TEXT_REGION_LENGTH__+0x700422>
      be:	e6 e2       	ldi	r30, 0x26	; 38
      c0:	f4 e0       	ldi	r31, 0x04	; 4
      c2:	80 83       	st	Z, r24
      c4:	10 92 30 04 	sts	0x0430, r1	; 0x800430 <__TEXT_REGION_LENGTH__+0x700430>
      c8:	a1 e2       	ldi	r26, 0x21	; 33
      ca:	b4 e0       	ldi	r27, 0x04	; 4
      cc:	92 e0       	ldi	r25, 0x02	; 2
      ce:	9c 93       	st	X, r25
      d0:	90 83       	st	Z, r25
      d2:	10 92 31 04 	sts	0x0431, r1	; 0x800431 <__TEXT_REGION_LENGTH__+0x700431>
      d6:	e0 e1       	ldi	r30, 0x10	; 16
      d8:	f8 e0       	ldi	r31, 0x08	; 8
      da:	9d e2       	ldi	r25, 0x2D	; 45
      dc:	96 83       	std	Z+6, r25	; 0x06
      de:	98 e0       	ldi	r25, 0x08	; 8
      e0:	94 83       	std	Z+4, r25	; 0x04
      e2:	83 83       	std	Z+3, r24	; 0x03
      e4:	8c 93       	st	X, r24
      e6:	85 81       	ldd	r24, Z+5	; 0x05
      e8:	81 60       	ori	r24, 0x01	; 1
      ea:	85 83       	std	Z+5, r24	; 0x05
      ec:	85 81       	ldd	r24, Z+5	; 0x05
      ee:	84 6c       	ori	r24, 0xC4	; 196
      f0:	85 83       	std	Z+5, r24	; 0x05
      f2:	08 95       	ret

000000f4 <I2C_recover>:
      f4:	80 91 14 08 	lds	r24, 0x0814	; 0x800814 <__TEXT_REGION_LENGTH__+0x700814>
      f8:	88 60       	ori	r24, 0x08	; 8
      fa:	80 93 14 08 	sts	0x0814, r24	; 0x800814 <__TEXT_REGION_LENGTH__+0x700814>
      fe:	10 92 13 08 	sts	0x0813, r1	; 0x800813 <__TEXT_REGION_LENGTH__+0x700813>
     102:	82 e0       	ldi	r24, 0x02	; 2
     104:	80 93 22 04 	sts	0x0422, r24	; 0x800422 <__TEXT_REGION_LENGTH__+0x700422>
     108:	99 e0       	ldi	r25, 0x09	; 9
     10a:	21 e0       	ldi	r18, 0x01	; 1
     10c:	81 e0       	ldi	r24, 0x01	; 1
     10e:	20 93 21 04 	sts	0x0421, r18	; 0x800421 <__TEXT_REGION_LENGTH__+0x700421>
     112:	30 e1       	ldi	r19, 0x10	; 16
     114:	3a 95       	dec	r19
     116:	f1 f7       	brne	.-4      	; 0x114 <I2C_recover+0x20>
     118:	00 c0       	rjmp	.+0      	; 0x11a <I2C_recover+0x26>
     11a:	20 93 22 04 	sts	0x0422, r18	; 0x800422 <__TEXT_REGION_LENGTH__+0x700422>
     11e:	30 e1       	ldi	r19, 0x10	; 16
     120:	3a 95       	dec	r19
     122:	f1 f7       	brne	.-4      	; 0x120 <I2C_recover+0x2c>
     124:	00 c0       	rjmp	.+0      	; 0x126 <I2C_recover+0x32>
     126:	91 50       	subi	r25, 0x01	; 1
     128:	89 f7       	brne	.-30     	; 0x10c <I2C_recover+0x18>
     12a:	28 e0       	ldi	r18, 0x08	; 8
     12c:	20 93 14 08 	sts	0x0814, r18	; 0x800814 <__TEXT_REGION_LENGTH__+0x700814>
     130:	80 93 13 08 	sts	0x0813, r24	; 0x800813 <__TEXT_REGION_LENGTH__+0x700813>
     134:	92 e0       	ldi	r25, 0x02	; 2
     136:	90 93 21 04 	sts	0x0421, r25	; 0x800421 <__TEXT_REGION_LENGTH__+0x700421>
     13a:	90 91 15 08 	lds	r25, 0x0815	; 0x800815 <__TEXT_REGION_LENGTH__+0x700815>
     13e:	91 60       	ori	r25, 0x01	; 1
     140:	90 93 15 08 	sts	0x0815, r25	; 0x800815 <__TEXT_REGION_LENGTH__+0x700815>
     144:	90 91 15 08 	lds	r25, 0x0815	; 0x800815 <__TEXT_REGION_LENGTH__+0x700815>
     148:	94 6c       	ori	r25, 0xC4	; 196
     14a:	90 93 15 08 	sts	0x0815, r25	; 0x800815 <__TEXT_REGION_LENGTH__+0x700815>
     14e:	20 93 14 08 	sts	0x0814, r18	; 0x800814 <__TEXT_REGION_LENGTH__+0x700814>
     152:	80 93 13 08 	sts	0x0813, r24	; 0x800813 <__TEXT_REGION_LENGTH__+0x700813>
     156:	80 93 21 04 	sts	0x0421, r24	; 0x800421 <__TEXT_REGION_LENGTH__+0x700421>
     15a:	80 91 15 08 	lds	r24, 0x0815	; 0x800815 <__TEXT_REGION_LENGTH__+0x700815>
     15e:	81 60       	ori	r24, 0x01	; 1
     160:	80 93 15 08 	sts	0x0815, r24	; 0x800815 <__TEXT_REGION_LENGTH__+0x700815>
     164:	80 91 15 08 	lds	r24, 0x0815	; 0x800815 <__TEXT_REGION_LENGTH__+0x700815>
     168:	84 6c       	ori	r24, 0xC4	; 196
     16a:	80 93 15 08 	sts	0x0815, r24	; 0x800815 <__TEXT_REGION_LENGTH__+0x700815>
     16e:	08 95       	ret

00000170 <I2C_start>:
     170:	28 2f       	mov	r18, r24
     172:	90 91 15 08 	lds	r25, 0x0815	; 0x800815 <__TEXT_REGION_LENGTH__+0x700815>
     176:	90 6c       	ori	r25, 0xC0	; 192
     178:	90 93 15 08 	sts	0x0815, r25	; 0x800815 <__TEXT_REGION_LENGTH__+0x700815>
     17c:	90 91 15 08 	lds	r25, 0x0815	; 0x800815 <__TEXT_REGION_LENGTH__+0x700815>
     180:	89 2f       	mov	r24, r25
     182:	84 70       	andi	r24, 0x04	; 4
     184:	92 fd       	sbrc	r25, 2
     186:	03 c0       	rjmp	.+6      	; 0x18e <I2C_start+0x1e>
     188:	20 93 17 08 	sts	0x0817, r18	; 0x800817 <__TEXT_REGION_LENGTH__+0x700817>
     18c:	08 95       	ret
     18e:	84 e0       	ldi	r24, 0x04	; 4
     190:	08 95       	ret

00000192 <I2C_wait_ACK>:
     192:	8c e0       	ldi	r24, 0x0C	; 12
     194:	80 93 8e 3a 	sts	0x3A8E, r24	; 0x803a8e <timeout_I2C>
     198:	80 91 15 08 	lds	r24, 0x0815	; 0x800815 <__TEXT_REGION_LENGTH__+0x700815>
     19c:	87 fd       	sbrc	r24, 7
     19e:	0a c0       	rjmp	.+20     	; 0x1b4 <I2C_wait_ACK+0x22>
     1a0:	80 91 15 08 	lds	r24, 0x0815	; 0x800815 <__TEXT_REGION_LENGTH__+0x700815>
     1a4:	86 fd       	sbrc	r24, 6
     1a6:	06 c0       	rjmp	.+12     	; 0x1b4 <I2C_wait_ACK+0x22>
     1a8:	80 91 8e 3a 	lds	r24, 0x3A8E	; 0x803a8e <timeout_I2C>
     1ac:	81 11       	cpse	r24, r1
     1ae:	f4 cf       	rjmp	.-24     	; 0x198 <I2C_wait_ACK+0x6>
     1b0:	8f ef       	ldi	r24, 0xFF	; 255
     1b2:	08 95       	ret
     1b4:	80 91 15 08 	lds	r24, 0x0815	; 0x800815 <__TEXT_REGION_LENGTH__+0x700815>
     1b8:	80 6c       	ori	r24, 0xC0	; 192
     1ba:	80 93 15 08 	sts	0x0815, r24	; 0x800815 <__TEXT_REGION_LENGTH__+0x700815>
     1be:	80 91 15 08 	lds	r24, 0x0815	; 0x800815 <__TEXT_REGION_LENGTH__+0x700815>
     1c2:	82 fd       	sbrc	r24, 2
     1c4:	09 c0       	rjmp	.+18     	; 0x1d8 <I2C_wait_ACK+0x46>
     1c6:	80 91 15 08 	lds	r24, 0x0815	; 0x800815 <__TEXT_REGION_LENGTH__+0x700815>
     1ca:	83 fd       	sbrc	r24, 3
     1cc:	07 c0       	rjmp	.+14     	; 0x1dc <I2C_wait_ACK+0x4a>
     1ce:	80 91 15 08 	lds	r24, 0x0815	; 0x800815 <__TEXT_REGION_LENGTH__+0x700815>
     1d2:	82 95       	swap	r24
     1d4:	81 70       	andi	r24, 0x01	; 1
     1d6:	08 95       	ret
     1d8:	84 e0       	ldi	r24, 0x04	; 4
     1da:	08 95       	ret
     1dc:	82 e0       	ldi	r24, 0x02	; 2
     1de:	08 95       	ret

000001e0 <I2C_read>:
}

uint8_t	I2C_read(uint8_t *data, uint8_t ack_flag)					// read data, ack_flag 0: send ACK, 1: send NACK, returns status
{
     1e0:	fc 01       	movw	r30, r24
	timeout_I2C = READ_TIMEOUT;										// reset timeout counter, will be decremented by LED matrix interrupt
     1e2:	8c e0       	ldi	r24, 0x0C	; 12
     1e4:	80 93 8e 3a 	sts	0x3A8E, r24	; 0x803a8e <timeout_I2C>
	if ((TWI0.MSTATUS & TWI_BUSSTATE_gm) == TWI_BUSSTATE_OWNER_gc)	// if master controls bus
     1e8:	90 91 15 08 	lds	r25, 0x0815	; 0x800815 <__TEXT_REGION_LENGTH__+0x700815>
     1ec:	89 2f       	mov	r24, r25
     1ee:	83 70       	andi	r24, 0x03	; 3
     1f0:	82 30       	cpi	r24, 0x02	; 2
     1f2:	11 f0       	breq	.+4      	; 0x1f8 <I2C_read+0x18>
		else		TWI0.MCTRLB |= TWI_ACKACT_NACK_gc;				// setup NACK (last byte read)
		*data = TWI0.MDATA;
		if (ack_flag == 0) TWI0.MCTRLB |= TWI_MCMD_RECVTRANS_gc;	// send ACK, more bytes to follow					
		return 0;
	}
	else return 8;													// master does not control bus
     1f4:	88 e0       	ldi	r24, 0x08	; 8
     1f6:	08 95       	ret
uint8_t	I2C_read(uint8_t *data, uint8_t ack_flag)					// read data, ack_flag 0: send ACK, 1: send NACK, returns status
{
	timeout_I2C = READ_TIMEOUT;										// reset timeout counter, will be decremented by LED matrix interrupt
	if ((TWI0.MSTATUS & TWI_BUSSTATE_gm) == TWI_BUSSTATE_OWNER_gc)	// if master controls bus
	{		
		while (!(TWI0.MSTATUS & TWI_RIF_bm))						// wait for RIF set (data byte received)
     1f8:	90 91 15 08 	lds	r25, 0x0815	; 0x800815 <__TEXT_REGION_LENGTH__+0x700815>
     1fc:	97 fd       	sbrc	r25, 7
     1fe:	06 c0       	rjmp	.+12     	; 0x20c <I2C_read+0x2c>
		{
			if (!(timeout_I2C)) return 0xff;			            // return timeout error
     200:	90 91 8e 3a 	lds	r25, 0x3A8E	; 0x803a8e <timeout_I2C>
     204:	91 11       	cpse	r25, r1
     206:	f8 cf       	rjmp	.-16     	; 0x1f8 <I2C_read+0x18>
     208:	8f ef       	ldi	r24, 0xFF	; 255
     20a:	08 95       	ret
		}
		TWI0.MSTATUS |= (TWI_RIF_bm | TWI_WIF_bm);					// clear Read and Write interrupt flags	
     20c:	90 91 15 08 	lds	r25, 0x0815	; 0x800815 <__TEXT_REGION_LENGTH__+0x700815>
     210:	90 6c       	ori	r25, 0xC0	; 192
     212:	90 93 15 08 	sts	0x0815, r25	; 0x800815 <__TEXT_REGION_LENGTH__+0x700815>
		if (TWI0.MSTATUS & TWI_BUSERR_bm) return 4;					// Bus Error, abort
     216:	90 91 15 08 	lds	r25, 0x0815	; 0x800815 <__TEXT_REGION_LENGTH__+0x700815>
     21a:	92 fd       	sbrc	r25, 2
     21c:	1e c0       	rjmp	.+60     	; 0x25a <I2C_read+0x7a>
		if (TWI0.MSTATUS & TWI_ARBLOST_bm) return 2;				// Arbitration Lost, abort
     21e:	90 91 15 08 	lds	r25, 0x0815	; 0x800815 <__TEXT_REGION_LENGTH__+0x700815>
     222:	93 fd       	sbrc	r25, 3
     224:	1d c0       	rjmp	.+58     	; 0x260 <I2C_read+0x80>
		if (TWI0.MSTATUS & TWI_RXACK_bm) return 1;					// Slave replied with NACK, abort				
     226:	90 91 15 08 	lds	r25, 0x0815	; 0x800815 <__TEXT_REGION_LENGTH__+0x700815>
     22a:	89 2f       	mov	r24, r25
     22c:	80 71       	andi	r24, 0x10	; 16
     22e:	94 fd       	sbrc	r25, 4
     230:	16 c0       	rjmp	.+44     	; 0x25e <I2C_read+0x7e>
		if (ack_flag == 0) TWI0.MCTRLB &= ~(1 << TWI_ACKACT_bp);	// setup ACK
     232:	90 91 14 08 	lds	r25, 0x0814	; 0x800814 <__TEXT_REGION_LENGTH__+0x700814>
     236:	61 11       	cpse	r22, r1
     238:	02 c0       	rjmp	.+4      	; 0x23e <I2C_read+0x5e>
     23a:	9b 7f       	andi	r25, 0xFB	; 251
     23c:	01 c0       	rjmp	.+2      	; 0x240 <I2C_read+0x60>
		else		TWI0.MCTRLB |= TWI_ACKACT_NACK_gc;				// setup NACK (last byte read)
     23e:	94 60       	ori	r25, 0x04	; 4
     240:	90 93 14 08 	sts	0x0814, r25	; 0x800814 <__TEXT_REGION_LENGTH__+0x700814>
		*data = TWI0.MDATA;
     244:	90 91 18 08 	lds	r25, 0x0818	; 0x800818 <__TEXT_REGION_LENGTH__+0x700818>
     248:	90 83       	st	Z, r25
		if (ack_flag == 0) TWI0.MCTRLB |= TWI_MCMD_RECVTRANS_gc;	// send ACK, more bytes to follow					
     24a:	61 11       	cpse	r22, r1
     24c:	09 c0       	rjmp	.+18     	; 0x260 <I2C_read+0x80>
     24e:	90 91 14 08 	lds	r25, 0x0814	; 0x800814 <__TEXT_REGION_LENGTH__+0x700814>
     252:	92 60       	ori	r25, 0x02	; 2
     254:	90 93 14 08 	sts	0x0814, r25	; 0x800814 <__TEXT_REGION_LENGTH__+0x700814>
     258:	08 95       	ret
		while (!(TWI0.MSTATUS & TWI_RIF_bm))						// wait for RIF set (data byte received)
		{
			if (!(timeout_I2C)) return 0xff;			            // return timeout error
		}
		TWI0.MSTATUS |= (TWI_RIF_bm | TWI_WIF_bm);					// clear Read and Write interrupt flags	
		if (TWI0.MSTATUS & TWI_BUSERR_bm) return 4;					// Bus Error, abort
     25a:	84 e0       	ldi	r24, 0x04	; 4
     25c:	08 95       	ret
		if (TWI0.MSTATUS & TWI_ARBLOST_bm) return 2;				// Arbitration Lost, abort
		if (TWI0.MSTATUS & TWI_RXACK_bm) return 1;					// Slave replied with NACK, abort				
     25e:	81 e0       	ldi	r24, 0x01	; 1
		*data = TWI0.MDATA;
		if (ack_flag == 0) TWI0.MCTRLB |= TWI_MCMD_RECVTRANS_gc;	// send ACK, more bytes to follow					
		return 0;
	}
	else return 8;													// master does not control bus
}
     260:	08 95       	ret

00000262 <I2C_write>:

uint8_t I2C_write(uint8_t *data)									// write data, return status
{
     262:	fc 01       	movw	r30, r24
	timeout_I2C = WRITE_TIMEOUT;									// reset timeout counter, will be decremented by LED matrix interrupt
     264:	8c e0       	ldi	r24, 0x0C	; 12
     266:	80 93 8e 3a 	sts	0x3A8E, r24	; 0x803a8e <timeout_I2C>
	if ((TWI0.MSTATUS & TWI_BUSSTATE_gm) == TWI_BUSSTATE_OWNER_gc)	// if master controls bus
     26a:	90 91 15 08 	lds	r25, 0x0815	; 0x800815 <__TEXT_REGION_LENGTH__+0x700815>
     26e:	93 70       	andi	r25, 0x03	; 3
     270:	92 30       	cpi	r25, 0x02	; 2
     272:	b1 f4       	brne	.+44     	; 0x2a0 <I2C_write+0x3e>
	{
		TWI0.MDATA = *data;		
     274:	80 81       	ld	r24, Z
     276:	80 93 18 08 	sts	0x0818, r24	; 0x800818 <__TEXT_REGION_LENGTH__+0x700818>
		while (!(TWI0.MSTATUS & TWI_WIF_bm))						// wait until WIF set, status register contains ACK/NACK bit
     27a:	80 91 15 08 	lds	r24, 0x0815	; 0x800815 <__TEXT_REGION_LENGTH__+0x700815>
     27e:	86 fd       	sbrc	r24, 6
     280:	06 c0       	rjmp	.+12     	; 0x28e <I2C_write+0x2c>
		{
			if (!(timeout_I2C)) return 0xff;			            // return timeout error
     282:	80 91 8e 3a 	lds	r24, 0x3A8E	; 0x803a8e <timeout_I2C>
     286:	81 11       	cpse	r24, r1
     288:	f8 cf       	rjmp	.-16     	; 0x27a <I2C_write+0x18>
     28a:	8f ef       	ldi	r24, 0xFF	; 255
     28c:	08 95       	ret
		}
		if (TWI0.MSTATUS & TWI_BUSERR_bm) return 4;					// Bus Error, abort
     28e:	80 91 15 08 	lds	r24, 0x0815	; 0x800815 <__TEXT_REGION_LENGTH__+0x700815>
     292:	82 fd       	sbrc	r24, 2
     294:	07 c0       	rjmp	.+14     	; 0x2a4 <I2C_write+0x42>
		if (TWI0.MSTATUS & TWI_RXACK_bm) return 1;					// Slave replied with NACK, abort
     296:	80 91 15 08 	lds	r24, 0x0815	; 0x800815 <__TEXT_REGION_LENGTH__+0x700815>
	if ((TWI0.MSTATUS & TWI_BUSSTATE_gm) == TWI_BUSSTATE_OWNER_gc)	// if master controls bus
	{
		TWI0.MDATA = *data;		
		while (!(TWI0.MSTATUS & TWI_WIF_bm))						// wait until WIF set, status register contains ACK/NACK bit
		{
			if (!(timeout_I2C)) return 0xff;			            // return timeout error
     29a:	82 95       	swap	r24
     29c:	81 70       	andi	r24, 0x01	; 1
     29e:	08 95       	ret
		}
		if (TWI0.MSTATUS & TWI_BUSERR_bm) return 4;					// Bus Error, abort
		if (TWI0.MSTATUS & TWI_RXACK_bm) return 1;					// Slave replied with NACK, abort
		return 0;													// no error	
	}
	else return 8;													// master does not control bus
     2a0:	88 e0       	ldi	r24, 0x08	; 8
     2a2:	08 95       	ret
		TWI0.MDATA = *data;		
		while (!(TWI0.MSTATUS & TWI_WIF_bm))						// wait until WIF set, status register contains ACK/NACK bit
		{
			if (!(timeout_I2C)) return 0xff;			            // return timeout error
		}
		if (TWI0.MSTATUS & TWI_BUSERR_bm) return 4;					// Bus Error, abort
     2a4:	84 e0       	ldi	r24, 0x04	; 4
		if (TWI0.MSTATUS & TWI_RXACK_bm) return 1;					// Slave replied with NACK, abort
		return 0;													// no error	
	}
	else return 8;													// master does not control bus
}
     2a6:	08 95       	ret

000002a8 <I2C_stop>:

void I2C_stop()
{
	TWI0.MCTRLB |= TWI_MCMD_STOP_gc;
     2a8:	e0 e1       	ldi	r30, 0x10	; 16
     2aa:	f8 e0       	ldi	r31, 0x08	; 8
     2ac:	84 81       	ldd	r24, Z+4	; 0x04
     2ae:	83 60       	ori	r24, 0x03	; 3
     2b0:	84 83       	std	Z+4, r24	; 0x04
     2b2:	08 95       	ret

000002b4 <I2C_read_bytes>:
// addr_ptr		address of first array element to transfer
// slave reg	starting slave register
// num_bytes	number of bytes to transfer

uint8_t	I2C_read_bytes(uint8_t slave_addr, uint8_t *reg_ptr, uint8_t reg_len, uint8_t *dat_ptr, uint8_t dat_len)
{
     2b4:	cf 92       	push	r12
     2b6:	df 92       	push	r13
     2b8:	ff 92       	push	r15
     2ba:	0f 93       	push	r16
     2bc:	1f 93       	push	r17
     2be:	cf 93       	push	r28
     2c0:	df 93       	push	r29
     2c2:	6b 01       	movw	r12, r22
     2c4:	f4 2e       	mov	r15, r20
     2c6:	e9 01       	movw	r28, r18
	uint8_t status;
	if (dat_len > MAX_LEN) dat_len = MAX_LEN;
	status = I2C_start(slave_addr << 1);							// slave write address, LSB 0
     2c8:	18 2f       	mov	r17, r24
     2ca:	11 0f       	add	r17, r17
     2cc:	81 2f       	mov	r24, r17
     2ce:	50 df       	rcall	.-352    	; 0x170 <I2C_start>
	if (status != 0) goto error;
     2d0:	81 11       	cpse	r24, r1
	status = I2C_wait_ACK();										// wait for slave ACK
     2d2:	2b c0       	rjmp	.+86     	; 0x32a <I2C_read_bytes+0x76>
     2d4:	5e df       	rcall	.-324    	; 0x192 <I2C_wait_ACK>
	if (status == 1) {
     2d6:	81 30       	cpi	r24, 0x01	; 1
		I2C_stop();													// NACK, abort
     2d8:	19 f4       	brne	.+6      	; 0x2e0 <I2C_read_bytes+0x2c>
     2da:	e6 df       	rcall	.-52     	; 0x2a8 <I2C_stop>
		return 1;
     2dc:	81 e0       	ldi	r24, 0x01	; 1
     2de:	27 c0       	rjmp	.+78     	; 0x32e <I2C_read_bytes+0x7a>
	}
	if (status != 0) goto error;
     2e0:	81 11       	cpse	r24, r1
     2e2:	23 c0       	rjmp	.+70     	; 0x32a <I2C_read_bytes+0x76>
    while(reg_len > 0){
     2e4:	ff 20       	and	r15, r15
	    status = I2C_write(reg_ptr);    							// send slave start register
     2e6:	49 f0       	breq	.+18     	; 0x2fa <I2C_read_bytes+0x46>
     2e8:	c6 01       	movw	r24, r12
     2ea:	bb df       	rcall	.-138    	; 0x262 <I2C_write>
	    if (status != 0) goto error;
     2ec:	81 11       	cpse	r24, r1
     2ee:	1d c0       	rjmp	.+58     	; 0x32a <I2C_read_bytes+0x76>
        ++reg_ptr;
     2f0:	8f ef       	ldi	r24, 0xFF	; 255
     2f2:	c8 1a       	sub	r12, r24
     2f4:	d8 0a       	sbc	r13, r24
        --reg_len;
     2f6:	fa 94       	dec	r15
     2f8:	f5 cf       	rjmp	.-22     	; 0x2e4 <I2C_read_bytes+0x30>
     2fa:	01 34       	cpi	r16, 0x41	; 65
     2fc:	08 f0       	brcs	.+2      	; 0x300 <I2C_read_bytes+0x4c>
     2fe:	00 e4       	ldi	r16, 0x40	; 64
    }
	I2C_rep_start((slave_addr << 1) + 1);							// slave read address, LSB 1
     300:	1f 5f       	subi	r17, 0xFF	; 255
// the Atmel device documentation mentions a special command for repeated start TWI_MCMD_REPSTART_gc,
// but this is not used in Atmel's demo code, so we don't use it either

void I2C_rep_start(uint8_t shifted_addr)						    // send repeated start, device_addr + LSB set if READ
{
	TWI0.MADDR = shifted_addr;	
     302:	10 93 17 08 	sts	0x0817, r17	; 0x800817 <__TEXT_REGION_LENGTH__+0x700817>
	    if (status != 0) goto error;
        ++reg_ptr;
        --reg_len;
    }
	I2C_rep_start((slave_addr << 1) + 1);							// slave read address, LSB 1
	while (dat_len > 1) {
     306:	02 30       	cpi	r16, 0x02	; 2
		status = I2C_read(dat_ptr, 0);								// first bytes, send ACK
     308:	40 f0       	brcs	.+16     	; 0x31a <I2C_read_bytes+0x66>
     30a:	60 e0       	ldi	r22, 0x00	; 0
     30c:	ce 01       	movw	r24, r28
     30e:	68 df       	rcall	.-304    	; 0x1e0 <I2C_read>
		if (status != 0) goto error;
     310:	81 11       	cpse	r24, r1
     312:	0b c0       	rjmp	.+22     	; 0x32a <I2C_read_bytes+0x76>
		++dat_ptr;
		--dat_len;
     314:	21 96       	adiw	r28, 0x01	; 1
     316:	01 50       	subi	r16, 0x01	; 1
	}
	status = I2C_read(dat_ptr, 1);									// single or last byte, send NACK
     318:	f6 cf       	rjmp	.-20     	; 0x306 <I2C_read_bytes+0x52>
     31a:	61 e0       	ldi	r22, 0x01	; 1
     31c:	ce 01       	movw	r24, r28
	if (status != 0) goto error;
     31e:	60 df       	rcall	.-320    	; 0x1e0 <I2C_read>
     320:	81 11       	cpse	r24, r1
	I2C_stop();
     322:	03 c0       	rjmp	.+6      	; 0x32a <I2C_read_bytes+0x76>
     324:	c1 df       	rcall	.-126    	; 0x2a8 <I2C_stop>
	return 0;
     326:	80 e0       	ldi	r24, 0x00	; 0
     328:	02 c0       	rjmp	.+4      	; 0x32e <I2C_read_bytes+0x7a>
	
error:
	I2C_recover();													// clock out possibly stuck slave, reset master
     32a:	e4 de       	rcall	.-568    	; 0xf4 <I2C_recover>
     32c:	8f ef       	ldi	r24, 0xFF	; 255
	return 0xff;													// flag error
     32e:	df 91       	pop	r29
}
     330:	cf 91       	pop	r28
     332:	1f 91       	pop	r17
     334:	0f 91       	pop	r16
     336:	ff 90       	pop	r15
     338:	df 90       	pop	r13
     33a:	cf 90       	pop	r12
     33c:	08 95       	ret

0000033e <Setup>:
     33e:	cf 93       	push	r28
// Select "audio" input (0-2.5V)
void SelectAuIn(){
     VREF_CTRLA   = 0x22;    //0x22 for audio in/out (2.5V), 0x12 for temperature in, audio out (1.1V/2.5V)
     ADC0_CTRLA   &= ~(ADC_RESSEL_bm);
     ADC0_MUXPOS  = 0x07;    //Audio in: AIN7 at (0x07), Temperature: Internal sensor at (0x1E)
     adc0Chg = 1;
     340:	df 93       	push	r29
     342:	f8 94       	cli
     344:	88 ed       	ldi	r24, 0xD8	; 216
     346:	84 bf       	out	0x34, r24	; 52
     348:	c1 e0       	ldi	r28, 0x01	; 1
     34a:	c0 93 61 00 	sts	0x0061, r28	; 0x800061 <__TEXT_REGION_LENGTH__+0x700061>
     34e:	8a e4       	ldi	r24, 0x4A	; 74
     350:	80 93 00 04 	sts	0x0400, r24	; 0x800400 <__TEXT_REGION_LENGTH__+0x700400>
     354:	8c e7       	ldi	r24, 0x7C	; 124
     356:	80 93 20 04 	sts	0x0420, r24	; 0x800420 <__TEXT_REGION_LENGTH__+0x700420>
     35a:	9f e3       	ldi	r25, 0x3F	; 63
     35c:	90 93 40 04 	sts	0x0440, r25	; 0x800440 <__TEXT_REGION_LENGTH__+0x700440>
     360:	80 91 53 04 	lds	r24, 0x0453	; 0x800453 <__TEXT_REGION_LENGTH__+0x700453>
     364:	80 68       	ori	r24, 0x80	; 128
     366:	80 93 53 04 	sts	0x0453, r24	; 0x800453 <__TEXT_REGION_LENGTH__+0x700453>
     36a:	80 91 54 04 	lds	r24, 0x0454	; 0x800454 <__TEXT_REGION_LENGTH__+0x700454>
     36e:	80 68       	ori	r24, 0x80	; 128
     370:	80 93 54 04 	sts	0x0454, r24	; 0x800454 <__TEXT_REGION_LENGTH__+0x700454>
     374:	80 91 55 04 	lds	r24, 0x0455	; 0x800455 <__TEXT_REGION_LENGTH__+0x700455>
     378:	80 68       	ori	r24, 0x80	; 128
     37a:	80 93 55 04 	sts	0x0455, r24	; 0x800455 <__TEXT_REGION_LENGTH__+0x700455>
     37e:	80 91 33 04 	lds	r24, 0x0433	; 0x800433 <__TEXT_REGION_LENGTH__+0x700433>
     382:	80 68       	ori	r24, 0x80	; 128
     384:	80 93 33 04 	sts	0x0433, r24	; 0x800433 <__TEXT_REGION_LENGTH__+0x700433>
     388:	80 91 34 04 	lds	r24, 0x0434	; 0x800434 <__TEXT_REGION_LENGTH__+0x700434>
     38c:	80 68       	ori	r24, 0x80	; 128
     38e:	80 93 34 04 	sts	0x0434, r24	; 0x800434 <__TEXT_REGION_LENGTH__+0x700434>
     392:	80 91 35 04 	lds	r24, 0x0435	; 0x800435 <__TEXT_REGION_LENGTH__+0x700435>
     396:	80 68       	ori	r24, 0x80	; 128
     398:	80 93 35 04 	sts	0x0435, r24	; 0x800435 <__TEXT_REGION_LENGTH__+0x700435>
     39c:	c0 93 01 02 	sts	0x0201, r28	; 0x800201 <__TEXT_REGION_LENGTH__+0x700201>
     3a0:	d2 e0       	ldi	r29, 0x02	; 2
     3a2:	d0 93 05 04 	sts	0x0405, r29	; 0x800405 <__TEXT_REGION_LENGTH__+0x700405>
     3a6:	2b e5       	ldi	r18, 0x5B	; 91
     3a8:	31 e0       	ldi	r19, 0x01	; 1
     3aa:	20 93 08 08 	sts	0x0808, r18	; 0x800808 <__TEXT_REGION_LENGTH__+0x700808>
     3ae:	30 93 09 08 	sts	0x0809, r19	; 0x800809 <__TEXT_REGION_LENGTH__+0x700809>
     3b2:	80 ea       	ldi	r24, 0xA0	; 160
     3b4:	80 93 05 08 	sts	0x0805, r24	; 0x800805 <__TEXT_REGION_LENGTH__+0x700805>
     3b8:	80 ec       	ldi	r24, 0xC0	; 192
     3ba:	80 93 06 08 	sts	0x0806, r24	; 0x800806 <__TEXT_REGION_LENGTH__+0x700806>
     3be:	83 e0       	ldi	r24, 0x03	; 3
     3c0:	80 93 07 08 	sts	0x0807, r24	; 0x800807 <__TEXT_REGION_LENGTH__+0x700807>
     3c4:	1c ba       	out	0x1c, r1	; 28
     3c6:	1d ba       	out	0x1d, r1	; 29
     3c8:	1e ba       	out	0x1e, r1	; 30
     3ca:	1f ba       	out	0x1f, r1	; 31
     3cc:	c0 93 03 0a 	sts	0x0A03, r28	; 0x800a03 <__TEXT_REGION_LENGTH__+0x700a03>
     3d0:	88 e0       	ldi	r24, 0x08	; 8
     3d2:	80 93 00 0a 	sts	0x0A00, r24	; 0x800a00 <__TEXT_REGION_LENGTH__+0x700a00>
     3d6:	90 93 02 02 	sts	0x0202, r25	; 0x800202 <__TEXT_REGION_LENGTH__+0x700202>
     3da:	87 e7       	ldi	r24, 0x77	; 119
     3dc:	80 93 01 0a 	sts	0x0A01, r24	; 0x800a01 <__TEXT_REGION_LENGTH__+0x700a01>
     3e0:	c0 93 0a 0a 	sts	0x0A0A, r28	; 0x800a0a <__TEXT_REGION_LENGTH__+0x700a0a>
     3e4:	8b e0       	ldi	r24, 0x0B	; 11
     3e6:	80 93 05 0a 	sts	0x0A05, r24	; 0x800a05 <__TEXT_REGION_LENGTH__+0x700a05>
     3ea:	80 91 00 0a 	lds	r24, 0x0A00	; 0x800a00 <__TEXT_REGION_LENGTH__+0x700a00>
     3ee:	81 60       	ori	r24, 0x01	; 1
     3f0:	80 93 00 0a 	sts	0x0A00, r24	; 0x800a00 <__TEXT_REGION_LENGTH__+0x700a00>
     3f4:	85 e0       	ldi	r24, 0x05	; 5
     3f6:	80 93 40 0a 	sts	0x0A40, r24	; 0x800a40 <__TEXT_REGION_LENGTH__+0x700a40>
     3fa:	10 92 41 0a 	sts	0x0A41, r1	; 0x800a41 <__TEXT_REGION_LENGTH__+0x700a41>
     3fe:	8f ef       	ldi	r24, 0xFF	; 255
     400:	91 e0       	ldi	r25, 0x01	; 1
     402:	80 93 4c 0a 	sts	0x0A4C, r24	; 0x800a4c <__TEXT_REGION_LENGTH__+0x700a4c>
     406:	90 93 4d 0a 	sts	0x0A4D, r25	; 0x800a4d <__TEXT_REGION_LENGTH__+0x700a4d>
     40a:	10 92 45 0a 	sts	0x0A45, r1	; 0x800a45 <__TEXT_REGION_LENGTH__+0x700a45>
     40e:	c0 93 50 0a 	sts	0x0A50, r28	; 0x800a50 <__TEXT_REGION_LENGTH__+0x700a50>
     412:	10 92 51 0a 	sts	0x0A51, r1	; 0x800a51 <__TEXT_REGION_LENGTH__+0x700a51>
     416:	8b e8       	ldi	r24, 0x8B	; 139
     418:	93 e0       	ldi	r25, 0x03	; 3
     41a:	80 93 5c 0a 	sts	0x0A5C, r24	; 0x800a5c <__TEXT_REGION_LENGTH__+0x700a5c>
     41e:	90 93 5d 0a 	sts	0x0A5D, r25	; 0x800a5d <__TEXT_REGION_LENGTH__+0x700a5d>
     422:	c0 93 55 0a 	sts	0x0A55, r28	; 0x800a55 <__TEXT_REGION_LENGTH__+0x700a55>
     426:	48 de       	rcall	.-880    	; 0xb8 <I2C_init>
     428:	82 e1       	ldi	r24, 0x12	; 18
     42a:	80 93 a0 00 	sts	0x00A0, r24	; 0x8000a0 <__TEXT_REGION_LENGTH__+0x7000a0>
     42e:	80 e2       	ldi	r24, 0x20	; 32
     430:	80 93 a2 00 	sts	0x00A2, r24	; 0x8000a2 <__TEXT_REGION_LENGTH__+0x7000a2>
     434:	c0 93 a1 00 	sts	0x00A1, r28	; 0x8000a1 <__TEXT_REGION_LENGTH__+0x7000a1>
     438:	86 e0       	ldi	r24, 0x06	; 6
     43a:	80 93 00 06 	sts	0x0600, r24	; 0x800600 <__TEXT_REGION_LENGTH__+0x700600>
     43e:	84 e4       	ldi	r24, 0x44	; 68
     440:	80 93 02 06 	sts	0x0602, r24	; 0x800602 <__TEXT_REGION_LENGTH__+0x700602>
     444:	8e e1       	ldi	r24, 0x1E	; 30
     446:	80 93 06 06 	sts	0x0606, r24	; 0x800606 <__TEXT_REGION_LENGTH__+0x700606>
     44a:	c0 93 0a 06 	sts	0x060A, r28	; 0x80060a <__TEXT_REGION_LENGTH__+0x70060a>
     44e:	80 91 00 06 	lds	r24, 0x0600	; 0x800600 <__TEXT_REGION_LENGTH__+0x700600>
     452:	81 60       	ori	r24, 0x01	; 1
     454:	80 93 00 06 	sts	0x0600, r24	; 0x800600 <__TEXT_REGION_LENGTH__+0x700600>
     458:	c0 93 08 06 	sts	0x0608, r28	; 0x800608 <__TEXT_REGION_LENGTH__+0x700608>
     45c:	10 92 40 06 	sts	0x0640, r1	; 0x800640 <__TEXT_REGION_LENGTH__+0x700640>
     460:	d0 93 41 06 	sts	0x0641, r29	; 0x800641 <__TEXT_REGION_LENGTH__+0x700641>
     464:	82 e5       	ldi	r24, 0x52	; 82
     466:	80 93 42 06 	sts	0x0642, r24	; 0x800642 <__TEXT_REGION_LENGTH__+0x700642>
     46a:	84 e0       	ldi	r24, 0x04	; 4
     46c:	80 93 45 06 	sts	0x0645, r24	; 0x800645 <__TEXT_REGION_LENGTH__+0x700645>
     470:	80 93 46 06 	sts	0x0646, r24	; 0x800646 <__TEXT_REGION_LENGTH__+0x700646>
     474:	c0 93 4a 06 	sts	0x064A, r28	; 0x80064a <__TEXT_REGION_LENGTH__+0x70064a>
     478:	80 91 40 06 	lds	r24, 0x0640	; 0x800640 <__TEXT_REGION_LENGTH__+0x700640>
     47c:	81 60       	ori	r24, 0x01	; 1
     47e:	80 93 40 06 	sts	0x0640, r24	; 0x800640 <__TEXT_REGION_LENGTH__+0x700640>
     482:	c0 93 48 06 	sts	0x0648, r28	; 0x800648 <__TEXT_REGION_LENGTH__+0x700648>
     486:	80 e4       	ldi	r24, 0x40	; 64
     488:	80 93 a0 06 	sts	0x06A0, r24	; 0x8006a0 <__TEXT_REGION_LENGTH__+0x7006a0>
     48c:	80 e8       	ldi	r24, 0x80	; 128
     48e:	80 93 a1 06 	sts	0x06A1, r24	; 0x8006a1 <__TEXT_REGION_LENGTH__+0x7006a1>
     492:	80 91 a0 06 	lds	r24, 0x06A0	; 0x8006a0 <__TEXT_REGION_LENGTH__+0x7006a0>
     496:	81 60       	ori	r24, 0x01	; 1
     498:	80 93 a0 06 	sts	0x06A0, r24	; 0x8006a0 <__TEXT_REGION_LENGTH__+0x7006a0>
     49c:	80 91 41 01 	lds	r24, 0x0141	; 0x800141 <__TEXT_REGION_LENGTH__+0x700141>
     4a0:	80 fd       	sbrc	r24, 0
     4a2:	fc cf       	rjmp	.-8      	; 0x49c <__LOCK_REGION_LENGTH__+0x9c>
     4a4:	80 e3       	ldi	r24, 0x30	; 48
     4a6:	80 93 40 01 	sts	0x0140, r24	; 0x800140 <__TEXT_REGION_LENGTH__+0x700140>
     4aa:	10 92 47 01 	sts	0x0147, r1	; 0x800147 <__TEXT_REGION_LENGTH__+0x700147>
     4ae:	80 91 41 01 	lds	r24, 0x0141	; 0x800141 <__TEXT_REGION_LENGTH__+0x700141>
     4b2:	82 fd       	sbrc	r24, 2
     4b4:	fc cf       	rjmp	.-8      	; 0x4ae <__LOCK_REGION_LENGTH__+0xae>
     4b6:	80 e0       	ldi	r24, 0x00	; 0
     4b8:	98 e7       	ldi	r25, 0x78	; 120
     4ba:	80 93 4a 01 	sts	0x014A, r24	; 0x80014a <__TEXT_REGION_LENGTH__+0x70014a>
     4be:	90 93 4b 01 	sts	0x014B, r25	; 0x80014b <__TEXT_REGION_LENGTH__+0x70014b>
     4c2:	80 91 48 01 	lds	r24, 0x0148	; 0x800148 <__TEXT_REGION_LENGTH__+0x700148>
     4c6:	90 91 49 01 	lds	r25, 0x0149	; 0x800149 <__TEXT_REGION_LENGTH__+0x700149>
     4ca:	60 91 4a 01 	lds	r22, 0x014A	; 0x80014a <__TEXT_REGION_LENGTH__+0x70014a>
     4ce:	70 91 4b 01 	lds	r23, 0x014B	; 0x80014b <__TEXT_REGION_LENGTH__+0x70014b>
     4d2:	82 96       	adiw	r24, 0x22	; 34
     4d4:	0e 94 b9 12 	call	0x2572	; 0x2572 <__udivmodhi4>
     4d8:	80 93 38 3b 	sts	0x3B38, r24	; 0x803b38 <tmp16bit>
     4dc:	90 93 39 3b 	sts	0x3B39, r25	; 0x803b39 <tmp16bit+0x1>
     4e0:	80 91 41 01 	lds	r24, 0x0141	; 0x800141 <__TEXT_REGION_LENGTH__+0x700141>
     4e4:	83 fd       	sbrc	r24, 3
     4e6:	fc cf       	rjmp	.-8      	; 0x4e0 <__LOCK_REGION_LENGTH__+0xe0>
     4e8:	80 91 38 3b 	lds	r24, 0x3B38	; 0x803b38 <tmp16bit>
     4ec:	90 91 39 3b 	lds	r25, 0x3B39	; 0x803b39 <tmp16bit+0x1>
     4f0:	80 93 4c 01 	sts	0x014C, r24	; 0x80014c <__TEXT_REGION_LENGTH__+0x70014c>
     4f4:	90 93 4d 01 	sts	0x014D, r25	; 0x80014d <__TEXT_REGION_LENGTH__+0x70014d>
     4f8:	83 e0       	ldi	r24, 0x03	; 3
     4fa:	80 93 42 01 	sts	0x0142, r24	; 0x800142 <__TEXT_REGION_LENGTH__+0x700142>
     4fe:	81 e0       	ldi	r24, 0x01	; 1
     500:	80 93 52 01 	sts	0x0152, r24	; 0x800152 <__TEXT_REGION_LENGTH__+0x700152>
     504:	88 e0       	ldi	r24, 0x08	; 8
     506:	80 93 50 01 	sts	0x0150, r24	; 0x800150 <__TEXT_REGION_LENGTH__+0x700150>
     50a:	80 91 41 01 	lds	r24, 0x0141	; 0x800141 <__TEXT_REGION_LENGTH__+0x700141>
     50e:	80 fd       	sbrc	r24, 0
     510:	fc cf       	rjmp	.-8      	; 0x50a <__LOCK_REGION_LENGTH__+0x10a>
     512:	80 91 40 01 	lds	r24, 0x0140	; 0x800140 <__TEXT_REGION_LENGTH__+0x700140>
     516:	81 60       	ori	r24, 0x01	; 1
     518:	80 93 40 01 	sts	0x0140, r24	; 0x800140 <__TEXT_REGION_LENGTH__+0x700140>
     51c:	80 91 50 01 	lds	r24, 0x0150	; 0x800150 <__TEXT_REGION_LENGTH__+0x700150>
     520:	81 60       	ori	r24, 0x01	; 1
     522:	80 93 50 01 	sts	0x0150, r24	; 0x800150 <__TEXT_REGION_LENGTH__+0x700150>
     526:	10 92 a3 3a 	sts	0x3AA3, r1	; 0x803aa3 <serRx>
     52a:	83 ea       	ldi	r24, 0xA3	; 163
     52c:	9a e3       	ldi	r25, 0x3A	; 58
     52e:	80 93 e7 3a 	sts	0x3AE7, r24	; 0x803ae7 <serTxAddr>
     532:	90 93 e8 3a 	sts	0x3AE8, r25	; 0x803ae8 <serTxAddr+0x1>
     536:	78 94       	sei
     538:	df 91       	pop	r29
     53a:	cf 91       	pop	r28
     53c:	08 95       	ret

0000053e <__vector_8>:
     53e:	1f 92       	push	r1
     540:	0f 92       	push	r0
     542:	0f b6       	in	r0, 0x3f	; 63
     544:	0f 92       	push	r0
     546:	11 24       	eor	r1, r1
     548:	8f 93       	push	r24
     54a:	9f 93       	push	r25
     54c:	af 93       	push	r26
     54e:	bf 93       	push	r27
     550:	ef 93       	push	r30
     552:	ff 93       	push	r31
     554:	87 e0       	ldi	r24, 0x07	; 7
     556:	80 93 46 04 	sts	0x0446, r24	; 0x800446 <__TEXT_REGION_LENGTH__+0x700446>
     55a:	84 e4       	ldi	r24, 0x44	; 68
     55c:	80 93 26 04 	sts	0x0426, r24	; 0x800426 <__TEXT_REGION_LENGTH__+0x700426>
     560:	ec b3       	in	r30, 0x1c	; 28
     562:	88 e0       	ldi	r24, 0x08	; 8
     564:	e8 9f       	mul	r30, r24
     566:	f0 01       	movw	r30, r0
     568:	11 24       	eor	r1, r1
     56a:	e2 5f       	subi	r30, 0xF2	; 242
     56c:	f4 4c       	sbci	r31, 0xC4	; 196
     56e:	a8 e2       	ldi	r26, 0x28	; 40
     570:	ba e0       	ldi	r27, 0x0A	; 10
     572:	96 e0       	ldi	r25, 0x06	; 6
     574:	81 91       	ld	r24, Z+
     576:	8d 93       	st	X+, r24
     578:	9a 95       	dec	r25
     57a:	e1 f7       	brne	.-8      	; 0x574 <__vector_8+0x36>
     57c:	8b e0       	ldi	r24, 0x0B	; 11
     57e:	80 93 05 0a 	sts	0x0A05, r24	; 0x800a05 <__TEXT_REGION_LENGTH__+0x700a05>
     582:	8c b3       	in	r24, 0x1c	; 28
     584:	83 30       	cpi	r24, 0x03	; 3
     586:	58 f4       	brcc	.+22     	; 0x59e <__vector_8+0x60>
     588:	8c b3       	in	r24, 0x1c	; 28
     58a:	91 e0       	ldi	r25, 0x01	; 1
     58c:	01 c0       	rjmp	.+2      	; 0x590 <__vector_8+0x52>
     58e:	99 0f       	add	r25, r25
     590:	8a 95       	dec	r24
     592:	ea f7       	brpl	.-6      	; 0x58e <__vector_8+0x50>
     594:	99 b9       	out	0x09, r25	; 9
     596:	8c b3       	in	r24, 0x1c	; 28
     598:	83 95       	inc	r24
     59a:	8c bb       	out	0x1c, r24	; 28
     59c:	0a c0       	rjmp	.+20     	; 0x5b2 <__vector_8+0x74>
     59e:	8c b3       	in	r24, 0x1c	; 28
     5a0:	83 30       	cpi	r24, 0x03	; 3
     5a2:	21 f4       	brne	.+8      	; 0x5ac <__vector_8+0x6e>
     5a4:	2a 9a       	sbi	0x05, 2	; 5
     5a6:	83 95       	inc	r24
     5a8:	8c bb       	out	0x1c, r24	; 28
     5aa:	03 c0       	rjmp	.+6      	; 0x5b2 <__vector_8+0x74>
     5ac:	2e 9a       	sbi	0x05, 6	; 5
     5ae:	88 27       	eor	r24, r24
     5b0:	8c bb       	out	0x1c, r24	; 28
     5b2:	80 91 8e 3a 	lds	r24, 0x3A8E	; 0x803a8e <timeout_I2C>
     5b6:	88 23       	and	r24, r24
     5b8:	29 f0       	breq	.+10     	; 0x5c4 <__vector_8+0x86>
     5ba:	80 91 8e 3a 	lds	r24, 0x3A8E	; 0x803a8e <timeout_I2C>
     5be:	81 50       	subi	r24, 0x01	; 1
     5c0:	80 93 8e 3a 	sts	0x3A8E, r24	; 0x803a8e <timeout_I2C>
     5c4:	8f ef       	ldi	r24, 0xFF	; 255
     5c6:	80 93 0b 0a 	sts	0x0A0B, r24	; 0x800a0b <__TEXT_REGION_LENGTH__+0x700a0b>
     5ca:	ff 91       	pop	r31
     5cc:	ef 91       	pop	r30
     5ce:	bf 91       	pop	r27
     5d0:	af 91       	pop	r26
     5d2:	9f 91       	pop	r25
     5d4:	8f 91       	pop	r24
     5d6:	0f 90       	pop	r0
     5d8:	0f be       	out	0x3f, r0	; 63
     5da:	0f 90       	pop	r0
     5dc:	1f 90       	pop	r1
     5de:	18 95       	reti

000005e0 <__vector_13>:
     5e0:	1f 92       	push	r1
     5e2:	0f 92       	push	r0
     5e4:	0f b6       	in	r0, 0x3f	; 63
     5e6:	0f 92       	push	r0
     5e8:	11 24       	eor	r1, r1
     5ea:	8f 93       	push	r24
     5ec:	9f 93       	push	r25
     5ee:	ef 93       	push	r30
     5f0:	ff 93       	push	r31
     5f2:	e0 91 e7 3a 	lds	r30, 0x3AE7	; 0x803ae7 <serTxAddr>
     5f6:	f0 91 e8 3a 	lds	r31, 0x3AE8	; 0x803ae8 <serTxAddr+0x1>
     5fa:	80 81       	ld	r24, Z
     5fc:	88 23       	and	r24, r24
     5fe:	91 f0       	breq	.+36     	; 0x624 <__vector_13+0x44>
     600:	80 81       	ld	r24, Z
     602:	80 93 02 08 	sts	0x0802, r24	; 0x800802 <__TEXT_REGION_LENGTH__+0x700802>
     606:	80 91 e7 3a 	lds	r24, 0x3AE7	; 0x803ae7 <serTxAddr>
     60a:	90 91 e8 3a 	lds	r25, 0x3AE8	; 0x803ae8 <serTxAddr+0x1>
     60e:	01 96       	adiw	r24, 0x01	; 1
     610:	80 93 e7 3a 	sts	0x3AE7, r24	; 0x803ae7 <serTxAddr>
     614:	90 93 e8 3a 	sts	0x3AE8, r25	; 0x803ae8 <serTxAddr+0x1>
     618:	80 91 05 08 	lds	r24, 0x0805	; 0x800805 <__TEXT_REGION_LENGTH__+0x700805>
     61c:	80 62       	ori	r24, 0x20	; 32
     61e:	80 93 05 08 	sts	0x0805, r24	; 0x800805 <__TEXT_REGION_LENGTH__+0x700805>
     622:	05 c0       	rjmp	.+10     	; 0x62e <__vector_13+0x4e>
     624:	81 e0       	ldi	r24, 0x01	; 1
     626:	80 93 04 38 	sts	0x3804, r24	; 0x803804 <serTxDone>
     62a:	10 92 45 0a 	sts	0x0A45, r1	; 0x800a45 <__TEXT_REGION_LENGTH__+0x700a45>
     62e:	81 e0       	ldi	r24, 0x01	; 1
     630:	80 93 46 0a 	sts	0x0A46, r24	; 0x800a46 <__TEXT_REGION_LENGTH__+0x700a46>
     634:	ff 91       	pop	r31
     636:	ef 91       	pop	r30
     638:	9f 91       	pop	r25
     63a:	8f 91       	pop	r24
     63c:	0f 90       	pop	r0
     63e:	0f be       	out	0x3f, r0	; 63
     640:	0f 90       	pop	r0
     642:	1f 90       	pop	r1
     644:	18 95       	reti

00000646 <__vector_14>:
     646:	1f 92       	push	r1
     648:	0f 92       	push	r0
     64a:	0f b6       	in	r0, 0x3f	; 63
     64c:	0f 92       	push	r0
     64e:	11 24       	eor	r1, r1
     650:	2f 93       	push	r18
     652:	3f 93       	push	r19
     654:	4f 93       	push	r20
     656:	8f 93       	push	r24
     658:	9f 93       	push	r25
     65a:	ef 93       	push	r30
     65c:	ff 93       	push	r31
     65e:	e0 91 02 38 	lds	r30, 0x3802	; 0x803802 <auSmpAddr>
     662:	f0 91 03 38 	lds	r31, 0x3803	; 0x803803 <auSmpAddr+0x1>
     666:	80 81       	ld	r24, Z
     668:	81 11       	cpse	r24, r1
     66a:	08 c0       	rjmp	.+16     	; 0x67c <__vector_14+0x36>
     66c:	80 91 00 38 	lds	r24, 0x3800	; 0x803800 <__data_start>
     670:	90 91 01 38 	lds	r25, 0x3801	; 0x803801 <__data_start+0x1>
     674:	80 93 02 38 	sts	0x3802, r24	; 0x803802 <auSmpAddr>
     678:	90 93 03 38 	sts	0x3803, r25	; 0x803803 <auSmpAddr+0x1>
     67c:	e0 91 02 38 	lds	r30, 0x3802	; 0x803802 <auSmpAddr>
     680:	f0 91 03 38 	lds	r31, 0x3803	; 0x803803 <auSmpAddr+0x1>
     684:	80 81       	ld	r24, Z
     686:	88 23       	and	r24, r24
     688:	e1 f0       	breq	.+56     	; 0x6c2 <__vector_14+0x7c>
     68a:	20 81       	ld	r18, Z
     68c:	40 91 e4 3a 	lds	r20, 0x3AE4	; 0x803ae4 <auVolume>
     690:	30 e0       	ldi	r19, 0x00	; 0
     692:	2f 57       	subi	r18, 0x7F	; 127
     694:	31 09       	sbc	r19, r1
     696:	42 9f       	mul	r20, r18
     698:	c0 01       	movw	r24, r0
     69a:	43 9f       	mul	r20, r19
     69c:	90 0d       	add	r25, r0
     69e:	11 24       	eor	r1, r1
     6a0:	89 2f       	mov	r24, r25
     6a2:	99 0f       	add	r25, r25
     6a4:	99 0b       	sbc	r25, r25
     6a6:	80 58       	subi	r24, 0x80	; 128
     6a8:	9f 4f       	sbci	r25, 0xFF	; 255
     6aa:	80 93 a1 06 	sts	0x06A1, r24	; 0x8006a1 <__TEXT_REGION_LENGTH__+0x7006a1>
     6ae:	80 91 02 38 	lds	r24, 0x3802	; 0x803802 <auSmpAddr>
     6b2:	90 91 03 38 	lds	r25, 0x3803	; 0x803803 <auSmpAddr+0x1>
     6b6:	01 96       	adiw	r24, 0x01	; 1
     6b8:	80 93 02 38 	sts	0x3802, r24	; 0x803802 <auSmpAddr>
     6bc:	90 93 03 38 	sts	0x3803, r25	; 0x803803 <auSmpAddr+0x1>
     6c0:	06 c0       	rjmp	.+12     	; 0x6ce <__vector_14+0x88>
     6c2:	80 e8       	ldi	r24, 0x80	; 128
     6c4:	80 93 a1 06 	sts	0x06A1, r24	; 0x8006a1 <__TEXT_REGION_LENGTH__+0x7006a1>
     6c8:	81 e0       	ldi	r24, 0x01	; 1
     6ca:	80 93 36 3b 	sts	0x3B36, r24	; 0x803b36 <auPlayDone>
     6ce:	81 e0       	ldi	r24, 0x01	; 1
     6d0:	80 93 56 0a 	sts	0x0A56, r24	; 0x800a56 <__TEXT_REGION_LENGTH__+0x700a56>
     6d4:	ff 91       	pop	r31
     6d6:	ef 91       	pop	r30
     6d8:	9f 91       	pop	r25
     6da:	8f 91       	pop	r24
     6dc:	4f 91       	pop	r20
     6de:	3f 91       	pop	r19
     6e0:	2f 91       	pop	r18
     6e2:	0f 90       	pop	r0
     6e4:	0f be       	out	0x3f, r0	; 63
     6e6:	0f 90       	pop	r0
     6e8:	1f 90       	pop	r1
     6ea:	18 95       	reti

000006ec <__vector_27>:
     6ec:	1f 92       	push	r1
     6ee:	0f 92       	push	r0
     6f0:	0f b6       	in	r0, 0x3f	; 63
     6f2:	0f 92       	push	r0
     6f4:	11 24       	eor	r1, r1
     6f6:	8f 93       	push	r24
     6f8:	ef 93       	push	r30
     6fa:	ff 93       	push	r31
     6fc:	80 91 9c 38 	lds	r24, 0x389C	; 0x80389c <serRxDone>
     700:	81 11       	cpse	r24, r1
     702:	2b c0       	rjmp	.+86     	; 0x75a <__vector_27+0x6e>
     704:	ed b3       	in	r30, 0x1d	; 29
     706:	f0 e0       	ldi	r31, 0x00	; 0
     708:	80 91 00 08 	lds	r24, 0x0800	; 0x800800 <__TEXT_REGION_LENGTH__+0x700800>
     70c:	ed 55       	subi	r30, 0x5D	; 93
     70e:	f5 4c       	sbci	r31, 0xC5	; 197
     710:	80 83       	st	Z, r24
     712:	ed b3       	in	r30, 0x1d	; 29
     714:	f0 e0       	ldi	r31, 0x00	; 0
     716:	ed 55       	subi	r30, 0x5D	; 93
     718:	f5 4c       	sbci	r31, 0xC5	; 197
     71a:	80 81       	ld	r24, Z
     71c:	80 93 02 08 	sts	0x0802, r24	; 0x800802 <__TEXT_REGION_LENGTH__+0x700802>
     720:	ed b3       	in	r30, 0x1d	; 29
     722:	f0 e0       	ldi	r31, 0x00	; 0
     724:	ed 55       	subi	r30, 0x5D	; 93
     726:	f5 4c       	sbci	r31, 0xC5	; 197
     728:	80 81       	ld	r24, Z
     72a:	8a 30       	cpi	r24, 0x0A	; 10
     72c:	39 f0       	breq	.+14     	; 0x73c <__vector_27+0x50>
     72e:	ed b3       	in	r30, 0x1d	; 29
     730:	f0 e0       	ldi	r31, 0x00	; 0
     732:	ed 55       	subi	r30, 0x5D	; 93
     734:	f5 4c       	sbci	r31, 0xC5	; 197
     736:	80 81       	ld	r24, Z
     738:	8d 30       	cpi	r24, 0x0D	; 13
     73a:	49 f4       	brne	.+18     	; 0x74e <__vector_27+0x62>
     73c:	ed b3       	in	r30, 0x1d	; 29
     73e:	f0 e0       	ldi	r31, 0x00	; 0
     740:	ed 55       	subi	r30, 0x5D	; 93
     742:	f5 4c       	sbci	r31, 0xC5	; 197
     744:	10 82       	st	Z, r1
     746:	81 e0       	ldi	r24, 0x01	; 1
     748:	80 93 9c 38 	sts	0x389C, r24	; 0x80389c <serRxDone>
     74c:	06 c0       	rjmp	.+12     	; 0x75a <__vector_27+0x6e>
     74e:	8d b3       	in	r24, 0x1d	; 29
     750:	80 34       	cpi	r24, 0x40	; 64
     752:	18 f4       	brcc	.+6      	; 0x75a <__vector_27+0x6e>
     754:	8d b3       	in	r24, 0x1d	; 29
     756:	8f 5f       	subi	r24, 0xFF	; 255
     758:	8d bb       	out	0x1d, r24	; 29
     75a:	80 e8       	ldi	r24, 0x80	; 128
     75c:	80 93 04 08 	sts	0x0804, r24	; 0x800804 <__TEXT_REGION_LENGTH__+0x700804>
     760:	ff 91       	pop	r31
     762:	ef 91       	pop	r30
     764:	8f 91       	pop	r24
     766:	0f 90       	pop	r0
     768:	0f be       	out	0x3f, r0	; 63
     76a:	0f 90       	pop	r0
     76c:	1f 90       	pop	r1
     76e:	18 95       	reti

00000770 <__vector_28>:
     770:	1f 92       	push	r1
     772:	0f 92       	push	r0
     774:	0f b6       	in	r0, 0x3f	; 63
     776:	0f 92       	push	r0
     778:	11 24       	eor	r1, r1
     77a:	8f 93       	push	r24
     77c:	ef 93       	push	r30
     77e:	ff 93       	push	r31
     780:	10 92 4a 0a 	sts	0x0A4A, r1	; 0x800a4a <__TEXT_REGION_LENGTH__+0x700a4a>
     784:	10 92 4b 0a 	sts	0x0A4B, r1	; 0x800a4b <__TEXT_REGION_LENGTH__+0x700a4b>
     788:	81 e0       	ldi	r24, 0x01	; 1
     78a:	80 93 45 0a 	sts	0x0A45, r24	; 0x800a45 <__TEXT_REGION_LENGTH__+0x700a45>
     78e:	e5 e0       	ldi	r30, 0x05	; 5
     790:	f8 e0       	ldi	r31, 0x08	; 8
     792:	80 81       	ld	r24, Z
     794:	8f 7d       	andi	r24, 0xDF	; 223
     796:	80 83       	st	Z, r24
     798:	ff 91       	pop	r31
     79a:	ef 91       	pop	r30
     79c:	8f 91       	pop	r24
     79e:	0f 90       	pop	r0
     7a0:	0f be       	out	0x3f, r0	; 63
     7a2:	0f 90       	pop	r0
     7a4:	1f 90       	pop	r1
     7a6:	18 95       	reti

000007a8 <__vector_20>:
     7a8:	1f 92       	push	r1
     7aa:	0f 92       	push	r0
     7ac:	0f b6       	in	r0, 0x3f	; 63
     7ae:	0f 92       	push	r0
     7b0:	11 24       	eor	r1, r1
     7b2:	8f 93       	push	r24
     7b4:	ef 93       	push	r30
     7b6:	ff 93       	push	r31
     7b8:	80 91 90 38 	lds	r24, 0x3890	; 0x803890 <__data_end>
     7bc:	81 11       	cpse	r24, r1
     7be:	15 c0       	rjmp	.+42     	; 0x7ea <__vector_20+0x42>
     7c0:	8e b3       	in	r24, 0x1e	; 30
     7c2:	8f 5f       	subi	r24, 0xFF	; 255
     7c4:	8f 71       	andi	r24, 0x1F	; 31
     7c6:	8e bb       	out	0x1e, r24	; 30
     7c8:	80 91 06 06 	lds	r24, 0x0606	; 0x800606 <__TEXT_REGION_LENGTH__+0x700606>
     7cc:	8e 31       	cpi	r24, 0x1E	; 30
     7ce:	29 f4       	brne	.+10     	; 0x7da <__vector_20+0x32>
     7d0:	80 91 10 06 	lds	r24, 0x0610	; 0x800610 <__TEXT_REGION_LENGTH__+0x700610>
     7d4:	80 93 37 3b 	sts	0x3B37, r24	; 0x803b37 <adcTemp>
     7d8:	0a c0       	rjmp	.+20     	; 0x7ee <__vector_20+0x46>
     7da:	ee b3       	in	r30, 0x1e	; 30
     7dc:	f0 e0       	ldi	r31, 0x00	; 0
     7de:	80 91 10 06 	lds	r24, 0x0610	; 0x800610 <__TEXT_REGION_LENGTH__+0x700610>
     7e2:	e2 51       	subi	r30, 0x12	; 18
     7e4:	f5 4c       	sbci	r31, 0xC5	; 197
     7e6:	80 83       	st	Z, r24
     7e8:	02 c0       	rjmp	.+4      	; 0x7ee <__vector_20+0x46>
     7ea:	10 92 90 38 	sts	0x3890, r1	; 0x803890 <__data_end>
     7ee:	81 e0       	ldi	r24, 0x01	; 1
     7f0:	80 93 0b 06 	sts	0x060B, r24	; 0x80060b <__TEXT_REGION_LENGTH__+0x70060b>
     7f4:	ff 91       	pop	r31
     7f6:	ef 91       	pop	r30
     7f8:	8f 91       	pop	r24
     7fa:	0f 90       	pop	r0
     7fc:	0f be       	out	0x3f, r0	; 63
     7fe:	0f 90       	pop	r0
     800:	1f 90       	pop	r1
     802:	18 95       	reti

00000804 <__vector_22>:
     804:	1f 92       	push	r1
     806:	0f 92       	push	r0
     808:	0f b6       	in	r0, 0x3f	; 63
     80a:	0f 92       	push	r0
     80c:	11 24       	eor	r1, r1
     80e:	8f 93       	push	r24
     810:	9f 93       	push	r25
     812:	80 91 46 06 	lds	r24, 0x0646	; 0x800646 <__TEXT_REGION_LENGTH__+0x700646>
     816:	81 11       	cpse	r24, r1
     818:	0a c0       	rjmp	.+20     	; 0x82e <__vector_22+0x2a>
     81a:	80 91 50 06 	lds	r24, 0x0650	; 0x800650 <__TEXT_REGION_LENGTH__+0x700650>
     81e:	90 91 51 06 	lds	r25, 0x0651	; 0x800651 <__TEXT_REGION_LENGTH__+0x700651>
     822:	80 93 eb 3a 	sts	0x3AEB, r24	; 0x803aeb <adcPhot>
     826:	90 93 ec 3a 	sts	0x3AEC, r25	; 0x803aec <adcPhot+0x1>
     82a:	81 e0       	ldi	r24, 0x01	; 1
     82c:	10 c0       	rjmp	.+32     	; 0x84e <__vector_22+0x4a>
     82e:	80 91 46 06 	lds	r24, 0x0646	; 0x800646 <__TEXT_REGION_LENGTH__+0x700646>
     832:	81 30       	cpi	r24, 0x01	; 1
     834:	79 f4       	brne	.+30     	; 0x854 <__vector_22+0x50>
     836:	88 e0       	ldi	r24, 0x08	; 8
     838:	80 93 06 04 	sts	0x0406, r24	; 0x800406 <__TEXT_REGION_LENGTH__+0x700406>
     83c:	80 91 50 06 	lds	r24, 0x0650	; 0x800650 <__TEXT_REGION_LENGTH__+0x700650>
     840:	90 91 51 06 	lds	r25, 0x0651	; 0x800651 <__TEXT_REGION_LENGTH__+0x700651>
     844:	80 93 e9 3a 	sts	0x3AE9, r24	; 0x803ae9 <adcHall>
     848:	90 93 ea 3a 	sts	0x3AEA, r25	; 0x803aea <adcHall+0x1>
     84c:	84 e0       	ldi	r24, 0x04	; 4
     84e:	80 93 46 06 	sts	0x0646, r24	; 0x800646 <__TEXT_REGION_LENGTH__+0x700646>
     852:	10 c0       	rjmp	.+32     	; 0x874 <__vector_22+0x70>
     854:	80 91 50 06 	lds	r24, 0x0650	; 0x800650 <__TEXT_REGION_LENGTH__+0x700650>
     858:	90 91 51 06 	lds	r25, 0x0651	; 0x800651 <__TEXT_REGION_LENGTH__+0x700651>
     85c:	80 93 e5 3a 	sts	0x3AE5, r24	; 0x803ae5 <adcBtns>
     860:	90 93 e6 3a 	sts	0x3AE6, r25	; 0x803ae6 <adcBtns+0x1>
     864:	8f b3       	in	r24, 0x1f	; 31
     866:	8f 30       	cpi	r24, 0x0F	; 15
     868:	29 f4       	brne	.+10     	; 0x874 <__vector_22+0x70>
     86a:	10 92 46 06 	sts	0x0646, r1	; 0x800646 <__TEXT_REGION_LENGTH__+0x700646>
     86e:	88 e0       	ldi	r24, 0x08	; 8
     870:	80 93 05 04 	sts	0x0405, r24	; 0x800405 <__TEXT_REGION_LENGTH__+0x700405>
     874:	8f b3       	in	r24, 0x1f	; 31
     876:	90 e0       	ldi	r25, 0x00	; 0
     878:	01 96       	adiw	r24, 0x01	; 1
     87a:	8f 70       	andi	r24, 0x0F	; 15
     87c:	99 27       	eor	r25, r25
     87e:	8f bb       	out	0x1f, r24	; 31
     880:	81 e0       	ldi	r24, 0x01	; 1
     882:	80 93 4b 06 	sts	0x064B, r24	; 0x80064b <__TEXT_REGION_LENGTH__+0x70064b>
     886:	9f 91       	pop	r25
     888:	8f 91       	pop	r24
     88a:	0f 90       	pop	r0
     88c:	0f be       	out	0x3f, r0	; 63
     88e:	0f 90       	pop	r0
     890:	1f 90       	pop	r1
     892:	18 95       	reti

00000894 <__vector_6>:
     894:	1f 92       	push	r1
     896:	0f 92       	push	r0
     898:	0f b6       	in	r0, 0x3f	; 63
     89a:	0f 92       	push	r0
     89c:	11 24       	eor	r1, r1
     89e:	5f 93       	push	r21
     8a0:	6f 93       	push	r22
     8a2:	7f 93       	push	r23
     8a4:	8f 93       	push	r24
     8a6:	9f 93       	push	r25
     8a8:	af 93       	push	r26
     8aa:	bf 93       	push	r27
     8ac:	80 91 43 01 	lds	r24, 0x0143	; 0x800143 <__TEXT_REGION_LENGTH__+0x700143>
     8b0:	81 ff       	sbrs	r24, 1
     8b2:	26 c0       	rjmp	.+76     	; 0x900 <__vector_6+0x6c>
     8b4:	80 91 9a 38 	lds	r24, 0x389A	; 0x80389a <buttonMark>
     8b8:	8f 3f       	cpi	r24, 0xFF	; 255
     8ba:	29 f0       	breq	.+10     	; 0x8c6 <__vector_6+0x32>
     8bc:	80 91 9a 38 	lds	r24, 0x389A	; 0x80389a <buttonMark>
     8c0:	8f 5f       	subi	r24, 0xFF	; 255
     8c2:	80 93 9a 38 	sts	0x389A, r24	; 0x80389a <buttonMark>
     8c6:	80 91 48 01 	lds	r24, 0x0148	; 0x800148 <__TEXT_REGION_LENGTH__+0x700148>
     8ca:	90 91 49 01 	lds	r25, 0x0149	; 0x800149 <__TEXT_REGION_LENGTH__+0x700149>
     8ce:	60 91 4a 01 	lds	r22, 0x014A	; 0x80014a <__TEXT_REGION_LENGTH__+0x70014a>
     8d2:	70 91 4b 01 	lds	r23, 0x014B	; 0x80014b <__TEXT_REGION_LENGTH__+0x70014b>
     8d6:	82 96       	adiw	r24, 0x22	; 34
     8d8:	0e 94 b9 12 	call	0x2572	; 0x2572 <__udivmodhi4>
     8dc:	80 93 38 3b 	sts	0x3B38, r24	; 0x803b38 <tmp16bit>
     8e0:	90 93 39 3b 	sts	0x3B39, r25	; 0x803b39 <tmp16bit+0x1>
     8e4:	80 91 41 01 	lds	r24, 0x0141	; 0x800141 <__TEXT_REGION_LENGTH__+0x700141>
     8e8:	83 fd       	sbrc	r24, 3
     8ea:	fc cf       	rjmp	.-8      	; 0x8e4 <__vector_6+0x50>
     8ec:	80 91 38 3b 	lds	r24, 0x3B38	; 0x803b38 <tmp16bit>
     8f0:	90 91 39 3b 	lds	r25, 0x3B39	; 0x803b39 <tmp16bit+0x1>
     8f4:	80 93 4c 01 	sts	0x014C, r24	; 0x80014c <__TEXT_REGION_LENGTH__+0x70014c>
     8f8:	90 93 4d 01 	sts	0x014D, r25	; 0x80014d <__TEXT_REGION_LENGTH__+0x70014d>
     8fc:	82 e0       	ldi	r24, 0x02	; 2
     8fe:	0a c0       	rjmp	.+20     	; 0x914 <__vector_6+0x80>
     900:	80 91 9b 38 	lds	r24, 0x389B	; 0x80389b <minuteMark>
     904:	8f 3f       	cpi	r24, 0xFF	; 255
     906:	29 f0       	breq	.+10     	; 0x912 <__vector_6+0x7e>
     908:	80 91 9b 38 	lds	r24, 0x389B	; 0x80389b <minuteMark>
     90c:	8f 5f       	subi	r24, 0xFF	; 255
     90e:	80 93 9b 38 	sts	0x389B, r24	; 0x80389b <minuteMark>
     912:	81 e0       	ldi	r24, 0x01	; 1
     914:	80 93 43 01 	sts	0x0143, r24	; 0x800143 <__TEXT_REGION_LENGTH__+0x700143>
     918:	bf 91       	pop	r27
     91a:	af 91       	pop	r26
     91c:	9f 91       	pop	r25
     91e:	8f 91       	pop	r24
     920:	7f 91       	pop	r23
     922:	6f 91       	pop	r22
     924:	5f 91       	pop	r21
     926:	0f 90       	pop	r0
     928:	0f be       	out	0x3f, r0	; 63
     92a:	0f 90       	pop	r0
     92c:	1f 90       	pop	r1
     92e:	18 95       	reti

00000930 <__vector_7>:
     930:	1f 92       	push	r1
     932:	0f 92       	push	r0
     934:	0f b6       	in	r0, 0x3f	; 63
     936:	0f 92       	push	r0
     938:	11 24       	eor	r1, r1
     93a:	8f 93       	push	r24
     93c:	81 e0       	ldi	r24, 0x01	; 1
     93e:	80 93 48 06 	sts	0x0648, r24	; 0x800648 <__TEXT_REGION_LENGTH__+0x700648>
     942:	80 93 53 01 	sts	0x0153, r24	; 0x800153 <__TEXT_REGION_LENGTH__+0x700153>
     946:	8f 91       	pop	r24
     948:	0f 90       	pop	r0
     94a:	0f be       	out	0x3f, r0	; 63
     94c:	0f 90       	pop	r0
     94e:	1f 90       	pop	r1
     950:	18 95       	reti

00000952 <EERead>:
     952:	90 91 02 10 	lds	r25, 0x1002	; 0x801002 <__TEXT_REGION_LENGTH__+0x701002>
     956:	91 fd       	sbrc	r25, 1
     958:	fc cf       	rjmp	.-8      	; 0x952 <EERead>
     95a:	fb 01       	movw	r30, r22
     95c:	48 0f       	add	r20, r24
     95e:	84 17       	cp	r24, r20
     960:	39 f0       	breq	.+14     	; 0x970 <EERead+0x1e>
     962:	a8 2f       	mov	r26, r24
     964:	b0 e0       	ldi	r27, 0x00	; 0
     966:	bc 5e       	subi	r27, 0xEC	; 236
     968:	9c 91       	ld	r25, X
     96a:	91 93       	st	Z+, r25
     96c:	8f 5f       	subi	r24, 0xFF	; 255
     96e:	f7 cf       	rjmp	.-18     	; 0x95e <EERead+0xc>
     970:	08 95       	ret

00000972 <EEWrite>:
     972:	9d e9       	ldi	r25, 0x9D	; 157
     974:	24 e0       	ldi	r18, 0x04	; 4
     976:	33 e0       	ldi	r19, 0x03	; 3
     978:	44 23       	and	r20, r20
     97a:	09 f1       	breq	.+66     	; 0x9be <EEWrite+0x4c>
     97c:	50 91 02 10 	lds	r21, 0x1002	; 0x801002 <__TEXT_REGION_LENGTH__+0x701002>
     980:	51 fd       	sbrc	r21, 1
     982:	fc cf       	rjmp	.-8      	; 0x97c <EEWrite+0xa>
     984:	94 bf       	out	0x34, r25	; 52
     986:	20 93 00 10 	sts	0x1000, r18	; 0x801000 <__TEXT_REGION_LENGTH__+0x701000>
     98a:	e8 2f       	mov	r30, r24
     98c:	58 2f       	mov	r21, r24
     98e:	5f 71       	andi	r21, 0x1F	; 31
     990:	8f 5f       	subi	r24, 0xFF	; 255
     992:	6f 5f       	subi	r22, 0xFF	; 255
     994:	7f 4f       	sbci	r23, 0xFF	; 255
     996:	db 01       	movw	r26, r22
     998:	11 97       	sbiw	r26, 0x01	; 1
     99a:	ac 91       	ld	r26, X
     99c:	f0 e0       	ldi	r31, 0x00	; 0
     99e:	fc 5e       	subi	r31, 0xEC	; 236
     9a0:	a0 83       	st	Z, r26
     9a2:	41 50       	subi	r20, 0x01	; 1
     9a4:	19 f0       	breq	.+6      	; 0x9ac <EEWrite+0x3a>
     9a6:	e8 2f       	mov	r30, r24
     9a8:	5f 31       	cpi	r21, 0x1F	; 31
     9aa:	81 f7       	brne	.-32     	; 0x98c <EEWrite+0x1a>
     9ac:	94 bf       	out	0x34, r25	; 52
     9ae:	30 93 00 10 	sts	0x1000, r19	; 0x801000 <__TEXT_REGION_LENGTH__+0x701000>
     9b2:	50 91 02 10 	lds	r21, 0x1002	; 0x801002 <__TEXT_REGION_LENGTH__+0x701002>
     9b6:	52 ff       	sbrs	r21, 2
     9b8:	df cf       	rjmp	.-66     	; 0x978 <EEWrite+0x6>
     9ba:	81 e0       	ldi	r24, 0x01	; 1
     9bc:	08 95       	ret
     9be:	80 e0       	ldi	r24, 0x00	; 0
     9c0:	08 95       	ret

000009c2 <SerSend>:
     9c2:	20 91 04 38 	lds	r18, 0x3804	; 0x803804 <serTxDone>
     9c6:	22 23       	and	r18, r18
     9c8:	59 f0       	breq	.+22     	; 0x9e0 <SerSend+0x1e>
     9ca:	80 93 e7 3a 	sts	0x3AE7, r24	; 0x803ae7 <serTxAddr>
     9ce:	90 93 e8 3a 	sts	0x3AE8, r25	; 0x803ae8 <serTxAddr+0x1>
     9d2:	10 92 04 38 	sts	0x3804, r1	; 0x803804 <serTxDone>
     9d6:	81 e0       	ldi	r24, 0x01	; 1
     9d8:	80 93 45 0a 	sts	0x0A45, r24	; 0x800a45 <__TEXT_REGION_LENGTH__+0x700a45>
     9dc:	80 e0       	ldi	r24, 0x00	; 0
     9de:	08 95       	ret
     9e0:	81 e0       	ldi	r24, 0x01	; 1
     9e2:	08 95       	ret

000009e4 <SerSpeed>:
     9e4:	28 2f       	mov	r18, r24
     9e6:	81 11       	cpse	r24, r1
     9e8:	01 c0       	rjmp	.+2      	; 0x9ec <SerSpeed+0x8>
     9ea:	21 e0       	ldi	r18, 0x01	; 1
     9ec:	8f ef       	ldi	r24, 0xFF	; 255
     9ee:	90 e0       	ldi	r25, 0x00	; 0
     9f0:	82 1b       	sub	r24, r18
     9f2:	91 09       	sbc	r25, r1
     9f4:	98 2f       	mov	r25, r24
     9f6:	88 27       	eor	r24, r24
     9f8:	81 50       	subi	r24, 0x01	; 1
     9fa:	9f 4f       	sbci	r25, 0xFF	; 255
     9fc:	80 93 4c 0a 	sts	0x0A4C, r24	; 0x800a4c <__TEXT_REGION_LENGTH__+0x700a4c>
     a00:	90 93 4d 0a 	sts	0x0A4D, r25	; 0x800a4d <__TEXT_REGION_LENGTH__+0x700a4d>
     a04:	08 95       	ret

00000a06 <CheckButtons>:
};

// Returns button combination (4LSB) and number of consecutive times this combination is detected. First read should always be ignored! 
uint8_t CheckButtons(uint8_t previousValue){
    uint8_t bADC = (uint8_t)(adcBtns>>4);
     a06:	20 91 e5 3a 	lds	r18, 0x3AE5	; 0x803ae5 <adcBtns>
     a0a:	30 91 e6 3a 	lds	r19, 0x3AE6	; 0x803ae6 <adcBtns+0x1>
    uint8_t bNibble = 0x0F;     //MSB to LSB: Bottom left, top left, top right, bottom right, 0F is error
    
    switch(bADC){
     a0e:	94 e0       	ldi	r25, 0x04	; 4
     a10:	36 95       	lsr	r19
     a12:	27 95       	ror	r18
     a14:	9a 95       	dec	r25
     a16:	e1 f7       	brne	.-8      	; 0xa10 <CheckButtons+0xa>
     a18:	33 27       	eor	r19, r19
     a1a:	2c 35       	cpi	r18, 0x5C	; 92
     a1c:	31 05       	cpc	r19, r1
     a1e:	d0 f4       	brcc	.+52     	; 0xa54 <CheckButtons+0x4e>
     a20:	23 35       	cpi	r18, 0x53	; 83
     a22:	31 05       	cpc	r19, r1
     a24:	a8 f5       	brcc	.+106    	; 0xa90 <CheckButtons+0x8a>
     a26:	22 33       	cpi	r18, 0x32	; 50
     a28:	31 05       	cpc	r19, r1
     a2a:	50 f4       	brcc	.+20     	; 0xa40 <CheckButtons+0x3a>
     a2c:	2d 32       	cpi	r18, 0x2D	; 45
     a2e:	31 05       	cpc	r19, r1
     a30:	58 f5       	brcc	.+86     	; 0xa88 <CheckButtons+0x82>
     a32:	23 52       	subi	r18, 0x23	; 35
     a34:	31 09       	sbc	r19, r1
     a36:	25 30       	cpi	r18, 0x05	; 5
     a38:	31 05       	cpc	r19, r1
     a3a:	80 f5       	brcc	.+96     	; 0xa9c <CheckButtons+0x96>
        case 28 ... 32:         //30: All buttons pressed
        bNibble = 0b1111;
        break;

        case 35 ... 39:          //37: Both left
        bNibble = 0b1100;
     a3c:	9c e0       	ldi	r25, 0x0C	; 12
     a3e:	2f c0       	rjmp	.+94     	; 0xa9e <CheckButtons+0x98>
// Returns button combination (4LSB) and number of consecutive times this combination is detected. First read should always be ignored! 
uint8_t CheckButtons(uint8_t previousValue){
    uint8_t bADC = (uint8_t)(adcBtns>>4);
    uint8_t bNibble = 0x0F;     //MSB to LSB: Bottom left, top left, top right, bottom right, 0F is error
    
    switch(bADC){
     a40:	27 33       	cpi	r18, 0x37	; 55
     a42:	31 05       	cpc	r19, r1
     a44:	18 f1       	brcs	.+70     	; 0xa8c <CheckButtons+0x86>
     a46:	2e 53       	subi	r18, 0x3E	; 62
     a48:	31 09       	sbc	r19, r1
     a4a:	27 30       	cpi	r18, 0x07	; 7
     a4c:	31 05       	cpc	r19, r1
     a4e:	30 f5       	brcc	.+76     	; 0xa9c <CheckButtons+0x96>
        case 50 ... 54:          //52: Bottom left
        bNibble = 0b1000;
        break;

        case 62 ... 68:          //65: Both top
        bNibble = 0b0110;
     a50:	96 e0       	ldi	r25, 0x06	; 6
        break;
     a52:	25 c0       	rjmp	.+74     	; 0xa9e <CheckButtons+0x98>
// Returns button combination (4LSB) and number of consecutive times this combination is detected. First read should always be ignored! 
uint8_t CheckButtons(uint8_t previousValue){
    uint8_t bADC = (uint8_t)(adcBtns>>4);
    uint8_t bNibble = 0x0F;     //MSB to LSB: Bottom left, top left, top right, bottom right, 0F is error
    
    switch(bADC){
     a54:	2a 38       	cpi	r18, 0x8A	; 138
     a56:	31 05       	cpc	r19, r1
     a58:	50 f4       	brcc	.+20     	; 0xa6e <CheckButtons+0x68>
     a5a:	29 37       	cpi	r18, 0x79	; 121
     a5c:	31 05       	cpc	r19, r1
     a5e:	d0 f4       	brcc	.+52     	; 0xa94 <CheckButtons+0x8e>
     a60:	23 56       	subi	r18, 0x63	; 99
     a62:	31 09       	sbc	r19, r1
     a64:	2b 30       	cpi	r18, 0x0B	; 11
     a66:	31 05       	cpc	r19, r1
     a68:	c8 f4       	brcc	.+50     	; 0xa9c <CheckButtons+0x96>
        case 83 ... 91:          //87: Top left
        bNibble = 0b0100;
        break;

        case 99 ... 109:         //104: Both right
        bNibble = 0b0011;
     a6a:	93 e0       	ldi	r25, 0x03	; 3
        break;
     a6c:	18 c0       	rjmp	.+48     	; 0xa9e <CheckButtons+0x98>
// Returns button combination (4LSB) and number of consecutive times this combination is detected. First read should always be ignored! 
uint8_t CheckButtons(uint8_t previousValue){
    uint8_t bADC = (uint8_t)(adcBtns>>4);
    uint8_t bNibble = 0x0F;     //MSB to LSB: Bottom left, top left, top right, bottom right, 0F is error
    
    switch(bADC){
     a6e:	22 3a       	cpi	r18, 0xA2	; 162
     a70:	31 05       	cpc	r19, r1
     a72:	a0 f0       	brcs	.+40     	; 0xa9c <CheckButtons+0x96>
     a74:	2b 3b       	cpi	r18, 0xBB	; 187
     a76:	31 05       	cpc	r19, r1
     a78:	78 f0       	brcs	.+30     	; 0xa98 <CheckButtons+0x92>
     a7a:	20 5f       	subi	r18, 0xF0	; 240
     a7c:	31 09       	sbc	r19, r1
     a7e:	20 31       	cpi	r18, 0x10	; 16
     a80:	31 05       	cpc	r19, r1
     a82:	60 f4       	brcc	.+24     	; 0xa9c <CheckButtons+0x96>
        case 162 ... 186:        //174: Bottom right
        bNibble = 0b0001;
        break;

        case 240 ... 255:        //255: No button pressed
        bNibble = 0b0000;
     a84:	90 e0       	ldi	r25, 0x00	; 0
        break;
     a86:	0b c0       	rjmp	.+22     	; 0xa9e <CheckButtons+0x98>
        case 35 ... 39:          //37: Both left
        bNibble = 0b1100;
        break;

        case 45 ... 49:          //47: Both bottom
        bNibble = 0b1001;
     a88:	99 e0       	ldi	r25, 0x09	; 9
        break;
     a8a:	09 c0       	rjmp	.+18     	; 0xa9e <CheckButtons+0x98>

        case 50 ... 54:          //52: Bottom left
        bNibble = 0b1000;
     a8c:	98 e0       	ldi	r25, 0x08	; 8
        break;
     a8e:	07 c0       	rjmp	.+14     	; 0xa9e <CheckButtons+0x98>
        case 62 ... 68:          //65: Both top
        bNibble = 0b0110;
        break;

        case 83 ... 91:          //87: Top left
        bNibble = 0b0100;
     a90:	94 e0       	ldi	r25, 0x04	; 4
        break;
     a92:	05 c0       	rjmp	.+10     	; 0xa9e <CheckButtons+0x98>
        case 99 ... 109:         //104: Both right
        bNibble = 0b0011;
        break;

        case 121 ... 137:        //129: Top right
        bNibble = 0b0010;
     a94:	92 e0       	ldi	r25, 0x02	; 2
        break;
     a96:	03 c0       	rjmp	.+6      	; 0xa9e <CheckButtons+0x98>

        case 162 ... 186:        //174: Bottom right
        bNibble = 0b0001;
     a98:	91 e0       	ldi	r25, 0x01	; 1
        break;
     a9a:	01 c0       	rjmp	.+2      	; 0xa9e <CheckButtons+0x98>
};

// Returns button combination (4LSB) and number of consecutive times this combination is detected. First read should always be ignored! 
uint8_t CheckButtons(uint8_t previousValue){
    uint8_t bADC = (uint8_t)(adcBtns>>4);
    uint8_t bNibble = 0x0F;     //MSB to LSB: Bottom left, top left, top right, bottom right, 0F is error
     a9c:	9f e0       	ldi	r25, 0x0F	; 15
        case 240 ... 255:        //255: No button pressed
        bNibble = 0b0000;
        break;
    }

    if ((previousValue&0x0F)==bNibble){
     a9e:	28 2f       	mov	r18, r24
     aa0:	2f 70       	andi	r18, 0x0F	; 15
     aa2:	92 13       	cpse	r25, r18
     aa4:	06 c0       	rjmp	.+12     	; 0xab2 <CheckButtons+0xac>
        if ((previousValue&0xF0) < 0xF0) previousValue += 0x10; //Same value? Increase time nibble
     aa6:	98 2f       	mov	r25, r24
     aa8:	90 7f       	andi	r25, 0xF0	; 240
     aaa:	90 3f       	cpi	r25, 0xF0	; 240
     aac:	39 f0       	breq	.+14     	; 0xabc <CheckButtons+0xb6>
     aae:	80 5f       	subi	r24, 0xF0	; 240
     ab0:	08 95       	ret
        return previousValue;       
    } else if (bNibble == 0) return 0xFF; //Buttons released, 0xFF triggers readout, previousValue holds last button value.
     ab2:	99 23       	and	r25, r25
     ab4:	11 f0       	breq	.+4      	; 0xaba <CheckButtons+0xb4>
     ab6:	89 2f       	mov	r24, r25
     ab8:	08 95       	ret
     aba:	8f ef       	ldi	r24, 0xFF	; 255
              else return bNibble;  //New value  
}
     abc:	08 95       	ret

00000abe <lfsr>:

uint8_t lfsr(){
    static uint16_t state = 0xd401;
    state ^= (state << 13);
     abe:	80 91 85 38 	lds	r24, 0x3885	; 0x803885 <state.3863>
     ac2:	90 91 86 38 	lds	r25, 0x3886	; 0x803886 <state.3863+0x1>
     ac6:	9c 01       	movw	r18, r24
     ac8:	32 2f       	mov	r19, r18
     aca:	22 27       	eor	r18, r18
     acc:	32 95       	swap	r19
     ace:	33 0f       	add	r19, r19
     ad0:	30 7e       	andi	r19, 0xE0	; 224
     ad2:	82 27       	eor	r24, r18
     ad4:	93 27       	eor	r25, r19
    state ^= (state >> 9);
     ad6:	9c 01       	movw	r18, r24
     ad8:	23 2f       	mov	r18, r19
     ada:	33 27       	eor	r19, r19
     adc:	26 95       	lsr	r18
     ade:	82 27       	eor	r24, r18
     ae0:	93 27       	eor	r25, r19
    state ^= (state << 7);
     ae2:	9c 01       	movw	r18, r24
     ae4:	36 95       	lsr	r19
     ae6:	32 2f       	mov	r19, r18
     ae8:	22 27       	eor	r18, r18
     aea:	37 95       	ror	r19
     aec:	27 95       	ror	r18
     aee:	82 27       	eor	r24, r18
     af0:	93 27       	eor	r25, r19
     af2:	80 93 85 38 	sts	0x3885, r24	; 0x803885 <state.3863>
     af6:	90 93 86 38 	sts	0x3886, r25	; 0x803886 <state.3863+0x1>
    return (state & 0xff);
}
     afa:	08 95       	ret

00000afc <floatSpeed>:

void floatSpeed(uint8_t bits, uint16_t min, uint16_t max){
     afc:	df 92       	push	r13
     afe:	ef 92       	push	r14
     b00:	ff 92       	push	r15
     b02:	0f 93       	push	r16
     b04:	1f 93       	push	r17
     b06:	cf 93       	push	r28
     b08:	df 93       	push	r29
     b0a:	7b 01       	movw	r14, r22
     b0c:	8a 01       	movw	r16, r20
    uint16_t val = TCB1_CCMP;
     b0e:	c0 91 5c 0a 	lds	r28, 0x0A5C	; 0x800a5c <__TEXT_REGION_LENGTH__+0x700a5c>
     b12:	d0 91 5d 0a 	lds	r29, 0x0A5D	; 0x800a5d <__TEXT_REGION_LENGTH__+0x700a5d>
    bits = mask[(bits-1)&0x07];
     b16:	e8 2f       	mov	r30, r24
     b18:	f0 e0       	ldi	r31, 0x00	; 0
     b1a:	31 97       	sbiw	r30, 0x01	; 1
     b1c:	e7 70       	andi	r30, 0x07	; 7
     b1e:	ff 27       	eor	r31, r31
     b20:	e9 57       	subi	r30, 0x79	; 121
     b22:	f7 4c       	sbci	r31, 0xC7	; 199
     b24:	d0 80       	ld	r13, Z
    val += (lfsr()&bits);
     b26:	cb df       	rcall	.-106    	; 0xabe <lfsr>
     b28:	8d 21       	and	r24, r13
     b2a:	c8 0f       	add	r28, r24
     b2c:	d1 1d       	adc	r29, r1
    val -= (lfsr()&bits);
     b2e:	c7 df       	rcall	.-114    	; 0xabe <lfsr>
     b30:	8d 21       	and	r24, r13
     b32:	c8 1b       	sub	r28, r24
     b34:	d1 09       	sbc	r29, r1
     b36:	0c 17       	cp	r16, r28
     b38:	1d 07       	cpc	r17, r29
     b3a:	08 f4       	brcc	.+2      	; 0xb3e <floatSpeed+0x42>
     b3c:	e8 01       	movw	r28, r16
     b3e:	c7 01       	movw	r24, r14
     b40:	ec 16       	cp	r14, r28
     b42:	fd 06       	cpc	r15, r29
     b44:	08 f4       	brcc	.+2      	; 0xb48 <floatSpeed+0x4c>
     b46:	ce 01       	movw	r24, r28
     b48:	80 93 5c 0a 	sts	0x0A5C, r24	; 0x800a5c <__TEXT_REGION_LENGTH__+0x700a5c>
    if (val > max) val = max;    //0x038B is normal rate, for wind we need to be a bit slower
    if (val < min) val = min;  
    TCB1_CCMP = val;
     b4c:	90 93 5d 0a 	sts	0x0A5D, r25	; 0x800a5d <__TEXT_REGION_LENGTH__+0x700a5d>
     b50:	df 91       	pop	r29
}
     b52:	cf 91       	pop	r28
     b54:	1f 91       	pop	r17
     b56:	0f 91       	pop	r16
     b58:	ff 90       	pop	r15
     b5a:	ef 90       	pop	r14
     b5c:	df 90       	pop	r13
     b5e:	08 95       	ret

00000b60 <floatAround>:
     b60:	0f 93       	push	r16

uint8_t floatAround(uint8_t sample, uint8_t bits, uint8_t min, uint8_t max){
     b62:	1f 93       	push	r17
     b64:	cf 93       	push	r28
     b66:	df 93       	push	r29
     b68:	c8 2f       	mov	r28, r24
     b6a:	04 2f       	mov	r16, r20
     b6c:	12 2f       	mov	r17, r18
    bits = mask[(bits-1)&0x07];
     b6e:	e6 2f       	mov	r30, r22
     b70:	f0 e0       	ldi	r31, 0x00	; 0
     b72:	31 97       	sbiw	r30, 0x01	; 1
     b74:	e7 70       	andi	r30, 0x07	; 7
     b76:	ff 27       	eor	r31, r31
     b78:	e9 57       	subi	r30, 0x79	; 121
     b7a:	f7 4c       	sbci	r31, 0xC7	; 199
     b7c:	d0 81       	ld	r29, Z
    sample += lfsr()&bits;
     b7e:	9f df       	rcall	.-194    	; 0xabe <lfsr>
     b80:	8d 23       	and	r24, r29
     b82:	c8 0f       	add	r28, r24
    sample -= lfsr()&bits;
     b84:	9c df       	rcall	.-200    	; 0xabe <lfsr>
     b86:	8d 23       	and	r24, r29
     b88:	c8 1b       	sub	r28, r24
     b8a:	8c 2f       	mov	r24, r28
     b8c:	11 23       	and	r17, r17
    if (max){
     b8e:	41 f0       	breq	.+16     	; 0xba0 <floatAround+0x40>
     b90:	9c 2f       	mov	r25, r28
     b92:	1c 17       	cp	r17, r28
     b94:	08 f4       	brcc	.+2      	; 0xb98 <floatAround+0x38>
     b96:	91 2f       	mov	r25, r17
     b98:	80 2f       	mov	r24, r16
     b9a:	09 17       	cp	r16, r25
     b9c:	08 f4       	brcc	.+2      	; 0xba0 <floatAround+0x40>
     b9e:	89 2f       	mov	r24, r25
     ba0:	df 91       	pop	r29
        if (sample > max) sample = max;
        if (sample < min) sample = min;
    }
    return sample;
}
     ba2:	cf 91       	pop	r28
     ba4:	1f 91       	pop	r17
     ba6:	0f 91       	pop	r16
     ba8:	08 95       	ret

00000baa <SaveGameState>:
     baa:	cf 92       	push	r12

//Save changed data to EEPROM
uint8_t SaveGameState(){
     bac:	df 92       	push	r13
     bae:	ff 92       	push	r15
     bb0:	0f 93       	push	r16
     bb2:	1f 93       	push	r17
     bb4:	cf 93       	push	r28
     bb6:	df 93       	push	r29
     bb8:	cd b7       	in	r28, 0x3d	; 61
     bba:	de b7       	in	r29, 0x3e	; 62
     bbc:	64 97       	sbiw	r28, 0x14	; 20
     bbe:	cd bf       	out	0x3d, r28	; 61
     bc0:	de bf       	out	0x3e, r29	; 62
    uint8_t gameCheck[BOOTCHK];

    //Read all data up to the boot/check result address from EEPROM
    EERead(0, &gameCheck[0], BOOTCHK);
     bc2:	44 e1       	ldi	r20, 0x14	; 20
     bc4:	be 01       	movw	r22, r28
     bc6:	6f 5f       	subi	r22, 0xFF	; 255
     bc8:	7f 4f       	sbci	r23, 0xFF	; 255
     bca:	80 e0       	ldi	r24, 0x00	; 0
     bcc:	c2 de       	rcall	.-636    	; 0x952 <EERead>
     bce:	8f e8       	ldi	r24, 0x8F	; 143
     bd0:	c8 2e       	mov	r12, r24
     bd2:	8a e3       	ldi	r24, 0x3A	; 58
     bd4:	d8 2e       	mov	r13, r24
     bd6:	8e 01       	movw	r16, r28
     bd8:	0f 5f       	subi	r16, 0xFF	; 255
     bda:	1f 4f       	sbci	r17, 0xFF	; 255

    //Check game status bits
    for (uint8_t x=0; x<STATLEN; ++x){
     bdc:	f1 2c       	mov	r15, r1
        if (gameState[x] != gameCheck[x]){
     bde:	f8 01       	movw	r30, r16
     be0:	81 91       	ld	r24, Z+
     be2:	8f 01       	movw	r16, r30
     be4:	f6 01       	movw	r30, r12
     be6:	90 81       	ld	r25, Z
     be8:	98 13       	cpse	r25, r24
     bea:	08 c0       	rjmp	.+16     	; 0xbfc <SaveGameState+0x52>

    //Read all data up to the boot/check result address from EEPROM
    EERead(0, &gameCheck[0], BOOTCHK);

    //Check game status bits
    for (uint8_t x=0; x<STATLEN; ++x){
     bec:	f3 94       	inc	r15
     bee:	ff ef       	ldi	r31, 0xFF	; 255
     bf0:	cf 1a       	sub	r12, r31
     bf2:	df 0a       	sbc	r13, r31
     bf4:	80 e1       	ldi	r24, 0x10	; 16
     bf6:	f8 12       	cpse	r15, r24
     bf8:	f2 cf       	rjmp	.-28     	; 0xbde <SaveGameState+0x34>
     bfa:	08 c0       	rjmp	.+16     	; 0xc0c <SaveGameState+0x62>
        if (gameState[x] != gameCheck[x]){
            if (EEWrite(x, &gameState[x], 1)) return 1;
     bfc:	41 e0       	ldi	r20, 0x01	; 1
     bfe:	b6 01       	movw	r22, r12
     c00:	8f 2d       	mov	r24, r15
     c02:	b7 de       	rcall	.-658    	; 0x972 <EEWrite>
     c04:	88 23       	and	r24, r24
     c06:	91 f3       	breq	.-28     	; 0xbec <SaveGameState+0x42>
     c08:	91 e0       	ldi	r25, 0x01	; 1
     c0a:	36 c0       	rjmp	.+108    	; 0xc78 <SaveGameState+0xce>
        }
    }

    //Check the inventory too
    gameState[INVADDR] = (uint8_t)(inventory[0]>>8);
     c0c:	20 91 96 38 	lds	r18, 0x3896	; 0x803896 <inventory>
     c10:	30 91 97 38 	lds	r19, 0x3897	; 0x803897 <inventory+0x1>
     c14:	30 93 9f 3a 	sts	0x3A9F, r19	; 0x803a9f <gameState+0x10>
    gameState[INVADDR+1] = (uint8_t)(inventory[0]&0xff);
     c18:	20 93 a0 3a 	sts	0x3AA0, r18	; 0x803aa0 <gameState+0x11>
    gameState[INVADDR+2] = (uint8_t)(inventory[1]>>8);
     c1c:	80 91 98 38 	lds	r24, 0x3898	; 0x803898 <inventory+0x2>
     c20:	90 91 99 38 	lds	r25, 0x3899	; 0x803899 <inventory+0x3>
     c24:	90 93 a1 3a 	sts	0x3AA1, r25	; 0x803aa1 <gameState+0x12>
    gameState[INVADDR+3] = (uint8_t)(inventory[1]&0xff);
     c28:	80 93 a2 3a 	sts	0x3AA2, r24	; 0x803aa2 <gameState+0x13>
    if (inventory[0] != (gameCheck[INVADDR]<<8|gameCheck[INVADDR+1])) {
     c2c:	89 89       	ldd	r24, Y+17	; 0x11
     c2e:	9a 89       	ldd	r25, Y+18	; 0x12
     c30:	98 27       	eor	r25, r24
     c32:	89 27       	eor	r24, r25
     c34:	98 27       	eor	r25, r24
     c36:	28 17       	cp	r18, r24
     c38:	39 07       	cpc	r19, r25
     c3a:	69 f4       	brne	.+26     	; 0xc56 <SaveGameState+0xac>
        if (EEWrite(INVADDR, &gameState[INVADDR], 2)) return 1;
    }
    if (inventory[1] != (gameCheck[INVADDR+2]<<8|gameCheck[INVADDR+3])) {
     c3c:	8b 89       	ldd	r24, Y+19	; 0x13
     c3e:	9c 89       	ldd	r25, Y+20	; 0x14
     c40:	98 27       	eor	r25, r24
     c42:	89 27       	eor	r24, r25
     c44:	98 27       	eor	r25, r24
     c46:	20 91 98 38 	lds	r18, 0x3898	; 0x803898 <inventory+0x2>
     c4a:	30 91 99 38 	lds	r19, 0x3899	; 0x803899 <inventory+0x3>
     c4e:	28 17       	cp	r18, r24
     c50:	39 07       	cpc	r19, r25
     c52:	49 f4       	brne	.+18     	; 0xc66 <SaveGameState+0xbc>
     c54:	10 c0       	rjmp	.+32     	; 0xc76 <SaveGameState+0xcc>
    gameState[INVADDR] = (uint8_t)(inventory[0]>>8);
    gameState[INVADDR+1] = (uint8_t)(inventory[0]&0xff);
    gameState[INVADDR+2] = (uint8_t)(inventory[1]>>8);
    gameState[INVADDR+3] = (uint8_t)(inventory[1]&0xff);
    if (inventory[0] != (gameCheck[INVADDR]<<8|gameCheck[INVADDR+1])) {
        if (EEWrite(INVADDR, &gameState[INVADDR], 2)) return 1;
     c56:	42 e0       	ldi	r20, 0x02	; 2
     c58:	6f e9       	ldi	r22, 0x9F	; 159
     c5a:	7a e3       	ldi	r23, 0x3A	; 58
     c5c:	80 e1       	ldi	r24, 0x10	; 16
     c5e:	89 de       	rcall	.-750    	; 0x972 <EEWrite>
     c60:	88 23       	and	r24, r24
     c62:	61 f3       	breq	.-40     	; 0xc3c <SaveGameState+0x92>
     c64:	d1 cf       	rjmp	.-94     	; 0xc08 <SaveGameState+0x5e>
    }
    if (inventory[1] != (gameCheck[INVADDR+2]<<8|gameCheck[INVADDR+3])) {
        if (EEWrite(INVADDR+2, &gameState[INVADDR+2], 2)) return 1;
     c66:	42 e0       	ldi	r20, 0x02	; 2
     c68:	61 ea       	ldi	r22, 0xA1	; 161
     c6a:	7a e3       	ldi	r23, 0x3A	; 58
     c6c:	82 e1       	ldi	r24, 0x12	; 18
     c6e:	81 de       	rcall	.-766    	; 0x972 <EEWrite>
    EERead(0, &gameCheck[0], BOOTCHK);

    //Check game status bits
    for (uint8_t x=0; x<STATLEN; ++x){
        if (gameState[x] != gameCheck[x]){
            if (EEWrite(x, &gameState[x], 1)) return 1;
     c70:	91 e0       	ldi	r25, 0x01	; 1
     c72:	81 11       	cpse	r24, r1
     c74:	01 c0       	rjmp	.+2      	; 0xc78 <SaveGameState+0xce>
     c76:	90 e0       	ldi	r25, 0x00	; 0
    if (inventory[1] != (gameCheck[INVADDR+2]<<8|gameCheck[INVADDR+3])) {
        if (EEWrite(INVADDR+2, &gameState[INVADDR+2], 2)) return 1;
    }

    return 0;
}
     c78:	89 2f       	mov	r24, r25
     c7a:	64 96       	adiw	r28, 0x14	; 20
     c7c:	cd bf       	out	0x3d, r28	; 61
     c7e:	de bf       	out	0x3e, r29	; 62
     c80:	df 91       	pop	r29
     c82:	cf 91       	pop	r28
     c84:	1f 91       	pop	r17
     c86:	0f 91       	pop	r16
     c88:	ff 90       	pop	r15
     c8a:	df 90       	pop	r13
     c8c:	cf 90       	pop	r12
     c8e:	08 95       	ret

00000c90 <ReadStatusBit>:

uint8_t ReadStatusBit(uint8_t number){
    number &= 0x7f;
    if (gameState[number>>3] & (1<<(number&7))) return 1; else return 0;
     c90:	e8 2f       	mov	r30, r24
     c92:	ef 77       	andi	r30, 0x7F	; 127
     c94:	e6 95       	lsr	r30
     c96:	e6 95       	lsr	r30
     c98:	e6 95       	lsr	r30
     c9a:	f0 e0       	ldi	r31, 0x00	; 0
     c9c:	e1 57       	subi	r30, 0x71	; 113
     c9e:	f5 4c       	sbci	r31, 0xC5	; 197
     ca0:	20 81       	ld	r18, Z
     ca2:	30 e0       	ldi	r19, 0x00	; 0
     ca4:	87 70       	andi	r24, 0x07	; 7
     ca6:	a9 01       	movw	r20, r18
     ca8:	02 c0       	rjmp	.+4      	; 0xcae <ReadStatusBit+0x1e>
     caa:	55 95       	asr	r21
     cac:	47 95       	ror	r20
     cae:	8a 95       	dec	r24
     cb0:	e2 f7       	brpl	.-8      	; 0xcaa <ReadStatusBit+0x1a>
     cb2:	ca 01       	movw	r24, r20
}
     cb4:	81 70       	andi	r24, 0x01	; 1
     cb6:	08 95       	ret

00000cb8 <WriteStatusBit>:

void WriteStatusBit(uint8_t number, uint8_t state){
    number &= 0x7f;
     cb8:	e8 2f       	mov	r30, r24
     cba:	ef 77       	andi	r30, 0x7F	; 127
     cbc:	e6 95       	lsr	r30
     cbe:	e6 95       	lsr	r30
     cc0:	e6 95       	lsr	r30
     cc2:	28 2f       	mov	r18, r24
     cc4:	27 70       	andi	r18, 0x07	; 7
    if (state) gameState[number>>3] |= 1<<(number&7);
     cc6:	f0 e0       	ldi	r31, 0x00	; 0
     cc8:	e1 57       	subi	r30, 0x71	; 113
     cca:	f5 4c       	sbci	r31, 0xC5	; 197
     ccc:	81 e0       	ldi	r24, 0x01	; 1
     cce:	90 e0       	ldi	r25, 0x00	; 0
     cd0:	01 c0       	rjmp	.+2      	; 0xcd4 <WriteStatusBit+0x1c>
     cd2:	88 0f       	add	r24, r24
     cd4:	2a 95       	dec	r18
     cd6:	ea f7       	brpl	.-6      	; 0xcd2 <WriteStatusBit+0x1a>
     cd8:	66 23       	and	r22, r22
     cda:	19 f0       	breq	.+6      	; 0xce2 <WriteStatusBit+0x2a>
     cdc:	90 81       	ld	r25, Z
     cde:	89 2b       	or	r24, r25
     ce0:	03 c0       	rjmp	.+6      	; 0xce8 <WriteStatusBit+0x30>
    else gameState[number>>3] &= ~(1<<(number&7));
     ce2:	80 95       	com	r24
     ce4:	90 81       	ld	r25, Z
     ce6:	89 23       	and	r24, r25
     ce8:	80 83       	st	Z, r24
     cea:	08 95       	ret

00000cec <getID>:

uint8_t getID(){
    //Give out a number 0..3, calculated using serial number fields
    uint8_t id = 0;
    uint8_t *serNum;
    serNum = (uint8_t*)&SIGROW_SERNUM0;
     cec:	e3 e0       	ldi	r30, 0x03	; 3
     cee:	f1 e1       	ldi	r31, 0x11	; 17
    else gameState[number>>3] &= ~(1<<(number&7));
}

uint8_t getID(){
    //Give out a number 0..3, calculated using serial number fields
    uint8_t id = 0;
     cf0:	80 e0       	ldi	r24, 0x00	; 0
    uint8_t *serNum;
    serNum = (uint8_t*)&SIGROW_SERNUM0;

    for (uint8_t x=0; x<10; ++x){
        id += *serNum;
     cf2:	91 91       	ld	r25, Z+
     cf4:	89 0f       	add	r24, r25
    //Give out a number 0..3, calculated using serial number fields
    uint8_t id = 0;
    uint8_t *serNum;
    serNum = (uint8_t*)&SIGROW_SERNUM0;

    for (uint8_t x=0; x<10; ++x){
     cf6:	ed 30       	cpi	r30, 0x0D	; 13
     cf8:	91 e1       	ldi	r25, 0x11	; 17
     cfa:	f9 07       	cpc	r31, r25
     cfc:	d1 f7       	brne	.-12     	; 0xcf2 <getID+0x6>
        id += *serNum;
        ++serNum;
    }
    id %= 4;
    whoami = id+1;
     cfe:	83 70       	andi	r24, 0x03	; 3
     d00:	8f 5f       	subi	r24, 0xFF	; 255
     d02:	80 93 95 38 	sts	0x3895, r24	; 0x803895 <whoami>
    return whoami;
}
     d06:	08 95       	ret

00000d08 <Reset>:

void Reset(){
     d08:	ef e8       	ldi	r30, 0x8F	; 143
     d0a:	fa e3       	ldi	r31, 0x3A	; 58
    //# 110   set to 1 by FW if badge UUID mod 4 == 0
    //# 111   set to 1 by FW if badge UUID mod 4 == 1
    //# 112   set to 1 by FW if badge UUID mod 4 == 2
    //# 113   set to 1 by FW if badge UUID mod 4 == 3
    for (uint8_t x=0; x<sizeof(gameState); ++x){
        gameState[x] = 0;
     d0c:	11 92       	st	Z+, r1
    //Reset game progress (all zeroes) and load some bits:
    //# 110   set to 1 by FW if badge UUID mod 4 == 0
    //# 111   set to 1 by FW if badge UUID mod 4 == 1
    //# 112   set to 1 by FW if badge UUID mod 4 == 2
    //# 113   set to 1 by FW if badge UUID mod 4 == 3
    for (uint8_t x=0; x<sizeof(gameState); ++x){
     d0e:	8a e3       	ldi	r24, 0x3A	; 58
     d10:	e3 3a       	cpi	r30, 0xA3	; 163
     d12:	f8 07       	cpc	r31, r24
     d14:	d9 f7       	brne	.-10     	; 0xd0c <Reset+0x4>
        gameState[x] = 0;
    }

    uint8_t id = getID();
     d16:	ea df       	rcall	.-44     	; 0xcec <getID>

    //Write bit in gameState location 110..113
    if (id == 0) WriteStatusBit(110, 1);
     d18:	81 11       	cpse	r24, r1
     d1a:	04 c0       	rjmp	.+8      	; 0xd24 <Reset+0x1c>
    if (gameState[number>>3] & (1<<(number&7))) return 1; else return 0;
}

void WriteStatusBit(uint8_t number, uint8_t state){
    number &= 0x7f;
    if (state) gameState[number>>3] |= 1<<(number&7);
     d1c:	80 91 9c 3a 	lds	r24, 0x3A9C	; 0x803a9c <gameState+0xd>
     d20:	80 64       	ori	r24, 0x40	; 64
     d22:	05 c0       	rjmp	.+10     	; 0xd2e <Reset+0x26>

    uint8_t id = getID();

    //Write bit in gameState location 110..113
    if (id == 0) WriteStatusBit(110, 1);
    else if (id == 1) WriteStatusBit(111, 1);
     d24:	81 30       	cpi	r24, 0x01	; 1
     d26:	31 f4       	brne	.+12     	; 0xd34 <Reset+0x2c>
    if (gameState[number>>3] & (1<<(number&7))) return 1; else return 0;
}

void WriteStatusBit(uint8_t number, uint8_t state){
    number &= 0x7f;
    if (state) gameState[number>>3] |= 1<<(number&7);
     d28:	80 91 9c 3a 	lds	r24, 0x3A9C	; 0x803a9c <gameState+0xd>
     d2c:	80 68       	ori	r24, 0x80	; 128
     d2e:	80 93 9c 3a 	sts	0x3A9C, r24	; 0x803a9c <gameState+0xd>
     d32:	0d c0       	rjmp	.+26     	; 0xd4e <Reset+0x46>
    uint8_t id = getID();

    //Write bit in gameState location 110..113
    if (id == 0) WriteStatusBit(110, 1);
    else if (id == 1) WriteStatusBit(111, 1);
    else if (id == 2) WriteStatusBit(112, 1);
     d34:	82 30       	cpi	r24, 0x02	; 2
     d36:	21 f4       	brne	.+8      	; 0xd40 <Reset+0x38>
    if (gameState[number>>3] & (1<<(number&7))) return 1; else return 0;
}

void WriteStatusBit(uint8_t number, uint8_t state){
    number &= 0x7f;
    if (state) gameState[number>>3] |= 1<<(number&7);
     d38:	80 91 9d 3a 	lds	r24, 0x3A9D	; 0x803a9d <gameState+0xe>
     d3c:	81 60       	ori	r24, 0x01	; 1
     d3e:	05 c0       	rjmp	.+10     	; 0xd4a <Reset+0x42>

    //Write bit in gameState location 110..113
    if (id == 0) WriteStatusBit(110, 1);
    else if (id == 1) WriteStatusBit(111, 1);
    else if (id == 2) WriteStatusBit(112, 1);
    else if (id == 3) WriteStatusBit(113, 1);
     d40:	83 30       	cpi	r24, 0x03	; 3
     d42:	29 f4       	brne	.+10     	; 0xd4e <Reset+0x46>
    if (gameState[number>>3] & (1<<(number&7))) return 1; else return 0;
}

void WriteStatusBit(uint8_t number, uint8_t state){
    number &= 0x7f;
    if (state) gameState[number>>3] |= 1<<(number&7);
     d44:	80 91 9d 3a 	lds	r24, 0x3A9D	; 0x803a9d <gameState+0xe>
     d48:	82 60       	ori	r24, 0x02	; 2
     d4a:	80 93 9d 3a 	sts	0x3A9D, r24	; 0x803a9d <gameState+0xe>
     d4e:	80 91 8f 3a 	lds	r24, 0x3A8F	; 0x803a8f <gameState>
     d52:	81 60       	ori	r24, 0x01	; 1
     d54:	80 93 8f 3a 	sts	0x3A8F, r24	; 0x803a8f <gameState>
     d58:	08 95       	ret

00000d5a <GenerateAudio>:
    WriteStatusBit(0, 1);
}

//void setupSound(uint8_t number){

void GenerateAudio(){
     d5a:	0f 93       	push	r16
     d5c:	1f 93       	push	r17
     d5e:	cf 93       	push	r28
     d60:	df 93       	push	r29
    static uint8_t auBuffer[128] = {0x80, 0};
    //auRepAddr = &auBuffer[0];

    //Audio for text adventure
    if ((effect&0xff00)==0) {
     d62:	80 91 93 38 	lds	r24, 0x3893	; 0x803893 <effect>
     d66:	90 91 94 38 	lds	r25, 0x3894	; 0x803894 <effect+0x1>
     d6a:	88 27       	eor	r24, r24
     d6c:	89 2b       	or	r24, r25
     d6e:	09 f0       	breq	.+2      	; 0xd72 <GenerateAudio+0x18>
     d70:	65 c0       	rjmp	.+202    	; 0xe3c <GenerateAudio+0xe2>

        //Silence
        if ((effect&0xE0)==0){
     d72:	80 91 93 38 	lds	r24, 0x3893	; 0x803893 <effect>
     d76:	90 91 94 38 	lds	r25, 0x3894	; 0x803894 <effect+0x1>
     d7a:	80 7e       	andi	r24, 0xE0	; 224
     d7c:	99 27       	eor	r25, r25
     d7e:	89 2b       	or	r24, r25
     d80:	31 f4       	brne	.+12     	; 0xd8e <GenerateAudio+0x34>
            auRepAddr = &zero;
     d82:	81 e9       	ldi	r24, 0x91	; 145
     d84:	98 e3       	ldi	r25, 0x38	; 56
     d86:	80 93 00 38 	sts	0x3800, r24	; 0x803800 <__data_start>
     d8a:	90 93 01 38 	sts	0x3801, r25	; 0x803801 <__data_start+0x1>
        }

        //Bad (buzzer)
        if ((effect&0xE0)==32){
     d8e:	80 91 93 38 	lds	r24, 0x3893	; 0x803893 <effect>
     d92:	90 91 94 38 	lds	r25, 0x3894	; 0x803894 <effect+0x1>

        }

        //Good (bell)
        if ((effect&0xE0)==64){
     d96:	80 91 93 38 	lds	r24, 0x3893	; 0x803893 <effect>
     d9a:	90 91 94 38 	lds	r25, 0x3894	; 0x803894 <effect+0x1>
            //auBuffer = 
        }

        //Rain storm with whistling wind
        if ((effect&0xE0)==96){
     d9e:	80 91 93 38 	lds	r24, 0x3893	; 0x803893 <effect>
     da2:	90 91 94 38 	lds	r25, 0x3894	; 0x803894 <effect+0x1>
     da6:	80 7e       	andi	r24, 0xE0	; 224
     da8:	99 27       	eor	r25, r25
     daa:	80 36       	cpi	r24, 0x60	; 96
     dac:	91 05       	cpc	r25, r1
     dae:	d1 f5       	brne	.+116    	; 0xe24 <GenerateAudio+0xca>
            auBuffer[6]= 0;        
     db0:	10 92 0b 38 	sts	0x380B, r1	; 0x80380b <auBuffer.3907+0x6>
            auRepAddr = &auBuffer[0];
     db4:	85 e0       	ldi	r24, 0x05	; 5
     db6:	98 e3       	ldi	r25, 0x38	; 56
     db8:	80 93 00 38 	sts	0x3800, r24	; 0x803800 <__data_start>
     dbc:	90 93 01 38 	sts	0x3801, r25	; 0x803801 <__data_start+0x1>
     dc0:	8c 01       	movw	r16, r24

            //Noise is to be generated fast, outside of buttonMark loop
            for (uint8_t x=1; x<6; ++x){
     dc2:	c1 e0       	ldi	r28, 0x01	; 1
                if (x%3) auBuffer[x] = floatAround(0x80, 5, 0x01, 0x00);
     dc4:	d3 e0       	ldi	r29, 0x03	; 3
     dc6:	8c 2f       	mov	r24, r28
     dc8:	6d 2f       	mov	r22, r29
     dca:	0e 94 ad 12 	call	0x255a	; 0x255a <__udivmodqi4>
     dce:	99 23       	and	r25, r25
     dd0:	39 f0       	breq	.+14     	; 0xde0 <GenerateAudio+0x86>
     dd2:	20 e0       	ldi	r18, 0x00	; 0
     dd4:	41 e0       	ldi	r20, 0x01	; 1
     dd6:	65 e0       	ldi	r22, 0x05	; 5
     dd8:	80 e8       	ldi	r24, 0x80	; 128
     dda:	c2 de       	rcall	.-636    	; 0xb60 <floatAround>
     ddc:	f8 01       	movw	r30, r16
     dde:	81 83       	std	Z+1, r24	; 0x01
        if ((effect&0xE0)==96){
            auBuffer[6]= 0;        
            auRepAddr = &auBuffer[0];

            //Noise is to be generated fast, outside of buttonMark loop
            for (uint8_t x=1; x<6; ++x){
     de0:	cf 5f       	subi	r28, 0xFF	; 255
     de2:	0f 5f       	subi	r16, 0xFF	; 255
     de4:	1f 4f       	sbci	r17, 0xFF	; 255
     de6:	c6 30       	cpi	r28, 0x06	; 6
     de8:	71 f7       	brne	.-36     	; 0xdc6 <GenerateAudio+0x6c>
                if (x%3) auBuffer[x] = floatAround(0x80, 5, 0x01, 0x00);
            }

            if (buttonMark){
     dea:	80 91 9a 38 	lds	r24, 0x389A	; 0x80389a <buttonMark>
     dee:	88 23       	and	r24, r24
     df0:	c9 f0       	breq	.+50     	; 0xe24 <GenerateAudio+0xca>
                //"Floating" speed for howl (and noise, but that's hardly audible)
                floatSpeed(5, 0x0280, 0x0400);
     df2:	40 e0       	ldi	r20, 0x00	; 0
     df4:	54 e0       	ldi	r21, 0x04	; 4
     df6:	60 e8       	ldi	r22, 0x80	; 128
     df8:	72 e0       	ldi	r23, 0x02	; 2
     dfa:	85 e0       	ldi	r24, 0x05	; 5
     dfc:	7f de       	rcall	.-770    	; 0xafc <floatSpeed>
            
                //"Floating" volume and wind howl during 8 bit rainstorm needs some randomness
                auVolume = floatAround(auVolume, 2, 0x10, 0xA0);
     dfe:	80 91 e4 3a 	lds	r24, 0x3AE4	; 0x803ae4 <auVolume>
     e02:	20 ea       	ldi	r18, 0xA0	; 160
     e04:	40 e1       	ldi	r20, 0x10	; 16
     e06:	62 e0       	ldi	r22, 0x02	; 2
     e08:	ab de       	rcall	.-682    	; 0xb60 <floatAround>
     e0a:	80 93 e4 3a 	sts	0x3AE4, r24	; 0x803ae4 <auVolume>
                auBuffer[0] = floatAround(auBuffer[0], 2, 0x70, 0x90);
     e0e:	20 e9       	ldi	r18, 0x90	; 144
     e10:	40 e7       	ldi	r20, 0x70	; 112
     e12:	62 e0       	ldi	r22, 0x02	; 2
     e14:	80 91 05 38 	lds	r24, 0x3805	; 0x803805 <auBuffer.3907>
     e18:	a3 de       	rcall	.-698    	; 0xb60 <floatAround>
     e1a:	80 93 05 38 	sts	0x3805, r24	; 0x803805 <auBuffer.3907>
                auBuffer[3] = 0xFF-auBuffer[0];  //Inverse value of wind[0] produces a whistle
     e1e:	80 95       	com	r24
     e20:	80 93 08 38 	sts	0x3808, r24	; 0x803808 <auBuffer.3907+0x3>
            }
        }

        //Footsteps
        if ((effect&0xE0)==128){
     e24:	80 91 93 38 	lds	r24, 0x3893	; 0x803893 <effect>
     e28:	90 91 94 38 	lds	r25, 0x3894	; 0x803894 <effect+0x1>

        }

        //Knocking
        if ((effect&0xE0)==160){
     e2c:	80 91 93 38 	lds	r24, 0x3893	; 0x803893 <effect>
     e30:	90 91 94 38 	lds	r25, 0x3894	; 0x803894 <effect+0x1>

        }

        //Scream
        if ((effect&0xE0)==192){
     e34:	80 91 93 38 	lds	r24, 0x3893	; 0x803893 <effect>
     e38:	90 91 94 38 	lds	r25, 0x3894	; 0x803894 <effect+0x1>

        //Rain storm with whistling wind
        else {
        }
    }
     e3c:	df 91       	pop	r29
     e3e:	cf 91       	pop	r28
     e40:	1f 91       	pop	r17
     e42:	0f 91       	pop	r16
     e44:	08 95       	ret

00000e46 <BastetDictates>:

// Main game loop
uint8_t BastetDictates(){
  
    return 0;
}
     e46:	80 e0       	ldi	r24, 0x00	; 0
     e48:	08 95       	ret

00000e4a <DecryptData>:

//
void SetResponse(uint8_t number, uint16_t address, uint16_t length, uint8_t type){
    reactStr[0][number]=address;
    reactStr[1][number]=length;
    reactStr[2][number]=type;
     e4a:	f9 01       	movw	r30, r18
     e4c:	9c 01       	movw	r18, r24
     e4e:	2e 1b       	sub	r18, r30
     e50:	3f 0b       	sbc	r19, r31
     e52:	88 e0       	ldi	r24, 0x08	; 8
     e54:	48 9f       	mul	r20, r24
     e56:	a0 01       	movw	r20, r0
     e58:	11 24       	eor	r1, r1
     e5a:	44 53       	subi	r20, 0x34	; 52
     e5c:	5a 45       	sbci	r21, 0x5A	; 90
     e5e:	66 23       	and	r22, r22
     e60:	69 f0       	breq	.+26     	; 0xe7c <DecryptData+0x32>
     e62:	df 01       	movw	r26, r30
     e64:	a2 0f       	add	r26, r18
     e66:	b3 1f       	adc	r27, r19
     e68:	a7 70       	andi	r26, 0x07	; 7
     e6a:	bb 27       	eor	r27, r27
     e6c:	a4 0f       	add	r26, r20
     e6e:	b5 1f       	adc	r27, r21
     e70:	80 81       	ld	r24, Z
     e72:	9c 91       	ld	r25, X
     e74:	98 27       	eor	r25, r24
     e76:	91 93       	st	Z+, r25
     e78:	61 50       	subi	r22, 0x01	; 1
     e7a:	f1 cf       	rjmp	.-30     	; 0xe5e <DecryptData+0x14>
     e7c:	08 95       	ret

00000e7e <UnflipData>:
     e7e:	26 2f       	mov	r18, r22
     e80:	fb 01       	movw	r30, r22
     e82:	35 e5       	ldi	r19, 0x55	; 85
     e84:	9e 2f       	mov	r25, r30
     e86:	92 1b       	sub	r25, r18
     e88:	98 17       	cp	r25, r24
     e8a:	28 f4       	brcc	.+10     	; 0xe96 <UnflipData+0x18>
     e8c:	90 81       	ld	r25, Z
     e8e:	92 95       	swap	r25
     e90:	93 27       	eor	r25, r19
     e92:	91 93       	st	Z+, r25
     e94:	f7 cf       	rjmp	.-18     	; 0xe84 <UnflipData+0x6>
     e96:	08 95       	ret

00000e98 <ExtEERead>:
     e98:	af 92       	push	r10
     e9a:	bf 92       	push	r11
     e9c:	cf 92       	push	r12
     e9e:	df 92       	push	r13
     ea0:	ef 92       	push	r14
     ea2:	ff 92       	push	r15
     ea4:	0f 93       	push	r16
     ea6:	1f 93       	push	r17
     ea8:	cf 93       	push	r28
     eaa:	df 93       	push	r29
     eac:	00 d0       	rcall	.+0      	; 0xeae <ExtEERead+0x16>
     eae:	cd b7       	in	r28, 0x3d	; 61
     eb0:	de b7       	in	r29, 0x3e	; 62
     eb2:	d6 2e       	mov	r13, r22
     eb4:	c4 2e       	mov	r12, r20
     eb6:	59 01       	movw	r10, r18
     eb8:	7c 01       	movw	r14, r24
     eba:	e8 94       	clt
     ebc:	f7 f8       	bld	r15, 7
     ebe:	f9 82       	std	Y+1, r15	; 0x01
     ec0:	ea 82       	std	Y+2, r14	; 0x02
     ec2:	06 2f       	mov	r16, r22
     ec4:	42 e0       	ldi	r20, 0x02	; 2
     ec6:	be 01       	movw	r22, r28
     ec8:	6f 5f       	subi	r22, 0xFF	; 255
     eca:	7f 4f       	sbci	r23, 0xFF	; 255
     ecc:	80 e5       	ldi	r24, 0x50	; 80
     ece:	f2 d9       	rcall	.-3100   	; 0x2b4 <I2C_read_bytes>
     ed0:	18 2f       	mov	r17, r24
     ed2:	81 11       	cpse	r24, r1
     ed4:	05 c0       	rjmp	.+10     	; 0xee0 <ExtEERead+0x48>
     ed6:	95 01       	movw	r18, r10
     ed8:	4c 2d       	mov	r20, r12
     eda:	6d 2d       	mov	r22, r13
     edc:	c7 01       	movw	r24, r14
     ede:	b5 df       	rcall	.-150    	; 0xe4a <DecryptData>
     ee0:	81 2f       	mov	r24, r17
     ee2:	0f 90       	pop	r0
     ee4:	0f 90       	pop	r0
     ee6:	df 91       	pop	r29
     ee8:	cf 91       	pop	r28
     eea:	1f 91       	pop	r17
     eec:	0f 91       	pop	r16
     eee:	ff 90       	pop	r15
     ef0:	ef 90       	pop	r14
     ef2:	df 90       	pop	r13
     ef4:	cf 90       	pop	r12
     ef6:	bf 90       	pop	r11
     ef8:	af 90       	pop	r10
     efa:	08 95       	ret

00000efc <ClearTxAfter>:
     efc:	8f 5f       	subi	r24, 0xFF	; 255
     efe:	88 30       	cpi	r24, 0x08	; 8
     f00:	30 f4       	brcc	.+12     	; 0xf0e <ClearTxAfter+0x12>
     f02:	e8 2f       	mov	r30, r24
     f04:	f0 e0       	ldi	r31, 0x00	; 0
     f06:	eb 58       	subi	r30, 0x8B	; 139
     f08:	f5 4c       	sbci	r31, 0xC5	; 197
     f0a:	10 82       	st	Z, r1
     f0c:	f7 cf       	rjmp	.-18     	; 0xefc <ClearTxAfter>
     f0e:	08 95       	ret

00000f10 <StartsWith>:
     f10:	ac 01       	movw	r20, r24
     f12:	90 e0       	ldi	r25, 0x00	; 0
     f14:	e9 2f       	mov	r30, r25
     f16:	f0 e0       	ldi	r31, 0x00	; 0
     f18:	da 01       	movw	r26, r20
     f1a:	ae 0f       	add	r26, r30
     f1c:	bf 1f       	adc	r27, r31
     f1e:	3c 91       	ld	r19, X
     f20:	e6 0f       	add	r30, r22
     f22:	f7 1f       	adc	r31, r23
     f24:	31 11       	cpse	r19, r1
     f26:	05 c0       	rjmp	.+10     	; 0xf32 <StartsWith+0x22>
     f28:	81 e0       	ldi	r24, 0x01	; 1
     f2a:	90 81       	ld	r25, Z
     f2c:	99 23       	and	r25, r25
     f2e:	49 f0       	breq	.+18     	; 0xf42 <StartsWith+0x32>
     f30:	07 c0       	rjmp	.+14     	; 0xf40 <StartsWith+0x30>
     f32:	20 81       	ld	r18, Z
     f34:	22 23       	and	r18, r18
     f36:	c1 f3       	breq	.-16     	; 0xf28 <StartsWith+0x18>
     f38:	32 13       	cpse	r19, r18
     f3a:	02 c0       	rjmp	.+4      	; 0xf40 <StartsWith+0x30>
     f3c:	9f 5f       	subi	r25, 0xFF	; 255
     f3e:	ea cf       	rjmp	.-44     	; 0xf14 <StartsWith+0x4>
     f40:	80 e0       	ldi	r24, 0x00	; 0
     f42:	08 95       	ret

00000f44 <PrepareSending>:
     f44:	61 15       	cp	r22, r1
     f46:	71 05       	cpc	r23, r1
     f48:	51 f1       	breq	.+84     	; 0xf9e <PrepareSending+0x5a>
     f4a:	ed e7       	ldi	r30, 0x7D	; 125
     f4c:	fa e3       	ldi	r31, 0x3A	; 58
     f4e:	a5 e7       	ldi	r26, 0x75	; 117
     f50:	ba e3       	ldi	r27, 0x3A	; 58
     f52:	20 e0       	ldi	r18, 0x00	; 0
     f54:	3f ef       	ldi	r19, 0xFF	; 255
     f56:	6f 3f       	cpi	r22, 0xFF	; 255
     f58:	71 05       	cpc	r23, r1
     f5a:	69 f0       	breq	.+26     	; 0xf76 <PrepareSending+0x32>
     f5c:	60 f0       	brcs	.+24     	; 0xf76 <PrepareSending+0x32>
     f5e:	81 93       	st	Z+, r24
     f60:	91 93       	st	Z+, r25
     f62:	3d 93       	st	X+, r19
     f64:	81 50       	subi	r24, 0x01	; 1
     f66:	9f 4f       	sbci	r25, 0xFF	; 255
     f68:	6f 5f       	subi	r22, 0xFF	; 255
     f6a:	71 09       	sbc	r23, r1
     f6c:	2f 5f       	subi	r18, 0xFF	; 255
     f6e:	27 30       	cpi	r18, 0x07	; 7
     f70:	91 f7       	brne	.-28     	; 0xf56 <PrepareSending+0x12>
     f72:	81 e0       	ldi	r24, 0x01	; 1
     f74:	08 95       	ret
     f76:	e2 2f       	mov	r30, r18
     f78:	f0 e0       	ldi	r31, 0x00	; 0
     f7a:	df 01       	movw	r26, r30
     f7c:	aa 0f       	add	r26, r26
     f7e:	bb 1f       	adc	r27, r27
     f80:	a3 58       	subi	r26, 0x83	; 131
     f82:	b5 4c       	sbci	r27, 0xC5	; 197
     f84:	8d 93       	st	X+, r24
     f86:	9c 93       	st	X, r25
     f88:	eb 58       	subi	r30, 0x8B	; 139
     f8a:	f5 4c       	sbci	r31, 0xC5	; 197
     f8c:	cb 01       	movw	r24, r22
     f8e:	6f ef       	ldi	r22, 0xFF	; 255
     f90:	70 e0       	ldi	r23, 0x00	; 0
     f92:	0e 94 b9 12 	call	0x2572	; 0x2572 <__udivmodhi4>
     f96:	80 83       	st	Z, r24
     f98:	40 93 73 3a 	sts	0x3A73, r20	; 0x803a73 <txTypeNow>
     f9c:	05 c0       	rjmp	.+10     	; 0xfa8 <PrepareSending+0x64>
     f9e:	10 92 7d 3a 	sts	0x3A7D, r1	; 0x803a7d <txAddrList>
     fa2:	10 92 7e 3a 	sts	0x3A7E, r1	; 0x803a7e <txAddrList+0x1>
     fa6:	20 e0       	ldi	r18, 0x00	; 0
     fa8:	82 2f       	mov	r24, r18
     faa:	a8 df       	rcall	.-176    	; 0xefc <ClearTxAfter>
     fac:	10 92 74 3a 	sts	0x3A74, r1	; 0x803a74 <txAddrNow>
     fb0:	80 e0       	ldi	r24, 0x00	; 0
     fb2:	08 95       	ret

00000fb4 <SetStandardResponse>:
}

//
uint8_t SetStandardResponse(uint8_t custStrEnd){
     fb4:	cf 93       	push	r28
     fb6:	df 93       	push	r29
    return 0;
}

//
void SetResponse(uint8_t number, uint16_t address, uint16_t length, uint8_t type){
    reactStr[0][number]=address;
     fb8:	28 2f       	mov	r18, r24
     fba:	30 e0       	ldi	r19, 0x00	; 0
     fbc:	f9 01       	movw	r30, r18
     fbe:	ee 0f       	add	r30, r30
     fc0:	ff 1f       	adc	r31, r31
     fc2:	e8 5b       	subi	r30, 0xB8	; 184
     fc4:	f6 4c       	sbci	r31, 0xC6	; 198
     fc6:	ab e5       	ldi	r26, 0x5B	; 91
     fc8:	ba e7       	ldi	r27, 0x7A	; 122
     fca:	a0 83       	st	Z, r26
     fcc:	b1 83       	std	Z+1, r27	; 0x01
    reactStr[1][number]=length;
     fce:	f9 01       	movw	r30, r18
     fd0:	ee 0f       	add	r30, r30
     fd2:	ff 1f       	adc	r31, r31
     fd4:	e8 57       	subi	r30, 0x78	; 120
     fd6:	f6 4c       	sbci	r31, 0xC6	; 198
     fd8:	62 e0       	ldi	r22, 0x02	; 2
     fda:	70 e0       	ldi	r23, 0x00	; 0
     fdc:	60 83       	st	Z, r22
     fde:	71 83       	std	Z+1, r23	; 0x01
    reactStr[2][number]=type;
     fe0:	22 0f       	add	r18, r18
     fe2:	33 1f       	adc	r19, r19
     fe4:	f9 01       	movw	r30, r18
     fe6:	e8 53       	subi	r30, 0x38	; 56
     fe8:	f6 4c       	sbci	r31, 0xC6	; 198
     fea:	41 e0       	ldi	r20, 0x01	; 1
     fec:	50 e0       	ldi	r21, 0x00	; 0
     fee:	40 83       	st	Z, r20
     ff0:	51 83       	std	Z+1, r21	; 0x01
    return 0;
}

//
void SetResponse(uint8_t number, uint16_t address, uint16_t length, uint8_t type){
    reactStr[0][number]=address;
     ff2:	21 e0       	ldi	r18, 0x01	; 1
     ff4:	28 0f       	add	r18, r24
     ff6:	30 e0       	ldi	r19, 0x00	; 0
     ff8:	f9 01       	movw	r30, r18
     ffa:	ee 0f       	add	r30, r30
     ffc:	ff 1f       	adc	r31, r31
     ffe:	e8 5b       	subi	r30, 0xB8	; 184
    1000:	f6 4c       	sbci	r31, 0xC6	; 198
    1002:	c4 e6       	ldi	r28, 0x64	; 100
    1004:	da e7       	ldi	r29, 0x7A	; 122
    1006:	c0 83       	st	Z, r28
    1008:	d1 83       	std	Z+1, r29	; 0x01
    reactStr[1][number]=length;
    100a:	f9 01       	movw	r30, r18
    100c:	ee 0f       	add	r30, r30
    100e:	ff 1f       	adc	r31, r31
    1010:	e8 57       	subi	r30, 0x78	; 120
    1012:	f6 4c       	sbci	r31, 0xC6	; 198
    1014:	ca e0       	ldi	r28, 0x0A	; 10
    1016:	d0 e0       	ldi	r29, 0x00	; 0
    1018:	c0 83       	st	Z, r28
    101a:	d1 83       	std	Z+1, r29	; 0x01
    reactStr[2][number]=type;
    101c:	22 0f       	add	r18, r18
    101e:	33 1f       	adc	r19, r19
    1020:	f9 01       	movw	r30, r18
    1022:	e8 53       	subi	r30, 0x38	; 56
    1024:	f6 4c       	sbci	r31, 0xC6	; 198
    1026:	40 83       	st	Z, r20
    1028:	51 83       	std	Z+1, r21	; 0x01
uint8_t SetStandardResponse(uint8_t custStrEnd){

    SetResponse(custStrEnd++, A_LF, 2, TEASER);
    SetResponse(custStrEnd++, A_LOCATION, L_LOCATION, TEASER);
    //SetResponse(custStrEnd++, A_SPACE, L_SPACE, TEASER);
    reactStr[0][custStrEnd++] = CURR_LOC;
    102a:	e2 e0       	ldi	r30, 0x02	; 2
    102c:	e8 0f       	add	r30, r24
    102e:	f0 e0       	ldi	r31, 0x00	; 0
    1030:	ee 0f       	add	r30, r30
    1032:	ff 1f       	adc	r31, r31
    1034:	e8 5b       	subi	r30, 0xB8	; 184
    1036:	f6 4c       	sbci	r31, 0xC6	; 198
    1038:	20 ef       	ldi	r18, 0xF0	; 240
    103a:	3f ef       	ldi	r19, 0xFF	; 255
    103c:	20 83       	st	Z, r18
    103e:	31 83       	std	Z+1, r19	; 0x01
    return 0;
}

//
void SetResponse(uint8_t number, uint16_t address, uint16_t length, uint8_t type){
    reactStr[0][number]=address;
    1040:	23 e0       	ldi	r18, 0x03	; 3
    1042:	28 0f       	add	r18, r24
    1044:	30 e0       	ldi	r19, 0x00	; 0
    1046:	f9 01       	movw	r30, r18
    1048:	ee 0f       	add	r30, r30
    104a:	ff 1f       	adc	r31, r31
    104c:	e8 5b       	subi	r30, 0xB8	; 184
    104e:	f6 4c       	sbci	r31, 0xC6	; 198
    1050:	a0 83       	st	Z, r26
    1052:	b1 83       	std	Z+1, r27	; 0x01
    reactStr[1][number]=length;
    1054:	f9 01       	movw	r30, r18
    1056:	ee 0f       	add	r30, r30
    1058:	ff 1f       	adc	r31, r31
    105a:	e8 57       	subi	r30, 0x78	; 120
    105c:	f6 4c       	sbci	r31, 0xC6	; 198
    105e:	60 83       	st	Z, r22
    1060:	71 83       	std	Z+1, r23	; 0x01
    reactStr[2][number]=type;
    1062:	22 0f       	add	r18, r18
    1064:	33 1f       	adc	r19, r19
    1066:	f9 01       	movw	r30, r18
    1068:	e8 53       	subi	r30, 0x38	; 56
    106a:	f6 4c       	sbci	r31, 0xC6	; 198
    106c:	40 83       	st	Z, r20
    106e:	51 83       	std	Z+1, r21	; 0x01
    return 0;
}

//
void SetResponse(uint8_t number, uint16_t address, uint16_t length, uint8_t type){
    reactStr[0][number]=address;
    1070:	24 e0       	ldi	r18, 0x04	; 4
    1072:	28 0f       	add	r18, r24
    1074:	30 e0       	ldi	r19, 0x00	; 0
    1076:	f9 01       	movw	r30, r18
    1078:	ee 0f       	add	r30, r30
    107a:	ff 1f       	adc	r31, r31
    107c:	e8 5b       	subi	r30, 0xB8	; 184
    107e:	f6 4c       	sbci	r31, 0xC6	; 198
    1080:	a7 e5       	ldi	r26, 0x57	; 87
    1082:	ba e7       	ldi	r27, 0x7A	; 122
    1084:	a0 83       	st	Z, r26
    1086:	b1 83       	std	Z+1, r27	; 0x01
    reactStr[1][number]=length;
    1088:	f9 01       	movw	r30, r18
    108a:	ee 0f       	add	r30, r30
    108c:	ff 1f       	adc	r31, r31
    108e:	e8 57       	subi	r30, 0x78	; 120
    1090:	f6 4c       	sbci	r31, 0xC6	; 198
    1092:	60 83       	st	Z, r22
    1094:	71 83       	std	Z+1, r23	; 0x01
    reactStr[2][number]=type;
    1096:	22 0f       	add	r18, r18
    1098:	33 1f       	adc	r19, r19
    109a:	f9 01       	movw	r30, r18
    109c:	e8 53       	subi	r30, 0x38	; 56
    109e:	f6 4c       	sbci	r31, 0xC6	; 198
    10a0:	40 83       	st	Z, r20
    10a2:	51 83       	std	Z+1, r21	; 0x01
    SetResponse(custStrEnd++, A_LF, 2, TEASER);
    SetResponse(custStrEnd++, A_PROMPT, L_PROMPT, TEASER);
    //SetResponse(custStrEnd++, A_SPACE, L_SPACE, TEASER);

    return custStrEnd;
}
    10a4:	8b 5f       	subi	r24, 0xFB	; 251
    10a6:	df 91       	pop	r29
    10a8:	cf 91       	pop	r28
    10aa:	08 95       	ret

000010ac <PopulateObject>:

//Get all the relevant data and string addresses of an object
void PopulateObject(uint16_t offset, object_model_t *object){
    10ac:	af 92       	push	r10
    10ae:	bf 92       	push	r11
    10b0:	cf 92       	push	r12
    10b2:	df 92       	push	r13
    10b4:	ef 92       	push	r14
    10b6:	ff 92       	push	r15
    10b8:	0f 93       	push	r16
    10ba:	1f 93       	push	r17
    10bc:	cf 93       	push	r28
    10be:	df 93       	push	r29
    10c0:	cd b7       	in	r28, 0x3d	; 61
    10c2:	de b7       	in	r29, 0x3e	; 62
    10c4:	2c 97       	sbiw	r28, 0x0c	; 12
    10c6:	cd bf       	out	0x3d, r28	; 61
    10c8:	de bf       	out	0x3e, r29	; 62
    10ca:	7c 01       	movw	r14, r24
    10cc:	8b 01       	movw	r16, r22
    uint16_t parStr;
    offset += L_BOILER;

    //Fill things with fixed distance to offset
    uint8_t data[OFF_STRINGFLDS];
    ExtEERead(offset, OFF_STRINGFLDS, GAME, &data[0]);
    10ce:	9e 01       	movw	r18, r28
    10d0:	2f 5f       	subi	r18, 0xFF	; 255
    10d2:	3f 4f       	sbci	r19, 0xFF	; 255
    10d4:	40 e0       	ldi	r20, 0x00	; 0
    10d6:	6c e0       	ldi	r22, 0x0C	; 12
    10d8:	80 96       	adiw	r24, 0x20	; 32
    10da:	de de       	rcall	.-580    	; 0xe98 <ExtEERead>
    object->addrNextObj = (data[OFF_NEXTOBJ]<<8|data[OFF_NEXTOBJ+1])+L_BOILER;
    10dc:	89 81       	ldd	r24, Y+1	; 0x01
    10de:	9a 81       	ldd	r25, Y+2	; 0x02
    10e0:	98 27       	eor	r25, r24
    10e2:	89 27       	eor	r24, r25
    10e4:	98 27       	eor	r25, r24
    10e6:	80 96       	adiw	r24, 0x20	; 32
    10e8:	f8 01       	movw	r30, r16
    10ea:	80 83       	st	Z, r24
    10ec:	91 83       	std	Z+1, r25	; 0x01
    object->addrNextLvl = (data[OFF_NEXTLVL]<<8|data[OFF_NEXTLVL+1])+L_BOILER;
    10ee:	8b 81       	ldd	r24, Y+3	; 0x03
    10f0:	9c 81       	ldd	r25, Y+4	; 0x04
    10f2:	98 27       	eor	r25, r24
    10f4:	89 27       	eor	r24, r25
    10f6:	98 27       	eor	r25, r24
    10f8:	80 96       	adiw	r24, 0x20	; 32
    10fa:	82 83       	std	Z+2, r24	; 0x02
    10fc:	93 83       	std	Z+3, r25	; 0x03
    10fe:	de 01       	movw	r26, r28
    1100:	15 96       	adiw	r26, 0x05	; 5
    1102:	34 96       	adiw	r30, 0x04	; 4
    1104:	68 01       	movw	r12, r16
    1106:	2c e0       	ldi	r18, 0x0C	; 12
    1108:	c2 0e       	add	r12, r18
    110a:	d1 1c       	adc	r13, r1
    for (uint8_t x=0; x<BYTE_FIELDS_LEN; ++x){
        object->byteField[x]=data[x+OFF_BYTEFLDS];
    110c:	8d 91       	ld	r24, X+
    110e:	81 93       	st	Z+, r24
    //Fill things with fixed distance to offset
    uint8_t data[OFF_STRINGFLDS];
    ExtEERead(offset, OFF_STRINGFLDS, GAME, &data[0]);
    object->addrNextObj = (data[OFF_NEXTOBJ]<<8|data[OFF_NEXTOBJ+1])+L_BOILER;
    object->addrNextLvl = (data[OFF_NEXTLVL]<<8|data[OFF_NEXTLVL+1])+L_BOILER;
    for (uint8_t x=0; x<BYTE_FIELDS_LEN; ++x){
    1110:	ec 15       	cp	r30, r12
    1112:	fd 05       	cpc	r31, r13
    1114:	d9 f7       	brne	.-10     	; 0x110c <PopulateObject+0x60>
        object->byteField[x]=data[x+OFF_BYTEFLDS];
    }

    //Find out where all of the strings begin and how long they are
    offset += OFF_STRINGFLDS;
    1116:	8c e2       	ldi	r24, 0x2C	; 44
    1118:	e8 0e       	add	r14, r24
    111a:	f1 1c       	adc	r15, r1
    111c:	58 01       	movw	r10, r16
    for(uint8_t x=0; x<STRING_FIELDS_LEN; ++x){
    111e:	10 e0       	ldi	r17, 0x00	; 0
        //Determine length
        ExtEERead(offset, 3, GAME, &data[0]);
    1120:	9e 01       	movw	r18, r28
    1122:	2f 5f       	subi	r18, 0xFF	; 255
    1124:	3f 4f       	sbci	r19, 0xFF	; 255
    1126:	40 e0       	ldi	r20, 0x00	; 0
    1128:	63 e0       	ldi	r22, 0x03	; 3
    112a:	c7 01       	movw	r24, r14
    112c:	b5 de       	rcall	.-662    	; 0xe98 <ExtEERead>
    112e:	89 81       	ldd	r24, Y+1	; 0x01
    1130:	9a 81       	ldd	r25, Y+2	; 0x02
    1132:	98 27       	eor	r25, r24
    1134:	89 27       	eor	r24, r25
    1136:	98 27       	eor	r25, r24
        parStr = (data[0]<<8|data[1]);
        if (x >= OPEN_ACL_MSG){
    1138:	14 30       	cpi	r17, 0x04	; 4
    113a:	50 f0       	brcs	.+20     	; 0x1150 <PopulateObject+0xa4>
            object->lenStr[x]= parStr-1;
    113c:	9c 01       	movw	r18, r24
    113e:	21 50       	subi	r18, 0x01	; 1
    1140:	31 09       	sbc	r19, r1
    1142:	f6 01       	movw	r30, r12
    1144:	26 87       	std	Z+14, r18	; 0x0e
    1146:	37 87       	std	Z+15, r19	; 0x0f
            object->effect[x-OPEN_ACL_MSG] = data[2];
    1148:	2b 81       	ldd	r18, Y+3	; 0x03
    114a:	f5 01       	movw	r30, r10
    114c:	24 a3       	std	Z+36, r18	; 0x24
    114e:	03 c0       	rjmp	.+6      	; 0x1156 <PopulateObject+0xaa>
        } else {
            object->lenStr[x]= parStr;
    1150:	f6 01       	movw	r30, r12
    1152:	86 87       	std	Z+14, r24	; 0x0e
    1154:	97 87       	std	Z+15, r25	; 0x0f
        }
        //Determine string start location and add length to offset for next field
        offset += 2;
    1156:	f2 e0       	ldi	r31, 0x02	; 2
    1158:	ef 0e       	add	r14, r31
    115a:	f1 1c       	adc	r15, r1
        object->addrStr[x]=offset;
    115c:	f6 01       	movw	r30, r12
    115e:	e1 92       	st	Z+, r14
    1160:	f1 92       	st	Z+, r15
    1162:	6f 01       	movw	r12, r30
        offset += parStr;
    1164:	e8 0e       	add	r14, r24
    1166:	f9 1e       	adc	r15, r25
        object->byteField[x]=data[x+OFF_BYTEFLDS];
    }

    //Find out where all of the strings begin and how long they are
    offset += OFF_STRINGFLDS;
    for(uint8_t x=0; x<STRING_FIELDS_LEN; ++x){
    1168:	1f 5f       	subi	r17, 0xFF	; 255
    116a:	ff ef       	ldi	r31, 0xFF	; 255
    116c:	af 1a       	sub	r10, r31
    116e:	bf 0a       	sbc	r11, r31
    1170:	17 30       	cpi	r17, 0x07	; 7
    1172:	b1 f6       	brne	.-84     	; 0x1120 <PopulateObject+0x74>
        //Determine string start location and add length to offset for next field
        offset += 2;
        object->addrStr[x]=offset;
        offset += parStr;
    }    
}
    1174:	2c 96       	adiw	r28, 0x0c	; 12
    1176:	cd bf       	out	0x3d, r28	; 61
    1178:	de bf       	out	0x3e, r29	; 62
    117a:	df 91       	pop	r29
    117c:	cf 91       	pop	r28
    117e:	1f 91       	pop	r17
    1180:	0f 91       	pop	r16
    1182:	ff 90       	pop	r15
    1184:	ef 90       	pop	r14
    1186:	df 90       	pop	r13
    1188:	cf 90       	pop	r12
    118a:	bf 90       	pop	r11
    118c:	af 90       	pop	r10
    118e:	08 95       	ret

00001190 <UpdateState>:

//Update game state: num -> vBBBBbbb v=value(0 is set!), BBBB=Byte number, bbb=bit number
void UpdateState(uint8_t num){
    1190:	98 2f       	mov	r25, r24
    uint8_t clearBit = num & 0x80;
    num &= 0x7f;
    1192:	8f 77       	andi	r24, 0x7F	; 127
    if (clearBit) {
    1194:	97 ff       	sbrs	r25, 7
    1196:	02 c0       	rjmp	.+4      	; 0x119c <UpdateState+0xc>
        WriteStatusBit(num, 0);
    1198:	60 e0       	ldi	r22, 0x00	; 0
    119a:	01 c0       	rjmp	.+2      	; 0x119e <UpdateState+0xe>
    } else {
        WriteStatusBit(num, 1);
    119c:	61 e0       	ldi	r22, 0x01	; 1
    119e:	8c cd       	rjmp	.-1256   	; 0xcb8 <WriteStatusBit>

000011a0 <CheckState>:
    }
}

//Checks if state of bit BBBBbbb matches with v (inverted) bit
uint8_t CheckState(uint8_t num){
    11a0:	cf 93       	push	r28
    11a2:	c8 2f       	mov	r28, r24
    uint8_t bitSet = 0;
    if (ReadStatusBit(num & 0x7f)){
    11a4:	8f 77       	andi	r24, 0x7F	; 127
    11a6:	74 dd       	rcall	.-1304   	; 0xc90 <ReadStatusBit>
    11a8:	2c 2f       	mov	r18, r28
    11aa:	22 1f       	adc	r18, r18
    11ac:	22 27       	eor	r18, r18
    11ae:	22 1f       	adc	r18, r18
    11b0:	91 e0       	ldi	r25, 0x01	; 1
    11b2:	81 11       	cpse	r24, r1
    11b4:	01 c0       	rjmp	.+2      	; 0x11b8 <CheckState+0x18>
    11b6:	90 e0       	ldi	r25, 0x00	; 0
    }
    if (((num & 0x80)>0)^(bitSet>0)){
        return 1;
    }
    return 0;
}
    11b8:	82 2f       	mov	r24, r18
    11ba:	89 27       	eor	r24, r25
    11bc:	cf 91       	pop	r28
    11be:	08 95       	ret

000011c0 <CheckLetter>:

//Check if the entered letter corresponds with a name
uint8_t CheckLetter(uint16_t object, uint8_t letter){
    11c0:	cf 92       	push	r12
    11c2:	df 92       	push	r13
    11c4:	ef 92       	push	r14
    11c6:	ff 92       	push	r15
    11c8:	0f 93       	push	r16
    11ca:	1f 93       	push	r17
    11cc:	cf 93       	push	r28
    11ce:	df 93       	push	r29
    11d0:	cd b7       	in	r28, 0x3d	; 61
    11d2:	de b7       	in	r29, 0x3e	; 62
    11d4:	a0 97       	sbiw	r28, 0x20	; 32
    11d6:	cd bf       	out	0x3d, r28	; 61
    11d8:	de bf       	out	0x3e, r29	; 62
    11da:	c6 2e       	mov	r12, r22
    
    uint8_t found = 0;
    uint8_t data[32];

    object += L_BOILER;
    11dc:	7c 01       	movw	r14, r24
    11de:	20 e2       	ldi	r18, 0x20	; 32
    11e0:	e2 0e       	add	r14, r18
    11e2:	f1 1c       	adc	r15, r1
    ExtEERead(object+OFF_STRINGFLDS, 2, GAME, &data[0]);
    11e4:	9e 01       	movw	r18, r28
    11e6:	2f 5f       	subi	r18, 0xFF	; 255
    11e8:	3f 4f       	sbci	r19, 0xFF	; 255
    11ea:	40 e0       	ldi	r20, 0x00	; 0
    11ec:	62 e0       	ldi	r22, 0x02	; 2
    11ee:	8c 96       	adiw	r24, 0x2c	; 44
    11f0:	53 de       	rcall	.-858    	; 0xe98 <ExtEERead>
    uint8_t x = data[1]; //Assuming a name is not longer than 255 characters.
    11f2:	1a 81       	ldd	r17, Y+2	; 0x02
}

//Check if the entered letter corresponds with a name
uint8_t CheckLetter(uint16_t object, uint8_t letter){
    
    uint8_t found = 0;
    11f4:	d1 2c       	mov	r13, r1

    object += L_BOILER;
    ExtEERead(object+OFF_STRINGFLDS, 2, GAME, &data[0]);
    uint8_t x = data[1]; //Assuming a name is not longer than 255 characters.

    while (x){
    11f6:	11 23       	and	r17, r17
    11f8:	51 f1       	breq	.+84     	; 0x124e <CheckLetter+0x8e>
    11fa:	01 2f       	mov	r16, r17
    11fc:	11 32       	cpi	r17, 0x21	; 33
    11fe:	08 f0       	brcs	.+2      	; 0x1202 <CheckLetter+0x42>
    1200:	00 e2       	ldi	r16, 0x20	; 32
        uint8_t max;
        if (x>32) max = 32; else max = x;
        ExtEERead(object+OFF_STRINGFLDS+2, max, GAME, &data[0]);
    1202:	9e 01       	movw	r18, r28
    1204:	2f 5f       	subi	r18, 0xFF	; 255
    1206:	3f 4f       	sbci	r19, 0xFF	; 255
    1208:	40 e0       	ldi	r20, 0x00	; 0
    120a:	60 2f       	mov	r22, r16
    120c:	c7 01       	movw	r24, r14
    120e:	0e 96       	adiw	r24, 0x0e	; 14
    1210:	43 de       	rcall	.-890    	; 0xe98 <ExtEERead>
    1212:	fe 01       	movw	r30, r28
    1214:	31 96       	adiw	r30, 0x01	; 1
        for (uint8_t y=0; y<max; ++y){
    1216:	80 e0       	ldi	r24, 0x00	; 0
            if (found){
    1218:	dd 20       	and	r13, r13
    121a:	61 f0       	breq	.+24     	; 0x1234 <CheckLetter+0x74>
                if ((data[y]|0x20) == letter) return 1; else return 0;
    121c:	e1 e0       	ldi	r30, 0x01	; 1
    121e:	f0 e0       	ldi	r31, 0x00	; 0
    1220:	ec 0f       	add	r30, r28
    1222:	fd 1f       	adc	r31, r29
    1224:	e8 0f       	add	r30, r24
    1226:	f1 1d       	adc	r31, r1
    1228:	90 81       	ld	r25, Z
    122a:	90 62       	ori	r25, 0x20	; 32
    122c:	81 e0       	ldi	r24, 0x01	; 1
    122e:	9c 11       	cpse	r25, r12
    1230:	0e c0       	rjmp	.+28     	; 0x124e <CheckLetter+0x8e>
    1232:	0e c0       	rjmp	.+28     	; 0x1250 <CheckLetter+0x90>
            }
            if (data[y] == '[') found = 1;
    1234:	91 91       	ld	r25, Z+
    1236:	dd 24       	eor	r13, r13
    1238:	d3 94       	inc	r13
    123a:	9b 35       	cpi	r25, 0x5B	; 91
    123c:	09 f0       	breq	.+2      	; 0x1240 <CheckLetter+0x80>
    123e:	d1 2c       	mov	r13, r1

    while (x){
        uint8_t max;
        if (x>32) max = 32; else max = x;
        ExtEERead(object+OFF_STRINGFLDS+2, max, GAME, &data[0]);
        for (uint8_t y=0; y<max; ++y){
    1240:	8f 5f       	subi	r24, 0xFF	; 255
    1242:	80 17       	cp	r24, r16
    1244:	48 f3       	brcs	.-46     	; 0x1218 <CheckLetter+0x58>
            if (found){
                if ((data[y]|0x20) == letter) return 1; else return 0;
            }
            if (data[y] == '[') found = 1;
        }
        object += max;
    1246:	e0 0e       	add	r14, r16
    1248:	f1 1c       	adc	r15, r1
        x -= max;
    124a:	10 1b       	sub	r17, r16
    124c:	d4 cf       	rjmp	.-88     	; 0x11f6 <CheckLetter+0x36>
    }
    return 0;
    124e:	80 e0       	ldi	r24, 0x00	; 0
}
    1250:	a0 96       	adiw	r28, 0x20	; 32
    1252:	cd bf       	out	0x3d, r28	; 61
    1254:	de bf       	out	0x3e, r29	; 62
    1256:	df 91       	pop	r29
    1258:	cf 91       	pop	r28
    125a:	1f 91       	pop	r17
    125c:	0f 91       	pop	r16
    125e:	ff 90       	pop	r15
    1260:	ef 90       	pop	r14
    1262:	df 90       	pop	r13
    1264:	cf 90       	pop	r12
    1266:	08 95       	ret

00001268 <FindChild>:

//Returns the child's address if the child is visible and the search letter matches
uint16_t FindChild(uint16_t parent, uint8_t letter, uint16_t start){
    1268:	af 92       	push	r10
    126a:	bf 92       	push	r11
    126c:	df 92       	push	r13
    126e:	ef 92       	push	r14
    1270:	ff 92       	push	r15
    1272:	0f 93       	push	r16
    1274:	1f 93       	push	r17
    1276:	cf 93       	push	r28
    1278:	df 93       	push	r29
    127a:	00 d0       	rcall	.+0      	; 0x127c <FindChild+0x14>
    127c:	00 d0       	rcall	.+0      	; 0x127e <FindChild+0x16>
    127e:	cd b7       	in	r28, 0x3d	; 61
    1280:	de b7       	in	r29, 0x3e	; 62
    1282:	d6 2e       	mov	r13, r22
    1284:	5a 01       	movw	r10, r20
    
    uint16_t child = parent;
    uint8_t data[4];

    ExtEERead(child+L_BOILER, 4, GAME, &data[0]);
    1286:	9e 01       	movw	r18, r28
    1288:	2f 5f       	subi	r18, 0xFF	; 255
    128a:	3f 4f       	sbci	r19, 0xFF	; 255
    128c:	40 e0       	ldi	r20, 0x00	; 0
    128e:	64 e0       	ldi	r22, 0x04	; 4
    1290:	80 96       	adiw	r24, 0x20	; 32
    1292:	02 de       	rcall	.-1020   	; 0xe98 <ExtEERead>
    1294:	e9 80       	ldd	r14, Y+1	; 0x01
    1296:	fa 80       	ldd	r15, Y+2	; 0x02
    1298:	fe 24       	eor	r15, r14
    129a:	ef 24       	eor	r14, r15
    129c:	fe 24       	eor	r15, r14
    129e:	0b 81       	ldd	r16, Y+3	; 0x03
    12a0:	1c 81       	ldd	r17, Y+4	; 0x04
    12a2:	10 27       	eor	r17, r16
    12a4:	01 27       	eor	r16, r17
    12a6:	10 27       	eor	r17, r16
    parent = (data[0]<<8|data[1]);    //Next object on parent level
    child =  (data[2]<<8|data[3]);    //First object on child level

    //As long as the child is within the parent's range
    while (parent>child){
    12a8:	0e 15       	cp	r16, r14
    12aa:	1f 05       	cpc	r17, r15
    12ac:	30 f5       	brcc	.+76     	; 0x12fa <FindChild+0x92>

        //If child's address is higher than the start address, perform search for letter
        if (child>start){
    12ae:	a0 16       	cp	r10, r16
    12b0:	b1 06       	cpc	r11, r17
    12b2:	58 f0       	brcs	.+22     	; 0x12ca <FindChild+0x62>
                if ((letter == 0)||(CheckLetter(child, letter))) return child;
            }
        }

        //Not visible or name not right
        ExtEERead(child+L_BOILER, 2, GAME, &data[0]);
    12b4:	9e 01       	movw	r18, r28
    12b6:	2f 5f       	subi	r18, 0xFF	; 255
    12b8:	3f 4f       	sbci	r19, 0xFF	; 255
    12ba:	40 e0       	ldi	r20, 0x00	; 0
    12bc:	62 e0       	ldi	r22, 0x02	; 2
    12be:	c8 01       	movw	r24, r16
    12c0:	80 96       	adiw	r24, 0x20	; 32
    12c2:	ea dd       	rcall	.-1068   	; 0xe98 <ExtEERead>
    12c4:	09 81       	ldd	r16, Y+1	; 0x01
    12c6:	1a 81       	ldd	r17, Y+2	; 0x02
    12c8:	ec cf       	rjmp	.-40     	; 0x12a2 <FindChild+0x3a>
    //As long as the child is within the parent's range
    while (parent>child){

        //If child's address is higher than the start address, perform search for letter
        if (child>start){
            ExtEERead(child+OFF_BYTEFLDS+VISIBLE_ACL+L_BOILER, 1, GAME, &data[0]);
    12ca:	9e 01       	movw	r18, r28
    12cc:	2f 5f       	subi	r18, 0xFF	; 255
    12ce:	3f 4f       	sbci	r19, 0xFF	; 255
    12d0:	40 e0       	ldi	r20, 0x00	; 0
    12d2:	61 e0       	ldi	r22, 0x01	; 1
    12d4:	c8 01       	movw	r24, r16
    12d6:	85 96       	adiw	r24, 0x25	; 37
    12d8:	df dd       	rcall	.-1090   	; 0xe98 <ExtEERead>
            if ((data[0] == 0)||(CheckState(data[0]))) {
    12da:	89 81       	ldd	r24, Y+1	; 0x01
    12dc:	81 11       	cpse	r24, r1
    12de:	03 c0       	rjmp	.+6      	; 0x12e6 <FindChild+0x7e>
                if ((letter == 0)||(CheckLetter(child, letter))) return child;
    12e0:	d1 10       	cpse	r13, r1
    12e2:	05 c0       	rjmp	.+10     	; 0x12ee <FindChild+0x86>
    while (parent>child){

        //If child's address is higher than the start address, perform search for letter
        if (child>start){
            ExtEERead(child+OFF_BYTEFLDS+VISIBLE_ACL+L_BOILER, 1, GAME, &data[0]);
            if ((data[0] == 0)||(CheckState(data[0]))) {
    12e4:	0d c0       	rjmp	.+26     	; 0x1300 <FindChild+0x98>
    12e6:	5c df       	rcall	.-328    	; 0x11a0 <CheckState>
    12e8:	81 11       	cpse	r24, r1
    12ea:	fa cf       	rjmp	.-12     	; 0x12e0 <FindChild+0x78>
                if ((letter == 0)||(CheckLetter(child, letter))) return child;
    12ec:	e3 cf       	rjmp	.-58     	; 0x12b4 <FindChild+0x4c>
    12ee:	6d 2d       	mov	r22, r13
    12f0:	c8 01       	movw	r24, r16
    12f2:	66 df       	rcall	.-308    	; 0x11c0 <CheckLetter>
    12f4:	88 23       	and	r24, r24
    12f6:	f1 f2       	breq	.-68     	; 0x12b4 <FindChild+0x4c>
    12f8:	03 c0       	rjmp	.+6      	; 0x1300 <FindChild+0x98>

        //Not visible or name not right
        ExtEERead(child+L_BOILER, 2, GAME, &data[0]);
        child = (data[0]<<8|data[1]);    //Next object on child level
        
    } return 0;
    12fa:	80 e0       	ldi	r24, 0x00	; 0
    12fc:	90 e0       	ldi	r25, 0x00	; 0
    12fe:	01 c0       	rjmp	.+2      	; 0x1302 <FindChild+0x9a>
    1300:	c8 01       	movw	r24, r16
}
    1302:	24 96       	adiw	r28, 0x04	; 4
    1304:	cd bf       	out	0x3d, r28	; 61
    1306:	de bf       	out	0x3e, r29	; 62
    1308:	df 91       	pop	r29
    130a:	cf 91       	pop	r28
    130c:	1f 91       	pop	r17
    130e:	0f 91       	pop	r16
    1310:	ff 90       	pop	r15
    1312:	ef 90       	pop	r14
    1314:	df 90       	pop	r13
    1316:	bf 90       	pop	r11
    1318:	af 90       	pop	r10
    131a:	08 95       	ret

0000131c <InpOkChk>:

//Allow only a(A) to z(Z) and 0 to 9 as input
uint8_t InpOkChk(uint8_t test){
    if ((test>='a')&&(test<='z')) return 1;
    131c:	9f e9       	ldi	r25, 0x9F	; 159
    131e:	98 0f       	add	r25, r24
    1320:	9a 31       	cpi	r25, 0x1A	; 26
    1322:	38 f0       	brcs	.+14     	; 0x1332 <InpOkChk+0x16>
    1324:	90 ed       	ldi	r25, 0xD0	; 208
    1326:	98 0f       	add	r25, r24
    1328:	81 e0       	ldi	r24, 0x01	; 1
    132a:	9a 30       	cpi	r25, 0x0A	; 10
    132c:	18 f0       	brcs	.+6      	; 0x1334 <InpOkChk+0x18>
    132e:	80 e0       	ldi	r24, 0x00	; 0
    1330:	08 95       	ret
    1332:	81 e0       	ldi	r24, 0x01	; 1
    if ((test>='0')&&(test<='9')) return 1;
    return 0;
}
    1334:	08 95       	ret

00001336 <CleanInput>:

//Cleans input of garbage and returns length of cleaned input "o->d2  !\0" becomes "od2\0"
uint8_t CleanInput(uint8_t *data){
    1336:	0f 93       	push	r16
    1338:	1f 93       	push	r17
    133a:	cf 93       	push	r28
    133c:	df 93       	push	r29
    133e:	8c 01       	movw	r16, r24
    uint8_t cnt = 0;
    for (uint8_t x=0; data[x]!=0; ++x){
    1340:	d0 e0       	ldi	r29, 0x00	; 0
    return 0;
}

//Cleans input of garbage and returns length of cleaned input "o->d2  !\0" becomes "od2\0"
uint8_t CleanInput(uint8_t *data){
    uint8_t cnt = 0;
    1342:	c0 e0       	ldi	r28, 0x00	; 0
    for (uint8_t x=0; data[x]!=0; ++x){
    1344:	f8 01       	movw	r30, r16
    1346:	ed 0f       	add	r30, r29
    1348:	f1 1d       	adc	r31, r1
    134a:	20 81       	ld	r18, Z
    134c:	8c 2f       	mov	r24, r28
    134e:	90 e0       	ldi	r25, 0x00	; 0
    1350:	22 23       	and	r18, r18
    1352:	51 f0       	breq	.+20     	; 0x1368 <CleanInput+0x32>
        data[cnt] = data[x];
    1354:	d8 01       	movw	r26, r16
    1356:	a8 0f       	add	r26, r24
    1358:	b9 1f       	adc	r27, r25
    135a:	2c 93       	st	X, r18
        if (InpOkChk(data[x])) ++cnt;
    135c:	80 81       	ld	r24, Z
    135e:	de df       	rcall	.-68     	; 0x131c <InpOkChk>
    1360:	81 11       	cpse	r24, r1
    1362:	cf 5f       	subi	r28, 0xFF	; 255
}

//Cleans input of garbage and returns length of cleaned input "o->d2  !\0" becomes "od2\0"
uint8_t CleanInput(uint8_t *data){
    uint8_t cnt = 0;
    for (uint8_t x=0; data[x]!=0; ++x){
    1364:	df 5f       	subi	r29, 0xFF	; 255
    1366:	ee cf       	rjmp	.-36     	; 0x1344 <CleanInput+0xe>
        data[cnt] = data[x];
        if (InpOkChk(data[x])) ++cnt;
    }
    data[cnt] = 0;
    1368:	f8 01       	movw	r30, r16
    136a:	e8 0f       	add	r30, r24
    136c:	f9 1f       	adc	r31, r25
    136e:	10 82       	st	Z, r1
    return cnt;
}
    1370:	8c 2f       	mov	r24, r28
    1372:	df 91       	pop	r29
    1374:	cf 91       	pop	r28
    1376:	1f 91       	pop	r17
    1378:	0f 91       	pop	r16
    137a:	08 95       	ret

0000137c <CheckSend>:

//Send routine, optimized for low memory usage
uint8_t CheckSend(){
    137c:	cf 93       	push	r28
    static uint8_t txPart;
    uint8_t EEreadLength=0;

    //Check if more string(part)s have to be sent to the serial output if previous send operation is completed
    if ((txAddrNow < TXLISTLEN) && serTxDone){
    137e:	20 91 74 3a 	lds	r18, 0x3A74	; 0x803a74 <txAddrNow>
    1382:	28 30       	cpi	r18, 0x08	; 8
    1384:	08 f0       	brcs	.+2      	; 0x1388 <CheckSend+0xc>
    1386:	47 c0       	rjmp	.+142    	; 0x1416 <CheckSend+0x9a>
    1388:	80 91 04 38 	lds	r24, 0x3804	; 0x803804 <serTxDone>
    138c:	88 23       	and	r24, r24
    138e:	09 f4       	brne	.+2      	; 0x1392 <CheckSend+0x16>
    1390:	42 c0       	rjmp	.+132    	; 0x1416 <CheckSend+0x9a>
        if (txStrLen[txAddrNow] == 0){
    1392:	82 2f       	mov	r24, r18
    1394:	90 e0       	ldi	r25, 0x00	; 0
    1396:	fc 01       	movw	r30, r24
    1398:	eb 58       	subi	r30, 0x8B	; 139
    139a:	f5 4c       	sbci	r31, 0xC5	; 197
    139c:	e0 81       	ld	r30, Z
    139e:	e1 11       	cpse	r30, r1
    13a0:	06 c0       	rjmp	.+12     	; 0x13ae <CheckSend+0x32>
            txPart = 0;
    13a2:	10 92 35 39 	sts	0x3935, r1	; 0x803935 <txPart.3917>
            txAddrNow = TXLISTLEN;
    13a6:	88 e0       	ldi	r24, 0x08	; 8
    13a8:	80 93 74 3a 	sts	0x3A74, r24	; 0x803a74 <txAddrNow>
    13ac:	2c c0       	rjmp	.+88     	; 0x1406 <CheckSend+0x8a>
        } else if (txPart < txStrLen[txAddrNow]){
    13ae:	50 91 35 39 	lds	r21, 0x3935	; 0x803935 <txPart.3917>
    13b2:	5e 17       	cp	r21, r30
    13b4:	50 f5       	brcc	.+84     	; 0x140a <CheckSend+0x8e>
            EEreadLength = txStrLen[txAddrNow]-txPart;
    13b6:	ce 2f       	mov	r28, r30
    13b8:	c5 1b       	sub	r28, r21
    13ba:	c1 32       	cpi	r28, 0x21	; 33
    13bc:	08 f0       	brcs	.+2      	; 0x13c0 <CheckSend+0x44>
    13be:	c0 e2       	ldi	r28, 0x20	; 32
            if (EEreadLength>=TXLEN) EEreadLength = TXLEN-1;
            ExtEERead(txAddrList[txAddrNow]+txPart, EEreadLength, txTypeNow, &txBuffer[0]);
    13c0:	88 0f       	add	r24, r24
    13c2:	99 1f       	adc	r25, r25
    13c4:	fc 01       	movw	r30, r24
    13c6:	e3 58       	subi	r30, 0x83	; 131
    13c8:	f5 4c       	sbci	r31, 0xC5	; 197
    13ca:	80 81       	ld	r24, Z
    13cc:	91 81       	ldd	r25, Z+1	; 0x01
    13ce:	2a e3       	ldi	r18, 0x3A	; 58
    13d0:	3b e3       	ldi	r19, 0x3B	; 59
    13d2:	40 91 73 3a 	lds	r20, 0x3A73	; 0x803a73 <txTypeNow>
    13d6:	6c 2f       	mov	r22, r28
    13d8:	85 0f       	add	r24, r21
    13da:	91 1d       	adc	r25, r1
    13dc:	5d dd       	rcall	.-1350   	; 0xe98 <ExtEERead>
            txPart += EEreadLength;
    13de:	80 91 35 39 	lds	r24, 0x3935	; 0x803935 <txPart.3917>
    13e2:	8c 0f       	add	r24, r28
    13e4:	80 93 35 39 	sts	0x3935, r24	; 0x803935 <txPart.3917>
            txBuffer[EEreadLength] = 0; //Add string terminator after piece to send to plug memory leak
    13e8:	ec 2f       	mov	r30, r28
    13ea:	f0 e0       	ldi	r31, 0x00	; 0
    13ec:	e6 5c       	subi	r30, 0xC6	; 198
    13ee:	f4 4c       	sbci	r31, 0xC4	; 196
    13f0:	10 82       	st	Z, r1
            if ((txBuffer[0] == 0) && (EEreadLength)) txBuffer[0] = 0xDB; //Block character when data wrong.
    13f2:	80 91 3a 3b 	lds	r24, 0x3B3A	; 0x803b3a <txBuffer>
    13f6:	81 11       	cpse	r24, r1
    13f8:	03 c0       	rjmp	.+6      	; 0x1400 <CheckSend+0x84>
    13fa:	8b ed       	ldi	r24, 0xDB	; 219
    13fc:	80 93 3a 3b 	sts	0x3B3A, r24	; 0x803b3a <txBuffer>
            SerSend(&txBuffer[0]);
    1400:	8a e3       	ldi	r24, 0x3A	; 58
    1402:	9b e3       	ldi	r25, 0x3B	; 59
    1404:	de da       	rcall	.-2628   	; 0x9c2 <SerSend>
        } else {
            txPart = 0;
            ++txAddrNow;
        }
    } else if (serTxDone) return 0; //All is sent!
    return 1; //Still sending, do not change the data in the tx variables
    1406:	81 e0       	ldi	r24, 0x01	; 1
    1408:	0b c0       	rjmp	.+22     	; 0x1420 <CheckSend+0xa4>
            txPart += EEreadLength;
            txBuffer[EEreadLength] = 0; //Add string terminator after piece to send to plug memory leak
            if ((txBuffer[0] == 0) && (EEreadLength)) txBuffer[0] = 0xDB; //Block character when data wrong.
            SerSend(&txBuffer[0]);
        } else {
            txPart = 0;
    140a:	10 92 35 39 	sts	0x3935, r1	; 0x803935 <txPart.3917>
            ++txAddrNow;
    140e:	2f 5f       	subi	r18, 0xFF	; 255
    1410:	20 93 74 3a 	sts	0x3A74, r18	; 0x803a74 <txAddrNow>
    1414:	f8 cf       	rjmp	.-16     	; 0x1406 <CheckSend+0x8a>
        }
    } else if (serTxDone) return 0; //All is sent!
    1416:	90 91 04 38 	lds	r25, 0x3804	; 0x803804 <serTxDone>
    141a:	81 e0       	ldi	r24, 0x01	; 1
    141c:	91 11       	cpse	r25, r1
    141e:	80 e0       	ldi	r24, 0x00	; 0
    return 1; //Still sending, do not change the data in the tx variables
}
    1420:	cf 91       	pop	r28
    1422:	08 95       	ret

00001424 <CheckResponse>:

//Send another part of the response and play the effect afterwards
uint8_t CheckResponse(){
    1424:	cf 93       	push	r28
    1426:	df 93       	push	r29
    static uint8_t number = 0;
    if (responseList){
    1428:	c0 91 47 39 	lds	r28, 0x3947	; 0x803947 <responseList>
    142c:	cc 23       	and	r28, r28
    142e:	e9 f1       	breq	.+122    	; 0x14aa <CheckResponse+0x86>
        --responseList;
    1430:	c1 50       	subi	r28, 0x01	; 1
    1432:	c0 93 47 39 	sts	0x3947, r28	; 0x803947 <responseList>
        if (reactStr[0][number] == CURR_LOC) {
    1436:	d0 91 34 39 	lds	r29, 0x3934	; 0x803934 <number.3921>
    143a:	2d 2f       	mov	r18, r29
    143c:	30 e0       	ldi	r19, 0x00	; 0
    143e:	f9 01       	movw	r30, r18
    1440:	ee 0f       	add	r30, r30
    1442:	ff 1f       	adc	r31, r31
    1444:	e8 5b       	subi	r30, 0xB8	; 184
    1446:	f6 4c       	sbci	r31, 0xC6	; 198
    1448:	80 81       	ld	r24, Z
    144a:	91 81       	ldd	r25, Z+1	; 0x01
    144c:	80 3f       	cpi	r24, 0xF0	; 240
    144e:	4f ef       	ldi	r20, 0xFF	; 255
    1450:	94 07       	cpc	r25, r20
    1452:	51 f4       	brne	.+20     	; 0x1468 <CheckResponse+0x44>
            PrepareSending(currObj.addrStr[NAME], currObj.lenStr[NAME], GAME);
    1454:	60 91 62 3a 	lds	r22, 0x3A62	; 0x803a62 <currObj+0x1a>
    1458:	70 91 63 3a 	lds	r23, 0x3A63	; 0x803a63 <currObj+0x1b>
    145c:	40 e0       	ldi	r20, 0x00	; 0
    145e:	80 91 54 3a 	lds	r24, 0x3A54	; 0x803a54 <currObj+0xc>
    1462:	90 91 55 3a 	lds	r25, 0x3A55	; 0x803a55 <currObj+0xd>
    1466:	0d c0       	rjmp	.+26     	; 0x1482 <CheckResponse+0x5e>
        } else {
            PrepareSending(reactStr[0][number], reactStr[1][number], reactStr[2][number]);
    1468:	d9 01       	movw	r26, r18
    146a:	aa 0f       	add	r26, r26
    146c:	bb 1f       	adc	r27, r27
    146e:	a8 53       	subi	r26, 0x38	; 56
    1470:	b6 4c       	sbci	r27, 0xC6	; 198
    1472:	22 0f       	add	r18, r18
    1474:	33 1f       	adc	r19, r19
    1476:	f9 01       	movw	r30, r18
    1478:	e8 57       	subi	r30, 0x78	; 120
    147a:	f6 4c       	sbci	r31, 0xC6	; 198
    147c:	60 81       	ld	r22, Z
    147e:	71 81       	ldd	r23, Z+1	; 0x01
    1480:	4c 91       	ld	r20, X
    1482:	60 dd       	rcall	.-1344   	; 0xf44 <PrepareSending>
        }
        ++number;
    1484:	df 5f       	subi	r29, 0xFF	; 255
    1486:	d0 93 34 39 	sts	0x3934, r29	; 0x803934 <number.3921>

        if (responseList == 0) {
    148a:	c1 11       	cpse	r28, r1
    148c:	0d c0       	rjmp	.+26     	; 0x14a8 <CheckResponse+0x84>
            effect = currObj.byteField[EFFECTS];
    148e:	80 91 4c 3a 	lds	r24, 0x3A4C	; 0x803a4c <currObj+0x4>
    1492:	90 e0       	ldi	r25, 0x00	; 0
    1494:	80 93 93 38 	sts	0x3893, r24	; 0x803893 <effect>
    1498:	90 93 94 38 	sts	0x3894, r25	; 0x803894 <effect+0x1>
            RXCNT = 0;
    149c:	1d ba       	out	0x1d, r1	; 29
            serRxDone = 0;
    149e:	10 92 9c 38 	sts	0x389C, r1	; 0x80389c <serRxDone>
            number = 0;
    14a2:	10 92 34 39 	sts	0x3934, r1	; 0x803934 <number.3921>
    14a6:	01 c0       	rjmp	.+2      	; 0x14aa <CheckResponse+0x86>
            return 0;
        }
        return 1;
    14a8:	c1 e0       	ldi	r28, 0x01	; 1
    }
    return 0;
}
    14aa:	8c 2f       	mov	r24, r28
    14ac:	df 91       	pop	r29
    14ae:	cf 91       	pop	r28
    14b0:	08 95       	ret

000014b2 <CheckInput>:

//User input check (and validation)
uint8_t CheckInput(uint8_t *data){
    14b2:	ef 92       	push	r14
    14b4:	ff 92       	push	r15
    14b6:	0f 93       	push	r16
    14b8:	1f 93       	push	r17
    14ba:	cf 93       	push	r28
    14bc:	df 93       	push	r29
    14be:	cd b7       	in	r28, 0x3d	; 61
    14c0:	de b7       	in	r29, 0x3e	; 62
    14c2:	2a 97       	sbiw	r28, 0x0a	; 10
    14c4:	cd bf       	out	0x3d, r28	; 61
    14c6:	de bf       	out	0x3e, r29	; 62
    14c8:	8c 01       	movw	r16, r24
    
    //Load game data after reboot
    if (currDepth == 0xff) {
    14ca:	80 91 8f 38 	lds	r24, 0x388F	; 0x80388f <currDepth>
    14ce:	8f 3f       	cpi	r24, 0xFF	; 255
    14d0:	09 f0       	breq	.+2      	; 0x14d4 <CheckInput+0x22>
    14d2:	57 c0       	rjmp	.+174    	; 0x1582 <CheckInput+0xd0>
        //Load things from EEPROM
        EERead(0, &gameState[0], BOOTCHK);   //Load game status bits from EEPROM
    14d4:	44 e1       	ldi	r20, 0x14	; 20
    14d6:	6f e8       	ldi	r22, 0x8F	; 143
    14d8:	7a e3       	ldi	r23, 0x3A	; 58
    14da:	80 e0       	ldi	r24, 0x00	; 0
    14dc:	3a da       	rcall	.-2956   	; 0x952 <EERead>
    14de:	8e e6       	ldi	r24, 0x6E	; 110
    14e0:	f8 2e       	mov	r15, r24

        uint8_t idSet = 0;
    14e2:	e1 2c       	mov	r14, r1
        for (uint8_t x=0; x<4; ++x){
            idSet += ReadStatusBit(110+x);
    14e4:	8f 2d       	mov	r24, r15
    14e6:	d4 db       	rcall	.-2136   	; 0xc90 <ReadStatusBit>
    14e8:	e8 0e       	add	r14, r24
    14ea:	f3 94       	inc	r15
    if (currDepth == 0xff) {
        //Load things from EEPROM
        EERead(0, &gameState[0], BOOTCHK);   //Load game status bits from EEPROM

        uint8_t idSet = 0;
        for (uint8_t x=0; x<4; ++x){
    14ec:	82 e7       	ldi	r24, 0x72	; 114
    14ee:	f8 12       	cpse	r15, r24
    14f0:	f9 cf       	rjmp	.-14     	; 0x14e4 <CheckInput+0x32>
            idSet += ReadStatusBit(110+x);
        }

        //Check if badge is reset(0 = cheated!) or new(3) or error(2)
        if (idSet != 1) {
    14f2:	e1 e0       	ldi	r30, 0x01	; 1
    14f4:	ee 16       	cp	r14, r30
            Reset();
    14f6:	11 f0       	breq	.+4      	; 0x14fc <CheckInput+0x4a>
    14f8:	07 dc       	rcall	.-2034   	; 0xd08 <Reset>
        } else getID();
    14fa:	01 c0       	rjmp	.+2      	; 0x14fe <CheckInput+0x4c>
    14fc:	f7 db       	rcall	.-2066   	; 0xcec <getID>

        inventory[0] = (gameState[INVADDR]<<8|gameState[INVADDR+1]);
    14fe:	80 91 9f 3a 	lds	r24, 0x3A9F	; 0x803a9f <gameState+0x10>
    1502:	90 91 a0 3a 	lds	r25, 0x3AA0	; 0x803aa0 <gameState+0x11>
    1506:	98 27       	eor	r25, r24
    1508:	89 27       	eor	r24, r25
    150a:	98 27       	eor	r25, r24
    150c:	80 93 96 38 	sts	0x3896, r24	; 0x803896 <inventory>
    1510:	90 93 97 38 	sts	0x3897, r25	; 0x803897 <inventory+0x1>
        inventory[1] = (gameState[INVADDR+2]<<8|gameState[INVADDR+3]);
    1514:	80 91 a1 3a 	lds	r24, 0x3AA1	; 0x803aa1 <gameState+0x12>
    1518:	90 91 a2 3a 	lds	r25, 0x3AA2	; 0x803aa2 <gameState+0x13>
    151c:	98 27       	eor	r25, r24
    151e:	89 27       	eor	r24, r25
    1520:	98 27       	eor	r25, r24
    1522:	80 93 98 38 	sts	0x3898, r24	; 0x803898 <inventory+0x2>
    1526:	90 93 99 38 	sts	0x3899, r25	; 0x803899 <inventory+0x3>
        SaveGameState();
    152a:	3f db       	rcall	.-2434   	; 0xbaa <SaveGameState>

        //Start at first location
        PopulateObject(route[0], &currObj);
    152c:	68 e4       	ldi	r22, 0x48	; 72
    152e:	7a e3       	ldi	r23, 0x3A	; 58
    1530:	80 91 08 3a 	lds	r24, 0x3A08	; 0x803a08 <route>
    1534:	90 91 09 3a 	lds	r25, 0x3A09	; 0x803a09 <route+0x1>
    1538:	b9 dd       	rcall	.-1166   	; 0x10ac <PopulateObject>
        currDepth = 0;
    153a:	10 92 8f 38 	sts	0x388F, r1	; 0x80388f <currDepth>

        //Play an effect if configured
        if ((effect < 0x0100) && (effect ^ currObj.byteField[EFFECTS])){
    153e:	80 91 93 38 	lds	r24, 0x3893	; 0x803893 <effect>
    1542:	90 91 94 38 	lds	r25, 0x3894	; 0x803894 <effect+0x1>
    1546:	8f 3f       	cpi	r24, 0xFF	; 255
    1548:	91 05       	cpc	r25, r1
    154a:	09 f0       	breq	.+2      	; 0x154e <CheckInput+0x9c>
    154c:	d0 f4       	brcc	.+52     	; 0x1582 <CheckInput+0xd0>
    154e:	80 91 4c 3a 	lds	r24, 0x3A4C	; 0x803a4c <currObj+0x4>
    1552:	90 e0       	ldi	r25, 0x00	; 0
    1554:	20 91 93 38 	lds	r18, 0x3893	; 0x803893 <effect>
    1558:	30 91 94 38 	lds	r19, 0x3894	; 0x803894 <effect+0x1>
    155c:	82 17       	cp	r24, r18
    155e:	93 07       	cpc	r25, r19
    1560:	81 f0       	breq	.+32     	; 0x1582 <CheckInput+0xd0>
            effect = currObj.byteField[EFFECTS];
    1562:	80 93 93 38 	sts	0x3893, r24	; 0x803893 <effect>
    1566:	90 93 94 38 	sts	0x3894, r25	; 0x803894 <effect+0x1>
            auStart = ((effect&0xE0)>0);
    156a:	80 91 93 38 	lds	r24, 0x3893	; 0x803893 <effect>
    156e:	90 91 94 38 	lds	r25, 0x3894	; 0x803894 <effect+0x1>
    1572:	80 7e       	andi	r24, 0xE0	; 224
    1574:	99 27       	eor	r25, r25
    1576:	21 e0       	ldi	r18, 0x01	; 1
    1578:	89 2b       	or	r24, r25
    157a:	09 f4       	brne	.+2      	; 0x157e <CheckInput+0xcc>
    157c:	20 e0       	ldi	r18, 0x00	; 0
    157e:	20 93 92 38 	sts	0x3892, r18	; 0x803892 <auStart>
        }
    }

    if (serRxDone){
    1582:	80 91 9c 38 	lds	r24, 0x389C	; 0x80389c <serRxDone>
    1586:	88 23       	and	r24, r24
    1588:	09 f4       	brne	.+2      	; 0x158c <CheckInput+0xda>
    158a:	03 c1       	rjmp	.+518    	; 0x1792 <CheckInput+0x2e0>

        //Special input requested from user by game
        if (specialInput[0]){
    158c:	80 91 37 39 	lds	r24, 0x3937	; 0x803937 <specialInput>
    1590:	88 23       	and	r24, r24
    1592:	19 f1       	breq	.+70     	; 0x15da <CheckInput+0x128>
            specialPassed = 0;
    1594:	10 92 36 39 	sts	0x3936, r1	; 0x803936 <specialPassed>
            data[0] = 'a';
    1598:	81 e6       	ldi	r24, 0x61	; 97
    159a:	f8 01       	movw	r30, r16
            
            //Normal code challenge
            if (StartsWith((uint8_t *)&serRx[0], &specialInput[0])) {
    159c:	80 83       	st	Z, r24
    159e:	67 e3       	ldi	r22, 0x37	; 55
    15a0:	79 e3       	ldi	r23, 0x39	; 57
    15a2:	83 ea       	ldi	r24, 0xA3	; 163
    15a4:	9a e3       	ldi	r25, 0x3A	; 58
    15a6:	b4 dc       	rcall	.-1688   	; 0xf10 <StartsWith>
    15a8:	88 23       	and	r24, r24
    15aa:	41 f0       	breq	.+16     	; 0x15bc <CheckInput+0x10a>
                specialPassed = 1;
    15ac:	81 e0       	ldi	r24, 0x01	; 1
    15ae:	80 93 36 39 	sts	0x3936, r24	; 0x803936 <specialPassed>
                specialInput[0] = 0;
    15b2:	10 92 37 39 	sts	0x3937, r1	; 0x803937 <specialInput>
                data[1] = 0;
    15b6:	f8 01       	movw	r30, r16
    15b8:	11 82       	std	Z+1, r1	; 0x01
    15ba:	08 c0       	rjmp	.+16     	; 0x15cc <CheckInput+0x11a>

            //Special challenge 1
            } else if ((specialInput[0] == '1')&&(specialInput[1] == '\0')) {
    15bc:	90 91 37 39 	lds	r25, 0x3937	; 0x803937 <specialInput>
    15c0:	91 33       	cpi	r25, 0x31	; 49
    15c2:	31 f4       	brne	.+12     	; 0x15d0 <CheckInput+0x11e>
    15c4:	90 91 38 39 	lds	r25, 0x3938	; 0x803938 <specialInput+0x1>
    15c8:	91 11       	cpse	r25, r1
    15ca:	02 c0       	rjmp	.+4      	; 0x15d0 <CheckInput+0x11e>
                    if (serTxDone) SerSend(&cheat[0]);
                }
            }
        } 
        //Data received, but not any of the commands above
        return 0;
    15cc:	80 e0       	ldi	r24, 0x00	; 0
    15ce:	e2 c0       	rjmp	.+452    	; 0x1794 <CheckInput+0x2e2>
            //Special challenge 1
            } else if ((specialInput[0] == '1')&&(specialInput[1] == '\0')) {
            
            //Wrong answer
            } else {
                specialInput[0] = 0;
    15d0:	10 92 37 39 	sts	0x3937, r1	; 0x803937 <specialInput>
                data[1] = 0;
    15d4:	f8 01       	movw	r30, r16
    15d6:	11 82       	std	Z+1, r1	; 0x01
    15d8:	dd c0       	rjmp	.+442    	; 0x1794 <CheckInput+0x2e2>
    15da:	d8 01       	movw	r26, r16
    }

    if (serRxDone){

        //Special input requested from user by game
        if (specialInput[0]){
    15dc:	80 e0       	ldi	r24, 0x00	; 0
    15de:	90 e0       	ldi	r25, 0x00	; 0
        
        //Normal input
        } else {
            //Read up to the \0 character and convert to lower case.
            for (uint8_t x=0; x<RXLEN; ++x){
                if ((serRx[x]<'A')||(serRx[x]>'Z')) data[x]=serRx[x]; else data[x]=serRx[x]|0x20;
    15e0:	fc 01       	movw	r30, r24
    15e2:	ed 55       	subi	r30, 0x5D	; 93
    15e4:	f5 4c       	sbci	r31, 0xC5	; 197
    15e6:	20 81       	ld	r18, Z
    15e8:	21 34       	cpi	r18, 0x41	; 65
    15ea:	18 f0       	brcs	.+6      	; 0x15f2 <CheckInput+0x140>
    15ec:	20 81       	ld	r18, Z
    15ee:	2b 35       	cpi	r18, 0x5B	; 91
    15f0:	10 f0       	brcs	.+4      	; 0x15f6 <CheckInput+0x144>
    15f2:	20 81       	ld	r18, Z
    15f4:	02 c0       	rjmp	.+4      	; 0x15fa <CheckInput+0x148>
    15f6:	20 81       	ld	r18, Z
    15f8:	20 62       	ori	r18, 0x20	; 32
    15fa:	2c 93       	st	X, r18
                if (serRx[x] == 0) {
    15fc:	20 81       	ld	r18, Z
    15fe:	21 11       	cpse	r18, r1
    1600:	05 c0       	rjmp	.+10     	; 0x160c <CheckInput+0x15a>
                    data[x] = 0;
    1602:	f8 01       	movw	r30, r16
    1604:	e8 0f       	add	r30, r24
    1606:	f1 1d       	adc	r31, r1
    1608:	10 82       	st	Z, r1
                    break;
    160a:	05 c0       	rjmp	.+10     	; 0x1616 <CheckInput+0x164>
    160c:	01 96       	adiw	r24, 0x01	; 1
    160e:	11 96       	adiw	r26, 0x01	; 1
            }
        
        //Normal input
        } else {
            //Read up to the \0 character and convert to lower case.
            for (uint8_t x=0; x<RXLEN; ++x){
    1610:	81 34       	cpi	r24, 0x41	; 65
    1612:	91 05       	cpc	r25, r1
    1614:	29 f7       	brne	.-54     	; 0x15e0 <CheckInput+0x12e>
                    break;
                }
            }

            //No text
            if (serRx[0] == 0){
    1616:	80 91 a3 3a 	lds	r24, 0x3AA3	; 0x803aa3 <serRx>
                data[0] = 0;
    161a:	f8 01       	movw	r30, r16
                    break;
                }
            }

            //No text
            if (serRx[0] == 0){
    161c:	81 11       	cpse	r24, r1
    161e:	05 c0       	rjmp	.+10     	; 0x162a <CheckInput+0x178>
                data[0] = 0;
    1620:	10 82       	st	Z, r1
                RXCNT = 0;
    1622:	1d ba       	out	0x1d, r1	; 29
                serRxDone = 0;
    1624:	10 92 9c 38 	sts	0x389C, r1	; 0x80389c <serRxDone>
    1628:	b4 c0       	rjmp	.+360    	; 0x1792 <CheckInput+0x2e0>
                return 1;
            }

            //Help text
            if ((data[0] == '?')||(data[0] == 'h')){
    162a:	80 81       	ld	r24, Z
    162c:	8f 33       	cpi	r24, 0x3F	; 63
    162e:	11 f0       	breq	.+4      	; 0x1634 <CheckInput+0x182>
    1630:	88 36       	cpi	r24, 0x68	; 104
    1632:	49 f4       	brne	.+18     	; 0x1646 <CheckInput+0x194>
    return 0;
}

//
void SetResponse(uint8_t number, uint16_t address, uint16_t length, uint8_t type){
    reactStr[0][number]=address;
    1634:	83 e9       	ldi	r24, 0x93	; 147
    1636:	9b e7       	ldi	r25, 0x7B	; 123
    1638:	80 93 48 39 	sts	0x3948, r24	; 0x803948 <reactStr>
    163c:	90 93 49 39 	sts	0x3949, r25	; 0x803949 <reactStr+0x1>
    reactStr[1][number]=length;
    1640:	8d e6       	ldi	r24, 0x6D	; 109
    1642:	94 e0       	ldi	r25, 0x04	; 4
    1644:	79 c0       	rjmp	.+242    	; 0x1738 <CheckInput+0x286>
                responseList = SetStandardResponse(1);
                return 1;
            }        
        
            //Alphabet text
            if (data[0] == 'a'){
    1646:	81 36       	cpi	r24, 0x61	; 97
    1648:	49 f4       	brne	.+18     	; 0x165c <CheckInput+0x1aa>
    return 0;
}

//
void SetResponse(uint8_t number, uint16_t address, uint16_t length, uint8_t type){
    reactStr[0][number]=address;
    164a:	8e e6       	ldi	r24, 0x6E	; 110
    164c:	9a e7       	ldi	r25, 0x7A	; 122
    164e:	80 93 48 39 	sts	0x3948, r24	; 0x803948 <reactStr>
    1652:	90 93 49 39 	sts	0x3949, r25	; 0x803949 <reactStr+0x1>
    reactStr[1][number]=length;
    1656:	85 e2       	ldi	r24, 0x25	; 37
    1658:	91 e0       	ldi	r25, 0x01	; 1
    165a:	6e c0       	rjmp	.+220    	; 0x1738 <CheckInput+0x286>
                responseList = SetStandardResponse(1);
                return 1;
            }

            //Whoami text
            if (data[0] == 'w'){
    165c:	87 37       	cpi	r24, 0x77	; 119
    165e:	09 f0       	breq	.+2      	; 0x1662 <CheckInput+0x1b0>
    1660:	61 c0       	rjmp	.+194    	; 0x1724 <CheckInput+0x272>
    return 0;
}

//
void SetResponse(uint8_t number, uint16_t address, uint16_t length, uint8_t type){
    reactStr[0][number]=address;
    1662:	8b ec       	ldi	r24, 0xCB	; 203
    1664:	96 e7       	ldi	r25, 0x76	; 118
    1666:	80 93 48 39 	sts	0x3948, r24	; 0x803948 <reactStr>
    166a:	90 93 49 39 	sts	0x3949, r25	; 0x803949 <reactStr+0x1>
    reactStr[1][number]=length;
    166e:	82 e1       	ldi	r24, 0x12	; 18
    1670:	90 e0       	ldi	r25, 0x00	; 0
    1672:	80 93 88 39 	sts	0x3988, r24	; 0x803988 <reactStr+0x40>
    1676:	90 93 89 39 	sts	0x3989, r25	; 0x803989 <reactStr+0x41>
    reactStr[2][number]=type;
    167a:	81 e0       	ldi	r24, 0x01	; 1
    167c:	90 e0       	ldi	r25, 0x00	; 0
    167e:	80 93 c8 39 	sts	0x39C8, r24	; 0x8039c8 <reactStr+0x80>
    1682:	90 93 c9 39 	sts	0x39C9, r25	; 0x8039c9 <reactStr+0x81>
            }

            //Whoami text
            if (data[0] == 'w'){
                SetResponse(0, A_HELLO, L_HELLO, TEASER);
                if (whoami == 1) {
    1686:	20 91 95 38 	lds	r18, 0x3895	; 0x803895 <whoami>
    168a:	21 30       	cpi	r18, 0x01	; 1
    168c:	19 f4       	brne	.+6      	; 0x1694 <CheckInput+0x1e2>
    return 0;
}

//
void SetResponse(uint8_t number, uint16_t address, uint16_t length, uint8_t type){
    reactStr[0][number]=address;
    168e:	25 ec       	ldi	r18, 0xC5	; 197
    1690:	36 e7       	ldi	r19, 0x76	; 118
    1692:	0f c0       	rjmp	.+30     	; 0x16b2 <CheckInput+0x200>
            //Whoami text
            if (data[0] == 'w'){
                SetResponse(0, A_HELLO, L_HELLO, TEASER);
                if (whoami == 1) {
                    SetResponse(1, A_ANUBIS, L_ANUBIS, TEASER);
                } else if (whoami == 2) {
    1694:	22 30       	cpi	r18, 0x02	; 2
    1696:	49 f4       	brne	.+18     	; 0x16aa <CheckInput+0x1f8>
    return 0;
}

//
void SetResponse(uint8_t number, uint16_t address, uint16_t length, uint8_t type){
    reactStr[0][number]=address;
    1698:	22 ec       	ldi	r18, 0xC2	; 194
    169a:	36 e7       	ldi	r19, 0x76	; 118
    169c:	20 93 4a 39 	sts	0x394A, r18	; 0x80394a <reactStr+0x2>
    16a0:	30 93 4b 39 	sts	0x394B, r19	; 0x80394b <reactStr+0x3>
    reactStr[1][number]=length;
    16a4:	23 e0       	ldi	r18, 0x03	; 3
    16a6:	30 e0       	ldi	r19, 0x00	; 0
    16a8:	1e c0       	rjmp	.+60     	; 0x16e6 <CheckInput+0x234>
                SetResponse(0, A_HELLO, L_HELLO, TEASER);
                if (whoami == 1) {
                    SetResponse(1, A_ANUBIS, L_ANUBIS, TEASER);
                } else if (whoami == 2) {
                    SetResponse(1, A_BES, L_BES, TEASER);
                } else if (whoami == 3) {
    16aa:	23 30       	cpi	r18, 0x03	; 3
    16ac:	49 f4       	brne	.+18     	; 0x16c0 <CheckInput+0x20e>
    return 0;
}

//
void SetResponse(uint8_t number, uint16_t address, uint16_t length, uint8_t type){
    reactStr[0][number]=address;
    16ae:	2c eb       	ldi	r18, 0xBC	; 188
    16b0:	36 e7       	ldi	r19, 0x76	; 118
    16b2:	20 93 4a 39 	sts	0x394A, r18	; 0x80394a <reactStr+0x2>
    16b6:	30 93 4b 39 	sts	0x394B, r19	; 0x80394b <reactStr+0x3>
    reactStr[1][number]=length;
    16ba:	26 e0       	ldi	r18, 0x06	; 6
    16bc:	30 e0       	ldi	r19, 0x00	; 0
    16be:	13 c0       	rjmp	.+38     	; 0x16e6 <CheckInput+0x234>
                    SetResponse(1, A_ANUBIS, L_ANUBIS, TEASER);
                } else if (whoami == 2) {
                    SetResponse(1, A_BES, L_BES, TEASER);
                } else if (whoami == 3) {
                    SetResponse(1, A_KHONSU, L_KHONSU, TEASER);
                } else if (whoami == 4) {
    16c0:	24 30       	cpi	r18, 0x04	; 4
    16c2:	49 f4       	brne	.+18     	; 0x16d6 <CheckInput+0x224>
    return 0;
}

//
void SetResponse(uint8_t number, uint16_t address, uint16_t length, uint8_t type){
    reactStr[0][number]=address;
    16c4:	27 eb       	ldi	r18, 0xB7	; 183
    16c6:	36 e7       	ldi	r19, 0x76	; 118
    16c8:	20 93 4a 39 	sts	0x394A, r18	; 0x80394a <reactStr+0x2>
    16cc:	30 93 4b 39 	sts	0x394B, r19	; 0x80394b <reactStr+0x3>
    reactStr[1][number]=length;
    16d0:	25 e0       	ldi	r18, 0x05	; 5
    16d2:	30 e0       	ldi	r19, 0x00	; 0
    16d4:	08 c0       	rjmp	.+16     	; 0x16e6 <CheckInput+0x234>
    return 0;
}

//
void SetResponse(uint8_t number, uint16_t address, uint16_t length, uint8_t type){
    reactStr[0][number]=address;
    16d6:	20 e4       	ldi	r18, 0x40	; 64
    16d8:	36 e7       	ldi	r19, 0x76	; 118
    16da:	20 93 4a 39 	sts	0x394A, r18	; 0x80394a <reactStr+0x2>
    16de:	30 93 4b 39 	sts	0x394B, r19	; 0x80394b <reactStr+0x3>
    reactStr[1][number]=length;
    16e2:	22 e4       	ldi	r18, 0x42	; 66
    16e4:	30 e0       	ldi	r19, 0x00	; 0
    16e6:	20 93 8a 39 	sts	0x398A, r18	; 0x80398a <reactStr+0x42>
    16ea:	30 93 8b 39 	sts	0x398B, r19	; 0x80398b <reactStr+0x43>
    reactStr[2][number]=type;
    16ee:	80 93 ca 39 	sts	0x39CA, r24	; 0x8039ca <reactStr+0x82>
    16f2:	90 93 cb 39 	sts	0x39CB, r25	; 0x8039cb <reactStr+0x83>
    return 0;
}

//
void SetResponse(uint8_t number, uint16_t address, uint16_t length, uint8_t type){
    reactStr[0][number]=address;
    16f6:	8d e9       	ldi	r24, 0x9D	; 157
    16f8:	96 e7       	ldi	r25, 0x76	; 118
    16fa:	80 93 4c 39 	sts	0x394C, r24	; 0x80394c <reactStr+0x4>
    16fe:	90 93 4d 39 	sts	0x394D, r25	; 0x80394d <reactStr+0x5>
    reactStr[1][number]=length;
    1702:	8a e1       	ldi	r24, 0x1A	; 26
    1704:	90 e0       	ldi	r25, 0x00	; 0
    1706:	80 93 8c 39 	sts	0x398C, r24	; 0x80398c <reactStr+0x44>
    170a:	90 93 8d 39 	sts	0x398D, r25	; 0x80398d <reactStr+0x45>
    reactStr[2][number]=type;
    170e:	81 e0       	ldi	r24, 0x01	; 1
    1710:	90 e0       	ldi	r25, 0x00	; 0
    1712:	80 93 cc 39 	sts	0x39CC, r24	; 0x8039cc <reactStr+0x84>
    1716:	90 93 cd 39 	sts	0x39CD, r25	; 0x8039cd <reactStr+0x85>
                    SetResponse(1, A_THOTH, L_THOTH, TEASER);
                } else {
                    SetResponse(1, A_ERROR, L_ERROR, TEASER);
                }
                SetResponse(2, A_PLEASED, L_PLEASED, TEASER);
                responseList = SetStandardResponse(3);
    171a:	83 e0       	ldi	r24, 0x03	; 3
    171c:	4b dc       	rcall	.-1898   	; 0xfb4 <SetStandardResponse>
    171e:	80 93 47 39 	sts	0x3947, r24	; 0x803947 <responseList>
    1722:	37 c0       	rjmp	.+110    	; 0x1792 <CheckInput+0x2e0>
                return 1;
            }

            //Quit text
            if (data[0] == 'q'){
    1724:	81 37       	cpi	r24, 0x71	; 113
    1726:	99 f4       	brne	.+38     	; 0x174e <CheckInput+0x29c>
    return 0;
}

//
void SetResponse(uint8_t number, uint16_t address, uint16_t length, uint8_t type){
    reactStr[0][number]=address;
    1728:	83 e0       	ldi	r24, 0x03	; 3
    172a:	9a e7       	ldi	r25, 0x7A	; 122
    172c:	80 93 48 39 	sts	0x3948, r24	; 0x803948 <reactStr>
    1730:	90 93 49 39 	sts	0x3949, r25	; 0x803949 <reactStr+0x1>
    reactStr[1][number]=length;
    1734:	84 e5       	ldi	r24, 0x54	; 84
    1736:	90 e0       	ldi	r25, 0x00	; 0
    1738:	80 93 88 39 	sts	0x3988, r24	; 0x803988 <reactStr+0x40>
    173c:	90 93 89 39 	sts	0x3989, r25	; 0x803989 <reactStr+0x41>
    reactStr[2][number]=type;
    1740:	81 e0       	ldi	r24, 0x01	; 1
    1742:	90 e0       	ldi	r25, 0x00	; 0
    1744:	80 93 c8 39 	sts	0x39C8, r24	; 0x8039c8 <reactStr+0x80>
    1748:	90 93 c9 39 	sts	0x39C9, r25	; 0x8039c9 <reactStr+0x81>
                responseList = SetStandardResponse(1);
                return 1;
            }

            //Cheat = reset badge!
            if (StartsWith(&data[0], "iddqd")){
    174c:	e7 cf       	rjmp	.-50     	; 0x171c <CheckInput+0x26a>
    174e:	6c eb       	ldi	r22, 0xBC	; 188
    1750:	75 ea       	ldi	r23, 0xA5	; 165
    1752:	c8 01       	movw	r24, r16
    1754:	dd db       	rcall	.-2118   	; 0xf10 <StartsWith>
    1756:	88 23       	and	r24, r24
    1758:	09 f4       	brne	.+2      	; 0x175c <CheckInput+0x2aa>
            
                //Reset game data by wiping the UUID bits
                for (uint8_t x=0; x<4; ++x){
                    WriteStatusBit(110+x, 0);
    175a:	38 cf       	rjmp	.-400    	; 0x15cc <CheckInput+0x11a>
    175c:	1e e6       	ldi	r17, 0x6E	; 110
    175e:	60 e0       	ldi	r22, 0x00	; 0
    1760:	81 2f       	mov	r24, r17
    1762:	aa da       	rcall	.-2732   	; 0xcb8 <WriteStatusBit>

            //Cheat = reset badge!
            if (StartsWith(&data[0], "iddqd")){
            
                //Reset game data by wiping the UUID bits
                for (uint8_t x=0; x<4; ++x){
    1764:	1f 5f       	subi	r17, 0xFF	; 255
    1766:	12 37       	cpi	r17, 0x72	; 114
                    WriteStatusBit(110+x, 0);
                }
                SaveGameState();
    1768:	d1 f7       	brne	.-12     	; 0x175e <CheckInput+0x2ac>

                uint8_t cheat[] = "Cheater! ";
    176a:	1f da       	rcall	.-3010   	; 0xbaa <SaveGameState>
    176c:	8a e0       	ldi	r24, 0x0A	; 10
    176e:	e2 ec       	ldi	r30, 0xC2	; 194
    1770:	f5 ea       	ldi	r31, 0xA5	; 165
    1772:	de 01       	movw	r26, r28
    1774:	11 96       	adiw	r26, 0x01	; 1
    1776:	01 90       	ld	r0, Z+
    1778:	0d 92       	st	X+, r0
                SerSpeed(60);
    177a:	8a 95       	dec	r24
    177c:	e1 f7       	brne	.-8      	; 0x1776 <CheckInput+0x2c4>
    177e:	8c e3       	ldi	r24, 0x3C	; 60
                while(1){
                    if (serTxDone) SerSend(&cheat[0]);
    1780:	31 d9       	rcall	.-3486   	; 0x9e4 <SerSpeed>
    1782:	80 91 04 38 	lds	r24, 0x3804	; 0x803804 <serTxDone>
    1786:	88 23       	and	r24, r24
    1788:	e1 f3       	breq	.-8      	; 0x1782 <CheckInput+0x2d0>
    178a:	ce 01       	movw	r24, r28
    178c:	01 96       	adiw	r24, 0x01	; 1
    178e:	19 d9       	rcall	.-3534   	; 0x9c2 <SerSend>
    1790:	f8 cf       	rjmp	.-16     	; 0x1782 <CheckInput+0x2d0>
        //Data received, but not any of the commands above
        return 0;
    }

    //Serial input not available yet
    return 1;
    1792:	81 e0       	ldi	r24, 0x01	; 1
}
    1794:	2a 96       	adiw	r28, 0x0a	; 10
    1796:	cd bf       	out	0x3d, r28	; 61
    1798:	de bf       	out	0x3e, r29	; 62
    179a:	df 91       	pop	r29
    179c:	cf 91       	pop	r28
    179e:	1f 91       	pop	r17
    17a0:	0f 91       	pop	r16
    17a2:	ff 90       	pop	r15
    17a4:	ef 90       	pop	r14
    17a6:	08 95       	ret

000017a8 <ProcessInput>:

//The game logic!
uint8_t ProcessInput(uint8_t *data){
    17a8:	8f 92       	push	r8
    17aa:	9f 92       	push	r9
    17ac:	af 92       	push	r10
    17ae:	bf 92       	push	r11
    17b0:	cf 92       	push	r12
    17b2:	df 92       	push	r13
    17b4:	ef 92       	push	r14
    17b6:	ff 92       	push	r15
    17b8:	0f 93       	push	r16
    17ba:	1f 93       	push	r17
    17bc:	cf 93       	push	r28
    17be:	df 93       	push	r29
    17c0:	8c 01       	movw	r16, r24
    static object_model_t actObj1, actObj2;
    uint8_t elements = 0;

    CleanInput(&data[0]);
    17c2:	b9 dd       	rcall	.-1166   	; 0x1336 <CleanInput>
    uint8_t inputLen = CleanInput(&data[0]);
    17c4:	c8 01       	movw	r24, r16
    17c6:	b7 dd       	rcall	.-1170   	; 0x1336 <CleanInput>
    17c8:	d8 2f       	mov	r29, r24

    if (inputLen) {
    17ca:	88 23       	and	r24, r24
    17cc:	09 f4       	brne	.+2      	; 0x17d0 <ProcessInput+0x28>
    17ce:	19 c6       	rjmp	.+3122   	; 0x2402 <ProcessInput+0xc5a>

        //eXit to previous location
        if (data[0] == 'x'){
    17d0:	d8 01       	movw	r26, r16
    17d2:	8c 91       	ld	r24, X
    17d4:	88 37       	cpi	r24, 0x78	; 120
    17d6:	29 f5       	brne	.+74     	; 0x1822 <ProcessInput+0x7a>

            //Standing in the Lobby?
            if ((route[currDepth] == 0)||(currDepth == 0)){
    17d8:	80 91 8f 38 	lds	r24, 0x388F	; 0x80388f <currDepth>
    17dc:	e8 2f       	mov	r30, r24
    17de:	f0 e0       	ldi	r31, 0x00	; 0
    17e0:	ee 0f       	add	r30, r30
    17e2:	ff 1f       	adc	r31, r31
    17e4:	e8 5f       	subi	r30, 0xF8	; 248
    17e6:	f5 4c       	sbci	r31, 0xC5	; 197
    17e8:	20 81       	ld	r18, Z
    17ea:	31 81       	ldd	r19, Z+1	; 0x01
    17ec:	23 2b       	or	r18, r19
    17ee:	11 f0       	breq	.+4      	; 0x17f4 <ProcessInput+0x4c>
    17f0:	81 11       	cpse	r24, r1
    17f2:	03 c0       	rjmp	.+6      	; 0x17fa <ProcessInput+0x52>
    return 0;
}

//
void SetResponse(uint8_t number, uint16_t address, uint16_t length, uint8_t type){
    reactStr[0][number]=address;
    17f4:	82 e8       	ldi	r24, 0x82	; 130
    17f6:	96 e7       	ldi	r25, 0x76	; 118
    17f8:	79 c0       	rjmp	.+242    	; 0x18ec <ProcessInput+0x144>
            //Standing in the Lobby?
            if ((route[currDepth] == 0)||(currDepth == 0)){
                SetResponse(elements++, A_NOTPOSSIBLE, L_NOTPOSSIBLE, TEASER);
            
            //Is there a way to go back?
            } else if (CheckState(currObj.byteField[OPEN_ACL])){
    17fa:	80 91 4e 3a 	lds	r24, 0x3A4E	; 0x803a4e <currObj+0x6>
    17fe:	d0 dc       	rcall	.-1632   	; 0x11a0 <CheckState>
    1800:	88 23       	and	r24, r24
    1802:	31 f0       	breq	.+12     	; 0x1810 <ProcessInput+0x68>
                --currDepth;
    1804:	e0 91 8f 38 	lds	r30, 0x388F	; 0x80388f <currDepth>
    1808:	e1 50       	subi	r30, 0x01	; 1
    180a:	e0 93 8f 38 	sts	0x388F, r30	; 0x80388f <currDepth>
    180e:	8d c0       	rjmp	.+282    	; 0x192a <ProcessInput+0x182>
                PopulateObject(route[currDepth], &currObj);
            
            //No way out, print denied message of location
            } else {
                SetResponse(elements++, currObj.addrStr[OPEN_ACL_MSG], currObj.lenStr[OPEN_ACL_MSG], GAME);               
    1810:	80 91 6a 3a 	lds	r24, 0x3A6A	; 0x803a6a <currObj+0x22>
    1814:	90 91 6b 3a 	lds	r25, 0x3A6B	; 0x803a6b <currObj+0x23>
    return 0;
}

//
void SetResponse(uint8_t number, uint16_t address, uint16_t length, uint8_t type){
    reactStr[0][number]=address;
    1818:	20 91 5c 3a 	lds	r18, 0x3A5C	; 0x803a5c <currObj+0x14>
    181c:	30 91 5d 3a 	lds	r19, 0x3A5D	; 0x803a5d <currObj+0x15>
    1820:	e4 c1       	rjmp	.+968    	; 0x1bea <ProcessInput+0x442>
            } else {
                SetResponse(elements++, currObj.addrStr[OPEN_ACL_MSG], currObj.lenStr[OPEN_ACL_MSG], GAME);               
            }   
        
        //Enter locations or Open objects    
        } else if ((data[0] == 'e')||(data[0] == 'o')) {
    1822:	85 36       	cpi	r24, 0x65	; 101
    1824:	19 f0       	breq	.+6      	; 0x182c <ProcessInput+0x84>
    1826:	8f 36       	cpi	r24, 0x6F	; 111
    1828:	09 f0       	breq	.+2      	; 0x182c <ProcessInput+0x84>
    182a:	9a c0       	rjmp	.+308    	; 0x1960 <ProcessInput+0x1b8>
                
            //Not possible, too many/little characters
            if (inputLen != 2){
    182c:	d2 30       	cpi	r29, 0x02	; 2
    182e:	11 f7       	brne	.-60     	; 0x17f4 <ProcessInput+0x4c>
                SetResponse(elements++, A_NOTPOSSIBLE, L_NOTPOSSIBLE, TEASER);
            } else {
                uint8_t canDo = 0;
                route[currDepth+1] = FindChild(route[currDepth], data[1], 0);
    1830:	c0 91 8f 38 	lds	r28, 0x388F	; 0x80388f <currDepth>
    1834:	d0 e0       	ldi	r29, 0x00	; 0
    1836:	fe 01       	movw	r30, r28
    1838:	ee 0f       	add	r30, r30
    183a:	ff 1f       	adc	r31, r31
    183c:	e8 5f       	subi	r30, 0xF8	; 248
    183e:	f5 4c       	sbci	r31, 0xC5	; 197
    1840:	40 e0       	ldi	r20, 0x00	; 0
    1842:	50 e0       	ldi	r21, 0x00	; 0
    1844:	d8 01       	movw	r26, r16
    1846:	11 96       	adiw	r26, 0x01	; 1
    1848:	6c 91       	ld	r22, X
    184a:	80 81       	ld	r24, Z
    184c:	91 81       	ldd	r25, Z+1	; 0x01
    184e:	0c dd       	rcall	.-1512   	; 0x1268 <FindChild>
    1850:	cc 0f       	add	r28, r28
    1852:	dd 1f       	adc	r29, r29
    1854:	c6 5f       	subi	r28, 0xF6	; 246
    1856:	d5 4c       	sbci	r29, 0xC5	; 197
    1858:	88 83       	st	Y, r24
    185a:	99 83       	std	Y+1, r25	; 0x01
                    
                //Child found?
                if (route[currDepth+1]) {
    185c:	90 91 8f 38 	lds	r25, 0x388F	; 0x80388f <currDepth>
    1860:	29 2f       	mov	r18, r25
    1862:	30 e0       	ldi	r19, 0x00	; 0
    1864:	f9 01       	movw	r30, r18
    1866:	ee 0f       	add	r30, r30
    1868:	ff 1f       	adc	r31, r31
    186a:	e6 5f       	subi	r30, 0xF6	; 246
    186c:	f5 4c       	sbci	r31, 0xC5	; 197
    186e:	40 81       	ld	r20, Z
    1870:	51 81       	ldd	r21, Z+1	; 0x01
    1872:	41 15       	cp	r20, r1
    1874:	51 05       	cpc	r21, r1
    1876:	21 f0       	breq	.+8      	; 0x1880 <ProcessInput+0xd8>
                    PopulateObject(route[currDepth+1], &actObj1);
    1878:	69 e0       	ldi	r22, 0x09	; 9
    187a:	79 e3       	ldi	r23, 0x39	; 57
    187c:	ca 01       	movw	r24, r20
    187e:	1c c0       	rjmp	.+56     	; 0x18b8 <ProcessInput+0x110>
                    canDo = 1;
                //No child, maybe a step back, letter ok?
                } else if (currDepth) {
    1880:	99 23       	and	r25, r25
    1882:	09 f4       	brne	.+2      	; 0x1886 <ProcessInput+0xde>
    1884:	32 c5       	rjmp	.+2660   	; 0x22ea <ProcessInput+0xb42>
                    if (CheckLetter(route[currDepth-1], data[1])) {
    1886:	22 0f       	add	r18, r18
    1888:	33 1f       	adc	r19, r19
    188a:	f9 01       	movw	r30, r18
    188c:	ea 5f       	subi	r30, 0xFA	; 250
    188e:	f5 4c       	sbci	r31, 0xC5	; 197
    1890:	d8 01       	movw	r26, r16
    1892:	11 96       	adiw	r26, 0x01	; 1
    1894:	6c 91       	ld	r22, X
    1896:	80 81       	ld	r24, Z
    1898:	91 81       	ldd	r25, Z+1	; 0x01
    189a:	92 dc       	rcall	.-1756   	; 0x11c0 <CheckLetter>
    189c:	88 23       	and	r24, r24
    189e:	09 f4       	brne	.+2      	; 0x18a2 <ProcessInput+0xfa>
    18a0:	24 c5       	rjmp	.+2632   	; 0x22ea <ProcessInput+0xb42>
                        PopulateObject(route[currDepth-1], &actObj1);
    18a2:	e0 91 8f 38 	lds	r30, 0x388F	; 0x80388f <currDepth>
    18a6:	f0 e0       	ldi	r31, 0x00	; 0
    18a8:	ee 0f       	add	r30, r30
    18aa:	ff 1f       	adc	r31, r31
    18ac:	ea 5f       	subi	r30, 0xFA	; 250
    18ae:	f5 4c       	sbci	r31, 0xC5	; 197
    18b0:	69 e0       	ldi	r22, 0x09	; 9
    18b2:	79 e3       	ldi	r23, 0x39	; 57
    18b4:	80 81       	ld	r24, Z
    18b6:	91 81       	ldd	r25, Z+1	; 0x01
    18b8:	f9 db       	rcall	.-2062   	; 0x10ac <PopulateObject>
                    }
                }

                //The candidate is found! Let's check if the action is legit
                if (canDo) {
                    if ((data[0] == 'e') && ((actObj1.byteField[ACTION_MASK]&ENTER)==0)) {
    18ba:	f8 01       	movw	r30, r16
    18bc:	80 81       	ld	r24, Z
    18be:	85 36       	cpi	r24, 0x65	; 101
    18c0:	69 f4       	brne	.+26     	; 0x18dc <ProcessInput+0x134>
    18c2:	80 91 11 39 	lds	r24, 0x3911	; 0x803911 <actObj1.3943+0x8>
    18c6:	80 fd       	sbrc	r24, 0
    18c8:	18 c0       	rjmp	.+48     	; 0x18fa <ProcessInput+0x152>
    return 0;
}

//
void SetResponse(uint8_t number, uint16_t address, uint16_t length, uint8_t type){
    reactStr[0][number]=address;
    18ca:	80 ea       	ldi	r24, 0xA0	; 160
    18cc:	99 e7       	ldi	r25, 0x79	; 121
    18ce:	80 93 48 39 	sts	0x3948, r24	; 0x803948 <reactStr>
    18d2:	90 93 49 39 	sts	0x3949, r25	; 0x803949 <reactStr+0x1>
    reactStr[1][number]=length;
    18d6:	8e e1       	ldi	r24, 0x1E	; 30
    18d8:	90 e0       	ldi	r25, 0x00	; 0
    18da:	88 c5       	rjmp	.+2832   	; 0x23ec <ProcessInput+0xc44>

                //The candidate is found! Let's check if the action is legit
                if (canDo) {
                    if ((data[0] == 'e') && ((actObj1.byteField[ACTION_MASK]&ENTER)==0)) {
                        SetResponse(elements++, A_CANTENTER, L_CANTENTER, TEASER);
                    } else if ((data[0] == 'o') && ((actObj1.byteField[ACTION_MASK]&OPEN)==0)) {
    18dc:	8f 36       	cpi	r24, 0x6F	; 111
    18de:	69 f4       	brne	.+26     	; 0x18fa <ProcessInput+0x152>
    18e0:	80 91 11 39 	lds	r24, 0x3911	; 0x803911 <actObj1.3943+0x8>
    18e4:	81 fd       	sbrc	r24, 1
    18e6:	09 c0       	rjmp	.+18     	; 0x18fa <ProcessInput+0x152>
    return 0;
}

//
void SetResponse(uint8_t number, uint16_t address, uint16_t length, uint8_t type){
    reactStr[0][number]=address;
    18e8:	85 e8       	ldi	r24, 0x85	; 133
    18ea:	99 e7       	ldi	r25, 0x79	; 121
    18ec:	80 93 48 39 	sts	0x3948, r24	; 0x803948 <reactStr>
    18f0:	90 93 49 39 	sts	0x3949, r25	; 0x803949 <reactStr+0x1>
    reactStr[1][number]=length;
    18f4:	8b e1       	ldi	r24, 0x1B	; 27
    18f6:	90 e0       	ldi	r25, 0x00	; 0
                        SetResponse(elements++, A_CANTENTER, L_CANTENTER, TEASER);
                    } else if ((data[0] == 'o') && ((actObj1.byteField[ACTION_MASK]&OPEN)==0)) {
                        SetResponse(elements++, A_CANTOPEN, L_CANTOPEN, TEASER);
                    
                    //Action legit, permission granted?
                    } else if (CheckState(actObj1.byteField[OPEN_ACL])) {
    18f8:	79 c5       	rjmp	.+2802   	; 0x23ec <ProcessInput+0xc44>
    18fa:	80 91 0f 39 	lds	r24, 0x390F	; 0x80390f <actObj1.3943+0x6>
    18fe:	50 dc       	rcall	.-1888   	; 0x11a0 <CheckState>
    1900:	e0 91 8f 38 	lds	r30, 0x388F	; 0x80388f <currDepth>
    1904:	88 23       	and	r24, r24
    1906:	e1 f0       	breq	.+56     	; 0x1940 <ProcessInput+0x198>
                            
                        //Yes! Check if we must move forward or backwards.
                        if (route[currDepth+1]) ++currDepth; else --currDepth;
    1908:	ae 2f       	mov	r26, r30
    190a:	b0 e0       	ldi	r27, 0x00	; 0
    190c:	aa 0f       	add	r26, r26
    190e:	bb 1f       	adc	r27, r27
    1910:	a6 5f       	subi	r26, 0xF6	; 246
    1912:	b5 4c       	sbci	r27, 0xC5	; 197
    1914:	8d 91       	ld	r24, X+
    1916:	9c 91       	ld	r25, X
    1918:	89 2b       	or	r24, r25
    191a:	11 f0       	breq	.+4      	; 0x1920 <ProcessInput+0x178>
    191c:	ef 5f       	subi	r30, 0xFF	; 255
    191e:	01 c0       	rjmp	.+2      	; 0x1922 <ProcessInput+0x17a>
    1920:	e1 50       	subi	r30, 0x01	; 1
    1922:	e0 93 8f 38 	sts	0x388F, r30	; 0x80388f <currDepth>
                        PopulateObject(route[currDepth], &currObj);
    1926:	e0 91 8f 38 	lds	r30, 0x388F	; 0x80388f <currDepth>
    192a:	f0 e0       	ldi	r31, 0x00	; 0
    192c:	ee 0f       	add	r30, r30
    192e:	ff 1f       	adc	r31, r31
    1930:	e8 5f       	subi	r30, 0xF8	; 248
    1932:	f5 4c       	sbci	r31, 0xC5	; 197
    1934:	68 e4       	ldi	r22, 0x48	; 72
    1936:	7a e3       	ldi	r23, 0x3A	; 58
    1938:	80 81       	ld	r24, Z
    193a:	91 81       	ldd	r25, Z+1	; 0x01
    193c:	b7 db       	rcall	.-2194   	; 0x10ac <PopulateObject>
    193e:	ea c3       	rjmp	.+2004   	; 0x2114 <ProcessInput+0x96c>
                                                  
                    //Not granted!
                    } else {
                        route[currDepth+1] = 0;
    1940:	f0 e0       	ldi	r31, 0x00	; 0
    1942:	ee 0f       	add	r30, r30
    1944:	ff 1f       	adc	r31, r31
    1946:	e6 5f       	subi	r30, 0xF6	; 246
    1948:	f5 4c       	sbci	r31, 0xC5	; 197
    194a:	10 82       	st	Z, r1
    194c:	11 82       	std	Z+1, r1	; 0x01
                        SetResponse(elements++, actObj1.addrStr[OPEN_ACL_MSG], actObj1.lenStr[OPEN_ACL_MSG], GAME);                
    194e:	80 91 2b 39 	lds	r24, 0x392B	; 0x80392b <actObj1.3943+0x22>
    1952:	90 91 2c 39 	lds	r25, 0x392C	; 0x80392c <actObj1.3943+0x23>
    return 0;
}

//
void SetResponse(uint8_t number, uint16_t address, uint16_t length, uint8_t type){
    reactStr[0][number]=address;
    1956:	20 91 1d 39 	lds	r18, 0x391D	; 0x80391d <actObj1.3943+0x14>
    195a:	30 91 1e 39 	lds	r19, 0x391E	; 0x80391e <actObj1.3943+0x15>
    195e:	45 c1       	rjmp	.+650    	; 0x1bea <ProcessInput+0x442>
                    SetResponse(elements++, A_DONTSEE, L_DONTSEE, TEASER);                
                }
            }

        //Look around or at objects
        } else if (data[0] == 'l') {
    1960:	8c 36       	cpi	r24, 0x6C	; 108
    1962:	09 f0       	breq	.+2      	; 0x1966 <ProcessInput+0x1be>
    1964:	4f c1       	rjmp	.+670    	; 0x1c04 <ProcessInput+0x45c>
    1966:	c0 91 8f 38 	lds	r28, 0x388F	; 0x80388f <currDepth>
            if (inputLen == 1) {
    196a:	d1 30       	cpi	r29, 0x01	; 1
    196c:	09 f0       	breq	.+2      	; 0x1970 <ProcessInput+0x1c8>
    196e:	f2 c0       	rjmp	.+484    	; 0x1b54 <ProcessInput+0x3ac>

                //Show info about this area first
                SetResponse(elements++, currObj.addrStr[DESC], currObj.lenStr[DESC],GAME);
    1970:	80 91 64 3a 	lds	r24, 0x3A64	; 0x803a64 <currObj+0x1c>
    1974:	90 91 65 3a 	lds	r25, 0x3A65	; 0x803a65 <currObj+0x1d>
    return 0;
}

//
void SetResponse(uint8_t number, uint16_t address, uint16_t length, uint8_t type){
    reactStr[0][number]=address;
    1978:	20 91 56 3a 	lds	r18, 0x3A56	; 0x803a56 <currObj+0xe>
    197c:	30 91 57 3a 	lds	r19, 0x3A57	; 0x803a57 <currObj+0xf>
    1980:	20 93 48 39 	sts	0x3948, r18	; 0x803948 <reactStr>
    1984:	30 93 49 39 	sts	0x3949, r19	; 0x803949 <reactStr+0x1>
    reactStr[1][number]=length;
    1988:	80 93 88 39 	sts	0x3988, r24	; 0x803988 <reactStr+0x40>
    198c:	90 93 89 39 	sts	0x3989, r25	; 0x803989 <reactStr+0x41>
    reactStr[2][number]=type;
    1990:	10 92 c8 39 	sts	0x39C8, r1	; 0x8039c8 <reactStr+0x80>
    1994:	10 92 c9 39 	sts	0x39C9, r1	; 0x8039c9 <reactStr+0x81>
    return 0;
}

//
void SetResponse(uint8_t number, uint16_t address, uint16_t length, uint8_t type){
    reactStr[0][number]=address;
    1998:	8b e5       	ldi	r24, 0x5B	; 91
    199a:	9a e7       	ldi	r25, 0x7A	; 122
    199c:	80 93 4a 39 	sts	0x394A, r24	; 0x80394a <reactStr+0x2>
    19a0:	90 93 4b 39 	sts	0x394B, r25	; 0x80394b <reactStr+0x3>
    reactStr[1][number]=length;
    19a4:	82 e0       	ldi	r24, 0x02	; 2
    19a6:	90 e0       	ldi	r25, 0x00	; 0
    19a8:	80 93 8a 39 	sts	0x398A, r24	; 0x80398a <reactStr+0x42>
    19ac:	90 93 8b 39 	sts	0x398B, r25	; 0x80398b <reactStr+0x43>
    reactStr[2][number]=type;
    19b0:	81 e0       	ldi	r24, 0x01	; 1
    19b2:	90 e0       	ldi	r25, 0x00	; 0
    19b4:	80 93 ca 39 	sts	0x39CA, r24	; 0x8039ca <reactStr+0x82>
    19b8:	90 93 cb 39 	sts	0x39CB, r25	; 0x8039cb <reactStr+0x83>
    return 0;
}

//
void SetResponse(uint8_t number, uint16_t address, uint16_t length, uint8_t type){
    reactStr[0][number]=address;
    19bc:	2e ee       	ldi	r18, 0xEE	; 238
    19be:	39 e7       	ldi	r19, 0x79	; 121
    19c0:	20 93 4c 39 	sts	0x394C, r18	; 0x80394c <reactStr+0x4>
    19c4:	30 93 4d 39 	sts	0x394D, r19	; 0x80394d <reactStr+0x5>
    reactStr[1][number]=length;
    19c8:	25 e1       	ldi	r18, 0x15	; 21
    19ca:	30 e0       	ldi	r19, 0x00	; 0
    19cc:	20 93 8c 39 	sts	0x398C, r18	; 0x80398c <reactStr+0x44>
    19d0:	30 93 8d 39 	sts	0x398D, r19	; 0x80398d <reactStr+0x45>
    reactStr[2][number]=type;
    19d4:	80 93 cc 39 	sts	0x39CC, r24	; 0x8039cc <reactStr+0x84>
    19d8:	90 93 cd 39 	sts	0x39CD, r25	; 0x8039cd <reactStr+0x85>
                SetResponse(elements++, A_LF, 2, TEASER);
                SetResponse(elements++, A_LOOK, L_LOOK, TEASER);
                //SetResponse(elements++, A_SPACE, L_SPACE, TEASER);

                //Check the visible children first
                route[currDepth+1] = 0;
    19dc:	d0 e0       	ldi	r29, 0x00	; 0
    19de:	cc 0f       	add	r28, r28
    19e0:	dd 1f       	adc	r29, r29
    19e2:	c6 5f       	subi	r28, 0xF6	; 246
    19e4:	d5 4c       	sbci	r29, 0xC5	; 197
    19e6:	18 82       	st	Y, r1
    19e8:	19 82       	std	Y+1, r1	; 0x01
            if (inputLen == 1) {

                //Show info about this area first
                SetResponse(elements++, currObj.addrStr[DESC], currObj.lenStr[DESC],GAME);
                SetResponse(elements++, A_LF, 2, TEASER);
                SetResponse(elements++, A_LOOK, L_LOOK, TEASER);
    19ea:	d3 e0       	ldi	r29, 0x03	; 3
    return 0;
}

//
void SetResponse(uint8_t number, uint16_t address, uint16_t length, uint8_t type){
    reactStr[0][number]=address;
    19ec:	c9 e5       	ldi	r28, 0x59	; 89
    19ee:	ec 2e       	mov	r14, r28
    19f0:	ca e7       	ldi	r28, 0x7A	; 122
    19f2:	fc 2e       	mov	r15, r28
    reactStr[1][number]=length;
    19f4:	82 e0       	ldi	r24, 0x02	; 2
    19f6:	c8 2e       	mov	r12, r24
    19f8:	d1 2c       	mov	r13, r1
    reactStr[2][number]=type;
    19fa:	aa 24       	eor	r10, r10
    19fc:	a3 94       	inc	r10
    19fe:	b1 2c       	mov	r11, r1
                //SetResponse(elements++, A_SPACE, L_SPACE, TEASER);

                //Check the visible children first
                route[currDepth+1] = 0;
                do{
                    route[currDepth+1] = FindChild(route[currDepth], 0, route[currDepth+1]);
    1a00:	80 91 8f 38 	lds	r24, 0x388F	; 0x80388f <currDepth>
    1a04:	90 e0       	ldi	r25, 0x00	; 0
    1a06:	9c 01       	movw	r18, r24
    1a08:	22 0f       	add	r18, r18
    1a0a:	33 1f       	adc	r19, r19
    1a0c:	f9 01       	movw	r30, r18
    1a0e:	e6 5f       	subi	r30, 0xF6	; 246
    1a10:	f5 4c       	sbci	r31, 0xC5	; 197
    1a12:	4f 01       	movw	r8, r30
    1a14:	40 81       	ld	r20, Z
    1a16:	51 81       	ldd	r21, Z+1	; 0x01
    1a18:	f9 01       	movw	r30, r18
    1a1a:	e8 5f       	subi	r30, 0xF8	; 248
    1a1c:	f5 4c       	sbci	r31, 0xC5	; 197
    1a1e:	60 e0       	ldi	r22, 0x00	; 0
    1a20:	80 81       	ld	r24, Z
    1a22:	91 81       	ldd	r25, Z+1	; 0x01
    1a24:	21 dc       	rcall	.-1982   	; 0x1268 <FindChild>
    1a26:	d4 01       	movw	r26, r8
    1a28:	8d 93       	st	X+, r24
    1a2a:	9c 93       	st	X, r25
                    if (route[currDepth+1]) {
    1a2c:	e0 91 8f 38 	lds	r30, 0x388F	; 0x80388f <currDepth>
    1a30:	f0 e0       	ldi	r31, 0x00	; 0
    1a32:	ee 0f       	add	r30, r30
    1a34:	ff 1f       	adc	r31, r31
    1a36:	e6 5f       	subi	r30, 0xF6	; 246
    1a38:	f5 4c       	sbci	r31, 0xC5	; 197
    1a3a:	80 81       	ld	r24, Z
    1a3c:	91 81       	ldd	r25, Z+1	; 0x01
    1a3e:	00 97       	sbiw	r24, 0x00	; 0
    1a40:	09 f4       	brne	.+2      	; 0x1a44 <ProcessInput+0x29c>
    1a42:	49 c0       	rjmp	.+146    	; 0x1ad6 <ProcessInput+0x32e>
                        if ((route[currDepth+1] != inventory[0])&&(route[currDepth+1] != inventory[1])) {
    1a44:	20 91 96 38 	lds	r18, 0x3896	; 0x803896 <inventory>
    1a48:	30 91 97 38 	lds	r19, 0x3897	; 0x803897 <inventory+0x1>
    1a4c:	82 17       	cp	r24, r18
    1a4e:	93 07       	cpc	r25, r19
    1a50:	09 f4       	brne	.+2      	; 0x1a54 <ProcessInput+0x2ac>
    1a52:	41 c0       	rjmp	.+130    	; 0x1ad6 <ProcessInput+0x32e>
    1a54:	20 91 98 38 	lds	r18, 0x3898	; 0x803898 <inventory+0x2>
    1a58:	30 91 99 38 	lds	r19, 0x3899	; 0x803899 <inventory+0x3>
    1a5c:	82 17       	cp	r24, r18
    1a5e:	93 07       	cpc	r25, r19
                            PopulateObject(route[currDepth+1], &actObj1);
    1a60:	d1 f1       	breq	.+116    	; 0x1ad6 <ProcessInput+0x32e>
    1a62:	69 e0       	ldi	r22, 0x09	; 9
    1a64:	79 e3       	ldi	r23, 0x39	; 57
    1a66:	22 db       	rcall	.-2492   	; 0x10ac <PopulateObject>
                            SetResponse(elements++, actObj1.addrStr[NAME], actObj1.lenStr[NAME],GAME);
    1a68:	80 91 23 39 	lds	r24, 0x3923	; 0x803923 <actObj1.3943+0x1a>
    1a6c:	90 91 24 39 	lds	r25, 0x3924	; 0x803924 <actObj1.3943+0x1b>
    return 0;
}

//
void SetResponse(uint8_t number, uint16_t address, uint16_t length, uint8_t type){
    reactStr[0][number]=address;
    1a70:	ed 2f       	mov	r30, r29
    1a72:	f0 e0       	ldi	r31, 0x00	; 0
    1a74:	df 01       	movw	r26, r30
    1a76:	aa 0f       	add	r26, r26
    1a78:	bb 1f       	adc	r27, r27
    1a7a:	a8 5b       	subi	r26, 0xB8	; 184
    1a7c:	b6 4c       	sbci	r27, 0xC6	; 198
    1a7e:	20 91 15 39 	lds	r18, 0x3915	; 0x803915 <actObj1.3943+0xc>
    1a82:	30 91 16 39 	lds	r19, 0x3916	; 0x803916 <actObj1.3943+0xd>
    1a86:	2d 93       	st	X+, r18
    1a88:	3c 93       	st	X, r19
    reactStr[1][number]=length;
    1a8a:	df 01       	movw	r26, r30
    1a8c:	aa 0f       	add	r26, r26
    1a8e:	bb 1f       	adc	r27, r27
    1a90:	a8 57       	subi	r26, 0x78	; 120
    1a92:	b6 4c       	sbci	r27, 0xC6	; 198
    1a94:	8d 93       	st	X+, r24
    1a96:	9c 93       	st	X, r25
    reactStr[2][number]=type;
    1a98:	ee 0f       	add	r30, r30
    1a9a:	ff 1f       	adc	r31, r31
    1a9c:	e8 53       	subi	r30, 0x38	; 56
    1a9e:	f6 4c       	sbci	r31, 0xC6	; 198
    1aa0:	10 82       	st	Z, r1
    1aa2:	11 82       	std	Z+1, r1	; 0x01
    return 0;
}

//
void SetResponse(uint8_t number, uint16_t address, uint16_t length, uint8_t type){
    reactStr[0][number]=address;
    1aa4:	81 e0       	ldi	r24, 0x01	; 1
    1aa6:	8d 0f       	add	r24, r29
    1aa8:	90 e0       	ldi	r25, 0x00	; 0
    1aaa:	de 5f       	subi	r29, 0xFE	; 254
    1aac:	fc 01       	movw	r30, r24
    1aae:	ee 0f       	add	r30, r30
    1ab0:	ff 1f       	adc	r31, r31
    1ab2:	e8 5b       	subi	r30, 0xB8	; 184
    1ab4:	f6 4c       	sbci	r31, 0xC6	; 198
    1ab6:	e0 82       	st	Z, r14
    1ab8:	f1 82       	std	Z+1, r15	; 0x01
    reactStr[1][number]=length;
    1aba:	fc 01       	movw	r30, r24
    1abc:	ee 0f       	add	r30, r30
    1abe:	ff 1f       	adc	r31, r31
    1ac0:	e8 57       	subi	r30, 0x78	; 120
    1ac2:	f6 4c       	sbci	r31, 0xC6	; 198
    1ac4:	c0 82       	st	Z, r12
    1ac6:	d1 82       	std	Z+1, r13	; 0x01
    reactStr[2][number]=type;
    1ac8:	88 0f       	add	r24, r24
    1aca:	99 1f       	adc	r25, r25
    1acc:	fc 01       	movw	r30, r24
    1ace:	e8 53       	subi	r30, 0x38	; 56
    1ad0:	f6 4c       	sbci	r31, 0xC6	; 198
    1ad2:	a0 82       	st	Z, r10
    1ad4:	b1 82       	std	Z+1, r11	; 0x01
                            SetResponse(elements++, actObj1.addrStr[NAME], actObj1.lenStr[NAME],GAME);
                            SetResponse(elements++, A_COMMA, L_COMMA, TEASER);
                            //SetResponse(elements++, A_SPACE, L_SPACE, TEASER);
                        }
                    }
                }while (route[currDepth+1]);
    1ad6:	20 91 8f 38 	lds	r18, 0x388F	; 0x80388f <currDepth>
    1ada:	82 2f       	mov	r24, r18
    1adc:	90 e0       	ldi	r25, 0x00	; 0
    1ade:	fc 01       	movw	r30, r24
    1ae0:	ee 0f       	add	r30, r30
    1ae2:	ff 1f       	adc	r31, r31
    1ae4:	e6 5f       	subi	r30, 0xF6	; 246
    1ae6:	f5 4c       	sbci	r31, 0xC5	; 197
    1ae8:	40 81       	ld	r20, Z
    1aea:	51 81       	ldd	r21, Z+1	; 0x01
    1aec:	45 2b       	or	r20, r21
    1aee:	09 f0       	breq	.+2      	; 0x1af2 <ProcessInput+0x34a>
    1af0:	87 cf       	rjmp	.-242    	; 0x1a00 <ProcessInput+0x258>

                //Look back if not on level 0
                if (currDepth) {
    1af2:	22 23       	and	r18, r18
                    PopulateObject(route[currDepth-1], &actObj1);
    1af4:	61 f1       	breq	.+88     	; 0x1b4e <ProcessInput+0x3a6>
    1af6:	88 0f       	add	r24, r24
    1af8:	99 1f       	adc	r25, r25
    1afa:	fc 01       	movw	r30, r24
    1afc:	ea 5f       	subi	r30, 0xFA	; 250
    1afe:	f5 4c       	sbci	r31, 0xC5	; 197
    1b00:	69 e0       	ldi	r22, 0x09	; 9
    1b02:	79 e3       	ldi	r23, 0x39	; 57
    1b04:	80 81       	ld	r24, Z
    1b06:	91 81       	ldd	r25, Z+1	; 0x01
    1b08:	d1 da       	rcall	.-2654   	; 0x10ac <PopulateObject>
                    SetResponse(elements++, actObj1.addrStr[NAME], actObj1.lenStr[NAME],GAME);
    1b0a:	20 91 23 39 	lds	r18, 0x3923	; 0x803923 <actObj1.3943+0x1a>
    1b0e:	30 91 24 39 	lds	r19, 0x3924	; 0x803924 <actObj1.3943+0x1b>
    1b12:	c1 e0       	ldi	r28, 0x01	; 1
    1b14:	cd 0f       	add	r28, r29
    return 0;
}

//
void SetResponse(uint8_t number, uint16_t address, uint16_t length, uint8_t type){
    reactStr[0][number]=address;
    1b16:	8d 2f       	mov	r24, r29
    1b18:	90 e0       	ldi	r25, 0x00	; 0
    1b1a:	fc 01       	movw	r30, r24
    1b1c:	ee 0f       	add	r30, r30
    1b1e:	ff 1f       	adc	r31, r31
    1b20:	e8 5b       	subi	r30, 0xB8	; 184
    1b22:	f6 4c       	sbci	r31, 0xC6	; 198
    1b24:	40 91 15 39 	lds	r20, 0x3915	; 0x803915 <actObj1.3943+0xc>
    1b28:	50 91 16 39 	lds	r21, 0x3916	; 0x803916 <actObj1.3943+0xd>
    1b2c:	40 83       	st	Z, r20
    1b2e:	51 83       	std	Z+1, r21	; 0x01
    reactStr[1][number]=length;
    1b30:	fc 01       	movw	r30, r24
    1b32:	ee 0f       	add	r30, r30
    1b34:	ff 1f       	adc	r31, r31
    1b36:	e8 57       	subi	r30, 0x78	; 120
    1b38:	f6 4c       	sbci	r31, 0xC6	; 198
    1b3a:	20 83       	st	Z, r18
    1b3c:	31 83       	std	Z+1, r19	; 0x01
    reactStr[2][number]=type;
    1b3e:	88 0f       	add	r24, r24
    1b40:	99 1f       	adc	r25, r25
    1b42:	fc 01       	movw	r30, r24
    1b44:	e8 53       	subi	r30, 0x38	; 56
    1b46:	f6 4c       	sbci	r31, 0xC6	; 198
    1b48:	10 82       	st	Z, r1
    1b4a:	11 82       	std	Z+1, r1	; 0x01
    1b4c:	bc c3       	rjmp	.+1912   	; 0x22c6 <ProcessInput+0xb1e>

                //Look back if not on level 0
                if (currDepth) {
                    PopulateObject(route[currDepth-1], &actObj1);
                    SetResponse(elements++, actObj1.addrStr[NAME], actObj1.lenStr[NAME],GAME);
                } else elements-=1;
    1b4e:	cf ef       	ldi	r28, 0xFF	; 255
    1b50:	cd 0f       	add	r28, r29
    1b52:	b9 c3       	rjmp	.+1906   	; 0x22c6 <ProcessInput+0xb1e>

            } else {
                route[currDepth+1] = FindChild(route[currDepth], data[1], 0);
    1b54:	d0 e0       	ldi	r29, 0x00	; 0
    1b56:	fe 01       	movw	r30, r28
    1b58:	ee 0f       	add	r30, r30
    1b5a:	ff 1f       	adc	r31, r31
    1b5c:	e8 5f       	subi	r30, 0xF8	; 248
    1b5e:	f5 4c       	sbci	r31, 0xC5	; 197
    1b60:	40 e0       	ldi	r20, 0x00	; 0
    1b62:	50 e0       	ldi	r21, 0x00	; 0
    1b64:	d8 01       	movw	r26, r16
    1b66:	11 96       	adiw	r26, 0x01	; 1
    1b68:	6c 91       	ld	r22, X
    1b6a:	80 81       	ld	r24, Z
    1b6c:	91 81       	ldd	r25, Z+1	; 0x01
    1b6e:	7c db       	rcall	.-2312   	; 0x1268 <FindChild>
    1b70:	cc 0f       	add	r28, r28
    1b72:	dd 1f       	adc	r29, r29
    1b74:	c6 5f       	subi	r28, 0xF6	; 246
    1b76:	d5 4c       	sbci	r29, 0xC5	; 197
    1b78:	88 83       	st	Y, r24
    1b7a:	99 83       	std	Y+1, r25	; 0x01
                if (route[currDepth+1]) {
    1b7c:	90 91 8f 38 	lds	r25, 0x388F	; 0x80388f <currDepth>
    1b80:	29 2f       	mov	r18, r25
    1b82:	30 e0       	ldi	r19, 0x00	; 0
    1b84:	f9 01       	movw	r30, r18
    1b86:	ee 0f       	add	r30, r30
    1b88:	ff 1f       	adc	r31, r31
    1b8a:	e6 5f       	subi	r30, 0xF6	; 246
    1b8c:	f5 4c       	sbci	r31, 0xC5	; 197
    1b8e:	40 81       	ld	r20, Z
    1b90:	51 81       	ldd	r21, Z+1	; 0x01
    1b92:	41 15       	cp	r20, r1
    1b94:	51 05       	cpc	r21, r1
    1b96:	21 f0       	breq	.+8      	; 0x1ba0 <ProcessInput+0x3f8>
                    PopulateObject(route[currDepth+1], &actObj1);
    1b98:	69 e0       	ldi	r22, 0x09	; 9
    1b9a:	79 e3       	ldi	r23, 0x39	; 57
    1b9c:	ca 01       	movw	r24, r20
    1b9e:	1c c0       	rjmp	.+56     	; 0x1bd8 <ProcessInput+0x430>
                    SetResponse(elements++, actObj1.addrStr[DESC], actObj1.lenStr[DESC],GAME);   
                } else if (currDepth) {
    1ba0:	99 23       	and	r25, r25
    1ba2:	09 f4       	brne	.+2      	; 0x1ba6 <ProcessInput+0x3fe>
                    if (CheckLetter(route[currDepth-1], data[1])) {
    1ba4:	a2 c3       	rjmp	.+1860   	; 0x22ea <ProcessInput+0xb42>
    1ba6:	22 0f       	add	r18, r18
    1ba8:	33 1f       	adc	r19, r19
    1baa:	f9 01       	movw	r30, r18
    1bac:	ea 5f       	subi	r30, 0xFA	; 250
    1bae:	f5 4c       	sbci	r31, 0xC5	; 197
    1bb0:	d8 01       	movw	r26, r16
    1bb2:	11 96       	adiw	r26, 0x01	; 1
    1bb4:	6c 91       	ld	r22, X
    1bb6:	80 81       	ld	r24, Z
    1bb8:	91 81       	ldd	r25, Z+1	; 0x01
    1bba:	02 db       	rcall	.-2556   	; 0x11c0 <CheckLetter>
    1bbc:	88 23       	and	r24, r24
    1bbe:	09 f4       	brne	.+2      	; 0x1bc2 <ProcessInput+0x41a>
                        PopulateObject(route[currDepth-1], &actObj1);
    1bc0:	a9 c2       	rjmp	.+1362   	; 0x2114 <ProcessInput+0x96c>
    1bc2:	e0 91 8f 38 	lds	r30, 0x388F	; 0x80388f <currDepth>
    1bc6:	f0 e0       	ldi	r31, 0x00	; 0
    1bc8:	ee 0f       	add	r30, r30
    1bca:	ff 1f       	adc	r31, r31
    1bcc:	ea 5f       	subi	r30, 0xFA	; 250
    1bce:	f5 4c       	sbci	r31, 0xC5	; 197
    1bd0:	69 e0       	ldi	r22, 0x09	; 9
    1bd2:	79 e3       	ldi	r23, 0x39	; 57
    1bd4:	80 81       	ld	r24, Z
    1bd6:	91 81       	ldd	r25, Z+1	; 0x01
    1bd8:	69 da       	rcall	.-2862   	; 0x10ac <PopulateObject>
                        SetResponse(elements++, actObj1.addrStr[DESC], actObj1.lenStr[DESC],GAME);
    1bda:	80 91 25 39 	lds	r24, 0x3925	; 0x803925 <actObj1.3943+0x1c>
    1bde:	90 91 26 39 	lds	r25, 0x3926	; 0x803926 <actObj1.3943+0x1d>
    return 0;
}

//
void SetResponse(uint8_t number, uint16_t address, uint16_t length, uint8_t type){
    reactStr[0][number]=address;
    1be2:	20 91 17 39 	lds	r18, 0x3917	; 0x803917 <actObj1.3943+0xe>
    1be6:	30 91 18 39 	lds	r19, 0x3918	; 0x803918 <actObj1.3943+0xf>
    1bea:	20 93 48 39 	sts	0x3948, r18	; 0x803948 <reactStr>
    1bee:	30 93 49 39 	sts	0x3949, r19	; 0x803949 <reactStr+0x1>
    reactStr[1][number]=length;
    1bf2:	80 93 88 39 	sts	0x3988, r24	; 0x803988 <reactStr+0x40>
    1bf6:	90 93 89 39 	sts	0x3989, r25	; 0x803989 <reactStr+0x41>
    reactStr[2][number]=type;
    1bfa:	10 92 c8 39 	sts	0x39C8, r1	; 0x8039c8 <reactStr+0x80>
    1bfe:	10 92 c9 39 	sts	0x39C9, r1	; 0x8039c9 <reactStr+0x81>
    1c02:	60 c3       	rjmp	.+1728   	; 0x22c4 <ProcessInput+0xb1c>
                    SetResponse(elements++, A_DONTSEE, L_DONTSEE, TEASER);
                }
            }
        
        //Pick up an object
        } else if (data[0] == 'p') {
    1c04:	80 37       	cpi	r24, 0x70	; 112
    1c06:	09 f0       	breq	.+2      	; 0x1c0a <ProcessInput+0x462>
    1c08:	8f c0       	rjmp	.+286    	; 0x1d28 <ProcessInput+0x580>
            if (inventory[0]&&inventory[1]) {
    1c0a:	80 91 96 38 	lds	r24, 0x3896	; 0x803896 <inventory>
    1c0e:	90 91 97 38 	lds	r25, 0x3897	; 0x803897 <inventory+0x1>
    1c12:	89 2b       	or	r24, r25
    1c14:	79 f0       	breq	.+30     	; 0x1c34 <ProcessInput+0x48c>
    1c16:	80 91 98 38 	lds	r24, 0x3898	; 0x803898 <inventory+0x2>
    1c1a:	90 91 99 38 	lds	r25, 0x3899	; 0x803899 <inventory+0x3>
    1c1e:	89 2b       	or	r24, r25
    1c20:	49 f0       	breq	.+18     	; 0x1c34 <ProcessInput+0x48c>
    return 0;
}

//
void SetResponse(uint8_t number, uint16_t address, uint16_t length, uint8_t type){
    reactStr[0][number]=address;
    1c22:	85 e4       	ldi	r24, 0x45	; 69
    1c24:	98 e7       	ldi	r25, 0x78	; 120
    1c26:	80 93 48 39 	sts	0x3948, r24	; 0x803948 <reactStr>
    1c2a:	90 93 49 39 	sts	0x3949, r25	; 0x803949 <reactStr+0x1>
    reactStr[1][number]=length;
    1c2e:	89 e5       	ldi	r24, 0x59	; 89
    1c30:	90 e0       	ldi	r25, 0x00	; 0
    1c32:	dc c3       	rjmp	.+1976   	; 0x23ec <ProcessInput+0xc44>
        
        //Pick up an object
        } else if (data[0] == 'p') {
            if (inventory[0]&&inventory[1]) {
                SetResponse(elements++, A_CARRYTWO, L_CARRYTWO, TEASER);
            } else if (inputLen != 2) {
    1c34:	d2 30       	cpi	r29, 0x02	; 2
    1c36:	09 f0       	breq	.+2      	; 0x1c3a <ProcessInput+0x492>
    1c38:	dd cd       	rjmp	.-1094   	; 0x17f4 <ProcessInput+0x4c>
                SetResponse(elements++, A_NOTPOSSIBLE, L_NOTPOSSIBLE, TEASER);
            } else {
                route[currDepth+1] = FindChild(route[currDepth], data[1], route[currDepth+1]);
    1c3a:	80 91 8f 38 	lds	r24, 0x388F	; 0x80388f <currDepth>
    1c3e:	90 e0       	ldi	r25, 0x00	; 0
    1c40:	ec 01       	movw	r28, r24
    1c42:	cc 0f       	add	r28, r28
    1c44:	dd 1f       	adc	r29, r29
    1c46:	c6 5f       	subi	r28, 0xF6	; 246
    1c48:	d5 4c       	sbci	r29, 0xC5	; 197
    1c4a:	48 81       	ld	r20, Y
    1c4c:	59 81       	ldd	r21, Y+1	; 0x01
    1c4e:	88 0f       	add	r24, r24
    1c50:	99 1f       	adc	r25, r25
    1c52:	fc 01       	movw	r30, r24
    1c54:	e8 5f       	subi	r30, 0xF8	; 248
    1c56:	f5 4c       	sbci	r31, 0xC5	; 197
    1c58:	d8 01       	movw	r26, r16
    1c5a:	11 96       	adiw	r26, 0x01	; 1
    1c5c:	6c 91       	ld	r22, X
    1c5e:	80 81       	ld	r24, Z
    1c60:	91 81       	ldd	r25, Z+1	; 0x01
    1c62:	02 db       	rcall	.-2556   	; 0x1268 <FindChild>
    1c64:	88 83       	st	Y, r24
    1c66:	99 83       	std	Y+1, r25	; 0x01
                if (route[currDepth+1]) {
    1c68:	20 91 8f 38 	lds	r18, 0x388F	; 0x80388f <currDepth>
    1c6c:	30 e0       	ldi	r19, 0x00	; 0
    1c6e:	2f 5f       	subi	r18, 0xFF	; 255
    1c70:	3f 4f       	sbci	r19, 0xFF	; 255
    1c72:	22 0f       	add	r18, r18
    1c74:	33 1f       	adc	r19, r19
    1c76:	f9 01       	movw	r30, r18
    1c78:	e8 5f       	subi	r30, 0xF8	; 248
    1c7a:	f5 4c       	sbci	r31, 0xC5	; 197
    1c7c:	80 81       	ld	r24, Z
    1c7e:	91 81       	ldd	r25, Z+1	; 0x01
    1c80:	00 97       	sbiw	r24, 0x00	; 0
    1c82:	09 f4       	brne	.+2      	; 0x1c86 <ProcessInput+0x4de>
    1c84:	8d c0       	rjmp	.+282    	; 0x1da0 <ProcessInput+0x5f8>
                    if ((route[currDepth+1] == inventory[0])||(route[currDepth+1] == inventory[1])) {
    1c86:	40 91 96 38 	lds	r20, 0x3896	; 0x803896 <inventory>
    1c8a:	50 91 97 38 	lds	r21, 0x3897	; 0x803897 <inventory+0x1>
    1c8e:	84 17       	cp	r24, r20
    1c90:	95 07       	cpc	r25, r21
    1c92:	39 f0       	breq	.+14     	; 0x1ca2 <ProcessInput+0x4fa>
    1c94:	40 91 98 38 	lds	r20, 0x3898	; 0x803898 <inventory+0x2>
    1c98:	50 91 99 38 	lds	r21, 0x3899	; 0x803899 <inventory+0x3>
    1c9c:	84 17       	cp	r24, r20
    1c9e:	95 07       	cpc	r25, r21
    1ca0:	c1 f4       	brne	.+48     	; 0x1cd2 <ProcessInput+0x52a>
    return 0;
}

//
void SetResponse(uint8_t number, uint16_t address, uint16_t length, uint8_t type){
    reactStr[0][number]=address;
    1ca2:	80 e2       	ldi	r24, 0x20	; 32
    1ca4:	98 e7       	ldi	r25, 0x78	; 120
    1ca6:	80 93 48 39 	sts	0x3948, r24	; 0x803948 <reactStr>
    1caa:	90 93 49 39 	sts	0x3949, r25	; 0x803949 <reactStr+0x1>
    reactStr[1][number]=length;
    1cae:	85 e2       	ldi	r24, 0x25	; 37
    1cb0:	90 e0       	ldi	r25, 0x00	; 0
    1cb2:	80 93 88 39 	sts	0x3988, r24	; 0x803988 <reactStr+0x40>
    1cb6:	90 93 89 39 	sts	0x3989, r25	; 0x803989 <reactStr+0x41>
    reactStr[2][number]=type;
    1cba:	81 e0       	ldi	r24, 0x01	; 1
    1cbc:	90 e0       	ldi	r25, 0x00	; 0
    1cbe:	80 93 c8 39 	sts	0x39C8, r24	; 0x8039c8 <reactStr+0x80>
    1cc2:	90 93 c9 39 	sts	0x39C9, r25	; 0x8039c9 <reactStr+0x81>
            } else {
                route[currDepth+1] = FindChild(route[currDepth], data[1], route[currDepth+1]);
                if (route[currDepth+1]) {
                    if ((route[currDepth+1] == inventory[0])||(route[currDepth+1] == inventory[1])) {
                        SetResponse(elements++, A_ALREADYCARRYING, L_ALREADYCARRYING, TEASER);
                        route[currDepth+1] = 0;
    1cc6:	f9 01       	movw	r30, r18
    1cc8:	e8 5f       	subi	r30, 0xF8	; 248
    1cca:	f5 4c       	sbci	r31, 0xC5	; 197
    1ccc:	10 82       	st	Z, r1
    1cce:	11 82       	std	Z+1, r1	; 0x01
                    } else {
                        //Put item in the inventory if possible
                        PopulateObject(route[currDepth+1], &actObj1);                      
    1cd0:	f9 c2       	rjmp	.+1522   	; 0x22c4 <ProcessInput+0xb1c>
    1cd2:	69 e0       	ldi	r22, 0x09	; 9
    1cd4:	79 e3       	ldi	r23, 0x39	; 57
    1cd6:	ea d9       	rcall	.-3116   	; 0x10ac <PopulateObject>
                        if (actObj1.byteField[ITEM_NR]) {
    1cd8:	80 91 14 39 	lds	r24, 0x3914	; 0x803914 <actObj1.3943+0xb>
    1cdc:	88 23       	and	r24, r24
    1cde:	09 f4       	brne	.+2      	; 0x1ce2 <ProcessInput+0x53a>
    1ce0:	89 cd       	rjmp	.-1262   	; 0x17f4 <ProcessInput+0x4c>
                            if (inventory[0]) {
    1ce2:	80 91 96 38 	lds	r24, 0x3896	; 0x803896 <inventory>
    1ce6:	90 91 97 38 	lds	r25, 0x3897	; 0x803897 <inventory+0x1>
    1cea:	e0 91 8f 38 	lds	r30, 0x388F	; 0x80388f <currDepth>
                                inventory[1] = route[currDepth+1];
    1cee:	f0 e0       	ldi	r31, 0x00	; 0
    1cf0:	ee 0f       	add	r30, r30
    1cf2:	ff 1f       	adc	r31, r31
    1cf4:	e6 5f       	subi	r30, 0xF6	; 246
    1cf6:	f5 4c       	sbci	r31, 0xC5	; 197
                        route[currDepth+1] = 0;
                    } else {
                        //Put item in the inventory if possible
                        PopulateObject(route[currDepth+1], &actObj1);                      
                        if (actObj1.byteField[ITEM_NR]) {
                            if (inventory[0]) {
    1cf8:	89 2b       	or	r24, r25
    1cfa:	39 f0       	breq	.+14     	; 0x1d0a <ProcessInput+0x562>
                                inventory[1] = route[currDepth+1];
    1cfc:	80 81       	ld	r24, Z
    1cfe:	91 81       	ldd	r25, Z+1	; 0x01
    1d00:	80 93 98 38 	sts	0x3898, r24	; 0x803898 <inventory+0x2>
    1d04:	90 93 99 38 	sts	0x3899, r25	; 0x803899 <inventory+0x3>
    1d08:	06 c0       	rjmp	.+12     	; 0x1d16 <ProcessInput+0x56e>
                            } else {
                                inventory[0] = route[currDepth+1];
    1d0a:	80 81       	ld	r24, Z
    1d0c:	91 81       	ldd	r25, Z+1	; 0x01
    1d0e:	80 93 96 38 	sts	0x3896, r24	; 0x803896 <inventory>
    1d12:	90 93 97 38 	sts	0x3897, r25	; 0x803897 <inventory+0x1>
    return 0;
}

//
void SetResponse(uint8_t number, uint16_t address, uint16_t length, uint8_t type){
    reactStr[0][number]=address;
    1d16:	8a e0       	ldi	r24, 0x0A	; 10
    1d18:	98 e7       	ldi	r25, 0x78	; 120
    1d1a:	80 93 48 39 	sts	0x3948, r24	; 0x803948 <reactStr>
    1d1e:	90 93 49 39 	sts	0x3949, r25	; 0x803949 <reactStr+0x1>
    reactStr[1][number]=length;
    1d22:	86 e1       	ldi	r24, 0x16	; 22
    1d24:	90 e0       	ldi	r25, 0x00	; 0
    1d26:	b0 c1       	rjmp	.+864    	; 0x2088 <ProcessInput+0x8e0>
                } else SetResponse(elements++, A_NOSUCHOBJECT, L_NOSUCHOBJECT, TEASER);
            }
        } else

        //Drop item if in inventory
        if (data[0] == 'd') {
    1d28:	84 36       	cpi	r24, 0x64	; 100
    1d2a:	e9 f1       	breq	.+122    	; 0x1da6 <ProcessInput+0x5fe>
                    if (x) SetResponse(elements++, A_NOTCARRYING, L_NOTCARRYING, TEASER);
                }
            }

        //Inventory list
        } else if (data[0] == 'i') {
    1d2c:	89 36       	cpi	r24, 0x69	; 105
    1d2e:	09 f4       	brne	.+2      	; 0x1d32 <ProcessInput+0x58a>
    1d30:	54 c0       	rjmp	.+168    	; 0x1dda <ProcessInput+0x632>
                }
                elements -= 1;
            }            
        
        //Talk, use, give, read
        } else if ((data[0] == 't')||(data[0] == 'u')||(data[0] == 'g')||(data[0] == 'r')) {
    1d32:	9c e8       	ldi	r25, 0x8C	; 140
    1d34:	98 0f       	add	r25, r24
    1d36:	92 30       	cpi	r25, 0x02	; 2
    1d38:	08 f0       	brcs	.+2      	; 0x1d3c <ProcessInput+0x594>
    1d3a:	c6 c0       	rjmp	.+396    	; 0x1ec8 <ProcessInput+0x720>
            if ((inputLen<2)||(inputLen>3)) {
    1d3c:	8e ef       	ldi	r24, 0xFE	; 254
    1d3e:	8d 0f       	add	r24, r29
    1d40:	82 30       	cpi	r24, 0x02	; 2
    1d42:	08 f0       	brcs	.+2      	; 0x1d46 <ProcessInput+0x59e>
    1d44:	57 cd       	rjmp	.-1362   	; 0x17f4 <ProcessInput+0x4c>
                SetResponse(elements++, A_NOTPOSSIBLE, L_NOTPOSSIBLE, TEASER);                
            
            //Check for visible person or object first
            } else {
                route[currDepth+1] = FindChild(route[currDepth], data[inputLen-1], 0);
    1d46:	e0 90 8f 38 	lds	r14, 0x388F	; 0x80388f <currDepth>
    1d4a:	f1 2c       	mov	r15, r1
    1d4c:	d8 01       	movw	r26, r16
    1d4e:	ad 0f       	add	r26, r29
    1d50:	b1 1d       	adc	r27, r1
    1d52:	11 97       	sbiw	r26, 0x01	; 1
    1d54:	f7 01       	movw	r30, r14
    1d56:	ee 0f       	add	r30, r30
    1d58:	ff 1f       	adc	r31, r31
    1d5a:	e8 5f       	subi	r30, 0xF8	; 248
    1d5c:	f5 4c       	sbci	r31, 0xC5	; 197
    1d5e:	40 e0       	ldi	r20, 0x00	; 0
    1d60:	50 e0       	ldi	r21, 0x00	; 0
    1d62:	6c 91       	ld	r22, X
    1d64:	80 81       	ld	r24, Z
    1d66:	91 81       	ldd	r25, Z+1	; 0x01
    1d68:	7f da       	rcall	.-2818   	; 0x1268 <FindChild>
    1d6a:	f7 01       	movw	r30, r14
    1d6c:	ee 0f       	add	r30, r30
    1d6e:	ff 1f       	adc	r31, r31
    1d70:	e6 5f       	subi	r30, 0xF6	; 246
    1d72:	f5 4c       	sbci	r31, 0xC5	; 197
    1d74:	80 83       	st	Z, r24
    1d76:	91 83       	std	Z+1, r25	; 0x01
                if (route[currDepth+1]) {
    1d78:	e0 91 8f 38 	lds	r30, 0x388F	; 0x80388f <currDepth>
    1d7c:	f0 e0       	ldi	r31, 0x00	; 0
    1d7e:	ee 0f       	add	r30, r30
    1d80:	ff 1f       	adc	r31, r31
    1d82:	e6 5f       	subi	r30, 0xF6	; 246
    1d84:	f5 4c       	sbci	r31, 0xC5	; 197
    1d86:	80 81       	ld	r24, Z
    1d88:	91 81       	ldd	r25, Z+1	; 0x01
    1d8a:	00 97       	sbiw	r24, 0x00	; 0
    1d8c:	09 f0       	breq	.+2      	; 0x1d90 <ProcessInput+0x5e8>
    1d8e:	a3 c0       	rjmp	.+326    	; 0x1ed6 <ProcessInput+0x72e>
                        }
                    }

                //Person or object not found
                } else {
                    if ((data[0] == 't')||(data[0] == 'g')){
    1d90:	f8 01       	movw	r30, r16
    1d92:	80 81       	ld	r24, Z
    1d94:	84 37       	cpi	r24, 0x74	; 116
    1d96:	09 f4       	brne	.+2      	; 0x1d9a <ProcessInput+0x5f2>
    1d98:	44 c2       	rjmp	.+1160   	; 0x2222 <ProcessInput+0xa7a>
    1d9a:	87 36       	cpi	r24, 0x67	; 103
    1d9c:	09 f4       	brne	.+2      	; 0x1da0 <ProcessInput+0x5f8>
    1d9e:	41 c2       	rjmp	.+1154   	; 0x2222 <ProcessInput+0xa7a>
    return 0;
}

//
void SetResponse(uint8_t number, uint16_t address, uint16_t length, uint8_t type){
    reactStr[0][number]=address;
    1da0:	80 e5       	ldi	r24, 0x50	; 80
    1da2:	99 e7       	ldi	r25, 0x79	; 121
    1da4:	40 c2       	rjmp	.+1152   	; 0x2226 <ProcessInput+0xa7e>
            }
        } else

        //Drop item if in inventory
        if (data[0] == 'd') {
            if ((inventory[0] == 0)&&(inventory[1] == 0)){
    1da6:	80 91 96 38 	lds	r24, 0x3896	; 0x803896 <inventory>
    1daa:	90 91 97 38 	lds	r25, 0x3897	; 0x803897 <inventory+0x1>
    1dae:	00 97       	sbiw	r24, 0x00	; 0
    1db0:	09 f0       	breq	.+2      	; 0x1db4 <ProcessInput+0x60c>
    1db2:	a4 c2       	rjmp	.+1352   	; 0x22fc <ProcessInput+0xb54>
    1db4:	80 91 98 38 	lds	r24, 0x3898	; 0x803898 <inventory+0x2>
    1db8:	90 91 99 38 	lds	r25, 0x3899	; 0x803899 <inventory+0x3>
    1dbc:	89 2b       	or	r24, r25
    1dbe:	49 f4       	brne	.+18     	; 0x1dd2 <ProcessInput+0x62a>
    return 0;
}

//
void SetResponse(uint8_t number, uint16_t address, uint16_t length, uint8_t type){
    reactStr[0][number]=address;
    1dc0:	84 ee       	ldi	r24, 0xE4	; 228
    1dc2:	97 e7       	ldi	r25, 0x77	; 119
    1dc4:	80 93 48 39 	sts	0x3948, r24	; 0x803948 <reactStr>
    1dc8:	90 93 49 39 	sts	0x3949, r25	; 0x803949 <reactStr+0x1>
    reactStr[1][number]=length;
    1dcc:	86 e2       	ldi	r24, 0x26	; 38
    1dce:	90 e0       	ldi	r25, 0x00	; 0
    1dd0:	0d c3       	rjmp	.+1562   	; 0x23ec <ProcessInput+0xc44>

        //Drop item if in inventory
        if (data[0] == 'd') {
            if ((inventory[0] == 0)&&(inventory[1] == 0)){
                SetResponse(elements++, A_EMPTYHANDS, L_EMPTYHANDS, TEASER);
            } else if (inputLen != 2) {
    1dd2:	d2 30       	cpi	r29, 0x02	; 2
    1dd4:	09 f4       	brne	.+2      	; 0x1dd8 <ProcessInput+0x630>
    1dd6:	f3 c2       	rjmp	.+1510   	; 0x23be <ProcessInput+0xc16>
    1dd8:	0d cd       	rjmp	.-1510   	; 0x17f4 <ProcessInput+0x4c>
                }
            }

        //Inventory list
        } else if (data[0] == 'i') {
            if ((inventory[0] == 0)&&(inventory[1] == 0)){
    1dda:	80 91 96 38 	lds	r24, 0x3896	; 0x803896 <inventory>
    1dde:	90 91 97 38 	lds	r25, 0x3897	; 0x803897 <inventory+0x1>
    1de2:	89 2b       	or	r24, r25
    1de4:	31 f4       	brne	.+12     	; 0x1df2 <ProcessInput+0x64a>
    1de6:	80 91 98 38 	lds	r24, 0x3898	; 0x803898 <inventory+0x2>
    1dea:	90 91 99 38 	lds	r25, 0x3899	; 0x803899 <inventory+0x3>
    1dee:	89 2b       	or	r24, r25
    1df0:	39 f3       	breq	.-50     	; 0x1dc0 <ProcessInput+0x618>
    return 0;
}

//
void SetResponse(uint8_t number, uint16_t address, uint16_t length, uint8_t type){
    reactStr[0][number]=address;
    1df2:	8a e0       	ldi	r24, 0x0A	; 10
    1df4:	98 e7       	ldi	r25, 0x78	; 120
    1df6:	80 93 48 39 	sts	0x3948, r24	; 0x803948 <reactStr>
    1dfa:	90 93 49 39 	sts	0x3949, r25	; 0x803949 <reactStr+0x1>
    reactStr[1][number]=length;
    1dfe:	86 e1       	ldi	r24, 0x16	; 22
    1e00:	90 e0       	ldi	r25, 0x00	; 0
    1e02:	80 93 88 39 	sts	0x3988, r24	; 0x803988 <reactStr+0x40>
    1e06:	90 93 89 39 	sts	0x3989, r25	; 0x803989 <reactStr+0x41>
    reactStr[2][number]=type;
    1e0a:	81 e0       	ldi	r24, 0x01	; 1
    1e0c:	90 e0       	ldi	r25, 0x00	; 0
    1e0e:	80 93 c8 39 	sts	0x39C8, r24	; 0x8039c8 <reactStr+0x80>
    1e12:	90 93 c9 39 	sts	0x39C9, r25	; 0x8039c9 <reactStr+0x81>
    1e16:	c6 e9       	ldi	r28, 0x96	; 150
    1e18:	ac 2e       	mov	r10, r28
    1e1a:	c8 e3       	ldi	r28, 0x38	; 56
    1e1c:	bc 2e       	mov	r11, r28
        //Inventory list
        } else if (data[0] == 'i') {
            if ((inventory[0] == 0)&&(inventory[1] == 0)){
                SetResponse(elements++, A_EMPTYHANDS, L_EMPTYHANDS, TEASER);
            } else {
                SetResponse(elements++, A_NOWCARRING, L_NOWCARRING, TEASER);
    1e1e:	99 24       	eor	r9, r9
    return 0;
}

//
void SetResponse(uint8_t number, uint16_t address, uint16_t length, uint8_t type){
    reactStr[0][number]=address;
    1e20:	93 94       	inc	r9
    1e22:	c9 e5       	ldi	r28, 0x59	; 89
    reactStr[1][number]=length;
    1e24:	da e7       	ldi	r29, 0x7A	; 122
    1e26:	82 e0       	ldi	r24, 0x02	; 2
    1e28:	e8 2e       	mov	r14, r24
    reactStr[2][number]=type;
    1e2a:	f1 2c       	mov	r15, r1
    1e2c:	cc 24       	eor	r12, r12
    1e2e:	c3 94       	inc	r12
            } else {
                SetResponse(elements++, A_NOWCARRING, L_NOWCARRING, TEASER);
                //SetResponse(elements++, A_SPACE, L_SPACE, TEASER);
                
                for (uint8_t x=0; x<2; ++x) {
                    if (inventory[x]) {
    1e30:	d1 2c       	mov	r13, r1
    1e32:	d5 01       	movw	r26, r10
    1e34:	8d 91       	ld	r24, X+
    1e36:	9d 91       	ld	r25, X+
    1e38:	5d 01       	movw	r10, r26
    1e3a:	00 97       	sbiw	r24, 0x00	; 0
                        PopulateObject(inventory[x], &actObj1);
    1e3c:	e1 f1       	breq	.+120    	; 0x1eb6 <ProcessInput+0x70e>
    1e3e:	69 e0       	ldi	r22, 0x09	; 9
    1e40:	79 e3       	ldi	r23, 0x39	; 57
    1e42:	34 d9       	rcall	.-3480   	; 0x10ac <PopulateObject>
                        SetResponse(elements++, actObj1.addrStr[NAME], actObj1.lenStr[NAME], GAME);
    1e44:	20 91 23 39 	lds	r18, 0x3923	; 0x803923 <actObj1.3943+0x1a>
    1e48:	30 91 24 39 	lds	r19, 0x3924	; 0x803924 <actObj1.3943+0x1b>
    return 0;
}

//
void SetResponse(uint8_t number, uint16_t address, uint16_t length, uint8_t type){
    reactStr[0][number]=address;
    1e4c:	89 2d       	mov	r24, r9
    1e4e:	90 e0       	ldi	r25, 0x00	; 0
    1e50:	fc 01       	movw	r30, r24
    1e52:	ee 0f       	add	r30, r30
    1e54:	ff 1f       	adc	r31, r31
    1e56:	e8 5b       	subi	r30, 0xB8	; 184
    1e58:	f6 4c       	sbci	r31, 0xC6	; 198
    1e5a:	40 91 15 39 	lds	r20, 0x3915	; 0x803915 <actObj1.3943+0xc>
    1e5e:	50 91 16 39 	lds	r21, 0x3916	; 0x803916 <actObj1.3943+0xd>
    1e62:	40 83       	st	Z, r20
    1e64:	51 83       	std	Z+1, r21	; 0x01
    reactStr[1][number]=length;
    1e66:	fc 01       	movw	r30, r24
    1e68:	ee 0f       	add	r30, r30
    1e6a:	ff 1f       	adc	r31, r31
    1e6c:	e8 57       	subi	r30, 0x78	; 120
    1e6e:	f6 4c       	sbci	r31, 0xC6	; 198
    1e70:	20 83       	st	Z, r18
    1e72:	31 83       	std	Z+1, r19	; 0x01
    reactStr[2][number]=type;
    1e74:	88 0f       	add	r24, r24
    1e76:	99 1f       	adc	r25, r25
    1e78:	fc 01       	movw	r30, r24
    1e7a:	e8 53       	subi	r30, 0x38	; 56
    1e7c:	f6 4c       	sbci	r31, 0xC6	; 198
    1e7e:	10 82       	st	Z, r1
    1e80:	11 82       	std	Z+1, r1	; 0x01
    return 0;
}

//
void SetResponse(uint8_t number, uint16_t address, uint16_t length, uint8_t type){
    reactStr[0][number]=address;
    1e82:	81 e0       	ldi	r24, 0x01	; 1
    1e84:	89 0d       	add	r24, r9
    1e86:	90 e0       	ldi	r25, 0x00	; 0
    1e88:	93 94       	inc	r9
    1e8a:	93 94       	inc	r9
    1e8c:	fc 01       	movw	r30, r24
    1e8e:	ee 0f       	add	r30, r30
    1e90:	ff 1f       	adc	r31, r31
    1e92:	e8 5b       	subi	r30, 0xB8	; 184
    1e94:	f6 4c       	sbci	r31, 0xC6	; 198
    1e96:	c0 83       	st	Z, r28
    1e98:	d1 83       	std	Z+1, r29	; 0x01
    reactStr[1][number]=length;
    1e9a:	fc 01       	movw	r30, r24
    1e9c:	ee 0f       	add	r30, r30
    1e9e:	ff 1f       	adc	r31, r31
    1ea0:	e8 57       	subi	r30, 0x78	; 120
    1ea2:	f6 4c       	sbci	r31, 0xC6	; 198
    1ea4:	e0 82       	st	Z, r14
    1ea6:	f1 82       	std	Z+1, r15	; 0x01
    reactStr[2][number]=type;
    1ea8:	88 0f       	add	r24, r24
    1eaa:	99 1f       	adc	r25, r25
    1eac:	fc 01       	movw	r30, r24
    1eae:	e8 53       	subi	r30, 0x38	; 56
    1eb0:	f6 4c       	sbci	r31, 0xC6	; 198
    1eb2:	c0 82       	st	Z, r12
    1eb4:	d1 82       	std	Z+1, r13	; 0x01
                SetResponse(elements++, A_EMPTYHANDS, L_EMPTYHANDS, TEASER);
            } else {
                SetResponse(elements++, A_NOWCARRING, L_NOWCARRING, TEASER);
                //SetResponse(elements++, A_SPACE, L_SPACE, TEASER);
                
                for (uint8_t x=0; x<2; ++x) {
    1eb6:	ba e9       	ldi	r27, 0x9A	; 154
    1eb8:	ab 16       	cp	r10, r27
    1eba:	b8 e3       	ldi	r27, 0x38	; 56
    1ebc:	bb 06       	cpc	r11, r27
    1ebe:	09 f0       	breq	.+2      	; 0x1ec2 <ProcessInput+0x71a>
    1ec0:	b8 cf       	rjmp	.-144    	; 0x1e32 <ProcessInput+0x68a>
                        SetResponse(elements++, actObj1.addrStr[NAME], actObj1.lenStr[NAME], GAME);
                        SetResponse(elements++, A_COMMA, L_COMMA, TEASER);
                        //SetResponse(elements++, A_SPACE, L_SPACE, TEASER);
                    }
                }
                elements -= 1;
    1ec2:	cf ef       	ldi	r28, 0xFF	; 255
    1ec4:	c9 0d       	add	r28, r9
    1ec6:	ff c1       	rjmp	.+1022   	; 0x22c6 <ProcessInput+0xb1e>
            }            
        
        //Talk, use, give, read
        } else if ((data[0] == 't')||(data[0] == 'u')||(data[0] == 'g')||(data[0] == 'r')) {
    1ec8:	87 36       	cpi	r24, 0x67	; 103
    1eca:	09 f4       	brne	.+2      	; 0x1ece <ProcessInput+0x726>
    1ecc:	37 cf       	rjmp	.-402    	; 0x1d3c <ProcessInput+0x594>
    1ece:	82 37       	cpi	r24, 0x72	; 114
    1ed0:	09 f0       	breq	.+2      	; 0x1ed4 <ProcessInput+0x72c>
    1ed2:	b0 c1       	rjmp	.+864    	; 0x2234 <ProcessInput+0xa8c>
    1ed4:	33 cf       	rjmp	.-410    	; 0x1d3c <ProcessInput+0x594>
            } else {
                route[currDepth+1] = FindChild(route[currDepth], data[inputLen-1], 0);
                if (route[currDepth+1]) {
                    
                    //Give item to person / use item on object 
                    if ((inputLen == 3)&&((data[0] == 'u')||(data[0] == 'g'))) {
    1ed6:	d3 30       	cpi	r29, 0x03	; 3
    1ed8:	09 f0       	breq	.+2      	; 0x1edc <ProcessInput+0x734>
    1eda:	c2 c0       	rjmp	.+388    	; 0x2060 <ProcessInput+0x8b8>
    1edc:	f8 01       	movw	r30, r16
    1ede:	20 81       	ld	r18, Z
    1ee0:	25 37       	cpi	r18, 0x75	; 117
    1ee2:	19 f0       	breq	.+6      	; 0x1eea <ProcessInput+0x742>
    1ee4:	27 36       	cpi	r18, 0x67	; 103
    1ee6:	09 f0       	breq	.+2      	; 0x1eea <ProcessInput+0x742>
    1ee8:	bb c0       	rjmp	.+374    	; 0x2060 <ProcessInput+0x8b8>
    1eea:	d0 e0       	ldi	r29, 0x00	; 0
    1eec:	c0 e0       	ldi	r28, 0x00	; 0
    return 0;
}

//
void SetResponse(uint8_t number, uint16_t address, uint16_t length, uint8_t type){
    reactStr[0][number]=address;
    1eee:	64 e6       	ldi	r22, 0x64	; 100
    1ef0:	e6 2e       	mov	r14, r22
    1ef2:	69 e7       	ldi	r22, 0x79	; 121
    1ef4:	f6 2e       	mov	r15, r22
    reactStr[1][number]=length;
    1ef6:	71 e2       	ldi	r23, 0x21	; 33
    1ef8:	c7 2e       	mov	r12, r23
    1efa:	d1 2c       	mov	r13, r1
    reactStr[2][number]=type;
    1efc:	aa 24       	eor	r10, r10
    1efe:	a3 94       	inc	r10
                if (route[currDepth+1]) {
                    
                    //Give item to person / use item on object 
                    if ((inputLen == 3)&&((data[0] == 'u')||(data[0] == 'g'))) {
                        for (uint8_t x=0; x<2; x++) {
                            if (inventory[x]) { 
    1f00:	b1 2c       	mov	r11, r1
    1f02:	8d 2e       	mov	r8, r29
    1f04:	91 2c       	mov	r9, r1
    1f06:	c4 01       	movw	r24, r8
    1f08:	88 0f       	add	r24, r24
    1f0a:	99 1f       	adc	r25, r25
    1f0c:	9c 01       	movw	r18, r24
    1f0e:	2a 56       	subi	r18, 0x6A	; 106
    1f10:	37 4c       	sbci	r19, 0xC7	; 199
    1f12:	49 01       	movw	r8, r18
    1f14:	d9 01       	movw	r26, r18
    1f16:	8d 91       	ld	r24, X+
    1f18:	9c 91       	ld	r25, X
                                if (CheckLetter(inventory[x], data[1])) {
    1f1a:	00 97       	sbiw	r24, 0x00	; 0
    1f1c:	69 f0       	breq	.+26     	; 0x1f38 <ProcessInput+0x790>
    1f1e:	f8 01       	movw	r30, r16
    1f20:	61 81       	ldd	r22, Z+1	; 0x01
    1f22:	4e d9       	rcall	.-3428   	; 0x11c0 <CheckLetter>
    1f24:	88 23       	and	r24, r24
                                    PopulateObject(inventory[x], &actObj2);
    1f26:	41 f0       	breq	.+16     	; 0x1f38 <ProcessInput+0x790>
    1f28:	6e ed       	ldi	r22, 0xDE	; 222
    1f2a:	78 e3       	ldi	r23, 0x38	; 56
    1f2c:	d4 01       	movw	r26, r8
    1f2e:	8d 91       	ld	r24, X+
    1f30:	9c 91       	ld	r25, X
    1f32:	bc d8       	rcall	.-3720   	; 0x10ac <PopulateObject>
                                    x = 2;
    1f34:	d2 e0       	ldi	r29, 0x02	; 2
    1f36:	1e c0       	rjmp	.+60     	; 0x1f74 <ProcessInput+0x7cc>
                                }
                            }
                            if (x == 1) { 
    1f38:	d1 30       	cpi	r29, 0x01	; 1
    1f3a:	d9 f4       	brne	.+54     	; 0x1f72 <ProcessInput+0x7ca>
    return 0;
}

//
void SetResponse(uint8_t number, uint16_t address, uint16_t length, uint8_t type){
    reactStr[0][number]=address;
    1f3c:	8c 2f       	mov	r24, r28
    1f3e:	90 e0       	ldi	r25, 0x00	; 0
    1f40:	fc 01       	movw	r30, r24
    1f42:	ee 0f       	add	r30, r30
    1f44:	ff 1f       	adc	r31, r31
    1f46:	e8 5b       	subi	r30, 0xB8	; 184
    1f48:	f6 4c       	sbci	r31, 0xC6	; 198
    1f4a:	e0 82       	st	Z, r14
    1f4c:	f1 82       	std	Z+1, r15	; 0x01
    reactStr[1][number]=length;
    1f4e:	fc 01       	movw	r30, r24
    1f50:	ee 0f       	add	r30, r30
    1f52:	ff 1f       	adc	r31, r31
    1f54:	e8 57       	subi	r30, 0x78	; 120
    1f56:	f6 4c       	sbci	r31, 0xC6	; 198
    1f58:	c0 82       	st	Z, r12
    1f5a:	d1 82       	std	Z+1, r13	; 0x01
    reactStr[2][number]=type;
    1f5c:	88 0f       	add	r24, r24
    1f5e:	99 1f       	adc	r25, r25
    1f60:	fc 01       	movw	r30, r24
    1f62:	e8 53       	subi	r30, 0x38	; 56
    1f64:	f6 4c       	sbci	r31, 0xC6	; 198
    1f66:	a0 82       	st	Z, r10
    1f68:	b1 82       	std	Z+1, r11	; 0x01
                                    x = 2;
                                }
                            }
                            if (x == 1) { 
                                SetResponse(elements++, A_NOTCARRYING, L_NOTCARRYING, TEASER);
                                data[0] = 0;
    1f6a:	f8 01       	movw	r30, r16
    1f6c:	10 82       	st	Z, r1
                                    PopulateObject(inventory[x], &actObj2);
                                    x = 2;
                                }
                            }
                            if (x == 1) { 
                                SetResponse(elements++, A_NOTCARRYING, L_NOTCARRYING, TEASER);
    1f6e:	cf 5f       	subi	r28, 0xFF	; 255
    1f70:	01 c0       	rjmp	.+2      	; 0x1f74 <ProcessInput+0x7cc>
                route[currDepth+1] = FindChild(route[currDepth], data[inputLen-1], 0);
                if (route[currDepth+1]) {
                    
                    //Give item to person / use item on object 
                    if ((inputLen == 3)&&((data[0] == 'u')||(data[0] == 'g'))) {
                        for (uint8_t x=0; x<2; x++) {
    1f72:	d0 e0       	ldi	r29, 0x00	; 0
    1f74:	df 5f       	subi	r29, 0xFF	; 255
    1f76:	d1 30       	cpi	r29, 0x01	; 1
                                data[0] = 0;
                            }
                        }

                        //Both the item and person/object are found, check if action is legit
                        if (data[0]){
    1f78:	21 f2       	breq	.-120    	; 0x1f02 <ProcessInput+0x75a>
    1f7a:	d8 01       	movw	r26, r16
    1f7c:	8c 91       	ld	r24, X
    1f7e:	88 23       	and	r24, r24
    1f80:	09 f4       	brne	.+2      	; 0x1f84 <ProcessInput+0x7dc>
                            PopulateObject(route[currDepth+1], &actObj1);
    1f82:	a1 c1       	rjmp	.+834    	; 0x22c6 <ProcessInput+0xb1e>
    1f84:	e0 91 8f 38 	lds	r30, 0x388F	; 0x80388f <currDepth>
    1f88:	f0 e0       	ldi	r31, 0x00	; 0
    1f8a:	ee 0f       	add	r30, r30
    1f8c:	ff 1f       	adc	r31, r31
    1f8e:	e6 5f       	subi	r30, 0xF6	; 246
    1f90:	f5 4c       	sbci	r31, 0xC5	; 197
    1f92:	69 e0       	ldi	r22, 0x09	; 9
    1f94:	79 e3       	ldi	r23, 0x39	; 57
    1f96:	80 81       	ld	r24, Z
    1f98:	91 81       	ldd	r25, Z+1	; 0x01
                            if (actObj1.byteField[ACTION_ITEM] == actObj2.byteField[ITEM_NR]) {
    1f9a:	88 d8       	rcall	.-3824   	; 0x10ac <PopulateObject>
    1f9c:	90 91 12 39 	lds	r25, 0x3912	; 0x803912 <actObj1.3943+0x9>
    1fa0:	80 91 e9 38 	lds	r24, 0x38E9	; 0x8038e9 <actObj2.3944+0xb>
    1fa4:	98 13       	cpse	r25, r24
                                UpdateState(actObj1.byteField[ACTION_STATE]);
    1fa6:	23 c0       	rjmp	.+70     	; 0x1fee <ProcessInput+0x846>
    1fa8:	80 91 13 39 	lds	r24, 0x3913	; 0x803913 <actObj1.3943+0xa>
    1fac:	f1 d8       	rcall	.-3614   	; 0x1190 <UpdateState>
                                SetResponse(elements++, actObj1.addrStr[ACTION_MSG], actObj1.lenStr[ACTION_MSG], GAME);
    1fae:	20 91 2f 39 	lds	r18, 0x392F	; 0x80392f <actObj1.3943+0x26>
    1fb2:	30 91 30 39 	lds	r19, 0x3930	; 0x803930 <actObj1.3943+0x27>
    return 0;
}

//
void SetResponse(uint8_t number, uint16_t address, uint16_t length, uint8_t type){
    reactStr[0][number]=address;
    1fb6:	8c 2f       	mov	r24, r28
    1fb8:	90 e0       	ldi	r25, 0x00	; 0
    1fba:	fc 01       	movw	r30, r24
    1fbc:	ee 0f       	add	r30, r30
    1fbe:	ff 1f       	adc	r31, r31
    1fc0:	e8 5b       	subi	r30, 0xB8	; 184
    1fc2:	f6 4c       	sbci	r31, 0xC6	; 198
    1fc4:	40 91 21 39 	lds	r20, 0x3921	; 0x803921 <actObj1.3943+0x18>
    1fc8:	50 91 22 39 	lds	r21, 0x3922	; 0x803922 <actObj1.3943+0x19>
    1fcc:	40 83       	st	Z, r20
    1fce:	51 83       	std	Z+1, r21	; 0x01
    reactStr[1][number]=length;
    1fd0:	fc 01       	movw	r30, r24
    1fd2:	ee 0f       	add	r30, r30
    1fd4:	ff 1f       	adc	r31, r31
    1fd6:	e8 57       	subi	r30, 0x78	; 120
    1fd8:	f6 4c       	sbci	r31, 0xC6	; 198
    1fda:	20 83       	st	Z, r18
    1fdc:	31 83       	std	Z+1, r19	; 0x01
    reactStr[2][number]=type;
    1fde:	88 0f       	add	r24, r24
    1fe0:	99 1f       	adc	r25, r25
    1fe2:	fc 01       	movw	r30, r24
    1fe4:	e8 53       	subi	r30, 0x38	; 56
    1fe6:	f6 4c       	sbci	r31, 0xC6	; 198
    1fe8:	10 82       	st	Z, r1
    1fea:	11 82       	std	Z+1, r1	; 0x01
    1fec:	37 c0       	rjmp	.+110    	; 0x205c <ProcessInput+0x8b4>
                            PopulateObject(route[currDepth+1], &actObj1);
                            if (actObj1.byteField[ACTION_ITEM] == actObj2.byteField[ITEM_NR]) {
                                UpdateState(actObj1.byteField[ACTION_STATE]);
                                SetResponse(elements++, actObj1.addrStr[ACTION_MSG], actObj1.lenStr[ACTION_MSG], GAME);
                            } else {
                                if (data[0] == 'u') {
    1fee:	f8 01       	movw	r30, r16
    1ff0:	80 81       	ld	r24, Z
    1ff2:	85 37       	cpi	r24, 0x75	; 117
    1ff4:	99 f4       	brne	.+38     	; 0x201c <ProcessInput+0x874>
    return 0;
}

//
void SetResponse(uint8_t number, uint16_t address, uint16_t length, uint8_t type){
    reactStr[0][number]=address;
    1ff6:	8c 2f       	mov	r24, r28
    1ff8:	90 e0       	ldi	r25, 0x00	; 0
    1ffa:	fc 01       	movw	r30, r24
    1ffc:	ee 0f       	add	r30, r30
    1ffe:	ff 1f       	adc	r31, r31
    2000:	e8 5b       	subi	r30, 0xB8	; 184
    2002:	f6 4c       	sbci	r31, 0xC6	; 198
    2004:	24 e0       	ldi	r18, 0x04	; 4
    2006:	39 e7       	ldi	r19, 0x79	; 121
    2008:	20 83       	st	Z, r18
    200a:	31 83       	std	Z+1, r19	; 0x01
    reactStr[1][number]=length;
    200c:	fc 01       	movw	r30, r24
    200e:	ee 0f       	add	r30, r30
    2010:	ff 1f       	adc	r31, r31
    2012:	e8 57       	subi	r30, 0x78	; 120
    2014:	f6 4c       	sbci	r31, 0xC6	; 198
    2016:	2a e1       	ldi	r18, 0x1A	; 26
    2018:	30 e0       	ldi	r19, 0x00	; 0
    201a:	15 c0       	rjmp	.+42     	; 0x2046 <ProcessInput+0x89e>
                                UpdateState(actObj1.byteField[ACTION_STATE]);
                                SetResponse(elements++, actObj1.addrStr[ACTION_MSG], actObj1.lenStr[ACTION_MSG], GAME);
                            } else {
                                if (data[0] == 'u') {
                                    SetResponse(elements++, A_CANTUSE, L_CANTUSE, TEASER);
                                } else if (data[0] == 'g') {
    201c:	87 36       	cpi	r24, 0x67	; 103
    201e:	09 f0       	breq	.+2      	; 0x2022 <ProcessInput+0x87a>
    2020:	52 c1       	rjmp	.+676    	; 0x22c6 <ProcessInput+0xb1e>
    return 0;
}

//
void SetResponse(uint8_t number, uint16_t address, uint16_t length, uint8_t type){
    reactStr[0][number]=address;
    2022:	8c 2f       	mov	r24, r28
    2024:	90 e0       	ldi	r25, 0x00	; 0
    2026:	fc 01       	movw	r30, r24
    2028:	ee 0f       	add	r30, r30
    202a:	ff 1f       	adc	r31, r31
    202c:	e8 5b       	subi	r30, 0xB8	; 184
    202e:	f6 4c       	sbci	r31, 0xC6	; 198
    2030:	2d ed       	ldi	r18, 0xDD	; 221
    2032:	36 e7       	ldi	r19, 0x76	; 118
    2034:	20 83       	st	Z, r18
    2036:	31 83       	std	Z+1, r19	; 0x01
    reactStr[1][number]=length;
    2038:	fc 01       	movw	r30, r24
    203a:	ee 0f       	add	r30, r30
    203c:	ff 1f       	adc	r31, r31
    203e:	e8 57       	subi	r30, 0x78	; 120
    2040:	f6 4c       	sbci	r31, 0xC6	; 198
    2042:	28 e2       	ldi	r18, 0x28	; 40
    2044:	30 e0       	ldi	r19, 0x00	; 0
    2046:	20 83       	st	Z, r18
    reactStr[2][number]=type;
    2048:	31 83       	std	Z+1, r19	; 0x01
    204a:	88 0f       	add	r24, r24
    204c:	99 1f       	adc	r25, r25
    204e:	fc 01       	movw	r30, r24
    2050:	e8 53       	subi	r30, 0x38	; 56
    2052:	f6 4c       	sbci	r31, 0xC6	; 198
    2054:	81 e0       	ldi	r24, 0x01	; 1
    2056:	90 e0       	ldi	r25, 0x00	; 0
    2058:	80 83       	st	Z, r24
                                SetResponse(elements++, actObj1.addrStr[ACTION_MSG], actObj1.lenStr[ACTION_MSG], GAME);
                            } else {
                                if (data[0] == 'u') {
                                    SetResponse(elements++, A_CANTUSE, L_CANTUSE, TEASER);
                                } else if (data[0] == 'g') {
                                    SetResponse(elements++, A_CANTGIVE, L_CANTGIVE, TEASER);                                    
    205a:	91 83       	std	Z+1, r25	; 0x01
    205c:	cf 5f       	subi	r28, 0xFF	; 255
                            }
                        }
                    
                    //Talk to person, read or use object (without item)                          
                    } else {
                        PopulateObject(route[currDepth+1], &actObj1);
    205e:	33 c1       	rjmp	.+614    	; 0x22c6 <ProcessInput+0xb1e>
    2060:	69 e0       	ldi	r22, 0x09	; 9
    2062:	79 e3       	ldi	r23, 0x39	; 57
    2064:	23 d8       	rcall	.-4026   	; 0x10ac <PopulateObject>
                        if ((data[0] == 't')&&((255 - actObj1.byteField[ACTION_MASK]) & TALK)) {
    2066:	d8 01       	movw	r26, r16
    2068:	8c 91       	ld	r24, X
    206a:	84 37       	cpi	r24, 0x74	; 116
    206c:	69 f5       	brne	.+90     	; 0x20c8 <ProcessInput+0x920>
    206e:	80 91 11 39 	lds	r24, 0x3911	; 0x803911 <actObj1.3943+0x8>
    2072:	80 95       	com	r24
    2074:	83 ff       	sbrs	r24, 3
    2076:	3c c0       	rjmp	.+120    	; 0x20f0 <ProcessInput+0x948>
    return 0;
}

//
void SetResponse(uint8_t number, uint16_t address, uint16_t length, uint8_t type){
    reactStr[0][number]=address;
    2078:	8e e1       	ldi	r24, 0x1E	; 30
    207a:	99 e7       	ldi	r25, 0x79	; 121
    207c:	80 93 48 39 	sts	0x3948, r24	; 0x803948 <reactStr>
    2080:	90 93 49 39 	sts	0x3949, r25	; 0x803949 <reactStr+0x1>
    reactStr[1][number]=length;
    2084:	8e e1       	ldi	r24, 0x1E	; 30
    2086:	90 e0       	ldi	r25, 0x00	; 0
    2088:	80 93 88 39 	sts	0x3988, r24	; 0x803988 <reactStr+0x40>
    208c:	90 93 89 39 	sts	0x3989, r25	; 0x803989 <reactStr+0x41>
    reactStr[2][number]=type;
    2090:	81 e0       	ldi	r24, 0x01	; 1
    2092:	90 e0       	ldi	r25, 0x00	; 0
    2094:	80 93 c8 39 	sts	0x39C8, r24	; 0x8039c8 <reactStr+0x80>
    2098:	90 93 c9 39 	sts	0x39C9, r25	; 0x8039c9 <reactStr+0x81>
                    //Talk to person, read or use object (without item)                          
                    } else {
                        PopulateObject(route[currDepth+1], &actObj1);
                        if ((data[0] == 't')&&((255 - actObj1.byteField[ACTION_MASK]) & TALK)) {
                            SetResponse(elements++, A_WHYTALK, L_WHYTALK, TEASER);
                            SetResponse(elements++, actObj1.addrStr[NAME], actObj1.lenStr[NAME], GAME);
    209c:	80 91 23 39 	lds	r24, 0x3923	; 0x803923 <actObj1.3943+0x1a>
    20a0:	90 91 24 39 	lds	r25, 0x3924	; 0x803924 <actObj1.3943+0x1b>
    return 0;
}

//
void SetResponse(uint8_t number, uint16_t address, uint16_t length, uint8_t type){
    reactStr[0][number]=address;
    20a4:	20 91 15 39 	lds	r18, 0x3915	; 0x803915 <actObj1.3943+0xc>
    20a8:	30 91 16 39 	lds	r19, 0x3916	; 0x803916 <actObj1.3943+0xd>
    20ac:	20 93 4a 39 	sts	0x394A, r18	; 0x80394a <reactStr+0x2>
    20b0:	30 93 4b 39 	sts	0x394B, r19	; 0x80394b <reactStr+0x3>
    reactStr[1][number]=length;
    20b4:	80 93 8a 39 	sts	0x398A, r24	; 0x80398a <reactStr+0x42>
    20b8:	90 93 8b 39 	sts	0x398B, r25	; 0x80398b <reactStr+0x43>
    reactStr[2][number]=type;
    20bc:	10 92 ca 39 	sts	0x39CA, r1	; 0x8039ca <reactStr+0x82>
    20c0:	10 92 cb 39 	sts	0x39CB, r1	; 0x8039cb <reactStr+0x83>
                    //Talk to person, read or use object (without item)                          
                    } else {
                        PopulateObject(route[currDepth+1], &actObj1);
                        if ((data[0] == 't')&&((255 - actObj1.byteField[ACTION_MASK]) & TALK)) {
                            SetResponse(elements++, A_WHYTALK, L_WHYTALK, TEASER);
                            SetResponse(elements++, actObj1.addrStr[NAME], actObj1.lenStr[NAME], GAME);
    20c4:	c2 e0       	ldi	r28, 0x02	; 2
    20c6:	ff c0       	rjmp	.+510    	; 0x22c6 <ProcessInput+0xb1e>
                        } else if ((data[0] == 'u')&&((255-actObj1.byteField[ACTION_MASK]) & USE)) {
    20c8:	85 37       	cpi	r24, 0x75	; 117
    20ca:	41 f4       	brne	.+16     	; 0x20dc <ProcessInput+0x934>
    20cc:	80 91 11 39 	lds	r24, 0x3911	; 0x803911 <actObj1.3943+0x8>
    20d0:	80 95       	com	r24
    20d2:	84 ff       	sbrs	r24, 4
    20d4:	0d c0       	rjmp	.+26     	; 0x20f0 <ProcessInput+0x948>
    return 0;
}

//
void SetResponse(uint8_t number, uint16_t address, uint16_t length, uint8_t type){
    reactStr[0][number]=address;
    20d6:	84 e0       	ldi	r24, 0x04	; 4
    20d8:	99 e7       	ldi	r25, 0x79	; 121
    20da:	09 c1       	rjmp	.+530    	; 0x22ee <ProcessInput+0xb46>
                        if ((data[0] == 't')&&((255 - actObj1.byteField[ACTION_MASK]) & TALK)) {
                            SetResponse(elements++, A_WHYTALK, L_WHYTALK, TEASER);
                            SetResponse(elements++, actObj1.addrStr[NAME], actObj1.lenStr[NAME], GAME);
                        } else if ((data[0] == 'u')&&((255-actObj1.byteField[ACTION_MASK]) & USE)) {
                            SetResponse(elements++, A_CANTUSE, L_CANTUSE, TEASER);
                        } else if ((data[0] == 'r')&&((255-actObj1.byteField[ACTION_MASK]) & READ)) {
    20dc:	82 37       	cpi	r24, 0x72	; 114
    20de:	41 f4       	brne	.+16     	; 0x20f0 <ProcessInput+0x948>
    20e0:	80 91 11 39 	lds	r24, 0x3911	; 0x803911 <actObj1.3943+0x8>
    20e4:	80 95       	com	r24
    20e6:	85 ff       	sbrs	r24, 5
    20e8:	03 c0       	rjmp	.+6      	; 0x20f0 <ProcessInput+0x948>
    return 0;
}

//
void SetResponse(uint8_t number, uint16_t address, uint16_t length, uint8_t type){
    reactStr[0][number]=address;
    20ea:	89 ee       	ldi	r24, 0xE9	; 233
    20ec:	98 e7       	ldi	r25, 0x78	; 120
    20ee:	fe cb       	rjmp	.-2052   	; 0x18ec <ProcessInput+0x144>
                            SetResponse(elements++, A_CANTUSE, L_CANTUSE, TEASER);
                        } else if ((data[0] == 'r')&&((255-actObj1.byteField[ACTION_MASK]) & READ)) {
                            SetResponse(elements++, A_CANTREAD, L_CANTREAD, TEASER);
                        } else {
                            //Special game
                            if (actObj1.lenStr[ACTION_STR1] == 1) {
    20f0:	80 91 27 39 	lds	r24, 0x3927	; 0x803927 <actObj1.3943+0x1e>
    20f4:	90 91 28 39 	lds	r25, 0x3928	; 0x803928 <actObj1.3943+0x1f>
    20f8:	81 30       	cpi	r24, 0x01	; 1
    20fa:	91 05       	cpc	r25, r1
    20fc:	69 f4       	brne	.+26     	; 0x2118 <ProcessInput+0x970>
                                ExtEERead(actObj1.addrStr[ACTION_STR1], 1, GAME, &data[2]);
    20fe:	98 01       	movw	r18, r16
    2100:	2e 5f       	subi	r18, 0xFE	; 254
    2102:	3f 4f       	sbci	r19, 0xFF	; 255
    2104:	40 e0       	ldi	r20, 0x00	; 0
    2106:	61 e0       	ldi	r22, 0x01	; 1
    2108:	80 91 19 39 	lds	r24, 0x3919	; 0x803919 <actObj1.3943+0x10>
    210c:	90 91 1a 39 	lds	r25, 0x391A	; 0x80391a <actObj1.3943+0x11>
    2110:	0e 94 4c 07 	call	0xe98	; 0xe98 <ExtEERead>
}

//The game logic!
uint8_t ProcessInput(uint8_t *data){
    static object_model_t actObj1, actObj2;
    uint8_t elements = 0;
    2114:	c0 e0       	ldi	r28, 0x00	; 0
    2116:	d7 c0       	rjmp	.+430    	; 0x22c6 <ProcessInput+0xb1e>
                                    //SetResponse(elements++, A_, L_RESPONSE, TEASER);
                                }
                                

                            //General request
                            } else if (actObj1.lenStr[ACTION_STR1]) {
    2118:	00 97       	sbiw	r24, 0x00	; 0
    211a:	09 f4       	brne	.+2      	; 0x211e <ProcessInput+0x976>
    211c:	5a c0       	rjmp	.+180    	; 0x21d2 <ProcessInput+0xa2a>
    return 0;
}

//
void SetResponse(uint8_t number, uint16_t address, uint16_t length, uint8_t type){
    reactStr[0][number]=address;
    211e:	20 91 19 39 	lds	r18, 0x3919	; 0x803919 <actObj1.3943+0x10>
    2122:	30 91 1a 39 	lds	r19, 0x391A	; 0x80391a <actObj1.3943+0x11>
    2126:	20 93 48 39 	sts	0x3948, r18	; 0x803948 <reactStr>
    212a:	30 93 49 39 	sts	0x3949, r19	; 0x803949 <reactStr+0x1>
    reactStr[1][number]=length;
    212e:	80 93 88 39 	sts	0x3988, r24	; 0x803988 <reactStr+0x40>
    2132:	90 93 89 39 	sts	0x3989, r25	; 0x803989 <reactStr+0x41>
    reactStr[2][number]=type;
    2136:	10 92 c8 39 	sts	0x39C8, r1	; 0x8039c8 <reactStr+0x80>
    213a:	10 92 c9 39 	sts	0x39C9, r1	; 0x8039c9 <reactStr+0x81>
    return 0;
}

//
void SetResponse(uint8_t number, uint16_t address, uint16_t length, uint8_t type){
    reactStr[0][number]=address;
    213e:	8b e5       	ldi	r24, 0x5B	; 91
    2140:	9a e7       	ldi	r25, 0x7A	; 122
    2142:	80 93 4a 39 	sts	0x394A, r24	; 0x80394a <reactStr+0x2>
    2146:	90 93 4b 39 	sts	0x394B, r25	; 0x80394b <reactStr+0x3>
    reactStr[1][number]=length;
    214a:	82 e0       	ldi	r24, 0x02	; 2
    214c:	90 e0       	ldi	r25, 0x00	; 0
    214e:	80 93 8a 39 	sts	0x398A, r24	; 0x80398a <reactStr+0x42>
    2152:	90 93 8b 39 	sts	0x398B, r25	; 0x80398b <reactStr+0x43>
    reactStr[2][number]=type;
    2156:	81 e0       	ldi	r24, 0x01	; 1
    2158:	90 e0       	ldi	r25, 0x00	; 0
    215a:	80 93 ca 39 	sts	0x39CA, r24	; 0x8039ca <reactStr+0x82>
    215e:	90 93 cb 39 	sts	0x39CB, r25	; 0x8039cb <reactStr+0x83>
    return 0;
}

//
void SetResponse(uint8_t number, uint16_t address, uint16_t length, uint8_t type){
    reactStr[0][number]=address;
    2162:	20 eb       	ldi	r18, 0xB0	; 176
    2164:	38 e7       	ldi	r19, 0x78	; 120
    2166:	20 93 4c 39 	sts	0x394C, r18	; 0x80394c <reactStr+0x4>
    216a:	30 93 4d 39 	sts	0x394D, r19	; 0x80394d <reactStr+0x5>
    reactStr[1][number]=length;
    216e:	22 e1       	ldi	r18, 0x12	; 18
    2170:	30 e0       	ldi	r19, 0x00	; 0
    2172:	20 93 8c 39 	sts	0x398C, r18	; 0x80398c <reactStr+0x44>
    2176:	30 93 8d 39 	sts	0x398D, r19	; 0x80398d <reactStr+0x45>
    reactStr[2][number]=type;
    217a:	80 93 cc 39 	sts	0x39CC, r24	; 0x8039cc <reactStr+0x84>
    217e:	90 93 cd 39 	sts	0x39CD, r25	; 0x8039cd <reactStr+0x85>
                            //General request
                            } else if (actObj1.lenStr[ACTION_STR1]) {
                                SetResponse(elements++, actObj1.addrStr[ACTION_STR1], actObj1.lenStr[ACTION_STR1], GAME);
                                SetResponse(elements++, A_LF, 2, TEASER);
                                SetResponse(elements++, A_RESPONSE, L_RESPONSE, TEASER);
                                if (actObj1.lenStr[ACTION_STR2]>(INP_LENGTH-1)) actObj1.lenStr[ACTION_STR2] = (INP_LENGTH-1);
    2182:	80 91 29 39 	lds	r24, 0x3929	; 0x803929 <actObj1.3943+0x20>
    2186:	90 91 2a 39 	lds	r25, 0x392A	; 0x80392a <actObj1.3943+0x21>
    218a:	40 97       	sbiw	r24, 0x10	; 16
    218c:	30 f0       	brcs	.+12     	; 0x219a <ProcessInput+0x9f2>
    218e:	8f e0       	ldi	r24, 0x0F	; 15
    2190:	90 e0       	ldi	r25, 0x00	; 0
    2192:	80 93 29 39 	sts	0x3929, r24	; 0x803929 <actObj1.3943+0x20>
    2196:	90 93 2a 39 	sts	0x392A, r25	; 0x80392a <actObj1.3943+0x21>
                                ExtEERead(actObj1.addrStr[ACTION_STR2], actObj1.lenStr[ACTION_STR2], GAME, (uint8_t *)&specialInput[0]);
    219a:	27 e3       	ldi	r18, 0x37	; 55
    219c:	39 e3       	ldi	r19, 0x39	; 57
    219e:	40 e0       	ldi	r20, 0x00	; 0
    21a0:	60 91 29 39 	lds	r22, 0x3929	; 0x803929 <actObj1.3943+0x20>
    21a4:	80 91 1b 39 	lds	r24, 0x391B	; 0x80391b <actObj1.3943+0x12>
    21a8:	90 91 1c 39 	lds	r25, 0x391C	; 0x80391c <actObj1.3943+0x13>
    21ac:	0e 94 4c 07 	call	0xe98	; 0xe98 <ExtEERead>
                                UnflipData(actObj1.lenStr[ACTION_STR2], &specialInput[0]);
    21b0:	67 e3       	ldi	r22, 0x37	; 55
    21b2:	79 e3       	ldi	r23, 0x39	; 57
    21b4:	80 91 29 39 	lds	r24, 0x3929	; 0x803929 <actObj1.3943+0x20>
    21b8:	0e 94 3f 07 	call	0xe7e	; 0xe7e <UnflipData>
                                specialInput[actObj1.lenStr[ACTION_STR2]] = 0;
    21bc:	e0 91 29 39 	lds	r30, 0x3929	; 0x803929 <actObj1.3943+0x20>
    21c0:	f0 91 2a 39 	lds	r31, 0x392A	; 0x80392a <actObj1.3943+0x21>
    21c4:	e9 5c       	subi	r30, 0xC9	; 201
    21c6:	f6 4c       	sbci	r31, 0xC6	; 198
    21c8:	10 82       	st	Z, r1
                                specialPassed = 0;
    21ca:	10 92 36 39 	sts	0x3936, r1	; 0x803936 <specialPassed>

                            //General request
                            } else if (actObj1.lenStr[ACTION_STR1]) {
                                SetResponse(elements++, actObj1.addrStr[ACTION_STR1], actObj1.lenStr[ACTION_STR1], GAME);
                                SetResponse(elements++, A_LF, 2, TEASER);
                                SetResponse(elements++, A_RESPONSE, L_RESPONSE, TEASER);
    21ce:	c3 e0       	ldi	r28, 0x03	; 3
    21d0:	7a c0       	rjmp	.+244    	; 0x22c6 <ProcessInput+0xb1e>
                                if (actObj1.lenStr[ACTION_STR2]>(INP_LENGTH-1)) actObj1.lenStr[ACTION_STR2] = (INP_LENGTH-1);
                                ExtEERead(actObj1.addrStr[ACTION_STR2], actObj1.lenStr[ACTION_STR2], GAME, (uint8_t *)&specialInput[0]);
                                UnflipData(actObj1.lenStr[ACTION_STR2], &specialInput[0]);
                                specialInput[actObj1.lenStr[ACTION_STR2]] = 0;
                                specialPassed = 0;
                            } else if (CheckState(actObj1.byteField[ACTION_ACL])){
    21d2:	80 91 10 39 	lds	r24, 0x3910	; 0x803910 <actObj1.3943+0x7>
    21d6:	0e 94 d0 08 	call	0x11a0	; 0x11a0 <CheckState>
    21da:	88 23       	and	r24, r24
    21dc:	c9 f0       	breq	.+50     	; 0x2210 <ProcessInput+0xa68>
                                SetResponse(elements++, actObj1.addrStr[ACTION_MSG], actObj1.lenStr[ACTION_MSG], GAME);
    21de:	80 91 2f 39 	lds	r24, 0x392F	; 0x80392f <actObj1.3943+0x26>
    21e2:	90 91 30 39 	lds	r25, 0x3930	; 0x803930 <actObj1.3943+0x27>
    return 0;
}

//
void SetResponse(uint8_t number, uint16_t address, uint16_t length, uint8_t type){
    reactStr[0][number]=address;
    21e6:	20 91 21 39 	lds	r18, 0x3921	; 0x803921 <actObj1.3943+0x18>
    21ea:	30 91 22 39 	lds	r19, 0x3922	; 0x803922 <actObj1.3943+0x19>
    21ee:	20 93 48 39 	sts	0x3948, r18	; 0x803948 <reactStr>
    21f2:	30 93 49 39 	sts	0x3949, r19	; 0x803949 <reactStr+0x1>
    reactStr[1][number]=length;
    21f6:	80 93 88 39 	sts	0x3988, r24	; 0x803988 <reactStr+0x40>
    21fa:	90 93 89 39 	sts	0x3989, r25	; 0x803989 <reactStr+0x41>
    reactStr[2][number]=type;
    21fe:	10 92 c8 39 	sts	0x39C8, r1	; 0x8039c8 <reactStr+0x80>
    2202:	10 92 c9 39 	sts	0x39C9, r1	; 0x8039c9 <reactStr+0x81>
                                UnflipData(actObj1.lenStr[ACTION_STR2], &specialInput[0]);
                                specialInput[actObj1.lenStr[ACTION_STR2]] = 0;
                                specialPassed = 0;
                            } else if (CheckState(actObj1.byteField[ACTION_ACL])){
                                SetResponse(elements++, actObj1.addrStr[ACTION_MSG], actObj1.lenStr[ACTION_MSG], GAME);
                                UpdateState(actObj1.byteField[ACTION_STATE]);
    2206:	80 91 13 39 	lds	r24, 0x3913	; 0x803913 <actObj1.3943+0xa>
    220a:	0e 94 c8 08 	call	0x1190	; 0x1190 <UpdateState>
    220e:	5a c0       	rjmp	.+180    	; 0x22c4 <ProcessInput+0xb1c>
                            } else {
                                SetResponse(elements++, actObj1.addrStr[ACTION_ACL_MSG], actObj1.lenStr[ACTION_ACL_MSG], GAME);
    2210:	80 91 2d 39 	lds	r24, 0x392D	; 0x80392d <actObj1.3943+0x24>
    2214:	90 91 2e 39 	lds	r25, 0x392E	; 0x80392e <actObj1.3943+0x25>
    return 0;
}

//
void SetResponse(uint8_t number, uint16_t address, uint16_t length, uint8_t type){
    reactStr[0][number]=address;
    2218:	20 91 1f 39 	lds	r18, 0x391F	; 0x80391f <actObj1.3943+0x16>
    221c:	30 91 20 39 	lds	r19, 0x3920	; 0x803920 <actObj1.3943+0x17>
    2220:	e4 cc       	rjmp	.-1592   	; 0x1bea <ProcessInput+0x442>
    2222:	8c e3       	ldi	r24, 0x3C	; 60
    2224:	99 e7       	ldi	r25, 0x79	; 121
    2226:	80 93 48 39 	sts	0x3948, r24	; 0x803948 <reactStr>
    222a:	90 93 49 39 	sts	0x3949, r25	; 0x803949 <reactStr+0x1>
    reactStr[1][number]=length;
    222e:	84 e1       	ldi	r24, 0x14	; 20
    2230:	90 e0       	ldi	r25, 0x00	; 0
    2232:	dc c0       	rjmp	.+440    	; 0x23ec <ProcessInput+0xc44>
                    }
                }
            }
        
        //Special answer given
        } else if (data[0] == 'a'){
    2234:	81 36       	cpi	r24, 0x61	; 97
    2236:	09 f0       	breq	.+2      	; 0x223a <ProcessInput+0xa92>
    2238:	6d cf       	rjmp	.-294    	; 0x2114 <ProcessInput+0x96c>
            if (specialPassed == 2) {
    223a:	80 91 36 39 	lds	r24, 0x3936	; 0x803936 <specialPassed>
    223e:	82 30       	cpi	r24, 0x02	; 2
    2240:	09 f4       	brne	.+2      	; 0x2244 <ProcessInput+0xa9c>
    2242:	68 cf       	rjmp	.-304    	; 0x2114 <ProcessInput+0x96c>
    2244:	e0 91 8f 38 	lds	r30, 0x388F	; 0x80388f <currDepth>

            } else if (specialPassed == 1) {
                PopulateObject(route[currDepth+1], &actObj1);
    2248:	f0 e0       	ldi	r31, 0x00	; 0
    224a:	ee 0f       	add	r30, r30
    224c:	ff 1f       	adc	r31, r31
    224e:	e6 5f       	subi	r30, 0xF6	; 246
    2250:	f5 4c       	sbci	r31, 0xC5	; 197
    2252:	69 e0       	ldi	r22, 0x09	; 9
    2254:	79 e3       	ldi	r23, 0x39	; 57
        
        //Special answer given
        } else if (data[0] == 'a'){
            if (specialPassed == 2) {

            } else if (specialPassed == 1) {
    2256:	81 30       	cpi	r24, 0x01	; 1
    2258:	e9 f4       	brne	.+58     	; 0x2294 <ProcessInput+0xaec>
                PopulateObject(route[currDepth+1], &actObj1);
    225a:	80 81       	ld	r24, Z
    225c:	91 81       	ldd	r25, Z+1	; 0x01
    225e:	0e 94 56 08 	call	0x10ac	; 0x10ac <PopulateObject>
                SetResponse(elements++, actObj1.addrStr[ACTION_MSG], actObj1.lenStr[ACTION_MSG], GAME);
    2262:	80 91 2f 39 	lds	r24, 0x392F	; 0x80392f <actObj1.3943+0x26>
    2266:	90 91 30 39 	lds	r25, 0x3930	; 0x803930 <actObj1.3943+0x27>
    return 0;
}

//
void SetResponse(uint8_t number, uint16_t address, uint16_t length, uint8_t type){
    reactStr[0][number]=address;
    226a:	20 91 21 39 	lds	r18, 0x3921	; 0x803921 <actObj1.3943+0x18>
    226e:	30 91 22 39 	lds	r19, 0x3922	; 0x803922 <actObj1.3943+0x19>
    2272:	20 93 48 39 	sts	0x3948, r18	; 0x803948 <reactStr>
    2276:	30 93 49 39 	sts	0x3949, r19	; 0x803949 <reactStr+0x1>
    reactStr[1][number]=length;
    227a:	80 93 88 39 	sts	0x3988, r24	; 0x803988 <reactStr+0x40>
    227e:	90 93 89 39 	sts	0x3989, r25	; 0x803989 <reactStr+0x41>
    reactStr[2][number]=type;
    2282:	10 92 c8 39 	sts	0x39C8, r1	; 0x8039c8 <reactStr+0x80>
    2286:	10 92 c9 39 	sts	0x39C9, r1	; 0x8039c9 <reactStr+0x81>
            if (specialPassed == 2) {

            } else if (specialPassed == 1) {
                PopulateObject(route[currDepth+1], &actObj1);
                SetResponse(elements++, actObj1.addrStr[ACTION_MSG], actObj1.lenStr[ACTION_MSG], GAME);
                UpdateState(actObj1.byteField[ACTION_STATE]);
    228a:	80 91 13 39 	lds	r24, 0x3913	; 0x803913 <actObj1.3943+0xa>
    228e:	0e 94 c8 08 	call	0x1190	; 0x1190 <UpdateState>
    2292:	16 c0       	rjmp	.+44     	; 0x22c0 <ProcessInput+0xb18>
                specialInput[0] = 0;
            } else {
                PopulateObject(route[currDepth+1], &actObj1);
    2294:	80 81       	ld	r24, Z
    2296:	91 81       	ldd	r25, Z+1	; 0x01
    2298:	0e 94 56 08 	call	0x10ac	; 0x10ac <PopulateObject>
    return 0;
}

//
void SetResponse(uint8_t number, uint16_t address, uint16_t length, uint8_t type){
    reactStr[0][number]=address;
    229c:	8e e9       	ldi	r24, 0x9E	; 158
    229e:	98 e7       	ldi	r25, 0x78	; 120
    22a0:	80 93 48 39 	sts	0x3948, r24	; 0x803948 <reactStr>
    22a4:	90 93 49 39 	sts	0x3949, r25	; 0x803949 <reactStr+0x1>
    reactStr[1][number]=length;
    22a8:	82 e1       	ldi	r24, 0x12	; 18
    22aa:	90 e0       	ldi	r25, 0x00	; 0
    22ac:	80 93 88 39 	sts	0x3988, r24	; 0x803988 <reactStr+0x40>
    22b0:	90 93 89 39 	sts	0x3989, r25	; 0x803989 <reactStr+0x41>
    reactStr[2][number]=type;
    22b4:	81 e0       	ldi	r24, 0x01	; 1
    22b6:	90 e0       	ldi	r25, 0x00	; 0
    22b8:	80 93 c8 39 	sts	0x39C8, r24	; 0x8039c8 <reactStr+0x80>
    22bc:	90 93 c9 39 	sts	0x39C9, r25	; 0x8039c9 <reactStr+0x81>
                UpdateState(actObj1.byteField[ACTION_STATE]);
                specialInput[0] = 0;
            } else {
                PopulateObject(route[currDepth+1], &actObj1);
                SetResponse(elements++, A_INCORRECT, L_INCORRECT, TEASER);
                specialInput[0] = 0;
    22c0:	10 92 37 39 	sts	0x3937, r1	; 0x803937 <specialInput>
                SetResponse(elements++, actObj1.addrStr[ACTION_MSG], actObj1.lenStr[ACTION_MSG], GAME);
                UpdateState(actObj1.byteField[ACTION_STATE]);
                specialInput[0] = 0;
            } else {
                PopulateObject(route[currDepth+1], &actObj1);
                SetResponse(elements++, A_INCORRECT, L_INCORRECT, TEASER);
    22c4:	c1 e0       	ldi	r28, 0x01	; 1
            ;//No clue, no valid input...
                
        }
            
        //Input handled
        data[0] = 0;
    22c6:	d8 01       	movw	r26, r16
    22c8:	1c 92       	st	X, r1
        serRxDone = 0;
    22ca:	10 92 9c 38 	sts	0x389C, r1	; 0x80389c <serRxDone>
        RXCNT = 0;
    22ce:	1d ba       	out	0x1d, r1	; 29
        if (specialInput[0]) responseList = elements; else responseList = SetStandardResponse(elements);
    22d0:	80 91 37 39 	lds	r24, 0x3937	; 0x803937 <specialInput>
    22d4:	88 23       	and	r24, r24
    22d6:	19 f0       	breq	.+6      	; 0x22de <ProcessInput+0xb36>
    22d8:	c0 93 47 39 	sts	0x3947, r28	; 0x803947 <responseList>
    22dc:	92 c0       	rjmp	.+292    	; 0x2402 <ProcessInput+0xc5a>
    22de:	8c 2f       	mov	r24, r28
    22e0:	0e 94 da 07 	call	0xfb4	; 0xfb4 <SetStandardResponse>
    22e4:	80 93 47 39 	sts	0x3947, r24	; 0x803947 <responseList>
    }
    
    return 0;
    22e8:	8c c0       	rjmp	.+280    	; 0x2402 <ProcessInput+0xc5a>
    return 0;
}

//
void SetResponse(uint8_t number, uint16_t address, uint16_t length, uint8_t type){
    reactStr[0][number]=address;
    22ea:	84 ed       	ldi	r24, 0xD4	; 212
    22ec:	99 e7       	ldi	r25, 0x79	; 121
    22ee:	80 93 48 39 	sts	0x3948, r24	; 0x803948 <reactStr>
    22f2:	90 93 49 39 	sts	0x3949, r25	; 0x803949 <reactStr+0x1>
    reactStr[1][number]=length;
    22f6:	8a e1       	ldi	r24, 0x1A	; 26
    22f8:	90 e0       	ldi	r25, 0x00	; 0
    22fa:	78 c0       	rjmp	.+240    	; 0x23ec <ProcessInput+0xc44>

        //Drop item if in inventory
        if (data[0] == 'd') {
            if ((inventory[0] == 0)&&(inventory[1] == 0)){
                SetResponse(elements++, A_EMPTYHANDS, L_EMPTYHANDS, TEASER);
            } else if (inputLen != 2) {
    22fc:	d2 30       	cpi	r29, 0x02	; 2
    22fe:	09 f0       	breq	.+2      	; 0x2302 <ProcessInput+0xb5a>
    2300:	79 ca       	rjmp	.-2830   	; 0x17f4 <ProcessInput+0x4c>
                SetResponse(elements++, A_NOTPOSSIBLE, L_NOTPOSSIBLE, TEASER);
            } else {
                for (uint8_t x=0; x<2; ++x) {
                    if (inventory[x]) {
                        if (CheckLetter(inventory[x], data[1])) {
    2302:	d8 01       	movw	r26, r16
    2304:	11 96       	adiw	r26, 0x01	; 1
    2306:	6c 91       	ld	r22, X
    2308:	0e 94 e0 08 	call	0x11c0	; 0x11c0 <CheckLetter>
    230c:	88 23       	and	r24, r24
    230e:	09 f4       	brne	.+2      	; 0x2312 <ProcessInput+0xb6a>
    2310:	56 c0       	rjmp	.+172    	; 0x23be <ProcessInput+0xc16>
                SetResponse(elements++, A_EMPTYHANDS, L_EMPTYHANDS, TEASER);
            } else if (inputLen != 2) {
                SetResponse(elements++, A_NOTPOSSIBLE, L_NOTPOSSIBLE, TEASER);
            } else {
                for (uint8_t x=0; x<2; ++x) {
                    if (inventory[x]) {
    2312:	c0 e0       	ldi	r28, 0x00	; 0
    2314:	d0 e0       	ldi	r29, 0x00	; 0
                        if (CheckLetter(inventory[x], data[1])) {
                            PopulateObject(inventory[x], &actObj1);
    2316:	cc 0f       	add	r28, r28
    2318:	dd 1f       	adc	r29, r29
    231a:	ca 56       	subi	r28, 0x6A	; 106
    231c:	d7 4c       	sbci	r29, 0xC7	; 199
    231e:	69 e0       	ldi	r22, 0x09	; 9
    2320:	79 e3       	ldi	r23, 0x39	; 57
    2322:	88 81       	ld	r24, Y
    2324:	99 81       	ldd	r25, Y+1	; 0x01
    2326:	0e 94 56 08 	call	0x10ac	; 0x10ac <PopulateObject>
    return 0;
}

//
void SetResponse(uint8_t number, uint16_t address, uint16_t length, uint8_t type){
    reactStr[0][number]=address;
    232a:	84 ed       	ldi	r24, 0xD4	; 212
    232c:	97 e7       	ldi	r25, 0x77	; 119
    232e:	80 93 48 39 	sts	0x3948, r24	; 0x803948 <reactStr>
    2332:	90 93 49 39 	sts	0x3949, r25	; 0x803949 <reactStr+0x1>
    reactStr[1][number]=length;
    2336:	80 e1       	ldi	r24, 0x10	; 16
    2338:	90 e0       	ldi	r25, 0x00	; 0
    233a:	80 93 88 39 	sts	0x3988, r24	; 0x803988 <reactStr+0x40>
    233e:	90 93 89 39 	sts	0x3989, r25	; 0x803989 <reactStr+0x41>
    reactStr[2][number]=type;
    2342:	81 e0       	ldi	r24, 0x01	; 1
    2344:	90 e0       	ldi	r25, 0x00	; 0
    2346:	80 93 c8 39 	sts	0x39C8, r24	; 0x8039c8 <reactStr+0x80>
    234a:	90 93 c9 39 	sts	0x39C9, r25	; 0x8039c9 <reactStr+0x81>
                for (uint8_t x=0; x<2; ++x) {
                    if (inventory[x]) {
                        if (CheckLetter(inventory[x], data[1])) {
                            PopulateObject(inventory[x], &actObj1);
                            SetResponse(elements++, A_DROPPING, L_DROPPING, TEASER);
                            SetResponse(elements++, actObj1.addrStr[NAME], actObj1.lenStr[NAME], GAME);
    234e:	20 91 23 39 	lds	r18, 0x3923	; 0x803923 <actObj1.3943+0x1a>
    2352:	30 91 24 39 	lds	r19, 0x3924	; 0x803924 <actObj1.3943+0x1b>
    return 0;
}

//
void SetResponse(uint8_t number, uint16_t address, uint16_t length, uint8_t type){
    reactStr[0][number]=address;
    2356:	40 91 15 39 	lds	r20, 0x3915	; 0x803915 <actObj1.3943+0xc>
    235a:	50 91 16 39 	lds	r21, 0x3916	; 0x803916 <actObj1.3943+0xd>
    235e:	40 93 4a 39 	sts	0x394A, r20	; 0x80394a <reactStr+0x2>
    2362:	50 93 4b 39 	sts	0x394B, r21	; 0x80394b <reactStr+0x3>
    reactStr[1][number]=length;
    2366:	20 93 8a 39 	sts	0x398A, r18	; 0x80398a <reactStr+0x42>
    236a:	30 93 8b 39 	sts	0x398B, r19	; 0x80398b <reactStr+0x43>
    reactStr[2][number]=type;
    236e:	10 92 ca 39 	sts	0x39CA, r1	; 0x8039ca <reactStr+0x82>
    2372:	10 92 cb 39 	sts	0x39CB, r1	; 0x8039cb <reactStr+0x83>
    return 0;
}

//
void SetResponse(uint8_t number, uint16_t address, uint16_t length, uint8_t type){
    reactStr[0][number]=address;
    2376:	2b e5       	ldi	r18, 0x5B	; 91
    2378:	3a e7       	ldi	r19, 0x7A	; 122
    237a:	20 93 4c 39 	sts	0x394C, r18	; 0x80394c <reactStr+0x4>
    237e:	30 93 4d 39 	sts	0x394D, r19	; 0x80394d <reactStr+0x5>
    reactStr[1][number]=length;
    2382:	22 e0       	ldi	r18, 0x02	; 2
    2384:	30 e0       	ldi	r19, 0x00	; 0
    2386:	20 93 8c 39 	sts	0x398C, r18	; 0x80398c <reactStr+0x44>
    238a:	30 93 8d 39 	sts	0x398D, r19	; 0x80398d <reactStr+0x45>
    reactStr[2][number]=type;
    238e:	80 93 cc 39 	sts	0x39CC, r24	; 0x8039cc <reactStr+0x84>
    2392:	90 93 cd 39 	sts	0x39CD, r25	; 0x8039cd <reactStr+0x85>
    return 0;
}

//
void SetResponse(uint8_t number, uint16_t address, uint16_t length, uint8_t type){
    reactStr[0][number]=address;
    2396:	27 e9       	ldi	r18, 0x97	; 151
    2398:	37 e7       	ldi	r19, 0x77	; 119
    239a:	20 93 4e 39 	sts	0x394E, r18	; 0x80394e <reactStr+0x6>
    239e:	30 93 4f 39 	sts	0x394F, r19	; 0x80394f <reactStr+0x7>
    reactStr[1][number]=length;
    23a2:	2d e3       	ldi	r18, 0x3D	; 61
    23a4:	30 e0       	ldi	r19, 0x00	; 0
    23a6:	20 93 8e 39 	sts	0x398E, r18	; 0x80398e <reactStr+0x46>
    23aa:	30 93 8f 39 	sts	0x398F, r19	; 0x80398f <reactStr+0x47>
    reactStr[2][number]=type;
    23ae:	80 93 ce 39 	sts	0x39CE, r24	; 0x8039ce <reactStr+0x86>
    23b2:	90 93 cf 39 	sts	0x39CF, r25	; 0x8039cf <reactStr+0x87>
                            PopulateObject(inventory[x], &actObj1);
                            SetResponse(elements++, A_DROPPING, L_DROPPING, TEASER);
                            SetResponse(elements++, actObj1.addrStr[NAME], actObj1.lenStr[NAME], GAME);
                            SetResponse(elements++, A_LF, 2, TEASER);
                            SetResponse(elements++, A_RETURNING, L_RETURNING, TEASER);
                            inventory[x] = 0;
    23b6:	18 82       	st	Y, r1
    23b8:	19 82       	std	Y+1, r1	; 0x01
                        if (CheckLetter(inventory[x], data[1])) {
                            PopulateObject(inventory[x], &actObj1);
                            SetResponse(elements++, A_DROPPING, L_DROPPING, TEASER);
                            SetResponse(elements++, actObj1.addrStr[NAME], actObj1.lenStr[NAME], GAME);
                            SetResponse(elements++, A_LF, 2, TEASER);
                            SetResponse(elements++, A_RETURNING, L_RETURNING, TEASER);
    23ba:	c4 e0       	ldi	r28, 0x04	; 4
                            inventory[x] = 0;
                            break;
    23bc:	84 cf       	rjmp	.-248    	; 0x22c6 <ProcessInput+0xb1e>
                SetResponse(elements++, A_EMPTYHANDS, L_EMPTYHANDS, TEASER);
            } else if (inputLen != 2) {
                SetResponse(elements++, A_NOTPOSSIBLE, L_NOTPOSSIBLE, TEASER);
            } else {
                for (uint8_t x=0; x<2; ++x) {
                    if (inventory[x]) {
    23be:	80 91 98 38 	lds	r24, 0x3898	; 0x803898 <inventory+0x2>
    23c2:	90 91 99 38 	lds	r25, 0x3899	; 0x803899 <inventory+0x3>
    23c6:	00 97       	sbiw	r24, 0x00	; 0
    23c8:	49 f0       	breq	.+18     	; 0x23dc <ProcessInput+0xc34>
                        if (CheckLetter(inventory[x], data[1])) {
    23ca:	f8 01       	movw	r30, r16
    23cc:	61 81       	ldd	r22, Z+1	; 0x01
    23ce:	0e 94 e0 08 	call	0x11c0	; 0x11c0 <CheckLetter>
    23d2:	88 23       	and	r24, r24
    23d4:	19 f0       	breq	.+6      	; 0x23dc <ProcessInput+0xc34>
                SetResponse(elements++, A_EMPTYHANDS, L_EMPTYHANDS, TEASER);
            } else if (inputLen != 2) {
                SetResponse(elements++, A_NOTPOSSIBLE, L_NOTPOSSIBLE, TEASER);
            } else {
                for (uint8_t x=0; x<2; ++x) {
                    if (inventory[x]) {
    23d6:	c1 e0       	ldi	r28, 0x01	; 1
    23d8:	d0 e0       	ldi	r29, 0x00	; 0
    23da:	9d cf       	rjmp	.-198    	; 0x2316 <ProcessInput+0xb6e>
    return 0;
}

//
void SetResponse(uint8_t number, uint16_t address, uint16_t length, uint8_t type){
    reactStr[0][number]=address;
    23dc:	84 e6       	ldi	r24, 0x64	; 100
    23de:	99 e7       	ldi	r25, 0x79	; 121
    23e0:	80 93 48 39 	sts	0x3948, r24	; 0x803948 <reactStr>
    23e4:	90 93 49 39 	sts	0x3949, r25	; 0x803949 <reactStr+0x1>
    reactStr[1][number]=length;
    23e8:	81 e2       	ldi	r24, 0x21	; 33
    23ea:	90 e0       	ldi	r25, 0x00	; 0
    23ec:	80 93 88 39 	sts	0x3988, r24	; 0x803988 <reactStr+0x40>
    23f0:	90 93 89 39 	sts	0x3989, r25	; 0x803989 <reactStr+0x41>
    reactStr[2][number]=type;
    23f4:	81 e0       	ldi	r24, 0x01	; 1
    23f6:	90 e0       	ldi	r25, 0x00	; 0
    23f8:	80 93 c8 39 	sts	0x39C8, r24	; 0x8039c8 <reactStr+0x80>
    23fc:	90 93 c9 39 	sts	0x39C9, r25	; 0x8039c9 <reactStr+0x81>
    2400:	61 cf       	rjmp	.-318    	; 0x22c4 <ProcessInput+0xb1c>
        RXCNT = 0;
        if (specialInput[0]) responseList = elements; else responseList = SetStandardResponse(elements);
    }
    
    return 0;
}
    2402:	80 e0       	ldi	r24, 0x00	; 0
    2404:	df 91       	pop	r29
    2406:	cf 91       	pop	r28
    2408:	1f 91       	pop	r17
    240a:	0f 91       	pop	r16
    240c:	ff 90       	pop	r15
    240e:	ef 90       	pop	r14
    2410:	df 90       	pop	r13
    2412:	cf 90       	pop	r12
    2414:	bf 90       	pop	r11
    2416:	af 90       	pop	r10
    2418:	9f 90       	pop	r9
    241a:	8f 90       	pop	r8
    241c:	08 95       	ret

0000241e <TextAdventure>:


//MAIN GAME STRUCTURE
uint8_t TextAdventure(){
    241e:	cf 93       	push	r28
    static uint8_t serInput[RXLEN];
    
    //Still sending data to serial?
    if (CheckSend()) return 1;
    2420:	0e 94 be 09 	call	0x137c	; 0x137c <CheckSend>
    2424:	88 23       	and	r24, r24
    2426:	11 f0       	breq	.+4      	; 0x242c <TextAdventure+0xe>
    2428:	c1 e0       	ldi	r28, 0x01	; 1
    242a:	11 c0       	rjmp	.+34     	; 0x244e <TextAdventure+0x30>

    //Not sending? Process next response part to send, if any.
    if (CheckResponse()) return 1;        
    242c:	0e 94 12 0a 	call	0x1424	; 0x1424 <CheckResponse>
    2430:	81 11       	cpse	r24, r1
    2432:	fa cf       	rjmp	.-12     	; 0x2428 <TextAdventure+0xa>

    //No responses to send, check if there is user input.
    if (CheckInput(&serInput[0])) return 2; 
    2434:	8d e9       	ldi	r24, 0x9D	; 157
    2436:	98 e3       	ldi	r25, 0x38	; 56
    2438:	3c d8       	rcall	.-3976   	; 0x14b2 <CheckInput>
    243a:	c8 2f       	mov	r28, r24
    243c:	81 11       	cpse	r24, r1
    243e:	06 c0       	rjmp	.+12     	; 0x244c <TextAdventure+0x2e>

    //Input found, process and save (changes only)
    ProcessInput(&serInput[0]);
    2440:	8d e9       	ldi	r24, 0x9D	; 157
    2442:	98 e3       	ldi	r25, 0x38	; 56
    2444:	b1 d9       	rcall	.-3230   	; 0x17a8 <ProcessInput>
    SaveGameState();
    2446:	0e 94 d5 05 	call	0xbaa	; 0xbaa <SaveGameState>

    return 0;
    244a:	01 c0       	rjmp	.+2      	; 0x244e <TextAdventure+0x30>

    //Not sending? Process next response part to send, if any.
    if (CheckResponse()) return 1;        

    //No responses to send, check if there is user input.
    if (CheckInput(&serInput[0])) return 2; 
    244c:	c2 e0       	ldi	r28, 0x02	; 2
    //Input found, process and save (changes only)
    ProcessInput(&serInput[0]);
    SaveGameState();

    return 0;
    244e:	8c 2f       	mov	r24, r28
    2450:	cf 91       	pop	r28
    2452:	08 95       	ret

00002454 <main>:


//This is where it begins, inits first and main program in while(1) loop.
int main(void)
{
    Setup();
    2454:	0e 94 9f 01 	call	0x33e	; 0x33e <Setup>

    //SerSpeed(1);
    //unsigned char strTest[]="\aHckerHotel2020 badge pest!\b\b\b\b\bt\n";
    //SerSend(&strTest[0]);

    SerSpeed(255);
    2458:	8f ef       	ldi	r24, 0xFF	; 255
    245a:	0e 94 f2 04 	call	0x9e4	; 0x9e4 <SerSpeed>
    245e:	a0 eb       	ldi	r26, 0xB0	; 176
    2460:	b5 ea       	ldi	r27, 0xA5	; 165
    ////Turn on LEDs on low setting to check for interrupt glitches

    //"Hacker"
    for (uint8_t n=0; n<6; n++){
        iLED[HCKR[R][n]] = 1;
    2462:	81 e0       	ldi	r24, 0x01	; 1
    2464:	ed 91       	ld	r30, X+
    2466:	f0 e0       	ldi	r31, 0x00	; 0
    2468:	e2 5f       	subi	r30, 0xF2	; 242
    246a:	f4 4c       	sbci	r31, 0xC4	; 196
    246c:	80 83       	st	Z, r24
        iLED[HCKR[G][n]] = 1;
    246e:	15 96       	adiw	r26, 0x05	; 5
    2470:	ec 91       	ld	r30, X
    2472:	15 97       	sbiw	r26, 0x05	; 5
    2474:	f0 e0       	ldi	r31, 0x00	; 0
    2476:	e2 5f       	subi	r30, 0xF2	; 242
    2478:	f4 4c       	sbci	r31, 0xC4	; 196
    247a:	80 83       	st	Z, r24

    SerSpeed(255);
    ////Turn on LEDs on low setting to check for interrupt glitches

    //"Hacker"
    for (uint8_t n=0; n<6; n++){
    247c:	25 ea       	ldi	r18, 0xA5	; 165
    247e:	a6 3b       	cpi	r26, 0xB6	; 182
    2480:	b2 07       	cpc	r27, r18
    2482:	81 f7       	brne	.-32     	; 0x2464 <main+0x10>
    2484:	e2 ea       	ldi	r30, 0xA2	; 162
    2486:	f5 ea       	ldi	r31, 0xA5	; 165
        iLED[HCKR[G][n]] = 1;
    }

    //"Wings"
    for (uint8_t n=0; n<5; n++){
        iLED[WING[L][n]] = 1;
    2488:	91 e0       	ldi	r25, 0x01	; 1
    248a:	ef 01       	movw	r28, r30
    248c:	a5 81       	ldd	r26, Z+5	; 0x05
    248e:	b0 e0       	ldi	r27, 0x00	; 0
    2490:	a2 5f       	subi	r26, 0xF2	; 242
    2492:	b4 4c       	sbci	r27, 0xC4	; 196
    2494:	81 e0       	ldi	r24, 0x01	; 1
    2496:	9c 93       	st	X, r25
    2498:	31 96       	adiw	r30, 0x01	; 1
        iLED[WING[R][n]] = 1;
    249a:	a8 81       	ld	r26, Y
    249c:	b0 e0       	ldi	r27, 0x00	; 0
    249e:	a2 5f       	subi	r26, 0xF2	; 242
    24a0:	b4 4c       	sbci	r27, 0xC4	; 196
    24a2:	9c 93       	st	X, r25
        iLED[HCKR[R][n]] = 1;
        iLED[HCKR[G][n]] = 1;
    }

    //"Wings"
    for (uint8_t n=0; n<5; n++){
    24a4:	25 ea       	ldi	r18, 0xA5	; 165
    24a6:	e7 3a       	cpi	r30, 0xA7	; 167
    24a8:	f2 07       	cpc	r31, r18
    24aa:	79 f7       	brne	.-34     	; 0x248a <main+0x36>
        iLED[WING[L][n]] = 1;
        iLED[WING[R][n]] = 1;
    }    

    //"Others"
    iLED[EYE[G][R]] = 1;
    24ac:	e0 91 ae a5 	lds	r30, 0xA5AE	; 0x80a5ae <__bss_end+0x6a53>
    24b0:	f0 e0       	ldi	r31, 0x00	; 0
    24b2:	e2 5f       	subi	r30, 0xF2	; 242
    24b4:	f4 4c       	sbci	r31, 0xC4	; 196
    24b6:	80 83       	st	Z, r24
    iLED[EYE[G][L]] = 1;
    24b8:	e0 91 af a5 	lds	r30, 0xA5AF	; 0x80a5af <__bss_end+0x6a54>
    24bc:	f0 e0       	ldi	r31, 0x00	; 0
    24be:	e2 5f       	subi	r30, 0xF2	; 242
    24c0:	f4 4c       	sbci	r31, 0xC4	; 196
    24c2:	80 83       	st	Z, r24
    iLED[EYE[R][R]] = 1;
    24c4:	e0 91 ac a5 	lds	r30, 0xA5AC	; 0x80a5ac <__bss_end+0x6a51>
    24c8:	f0 e0       	ldi	r31, 0x00	; 0
    24ca:	e2 5f       	subi	r30, 0xF2	; 242
    24cc:	f4 4c       	sbci	r31, 0xC4	; 196
    24ce:	80 83       	st	Z, r24
    iLED[EYE[R][L]] = 1;
    24d0:	e0 91 ad a5 	lds	r30, 0xA5AD	; 0x80a5ad <__bss_end+0x6a52>
    24d4:	f0 e0       	ldi	r31, 0x00	; 0
    24d6:	e2 5f       	subi	r30, 0xF2	; 242
    24d8:	f4 4c       	sbci	r31, 0xC4	; 196
    24da:	80 83       	st	Z, r24
    iLED[GEM[R]] = 1;
    24dc:	e0 91 a0 a5 	lds	r30, 0xA5A0	; 0x80a5a0 <__bss_end+0x6a45>
    24e0:	f0 e0       	ldi	r31, 0x00	; 0
    24e2:	e2 5f       	subi	r30, 0xF2	; 242
    24e4:	f4 4c       	sbci	r31, 0xC4	; 196
    24e6:	80 83       	st	Z, r24
    iLED[GEM[G]] = 1;
    24e8:	e0 91 a1 a5 	lds	r30, 0xA5A1	; 0x80a5a1 <__bss_end+0x6a46>
    24ec:	f0 e0       	ldi	r31, 0x00	; 0
    24ee:	e2 5f       	subi	r30, 0xF2	; 242
    24f0:	f4 4c       	sbci	r31, 0xC4	; 196
    24f2:	80 83       	st	Z, r24
    iLED[RAT] = 1;
    24f4:	e0 91 9f a5 	lds	r30, 0xA59F	; 0x80a59f <__bss_end+0x6a44>
    24f8:	f0 e0       	ldi	r31, 0x00	; 0
    24fa:	e2 5f       	subi	r30, 0xF2	; 242
    24fc:	f4 4c       	sbci	r31, 0xC4	; 196
    24fe:	80 83       	st	Z, r24
    iLED[CAT] = 1;
    2500:	e0 91 9e a5 	lds	r30, 0xA59E	; 0x80a59e <__bss_end+0x6a43>
    2504:	f0 e0       	ldi	r31, 0x00	; 0
    2506:	e2 5f       	subi	r30, 0xF2	; 242
    2508:	f4 4c       	sbci	r31, 0xC4	; 196
    250a:	80 83       	st	Z, r24
    //uint8_t txBuffer[TXLEN];                    //Buffer for string data

    while (1)
    {
        GenerateAudio();
    250c:	0e 94 ad 06 	call	0xd5a	; 0xd5a <GenerateAudio>

        if (buttonMark){
    2510:	80 91 9a 38 	lds	r24, 0x389A	; 0x80389a <buttonMark>
    2514:	88 23       	and	r24, r24
    2516:	d1 f3       	breq	.-12     	; 0x250c <main+0xb8>
            buttonState = CheckButtons(buttonState);
    2518:	80 91 8d 3a 	lds	r24, 0x3A8D	; 0x803a8d <buttonState>
    251c:	0e 94 03 05 	call	0xa06	; 0xa06 <CheckButtons>
    2520:	80 93 8d 3a 	sts	0x3A8D, r24	; 0x803a8d <buttonState>
            buttonMark = 0;
    2524:	10 92 9a 38 	sts	0x389A, r1	; 0x80389a <buttonMark>
                    if (serTxDone){
                        txBuffer[0] = buttonState;
                        SerSend(&txBuffer[0]);
                    }
*/
            TextAdventure();
    2528:	7a df       	rcall	.-268    	; 0x241e <TextAdventure>
          
            //Other games & user interaction checks
            //MagnetMaze();
            BastetDictates();
    252a:	0e 94 23 07 	call	0xe46	; 0xe46 <BastetDictates>
            //LanyardCode();
            //MakeFriends();
             
            //Check light sensor status (added hysteresis to preserve writing cycles to internal EEPROM)
            if (adcPhot < 10) WriteStatusBit(116, 1);
    252e:	80 91 eb 3a 	lds	r24, 0x3AEB	; 0x803aeb <adcPhot>
    2532:	90 91 ec 3a 	lds	r25, 0x3AEC	; 0x803aec <adcPhot+0x1>
    2536:	0a 97       	sbiw	r24, 0x0a	; 10
    2538:	20 f4       	brcc	.+8      	; 0x2542 <main+0xee>
    253a:	61 e0       	ldi	r22, 0x01	; 1
    253c:	84 e7       	ldi	r24, 0x74	; 116
    253e:	0e 94 5c 06 	call	0xcb8	; 0xcb8 <WriteStatusBit>
            if (adcPhot > 100) WriteStatusBit(116, 0);
    2542:	80 91 eb 3a 	lds	r24, 0x3AEB	; 0x803aeb <adcPhot>
    2546:	90 91 ec 3a 	lds	r25, 0x3AEC	; 0x803aec <adcPhot+0x1>
    254a:	85 36       	cpi	r24, 0x65	; 101
    254c:	91 05       	cpc	r25, r1
    254e:	f0 f2       	brcs	.-68     	; 0x250c <main+0xb8>
    2550:	60 e0       	ldi	r22, 0x00	; 0
    2552:	84 e7       	ldi	r24, 0x74	; 116
    2554:	0e 94 5c 06 	call	0xcb8	; 0xcb8 <WriteStatusBit>
    2558:	d9 cf       	rjmp	.-78     	; 0x250c <main+0xb8>

0000255a <__udivmodqi4>:
    255a:	99 1b       	sub	r25, r25
    255c:	79 e0       	ldi	r23, 0x09	; 9
    255e:	04 c0       	rjmp	.+8      	; 0x2568 <__udivmodqi4_ep>

00002560 <__udivmodqi4_loop>:
    2560:	99 1f       	adc	r25, r25
    2562:	96 17       	cp	r25, r22
    2564:	08 f0       	brcs	.+2      	; 0x2568 <__udivmodqi4_ep>
    2566:	96 1b       	sub	r25, r22

00002568 <__udivmodqi4_ep>:
    2568:	88 1f       	adc	r24, r24
    256a:	7a 95       	dec	r23
    256c:	c9 f7       	brne	.-14     	; 0x2560 <__udivmodqi4_loop>
    256e:	80 95       	com	r24
    2570:	08 95       	ret

00002572 <__udivmodhi4>:
    2572:	aa 1b       	sub	r26, r26
    2574:	bb 1b       	sub	r27, r27
    2576:	51 e1       	ldi	r21, 0x11	; 17
    2578:	07 c0       	rjmp	.+14     	; 0x2588 <__udivmodhi4_ep>

0000257a <__udivmodhi4_loop>:
    257a:	aa 1f       	adc	r26, r26
    257c:	bb 1f       	adc	r27, r27
    257e:	a6 17       	cp	r26, r22
    2580:	b7 07       	cpc	r27, r23
    2582:	10 f0       	brcs	.+4      	; 0x2588 <__udivmodhi4_ep>
    2584:	a6 1b       	sub	r26, r22
    2586:	b7 0b       	sbc	r27, r23

00002588 <__udivmodhi4_ep>:
    2588:	88 1f       	adc	r24, r24
    258a:	99 1f       	adc	r25, r25
    258c:	5a 95       	dec	r21
    258e:	a9 f7       	brne	.-22     	; 0x257a <__udivmodhi4_loop>
    2590:	80 95       	com	r24
    2592:	90 95       	com	r25
    2594:	bc 01       	movw	r22, r24
    2596:	cd 01       	movw	r24, r26
    2598:	08 95       	ret

0000259a <_exit>:
    259a:	f8 94       	cli

0000259c <__stop_program>:
    259c:	ff cf       	rjmp	.-2      	; 0x259c <__stop_program>
