
ISR_IO.elf:     file format elf32-avr

Sections:
Idx Name          Size      VMA       LMA       File off  Algn
  0 .data         00000016  00803800  00001500  000015b4  2**0
                  CONTENTS, ALLOC, LOAD, DATA
  1 .text         000014bc  00000000  00000000  000000b4  2**1
                  CONTENTS, ALLOC, LOAD, READONLY, CODE
  2 .rodata       00000044  000094bc  000014bc  00001570  2**0
                  CONTENTS, ALLOC, LOAD, READONLY, DATA
  3 .bss          00000194  00803816  00803816  000015ca  2**0
                  ALLOC
  4 .comment      00000030  00000000  00000000  000015ca  2**0
                  CONTENTS, READONLY
  5 .note.gnu.avr.deviceinfo 00000040  00000000  00000000  000015fc  2**2
                  CONTENTS, READONLY
  6 .debug_aranges 00000210  00000000  00000000  0000163c  2**0
                  CONTENTS, READONLY, DEBUGGING
  7 .debug_info   00003d53  00000000  00000000  0000184c  2**0
                  CONTENTS, READONLY, DEBUGGING
  8 .debug_abbrev 0000221e  00000000  00000000  0000559f  2**0
                  CONTENTS, READONLY, DEBUGGING
  9 .debug_line   000019c8  00000000  00000000  000077bd  2**0
                  CONTENTS, READONLY, DEBUGGING
 10 .debug_frame  000006b8  00000000  00000000  00009188  2**2
                  CONTENTS, READONLY, DEBUGGING
 11 .debug_str    00001644  00000000  00000000  00009840  2**0
                  CONTENTS, READONLY, DEBUGGING
 12 .debug_loc    00001ed8  00000000  00000000  0000ae84  2**0
                  CONTENTS, READONLY, DEBUGGING
 13 .debug_ranges 00000200  00000000  00000000  0000cd5c  2**0
                  CONTENTS, READONLY, DEBUGGING

Disassembly of section .text:

00000000 <__vectors>:
       0:	3d c0       	rjmp	.+122    	; 0x7c <__ctors_end>
       2:	00 00       	nop
       4:	58 c0       	rjmp	.+176    	; 0xb6 <__bad_interrupt>
       6:	00 00       	nop
       8:	56 c0       	rjmp	.+172    	; 0xb6 <__bad_interrupt>
       a:	00 00       	nop
       c:	54 c0       	rjmp	.+168    	; 0xb6 <__bad_interrupt>
       e:	00 00       	nop
      10:	52 c0       	rjmp	.+164    	; 0xb6 <__bad_interrupt>
      12:	00 00       	nop
      14:	50 c0       	rjmp	.+160    	; 0xb6 <__bad_interrupt>
      16:	00 00       	nop
      18:	23 c4       	rjmp	.+2118   	; 0x860 <__vector_6>
      1a:	00 00       	nop
      1c:	75 c4       	rjmp	.+2282   	; 0x908 <__vector_7>
      1e:	00 00       	nop
      20:	77 c2       	rjmp	.+1262   	; 0x510 <__vector_8>
      22:	00 00       	nop
      24:	48 c0       	rjmp	.+144    	; 0xb6 <__bad_interrupt>
      26:	00 00       	nop
      28:	46 c0       	rjmp	.+140    	; 0xb6 <__bad_interrupt>
      2a:	00 00       	nop
      2c:	44 c0       	rjmp	.+136    	; 0xb6 <__bad_interrupt>
      2e:	00 00       	nop
      30:	42 c0       	rjmp	.+132    	; 0xb6 <__bad_interrupt>
      32:	00 00       	nop
      34:	c1 c2       	rjmp	.+1410   	; 0x5b8 <__vector_13>
      36:	00 00       	nop
      38:	f2 c2       	rjmp	.+1508   	; 0x61e <__vector_14>
      3a:	00 00       	nop
      3c:	3c c0       	rjmp	.+120    	; 0xb6 <__bad_interrupt>
      3e:	00 00       	nop
      40:	3a c0       	rjmp	.+116    	; 0xb6 <__bad_interrupt>
      42:	00 00       	nop
      44:	38 c0       	rjmp	.+112    	; 0xb6 <__bad_interrupt>
      46:	00 00       	nop
      48:	36 c0       	rjmp	.+108    	; 0xb6 <__bad_interrupt>
      4a:	00 00       	nop
      4c:	34 c0       	rjmp	.+104    	; 0xb6 <__bad_interrupt>
      4e:	00 00       	nop
      50:	89 c3       	rjmp	.+1810   	; 0x764 <__vector_20>
      52:	00 00       	nop
      54:	30 c0       	rjmp	.+96     	; 0xb6 <__bad_interrupt>
      56:	00 00       	nop
      58:	b3 c3       	rjmp	.+1894   	; 0x7c0 <__vector_22>
      5a:	00 00       	nop
      5c:	2c c0       	rjmp	.+88     	; 0xb6 <__bad_interrupt>
      5e:	00 00       	nop
      60:	2a c0       	rjmp	.+84     	; 0xb6 <__bad_interrupt>
      62:	00 00       	nop
      64:	28 c0       	rjmp	.+80     	; 0xb6 <__bad_interrupt>
      66:	00 00       	nop
      68:	26 c0       	rjmp	.+76     	; 0xb6 <__bad_interrupt>
      6a:	00 00       	nop
      6c:	2b c3       	rjmp	.+1622   	; 0x6c4 <__vector_27>
      6e:	00 00       	nop
      70:	5d c3       	rjmp	.+1722   	; 0x72c <__vector_28>
      72:	00 00       	nop
      74:	20 c0       	rjmp	.+64     	; 0xb6 <__bad_interrupt>
      76:	00 00       	nop
      78:	1e c0       	rjmp	.+60     	; 0xb6 <__bad_interrupt>
	...

0000007c <__ctors_end>:
      7c:	11 24       	eor	r1, r1
      7e:	1f be       	out	0x3f, r1	; 63
      80:	cf ef       	ldi	r28, 0xFF	; 255
      82:	cd bf       	out	0x3d, r28	; 61
      84:	df e3       	ldi	r29, 0x3F	; 63
      86:	de bf       	out	0x3e, r29	; 62

00000088 <__do_copy_data>:
      88:	18 e3       	ldi	r17, 0x38	; 56
      8a:	a0 e0       	ldi	r26, 0x00	; 0
      8c:	b8 e3       	ldi	r27, 0x38	; 56
      8e:	e0 e0       	ldi	r30, 0x00	; 0
      90:	f5 e1       	ldi	r31, 0x15	; 21
      92:	02 c0       	rjmp	.+4      	; 0x98 <__do_copy_data+0x10>
      94:	05 90       	lpm	r0, Z+
      96:	0d 92       	st	X+, r0
      98:	a6 31       	cpi	r26, 0x16	; 22
      9a:	b1 07       	cpc	r27, r17
      9c:	d9 f7       	brne	.-10     	; 0x94 <__do_copy_data+0xc>

0000009e <__do_clear_bss>:
      9e:	29 e3       	ldi	r18, 0x39	; 57
      a0:	a6 e1       	ldi	r26, 0x16	; 22
      a2:	b8 e3       	ldi	r27, 0x38	; 56
      a4:	01 c0       	rjmp	.+2      	; 0xa8 <.do_clear_bss_start>

000000a6 <.do_clear_bss_loop>:
      a6:	1d 92       	st	X+, r1

000000a8 <.do_clear_bss_start>:
      a8:	aa 3a       	cpi	r26, 0xAA	; 170
      aa:	b2 07       	cpc	r27, r18
      ac:	e1 f7       	brne	.-8      	; 0xa6 <.do_clear_bss_loop>
      ae:	0e 94 da 09 	call	0x13b4	; 0x13b4 <main>
      b2:	0c 94 5c 0a 	jmp	0x14b8	; 0x14b8 <_exit>

000000b6 <__bad_interrupt>:
      b6:	a4 cf       	rjmp	.-184    	; 0x0 <__vectors>

000000b8 <I2C_init>:
// the Atmel device documentation mentions a special command for repeated start TWI_MCMD_REPSTART_gc,
// but this is not used in Atmel's demo code, so we don't use it either

void I2C_rep_start(uint8_t shifted_addr)						    // send repeated start, device_addr + LSB set if READ
{
	TWI0.MADDR = shifted_addr;	
      b8:	81 e0       	ldi	r24, 0x01	; 1
      ba:	80 93 22 04 	sts	0x0422, r24	; 0x800422 <__TEXT_REGION_LENGTH__+0x700422>
      be:	e6 e2       	ldi	r30, 0x26	; 38
      c0:	f4 e0       	ldi	r31, 0x04	; 4
      c2:	80 83       	st	Z, r24
      c4:	10 92 30 04 	sts	0x0430, r1	; 0x800430 <__TEXT_REGION_LENGTH__+0x700430>
      c8:	a1 e2       	ldi	r26, 0x21	; 33
      ca:	b4 e0       	ldi	r27, 0x04	; 4
      cc:	92 e0       	ldi	r25, 0x02	; 2
      ce:	9c 93       	st	X, r25
      d0:	90 83       	st	Z, r25
      d2:	10 92 31 04 	sts	0x0431, r1	; 0x800431 <__TEXT_REGION_LENGTH__+0x700431>
      d6:	e0 e1       	ldi	r30, 0x10	; 16
      d8:	f8 e0       	ldi	r31, 0x08	; 8
      da:	9d e2       	ldi	r25, 0x2D	; 45
      dc:	96 83       	std	Z+6, r25	; 0x06
      de:	98 e0       	ldi	r25, 0x08	; 8
      e0:	94 83       	std	Z+4, r25	; 0x04
      e2:	83 83       	std	Z+3, r24	; 0x03
      e4:	8c 93       	st	X, r24
      e6:	85 81       	ldd	r24, Z+5	; 0x05
      e8:	81 60       	ori	r24, 0x01	; 1
      ea:	85 83       	std	Z+5, r24	; 0x05
      ec:	85 81       	ldd	r24, Z+5	; 0x05
      ee:	84 6c       	ori	r24, 0xC4	; 196
      f0:	85 83       	std	Z+5, r24	; 0x05
      f2:	08 95       	ret

000000f4 <I2C_recover>:
      f4:	e0 e1       	ldi	r30, 0x10	; 16
      f6:	f8 e0       	ldi	r31, 0x08	; 8
      f8:	84 81       	ldd	r24, Z+4	; 0x04
      fa:	88 60       	ori	r24, 0x08	; 8
      fc:	84 83       	std	Z+4, r24	; 0x04
      fe:	13 82       	std	Z+3, r1	; 0x03
     100:	82 e0       	ldi	r24, 0x02	; 2
     102:	80 93 22 04 	sts	0x0422, r24	; 0x800422 <__TEXT_REGION_LENGTH__+0x700422>
     106:	89 e0       	ldi	r24, 0x09	; 9
     108:	a1 e2       	ldi	r26, 0x21	; 33
     10a:	b4 e0       	ldi	r27, 0x04	; 4
     10c:	91 e0       	ldi	r25, 0x01	; 1
     10e:	e2 e2       	ldi	r30, 0x22	; 34
     110:	f4 e0       	ldi	r31, 0x04	; 4
     112:	9c 93       	st	X, r25
     114:	20 e1       	ldi	r18, 0x10	; 16
     116:	2a 95       	dec	r18
     118:	f1 f7       	brne	.-4      	; 0x116 <I2C_recover+0x22>
     11a:	00 c0       	rjmp	.+0      	; 0x11c <I2C_recover+0x28>
     11c:	90 83       	st	Z, r25
     11e:	20 e1       	ldi	r18, 0x10	; 16
     120:	2a 95       	dec	r18
     122:	f1 f7       	brne	.-4      	; 0x120 <I2C_recover+0x2c>
     124:	00 c0       	rjmp	.+0      	; 0x126 <I2C_recover+0x32>
     126:	81 50       	subi	r24, 0x01	; 1
     128:	a1 f7       	brne	.-24     	; 0x112 <I2C_recover+0x1e>
     12a:	e0 e1       	ldi	r30, 0x10	; 16
     12c:	f8 e0       	ldi	r31, 0x08	; 8
     12e:	28 e0       	ldi	r18, 0x08	; 8
     130:	24 83       	std	Z+4, r18	; 0x04
     132:	81 e0       	ldi	r24, 0x01	; 1
     134:	83 83       	std	Z+3, r24	; 0x03
     136:	a1 e2       	ldi	r26, 0x21	; 33
     138:	b4 e0       	ldi	r27, 0x04	; 4
     13a:	92 e0       	ldi	r25, 0x02	; 2
     13c:	9c 93       	st	X, r25
     13e:	95 81       	ldd	r25, Z+5	; 0x05
     140:	91 60       	ori	r25, 0x01	; 1
     142:	95 83       	std	Z+5, r25	; 0x05
     144:	95 81       	ldd	r25, Z+5	; 0x05
     146:	94 6c       	ori	r25, 0xC4	; 196
     148:	95 83       	std	Z+5, r25	; 0x05
     14a:	24 83       	std	Z+4, r18	; 0x04
     14c:	83 83       	std	Z+3, r24	; 0x03
     14e:	8c 93       	st	X, r24
     150:	85 81       	ldd	r24, Z+5	; 0x05
     152:	81 60       	ori	r24, 0x01	; 1
     154:	85 83       	std	Z+5, r24	; 0x05
     156:	85 81       	ldd	r24, Z+5	; 0x05
     158:	84 6c       	ori	r24, 0xC4	; 196
     15a:	85 83       	std	Z+5, r24	; 0x05
     15c:	08 95       	ret

0000015e <I2C_start>:
     15e:	28 2f       	mov	r18, r24
     160:	e0 e1       	ldi	r30, 0x10	; 16
     162:	f8 e0       	ldi	r31, 0x08	; 8
     164:	95 81       	ldd	r25, Z+5	; 0x05
     166:	90 6c       	ori	r25, 0xC0	; 192
     168:	95 83       	std	Z+5, r25	; 0x05
     16a:	95 81       	ldd	r25, Z+5	; 0x05
     16c:	89 2f       	mov	r24, r25
     16e:	84 70       	andi	r24, 0x04	; 4
     170:	92 fd       	sbrc	r25, 2
     172:	03 c0       	rjmp	.+6      	; 0x17a <I2C_start+0x1c>
     174:	20 93 17 08 	sts	0x0817, r18	; 0x800817 <__TEXT_REGION_LENGTH__+0x700817>
     178:	08 95       	ret
     17a:	84 e0       	ldi	r24, 0x04	; 4
     17c:	08 95       	ret

0000017e <I2C_wait_ACK>:
     17e:	8c e0       	ldi	r24, 0x0C	; 12
     180:	80 93 da 38 	sts	0x38DA, r24	; 0x8038da <timeout_I2C>
     184:	e0 e1       	ldi	r30, 0x10	; 16
     186:	f8 e0       	ldi	r31, 0x08	; 8
     188:	04 c0       	rjmp	.+8      	; 0x192 <I2C_wait_ACK+0x14>
     18a:	80 91 da 38 	lds	r24, 0x38DA	; 0x8038da <timeout_I2C>
     18e:	88 23       	and	r24, r24
     190:	b9 f0       	breq	.+46     	; 0x1c0 <I2C_wait_ACK+0x42>
     192:	85 81       	ldd	r24, Z+5	; 0x05
     194:	88 23       	and	r24, r24
     196:	1c f0       	brlt	.+6      	; 0x19e <I2C_wait_ACK+0x20>
     198:	85 81       	ldd	r24, Z+5	; 0x05
     19a:	86 ff       	sbrs	r24, 6
     19c:	f6 cf       	rjmp	.-20     	; 0x18a <I2C_wait_ACK+0xc>
     19e:	e0 e1       	ldi	r30, 0x10	; 16
     1a0:	f8 e0       	ldi	r31, 0x08	; 8
     1a2:	85 81       	ldd	r24, Z+5	; 0x05
     1a4:	80 6c       	ori	r24, 0xC0	; 192
     1a6:	85 83       	std	Z+5, r24	; 0x05
     1a8:	85 81       	ldd	r24, Z+5	; 0x05
     1aa:	82 fd       	sbrc	r24, 2
     1ac:	0b c0       	rjmp	.+22     	; 0x1c4 <I2C_wait_ACK+0x46>
     1ae:	80 91 15 08 	lds	r24, 0x0815	; 0x800815 <__TEXT_REGION_LENGTH__+0x700815>
     1b2:	83 fd       	sbrc	r24, 3
     1b4:	09 c0       	rjmp	.+18     	; 0x1c8 <I2C_wait_ACK+0x4a>
     1b6:	80 91 15 08 	lds	r24, 0x0815	; 0x800815 <__TEXT_REGION_LENGTH__+0x700815>
     1ba:	82 95       	swap	r24
     1bc:	81 70       	andi	r24, 0x01	; 1
     1be:	08 95       	ret
     1c0:	8f ef       	ldi	r24, 0xFF	; 255
     1c2:	08 95       	ret
     1c4:	84 e0       	ldi	r24, 0x04	; 4
     1c6:	08 95       	ret
     1c8:	82 e0       	ldi	r24, 0x02	; 2
     1ca:	08 95       	ret

000001cc <I2C_read>:
}

uint8_t	I2C_read(uint8_t *data, uint8_t ack_flag)					// read data, ack_flag 0: send ACK, 1: send NACK, returns status
{
     1cc:	dc 01       	movw	r26, r24
	timeout_I2C = READ_TIMEOUT;										// reset timeout counter, will be decremented by LED matrix interrupt
     1ce:	9c e0       	ldi	r25, 0x0C	; 12
     1d0:	90 93 da 38 	sts	0x38DA, r25	; 0x8038da <timeout_I2C>
	if ((TWI0.MSTATUS & TWI_BUSSTATE_gm) == TWI_BUSSTATE_OWNER_gc)	// if master controls bus
     1d4:	90 91 15 08 	lds	r25, 0x0815	; 0x800815 <__TEXT_REGION_LENGTH__+0x700815>
     1d8:	89 2f       	mov	r24, r25
     1da:	83 70       	andi	r24, 0x03	; 3
     1dc:	82 30       	cpi	r24, 0x02	; 2
     1de:	39 f0       	breq	.+14     	; 0x1ee <I2C_read+0x22>
		else		TWI0.MCTRLB |= TWI_ACKACT_NACK_gc;				// setup NACK (last byte read)
		*data = TWI0.MDATA;
		if (ack_flag == 0) TWI0.MCTRLB |= TWI_MCMD_RECVTRANS_gc;	// send ACK, more bytes to follow					
		return 0;
	}
	else return 8;													// master does not control bus
     1e0:	88 e0       	ldi	r24, 0x08	; 8
     1e2:	08 95       	ret
	timeout_I2C = READ_TIMEOUT;										// reset timeout counter, will be decremented by LED matrix interrupt
	if ((TWI0.MSTATUS & TWI_BUSSTATE_gm) == TWI_BUSSTATE_OWNER_gc)	// if master controls bus
	{		
		while (!(TWI0.MSTATUS & TWI_RIF_bm))						// wait for RIF set (data byte received)
		{
			if (!(timeout_I2C)) return 0xff;			            // return timeout error
     1e4:	90 91 da 38 	lds	r25, 0x38DA	; 0x8038da <timeout_I2C>
     1e8:	91 11       	cpse	r25, r1
     1ea:	03 c0       	rjmp	.+6      	; 0x1f2 <I2C_read+0x26>
     1ec:	2a c0       	rjmp	.+84     	; 0x242 <I2C_read+0x76>
uint8_t	I2C_read(uint8_t *data, uint8_t ack_flag)					// read data, ack_flag 0: send ACK, 1: send NACK, returns status
{
	timeout_I2C = READ_TIMEOUT;										// reset timeout counter, will be decremented by LED matrix interrupt
	if ((TWI0.MSTATUS & TWI_BUSSTATE_gm) == TWI_BUSSTATE_OWNER_gc)	// if master controls bus
	{		
		while (!(TWI0.MSTATUS & TWI_RIF_bm))						// wait for RIF set (data byte received)
     1ee:	e0 e1       	ldi	r30, 0x10	; 16
     1f0:	f8 e0       	ldi	r31, 0x08	; 8
     1f2:	95 81       	ldd	r25, Z+5	; 0x05
     1f4:	99 23       	and	r25, r25
     1f6:	b4 f7       	brge	.-20     	; 0x1e4 <I2C_read+0x18>
		{
			if (!(timeout_I2C)) return 0xff;			            // return timeout error
		}
		TWI0.MSTATUS |= (TWI_RIF_bm | TWI_WIF_bm);					// clear Read and Write interrupt flags	
     1f8:	e0 e1       	ldi	r30, 0x10	; 16
     1fa:	f8 e0       	ldi	r31, 0x08	; 8
     1fc:	95 81       	ldd	r25, Z+5	; 0x05
     1fe:	90 6c       	ori	r25, 0xC0	; 192
     200:	95 83       	std	Z+5, r25	; 0x05
		if (TWI0.MSTATUS & TWI_BUSERR_bm) return 4;					// Bus Error, abort
     202:	95 81       	ldd	r25, Z+5	; 0x05
     204:	92 fd       	sbrc	r25, 2
     206:	1f c0       	rjmp	.+62     	; 0x246 <I2C_read+0x7a>
		if (TWI0.MSTATUS & TWI_ARBLOST_bm) return 2;				// Arbitration Lost, abort
     208:	90 91 15 08 	lds	r25, 0x0815	; 0x800815 <__TEXT_REGION_LENGTH__+0x700815>
     20c:	93 fd       	sbrc	r25, 3
     20e:	1e c0       	rjmp	.+60     	; 0x24c <I2C_read+0x80>
		if (TWI0.MSTATUS & TWI_RXACK_bm) return 1;					// Slave replied with NACK, abort				
     210:	90 91 15 08 	lds	r25, 0x0815	; 0x800815 <__TEXT_REGION_LENGTH__+0x700815>
     214:	89 2f       	mov	r24, r25
     216:	80 71       	andi	r24, 0x10	; 16
     218:	94 fd       	sbrc	r25, 4
     21a:	17 c0       	rjmp	.+46     	; 0x24a <I2C_read+0x7e>
		if (ack_flag == 0) TWI0.MCTRLB &= ~(1 << TWI_ACKACT_bp);	// setup ACK
     21c:	61 11       	cpse	r22, r1
     21e:	09 c0       	rjmp	.+18     	; 0x232 <I2C_read+0x66>
     220:	94 81       	ldd	r25, Z+4	; 0x04
     222:	9b 7f       	andi	r25, 0xFB	; 251
     224:	94 83       	std	Z+4, r25	; 0x04
		else		TWI0.MCTRLB |= TWI_ACKACT_NACK_gc;				// setup NACK (last byte read)
		*data = TWI0.MDATA;
     226:	90 85       	ldd	r25, Z+8	; 0x08
     228:	9c 93       	st	X, r25
		if (ack_flag == 0) TWI0.MCTRLB |= TWI_MCMD_RECVTRANS_gc;	// send ACK, more bytes to follow					
     22a:	94 81       	ldd	r25, Z+4	; 0x04
     22c:	92 60       	ori	r25, 0x02	; 2
     22e:	94 83       	std	Z+4, r25	; 0x04
     230:	08 95       	ret
		TWI0.MSTATUS |= (TWI_RIF_bm | TWI_WIF_bm);					// clear Read and Write interrupt flags	
		if (TWI0.MSTATUS & TWI_BUSERR_bm) return 4;					// Bus Error, abort
		if (TWI0.MSTATUS & TWI_ARBLOST_bm) return 2;				// Arbitration Lost, abort
		if (TWI0.MSTATUS & TWI_RXACK_bm) return 1;					// Slave replied with NACK, abort				
		if (ack_flag == 0) TWI0.MCTRLB &= ~(1 << TWI_ACKACT_bp);	// setup ACK
		else		TWI0.MCTRLB |= TWI_ACKACT_NACK_gc;				// setup NACK (last byte read)
     232:	e0 e1       	ldi	r30, 0x10	; 16
     234:	f8 e0       	ldi	r31, 0x08	; 8
     236:	94 81       	ldd	r25, Z+4	; 0x04
     238:	94 60       	ori	r25, 0x04	; 4
     23a:	94 83       	std	Z+4, r25	; 0x04
		*data = TWI0.MDATA;
     23c:	90 85       	ldd	r25, Z+8	; 0x08
     23e:	9c 93       	st	X, r25
     240:	08 95       	ret
	timeout_I2C = READ_TIMEOUT;										// reset timeout counter, will be decremented by LED matrix interrupt
	if ((TWI0.MSTATUS & TWI_BUSSTATE_gm) == TWI_BUSSTATE_OWNER_gc)	// if master controls bus
	{		
		while (!(TWI0.MSTATUS & TWI_RIF_bm))						// wait for RIF set (data byte received)
		{
			if (!(timeout_I2C)) return 0xff;			            // return timeout error
     242:	8f ef       	ldi	r24, 0xFF	; 255
     244:	08 95       	ret
		}
		TWI0.MSTATUS |= (TWI_RIF_bm | TWI_WIF_bm);					// clear Read and Write interrupt flags	
		if (TWI0.MSTATUS & TWI_BUSERR_bm) return 4;					// Bus Error, abort
     246:	84 e0       	ldi	r24, 0x04	; 4
     248:	08 95       	ret
		if (TWI0.MSTATUS & TWI_ARBLOST_bm) return 2;				// Arbitration Lost, abort
		if (TWI0.MSTATUS & TWI_RXACK_bm) return 1;					// Slave replied with NACK, abort				
     24a:	81 e0       	ldi	r24, 0x01	; 1
		*data = TWI0.MDATA;
		if (ack_flag == 0) TWI0.MCTRLB |= TWI_MCMD_RECVTRANS_gc;	// send ACK, more bytes to follow					
		return 0;
	}
	else return 8;													// master does not control bus
}
     24c:	08 95       	ret

0000024e <I2C_write>:

uint8_t I2C_write(uint8_t *data)									// write data, return status
{
     24e:	fc 01       	movw	r30, r24
	timeout_I2C = WRITE_TIMEOUT;									// reset timeout counter, will be decremented by LED matrix interrupt
     250:	9c e0       	ldi	r25, 0x0C	; 12
     252:	90 93 da 38 	sts	0x38DA, r25	; 0x8038da <timeout_I2C>
	if ((TWI0.MSTATUS & TWI_BUSSTATE_gm) == TWI_BUSSTATE_OWNER_gc)	// if master controls bus
     256:	90 91 15 08 	lds	r25, 0x0815	; 0x800815 <__TEXT_REGION_LENGTH__+0x700815>
     25a:	93 70       	andi	r25, 0x03	; 3
     25c:	92 30       	cpi	r25, 0x02	; 2
     25e:	b1 f4       	brne	.+44     	; 0x28c <I2C_write+0x3e>
	{
		TWI0.MDATA = *data;		
     260:	80 81       	ld	r24, Z
     262:	80 93 18 08 	sts	0x0818, r24	; 0x800818 <__TEXT_REGION_LENGTH__+0x700818>
		while (!(TWI0.MSTATUS & TWI_WIF_bm))						// wait until WIF set, status register contains ACK/NACK bit
     266:	e0 e1       	ldi	r30, 0x10	; 16
     268:	f8 e0       	ldi	r31, 0x08	; 8
     26a:	04 c0       	rjmp	.+8      	; 0x274 <I2C_write+0x26>
		{
			if (!(timeout_I2C)) return 0xff;			            // return timeout error
     26c:	80 91 da 38 	lds	r24, 0x38DA	; 0x8038da <timeout_I2C>
     270:	88 23       	and	r24, r24
     272:	71 f0       	breq	.+28     	; 0x290 <I2C_write+0x42>
{
	timeout_I2C = WRITE_TIMEOUT;									// reset timeout counter, will be decremented by LED matrix interrupt
	if ((TWI0.MSTATUS & TWI_BUSSTATE_gm) == TWI_BUSSTATE_OWNER_gc)	// if master controls bus
	{
		TWI0.MDATA = *data;		
		while (!(TWI0.MSTATUS & TWI_WIF_bm))						// wait until WIF set, status register contains ACK/NACK bit
     274:	85 81       	ldd	r24, Z+5	; 0x05
     276:	86 ff       	sbrs	r24, 6
     278:	f9 cf       	rjmp	.-14     	; 0x26c <I2C_write+0x1e>
		{
			if (!(timeout_I2C)) return 0xff;			            // return timeout error
		}
		if (TWI0.MSTATUS & TWI_BUSERR_bm) return 4;					// Bus Error, abort
     27a:	80 91 15 08 	lds	r24, 0x0815	; 0x800815 <__TEXT_REGION_LENGTH__+0x700815>
     27e:	82 fd       	sbrc	r24, 2
     280:	09 c0       	rjmp	.+18     	; 0x294 <I2C_write+0x46>
		if (TWI0.MSTATUS & TWI_RXACK_bm) return 1;					// Slave replied with NACK, abort
     282:	80 91 15 08 	lds	r24, 0x0815	; 0x800815 <__TEXT_REGION_LENGTH__+0x700815>
	if ((TWI0.MSTATUS & TWI_BUSSTATE_gm) == TWI_BUSSTATE_OWNER_gc)	// if master controls bus
	{
		TWI0.MDATA = *data;		
		while (!(TWI0.MSTATUS & TWI_WIF_bm))						// wait until WIF set, status register contains ACK/NACK bit
		{
			if (!(timeout_I2C)) return 0xff;			            // return timeout error
     286:	82 95       	swap	r24
     288:	81 70       	andi	r24, 0x01	; 1
     28a:	08 95       	ret
		}
		if (TWI0.MSTATUS & TWI_BUSERR_bm) return 4;					// Bus Error, abort
		if (TWI0.MSTATUS & TWI_RXACK_bm) return 1;					// Slave replied with NACK, abort
		return 0;													// no error	
	}
	else return 8;													// master does not control bus
     28c:	88 e0       	ldi	r24, 0x08	; 8
     28e:	08 95       	ret
	if ((TWI0.MSTATUS & TWI_BUSSTATE_gm) == TWI_BUSSTATE_OWNER_gc)	// if master controls bus
	{
		TWI0.MDATA = *data;		
		while (!(TWI0.MSTATUS & TWI_WIF_bm))						// wait until WIF set, status register contains ACK/NACK bit
		{
			if (!(timeout_I2C)) return 0xff;			            // return timeout error
     290:	8f ef       	ldi	r24, 0xFF	; 255
     292:	08 95       	ret
		}
		if (TWI0.MSTATUS & TWI_BUSERR_bm) return 4;					// Bus Error, abort
     294:	84 e0       	ldi	r24, 0x04	; 4
		if (TWI0.MSTATUS & TWI_RXACK_bm) return 1;					// Slave replied with NACK, abort
		return 0;													// no error	
	}
	else return 8;													// master does not control bus
}
     296:	08 95       	ret

00000298 <I2C_stop>:

void I2C_stop()
{
	TWI0.MCTRLB |= TWI_MCMD_STOP_gc;
     298:	e0 e1       	ldi	r30, 0x10	; 16
     29a:	f8 e0       	ldi	r31, 0x08	; 8
     29c:	84 81       	ldd	r24, Z+4	; 0x04
     29e:	83 60       	ori	r24, 0x03	; 3
     2a0:	84 83       	std	Z+4, r24	; 0x04
     2a2:	08 95       	ret

000002a4 <I2C_read_bytes>:
// addr_ptr		address of first array element to transfer
// slave reg	starting slave register
// num_bytes	number of bytes to transfer

uint8_t	I2C_read_bytes(uint8_t slave_addr, uint8_t *reg_ptr, uint8_t reg_len, uint8_t *dat_ptr, uint8_t dat_len)
{
     2a4:	cf 92       	push	r12
     2a6:	df 92       	push	r13
     2a8:	ef 92       	push	r14
     2aa:	ff 92       	push	r15
     2ac:	0f 93       	push	r16
     2ae:	1f 93       	push	r17
     2b0:	cf 93       	push	r28
     2b2:	df 93       	push	r29
     2b4:	eb 01       	movw	r28, r22
     2b6:	c4 2e       	mov	r12, r20
     2b8:	79 01       	movw	r14, r18
	uint8_t status;
	if (dat_len > MAX_LEN) dat_len = MAX_LEN;
	status = I2C_start(slave_addr << 1);							// slave write address, LSB 0
     2ba:	18 2f       	mov	r17, r24
     2bc:	11 0f       	add	r17, r17
     2be:	81 2f       	mov	r24, r17
     2c0:	4e df       	rcall	.-356    	; 0x15e <I2C_start>
	if (status != 0) goto error;
     2c2:	81 11       	cpse	r24, r1
	status = I2C_wait_ACK();										// wait for slave ACK
     2c4:	3c c0       	rjmp	.+120    	; 0x33e <I2C_read_bytes+0x9a>
     2c6:	5b df       	rcall	.-330    	; 0x17e <I2C_wait_ACK>
	if (status == 1) {
     2c8:	81 30       	cpi	r24, 0x01	; 1
		I2C_stop();													// NACK, abort
     2ca:	19 f4       	brne	.+6      	; 0x2d2 <I2C_read_bytes+0x2e>
     2cc:	e5 df       	rcall	.-54     	; 0x298 <I2C_stop>
		return 1;
     2ce:	81 e0       	ldi	r24, 0x01	; 1
     2d0:	38 c0       	rjmp	.+112    	; 0x342 <I2C_read_bytes+0x9e>
	}
	if (status != 0) goto error;
     2d2:	81 11       	cpse	r24, r1
     2d4:	34 c0       	rjmp	.+104    	; 0x33e <I2C_read_bytes+0x9a>
    while(reg_len > 0){
     2d6:	cc 20       	and	r12, r12
     2d8:	79 f0       	breq	.+30     	; 0x2f8 <I2C_read_bytes+0x54>
     2da:	ca 94       	dec	r12
     2dc:	d1 2c       	mov	r13, r1
     2de:	8f ef       	ldi	r24, 0xFF	; 255
     2e0:	c8 1a       	sub	r12, r24
     2e2:	d8 0a       	sbc	r13, r24
     2e4:	cc 0e       	add	r12, r28
	    status = I2C_write(reg_ptr);    							// send slave start register
     2e6:	dd 1e       	adc	r13, r29
     2e8:	ce 01       	movw	r24, r28
     2ea:	b1 df       	rcall	.-158    	; 0x24e <I2C_write>
	    if (status != 0) goto error;
     2ec:	81 11       	cpse	r24, r1
     2ee:	27 c0       	rjmp	.+78     	; 0x33e <I2C_read_bytes+0x9a>
        ++reg_ptr;
     2f0:	21 96       	adiw	r28, 0x01	; 1
	if (status == 1) {
		I2C_stop();													// NACK, abort
		return 1;
	}
	if (status != 0) goto error;
    while(reg_len > 0){
     2f2:	cc 16       	cp	r12, r28
     2f4:	dd 06       	cpc	r13, r29
     2f6:	c1 f7       	brne	.-16     	; 0x2e8 <I2C_read_bytes+0x44>
     2f8:	01 34       	cpi	r16, 0x41	; 65
     2fa:	08 f0       	brcs	.+2      	; 0x2fe <I2C_read_bytes+0x5a>
     2fc:	00 e4       	ldi	r16, 0x40	; 64
	    status = I2C_write(reg_ptr);    							// send slave start register
	    if (status != 0) goto error;
        ++reg_ptr;
        --reg_len;
    }
	I2C_rep_start((slave_addr << 1) + 1);							// slave read address, LSB 1
     2fe:	1f 5f       	subi	r17, 0xFF	; 255
// the Atmel device documentation mentions a special command for repeated start TWI_MCMD_REPSTART_gc,
// but this is not used in Atmel's demo code, so we don't use it either

void I2C_rep_start(uint8_t shifted_addr)						    // send repeated start, device_addr + LSB set if READ
{
	TWI0.MADDR = shifted_addr;	
     300:	10 93 17 08 	sts	0x0817, r17	; 0x800817 <__TEXT_REGION_LENGTH__+0x700817>
	    if (status != 0) goto error;
        ++reg_ptr;
        --reg_len;
    }
	I2C_rep_start((slave_addr << 1) + 1);							// slave read address, LSB 1
	while (dat_len > 1) {
     304:	02 30       	cpi	r16, 0x02	; 2
     306:	90 f0       	brcs	.+36     	; 0x32c <I2C_read_bytes+0x88>
     308:	02 50       	subi	r16, 0x02	; 2
     30a:	c0 2f       	mov	r28, r16
     30c:	d0 e0       	ldi	r29, 0x00	; 0
     30e:	21 96       	adiw	r28, 0x01	; 1
     310:	ce 0d       	add	r28, r14
		status = I2C_read(dat_ptr, 0);								// first bytes, send ACK
     312:	df 1d       	adc	r29, r15
     314:	60 e0       	ldi	r22, 0x00	; 0
     316:	c7 01       	movw	r24, r14
     318:	59 df       	rcall	.-334    	; 0x1cc <I2C_read>
		if (status != 0) goto error;
     31a:	81 11       	cpse	r24, r1
     31c:	10 c0       	rjmp	.+32     	; 0x33e <I2C_read_bytes+0x9a>
		++dat_ptr;
     31e:	8f ef       	ldi	r24, 0xFF	; 255
     320:	e8 1a       	sub	r14, r24
     322:	f8 0a       	sbc	r15, r24
	    if (status != 0) goto error;
        ++reg_ptr;
        --reg_len;
    }
	I2C_rep_start((slave_addr << 1) + 1);							// slave read address, LSB 1
	while (dat_len > 1) {
     324:	ec 16       	cp	r14, r28
     326:	fd 06       	cpc	r15, r29
     328:	a9 f7       	brne	.-22     	; 0x314 <I2C_read_bytes+0x70>
     32a:	01 c0       	rjmp	.+2      	; 0x32e <I2C_read_bytes+0x8a>
		status = I2C_read(dat_ptr, 0);								// first bytes, send ACK
		if (status != 0) goto error;
		++dat_ptr;
		--dat_len;
	}
	status = I2C_read(dat_ptr, 1);									// single or last byte, send NACK
     32c:	e7 01       	movw	r28, r14
     32e:	61 e0       	ldi	r22, 0x01	; 1
     330:	ce 01       	movw	r24, r28
	if (status != 0) goto error;
     332:	4c df       	rcall	.-360    	; 0x1cc <I2C_read>
     334:	81 11       	cpse	r24, r1
	I2C_stop();
     336:	03 c0       	rjmp	.+6      	; 0x33e <I2C_read_bytes+0x9a>
     338:	af df       	rcall	.-162    	; 0x298 <I2C_stop>
	return 0;
     33a:	80 e0       	ldi	r24, 0x00	; 0
     33c:	02 c0       	rjmp	.+4      	; 0x342 <I2C_read_bytes+0x9e>
	
error:
	I2C_recover();													// clock out possibly stuck slave, reset master
     33e:	da de       	rcall	.-588    	; 0xf4 <I2C_recover>
     340:	8f ef       	ldi	r24, 0xFF	; 255
	return 0xff;													// flag error
     342:	df 91       	pop	r29
}
     344:	cf 91       	pop	r28
     346:	1f 91       	pop	r17
     348:	0f 91       	pop	r16
     34a:	ff 90       	pop	r15
     34c:	ef 90       	pop	r14
     34e:	df 90       	pop	r13
     350:	cf 90       	pop	r12
     352:	08 95       	ret

00000354 <Setup>:
     354:	cf 93       	push	r28
// Select "audio" input (0-2.5V)
void SelectAuIn(){
     VREF_CTRLA   = 0x22;    //0x22 for audio in/out (2.5V), 0x12 for temperature in, audio out (1.1V/2.5V)
     ADC0_CTRLA   &= ~(ADC_RESSEL_bm);
     ADC0_MUXPOS  = 0x07;    //Audio in: AIN7 at (0x07), Temperature: Internal sensor at (0x1E)
     adc0Chg = 1;
     356:	df 93       	push	r29
     358:	f8 94       	cli
     35a:	88 ed       	ldi	r24, 0xD8	; 216
     35c:	84 bf       	out	0x34, r24	; 52
     35e:	c1 e0       	ldi	r28, 0x01	; 1
     360:	c0 93 61 00 	sts	0x0061, r28	; 0x800061 <__TEXT_REGION_LENGTH__+0x700061>
     364:	8a e4       	ldi	r24, 0x4A	; 74
     366:	80 93 00 04 	sts	0x0400, r24	; 0x800400 <__TEXT_REGION_LENGTH__+0x700400>
     36a:	8c e7       	ldi	r24, 0x7C	; 124
     36c:	80 93 20 04 	sts	0x0420, r24	; 0x800420 <__TEXT_REGION_LENGTH__+0x700420>
     370:	8f e3       	ldi	r24, 0x3F	; 63
     372:	80 93 40 04 	sts	0x0440, r24	; 0x800440 <__TEXT_REGION_LENGTH__+0x700440>
     376:	c0 93 01 02 	sts	0x0201, r28	; 0x800201 <__TEXT_REGION_LENGTH__+0x700201>
     37a:	d2 e0       	ldi	r29, 0x02	; 2
     37c:	d0 93 05 04 	sts	0x0405, r29	; 0x800405 <__TEXT_REGION_LENGTH__+0x700405>
     380:	2b e5       	ldi	r18, 0x5B	; 91
     382:	31 e0       	ldi	r19, 0x01	; 1
     384:	20 93 08 08 	sts	0x0808, r18	; 0x800808 <__TEXT_REGION_LENGTH__+0x700808>
     388:	30 93 09 08 	sts	0x0809, r19	; 0x800809 <__TEXT_REGION_LENGTH__+0x700809>
     38c:	90 ea       	ldi	r25, 0xA0	; 160
     38e:	90 93 05 08 	sts	0x0805, r25	; 0x800805 <__TEXT_REGION_LENGTH__+0x700805>
     392:	90 ec       	ldi	r25, 0xC0	; 192
     394:	90 93 06 08 	sts	0x0806, r25	; 0x800806 <__TEXT_REGION_LENGTH__+0x700806>
     398:	93 e0       	ldi	r25, 0x03	; 3
     39a:	90 93 07 08 	sts	0x0807, r25	; 0x800807 <__TEXT_REGION_LENGTH__+0x700807>
     39e:	1c ba       	out	0x1c, r1	; 28
     3a0:	1d ba       	out	0x1d, r1	; 29
     3a2:	1e ba       	out	0x1e, r1	; 30
     3a4:	1f ba       	out	0x1f, r1	; 31
     3a6:	c0 93 03 0a 	sts	0x0A03, r28	; 0x800a03 <__TEXT_REGION_LENGTH__+0x700a03>
     3aa:	e0 e0       	ldi	r30, 0x00	; 0
     3ac:	fa e0       	ldi	r31, 0x0A	; 10
     3ae:	98 e0       	ldi	r25, 0x08	; 8
     3b0:	90 83       	st	Z, r25
     3b2:	80 93 02 02 	sts	0x0202, r24	; 0x800202 <__TEXT_REGION_LENGTH__+0x700202>
     3b6:	87 e7       	ldi	r24, 0x77	; 119
     3b8:	80 93 01 0a 	sts	0x0A01, r24	; 0x800a01 <__TEXT_REGION_LENGTH__+0x700a01>
     3bc:	c0 93 0a 0a 	sts	0x0A0A, r28	; 0x800a0a <__TEXT_REGION_LENGTH__+0x700a0a>
     3c0:	8b e0       	ldi	r24, 0x0B	; 11
     3c2:	80 93 05 0a 	sts	0x0A05, r24	; 0x800a05 <__TEXT_REGION_LENGTH__+0x700a05>
     3c6:	80 81       	ld	r24, Z
     3c8:	81 60       	ori	r24, 0x01	; 1
     3ca:	80 83       	st	Z, r24
     3cc:	85 e0       	ldi	r24, 0x05	; 5
     3ce:	80 93 40 0a 	sts	0x0A40, r24	; 0x800a40 <__TEXT_REGION_LENGTH__+0x700a40>
     3d2:	10 92 41 0a 	sts	0x0A41, r1	; 0x800a41 <__TEXT_REGION_LENGTH__+0x700a41>
     3d6:	8f ef       	ldi	r24, 0xFF	; 255
     3d8:	91 e0       	ldi	r25, 0x01	; 1
     3da:	80 93 4c 0a 	sts	0x0A4C, r24	; 0x800a4c <__TEXT_REGION_LENGTH__+0x700a4c>
     3de:	90 93 4d 0a 	sts	0x0A4D, r25	; 0x800a4d <__TEXT_REGION_LENGTH__+0x700a4d>
     3e2:	10 92 45 0a 	sts	0x0A45, r1	; 0x800a45 <__TEXT_REGION_LENGTH__+0x700a45>
     3e6:	c0 93 50 0a 	sts	0x0A50, r28	; 0x800a50 <__TEXT_REGION_LENGTH__+0x700a50>
     3ea:	10 92 51 0a 	sts	0x0A51, r1	; 0x800a51 <__TEXT_REGION_LENGTH__+0x700a51>
     3ee:	8b e8       	ldi	r24, 0x8B	; 139
     3f0:	93 e0       	ldi	r25, 0x03	; 3
     3f2:	80 93 5c 0a 	sts	0x0A5C, r24	; 0x800a5c <__TEXT_REGION_LENGTH__+0x700a5c>
     3f6:	90 93 5d 0a 	sts	0x0A5D, r25	; 0x800a5d <__TEXT_REGION_LENGTH__+0x700a5d>
     3fa:	c0 93 55 0a 	sts	0x0A55, r28	; 0x800a55 <__TEXT_REGION_LENGTH__+0x700a55>
     3fe:	5c de       	rcall	.-840    	; 0xb8 <I2C_init>
     400:	82 e1       	ldi	r24, 0x12	; 18
     402:	80 93 a0 00 	sts	0x00A0, r24	; 0x8000a0 <__TEXT_REGION_LENGTH__+0x7000a0>
     406:	80 e2       	ldi	r24, 0x20	; 32
     408:	80 93 a2 00 	sts	0x00A2, r24	; 0x8000a2 <__TEXT_REGION_LENGTH__+0x7000a2>
     40c:	c0 93 a1 00 	sts	0x00A1, r28	; 0x8000a1 <__TEXT_REGION_LENGTH__+0x7000a1>
     410:	e0 e0       	ldi	r30, 0x00	; 0
     412:	f6 e0       	ldi	r31, 0x06	; 6
     414:	86 e0       	ldi	r24, 0x06	; 6
     416:	80 83       	st	Z, r24
     418:	84 e4       	ldi	r24, 0x44	; 68
     41a:	80 93 02 06 	sts	0x0602, r24	; 0x800602 <__TEXT_REGION_LENGTH__+0x700602>
     41e:	8e e1       	ldi	r24, 0x1E	; 30
     420:	80 93 06 06 	sts	0x0606, r24	; 0x800606 <__TEXT_REGION_LENGTH__+0x700606>
     424:	c0 93 0a 06 	sts	0x060A, r28	; 0x80060a <__TEXT_REGION_LENGTH__+0x70060a>
     428:	80 81       	ld	r24, Z
     42a:	81 60       	ori	r24, 0x01	; 1
     42c:	80 83       	st	Z, r24
     42e:	c0 93 08 06 	sts	0x0608, r28	; 0x800608 <__TEXT_REGION_LENGTH__+0x700608>
     432:	e0 e4       	ldi	r30, 0x40	; 64
     434:	f6 e0       	ldi	r31, 0x06	; 6
     436:	10 82       	st	Z, r1
     438:	d0 93 41 06 	sts	0x0641, r29	; 0x800641 <__TEXT_REGION_LENGTH__+0x700641>
     43c:	82 e5       	ldi	r24, 0x52	; 82
     43e:	80 93 42 06 	sts	0x0642, r24	; 0x800642 <__TEXT_REGION_LENGTH__+0x700642>
     442:	84 e0       	ldi	r24, 0x04	; 4
     444:	80 93 45 06 	sts	0x0645, r24	; 0x800645 <__TEXT_REGION_LENGTH__+0x700645>
     448:	80 93 46 06 	sts	0x0646, r24	; 0x800646 <__TEXT_REGION_LENGTH__+0x700646>
     44c:	c0 93 4a 06 	sts	0x064A, r28	; 0x80064a <__TEXT_REGION_LENGTH__+0x70064a>
     450:	80 81       	ld	r24, Z
     452:	81 60       	ori	r24, 0x01	; 1
     454:	80 83       	st	Z, r24
     456:	c0 93 48 06 	sts	0x0648, r28	; 0x800648 <__TEXT_REGION_LENGTH__+0x700648>
     45a:	e0 ea       	ldi	r30, 0xA0	; 160
     45c:	f6 e0       	ldi	r31, 0x06	; 6
     45e:	80 e4       	ldi	r24, 0x40	; 64
     460:	80 83       	st	Z, r24
     462:	80 e8       	ldi	r24, 0x80	; 128
     464:	80 93 a1 06 	sts	0x06A1, r24	; 0x8006a1 <__TEXT_REGION_LENGTH__+0x7006a1>
     468:	80 81       	ld	r24, Z
     46a:	81 60       	ori	r24, 0x01	; 1
     46c:	80 83       	st	Z, r24
     46e:	e1 e4       	ldi	r30, 0x41	; 65
     470:	f1 e0       	ldi	r31, 0x01	; 1
     472:	80 81       	ld	r24, Z
     474:	80 fd       	sbrc	r24, 0
     476:	fd cf       	rjmp	.-6      	; 0x472 <__LOCK_REGION_LENGTH__+0x72>
     478:	80 e3       	ldi	r24, 0x30	; 48
     47a:	80 93 40 01 	sts	0x0140, r24	; 0x800140 <__TEXT_REGION_LENGTH__+0x700140>
     47e:	10 92 47 01 	sts	0x0147, r1	; 0x800147 <__TEXT_REGION_LENGTH__+0x700147>
     482:	e1 e4       	ldi	r30, 0x41	; 65
     484:	f1 e0       	ldi	r31, 0x01	; 1
     486:	80 81       	ld	r24, Z
     488:	82 fd       	sbrc	r24, 2
     48a:	fd cf       	rjmp	.-6      	; 0x486 <__LOCK_REGION_LENGTH__+0x86>
     48c:	ea e4       	ldi	r30, 0x4A	; 74
     48e:	f1 e0       	ldi	r31, 0x01	; 1
     490:	80 e0       	ldi	r24, 0x00	; 0
     492:	98 e7       	ldi	r25, 0x78	; 120
     494:	80 83       	st	Z, r24
     496:	91 83       	std	Z+1, r25	; 0x01
     498:	80 91 48 01 	lds	r24, 0x0148	; 0x800148 <__TEXT_REGION_LENGTH__+0x700148>
     49c:	90 91 49 01 	lds	r25, 0x0149	; 0x800149 <__TEXT_REGION_LENGTH__+0x700149>
     4a0:	60 81       	ld	r22, Z
     4a2:	71 81       	ldd	r23, Z+1	; 0x01
     4a4:	82 96       	adiw	r24, 0x22	; 34
     4a6:	e5 d7       	rcall	.+4042   	; 0x1472 <__udivmodhi4>
     4a8:	80 93 87 39 	sts	0x3987, r24	; 0x803987 <tmp16bit>
     4ac:	90 93 88 39 	sts	0x3988, r25	; 0x803988 <tmp16bit+0x1>
     4b0:	e1 e4       	ldi	r30, 0x41	; 65
     4b2:	f1 e0       	ldi	r31, 0x01	; 1
     4b4:	80 81       	ld	r24, Z
     4b6:	83 fd       	sbrc	r24, 3
     4b8:	fd cf       	rjmp	.-6      	; 0x4b4 <__LOCK_REGION_LENGTH__+0xb4>
     4ba:	80 91 87 39 	lds	r24, 0x3987	; 0x803987 <tmp16bit>
     4be:	90 91 88 39 	lds	r25, 0x3988	; 0x803988 <tmp16bit+0x1>
     4c2:	80 93 4c 01 	sts	0x014C, r24	; 0x80014c <__TEXT_REGION_LENGTH__+0x70014c>
     4c6:	90 93 4d 01 	sts	0x014D, r25	; 0x80014d <__TEXT_REGION_LENGTH__+0x70014d>
     4ca:	83 e0       	ldi	r24, 0x03	; 3
     4cc:	80 93 42 01 	sts	0x0142, r24	; 0x800142 <__TEXT_REGION_LENGTH__+0x700142>
     4d0:	81 e0       	ldi	r24, 0x01	; 1
     4d2:	80 93 52 01 	sts	0x0152, r24	; 0x800152 <__TEXT_REGION_LENGTH__+0x700152>
     4d6:	88 e0       	ldi	r24, 0x08	; 8
     4d8:	80 93 50 01 	sts	0x0150, r24	; 0x800150 <__TEXT_REGION_LENGTH__+0x700150>
     4dc:	e1 e4       	ldi	r30, 0x41	; 65
     4de:	f1 e0       	ldi	r31, 0x01	; 1
     4e0:	80 81       	ld	r24, Z
     4e2:	80 fd       	sbrc	r24, 0
     4e4:	fd cf       	rjmp	.-6      	; 0x4e0 <__LOCK_REGION_LENGTH__+0xe0>
     4e6:	e0 e4       	ldi	r30, 0x40	; 64
     4e8:	f1 e0       	ldi	r31, 0x01	; 1
     4ea:	80 81       	ld	r24, Z
     4ec:	81 60       	ori	r24, 0x01	; 1
     4ee:	80 83       	st	Z, r24
     4f0:	e0 e5       	ldi	r30, 0x50	; 80
     4f2:	f1 e0       	ldi	r31, 0x01	; 1
     4f4:	80 81       	ld	r24, Z
     4f6:	81 60       	ori	r24, 0x01	; 1
     4f8:	80 83       	st	Z, r24
     4fa:	eb ee       	ldi	r30, 0xEB	; 235
     4fc:	f8 e3       	ldi	r31, 0x38	; 56
     4fe:	10 82       	st	Z, r1
     500:	e0 93 36 39 	sts	0x3936, r30	; 0x803936 <serTxAddr>
     504:	f0 93 37 39 	sts	0x3937, r31	; 0x803937 <serTxAddr+0x1>
     508:	78 94       	sei
     50a:	df 91       	pop	r29
     50c:	cf 91       	pop	r28
     50e:	08 95       	ret

00000510 <__vector_8>:
     510:	1f 92       	push	r1
     512:	0f 92       	push	r0
     514:	0f b6       	in	r0, 0x3f	; 63
     516:	0f 92       	push	r0
     518:	11 24       	eor	r1, r1
     51a:	8f 93       	push	r24
     51c:	9f 93       	push	r25
     51e:	af 93       	push	r26
     520:	bf 93       	push	r27
     522:	ef 93       	push	r30
     524:	ff 93       	push	r31
     526:	87 e0       	ldi	r24, 0x07	; 7
     528:	80 93 46 04 	sts	0x0446, r24	; 0x800446 <__TEXT_REGION_LENGTH__+0x700446>
     52c:	84 e4       	ldi	r24, 0x44	; 68
     52e:	80 93 26 04 	sts	0x0426, r24	; 0x800426 <__TEXT_REGION_LENGTH__+0x700426>
     532:	ec b3       	in	r30, 0x1c	; 28
     534:	f0 e0       	ldi	r31, 0x00	; 0
     536:	ee 0f       	add	r30, r30
     538:	ff 1f       	adc	r31, r31
     53a:	ee 0f       	add	r30, r30
     53c:	ff 1f       	adc	r31, r31
     53e:	ee 0f       	add	r30, r30
     540:	ff 1f       	adc	r31, r31
     542:	e3 5a       	subi	r30, 0xA3	; 163
     544:	f6 4c       	sbci	r31, 0xC6	; 198
     546:	a8 e2       	ldi	r26, 0x28	; 40
     548:	ba e0       	ldi	r27, 0x0A	; 10
     54a:	96 e0       	ldi	r25, 0x06	; 6
     54c:	81 91       	ld	r24, Z+
     54e:	8d 93       	st	X+, r24
     550:	9a 95       	dec	r25
     552:	e1 f7       	brne	.-8      	; 0x54c <__vector_8+0x3c>
     554:	8b e0       	ldi	r24, 0x0B	; 11
     556:	80 93 05 0a 	sts	0x0A05, r24	; 0x800a05 <__TEXT_REGION_LENGTH__+0x700a05>
     55a:	8c b3       	in	r24, 0x1c	; 28
     55c:	83 30       	cpi	r24, 0x03	; 3
     55e:	58 f4       	brcc	.+22     	; 0x576 <__vector_8+0x66>
     560:	8c b3       	in	r24, 0x1c	; 28
     562:	91 e0       	ldi	r25, 0x01	; 1
     564:	01 c0       	rjmp	.+2      	; 0x568 <__vector_8+0x58>
     566:	99 0f       	add	r25, r25
     568:	8a 95       	dec	r24
     56a:	ea f7       	brpl	.-6      	; 0x566 <__vector_8+0x56>
     56c:	99 b9       	out	0x09, r25	; 9
     56e:	8c b3       	in	r24, 0x1c	; 28
     570:	83 95       	inc	r24
     572:	8c bb       	out	0x1c, r24	; 28
     574:	0a c0       	rjmp	.+20     	; 0x58a <__vector_8+0x7a>
     576:	8c b3       	in	r24, 0x1c	; 28
     578:	83 30       	cpi	r24, 0x03	; 3
     57a:	21 f4       	brne	.+8      	; 0x584 <__vector_8+0x74>
     57c:	2a 9a       	sbi	0x05, 2	; 5
     57e:	83 95       	inc	r24
     580:	8c bb       	out	0x1c, r24	; 28
     582:	03 c0       	rjmp	.+6      	; 0x58a <__vector_8+0x7a>
     584:	2e 9a       	sbi	0x05, 6	; 5
     586:	88 27       	eor	r24, r24
     588:	8c bb       	out	0x1c, r24	; 28
     58a:	80 91 da 38 	lds	r24, 0x38DA	; 0x8038da <timeout_I2C>
     58e:	88 23       	and	r24, r24
     590:	29 f0       	breq	.+10     	; 0x59c <__vector_8+0x8c>
     592:	80 91 da 38 	lds	r24, 0x38DA	; 0x8038da <timeout_I2C>
     596:	81 50       	subi	r24, 0x01	; 1
     598:	80 93 da 38 	sts	0x38DA, r24	; 0x8038da <timeout_I2C>
     59c:	8f ef       	ldi	r24, 0xFF	; 255
     59e:	80 93 0b 0a 	sts	0x0A0B, r24	; 0x800a0b <__TEXT_REGION_LENGTH__+0x700a0b>
     5a2:	ff 91       	pop	r31
     5a4:	ef 91       	pop	r30
     5a6:	bf 91       	pop	r27
     5a8:	af 91       	pop	r26
     5aa:	9f 91       	pop	r25
     5ac:	8f 91       	pop	r24
     5ae:	0f 90       	pop	r0
     5b0:	0f be       	out	0x3f, r0	; 63
     5b2:	0f 90       	pop	r0
     5b4:	1f 90       	pop	r1
     5b6:	18 95       	reti

000005b8 <__vector_13>:
     5b8:	1f 92       	push	r1
     5ba:	0f 92       	push	r0
     5bc:	0f b6       	in	r0, 0x3f	; 63
     5be:	0f 92       	push	r0
     5c0:	11 24       	eor	r1, r1
     5c2:	8f 93       	push	r24
     5c4:	9f 93       	push	r25
     5c6:	ef 93       	push	r30
     5c8:	ff 93       	push	r31
     5ca:	e0 91 36 39 	lds	r30, 0x3936	; 0x803936 <serTxAddr>
     5ce:	f0 91 37 39 	lds	r31, 0x3937	; 0x803937 <serTxAddr+0x1>
     5d2:	80 81       	ld	r24, Z
     5d4:	88 23       	and	r24, r24
     5d6:	91 f0       	breq	.+36     	; 0x5fc <__vector_13+0x44>
     5d8:	80 81       	ld	r24, Z
     5da:	80 93 02 08 	sts	0x0802, r24	; 0x800802 <__TEXT_REGION_LENGTH__+0x700802>
     5de:	80 91 36 39 	lds	r24, 0x3936	; 0x803936 <serTxAddr>
     5e2:	90 91 37 39 	lds	r25, 0x3937	; 0x803937 <serTxAddr+0x1>
     5e6:	01 96       	adiw	r24, 0x01	; 1
     5e8:	80 93 36 39 	sts	0x3936, r24	; 0x803936 <serTxAddr>
     5ec:	90 93 37 39 	sts	0x3937, r25	; 0x803937 <serTxAddr+0x1>
     5f0:	e5 e0       	ldi	r30, 0x05	; 5
     5f2:	f8 e0       	ldi	r31, 0x08	; 8
     5f4:	80 81       	ld	r24, Z
     5f6:	80 62       	ori	r24, 0x20	; 32
     5f8:	80 83       	st	Z, r24
     5fa:	05 c0       	rjmp	.+10     	; 0x606 <__vector_13+0x4e>
     5fc:	81 e0       	ldi	r24, 0x01	; 1
     5fe:	80 93 04 38 	sts	0x3804, r24	; 0x803804 <serTxDone>
     602:	10 92 45 0a 	sts	0x0A45, r1	; 0x800a45 <__TEXT_REGION_LENGTH__+0x700a45>
     606:	81 e0       	ldi	r24, 0x01	; 1
     608:	80 93 46 0a 	sts	0x0A46, r24	; 0x800a46 <__TEXT_REGION_LENGTH__+0x700a46>
     60c:	ff 91       	pop	r31
     60e:	ef 91       	pop	r30
     610:	9f 91       	pop	r25
     612:	8f 91       	pop	r24
     614:	0f 90       	pop	r0
     616:	0f be       	out	0x3f, r0	; 63
     618:	0f 90       	pop	r0
     61a:	1f 90       	pop	r1
     61c:	18 95       	reti

0000061e <__vector_14>:
     61e:	1f 92       	push	r1
     620:	0f 92       	push	r0
     622:	0f b6       	in	r0, 0x3f	; 63
     624:	0f 92       	push	r0
     626:	11 24       	eor	r1, r1
     628:	2f 93       	push	r18
     62a:	3f 93       	push	r19
     62c:	4f 93       	push	r20
     62e:	8f 93       	push	r24
     630:	9f 93       	push	r25
     632:	ef 93       	push	r30
     634:	ff 93       	push	r31
     636:	e0 91 02 38 	lds	r30, 0x3802	; 0x803802 <auSmpAddr>
     63a:	f0 91 03 38 	lds	r31, 0x3803	; 0x803803 <auSmpAddr+0x1>
     63e:	80 81       	ld	r24, Z
     640:	81 11       	cpse	r24, r1
     642:	08 c0       	rjmp	.+16     	; 0x654 <__vector_14+0x36>
     644:	80 91 00 38 	lds	r24, 0x3800	; 0x803800 <__data_start>
     648:	90 91 01 38 	lds	r25, 0x3801	; 0x803801 <__data_start+0x1>
     64c:	80 93 02 38 	sts	0x3802, r24	; 0x803802 <auSmpAddr>
     650:	90 93 03 38 	sts	0x3803, r25	; 0x803803 <auSmpAddr+0x1>
     654:	e0 91 02 38 	lds	r30, 0x3802	; 0x803802 <auSmpAddr>
     658:	f0 91 03 38 	lds	r31, 0x3803	; 0x803803 <auSmpAddr+0x1>
     65c:	80 81       	ld	r24, Z
     65e:	88 23       	and	r24, r24
     660:	e1 f0       	breq	.+56     	; 0x69a <__vector_14+0x7c>
     662:	20 81       	ld	r18, Z
     664:	40 91 33 39 	lds	r20, 0x3933	; 0x803933 <auVolume>
     668:	30 e0       	ldi	r19, 0x00	; 0
     66a:	2f 57       	subi	r18, 0x7F	; 127
     66c:	31 09       	sbc	r19, r1
     66e:	42 9f       	mul	r20, r18
     670:	c0 01       	movw	r24, r0
     672:	43 9f       	mul	r20, r19
     674:	90 0d       	add	r25, r0
     676:	11 24       	eor	r1, r1
     678:	89 2f       	mov	r24, r25
     67a:	99 0f       	add	r25, r25
     67c:	99 0b       	sbc	r25, r25
     67e:	80 58       	subi	r24, 0x80	; 128
     680:	9f 4f       	sbci	r25, 0xFF	; 255
     682:	80 93 a1 06 	sts	0x06A1, r24	; 0x8006a1 <__TEXT_REGION_LENGTH__+0x7006a1>
     686:	80 91 02 38 	lds	r24, 0x3802	; 0x803802 <auSmpAddr>
     68a:	90 91 03 38 	lds	r25, 0x3803	; 0x803803 <auSmpAddr+0x1>
     68e:	01 96       	adiw	r24, 0x01	; 1
     690:	80 93 02 38 	sts	0x3802, r24	; 0x803802 <auSmpAddr>
     694:	90 93 03 38 	sts	0x3803, r25	; 0x803803 <auSmpAddr+0x1>
     698:	06 c0       	rjmp	.+12     	; 0x6a6 <__vector_14+0x88>
     69a:	80 e8       	ldi	r24, 0x80	; 128
     69c:	80 93 a1 06 	sts	0x06A1, r24	; 0x8006a1 <__TEXT_REGION_LENGTH__+0x7006a1>
     6a0:	81 e0       	ldi	r24, 0x01	; 1
     6a2:	80 93 85 39 	sts	0x3985, r24	; 0x803985 <auPlayDone>
     6a6:	81 e0       	ldi	r24, 0x01	; 1
     6a8:	80 93 56 0a 	sts	0x0A56, r24	; 0x800a56 <__TEXT_REGION_LENGTH__+0x700a56>
     6ac:	ff 91       	pop	r31
     6ae:	ef 91       	pop	r30
     6b0:	9f 91       	pop	r25
     6b2:	8f 91       	pop	r24
     6b4:	4f 91       	pop	r20
     6b6:	3f 91       	pop	r19
     6b8:	2f 91       	pop	r18
     6ba:	0f 90       	pop	r0
     6bc:	0f be       	out	0x3f, r0	; 63
     6be:	0f 90       	pop	r0
     6c0:	1f 90       	pop	r1
     6c2:	18 95       	reti

000006c4 <__vector_27>:
     6c4:	1f 92       	push	r1
     6c6:	0f 92       	push	r0
     6c8:	0f b6       	in	r0, 0x3f	; 63
     6ca:	0f 92       	push	r0
     6cc:	11 24       	eor	r1, r1
     6ce:	8f 93       	push	r24
     6d0:	ef 93       	push	r30
     6d2:	ff 93       	push	r31
     6d4:	80 91 1a 38 	lds	r24, 0x381A	; 0x80381a <serRxDone>
     6d8:	81 11       	cpse	r24, r1
     6da:	1d c0       	rjmp	.+58     	; 0x716 <__vector_27+0x52>
     6dc:	ed b3       	in	r30, 0x1d	; 29
     6de:	f0 e0       	ldi	r31, 0x00	; 0
     6e0:	80 91 00 08 	lds	r24, 0x0800	; 0x800800 <__TEXT_REGION_LENGTH__+0x700800>
     6e4:	e5 51       	subi	r30, 0x15	; 21
     6e6:	f7 4c       	sbci	r31, 0xC7	; 199
     6e8:	80 83       	st	Z, r24
     6ea:	ed b3       	in	r30, 0x1d	; 29
     6ec:	f0 e0       	ldi	r31, 0x00	; 0
     6ee:	e5 51       	subi	r30, 0x15	; 21
     6f0:	f7 4c       	sbci	r31, 0xC7	; 199
     6f2:	80 81       	ld	r24, Z
     6f4:	8a 30       	cpi	r24, 0x0A	; 10
     6f6:	49 f4       	brne	.+18     	; 0x70a <__vector_27+0x46>
     6f8:	ed b3       	in	r30, 0x1d	; 29
     6fa:	f0 e0       	ldi	r31, 0x00	; 0
     6fc:	e5 51       	subi	r30, 0x15	; 21
     6fe:	f7 4c       	sbci	r31, 0xC7	; 199
     700:	10 82       	st	Z, r1
     702:	81 e0       	ldi	r24, 0x01	; 1
     704:	80 93 1a 38 	sts	0x381A, r24	; 0x80381a <serRxDone>
     708:	06 c0       	rjmp	.+12     	; 0x716 <__vector_27+0x52>
     70a:	8d b3       	in	r24, 0x1d	; 29
     70c:	87 34       	cpi	r24, 0x47	; 71
     70e:	18 f4       	brcc	.+6      	; 0x716 <__vector_27+0x52>
     710:	8d b3       	in	r24, 0x1d	; 29
     712:	8f 5f       	subi	r24, 0xFF	; 255
     714:	8d bb       	out	0x1d, r24	; 29
     716:	80 e8       	ldi	r24, 0x80	; 128
     718:	80 93 04 08 	sts	0x0804, r24	; 0x800804 <__TEXT_REGION_LENGTH__+0x700804>
     71c:	ff 91       	pop	r31
     71e:	ef 91       	pop	r30
     720:	8f 91       	pop	r24
     722:	0f 90       	pop	r0
     724:	0f be       	out	0x3f, r0	; 63
     726:	0f 90       	pop	r0
     728:	1f 90       	pop	r1
     72a:	18 95       	reti

0000072c <__vector_28>:
     72c:	1f 92       	push	r1
     72e:	0f 92       	push	r0
     730:	0f b6       	in	r0, 0x3f	; 63
     732:	0f 92       	push	r0
     734:	11 24       	eor	r1, r1
     736:	8f 93       	push	r24
     738:	ef 93       	push	r30
     73a:	ff 93       	push	r31
     73c:	10 92 4a 0a 	sts	0x0A4A, r1	; 0x800a4a <__TEXT_REGION_LENGTH__+0x700a4a>
     740:	10 92 4b 0a 	sts	0x0A4B, r1	; 0x800a4b <__TEXT_REGION_LENGTH__+0x700a4b>
     744:	81 e0       	ldi	r24, 0x01	; 1
     746:	80 93 45 0a 	sts	0x0A45, r24	; 0x800a45 <__TEXT_REGION_LENGTH__+0x700a45>
     74a:	e5 e0       	ldi	r30, 0x05	; 5
     74c:	f8 e0       	ldi	r31, 0x08	; 8
     74e:	80 81       	ld	r24, Z
     750:	8f 7d       	andi	r24, 0xDF	; 223
     752:	80 83       	st	Z, r24
     754:	ff 91       	pop	r31
     756:	ef 91       	pop	r30
     758:	8f 91       	pop	r24
     75a:	0f 90       	pop	r0
     75c:	0f be       	out	0x3f, r0	; 63
     75e:	0f 90       	pop	r0
     760:	1f 90       	pop	r1
     762:	18 95       	reti

00000764 <__vector_20>:
     764:	1f 92       	push	r1
     766:	0f 92       	push	r0
     768:	0f b6       	in	r0, 0x3f	; 63
     76a:	0f 92       	push	r0
     76c:	11 24       	eor	r1, r1
     76e:	8f 93       	push	r24
     770:	ef 93       	push	r30
     772:	ff 93       	push	r31
     774:	80 91 17 38 	lds	r24, 0x3817	; 0x803817 <adc0Chg>
     778:	81 11       	cpse	r24, r1
     77a:	15 c0       	rjmp	.+42     	; 0x7a6 <__vector_20+0x42>
     77c:	8e b3       	in	r24, 0x1e	; 30
     77e:	8f 5f       	subi	r24, 0xFF	; 255
     780:	8f 71       	andi	r24, 0x1F	; 31
     782:	8e bb       	out	0x1e, r24	; 30
     784:	80 91 06 06 	lds	r24, 0x0606	; 0x800606 <__TEXT_REGION_LENGTH__+0x700606>
     788:	8e 31       	cpi	r24, 0x1E	; 30
     78a:	29 f4       	brne	.+10     	; 0x796 <__vector_20+0x32>
     78c:	80 91 10 06 	lds	r24, 0x0610	; 0x800610 <__TEXT_REGION_LENGTH__+0x700610>
     790:	80 93 86 39 	sts	0x3986, r24	; 0x803986 <adcTemp>
     794:	0a c0       	rjmp	.+20     	; 0x7aa <__vector_20+0x46>
     796:	ee b3       	in	r30, 0x1e	; 30
     798:	f0 e0       	ldi	r31, 0x00	; 0
     79a:	80 91 10 06 	lds	r24, 0x0610	; 0x800610 <__TEXT_REGION_LENGTH__+0x700610>
     79e:	e3 5c       	subi	r30, 0xC3	; 195
     7a0:	f6 4c       	sbci	r31, 0xC6	; 198
     7a2:	80 83       	st	Z, r24
     7a4:	02 c0       	rjmp	.+4      	; 0x7aa <__vector_20+0x46>
     7a6:	10 92 17 38 	sts	0x3817, r1	; 0x803817 <adc0Chg>
     7aa:	81 e0       	ldi	r24, 0x01	; 1
     7ac:	80 93 0b 06 	sts	0x060B, r24	; 0x80060b <__TEXT_REGION_LENGTH__+0x70060b>
     7b0:	ff 91       	pop	r31
     7b2:	ef 91       	pop	r30
     7b4:	8f 91       	pop	r24
     7b6:	0f 90       	pop	r0
     7b8:	0f be       	out	0x3f, r0	; 63
     7ba:	0f 90       	pop	r0
     7bc:	1f 90       	pop	r1
     7be:	18 95       	reti

000007c0 <__vector_22>:
     7c0:	1f 92       	push	r1
     7c2:	0f 92       	push	r0
     7c4:	0f b6       	in	r0, 0x3f	; 63
     7c6:	0f 92       	push	r0
     7c8:	11 24       	eor	r1, r1
     7ca:	8f 93       	push	r24
     7cc:	9f 93       	push	r25
     7ce:	80 91 46 06 	lds	r24, 0x0646	; 0x800646 <__TEXT_REGION_LENGTH__+0x700646>
     7d2:	81 11       	cpse	r24, r1
     7d4:	0c c0       	rjmp	.+24     	; 0x7ee <__vector_22+0x2e>
     7d6:	80 91 50 06 	lds	r24, 0x0650	; 0x800650 <__TEXT_REGION_LENGTH__+0x700650>
     7da:	90 91 51 06 	lds	r25, 0x0651	; 0x800651 <__TEXT_REGION_LENGTH__+0x700651>
     7de:	80 93 3a 39 	sts	0x393A, r24	; 0x80393a <adcPhot>
     7e2:	90 93 3b 39 	sts	0x393B, r25	; 0x80393b <adcPhot+0x1>
     7e6:	81 e0       	ldi	r24, 0x01	; 1
     7e8:	80 93 46 06 	sts	0x0646, r24	; 0x800646 <__TEXT_REGION_LENGTH__+0x700646>
     7ec:	23 c0       	rjmp	.+70     	; 0x834 <__vector_22+0x74>
     7ee:	80 91 46 06 	lds	r24, 0x0646	; 0x800646 <__TEXT_REGION_LENGTH__+0x700646>
     7f2:	81 30       	cpi	r24, 0x01	; 1
     7f4:	79 f4       	brne	.+30     	; 0x814 <__vector_22+0x54>
     7f6:	88 e0       	ldi	r24, 0x08	; 8
     7f8:	80 93 06 04 	sts	0x0406, r24	; 0x800406 <__TEXT_REGION_LENGTH__+0x700406>
     7fc:	80 91 50 06 	lds	r24, 0x0650	; 0x800650 <__TEXT_REGION_LENGTH__+0x700650>
     800:	90 91 51 06 	lds	r25, 0x0651	; 0x800651 <__TEXT_REGION_LENGTH__+0x700651>
     804:	80 93 38 39 	sts	0x3938, r24	; 0x803938 <adcHall>
     808:	90 93 39 39 	sts	0x3939, r25	; 0x803939 <adcHall+0x1>
     80c:	84 e0       	ldi	r24, 0x04	; 4
     80e:	80 93 46 06 	sts	0x0646, r24	; 0x800646 <__TEXT_REGION_LENGTH__+0x700646>
     812:	10 c0       	rjmp	.+32     	; 0x834 <__vector_22+0x74>
     814:	80 91 50 06 	lds	r24, 0x0650	; 0x800650 <__TEXT_REGION_LENGTH__+0x700650>
     818:	90 91 51 06 	lds	r25, 0x0651	; 0x800651 <__TEXT_REGION_LENGTH__+0x700651>
     81c:	80 93 34 39 	sts	0x3934, r24	; 0x803934 <adcBtns>
     820:	90 93 35 39 	sts	0x3935, r25	; 0x803935 <adcBtns+0x1>
     824:	8f b3       	in	r24, 0x1f	; 31
     826:	8f 30       	cpi	r24, 0x0F	; 15
     828:	29 f4       	brne	.+10     	; 0x834 <__vector_22+0x74>
     82a:	10 92 46 06 	sts	0x0646, r1	; 0x800646 <__TEXT_REGION_LENGTH__+0x700646>
     82e:	88 e0       	ldi	r24, 0x08	; 8
     830:	80 93 05 04 	sts	0x0405, r24	; 0x800405 <__TEXT_REGION_LENGTH__+0x700405>
     834:	8f b3       	in	r24, 0x1f	; 31
     836:	90 e0       	ldi	r25, 0x00	; 0
     838:	01 96       	adiw	r24, 0x01	; 1
     83a:	8f 70       	andi	r24, 0x0F	; 15
     83c:	90 78       	andi	r25, 0x80	; 128
     83e:	99 23       	and	r25, r25
     840:	24 f4       	brge	.+8      	; 0x84a <__vector_22+0x8a>
     842:	01 97       	sbiw	r24, 0x01	; 1
     844:	80 6f       	ori	r24, 0xF0	; 240
     846:	9f 6f       	ori	r25, 0xFF	; 255
     848:	01 96       	adiw	r24, 0x01	; 1
     84a:	8f bb       	out	0x1f, r24	; 31
     84c:	81 e0       	ldi	r24, 0x01	; 1
     84e:	80 93 4b 06 	sts	0x064B, r24	; 0x80064b <__TEXT_REGION_LENGTH__+0x70064b>
     852:	9f 91       	pop	r25
     854:	8f 91       	pop	r24
     856:	0f 90       	pop	r0
     858:	0f be       	out	0x3f, r0	; 63
     85a:	0f 90       	pop	r0
     85c:	1f 90       	pop	r1
     85e:	18 95       	reti

00000860 <__vector_6>:
     860:	1f 92       	push	r1
     862:	0f 92       	push	r0
     864:	0f b6       	in	r0, 0x3f	; 63
     866:	0f 92       	push	r0
     868:	11 24       	eor	r1, r1
     86a:	5f 93       	push	r21
     86c:	6f 93       	push	r22
     86e:	7f 93       	push	r23
     870:	8f 93       	push	r24
     872:	9f 93       	push	r25
     874:	af 93       	push	r26
     876:	bf 93       	push	r27
     878:	ef 93       	push	r30
     87a:	ff 93       	push	r31
     87c:	80 91 43 01 	lds	r24, 0x0143	; 0x800143 <__TEXT_REGION_LENGTH__+0x700143>
     880:	81 ff       	sbrs	r24, 1
     882:	28 c0       	rjmp	.+80     	; 0x8d4 <__vector_6+0x74>
     884:	80 91 18 38 	lds	r24, 0x3818	; 0x803818 <buttonMark>
     888:	8f 3f       	cpi	r24, 0xFF	; 255
     88a:	29 f0       	breq	.+10     	; 0x896 <__vector_6+0x36>
     88c:	80 91 18 38 	lds	r24, 0x3818	; 0x803818 <buttonMark>
     890:	8f 5f       	subi	r24, 0xFF	; 255
     892:	80 93 18 38 	sts	0x3818, r24	; 0x803818 <buttonMark>
     896:	80 91 48 01 	lds	r24, 0x0148	; 0x800148 <__TEXT_REGION_LENGTH__+0x700148>
     89a:	90 91 49 01 	lds	r25, 0x0149	; 0x800149 <__TEXT_REGION_LENGTH__+0x700149>
     89e:	60 91 4a 01 	lds	r22, 0x014A	; 0x80014a <__TEXT_REGION_LENGTH__+0x70014a>
     8a2:	70 91 4b 01 	lds	r23, 0x014B	; 0x80014b <__TEXT_REGION_LENGTH__+0x70014b>
     8a6:	82 96       	adiw	r24, 0x22	; 34
     8a8:	e4 d5       	rcall	.+3016   	; 0x1472 <__udivmodhi4>
     8aa:	80 93 87 39 	sts	0x3987, r24	; 0x803987 <tmp16bit>
     8ae:	90 93 88 39 	sts	0x3988, r25	; 0x803988 <tmp16bit+0x1>
     8b2:	e1 e4       	ldi	r30, 0x41	; 65
     8b4:	f1 e0       	ldi	r31, 0x01	; 1
     8b6:	80 81       	ld	r24, Z
     8b8:	83 fd       	sbrc	r24, 3
     8ba:	fd cf       	rjmp	.-6      	; 0x8b6 <__vector_6+0x56>
     8bc:	80 91 87 39 	lds	r24, 0x3987	; 0x803987 <tmp16bit>
     8c0:	90 91 88 39 	lds	r25, 0x3988	; 0x803988 <tmp16bit+0x1>
     8c4:	80 93 4c 01 	sts	0x014C, r24	; 0x80014c <__TEXT_REGION_LENGTH__+0x70014c>
     8c8:	90 93 4d 01 	sts	0x014D, r25	; 0x80014d <__TEXT_REGION_LENGTH__+0x70014d>
     8cc:	82 e0       	ldi	r24, 0x02	; 2
     8ce:	80 93 43 01 	sts	0x0143, r24	; 0x800143 <__TEXT_REGION_LENGTH__+0x700143>
     8d2:	0c c0       	rjmp	.+24     	; 0x8ec <__vector_6+0x8c>
     8d4:	80 91 19 38 	lds	r24, 0x3819	; 0x803819 <minuteMark>
     8d8:	8f 3f       	cpi	r24, 0xFF	; 255
     8da:	29 f0       	breq	.+10     	; 0x8e6 <__vector_6+0x86>
     8dc:	80 91 19 38 	lds	r24, 0x3819	; 0x803819 <minuteMark>
     8e0:	8f 5f       	subi	r24, 0xFF	; 255
     8e2:	80 93 19 38 	sts	0x3819, r24	; 0x803819 <minuteMark>
     8e6:	81 e0       	ldi	r24, 0x01	; 1
     8e8:	80 93 43 01 	sts	0x0143, r24	; 0x800143 <__TEXT_REGION_LENGTH__+0x700143>
     8ec:	ff 91       	pop	r31
     8ee:	ef 91       	pop	r30
     8f0:	bf 91       	pop	r27
     8f2:	af 91       	pop	r26
     8f4:	9f 91       	pop	r25
     8f6:	8f 91       	pop	r24
     8f8:	7f 91       	pop	r23
     8fa:	6f 91       	pop	r22
     8fc:	5f 91       	pop	r21
     8fe:	0f 90       	pop	r0
     900:	0f be       	out	0x3f, r0	; 63
     902:	0f 90       	pop	r0
     904:	1f 90       	pop	r1
     906:	18 95       	reti

00000908 <__vector_7>:
     908:	1f 92       	push	r1
     90a:	0f 92       	push	r0
     90c:	0f b6       	in	r0, 0x3f	; 63
     90e:	0f 92       	push	r0
     910:	11 24       	eor	r1, r1
     912:	8f 93       	push	r24
     914:	81 e0       	ldi	r24, 0x01	; 1
     916:	80 93 48 06 	sts	0x0648, r24	; 0x800648 <__TEXT_REGION_LENGTH__+0x700648>
     91a:	80 93 53 01 	sts	0x0153, r24	; 0x800153 <__TEXT_REGION_LENGTH__+0x700153>
     91e:	8f 91       	pop	r24
     920:	0f 90       	pop	r0
     922:	0f be       	out	0x3f, r0	; 63
     924:	0f 90       	pop	r0
     926:	1f 90       	pop	r1
     928:	18 95       	reti

0000092a <EERead>:
     92a:	e2 e0       	ldi	r30, 0x02	; 2
     92c:	f0 e1       	ldi	r31, 0x10	; 16
     92e:	90 81       	ld	r25, Z
     930:	91 fd       	sbrc	r25, 1
     932:	fd cf       	rjmp	.-6      	; 0x92e <EERead+0x4>
     934:	44 23       	and	r20, r20
     936:	59 f0       	breq	.+22     	; 0x94e <EERead+0x24>
     938:	a6 2f       	mov	r26, r22
     93a:	b7 2f       	mov	r27, r23
     93c:	48 0f       	add	r20, r24
     93e:	e8 2f       	mov	r30, r24
     940:	f0 e0       	ldi	r31, 0x00	; 0
     942:	fc 5e       	subi	r31, 0xEC	; 236
     944:	90 81       	ld	r25, Z
     946:	9d 93       	st	X+, r25
     948:	8f 5f       	subi	r24, 0xFF	; 255
     94a:	48 13       	cpse	r20, r24
     94c:	f8 cf       	rjmp	.-16     	; 0x93e <EERead+0x14>
     94e:	08 95       	ret

00000950 <EEWrite>:
     950:	ff 92       	push	r15
     952:	0f 93       	push	r16
     954:	1f 93       	push	r17
     956:	cf 93       	push	r28
     958:	df 93       	push	r29
     95a:	e8 2f       	mov	r30, r24
     95c:	44 23       	and	r20, r20
     95e:	79 f1       	breq	.+94     	; 0x9be <EEWrite+0x6e>
     960:	c2 e0       	ldi	r28, 0x02	; 2
     962:	d0 e1       	ldi	r29, 0x10	; 16
     964:	3d e9       	ldi	r19, 0x9D	; 157
     966:	00 e0       	ldi	r16, 0x00	; 0
     968:	10 e1       	ldi	r17, 0x10	; 16
     96a:	54 e0       	ldi	r21, 0x04	; 4
     96c:	0f 2e       	mov	r0, r31
     96e:	f3 e0       	ldi	r31, 0x03	; 3
     970:	ff 2e       	mov	r15, r31
     972:	f0 2d       	mov	r31, r0
     974:	88 81       	ld	r24, Y
     976:	81 fd       	sbrc	r24, 1
     978:	fd cf       	rjmp	.-6      	; 0x974 <EEWrite+0x24>
     97a:	34 bf       	out	0x34, r19	; 52
     97c:	d8 01       	movw	r26, r16
     97e:	5c 93       	st	X, r21
     980:	44 23       	and	r20, r20
     982:	91 f0       	breq	.+36     	; 0x9a8 <EEWrite+0x58>
     984:	2e 2f       	mov	r18, r30
     986:	2f 71       	andi	r18, 0x1F	; 31
     988:	91 e0       	ldi	r25, 0x01	; 1
     98a:	9e 0f       	add	r25, r30
     98c:	6f 5f       	subi	r22, 0xFF	; 255
     98e:	7f 4f       	sbci	r23, 0xFF	; 255
     990:	db 01       	movw	r26, r22
     992:	11 97       	sbiw	r26, 0x01	; 1
     994:	8c 91       	ld	r24, X
     996:	f0 e0       	ldi	r31, 0x00	; 0
     998:	fc 5e       	subi	r31, 0xEC	; 236
     99a:	80 83       	st	Z, r24
     99c:	41 50       	subi	r20, 0x01	; 1
     99e:	21 f0       	breq	.+8      	; 0x9a8 <EEWrite+0x58>
     9a0:	e9 2f       	mov	r30, r25
     9a2:	2f 31       	cpi	r18, 0x1F	; 31
     9a4:	79 f7       	brne	.-34     	; 0x984 <EEWrite+0x34>
     9a6:	0f c0       	rjmp	.+30     	; 0x9c6 <EEWrite+0x76>
     9a8:	8d e9       	ldi	r24, 0x9D	; 157
     9aa:	84 bf       	out	0x34, r24	; 52
     9ac:	83 e0       	ldi	r24, 0x03	; 3
     9ae:	80 93 00 10 	sts	0x1000, r24	; 0x801000 <__TEXT_REGION_LENGTH__+0x701000>
     9b2:	80 91 02 10 	lds	r24, 0x1002	; 0x801002 <__TEXT_REGION_LENGTH__+0x701002>
     9b6:	82 fb       	bst	r24, 2
     9b8:	88 27       	eor	r24, r24
     9ba:	80 f9       	bld	r24, 0
     9bc:	0c c0       	rjmp	.+24     	; 0x9d6 <EEWrite+0x86>
     9be:	80 e0       	ldi	r24, 0x00	; 0
     9c0:	0a c0       	rjmp	.+20     	; 0x9d6 <EEWrite+0x86>
     9c2:	81 e0       	ldi	r24, 0x01	; 1
     9c4:	08 c0       	rjmp	.+16     	; 0x9d6 <EEWrite+0x86>
     9c6:	34 bf       	out	0x34, r19	; 52
     9c8:	f8 01       	movw	r30, r16
     9ca:	f0 82       	st	Z, r15
     9cc:	88 81       	ld	r24, Y
     9ce:	82 fd       	sbrc	r24, 2
     9d0:	f8 cf       	rjmp	.-16     	; 0x9c2 <EEWrite+0x72>
     9d2:	e9 2f       	mov	r30, r25
     9d4:	cf cf       	rjmp	.-98     	; 0x974 <EEWrite+0x24>
     9d6:	df 91       	pop	r29
     9d8:	cf 91       	pop	r28
     9da:	1f 91       	pop	r17
     9dc:	0f 91       	pop	r16
     9de:	ff 90       	pop	r15
     9e0:	08 95       	ret

000009e2 <SerSend>:
     9e2:	9c 01       	movw	r18, r24
     9e4:	90 91 04 38 	lds	r25, 0x3804	; 0x803804 <serTxDone>
     9e8:	99 23       	and	r25, r25
     9ea:	59 f0       	breq	.+22     	; 0xa02 <SerSend+0x20>
     9ec:	20 93 36 39 	sts	0x3936, r18	; 0x803936 <serTxAddr>
     9f0:	30 93 37 39 	sts	0x3937, r19	; 0x803937 <serTxAddr+0x1>
     9f4:	10 92 04 38 	sts	0x3804, r1	; 0x803804 <serTxDone>
     9f8:	81 e0       	ldi	r24, 0x01	; 1
     9fa:	80 93 45 0a 	sts	0x0A45, r24	; 0x800a45 <__TEXT_REGION_LENGTH__+0x700a45>
     9fe:	80 e0       	ldi	r24, 0x00	; 0
     a00:	08 95       	ret
     a02:	81 e0       	ldi	r24, 0x01	; 1
     a04:	08 95       	ret

00000a06 <SerSpeed>:
     a06:	28 2f       	mov	r18, r24
     a08:	81 11       	cpse	r24, r1
     a0a:	01 c0       	rjmp	.+2      	; 0xa0e <SerSpeed+0x8>
     a0c:	21 e0       	ldi	r18, 0x01	; 1
     a0e:	8f ef       	ldi	r24, 0xFF	; 255
     a10:	90 e0       	ldi	r25, 0x00	; 0
     a12:	82 1b       	sub	r24, r18
     a14:	91 09       	sbc	r25, r1
     a16:	98 2f       	mov	r25, r24
     a18:	88 27       	eor	r24, r24
     a1a:	81 50       	subi	r24, 0x01	; 1
     a1c:	9f 4f       	sbci	r25, 0xFF	; 255
     a1e:	80 93 4c 0a 	sts	0x0A4C, r24	; 0x800a4c <__TEXT_REGION_LENGTH__+0x700a4c>
     a22:	90 93 4d 0a 	sts	0x0A4D, r25	; 0x800a4d <__TEXT_REGION_LENGTH__+0x700a4d>
     a26:	08 95       	ret

00000a28 <CheckButtons>:
};

// Returns button combination (4LSB) and number of consecutive times this combination is detected. First read should always be ignored! 
uint8_t CheckButtons(uint8_t previousValue){
    uint8_t bADC = (uint8_t)(adcBtns>>4);
     a28:	20 91 34 39 	lds	r18, 0x3934	; 0x803934 <adcBtns>
     a2c:	30 91 35 39 	lds	r19, 0x3935	; 0x803935 <adcBtns+0x1>
    uint8_t bNibble = 0x0F;     //MSB to LSB: Bottom left, top left, top right, bottom right, 0F is error
    
    switch(bADC){
     a30:	32 95       	swap	r19
     a32:	22 95       	swap	r18
     a34:	2f 70       	andi	r18, 0x0F	; 15
     a36:	23 27       	eor	r18, r19
     a38:	3f 70       	andi	r19, 0x0F	; 15
     a3a:	23 27       	eor	r18, r19
     a3c:	33 27       	eor	r19, r19
     a3e:	2c 35       	cpi	r18, 0x5C	; 92
     a40:	31 05       	cpc	r19, r1
     a42:	d0 f4       	brcc	.+52     	; 0xa78 <CheckButtons+0x50>
     a44:	23 35       	cpi	r18, 0x53	; 83
     a46:	31 05       	cpc	r19, r1
     a48:	98 f5       	brcc	.+102    	; 0xab0 <CheckButtons+0x88>
     a4a:	22 33       	cpi	r18, 0x32	; 50
     a4c:	31 05       	cpc	r19, r1
     a4e:	50 f4       	brcc	.+20     	; 0xa64 <CheckButtons+0x3c>
     a50:	2d 32       	cpi	r18, 0x2D	; 45
     a52:	31 05       	cpc	r19, r1
     a54:	48 f5       	brcc	.+82     	; 0xaa8 <CheckButtons+0x80>
     a56:	23 52       	subi	r18, 0x23	; 35
     a58:	31 09       	sbc	r19, r1
     a5a:	25 30       	cpi	r18, 0x05	; 5
     a5c:	31 05       	cpc	r19, r1
     a5e:	08 f4       	brcc	.+2      	; 0xa62 <CheckButtons+0x3a>
     a60:	42 c0       	rjmp	.+132    	; 0xae6 <CheckButtons+0xbe>
     a62:	2e c0       	rjmp	.+92     	; 0xac0 <CheckButtons+0x98>
     a64:	27 33       	cpi	r18, 0x37	; 55
     a66:	31 05       	cpc	r19, r1
     a68:	08 f4       	brcc	.+2      	; 0xa6c <CheckButtons+0x44>
     a6a:	3f c0       	rjmp	.+126    	; 0xaea <CheckButtons+0xc2>
     a6c:	2e 53       	subi	r18, 0x3E	; 62
     a6e:	31 09       	sbc	r19, r1
     a70:	27 30       	cpi	r18, 0x07	; 7
     a72:	31 05       	cpc	r19, r1
     a74:	d8 f0       	brcs	.+54     	; 0xaac <CheckButtons+0x84>
     a76:	24 c0       	rjmp	.+72     	; 0xac0 <CheckButtons+0x98>
     a78:	2a 38       	cpi	r18, 0x8A	; 138
     a7a:	31 05       	cpc	r19, r1
     a7c:	48 f4       	brcc	.+18     	; 0xa90 <CheckButtons+0x68>
     a7e:	29 37       	cpi	r18, 0x79	; 121
     a80:	31 05       	cpc	r19, r1
     a82:	d0 f4       	brcc	.+52     	; 0xab8 <CheckButtons+0x90>
     a84:	23 56       	subi	r18, 0x63	; 99
     a86:	31 09       	sbc	r19, r1
     a88:	2b 30       	cpi	r18, 0x0B	; 11
     a8a:	31 05       	cpc	r19, r1
     a8c:	98 f0       	brcs	.+38     	; 0xab4 <CheckButtons+0x8c>
     a8e:	18 c0       	rjmp	.+48     	; 0xac0 <CheckButtons+0x98>
     a90:	22 3a       	cpi	r18, 0xA2	; 162
     a92:	31 05       	cpc	r19, r1
     a94:	a8 f0       	brcs	.+42     	; 0xac0 <CheckButtons+0x98>
     a96:	2b 3b       	cpi	r18, 0xBB	; 187
     a98:	31 05       	cpc	r19, r1
     a9a:	80 f0       	brcs	.+32     	; 0xabc <CheckButtons+0x94>
     a9c:	20 5f       	subi	r18, 0xF0	; 240
     a9e:	31 09       	sbc	r19, r1
     aa0:	20 31       	cpi	r18, 0x10	; 16
     aa2:	31 05       	cpc	r19, r1
     aa4:	d8 f0       	brcs	.+54     	; 0xadc <CheckButtons+0xb4>
     aa6:	0c c0       	rjmp	.+24     	; 0xac0 <CheckButtons+0x98>
        case 35 ... 39:          //37: Both left
        bNibble = 0b1100;
        break;

        case 45 ... 49:          //47: Both bottom
        bNibble = 0b1001;
     aa8:	99 e0       	ldi	r25, 0x09	; 9
     aaa:	20 c0       	rjmp	.+64     	; 0xaec <CheckButtons+0xc4>
        case 50 ... 54:          //52: Bottom left
        bNibble = 0b1000;
        break;

        case 62 ... 68:          //65: Both top
        bNibble = 0b0110;
     aac:	96 e0       	ldi	r25, 0x06	; 6
        break;
     aae:	1e c0       	rjmp	.+60     	; 0xaec <CheckButtons+0xc4>

        case 83 ... 91:          //87: Top left
        bNibble = 0b0100;
     ab0:	94 e0       	ldi	r25, 0x04	; 4
        break;
     ab2:	1c c0       	rjmp	.+56     	; 0xaec <CheckButtons+0xc4>

        case 99 ... 109:         //104: Both right
        bNibble = 0b0011;
     ab4:	93 e0       	ldi	r25, 0x03	; 3
        break;
     ab6:	1a c0       	rjmp	.+52     	; 0xaec <CheckButtons+0xc4>

        case 121 ... 137:        //129: Top right
        bNibble = 0b0010;
     ab8:	92 e0       	ldi	r25, 0x02	; 2
        break;
     aba:	18 c0       	rjmp	.+48     	; 0xaec <CheckButtons+0xc4>

        case 162 ... 186:        //174: Bottom right
        bNibble = 0b0001;
     abc:	91 e0       	ldi	r25, 0x01	; 1
        break;
     abe:	16 c0       	rjmp	.+44     	; 0xaec <CheckButtons+0xc4>
        case 240 ... 255:        //255: No button pressed
        bNibble = 0b0000;
        break;
    }

    if ((previousValue&0x0F)==bNibble){
     ac0:	98 2f       	mov	r25, r24
     ac2:	9f 70       	andi	r25, 0x0F	; 15
     ac4:	9f 30       	cpi	r25, 0x0F	; 15
     ac6:	41 f4       	brne	.+16     	; 0xad8 <CheckButtons+0xb0>
        if ((previousValue&0xF0) < 0xF0) previousValue += 0x10; //Same value? Increase time nibble
     ac8:	28 2f       	mov	r18, r24
     aca:	20 7f       	andi	r18, 0xF0	; 240
     acc:	30 e0       	ldi	r19, 0x00	; 0
     ace:	20 3f       	cpi	r18, 0xF0	; 240
     ad0:	31 05       	cpc	r19, r1
     ad2:	8c f4       	brge	.+34     	; 0xaf6 <CheckButtons+0xce>
     ad4:	80 5f       	subi	r24, 0xF0	; 240
     ad6:	08 95       	ret
};

// Returns button combination (4LSB) and number of consecutive times this combination is detected. First read should always be ignored! 
uint8_t CheckButtons(uint8_t previousValue){
    uint8_t bADC = (uint8_t)(adcBtns>>4);
    uint8_t bNibble = 0x0F;     //MSB to LSB: Bottom left, top left, top right, bottom right, 0F is error
     ad8:	8f e0       	ldi	r24, 0x0F	; 15
     ada:	08 95       	ret
        case 240 ... 255:        //255: No button pressed
        bNibble = 0b0000;
        break;
    }

    if ((previousValue&0x0F)==bNibble){
     adc:	98 2f       	mov	r25, r24
     ade:	9f 70       	andi	r25, 0x0F	; 15
     ae0:	99 f3       	breq	.-26     	; 0xac8 <CheckButtons+0xa0>
        if ((previousValue&0xF0) < 0xF0) previousValue += 0x10; //Same value? Increase time nibble
        return previousValue;       
    } else if (bNibble == 0) return 0xFF; //Buttons released, 0xFF triggers readout, previousValue holds last button value.
     ae2:	8f ef       	ldi	r24, 0xFF	; 255
     ae4:	08 95       	ret
        case 28 ... 32:         //30: All buttons pressed
        bNibble = 0b1111;
        break;

        case 35 ... 39:          //37: Both left
        bNibble = 0b1100;
     ae6:	9c e0       	ldi	r25, 0x0C	; 12
     ae8:	01 c0       	rjmp	.+2      	; 0xaec <CheckButtons+0xc4>
        case 45 ... 49:          //47: Both bottom
        bNibble = 0b1001;
        break;

        case 50 ... 54:          //52: Bottom left
        bNibble = 0b1000;
     aea:	98 e0       	ldi	r25, 0x08	; 8
        case 240 ... 255:        //255: No button pressed
        bNibble = 0b0000;
        break;
    }

    if ((previousValue&0x0F)==bNibble){
     aec:	28 2f       	mov	r18, r24
     aee:	2f 70       	andi	r18, 0x0F	; 15
     af0:	92 17       	cp	r25, r18
     af2:	51 f3       	breq	.-44     	; 0xac8 <CheckButtons+0xa0>
     af4:	89 2f       	mov	r24, r25
        if ((previousValue&0xF0) < 0xF0) previousValue += 0x10; //Same value? Increase time nibble
        return previousValue;       
    } else if (bNibble == 0) return 0xFF; //Buttons released, 0xFF triggers readout, previousValue holds last button value.
              else return bNibble;  //New value  
}
     af6:	08 95       	ret

00000af8 <lfsr>:

uint8_t lfsr(){
    static uint16_t state = 0xd401;
    state ^= (state << 13);
     af8:	80 91 0c 38 	lds	r24, 0x380C	; 0x80380c <state.3858>
     afc:	90 91 0d 38 	lds	r25, 0x380D	; 0x80380d <state.3858+0x1>
     b00:	9c 01       	movw	r18, r24
     b02:	32 2f       	mov	r19, r18
     b04:	22 27       	eor	r18, r18
     b06:	32 95       	swap	r19
     b08:	33 0f       	add	r19, r19
     b0a:	30 7e       	andi	r19, 0xE0	; 224
     b0c:	82 27       	eor	r24, r18
     b0e:	93 27       	eor	r25, r19
    state ^= (state >> 9);
     b10:	9c 01       	movw	r18, r24
     b12:	23 2f       	mov	r18, r19
     b14:	33 27       	eor	r19, r19
     b16:	26 95       	lsr	r18
     b18:	82 27       	eor	r24, r18
     b1a:	93 27       	eor	r25, r19
    state ^= (state << 7);
     b1c:	9c 01       	movw	r18, r24
     b1e:	36 95       	lsr	r19
     b20:	32 2f       	mov	r19, r18
     b22:	22 27       	eor	r18, r18
     b24:	37 95       	ror	r19
     b26:	27 95       	ror	r18
     b28:	82 27       	eor	r24, r18
     b2a:	93 27       	eor	r25, r19
     b2c:	80 93 0c 38 	sts	0x380C, r24	; 0x80380c <state.3858>
     b30:	90 93 0d 38 	sts	0x380D, r25	; 0x80380d <state.3858+0x1>
    return (state & 0xff);
}
     b34:	08 95       	ret

00000b36 <floatSpeed>:

void floatSpeed(uint8_t bits, uint16_t min, uint16_t max){
     b36:	df 92       	push	r13
     b38:	ef 92       	push	r14
     b3a:	ff 92       	push	r15
     b3c:	0f 93       	push	r16
     b3e:	1f 93       	push	r17
     b40:	cf 93       	push	r28
     b42:	df 93       	push	r29
     b44:	e6 2e       	mov	r14, r22
     b46:	f7 2e       	mov	r15, r23
     b48:	8a 01       	movw	r16, r20
    uint16_t val = TCB1_CCMP;
     b4a:	c0 91 5c 0a 	lds	r28, 0x0A5C	; 0x800a5c <__TEXT_REGION_LENGTH__+0x700a5c>
     b4e:	d0 91 5d 0a 	lds	r29, 0x0A5D	; 0x800a5d <__TEXT_REGION_LENGTH__+0x700a5d>
    bits = mask[(bits-1)&0x07];
     b52:	e8 2f       	mov	r30, r24
     b54:	f0 e0       	ldi	r31, 0x00	; 0
     b56:	31 97       	sbiw	r30, 0x01	; 1
     b58:	e7 70       	andi	r30, 0x07	; 7
     b5a:	ff 27       	eor	r31, r31
     b5c:	e2 5f       	subi	r30, 0xF2	; 242
     b5e:	f7 4c       	sbci	r31, 0xC7	; 199
     b60:	d0 80       	ld	r13, Z
    val += (lfsr()&bits);
     b62:	ca df       	rcall	.-108    	; 0xaf8 <lfsr>
     b64:	8d 21       	and	r24, r13
     b66:	c8 0f       	add	r28, r24
     b68:	d1 1d       	adc	r29, r1
    val -= (lfsr()&bits);
     b6a:	c6 df       	rcall	.-116    	; 0xaf8 <lfsr>
     b6c:	8d 21       	and	r24, r13
     b6e:	c8 1b       	sub	r28, r24
     b70:	d1 09       	sbc	r29, r1
     b72:	0c 17       	cp	r16, r28
     b74:	1d 07       	cpc	r17, r29
     b76:	08 f4       	brcc	.+2      	; 0xb7a <floatSpeed+0x44>
     b78:	e8 01       	movw	r28, r16
     b7a:	8e 2d       	mov	r24, r14
     b7c:	9f 2d       	mov	r25, r15
     b7e:	8c 17       	cp	r24, r28
     b80:	9d 07       	cpc	r25, r29
     b82:	08 f4       	brcc	.+2      	; 0xb86 <floatSpeed+0x50>
     b84:	ce 01       	movw	r24, r28
     b86:	80 93 5c 0a 	sts	0x0A5C, r24	; 0x800a5c <__TEXT_REGION_LENGTH__+0x700a5c>
    if (val > max) val = max;    //0x038B is normal rate, for wind we need to be a bit slower
    if (val < min) val = min;  
    TCB1_CCMP = val;
     b8a:	90 93 5d 0a 	sts	0x0A5D, r25	; 0x800a5d <__TEXT_REGION_LENGTH__+0x700a5d>
     b8e:	df 91       	pop	r29
}
     b90:	cf 91       	pop	r28
     b92:	1f 91       	pop	r17
     b94:	0f 91       	pop	r16
     b96:	ff 90       	pop	r15
     b98:	ef 90       	pop	r14
     b9a:	df 90       	pop	r13
     b9c:	08 95       	ret

00000b9e <floatAround>:
     b9e:	0f 93       	push	r16

uint8_t floatAround(uint8_t sample, uint8_t bits, uint8_t min, uint8_t max){
     ba0:	1f 93       	push	r17
     ba2:	cf 93       	push	r28
     ba4:	df 93       	push	r29
     ba6:	c8 2f       	mov	r28, r24
     ba8:	04 2f       	mov	r16, r20
     baa:	12 2f       	mov	r17, r18
    bits = mask[(bits-1)&0x07];
     bac:	e6 2f       	mov	r30, r22
     bae:	f0 e0       	ldi	r31, 0x00	; 0
     bb0:	31 97       	sbiw	r30, 0x01	; 1
     bb2:	e7 70       	andi	r30, 0x07	; 7
     bb4:	ff 27       	eor	r31, r31
     bb6:	e2 5f       	subi	r30, 0xF2	; 242
     bb8:	f7 4c       	sbci	r31, 0xC7	; 199
     bba:	d0 81       	ld	r29, Z
    sample += lfsr()&bits;
     bbc:	9d df       	rcall	.-198    	; 0xaf8 <lfsr>
     bbe:	8d 23       	and	r24, r29
     bc0:	c8 0f       	add	r28, r24
    sample -= lfsr()&bits;
     bc2:	9a df       	rcall	.-204    	; 0xaf8 <lfsr>
     bc4:	8d 23       	and	r24, r29
     bc6:	c8 1b       	sub	r28, r24
     bc8:	8c 2f       	mov	r24, r28
     bca:	11 23       	and	r17, r17
    if (max){
     bcc:	41 f0       	breq	.+16     	; 0xbde <floatAround+0x40>
     bce:	9c 2f       	mov	r25, r28
     bd0:	1c 17       	cp	r17, r28
     bd2:	08 f4       	brcc	.+2      	; 0xbd6 <floatAround+0x38>
     bd4:	91 2f       	mov	r25, r17
     bd6:	80 2f       	mov	r24, r16
     bd8:	09 17       	cp	r16, r25
     bda:	08 f4       	brcc	.+2      	; 0xbde <floatAround+0x40>
     bdc:	89 2f       	mov	r24, r25
     bde:	df 91       	pop	r29
        if (sample > max) sample = max;
        if (sample < min) sample = min;
    }
    return sample;
}
     be0:	cf 91       	pop	r28
     be2:	1f 91       	pop	r17
     be4:	0f 91       	pop	r16
     be6:	08 95       	ret

00000be8 <SaveGameState>:
     be8:	cf 92       	push	r12

//Save changed data to EEPROM
uint8_t SaveGameState(){
     bea:	df 92       	push	r13
     bec:	ff 92       	push	r15
     bee:	0f 93       	push	r16
     bf0:	1f 93       	push	r17
     bf2:	cf 93       	push	r28
     bf4:	df 93       	push	r29
     bf6:	cd b7       	in	r28, 0x3d	; 61
     bf8:	de b7       	in	r29, 0x3e	; 62
     bfa:	60 97       	sbiw	r28, 0x10	; 16
     bfc:	cd bf       	out	0x3d, r28	; 61
     bfe:	de bf       	out	0x3e, r29	; 62
    uint8_t gameCheck[16];
    EERead(0, &gameCheck[0], 16);
     c00:	40 e1       	ldi	r20, 0x10	; 16
     c02:	be 01       	movw	r22, r28
     c04:	6f 5f       	subi	r22, 0xFF	; 255
     c06:	7f 4f       	sbci	r23, 0xFF	; 255
     c08:	80 e0       	ldi	r24, 0x00	; 0
     c0a:	8f de       	rcall	.-738    	; 0x92a <EERead>
     c0c:	0b ed       	ldi	r16, 0xDB	; 219
     c0e:	18 e3       	ldi	r17, 0x38	; 56
     c10:	ce 01       	movw	r24, r28
     c12:	01 96       	adiw	r24, 0x01	; 1
     c14:	6c 01       	movw	r12, r24
    for (uint8_t x=0; x<16; ++x){
     c16:	f1 2c       	mov	r15, r1
        if (gameState[x] != gameCheck[x]){
     c18:	f6 01       	movw	r30, r12
     c1a:	81 91       	ld	r24, Z+
     c1c:	6f 01       	movw	r12, r30
     c1e:	f8 01       	movw	r30, r16
     c20:	90 81       	ld	r25, Z
     c22:	98 17       	cp	r25, r24
     c24:	31 f0       	breq	.+12     	; 0xc32 <SaveGameState+0x4a>
            if (EEWrite(x, &gameState[x], 1)) return 1;
     c26:	41 e0       	ldi	r20, 0x01	; 1
     c28:	b8 01       	movw	r22, r16
     c2a:	8f 2d       	mov	r24, r15
     c2c:	91 de       	rcall	.-734    	; 0x950 <EEWrite>
     c2e:	81 11       	cpse	r24, r1
     c30:	08 c0       	rjmp	.+16     	; 0xc42 <SaveGameState+0x5a>

//Save changed data to EEPROM
uint8_t SaveGameState(){
    uint8_t gameCheck[16];
    EERead(0, &gameCheck[0], 16);
    for (uint8_t x=0; x<16; ++x){
     c32:	f3 94       	inc	r15
     c34:	0f 5f       	subi	r16, 0xFF	; 255
     c36:	1f 4f       	sbci	r17, 0xFF	; 255
     c38:	f0 e1       	ldi	r31, 0x10	; 16
     c3a:	ff 12       	cpse	r15, r31
     c3c:	ed cf       	rjmp	.-38     	; 0xc18 <SaveGameState+0x30>
        if (gameState[x] != gameCheck[x]){
            if (EEWrite(x, &gameState[x], 1)) return 1;
        }
    }
    return 0;
     c3e:	80 e0       	ldi	r24, 0x00	; 0
     c40:	01 c0       	rjmp	.+2      	; 0xc44 <SaveGameState+0x5c>
uint8_t SaveGameState(){
    uint8_t gameCheck[16];
    EERead(0, &gameCheck[0], 16);
    for (uint8_t x=0; x<16; ++x){
        if (gameState[x] != gameCheck[x]){
            if (EEWrite(x, &gameState[x], 1)) return 1;
     c42:	81 e0       	ldi	r24, 0x01	; 1
        }
    }
    return 0;
}
     c44:	60 96       	adiw	r28, 0x10	; 16
     c46:	cd bf       	out	0x3d, r28	; 61
     c48:	de bf       	out	0x3e, r29	; 62
     c4a:	df 91       	pop	r29
     c4c:	cf 91       	pop	r28
     c4e:	1f 91       	pop	r17
     c50:	0f 91       	pop	r16
     c52:	ff 90       	pop	r15
     c54:	df 90       	pop	r13
     c56:	cf 90       	pop	r12
     c58:	08 95       	ret

00000c5a <ReadStatusBit>:

uint8_t ReadStatusBit(uint8_t number){
    number &= 0x3f;
    if (gameState[number>>3] & (1<<(number&7))) return 1; else return 0;
     c5a:	e8 2f       	mov	r30, r24
     c5c:	ef 73       	andi	r30, 0x3F	; 63
     c5e:	e6 95       	lsr	r30
     c60:	e6 95       	lsr	r30
     c62:	e6 95       	lsr	r30
     c64:	f0 e0       	ldi	r31, 0x00	; 0
     c66:	e5 52       	subi	r30, 0x25	; 37
     c68:	f7 4c       	sbci	r31, 0xC7	; 199
     c6a:	20 81       	ld	r18, Z
     c6c:	30 e0       	ldi	r19, 0x00	; 0
     c6e:	87 70       	andi	r24, 0x07	; 7
     c70:	a9 01       	movw	r20, r18
     c72:	02 c0       	rjmp	.+4      	; 0xc78 <ReadStatusBit+0x1e>
     c74:	55 95       	asr	r21
     c76:	47 95       	ror	r20
     c78:	8a 95       	dec	r24
     c7a:	e2 f7       	brpl	.-8      	; 0xc74 <ReadStatusBit+0x1a>
     c7c:	ca 01       	movw	r24, r20
}
     c7e:	81 70       	andi	r24, 0x01	; 1
     c80:	08 95       	ret

00000c82 <WriteStatusBit>:

void WriteStatusBit(uint8_t number, uint8_t state){
    number &= 0x3f;
     c82:	e8 2f       	mov	r30, r24
     c84:	ef 73       	andi	r30, 0x3F	; 63
    if (state) gameState[number>>3] |= 1<<(number&7);
     c86:	66 23       	and	r22, r22
     c88:	a1 f0       	breq	.+40     	; 0xcb2 <WriteStatusBit+0x30>
     c8a:	e6 95       	lsr	r30
     c8c:	e6 95       	lsr	r30
     c8e:	e6 95       	lsr	r30
     c90:	f0 e0       	ldi	r31, 0x00	; 0
     c92:	e5 52       	subi	r30, 0x25	; 37
     c94:	f7 4c       	sbci	r31, 0xC7	; 199
     c96:	87 70       	andi	r24, 0x07	; 7
     c98:	21 e0       	ldi	r18, 0x01	; 1
     c9a:	30 e0       	ldi	r19, 0x00	; 0
     c9c:	a9 01       	movw	r20, r18
     c9e:	02 c0       	rjmp	.+4      	; 0xca4 <WriteStatusBit+0x22>
     ca0:	44 0f       	add	r20, r20
     ca2:	55 1f       	adc	r21, r21
     ca4:	8a 95       	dec	r24
     ca6:	e2 f7       	brpl	.-8      	; 0xca0 <WriteStatusBit+0x1e>
     ca8:	ca 01       	movw	r24, r20
     caa:	90 81       	ld	r25, Z
     cac:	89 2b       	or	r24, r25
     cae:	80 83       	st	Z, r24
     cb0:	08 95       	ret
    else gameState[number>>3] &= ~(1<<(number&7));
     cb2:	e6 95       	lsr	r30
     cb4:	e6 95       	lsr	r30
     cb6:	e6 95       	lsr	r30
     cb8:	f0 e0       	ldi	r31, 0x00	; 0
     cba:	e5 52       	subi	r30, 0x25	; 37
     cbc:	f7 4c       	sbci	r31, 0xC7	; 199
     cbe:	87 70       	andi	r24, 0x07	; 7
     cc0:	21 e0       	ldi	r18, 0x01	; 1
     cc2:	30 e0       	ldi	r19, 0x00	; 0
     cc4:	a9 01       	movw	r20, r18
     cc6:	02 c0       	rjmp	.+4      	; 0xccc <WriteStatusBit+0x4a>
     cc8:	44 0f       	add	r20, r20
     cca:	55 1f       	adc	r21, r21
     ccc:	8a 95       	dec	r24
     cce:	e2 f7       	brpl	.-8      	; 0xcc8 <WriteStatusBit+0x46>
     cd0:	ca 01       	movw	r24, r20
     cd2:	80 95       	com	r24
     cd4:	90 81       	ld	r25, Z
     cd6:	89 23       	and	r24, r25
     cd8:	80 83       	st	Z, r24
     cda:	08 95       	ret

00000cdc <Reset>:
}

void Reset(){
     cdc:	eb ed       	ldi	r30, 0xDB	; 219
     cde:	f8 e3       	ldi	r31, 0x38	; 56
     ce0:	8b ee       	ldi	r24, 0xEB	; 235
     ce2:	98 e3       	ldi	r25, 0x38	; 56
    //# 110   set to 1 by FW if badge UUID mod 4 == 0
    //# 111   set to 1 by FW if badge UUID mod 4 == 1
    //# 112   set to 1 by FW if badge UUID mod 4 == 2
    //# 113   set to 1 by FW if badge UUID mod 4 == 3
    for (uint8_t x=0; x<sizeof(gameState); ++x){
        gameState[x] = 0;
     ce4:	11 92       	st	Z+, r1
    //Reset game progress (all zeroes) and load some bits:
    //# 110   set to 1 by FW if badge UUID mod 4 == 0
    //# 111   set to 1 by FW if badge UUID mod 4 == 1
    //# 112   set to 1 by FW if badge UUID mod 4 == 2
    //# 113   set to 1 by FW if badge UUID mod 4 == 3
    for (uint8_t x=0; x<sizeof(gameState); ++x){
     ce6:	8e 17       	cp	r24, r30
     ce8:	9f 07       	cpc	r25, r31
     cea:	e1 f7       	brne	.-8      	; 0xce4 <Reset+0x8>
     cec:	e3 e0       	ldi	r30, 0x03	; 3
     cee:	f1 e1       	ldi	r31, 0x11	; 17
     cf0:	80 e0       	ldi	r24, 0x00	; 0
    uint8_t *serNum;
    serNum = (uint8_t*)&SIGROW_SERNUM0;
    
    //Give out a number 0..3, calculated using serial number fields
    for (uint8_t x=0; x<10; ++x){
        id += *serNum;
     cf2:	91 91       	ld	r25, Z+
     cf4:	89 0f       	add	r24, r25
    uint8_t id = 0;
    uint8_t *serNum;
    serNum = (uint8_t*)&SIGROW_SERNUM0;
    
    //Give out a number 0..3, calculated using serial number fields
    for (uint8_t x=0; x<10; ++x){
     cf6:	ed 30       	cpi	r30, 0x0D	; 13
     cf8:	91 e1       	ldi	r25, 0x11	; 17
     cfa:	f9 07       	cpc	r31, r25
     cfc:	d1 f7       	brne	.-12     	; 0xcf2 <Reset+0x16>
        id += *serNum;
        ++serNum;
    }
    id %= 4;
     cfe:	83 70       	andi	r24, 0x03	; 3

    //Write bit in gameState location 110..113
    if (id == 0) WriteStatusBit(110, 1);
     d00:	31 f4       	brne	.+12     	; 0xd0e <Reset+0x32>
    if (gameState[number>>3] & (1<<(number&7))) return 1; else return 0;
}

void WriteStatusBit(uint8_t number, uint8_t state){
    number &= 0x3f;
    if (state) gameState[number>>3] |= 1<<(number&7);
     d02:	eb ed       	ldi	r30, 0xDB	; 219
     d04:	f8 e3       	ldi	r31, 0x38	; 56
     d06:	85 81       	ldd	r24, Z+5	; 0x05
     d08:	80 64       	ori	r24, 0x40	; 64
     d0a:	85 83       	std	Z+5, r24	; 0x05
     d0c:	08 95       	ret
    }
    id %= 4;

    //Write bit in gameState location 110..113
    if (id == 0) WriteStatusBit(110, 1);
    else if (id == 1) WriteStatusBit(111, 1);
     d0e:	81 30       	cpi	r24, 0x01	; 1
     d10:	31 f4       	brne	.+12     	; 0xd1e <Reset+0x42>
    if (gameState[number>>3] & (1<<(number&7))) return 1; else return 0;
}

void WriteStatusBit(uint8_t number, uint8_t state){
    number &= 0x3f;
    if (state) gameState[number>>3] |= 1<<(number&7);
     d12:	eb ed       	ldi	r30, 0xDB	; 219
     d14:	f8 e3       	ldi	r31, 0x38	; 56
     d16:	85 81       	ldd	r24, Z+5	; 0x05
     d18:	80 68       	ori	r24, 0x80	; 128
     d1a:	85 83       	std	Z+5, r24	; 0x05
     d1c:	08 95       	ret
    id %= 4;

    //Write bit in gameState location 110..113
    if (id == 0) WriteStatusBit(110, 1);
    else if (id == 1) WriteStatusBit(111, 1);
    else if (id == 2) WriteStatusBit(112, 1);
     d1e:	82 30       	cpi	r24, 0x02	; 2
     d20:	31 f4       	brne	.+12     	; 0xd2e <Reset+0x52>
    if (gameState[number>>3] & (1<<(number&7))) return 1; else return 0;
}

void WriteStatusBit(uint8_t number, uint8_t state){
    number &= 0x3f;
    if (state) gameState[number>>3] |= 1<<(number&7);
     d22:	eb ed       	ldi	r30, 0xDB	; 219
     d24:	f8 e3       	ldi	r31, 0x38	; 56
     d26:	86 81       	ldd	r24, Z+6	; 0x06
     d28:	81 60       	ori	r24, 0x01	; 1
     d2a:	86 83       	std	Z+6, r24	; 0x06
     d2c:	08 95       	ret

    //Write bit in gameState location 110..113
    if (id == 0) WriteStatusBit(110, 1);
    else if (id == 1) WriteStatusBit(111, 1);
    else if (id == 2) WriteStatusBit(112, 1);
    else if (id == 3) WriteStatusBit(113, 1);
     d2e:	83 30       	cpi	r24, 0x03	; 3
     d30:	29 f4       	brne	.+10     	; 0xd3c <Reset+0x60>
    if (gameState[number>>3] & (1<<(number&7))) return 1; else return 0;
}

void WriteStatusBit(uint8_t number, uint8_t state){
    number &= 0x3f;
    if (state) gameState[number>>3] |= 1<<(number&7);
     d32:	eb ed       	ldi	r30, 0xDB	; 219
     d34:	f8 e3       	ldi	r31, 0x38	; 56
     d36:	86 81       	ldd	r24, Z+6	; 0x06
     d38:	82 60       	ori	r24, 0x02	; 2
     d3a:	86 83       	std	Z+6, r24	; 0x06
     d3c:	08 95       	ret

00000d3e <GenerateAudio>:
    else if (id == 1) WriteStatusBit(111, 1);
    else if (id == 2) WriteStatusBit(112, 1);
    else if (id == 3) WriteStatusBit(113, 1);
}

void GenerateAudio(){
     d3e:	0f 93       	push	r16
     d40:	1f 93       	push	r17
     d42:	cf 93       	push	r28
     d44:	df 93       	push	r29
    //Test audio play, play a rainstorm with howling wind.
    static uint8_t storm[7]={0x80, 0x80, 0x80, 0x80, 0x80, 0x80, 0};

    auRepAddr = &storm[0];
     d46:	85 e0       	ldi	r24, 0x05	; 5
     d48:	98 e3       	ldi	r25, 0x38	; 56
     d4a:	80 93 00 38 	sts	0x3800, r24	; 0x803800 <__data_start>
     d4e:	90 93 01 38 	sts	0x3801, r25	; 0x803801 <__data_start+0x1>
    auVolume = 127;
     d52:	8f e7       	ldi	r24, 0x7F	; 127
     d54:	80 93 33 39 	sts	0x3933, r24	; 0x803933 <auVolume>
     d58:	05 e0       	ldi	r16, 0x05	; 5
     d5a:	18 e3       	ldi	r17, 0x38	; 56

    //Noise is to be generated fast, outside of buttonMark loop
    for (uint8_t x=1; x<6; ++x){
     d5c:	c1 e0       	ldi	r28, 0x01	; 1
        if (x%3) storm[x] = floatAround(0x80, 5, 0x01, 0x00);
     d5e:	db ea       	ldi	r29, 0xAB	; 171
     d60:	cd 9f       	mul	r28, r29
     d62:	81 2d       	mov	r24, r1
     d64:	11 24       	eor	r1, r1
     d66:	86 95       	lsr	r24
     d68:	98 2f       	mov	r25, r24
     d6a:	99 0f       	add	r25, r25
     d6c:	89 0f       	add	r24, r25
     d6e:	c8 17       	cp	r28, r24
     d70:	39 f0       	breq	.+14     	; 0xd80 <GenerateAudio+0x42>
     d72:	20 e0       	ldi	r18, 0x00	; 0
     d74:	41 e0       	ldi	r20, 0x01	; 1
     d76:	65 e0       	ldi	r22, 0x05	; 5
     d78:	80 e8       	ldi	r24, 0x80	; 128
     d7a:	11 df       	rcall	.-478    	; 0xb9e <floatAround>
     d7c:	f8 01       	movw	r30, r16
     d7e:	81 83       	std	Z+1, r24	; 0x01

    auRepAddr = &storm[0];
    auVolume = 127;

    //Noise is to be generated fast, outside of buttonMark loop
    for (uint8_t x=1; x<6; ++x){
     d80:	cf 5f       	subi	r28, 0xFF	; 255
     d82:	0f 5f       	subi	r16, 0xFF	; 255
     d84:	1f 4f       	sbci	r17, 0xFF	; 255
     d86:	c6 30       	cpi	r28, 0x06	; 6
     d88:	59 f7       	brne	.-42     	; 0xd60 <GenerateAudio+0x22>
        if (x%3) storm[x] = floatAround(0x80, 5, 0x01, 0x00);
    }

    if (buttonMark){
     d8a:	80 91 18 38 	lds	r24, 0x3818	; 0x803818 <buttonMark>
     d8e:	88 23       	and	r24, r24
     d90:	c1 f0       	breq	.+48     	; 0xdc2 <GenerateAudio+0x84>
        //"Floating" speed for howl (and noise, but that's hardly audible)
        floatSpeed(6, 0x0300, 0x0700);
     d92:	40 e0       	ldi	r20, 0x00	; 0
     d94:	57 e0       	ldi	r21, 0x07	; 7
     d96:	60 e0       	ldi	r22, 0x00	; 0
     d98:	73 e0       	ldi	r23, 0x03	; 3
     d9a:	86 e0       	ldi	r24, 0x06	; 6
     d9c:	cc de       	rcall	.-616    	; 0xb36 <floatSpeed>
            
        //"Floating" volume and wind howl during 8 bit rainstorm needs some randomness
        auVolume = floatAround(auVolume, 2, 0x10, 0xA0);
     d9e:	80 91 33 39 	lds	r24, 0x3933	; 0x803933 <auVolume>
     da2:	20 ea       	ldi	r18, 0xA0	; 160
     da4:	40 e1       	ldi	r20, 0x10	; 16
     da6:	62 e0       	ldi	r22, 0x02	; 2
     da8:	fa de       	rcall	.-524    	; 0xb9e <floatAround>
     daa:	80 93 33 39 	sts	0x3933, r24	; 0x803933 <auVolume>
        storm[0] = floatAround(storm[0], 2, 0x70, 0x90);
     dae:	c5 e0       	ldi	r28, 0x05	; 5
     db0:	d8 e3       	ldi	r29, 0x38	; 56
     db2:	20 e9       	ldi	r18, 0x90	; 144
     db4:	40 e7       	ldi	r20, 0x70	; 112
     db6:	62 e0       	ldi	r22, 0x02	; 2
     db8:	88 81       	ld	r24, Y
     dba:	f1 de       	rcall	.-542    	; 0xb9e <floatAround>
     dbc:	88 83       	st	Y, r24
        storm[3] = 0xFF-storm[0];  //Inverse value of wind[0] produces a whistle
     dbe:	80 95       	com	r24
     dc0:	8b 83       	std	Y+3, r24	; 0x03
    }
     dc2:	df 91       	pop	r29
     dc4:	cf 91       	pop	r28
     dc6:	1f 91       	pop	r17
     dc8:	0f 91       	pop	r16
     dca:	08 95       	ret

00000dcc <DecryptData>:
}

//Checks if state of bit BBBBbbb matches with v (inverted) bit
uint8_t CheckState(uint8_t num){
    return (GetState(num&(STATUS_BITS-1)) == (1-(num&STATUS_BITS))); 
}
     dcc:	cf 93       	push	r28
     dce:	df 93       	push	r29
     dd0:	dc 01       	movw	r26, r24
     dd2:	e9 01       	movw	r28, r18
     dd4:	66 23       	and	r22, r22
     dd6:	a9 f0       	breq	.+42     	; 0xe02 <DecryptData+0x36>
     dd8:	50 e0       	ldi	r21, 0x00	; 0
     dda:	44 0f       	add	r20, r20
     ddc:	55 1f       	adc	r21, r21
     dde:	44 0f       	add	r20, r20
     de0:	55 1f       	adc	r21, r21
     de2:	44 0f       	add	r20, r20
     de4:	55 1f       	adc	r21, r21
     de6:	44 53       	subi	r20, 0x34	; 52
     de8:	5b 46       	sbci	r21, 0x6B	; 107
     dea:	fd 01       	movw	r30, r26
     dec:	e7 70       	andi	r30, 0x07	; 7
     dee:	ff 27       	eor	r31, r31
     df0:	e4 0f       	add	r30, r20
     df2:	f5 1f       	adc	r31, r21
     df4:	88 81       	ld	r24, Y
     df6:	90 81       	ld	r25, Z
     df8:	98 27       	eor	r25, r24
     dfa:	99 93       	st	Y+, r25
     dfc:	11 96       	adiw	r26, 0x01	; 1
     dfe:	61 50       	subi	r22, 0x01	; 1
     e00:	a1 f7       	brne	.-24     	; 0xdea <DecryptData+0x1e>
     e02:	df 91       	pop	r29
     e04:	cf 91       	pop	r28
     e06:	08 95       	ret

00000e08 <ExtEERead>:
     e08:	af 92       	push	r10
     e0a:	bf 92       	push	r11
     e0c:	cf 92       	push	r12
     e0e:	df 92       	push	r13
     e10:	ef 92       	push	r14
     e12:	ff 92       	push	r15
     e14:	0f 93       	push	r16
     e16:	1f 93       	push	r17
     e18:	cf 93       	push	r28
     e1a:	df 93       	push	r29
     e1c:	00 d0       	rcall	.+0      	; 0xe1e <ExtEERead+0x16>
     e1e:	cd b7       	in	r28, 0x3d	; 61
     e20:	de b7       	in	r29, 0x3e	; 62
     e22:	d6 2e       	mov	r13, r22
     e24:	c4 2e       	mov	r12, r20
     e26:	59 01       	movw	r10, r18
     e28:	7c 01       	movw	r14, r24
     e2a:	e8 94       	clt
     e2c:	f7 f8       	bld	r15, 7
     e2e:	f9 82       	std	Y+1, r15	; 0x01
     e30:	ea 82       	std	Y+2, r14	; 0x02
     e32:	06 2f       	mov	r16, r22
     e34:	42 e0       	ldi	r20, 0x02	; 2
     e36:	be 01       	movw	r22, r28
     e38:	6f 5f       	subi	r22, 0xFF	; 255
     e3a:	7f 4f       	sbci	r23, 0xFF	; 255
     e3c:	80 e5       	ldi	r24, 0x50	; 80
     e3e:	32 da       	rcall	.-2972   	; 0x2a4 <I2C_read_bytes>
     e40:	18 2f       	mov	r17, r24
     e42:	81 11       	cpse	r24, r1
     e44:	05 c0       	rjmp	.+10     	; 0xe50 <ExtEERead+0x48>
     e46:	95 01       	movw	r18, r10
     e48:	4c 2d       	mov	r20, r12
     e4a:	6d 2d       	mov	r22, r13
     e4c:	c7 01       	movw	r24, r14
     e4e:	be df       	rcall	.-132    	; 0xdcc <DecryptData>
     e50:	81 2f       	mov	r24, r17
     e52:	0f 90       	pop	r0
     e54:	0f 90       	pop	r0
     e56:	df 91       	pop	r29
     e58:	cf 91       	pop	r28
     e5a:	1f 91       	pop	r17
     e5c:	0f 91       	pop	r16
     e5e:	ff 90       	pop	r15
     e60:	ef 90       	pop	r14
     e62:	df 90       	pop	r13
     e64:	cf 90       	pop	r12
     e66:	bf 90       	pop	r11
     e68:	af 90       	pop	r10
     e6a:	08 95       	ret

00000e6c <ClearTxAfter>:
     e6c:	8f 5f       	subi	r24, 0xFF	; 255
     e6e:	88 30       	cpi	r24, 0x08	; 8
     e70:	40 f4       	brcc	.+16     	; 0xe82 <ClearTxAfter+0x16>
     e72:	e8 2f       	mov	r30, r24
     e74:	f0 e0       	ldi	r31, 0x00	; 0
     e76:	ef 53       	subi	r30, 0x3F	; 63
     e78:	f7 4c       	sbci	r31, 0xC7	; 199
     e7a:	10 82       	st	Z, r1
     e7c:	8f 5f       	subi	r24, 0xFF	; 255
     e7e:	88 30       	cpi	r24, 0x08	; 8
     e80:	c1 f7       	brne	.-16     	; 0xe72 <ClearTxAfter+0x6>
     e82:	08 95       	ret

00000e84 <StartsWith>:
     e84:	fc 01       	movw	r30, r24
     e86:	90 81       	ld	r25, Z
     e88:	91 11       	cpse	r25, r1
     e8a:	07 c0       	rjmp	.+14     	; 0xe9a <StartsWith+0x16>
     e8c:	81 e0       	ldi	r24, 0x01	; 1
     e8e:	08 95       	ret
     e90:	81 e0       	ldi	r24, 0x01	; 1
     e92:	92 17       	cp	r25, r18
     e94:	39 f0       	breq	.+14     	; 0xea4 <StartsWith+0x20>
     e96:	80 e0       	ldi	r24, 0x00	; 0
     e98:	08 95       	ret
     e9a:	fb 01       	movw	r30, r22
     e9c:	20 81       	ld	r18, Z
     e9e:	21 11       	cpse	r18, r1
     ea0:	f7 cf       	rjmp	.-18     	; 0xe90 <StartsWith+0xc>
     ea2:	81 e0       	ldi	r24, 0x01	; 1
     ea4:	08 95       	ret

00000ea6 <PrepareSending>:
     ea6:	1f 93       	push	r17
     ea8:	cf 93       	push	r28
     eaa:	df 93       	push	r29
     eac:	eb 01       	movw	r28, r22
     eae:	12 2f       	mov	r17, r18
     eb0:	6f 3f       	cpi	r22, 0xFF	; 255
     eb2:	71 05       	cpc	r23, r1
     eb4:	d1 f0       	breq	.+52     	; 0xeea <PrepareSending+0x44>
     eb6:	c8 f0       	brcs	.+50     	; 0xeea <PrepareSending+0x44>
     eb8:	50 e0       	ldi	r21, 0x00	; 0
     eba:	6f ef       	ldi	r22, 0xFF	; 255
     ebc:	25 2f       	mov	r18, r21
     ebe:	30 e0       	ldi	r19, 0x00	; 0
     ec0:	f9 01       	movw	r30, r18
     ec2:	ee 0f       	add	r30, r30
     ec4:	ff 1f       	adc	r31, r31
     ec6:	e7 53       	subi	r30, 0x37	; 55
     ec8:	f7 4c       	sbci	r31, 0xC7	; 199
     eca:	80 83       	st	Z, r24
     ecc:	91 83       	std	Z+1, r25	; 0x01
     ece:	f9 01       	movw	r30, r18
     ed0:	ef 53       	subi	r30, 0x3F	; 63
     ed2:	f7 4c       	sbci	r31, 0xC7	; 199
     ed4:	60 83       	st	Z, r22
     ed6:	81 50       	subi	r24, 0x01	; 1
     ed8:	9f 4f       	sbci	r25, 0xFF	; 255
     eda:	cf 5f       	subi	r28, 0xFF	; 255
     edc:	d1 09       	sbc	r29, r1
     ede:	5f 5f       	subi	r21, 0xFF	; 255
     ee0:	cf 3f       	cpi	r28, 0xFF	; 255
     ee2:	d1 05       	cpc	r29, r1
     ee4:	09 f0       	breq	.+2      	; 0xee8 <PrepareSending+0x42>
     ee6:	50 f7       	brcc	.-44     	; 0xebc <PrepareSending+0x16>
     ee8:	01 c0       	rjmp	.+2      	; 0xeec <PrepareSending+0x46>
     eea:	50 e0       	ldi	r21, 0x00	; 0
     eec:	25 2f       	mov	r18, r21
     eee:	30 e0       	ldi	r19, 0x00	; 0
     ef0:	f9 01       	movw	r30, r18
     ef2:	ee 0f       	add	r30, r30
     ef4:	ff 1f       	adc	r31, r31
     ef6:	e7 53       	subi	r30, 0x37	; 55
     ef8:	f7 4c       	sbci	r31, 0xC7	; 199
     efa:	80 83       	st	Z, r24
     efc:	91 83       	std	Z+1, r25	; 0x01
     efe:	f9 01       	movw	r30, r18
     f00:	ef 53       	subi	r30, 0x3F	; 63
     f02:	f7 4c       	sbci	r31, 0xC7	; 199
     f04:	9e 01       	movw	r18, r28
     f06:	a1 e8       	ldi	r26, 0x81	; 129
     f08:	b0 e8       	ldi	r27, 0x80	; 128
     f0a:	c7 d2       	rcall	.+1422   	; 0x149a <__umulhisi3>
     f0c:	88 0f       	add	r24, r24
     f0e:	89 2f       	mov	r24, r25
     f10:	88 1f       	adc	r24, r24
     f12:	99 0b       	sbc	r25, r25
     f14:	91 95       	neg	r25
     f16:	6f ef       	ldi	r22, 0xFF	; 255
     f18:	68 9f       	mul	r22, r24
     f1a:	90 01       	movw	r18, r0
     f1c:	69 9f       	mul	r22, r25
     f1e:	30 0d       	add	r19, r0
     f20:	11 24       	eor	r1, r1
     f22:	c2 1b       	sub	r28, r18
     f24:	d3 0b       	sbc	r29, r19
     f26:	c0 83       	st	Z, r28
     f28:	40 93 be 38 	sts	0x38BE, r20	; 0x8038be <txTypeNow>
     f2c:	85 2f       	mov	r24, r21
     f2e:	9e df       	rcall	.-196    	; 0xe6c <ClearTxAfter>
     f30:	10 93 bf 38 	sts	0x38BF, r17	; 0x8038bf <sendPrompt>
     f34:	10 92 c0 38 	sts	0x38C0, r1	; 0x8038c0 <txAddrNow>
     f38:	80 e0       	ldi	r24, 0x00	; 0
     f3a:	df 91       	pop	r29
     f3c:	cf 91       	pop	r28
     f3e:	1f 91       	pop	r17
     f40:	08 95       	ret

00000f42 <PopulateObject>:
     f42:	6f 92       	push	r6
     f44:	7f 92       	push	r7
     f46:	8f 92       	push	r8
     f48:	9f 92       	push	r9
     f4a:	af 92       	push	r10
     f4c:	bf 92       	push	r11
     f4e:	cf 92       	push	r12
     f50:	df 92       	push	r13
     f52:	ef 92       	push	r14
     f54:	ff 92       	push	r15
     f56:	0f 93       	push	r16
     f58:	1f 93       	push	r17
     f5a:	cf 93       	push	r28
     f5c:	df 93       	push	r29
     f5e:	cd b7       	in	r28, 0x3d	; 61
     f60:	de b7       	in	r29, 0x3e	; 62
     f62:	2c 97       	sbiw	r28, 0x0c	; 12
     f64:	cd bf       	out	0x3d, r28	; 61
     f66:	de bf       	out	0x3e, r29	; 62
     f68:	8c 01       	movw	r16, r24
     f6a:	5b 01       	movw	r10, r22
     f6c:	9e 01       	movw	r18, r28
     f6e:	2f 5f       	subi	r18, 0xFF	; 255
     f70:	3f 4f       	sbci	r19, 0xFF	; 255
     f72:	40 e0       	ldi	r20, 0x00	; 0
     f74:	6c e0       	ldi	r22, 0x0C	; 12
     f76:	80 96       	adiw	r24, 0x20	; 32
     f78:	47 df       	rcall	.-370    	; 0xe08 <ExtEERead>
     f7a:	89 81       	ldd	r24, Y+1	; 0x01
     f7c:	90 e0       	ldi	r25, 0x00	; 0
     f7e:	98 2f       	mov	r25, r24
     f80:	88 27       	eor	r24, r24
     f82:	2a 81       	ldd	r18, Y+2	; 0x02
     f84:	82 2b       	or	r24, r18
     f86:	80 96       	adiw	r24, 0x20	; 32
     f88:	f5 01       	movw	r30, r10
     f8a:	80 83       	st	Z, r24
     f8c:	91 83       	std	Z+1, r25	; 0x01
     f8e:	8b 81       	ldd	r24, Y+3	; 0x03
     f90:	90 e0       	ldi	r25, 0x00	; 0
     f92:	98 2f       	mov	r25, r24
     f94:	88 27       	eor	r24, r24
     f96:	2c 81       	ldd	r18, Y+4	; 0x04
     f98:	82 2b       	or	r24, r18
     f9a:	80 96       	adiw	r24, 0x20	; 32
     f9c:	82 83       	std	Z+2, r24	; 0x02
     f9e:	93 83       	std	Z+3, r25	; 0x03
     fa0:	fe 01       	movw	r30, r28
     fa2:	35 96       	adiw	r30, 0x05	; 5
     fa4:	d5 01       	movw	r26, r10
     fa6:	14 96       	adiw	r26, 0x04	; 4
     fa8:	9e 01       	movw	r18, r28
     faa:	23 5f       	subi	r18, 0xF3	; 243
     fac:	3f 4f       	sbci	r19, 0xFF	; 255
     fae:	81 91       	ld	r24, Z+
     fb0:	8d 93       	st	X+, r24
     fb2:	e2 17       	cp	r30, r18
     fb4:	f3 07       	cpc	r31, r19
     fb6:	d9 f7       	brne	.-10     	; 0xfae <PopulateObject+0x6c>
     fb8:	38 01       	movw	r6, r16
     fba:	fc e2       	ldi	r31, 0x2C	; 44
     fbc:	6f 0e       	add	r6, r31
     fbe:	71 1c       	adc	r7, r1
     fc0:	03 5d       	subi	r16, 0xD3	; 211
     fc2:	1f 4f       	sbci	r17, 0xFF	; 255
     fc4:	f5 01       	movw	r30, r10
     fc6:	04 87       	std	Z+12, r16	; 0x0c
     fc8:	15 87       	std	Z+13, r17	; 0x0d
     fca:	65 01       	movw	r12, r10
     fcc:	fe e0       	ldi	r31, 0x0E	; 14
     fce:	cf 0e       	add	r12, r31
     fd0:	d1 1c       	adc	r13, r1
     fd2:	45 01       	movw	r8, r10
     fd4:	8a e1       	ldi	r24, 0x1A	; 26
     fd6:	88 0e       	add	r8, r24
     fd8:	91 1c       	adc	r9, r1
     fda:	73 01       	movw	r14, r6
     fdc:	02 c0       	rjmp	.+4      	; 0xfe2 <PopulateObject+0xa0>
     fde:	78 01       	movw	r14, r16
     fe0:	38 01       	movw	r6, r16
     fe2:	83 01       	movw	r16, r6
     fe4:	9e 01       	movw	r18, r28
     fe6:	2f 5f       	subi	r18, 0xFF	; 255
     fe8:	3f 4f       	sbci	r19, 0xFF	; 255
     fea:	40 e0       	ldi	r20, 0x00	; 0
     fec:	61 e0       	ldi	r22, 0x01	; 1
     fee:	c8 01       	movw	r24, r16
     ff0:	0b df       	rcall	.-490    	; 0xe08 <ExtEERead>
     ff2:	89 81       	ldd	r24, Y+1	; 0x01
     ff4:	98 01       	movw	r18, r16
     ff6:	28 0f       	add	r18, r24
     ff8:	31 1d       	adc	r19, r1
     ffa:	89 01       	movw	r16, r18
     ffc:	0f 5f       	subi	r16, 0xFF	; 255
     ffe:	1f 4f       	sbci	r17, 0xFF	; 255
    1000:	12 f0       	brmi	.+4      	; 0x1006 <PopulateObject+0xc4>
    1002:	8f 3f       	cpi	r24, 0xFF	; 255
    1004:	79 f3       	breq	.-34     	; 0xfe4 <PopulateObject+0xa2>
    1006:	e0 94       	com	r14
    1008:	f0 94       	com	r15
    100a:	e0 0e       	add	r14, r16
    100c:	f1 1e       	adc	r15, r17
    100e:	e8 94       	clt
    1010:	f7 f8       	bld	r15, 7
    1012:	f6 01       	movw	r30, r12
    1014:	e4 86       	std	Z+12, r14	; 0x0c
    1016:	f5 86       	std	Z+13, r15	; 0x0d
    1018:	3f 77       	andi	r19, 0x7F	; 127
    101a:	21 93       	st	Z+, r18
    101c:	31 93       	st	Z+, r19
    101e:	6f 01       	movw	r12, r30
    1020:	e8 15       	cp	r30, r8
    1022:	f9 05       	cpc	r31, r9
    1024:	e1 f6       	brne	.-72     	; 0xfde <PopulateObject+0x9c>
    1026:	06 19       	sub	r16, r6
    1028:	17 09       	sbc	r17, r7
    102a:	1f 77       	andi	r17, 0x7F	; 127
    102c:	f5 01       	movw	r30, r10
    102e:	06 a3       	std	Z+38, r16	; 0x26
    1030:	17 a3       	std	Z+39, r17	; 0x27
    1032:	2c 96       	adiw	r28, 0x0c	; 12
    1034:	cd bf       	out	0x3d, r28	; 61
    1036:	de bf       	out	0x3e, r29	; 62
    1038:	df 91       	pop	r29
    103a:	cf 91       	pop	r28
    103c:	1f 91       	pop	r17
    103e:	0f 91       	pop	r16
    1040:	ff 90       	pop	r15
    1042:	ef 90       	pop	r14
    1044:	df 90       	pop	r13
    1046:	cf 90       	pop	r12
    1048:	bf 90       	pop	r11
    104a:	af 90       	pop	r10
    104c:	9f 90       	pop	r9
    104e:	8f 90       	pop	r8
    1050:	7f 90       	pop	r7
    1052:	6f 90       	pop	r6
    1054:	08 95       	ret

00001056 <SendLiteral>:
    1056:	cf 92       	push	r12
    1058:	df 92       	push	r13
    105a:	ef 92       	push	r14
    105c:	ff 92       	push	r15
    105e:	1f 93       	push	r17
    1060:	cf 93       	push	r28
    1062:	df 93       	push	r29
    1064:	7c 01       	movw	r14, r24
    1066:	cb 01       	movw	r24, r22
    1068:	14 2f       	mov	r17, r20
    106a:	1f 71       	andi	r17, 0x1F	; 31
    106c:	c1 2e       	mov	r12, r17
    106e:	d1 2c       	mov	r13, r1
    1070:	20 e2       	ldi	r18, 0x20	; 32
    1072:	30 e0       	ldi	r19, 0x00	; 0
    1074:	b9 01       	movw	r22, r18
    1076:	6c 19       	sub	r22, r12
    1078:	7d 09       	sbc	r23, r13
    107a:	fb d1       	rcall	.+1014   	; 0x1472 <__udivmodhi4>
    107c:	ec 01       	movw	r28, r24
    107e:	ac 01       	movw	r20, r24
    1080:	11 23       	and	r17, r17
    1082:	61 f0       	breq	.+24     	; 0x109c <SendLiteral+0x46>
    1084:	e9 e8       	ldi	r30, 0x89	; 137
    1086:	f9 e3       	ldi	r31, 0x39	; 57
    1088:	8f ef       	ldi	r24, 0xFF	; 255
    108a:	81 0f       	add	r24, r17
    108c:	90 e0       	ldi	r25, 0x00	; 0
    108e:	86 57       	subi	r24, 0x76	; 118
    1090:	96 4c       	sbci	r25, 0xC6	; 198
    1092:	3a e0       	ldi	r19, 0x0A	; 10
    1094:	31 93       	st	Z+, r19
    1096:	e8 17       	cp	r30, r24
    1098:	f9 07       	cpc	r31, r25
    109a:	e1 f7       	brne	.-8      	; 0x1094 <SendLiteral+0x3e>
    109c:	45 2b       	or	r20, r21
    109e:	39 f0       	breq	.+14     	; 0x10ae <SendLiteral+0x58>
    10a0:	96 01       	movw	r18, r12
    10a2:	27 57       	subi	r18, 0x77	; 119
    10a4:	36 4c       	sbci	r19, 0xC6	; 198
    10a6:	41 e0       	ldi	r20, 0x01	; 1
    10a8:	6c 2f       	mov	r22, r28
    10aa:	c7 01       	movw	r24, r14
    10ac:	ad de       	rcall	.-678    	; 0xe08 <ExtEERead>
    10ae:	c7 57       	subi	r28, 0x77	; 119
    10b0:	d6 4c       	sbci	r29, 0xC6	; 198
    10b2:	c1 0f       	add	r28, r17
    10b4:	d1 1d       	adc	r29, r1
    10b6:	18 82       	st	Y, r1
    10b8:	89 e8       	ldi	r24, 0x89	; 137
    10ba:	99 e3       	ldi	r25, 0x39	; 57
    10bc:	92 dc       	rcall	.-1756   	; 0x9e2 <SerSend>
    10be:	df 91       	pop	r29
    10c0:	cf 91       	pop	r28
    10c2:	1f 91       	pop	r17
    10c4:	ff 90       	pop	r15
    10c6:	ef 90       	pop	r14
    10c8:	df 90       	pop	r13
    10ca:	cf 90       	pop	r12
    10cc:	08 95       	ret

000010ce <CheckSend>:


//Send routine, optimized for low memory usage
uint8_t CheckSend(){
    10ce:	cf 93       	push	r28
    static uint8_t txPart;
    uint8_t EEreadLength=0;

    //Check if more string(part)s have to be sent to the serial output if previous send operation is completed
    if ((txAddrNow < TXLISTLEN) && serTxDone){
    10d0:	80 91 c0 38 	lds	r24, 0x38C0	; 0x8038c0 <txAddrNow>
    10d4:	88 30       	cpi	r24, 0x08	; 8
    10d6:	d8 f5       	brcc	.+118    	; 0x114e <CheckSend+0x80>
    10d8:	90 91 04 38 	lds	r25, 0x3804	; 0x803804 <serTxDone>
    10dc:	99 23       	and	r25, r25
    10de:	b9 f1       	breq	.+110    	; 0x114e <CheckSend+0x80>
        if (txPart < txStrLen[txAddrNow]){
    10e0:	28 2f       	mov	r18, r24
    10e2:	30 e0       	ldi	r19, 0x00	; 0
    10e4:	f9 01       	movw	r30, r18
    10e6:	ef 53       	subi	r30, 0x3F	; 63
    10e8:	f7 4c       	sbci	r31, 0xC7	; 199
    10ea:	e0 81       	ld	r30, Z
    10ec:	90 91 bd 38 	lds	r25, 0x38BD	; 0x8038bd <txPart.3869>
    10f0:	9e 17       	cp	r25, r30
    10f2:	30 f5       	brcc	.+76     	; 0x1140 <CheckSend+0x72>
            EEreadLength = txStrLen[txAddrNow]-txPart;
    10f4:	ce 2f       	mov	r28, r30
    10f6:	c9 1b       	sub	r28, r25
    10f8:	c1 32       	cpi	r28, 0x21	; 33
    10fa:	08 f0       	brcs	.+2      	; 0x10fe <CheckSend+0x30>
    10fc:	c0 e2       	ldi	r28, 0x20	; 32
            if (EEreadLength>=TXLEN) EEreadLength = TXLEN-1;
            ExtEERead(txAddrList[txAddrNow]+txPart, EEreadLength, txTypeNow, &txBuffer[0]);
    10fe:	22 0f       	add	r18, r18
    1100:	33 1f       	adc	r19, r19
    1102:	f9 01       	movw	r30, r18
    1104:	e7 53       	subi	r30, 0x37	; 55
    1106:	f7 4c       	sbci	r31, 0xC7	; 199
    1108:	01 90       	ld	r0, Z+
    110a:	f0 81       	ld	r31, Z
    110c:	e0 2d       	mov	r30, r0
    110e:	29 e8       	ldi	r18, 0x89	; 137
    1110:	39 e3       	ldi	r19, 0x39	; 57
    1112:	40 91 be 38 	lds	r20, 0x38BE	; 0x8038be <txTypeNow>
    1116:	6c 2f       	mov	r22, r28
    1118:	df 01       	movw	r26, r30
    111a:	a9 0f       	add	r26, r25
    111c:	b1 1d       	adc	r27, r1
    111e:	cd 01       	movw	r24, r26
    1120:	73 de       	rcall	.-794    	; 0xe08 <ExtEERead>
            txPart += EEreadLength;
    1122:	80 91 bd 38 	lds	r24, 0x38BD	; 0x8038bd <txPart.3869>
    1126:	8c 0f       	add	r24, r28
    1128:	80 93 bd 38 	sts	0x38BD, r24	; 0x8038bd <txPart.3869>
            txBuffer[EEreadLength] = 0; //Add string terminator after piece to send to plug memory leak
    112c:	ec 2f       	mov	r30, r28
    112e:	f0 e0       	ldi	r31, 0x00	; 0
    1130:	e7 57       	subi	r30, 0x77	; 119
    1132:	f6 4c       	sbci	r31, 0xC6	; 198
    1134:	10 82       	st	Z, r1
            SerSend(&txBuffer[0]);
    1136:	89 e8       	ldi	r24, 0x89	; 137
    1138:	99 e3       	ldi	r25, 0x39	; 57
    113a:	53 dc       	rcall	.-1882   	; 0x9e2 <SerSend>
        } else if (sendPrompt == CR_2){
            SendLiteral(0, 0, 2);
        }
        sendPrompt=0;
    } else if (serTxDone) return 0; //All is sent!
    return 1; //Still sending, do not change the data in the tx variables
    113c:	81 e0       	ldi	r24, 0x01	; 1
    113e:	32 c0       	rjmp	.+100    	; 0x11a4 <CheckSend+0xd6>
            ExtEERead(txAddrList[txAddrNow]+txPart, EEreadLength, txTypeNow, &txBuffer[0]);
            txPart += EEreadLength;
            txBuffer[EEreadLength] = 0; //Add string terminator after piece to send to plug memory leak
            SerSend(&txBuffer[0]);
        } else {
            txPart = 0;
    1140:	10 92 bd 38 	sts	0x38BD, r1	; 0x8038bd <txPart.3869>
            ++txAddrNow;
    1144:	8f 5f       	subi	r24, 0xFF	; 255
    1146:	80 93 c0 38 	sts	0x38C0, r24	; 0x8038c0 <txAddrNow>
        } else if (sendPrompt == CR_2){
            SendLiteral(0, 0, 2);
        }
        sendPrompt=0;
    } else if (serTxDone) return 0; //All is sent!
    return 1; //Still sending, do not change the data in the tx variables
    114a:	81 e0       	ldi	r24, 0x01	; 1
    114c:	2b c0       	rjmp	.+86     	; 0x11a4 <CheckSend+0xd6>
            txPart = 0;
            ++txAddrNow;
        }
    
    //Check if prompt needs to be sent afterward or something else
    } else if (serTxDone&&sendPrompt) {
    114e:	80 91 04 38 	lds	r24, 0x3804	; 0x803804 <serTxDone>
    1152:	88 23       	and	r24, r24
    1154:	11 f1       	breq	.+68     	; 0x119a <CheckSend+0xcc>
    1156:	80 91 bf 38 	lds	r24, 0x38BF	; 0x8038bf <sendPrompt>
    115a:	88 23       	and	r24, r24
    115c:	f1 f0       	breq	.+60     	; 0x119a <CheckSend+0xcc>
        if (sendPrompt == PROMPT){
    115e:	81 30       	cpi	r24, 0x01	; 1
    1160:	39 f4       	brne	.+14     	; 0x1170 <CheckSend+0xa2>
            SendLiteral(A_PROMPT, L_PROMPT, 2);
    1162:	42 e0       	ldi	r20, 0x02	; 2
    1164:	62 e0       	ldi	r22, 0x02	; 2
    1166:	70 e0       	ldi	r23, 0x00	; 0
    1168:	8d e4       	ldi	r24, 0x4D	; 77
    116a:	9c e7       	ldi	r25, 0x7C	; 124
    116c:	74 df       	rcall	.-280    	; 0x1056 <SendLiteral>
    116e:	11 c0       	rjmp	.+34     	; 0x1192 <CheckSend+0xc4>
        } else if (sendPrompt == SPACE){
    1170:	82 30       	cpi	r24, 0x02	; 2
    1172:	39 f4       	brne	.+14     	; 0x1182 <CheckSend+0xb4>
            SendLiteral(A_SPACE, L_SPACE, 0);
    1174:	40 e0       	ldi	r20, 0x00	; 0
    1176:	61 e0       	ldi	r22, 0x01	; 1
    1178:	70 e0       	ldi	r23, 0x00	; 0
    117a:	8f e4       	ldi	r24, 0x4F	; 79
    117c:	9c e7       	ldi	r25, 0x7C	; 124
    117e:	6b df       	rcall	.-298    	; 0x1056 <SendLiteral>
    1180:	08 c0       	rjmp	.+16     	; 0x1192 <CheckSend+0xc4>
        } else if (sendPrompt == CR_2){
    1182:	83 30       	cpi	r24, 0x03	; 3
    1184:	31 f4       	brne	.+12     	; 0x1192 <CheckSend+0xc4>
            SendLiteral(0, 0, 2);
    1186:	42 e0       	ldi	r20, 0x02	; 2
    1188:	60 e0       	ldi	r22, 0x00	; 0
    118a:	70 e0       	ldi	r23, 0x00	; 0
    118c:	80 e0       	ldi	r24, 0x00	; 0
    118e:	90 e0       	ldi	r25, 0x00	; 0
    1190:	62 df       	rcall	.-316    	; 0x1056 <SendLiteral>
        }
        sendPrompt=0;
    1192:	10 92 bf 38 	sts	0x38BF, r1	; 0x8038bf <sendPrompt>
    } else if (serTxDone) return 0; //All is sent!
    return 1; //Still sending, do not change the data in the tx variables
    1196:	81 e0       	ldi	r24, 0x01	; 1
        } else if (sendPrompt == SPACE){
            SendLiteral(A_SPACE, L_SPACE, 0);
        } else if (sendPrompt == CR_2){
            SendLiteral(0, 0, 2);
        }
        sendPrompt=0;
    1198:	05 c0       	rjmp	.+10     	; 0x11a4 <CheckSend+0xd6>
    } else if (serTxDone) return 0; //All is sent!
    119a:	90 91 04 38 	lds	r25, 0x3804	; 0x803804 <serTxDone>
    119e:	81 e0       	ldi	r24, 0x01	; 1
    11a0:	91 11       	cpse	r25, r1
    11a2:	80 e0       	ldi	r24, 0x00	; 0
    return 1; //Still sending, do not change the data in the tx variables
}
    11a4:	cf 91       	pop	r28
    11a6:	08 95       	ret

000011a8 <CheckInput>:

//User input check (and validation)
uint8_t CheckInput(uint8_t *data){
    11a8:	1f 93       	push	r17
    11aa:	cf 93       	push	r28
    11ac:	df 93       	push	r29
    11ae:	cd b7       	in	r28, 0x3d	; 61
    11b0:	de b7       	in	r29, 0x3e	; 62
    11b2:	2a 97       	sbiw	r28, 0x0a	; 10
    11b4:	cd bf       	out	0x3d, r28	; 61
    11b6:	de bf       	out	0x3e, r29	; 62
    if (serRxDone){
    11b8:	20 91 1a 38 	lds	r18, 0x381A	; 0x80381a <serRxDone>
    11bc:	22 23       	and	r18, r18
    11be:	09 f4       	brne	.+2      	; 0x11c2 <CheckInput+0x1a>
    11c0:	6e c0       	rjmp	.+220    	; 0x129e <CheckInput+0xf6>
        //Read up to the \0 character and convert to lower case.
        for (uint8_t x=0; serRx[x]!=0; ++x){
    11c2:	20 91 eb 38 	lds	r18, 0x38EB	; 0x8038eb <serRx>
    11c6:	22 23       	and	r18, r18
    11c8:	51 f1       	breq	.+84     	; 0x121e <CheckInput+0x76>
    11ca:	20 e0       	ldi	r18, 0x00	; 0
    11cc:	30 e0       	ldi	r19, 0x00	; 0
    11ce:	40 e0       	ldi	r20, 0x00	; 0
            if ((serRx[x]<'A')||(serRx[x]>'Z')) data[x]=serRx[x]; else data[x]=serRx[x]|0x20;
    11d0:	f9 01       	movw	r30, r18
    11d2:	e5 51       	subi	r30, 0x15	; 21
    11d4:	f7 4c       	sbci	r31, 0xC7	; 199
    11d6:	50 81       	ld	r21, Z
    11d8:	51 34       	cpi	r21, 0x41	; 65
    11da:	30 f0       	brcs	.+12     	; 0x11e8 <CheckInput+0x40>
    11dc:	f9 01       	movw	r30, r18
    11de:	e5 51       	subi	r30, 0x15	; 21
    11e0:	f7 4c       	sbci	r31, 0xC7	; 199
    11e2:	50 81       	ld	r21, Z
    11e4:	5b 35       	cpi	r21, 0x5B	; 91
    11e6:	48 f0       	brcs	.+18     	; 0x11fa <CheckInput+0x52>
    11e8:	f9 01       	movw	r30, r18
    11ea:	e5 51       	subi	r30, 0x15	; 21
    11ec:	f7 4c       	sbci	r31, 0xC7	; 199
    11ee:	20 81       	ld	r18, Z
    11f0:	fc 01       	movw	r30, r24
    11f2:	e4 0f       	add	r30, r20
    11f4:	f1 1d       	adc	r31, r1
    11f6:	20 83       	st	Z, r18
    11f8:	09 c0       	rjmp	.+18     	; 0x120c <CheckInput+0x64>
    11fa:	f9 01       	movw	r30, r18
    11fc:	e5 51       	subi	r30, 0x15	; 21
    11fe:	f7 4c       	sbci	r31, 0xC7	; 199
    1200:	20 81       	ld	r18, Z
    1202:	fc 01       	movw	r30, r24
    1204:	e4 0f       	add	r30, r20
    1206:	f1 1d       	adc	r31, r1
    1208:	20 62       	ori	r18, 0x20	; 32
    120a:	20 83       	st	Z, r18

//User input check (and validation)
uint8_t CheckInput(uint8_t *data){
    if (serRxDone){
        //Read up to the \0 character and convert to lower case.
        for (uint8_t x=0; serRx[x]!=0; ++x){
    120c:	4f 5f       	subi	r20, 0xFF	; 255
    120e:	24 2f       	mov	r18, r20
    1210:	30 e0       	ldi	r19, 0x00	; 0
    1212:	f9 01       	movw	r30, r18
    1214:	e5 51       	subi	r30, 0x15	; 21
    1216:	f7 4c       	sbci	r31, 0xC7	; 199
    1218:	50 81       	ld	r21, Z
    121a:	51 11       	cpse	r21, r1
    121c:	d9 cf       	rjmp	.-78     	; 0x11d0 <CheckInput+0x28>
            if ((serRx[x]<'A')||(serRx[x]>'Z')) data[x]=serRx[x]; else data[x]=serRx[x]|0x20;
        }

        //Help text
        if ((data[0] == '?')||(data[0] == 'h')){
    121e:	fc 01       	movw	r30, r24
    1220:	20 81       	ld	r18, Z
    1222:	2f 33       	cpi	r18, 0x3F	; 63
    1224:	11 f0       	breq	.+4      	; 0x122a <CheckInput+0x82>
    1226:	28 36       	cpi	r18, 0x68	; 104
    1228:	61 f4       	brne	.+24     	; 0x1242 <CheckInput+0x9a>
            //Put help pointers/lengths in tx list
            PrepareSending(A_HELP, L_HELP, TEASER, PROMPT);
    122a:	21 e0       	ldi	r18, 0x01	; 1
    122c:	41 e0       	ldi	r20, 0x01	; 1
    122e:	65 ea       	ldi	r22, 0xA5	; 165
    1230:	73 e0       	ldi	r23, 0x03	; 3
    1232:	8b e5       	ldi	r24, 0x5B	; 91
    1234:	9c e7       	ldi	r25, 0x7C	; 124
    1236:	37 de       	rcall	.-914    	; 0xea6 <PrepareSending>
            RXCNT = 0;
    1238:	1d ba       	out	0x1d, r1	; 29
            serRxDone = 0;
    123a:	10 92 1a 38 	sts	0x381A, r1	; 0x80381a <serRxDone>
            return 1;
    123e:	81 e0       	ldi	r24, 0x01	; 1
    1240:	2f c0       	rjmp	.+94     	; 0x12a0 <CheckInput+0xf8>
        }

        //Quit text
        if (data[0] == 'q'){
    1242:	21 37       	cpi	r18, 0x71	; 113
    1244:	61 f4       	brne	.+24     	; 0x125e <CheckInput+0xb6>
            //Put quit pointers/lengths in tx list
            PrepareSending(A_QUIT, L_QUIT, TEASER, PROMPT);
    1246:	21 e0       	ldi	r18, 0x01	; 1
    1248:	41 e0       	ldi	r20, 0x01	; 1
    124a:	64 e5       	ldi	r22, 0x54	; 84
    124c:	70 e0       	ldi	r23, 0x00	; 0
    124e:	89 ef       	ldi	r24, 0xF9	; 249
    1250:	9b e7       	ldi	r25, 0x7B	; 123
    1252:	29 de       	rcall	.-942    	; 0xea6 <PrepareSending>
            RXCNT = 0;
    1254:	1d ba       	out	0x1d, r1	; 29
            serRxDone = 0;
    1256:	10 92 1a 38 	sts	0x381A, r1	; 0x80381a <serRxDone>
            return 1;
    125a:	81 e0       	ldi	r24, 0x01	; 1
    125c:	21 c0       	rjmp	.+66     	; 0x12a0 <CheckInput+0xf8>
        }

        //Cheat = reset badge!
        if (StartsWith(&data[0], "iddqd")){
    125e:	6c eb       	ldi	r22, 0xBC	; 188
    1260:	74 e9       	ldi	r23, 0x94	; 148
    1262:	10 de       	rcall	.-992    	; 0xe84 <StartsWith>
    1264:	88 23       	and	r24, r24
    1266:	e1 f0       	breq	.+56     	; 0x12a0 <CheckInput+0xf8>
    1268:	1e e6       	ldi	r17, 0x6E	; 110
            
            //Reset game data by wiping the UUID bits
            for (uint8_t x=0; x<4; ++x){
                WriteStatusBit(110+x, 0);
    126a:	60 e0       	ldi	r22, 0x00	; 0
    126c:	81 2f       	mov	r24, r17
    126e:	09 dd       	rcall	.-1518   	; 0xc82 <WriteStatusBit>
    1270:	1f 5f       	subi	r17, 0xFF	; 255

        //Cheat = reset badge!
        if (StartsWith(&data[0], "iddqd")){
            
            //Reset game data by wiping the UUID bits
            for (uint8_t x=0; x<4; ++x){
    1272:	12 37       	cpi	r17, 0x72	; 114
    1274:	d1 f7       	brne	.-12     	; 0x126a <CheckInput+0xc2>
                WriteStatusBit(110+x, 0);
            }
            SaveGameState();
    1276:	b8 dc       	rcall	.-1680   	; 0xbe8 <SaveGameState>
    1278:	8a e0       	ldi	r24, 0x0A	; 10

            uint8_t cheat[] = "Cheater! ";
    127a:	e2 ec       	ldi	r30, 0xC2	; 194
    127c:	f4 e9       	ldi	r31, 0x94	; 148
    127e:	de 01       	movw	r26, r28
    1280:	11 96       	adiw	r26, 0x01	; 1
    1282:	01 90       	ld	r0, Z+
    1284:	0d 92       	st	X+, r0
    1286:	8a 95       	dec	r24
    1288:	e1 f7       	brne	.-8      	; 0x1282 <CheckInput+0xda>
            SerSpeed(60);
    128a:	8c e3       	ldi	r24, 0x3C	; 60
    128c:	bc db       	rcall	.-2184   	; 0xa06 <SerSpeed>
    128e:	80 91 04 38 	lds	r24, 0x3804	; 0x803804 <serTxDone>
            while(1){
                if (serTxDone) SerSend(&cheat[0]);
    1292:	88 23       	and	r24, r24
    1294:	e1 f3       	breq	.-8      	; 0x128e <CheckInput+0xe6>
    1296:	ce 01       	movw	r24, r28
    1298:	01 96       	adiw	r24, 0x01	; 1
    129a:	a3 db       	rcall	.-2234   	; 0x9e2 <SerSend>
    129c:	f8 cf       	rjmp	.-16     	; 0x128e <CheckInput+0xe6>
    129e:	81 e0       	ldi	r24, 0x01	; 1
        //Data received, but not any of the commands above
        return 0;
    }

    //Serial input not available yet
    return 1;
    12a0:	2a 96       	adiw	r28, 0x0a	; 10
}
    12a2:	cd bf       	out	0x3d, r28	; 61
    12a4:	de bf       	out	0x3e, r29	; 62
    12a6:	df 91       	pop	r29
    12a8:	cf 91       	pop	r28
    12aa:	1f 91       	pop	r17
    12ac:	08 95       	ret

000012ae <ProcessInput>:
    12ae:	0f 93       	push	r16

//The game logic!
void ProcessInput(uint8_t *data){
    12b0:	1f 93       	push	r17
    12b2:	cf 93       	push	r28
    12b4:	8c 01       	movw	r16, r24
    
    static uint16_t reactStr[3][8] = {{0},{0},{0}};
    static uint8_t actionList = 0;
    static uint8_t toSend = 0;

    PopulateObject(route[currDepth], &currObj);
    12b6:	65 e9       	ldi	r22, 0x95	; 149
    12b8:	78 e3       	ldi	r23, 0x38	; 56
    12ba:	80 e0       	ldi	r24, 0x00	; 0
    12bc:	90 e0       	ldi	r25, 0x00	; 0
    12be:	41 de       	rcall	.-894    	; 0xf42 <PopulateObject>
    
    //Responses to send after something has tried by the user
    if (actionList){
    12c0:	c0 91 94 38 	lds	r28, 0x3894	; 0x803894 <actionList.3893>
    12c4:	cc 23       	and	r28, r28
    12c6:	31 f1       	breq	.+76     	; 0x1314 <ProcessInput+0x66>
        PrepareSending(reactStr[0][toSend], reactStr[1][toSend], GAME, reactStr[2][toSend]);
    12c8:	10 91 93 38 	lds	r17, 0x3893	; 0x803893 <toSend.3894>
    12cc:	81 2f       	mov	r24, r17
    12ce:	90 e0       	ldi	r25, 0x00	; 0
    12d0:	dc 01       	movw	r26, r24
    12d2:	aa 0f       	add	r26, r26
    12d4:	bb 1f       	adc	r27, r27
    12d6:	ad 57       	subi	r26, 0x7D	; 125
    12d8:	b7 4c       	sbci	r27, 0xC7	; 199
    12da:	fc 01       	movw	r30, r24
    12dc:	ee 0f       	add	r30, r30
    12de:	ff 1f       	adc	r31, r31
    12e0:	ed 58       	subi	r30, 0x8D	; 141
    12e2:	f7 4c       	sbci	r31, 0xC7	; 199
    12e4:	60 81       	ld	r22, Z
    12e6:	71 81       	ldd	r23, Z+1	; 0x01
    12e8:	88 0f       	add	r24, r24
    12ea:	99 1f       	adc	r25, r25
    12ec:	fc 01       	movw	r30, r24
    12ee:	ed 59       	subi	r30, 0x9D	; 157
    12f0:	f7 4c       	sbci	r31, 0xC7	; 199
    12f2:	2c 91       	ld	r18, X
    12f4:	40 e0       	ldi	r20, 0x00	; 0
    12f6:	80 81       	ld	r24, Z
    12f8:	91 81       	ldd	r25, Z+1	; 0x01
    12fa:	d5 dd       	rcall	.-1110   	; 0xea6 <PrepareSending>
        ++toSend;
    12fc:	1f 5f       	subi	r17, 0xFF	; 255
    12fe:	10 93 93 38 	sts	0x3893, r17	; 0x803893 <toSend.3894>
        --actionList;
    1302:	c1 50       	subi	r28, 0x01	; 1
    1304:	c0 93 94 38 	sts	0x3894, r28	; 0x803894 <actionList.3893>
        if (actionList == 0) {
    1308:	c1 11       	cpse	r28, r1
    130a:	3b c0       	rjmp	.+118    	; 0x1382 <ProcessInput+0xd4>
            RXCNT = 0;
    130c:	1d ba       	out	0x1d, r1	; 29
            serRxDone = 0;
    130e:	10 92 1a 38 	sts	0x381A, r1	; 0x80381a <serRxDone>
    1312:	37 c0       	rjmp	.+110    	; 0x1382 <ProcessInput+0xd4>
        }

    //No responses yet and data available? Figure out what to say!
    } else if (data[0]){
    1314:	f8 01       	movw	r30, r16
    1316:	80 81       	ld	r24, Z
    1318:	88 23       	and	r24, r24
    131a:	99 f1       	breq	.+102    	; 0x1382 <ProcessInput+0xd4>
        toSend = 0;
    131c:	10 92 93 38 	sts	0x3893, r1	; 0x803893 <toSend.3894>

        if (data[0] == 'x'){
    1320:	88 37       	cpi	r24, 0x78	; 120
    1322:	f1 f4       	brne	.+60     	; 0x1360 <ProcessInput+0xb2>

            //Trash later
            reactStr[0][0]=currObj.addrStr[NAME];
    1324:	e3 e6       	ldi	r30, 0x63	; 99
    1326:	f8 e3       	ldi	r31, 0x38	; 56
    1328:	a5 e9       	ldi	r26, 0x95	; 149
    132a:	b8 e3       	ldi	r27, 0x38	; 56
    132c:	1c 96       	adiw	r26, 0x0c	; 12
    132e:	8d 91       	ld	r24, X+
    1330:	9c 91       	ld	r25, X
    1332:	1d 97       	sbiw	r26, 0x0d	; 13
    1334:	80 83       	st	Z, r24
    1336:	91 83       	std	Z+1, r25	; 0x01
            reactStr[1][0]=currObj.lenStr[NAME];
    1338:	5a 96       	adiw	r26, 0x1a	; 26
    133a:	8d 91       	ld	r24, X+
    133c:	9c 91       	ld	r25, X
    133e:	5b 97       	sbiw	r26, 0x1b	; 27
    1340:	80 8b       	std	Z+16, r24	; 0x10
    1342:	91 8b       	std	Z+17, r25	; 0x11
            reactStr[2][0]=PROMPT;
    1344:	81 e0       	ldi	r24, 0x01	; 1
    1346:	90 e0       	ldi	r25, 0x00	; 0
    1348:	80 a3       	std	Z+32, r24	; 0x20
    134a:	91 a3       	std	Z+33, r25	; 0x21
            actionList = 1;
    134c:	80 93 94 38 	sts	0x3894, r24	; 0x803894 <actionList.3893>

            //Standing outside?
            if (route[currDepth] == 0){
                PrepareSending(A_NOTPOSSIBLE, L_NOTPOSSIBLE, TEASER, PROMPT);
    1350:	21 e0       	ldi	r18, 0x01	; 1
    1352:	41 e0       	ldi	r20, 0x01	; 1
    1354:	6b e1       	ldi	r22, 0x1B	; 27
    1356:	70 e0       	ldi	r23, 0x00	; 0
    1358:	86 ea       	ldi	r24, 0xA6	; 166
    135a:	98 e7       	ldi	r25, 0x78	; 120
    135c:	a4 dd       	rcall	.-1208   	; 0xea6 <PrepareSending>
    135e:	11 c0       	rjmp	.+34     	; 0x1382 <ProcessInput+0xd4>
            current_effects = read_byte_field(eeprom,loc_offset,'effects')
        */


        } else
        if ((data[0] == 'e')||(data[0] == 'o')){
    1360:	91 e9       	ldi	r25, 0x91	; 145
    1362:	98 0f       	add	r25, r24
    1364:	92 30       	cpi	r25, 0x02	; 2
    1366:	68 f0       	brcs	.+26     	; 0x1382 <ProcessInput+0xd4>
            else:
            print(s(eeprom,'DONTSEE'))
        */
        
        } else
        if (data[0] == 'l'){
    1368:	8c 36       	cpi	r24, 0x6C	; 108
    136a:	59 f0       	breq	.+22     	; 0x1382 <ProcessInput+0xd4>
             inventory.append([obj_id,obj_name])
             else:
             invalid(eeprom)
        */
        } else
        if (data[0] == 'd'){
    136c:	98 2f       	mov	r25, r24
    136e:	9f 7e       	andi	r25, 0xEF	; 239
    1370:	94 56       	subi	r25, 0x64	; 100
    1372:	92 30       	cpi	r25, 0x02	; 2
    1374:	30 f0       	brcs	.+12     	; 0x1382 <ProcessInput+0xd4>
            break
            else:
            print(s(eeprom,'NOTCARRYING'))
        */
        } else
        if (data[0] == 'i'){
    1376:	89 36       	cpi	r24, 0x69	; 105
    1378:	21 f0       	breq	.+8      	; 0x1382 <ProcessInput+0xd4>
        /*
        
        */
        } else
        if ((data[0] == 't')||(data[0] == 'u')||(data[0] == 'g')){
    137a:	87 36       	cpi	r24, 0x67	; 103
    137c:	11 f0       	breq	.+4      	; 0x1382 <ProcessInput+0xd4>
            update_state(read_byte_field(eeprom,obj_offset,'action_state'))
            print("{}".format(read_string_field(eeprom,obj_offset,'action_msg')))          
        */
        } else {
            //No clue...
            data[0] = 0;
    137e:	f8 01       	movw	r30, r16
    1380:	10 82       	st	Z, r1
        }
    }
}
    1382:	cf 91       	pop	r28
    1384:	1f 91       	pop	r17
    1386:	0f 91       	pop	r16
    1388:	08 95       	ret

0000138a <TextAdventure>:


// Main game loop
uint8_t TextAdventure(){
    138a:	cf 93       	push	r28
    static uint8_t serInput[RXLEN];
    if (CheckSend()) return 1;                      //Still sending data to serial, return 1
    138c:	a0 de       	rcall	.-704    	; 0x10ce <CheckSend>
    138e:	81 11       	cpse	r24, r1
    1390:	0b c0       	rjmp	.+22     	; 0x13a8 <TextAdventure+0x1e>
    if (CheckInput(&serInput[0])) return 2;         //No valid input to process, return 2
    1392:	8b e1       	ldi	r24, 0x1B	; 27
    1394:	98 e3       	ldi	r25, 0x38	; 56
    1396:	08 df       	rcall	.-496    	; 0x11a8 <CheckInput>
    1398:	c8 2f       	mov	r28, r24
    139a:	81 11       	cpse	r24, r1
    139c:	07 c0       	rjmp	.+14     	; 0x13ac <TextAdventure+0x22>
    ProcessInput(&serInput[0]);                     //Check which response to generate and fill tx arrays
    139e:	8b e1       	ldi	r24, 0x1B	; 27
    13a0:	98 e3       	ldi	r25, 0x38	; 56
    SaveGameState();                                //Check if things are changed, write to EEPROM
    13a2:	85 df       	rcall	.-246    	; 0x12ae <ProcessInput>
    13a4:	21 dc       	rcall	.-1982   	; 0xbe8 <SaveGameState>
    return 0;
    13a6:	03 c0       	rjmp	.+6      	; 0x13ae <TextAdventure+0x24>


// Main game loop
uint8_t TextAdventure(){
    static uint8_t serInput[RXLEN];
    if (CheckSend()) return 1;                      //Still sending data to serial, return 1
    13a8:	c1 e0       	ldi	r28, 0x01	; 1
    13aa:	01 c0       	rjmp	.+2      	; 0x13ae <TextAdventure+0x24>
    if (CheckInput(&serInput[0])) return 2;         //No valid input to process, return 2
    13ac:	c2 e0       	ldi	r28, 0x02	; 2
    ProcessInput(&serInput[0]);                     //Check which response to generate and fill tx arrays
    SaveGameState();                                //Check if things are changed, write to EEPROM
    return 0;
    13ae:	8c 2f       	mov	r24, r28
    13b0:	cf 91       	pop	r28
    13b2:	08 95       	ret

000013b4 <main>:



//This is where it begins, inits first and main program in while(1) loop.
int main(void)
{
    13b4:	cf 93       	push	r28
    13b6:	df 93       	push	r29
    13b8:	cd b7       	in	r28, 0x3d	; 61
    13ba:	de b7       	in	r29, 0x3e	; 62
    13bc:	a4 97       	sbiw	r28, 0x24	; 36
    13be:	cd bf       	out	0x3d, r28	; 61
    13c0:	de bf       	out	0x3e, r29	; 62
    Setup();
    13c2:	0e 94 aa 01 	call	0x354	; 0x354 <Setup>
    EERead(0, &gameState[0], 16);   //Load game status bits from EEPROM
    13c6:	40 e1       	ldi	r20, 0x10	; 16
    13c8:	6b ed       	ldi	r22, 0xDB	; 219
    13ca:	78 e3       	ldi	r23, 0x38	; 56
    13cc:	80 e0       	ldi	r24, 0x00	; 0
    13ce:	ad da       	rcall	.-2726   	; 0x92a <EERead>
    13d0:	1e e6       	ldi	r17, 0x6E	; 110

    uint8_t idSet = 0;
    13d2:	00 e0       	ldi	r16, 0x00	; 0
    for (uint8_t x=0; x<4; ++x){
        idSet += ReadStatusBit(110+x);
    13d4:	81 2f       	mov	r24, r17
    13d6:	41 dc       	rcall	.-1918   	; 0xc5a <ReadStatusBit>
    13d8:	08 0f       	add	r16, r24
    13da:	1f 5f       	subi	r17, 0xFF	; 255
{
    Setup();
    EERead(0, &gameState[0], 16);   //Load game status bits from EEPROM

    uint8_t idSet = 0;
    for (uint8_t x=0; x<4; ++x){
    13dc:	12 37       	cpi	r17, 0x72	; 114
    13de:	d1 f7       	brne	.-12     	; 0x13d4 <main+0x20>
        idSet += ReadStatusBit(110+x);
    }

    //idSet can be used to detect cheating. After cheating idSet will be 0, with a virgin badge idSet will be 3.
    if (idSet != 1) {
    13e0:	01 30       	cpi	r16, 0x01	; 1
        Reset();
    13e2:	09 f0       	breq	.+2      	; 0x13e6 <main+0x32>
    }

    SerSpeed(1);
    13e4:	7b dc       	rcall	.-1802   	; 0xcdc <Reset>
    13e6:	81 e0       	ldi	r24, 0x01	; 1
    13e8:	0e db       	rcall	.-2532   	; 0xa06 <SerSpeed>
    unsigned char strTest[]="\aHckerHotel2020 badge pest!\b\b\b\b\bt\n";
    13ea:	84 e2       	ldi	r24, 0x24	; 36
    13ec:	ec ed       	ldi	r30, 0xDC	; 220
    13ee:	f4 e9       	ldi	r31, 0x94	; 148
    13f0:	de 01       	movw	r26, r28
    13f2:	11 96       	adiw	r26, 0x01	; 1
    13f4:	01 90       	ld	r0, Z+
    13f6:	0d 92       	st	X+, r0
    13f8:	8a 95       	dec	r24
    SerSend(&strTest[0]);
    13fa:	e1 f7       	brne	.-8      	; 0x13f4 <main+0x40>
    13fc:	ce 01       	movw	r24, r28
    13fe:	01 96       	adiw	r24, 0x01	; 1

    //uint8_t bla = 0;
    SerSpeed(255);
    1400:	f0 da       	rcall	.-2592   	; 0x9e2 <SerSend>
    1402:	8f ef       	ldi	r24, 0xFF	; 255
    1404:	00 db       	rcall	.-2560   	; 0xa06 <SerSpeed>

    //Turn on LEDs on low setting to check for interrupt glitches
    for (uint8_t n=0; n<40; n++){
    1406:	80 e0       	ldi	r24, 0x00	; 0
        if ((n%8)>5) n+=2;
        if (n<40) iLED[n] = 2;
    1408:	22 e0       	ldi	r18, 0x02	; 2
    140a:	07 c0       	rjmp	.+14     	; 0x141a <main+0x66>
    //uint8_t bla = 0;
    SerSpeed(255);

    //Turn on LEDs on low setting to check for interrupt glitches
    for (uint8_t n=0; n<40; n++){
        if ((n%8)>5) n+=2;
    140c:	39 2f       	mov	r19, r25
    140e:	37 70       	andi	r19, 0x07	; 7
    1410:	36 30       	cpi	r19, 0x06	; 6
    1412:	10 f0       	brcs	.+4      	; 0x1418 <main+0x64>
    1414:	93 e0       	ldi	r25, 0x03	; 3
    1416:	98 0f       	add	r25, r24
int main(void)
{
    Setup();
    EERead(0, &gameState[0], 16);   //Load game status bits from EEPROM

    uint8_t idSet = 0;
    1418:	89 2f       	mov	r24, r25
    SerSpeed(255);

    //Turn on LEDs on low setting to check for interrupt glitches
    for (uint8_t n=0; n<40; n++){
        if ((n%8)>5) n+=2;
        if (n<40) iLED[n] = 2;
    141a:	88 32       	cpi	r24, 0x28	; 40
    141c:	28 f4       	brcc	.+10     	; 0x1428 <main+0x74>
    141e:	e8 2f       	mov	r30, r24
    1420:	f0 e0       	ldi	r31, 0x00	; 0
    1422:	e3 5a       	subi	r30, 0xA3	; 163
    1424:	f6 4c       	sbci	r31, 0xC6	; 198

    //uint8_t bla = 0;
    SerSpeed(255);

    //Turn on LEDs on low setting to check for interrupt glitches
    for (uint8_t n=0; n<40; n++){
    1426:	20 83       	st	Z, r18
    1428:	91 e0       	ldi	r25, 0x01	; 1
    142a:	98 0f       	add	r25, r24
    142c:	98 32       	cpi	r25, 0x28	; 40



    while (1)
    {
        GenerateAudio();
    142e:	70 f3       	brcs	.-36     	; 0x140c <main+0x58>

        if (buttonMark){
    1430:	86 dc       	rcall	.-1780   	; 0xd3e <GenerateAudio>
    1432:	80 91 18 38 	lds	r24, 0x3818	; 0x803818 <buttonMark>
    1436:	88 23       	and	r24, r24
            buttonState = CheckButtons(buttonState);
    1438:	d9 f3       	breq	.-10     	; 0x1430 <main+0x7c>
    143a:	80 91 d9 38 	lds	r24, 0x38D9	; 0x8038d9 <buttonState>
    143e:	f4 da       	rcall	.-2584   	; 0xa28 <CheckButtons>
    1440:	80 93 d9 38 	sts	0x38D9, r24	; 0x8038d9 <buttonState>
            buttonMark = 0;
    1444:	10 92 18 38 	sts	0x3818, r1	; 0x803818 <buttonMark>
            //MasterMind-ishThing(); //Not sure if to be implemented
            //LanyardCode();
            //MakeFriends();
             
            //Check light sensor status (added hysteresis to preserve writing cycles to internal EEPROM)
            if (adcPhot < 10) WriteStatusBit(116, 1);
    1448:	a0 df       	rcall	.-192    	; 0x138a <TextAdventure>
    144a:	80 91 3a 39 	lds	r24, 0x393A	; 0x80393a <adcPhot>
    144e:	90 91 3b 39 	lds	r25, 0x393B	; 0x80393b <adcPhot+0x1>
    1452:	0a 97       	sbiw	r24, 0x0a	; 10
    1454:	18 f4       	brcc	.+6      	; 0x145c <main+0xa8>
    1456:	61 e0       	ldi	r22, 0x01	; 1
    1458:	84 e7       	ldi	r24, 0x74	; 116
            if (adcPhot > 100) WriteStatusBit(116, 0);
    145a:	13 dc       	rcall	.-2010   	; 0xc82 <WriteStatusBit>
    145c:	80 91 3a 39 	lds	r24, 0x393A	; 0x80393a <adcPhot>
    1460:	90 91 3b 39 	lds	r25, 0x393B	; 0x80393b <adcPhot+0x1>
    1464:	85 36       	cpi	r24, 0x65	; 101
    1466:	91 05       	cpc	r25, r1
    1468:	18 f3       	brcs	.-58     	; 0x1430 <main+0x7c>
    146a:	60 e0       	ldi	r22, 0x00	; 0
    146c:	84 e7       	ldi	r24, 0x74	; 116
    146e:	09 dc       	rcall	.-2030   	; 0xc82 <WriteStatusBit>
    1470:	df cf       	rjmp	.-66     	; 0x1430 <main+0x7c>

00001472 <__udivmodhi4>:
    1472:	aa 1b       	sub	r26, r26
    1474:	bb 1b       	sub	r27, r27
    1476:	51 e1       	ldi	r21, 0x11	; 17
    1478:	07 c0       	rjmp	.+14     	; 0x1488 <__udivmodhi4_ep>

0000147a <__udivmodhi4_loop>:
    147a:	aa 1f       	adc	r26, r26
    147c:	bb 1f       	adc	r27, r27
    147e:	a6 17       	cp	r26, r22
    1480:	b7 07       	cpc	r27, r23
    1482:	10 f0       	brcs	.+4      	; 0x1488 <__udivmodhi4_ep>
    1484:	a6 1b       	sub	r26, r22
    1486:	b7 0b       	sbc	r27, r23

00001488 <__udivmodhi4_ep>:
    1488:	88 1f       	adc	r24, r24
    148a:	99 1f       	adc	r25, r25
    148c:	5a 95       	dec	r21
    148e:	a9 f7       	brne	.-22     	; 0x147a <__udivmodhi4_loop>
    1490:	80 95       	com	r24
    1492:	90 95       	com	r25
    1494:	bc 01       	movw	r22, r24
    1496:	cd 01       	movw	r24, r26
    1498:	08 95       	ret

0000149a <__umulhisi3>:
    149a:	a2 9f       	mul	r26, r18
    149c:	b0 01       	movw	r22, r0
    149e:	b3 9f       	mul	r27, r19
    14a0:	c0 01       	movw	r24, r0
    14a2:	a3 9f       	mul	r26, r19
    14a4:	70 0d       	add	r23, r0
    14a6:	81 1d       	adc	r24, r1
    14a8:	11 24       	eor	r1, r1
    14aa:	91 1d       	adc	r25, r1
    14ac:	b2 9f       	mul	r27, r18
    14ae:	70 0d       	add	r23, r0
    14b0:	81 1d       	adc	r24, r1
    14b2:	11 24       	eor	r1, r1
    14b4:	91 1d       	adc	r25, r1
    14b6:	08 95       	ret

000014b8 <_exit>:
    14b8:	f8 94       	cli

000014ba <__stop_program>:
    14ba:	ff cf       	rjmp	.-2      	; 0x14ba <__stop_program>
