
ISR_IO.elf:     file format elf32-avr

Sections:
Idx Name          Size      VMA       LMA       File off  Algn
  0 .data         0000002a  00803800  00003d44  00003df8  2**0
                  CONTENTS, ALLOC, LOAD, DATA
  1 .text         00003c62  00000000  00000000  000000b4  2**1
                  CONTENTS, ALLOC, LOAD, READONLY, CODE
  2 .rodata       000000e2  0000bc62  00003c62  00003d16  2**0
                  CONTENTS, ALLOC, LOAD, READONLY, DATA
  3 .bss          000002ea  0080382a  0080382a  00003e22  2**0
                  ALLOC
  4 .comment      00000030  00000000  00000000  00003e22  2**0
                  CONTENTS, READONLY
  5 .note.gnu.avr.deviceinfo 00000040  00000000  00000000  00003e54  2**2
                  CONTENTS, READONLY
  6 .debug_aranges 00000320  00000000  00000000  00003e94  2**0
                  CONTENTS, READONLY, DEBUGGING
  7 .debug_info   00006b82  00000000  00000000  000041b4  2**0
                  CONTENTS, READONLY, DEBUGGING
  8 .debug_abbrev 000028c8  00000000  00000000  0000ad36  2**0
                  CONTENTS, READONLY, DEBUGGING
  9 .debug_line   00003a70  00000000  00000000  0000d5fe  2**0
                  CONTENTS, READONLY, DEBUGGING
 10 .debug_frame  00000978  00000000  00000000  00011070  2**2
                  CONTENTS, READONLY, DEBUGGING
 11 .debug_str    00001a2f  00000000  00000000  000119e8  2**0
                  CONTENTS, READONLY, DEBUGGING
 12 .debug_loc    000044f0  00000000  00000000  00013417  2**0
                  CONTENTS, READONLY, DEBUGGING
 13 .debug_ranges 00000390  00000000  00000000  00017907  2**0
                  CONTENTS, READONLY, DEBUGGING

Disassembly of section .text:

00000000 <__vectors>:
       0:	3d c0       	rjmp	.+122    	; 0x7c <__ctors_end>
       2:	00 00       	nop
       4:	58 c0       	rjmp	.+176    	; 0xb6 <__bad_interrupt>
       6:	00 00       	nop
       8:	56 c0       	rjmp	.+172    	; 0xb6 <__bad_interrupt>
       a:	00 00       	nop
       c:	54 c0       	rjmp	.+168    	; 0xb6 <__bad_interrupt>
       e:	00 00       	nop
      10:	52 c0       	rjmp	.+164    	; 0xb6 <__bad_interrupt>
      12:	00 00       	nop
      14:	50 c0       	rjmp	.+160    	; 0xb6 <__bad_interrupt>
      16:	00 00       	nop
      18:	0c 94 62 08 	jmp	0x10c4	; 0x10c4 <__vector_6>
      1c:	0c 94 ac 08 	jmp	0x1158	; 0x1158 <__vector_7>
      20:	84 c6       	rjmp	.+3336   	; 0xd2a <__vector_8>
      22:	00 00       	nop
      24:	48 c0       	rjmp	.+144    	; 0xb6 <__bad_interrupt>
      26:	00 00       	nop
      28:	46 c0       	rjmp	.+140    	; 0xb6 <__bad_interrupt>
      2a:	00 00       	nop
      2c:	44 c0       	rjmp	.+136    	; 0xb6 <__bad_interrupt>
      2e:	00 00       	nop
      30:	42 c0       	rjmp	.+132    	; 0xb6 <__bad_interrupt>
      32:	00 00       	nop
      34:	cb c6       	rjmp	.+3478   	; 0xdcc <__vector_13>
      36:	00 00       	nop
      38:	fc c6       	rjmp	.+3576   	; 0xe32 <__vector_14>
      3a:	00 00       	nop
      3c:	3c c0       	rjmp	.+120    	; 0xb6 <__bad_interrupt>
      3e:	00 00       	nop
      40:	3a c0       	rjmp	.+116    	; 0xb6 <__bad_interrupt>
      42:	00 00       	nop
      44:	38 c0       	rjmp	.+112    	; 0xb6 <__bad_interrupt>
      46:	00 00       	nop
      48:	36 c0       	rjmp	.+108    	; 0xb6 <__bad_interrupt>
      4a:	00 00       	nop
      4c:	34 c0       	rjmp	.+104    	; 0xb6 <__bad_interrupt>
      4e:	00 00       	nop
      50:	ba c7       	rjmp	.+3956   	; 0xfc6 <__vector_20>
      52:	00 00       	nop
      54:	30 c0       	rjmp	.+96     	; 0xb6 <__bad_interrupt>
      56:	00 00       	nop
      58:	ed c7       	rjmp	.+4058   	; 0x1034 <__vector_22>
      5a:	00 00       	nop
      5c:	2c c0       	rjmp	.+88     	; 0xb6 <__bad_interrupt>
      5e:	00 00       	nop
      60:	2a c0       	rjmp	.+84     	; 0xb6 <__bad_interrupt>
      62:	00 00       	nop
      64:	28 c0       	rjmp	.+80     	; 0xb6 <__bad_interrupt>
      66:	00 00       	nop
      68:	26 c0       	rjmp	.+76     	; 0xb6 <__bad_interrupt>
      6a:	00 00       	nop
      6c:	35 c7       	rjmp	.+3690   	; 0xed8 <__vector_27>
      6e:	00 00       	nop
      70:	8e c7       	rjmp	.+3868   	; 0xf8e <__vector_28>
      72:	00 00       	nop
      74:	20 c0       	rjmp	.+64     	; 0xb6 <__bad_interrupt>
      76:	00 00       	nop
      78:	1e c0       	rjmp	.+60     	; 0xb6 <__bad_interrupt>
	...

0000007c <__ctors_end>:
      7c:	11 24       	eor	r1, r1
      7e:	1f be       	out	0x3f, r1	; 63
      80:	cf ef       	ldi	r28, 0xFF	; 255
      82:	cd bf       	out	0x3d, r28	; 61
      84:	df e3       	ldi	r29, 0x3F	; 63
      86:	de bf       	out	0x3e, r29	; 62

00000088 <__do_copy_data>:
      88:	18 e3       	ldi	r17, 0x38	; 56
      8a:	a0 e0       	ldi	r26, 0x00	; 0
      8c:	b8 e3       	ldi	r27, 0x38	; 56
      8e:	e4 e4       	ldi	r30, 0x44	; 68
      90:	fd e3       	ldi	r31, 0x3D	; 61
      92:	02 c0       	rjmp	.+4      	; 0x98 <__do_copy_data+0x10>
      94:	05 90       	lpm	r0, Z+
      96:	0d 92       	st	X+, r0
      98:	aa 32       	cpi	r26, 0x2A	; 42
      9a:	b1 07       	cpc	r27, r17
      9c:	d9 f7       	brne	.-10     	; 0x94 <__do_copy_data+0xc>

0000009e <__do_clear_bss>:
      9e:	2b e3       	ldi	r18, 0x3B	; 59
      a0:	aa e2       	ldi	r26, 0x2A	; 42
      a2:	b8 e3       	ldi	r27, 0x38	; 56
      a4:	01 c0       	rjmp	.+2      	; 0xa8 <.do_clear_bss_start>

000000a6 <.do_clear_bss_loop>:
      a6:	1d 92       	st	X+, r1

000000a8 <.do_clear_bss_start>:
      a8:	a4 31       	cpi	r26, 0x14	; 20
      aa:	b2 07       	cpc	r27, r18
      ac:	e1 f7       	brne	.-8      	; 0xa6 <.do_clear_bss_loop>
      ae:	0e 94 42 1d 	call	0x3a84	; 0x3a84 <main>
      b2:	0c 94 2f 1e 	jmp	0x3c5e	; 0x3c5e <_exit>

000000b6 <__bad_interrupt>:
      b6:	a4 cf       	rjmp	.-184    	; 0x0 <__vectors>

000000b8 <chkVolt250>:
#include <main_def.h>
#include <resources.h>
#include <I2C.h>

//Returns measured voltage * 4 (2V returns 8) if it is in the expected range (DELTA)
uint8_t chkVolt250(){
      b8:	85 e1       	ldi	r24, 0x15	; 21
      ba:	90 e0       	ldi	r25, 0x00	; 0
      bc:	44 e0       	ldi	r20, 0x04	; 4
      be:	48 0f       	add	r20, r24
    static uint8_t avgVolt = 0;
        
    for (uint8_t x=25; x<250; x+=25) {
        if ((auIn[0] > (x-DELTA)) && (auIn[0] < (x+DELTA))) {
      c0:	20 91 bc 3a 	lds	r18, 0x3ABC	; 0x803abc <auIn>
      c4:	30 e0       	ldi	r19, 0x00	; 0
      c6:	28 17       	cp	r18, r24
      c8:	39 07       	cpc	r19, r25
      ca:	64 f0       	brlt	.+24     	; 0xe4 <chkVolt250+0x2c>
      cc:	20 91 bc 3a 	lds	r18, 0x3ABC	; 0x803abc <auIn>
      d0:	30 e0       	ldi	r19, 0x00	; 0
      d2:	bc 01       	movw	r22, r24
      d4:	68 5f       	subi	r22, 0xF8	; 248
      d6:	7f 4f       	sbci	r23, 0xFF	; 255
      d8:	62 17       	cp	r22, r18
      da:	73 07       	cpc	r23, r19
      dc:	1c f0       	brlt	.+6      	; 0xe4 <chkVolt250+0x2c>
            avgVolt = x;
      de:	40 93 2e 38 	sts	0x382E, r20	; 0x80382e <avgVolt.3768>
            break;
      e2:	04 c0       	rjmp	.+8      	; 0xec <chkVolt250+0x34>
      e4:	49 96       	adiw	r24, 0x19	; 25

//Returns measured voltage * 4 (2V returns 8) if it is in the expected range (DELTA)
uint8_t chkVolt250(){
    static uint8_t avgVolt = 0;
        
    for (uint8_t x=25; x<250; x+=25) {
      e6:	86 3f       	cpi	r24, 0xF6	; 246
      e8:	91 05       	cpc	r25, r1
      ea:	41 f7       	brne	.-48     	; 0xbc <chkVolt250+0x4>
        if ((auIn[0] > (x-DELTA)) && (auIn[0] < (x+DELTA))) {
            avgVolt = x;
            break;
        }
    }
    return avgVolt/25;
      ec:	80 91 2e 38 	lds	r24, 0x382E	; 0x80382e <avgVolt.3768>
      f0:	69 e1       	ldi	r22, 0x19	; 25
      f2:	0c 94 da 1d 	jmp	0x3bb4	; 0x3bb4 <__udivmodqi4>
}
      f6:	08 95       	ret

000000f8 <MakeFriends>:

// Main game loop
uint8_t MakeFriends(){
      f8:	ef 92       	push	r14
      fa:	ff 92       	push	r15
      fc:	0f 93       	push	r16
      fe:	1f 93       	push	r17
     100:	cf 93       	push	r28
     102:	df 93       	push	r29
     104:	c4 e6       	ldi	r28, 0x64	; 100
    static uint8_t chkTmr = 0;
    static uint8_t jackIn = 0;
    static uint8_t candidate = 0;

    //Check if badge has found 3 friends
    uint8_t foundAll = 1;
     106:	d1 e0       	ldi	r29, 0x01	; 1
    for (uint8_t x=0; x<4; x++){
        if (CheckState(100+x) == 0) foundAll = 0;
     108:	8c 2f       	mov	r24, r28
     10a:	0e 94 bf 0a 	call	0x157e	; 0x157e <CheckState>
     10e:	81 11       	cpse	r24, r1
     110:	01 c0       	rjmp	.+2      	; 0x114 <MakeFriends+0x1c>
     112:	d0 e0       	ldi	r29, 0x00	; 0
     114:	cf 5f       	subi	r28, 0xFF	; 255
    static uint8_t jackIn = 0;
    static uint8_t candidate = 0;

    //Check if badge has found 3 friends
    uint8_t foundAll = 1;
    for (uint8_t x=0; x<4; x++){
     116:	c8 36       	cpi	r28, 0x68	; 104
     118:	b9 f7       	brne	.-18     	; 0x108 <MakeFriends+0x10>
        if (CheckState(100+x) == 0) foundAll = 0;
    }
    if (foundAll) UpdateState(124);
     11a:	dd 23       	and	r29, r29
     11c:	19 f0       	breq	.+6      	; 0x124 <MakeFriends+0x2c>
     11e:	8c e7       	ldi	r24, 0x7C	; 124
     120:	0e 94 b5 0a 	call	0x156a	; 0x156a <UpdateState>


    //Checking for headphones
    if (detHdPh) return 0;
     124:	80 91 b9 3a 	lds	r24, 0x3AB9	; 0x803ab9 <detHdPh>
     128:	81 11       	cpse	r24, r1
     12a:	1e c1       	rjmp	.+572    	; 0x368 <MakeFriends+0x270>

    //Audio off, set voltage level (setDAC[0]*10mV)
    if (progress == NO_OTHER) {
     12c:	80 91 2d 38 	lds	r24, 0x382D	; 0x80382d <progress.3775>
     130:	81 11       	cpse	r24, r1
     132:	11 c0       	rjmp	.+34     	; 0x156 <MakeFriends+0x5e>
        setDAC[0] = whoami * 50;
     134:	90 91 39 38 	lds	r25, 0x3839	; 0x803839 <whoami>
     138:	22 e3       	ldi	r18, 0x32	; 50
     13a:	92 9f       	mul	r25, r18
     13c:	90 2d       	mov	r25, r0
     13e:	11 24       	eor	r1, r1
     140:	90 93 00 38 	sts	0x3800, r25	; 0x803800 <__data_start>
        auRepAddr = &setDAC[0];
     144:	20 e0       	ldi	r18, 0x00	; 0
     146:	38 e3       	ldi	r19, 0x38	; 56
     148:	20 93 05 38 	sts	0x3805, r18	; 0x803805 <auRepAddr>
     14c:	30 93 06 38 	sts	0x3806, r19	; 0x803806 <auRepAddr+0x1>
        auVolume = 255;
     150:	9f ef       	ldi	r25, 0xFF	; 255
     152:	90 93 b0 3a 	sts	0x3AB0, r25	; 0x803ab0 <auVolume>
    }

    //Check for other badges
    if ((auIn[0] < (setDAC[0] - DELTA)) || (auIn[0] > (setDAC[0] + DELTA)) ||((progress > FIRST_CONTACT))) {
     156:	40 91 bc 3a 	lds	r20, 0x3ABC	; 0x803abc <auIn>
     15a:	20 91 00 38 	lds	r18, 0x3800	; 0x803800 <__data_start>
     15e:	30 e0       	ldi	r19, 0x00	; 0
     160:	50 e0       	ldi	r21, 0x00	; 0
     162:	b9 01       	movw	r22, r18
     164:	65 50       	subi	r22, 0x05	; 5
     166:	71 09       	sbc	r23, r1
     168:	46 17       	cp	r20, r22
     16a:	57 07       	cpc	r21, r23
     16c:	64 f0       	brlt	.+24     	; 0x186 <MakeFriends+0x8e>
     16e:	40 91 bc 3a 	lds	r20, 0x3ABC	; 0x803abc <auIn>
     172:	50 e0       	ldi	r21, 0x00	; 0
     174:	2b 5f       	subi	r18, 0xFB	; 251
     176:	3f 4f       	sbci	r19, 0xFF	; 255
     178:	24 17       	cp	r18, r20
     17a:	35 07       	cpc	r19, r21
     17c:	24 f0       	brlt	.+8      	; 0x186 <MakeFriends+0x8e>
     17e:	82 30       	cpi	r24, 0x02	; 2
     180:	08 f0       	brcs	.+2      	; 0x184 <MakeFriends+0x8c>
     182:	40 c0       	rjmp	.+128    	; 0x204 <MakeFriends+0x10c>
     184:	ef c0       	rjmp	.+478    	; 0x364 <MakeFriends+0x26c>
        if (progress == NO_OTHER) {
     186:	81 11       	cpse	r24, r1
     188:	0a c0       	rjmp	.+20     	; 0x19e <MakeFriends+0xa6>
            ++chkTmr;
     18a:	80 91 2c 38 	lds	r24, 0x382C	; 0x80382c <chkTmr.3777>
     18e:	8f 5f       	subi	r24, 0xFF	; 255
     190:	80 93 2c 38 	sts	0x382C, r24	; 0x80382c <chkTmr.3777>
            if (chkTmr >= 8) {
     194:	88 30       	cpi	r24, 0x08	; 8
     196:	08 f4       	brcc	.+2      	; 0x19a <MakeFriends+0xa2>
     198:	e7 c0       	rjmp	.+462    	; 0x368 <MakeFriends+0x270>
                progress = FIRST_CONTACT;
     19a:	81 e0       	ldi	r24, 0x01	; 1
     19c:	81 c0       	rjmp	.+258    	; 0x2a0 <MakeFriends+0x1a8>
                chkTmr = 0;
            }
        }

        //Candidate found, check ranges
        else if (progress == FIRST_CONTACT) {
     19e:	81 30       	cpi	r24, 0x01	; 1
     1a0:	89 f5       	brne	.+98     	; 0x204 <MakeFriends+0x10c>
            jackIn = chkVolt250();
     1a2:	8a df       	rcall	.-236    	; 0xb8 <chkVolt250>
     1a4:	80 93 2b 38 	sts	0x382B, r24	; 0x80382b <jackIn.3778>
            if (jackIn) {
     1a8:	88 23       	and	r24, r24
     1aa:	49 f1       	breq	.+82     	; 0x1fe <MakeFriends+0x106>
                ++chkTmr;
     1ac:	90 91 2c 38 	lds	r25, 0x382C	; 0x80382c <chkTmr.3777>
     1b0:	9f 5f       	subi	r25, 0xFF	; 255
     1b2:	90 93 2c 38 	sts	0x382C, r25	; 0x80382c <chkTmr.3777>
                if (chkTmr >= SHORT_WAIT){
     1b6:	98 30       	cpi	r25, 0x08	; 8
     1b8:	08 f4       	brcc	.+2      	; 0x1bc <MakeFriends+0xc4>
     1ba:	d6 c0       	rjmp	.+428    	; 0x368 <MakeFriends+0x270>
                    if ((whoami == 1)&&((jackIn == 3)||(jackIn == 4)||(jackIn == 5))) {
     1bc:	90 91 39 38 	lds	r25, 0x3839	; 0x803839 <whoami>
     1c0:	91 30       	cpi	r25, 0x01	; 1
     1c2:	29 f4       	brne	.+10     	; 0x1ce <MakeFriends+0xd6>
     1c4:	83 50       	subi	r24, 0x03	; 3
     1c6:	83 30       	cpi	r24, 0x03	; 3
     1c8:	b8 f4       	brcc	.+46     	; 0x1f8 <MakeFriends+0x100>
                        progress = SECOND_LOVE; 
     1ca:	82 e0       	ldi	r24, 0x02	; 2
     1cc:	69 c0       	rjmp	.+210    	; 0x2a0 <MakeFriends+0x1a8>
                    } else if ((whoami == 2)&&((jackIn == 3)||(jackIn == 5)||(jackIn == 6))) {
     1ce:	92 30       	cpi	r25, 0x02	; 2
     1d0:	31 f4       	brne	.+12     	; 0x1de <MakeFriends+0xe6>
     1d2:	83 30       	cpi	r24, 0x03	; 3
     1d4:	d1 f3       	breq	.-12     	; 0x1ca <MakeFriends+0xd2>
     1d6:	85 50       	subi	r24, 0x05	; 5
     1d8:	82 30       	cpi	r24, 0x02	; 2
     1da:	70 f4       	brcc	.+28     	; 0x1f8 <MakeFriends+0x100>
     1dc:	f6 cf       	rjmp	.-20     	; 0x1ca <MakeFriends+0xd2>
                        progress = SECOND_LOVE;
                    } else  if ((whoami == 3)&&((jackIn == 4)||(jackIn == 5)||(jackIn == 7))) {
     1de:	93 30       	cpi	r25, 0x03	; 3
     1e0:	39 f4       	brne	.+14     	; 0x1f0 <MakeFriends+0xf8>
     1e2:	9c ef       	ldi	r25, 0xFC	; 252
     1e4:	98 0f       	add	r25, r24
     1e6:	92 30       	cpi	r25, 0x02	; 2
     1e8:	80 f3       	brcs	.-32     	; 0x1ca <MakeFriends+0xd2>
     1ea:	87 30       	cpi	r24, 0x07	; 7
     1ec:	29 f4       	brne	.+10     	; 0x1f8 <MakeFriends+0x100>
     1ee:	ed cf       	rjmp	.-38     	; 0x1ca <MakeFriends+0xd2>
                        progress = SECOND_LOVE;
                    } else if ((whoami == 4)&&((jackIn == 5)||(jackIn == 6)||(jackIn == 7))) {
     1f0:	94 30       	cpi	r25, 0x04	; 4
     1f2:	11 f4       	brne	.+4      	; 0x1f8 <MakeFriends+0x100>
     1f4:	85 50       	subi	r24, 0x05	; 5
     1f6:	e7 cf       	rjmp	.-50     	; 0x1c6 <MakeFriends+0xce>
                        progress = SECOND_LOVE;
                    } else progress = NO_OTHER;
     1f8:	10 92 2d 38 	sts	0x382D, r1	; 0x80382d <progress.3775>
     1fc:	53 c0       	rjmp	.+166    	; 0x2a4 <MakeFriends+0x1ac>
                    chkTmr = 0;
                }
            } else {
                chkTmr = 0;
     1fe:	10 92 2c 38 	sts	0x382C, r1	; 0x80382c <chkTmr.3777>
     202:	b0 c0       	rjmp	.+352    	; 0x364 <MakeFriends+0x26c>
                progress = NO_OTHER;
            }
        }

        //Wait for the other badge (and a bit longer)
        else if (progress == SECOND_LOVE){
     204:	82 30       	cpi	r24, 0x02	; 2
     206:	09 f0       	breq	.+2      	; 0x20a <MakeFriends+0x112>
     208:	50 c0       	rjmp	.+160    	; 0x2aa <MakeFriends+0x1b2>
            ++chkTmr;
     20a:	80 91 2c 38 	lds	r24, 0x382C	; 0x80382c <chkTmr.3777>
     20e:	8f 5f       	subi	r24, 0xFF	; 255
     210:	80 93 2c 38 	sts	0x382C, r24	; 0x80382c <chkTmr.3777>
     214:	ce e8       	ldi	r28, 0x8E	; 142
     216:	dc eb       	ldi	r29, 0xBC	; 188
     218:	7e 01       	movw	r14, r28
            for (uint8_t x=0; x<5; ++x){
                iLED[WING[L][x]] = (lfsr() > 127)?dimValue:0;
     21a:	0d 81       	ldd	r16, Y+5	; 0x05
     21c:	10 e0       	ldi	r17, 0x00	; 0
     21e:	0e 94 91 09 	call	0x1322	; 0x1322 <lfsr>
     222:	87 ff       	sbrs	r24, 7
     224:	03 c0       	rjmp	.+6      	; 0x22c <MakeFriends+0x134>
     226:	80 91 0b 38 	lds	r24, 0x380B	; 0x80380b <dimValue>
     22a:	01 c0       	rjmp	.+2      	; 0x22e <MakeFriends+0x136>
     22c:	80 e0       	ldi	r24, 0x00	; 0
     22e:	f8 01       	movw	r30, r16
     230:	ec 53       	subi	r30, 0x3C	; 60
     232:	f5 4c       	sbci	r31, 0xC5	; 197
     234:	80 83       	st	Z, r24
     236:	21 96       	adiw	r28, 0x01	; 1
                iLED[WING[R][x]] = (lfsr() > 127)?dimValue:0;
     238:	f7 01       	movw	r30, r14
     23a:	00 81       	ld	r16, Z
     23c:	10 e0       	ldi	r17, 0x00	; 0
     23e:	0e 94 91 09 	call	0x1322	; 0x1322 <lfsr>
     242:	87 ff       	sbrs	r24, 7
     244:	03 c0       	rjmp	.+6      	; 0x24c <MakeFriends+0x154>
     246:	80 91 0b 38 	lds	r24, 0x380B	; 0x80380b <dimValue>
     24a:	01 c0       	rjmp	.+2      	; 0x24e <MakeFriends+0x156>
     24c:	80 e0       	ldi	r24, 0x00	; 0
     24e:	f8 01       	movw	r30, r16
     250:	ec 53       	subi	r30, 0x3C	; 60
     252:	f5 4c       	sbci	r31, 0xC5	; 197
     254:	80 83       	st	Z, r24
        }

        //Wait for the other badge (and a bit longer)
        else if (progress == SECOND_LOVE){
            ++chkTmr;
            for (uint8_t x=0; x<5; ++x){
     256:	fc eb       	ldi	r31, 0xBC	; 188
     258:	c3 39       	cpi	r28, 0x93	; 147
     25a:	df 07       	cpc	r29, r31
     25c:	e9 f6       	brne	.-70     	; 0x218 <MakeFriends+0x120>
                iLED[WING[L][x]] = (lfsr() > 127)?dimValue:0;
                iLED[WING[R][x]] = (lfsr() > 127)?dimValue:0;
            }
            if (chkTmr >= SHORT_WAIT) {
     25e:	80 91 2c 38 	lds	r24, 0x382C	; 0x80382c <chkTmr.3777>
     262:	88 30       	cpi	r24, 0x08	; 8
     264:	40 f0       	brcs	.+16     	; 0x276 <MakeFriends+0x17e>
                setDAC[0] = floatAround(0x80, 8, 100, 255); 
     266:	2f ef       	ldi	r18, 0xFF	; 255
     268:	44 e6       	ldi	r20, 0x64	; 100
     26a:	68 e0       	ldi	r22, 0x08	; 8
     26c:	80 e8       	ldi	r24, 0x80	; 128
     26e:	0e 94 e2 09 	call	0x13c4	; 0x13c4 <floatAround>
     272:	80 93 00 38 	sts	0x3800, r24	; 0x803800 <__data_start>
            }
            //The badge with the lowest voltage will now go to 2.5V (impedance check, for people tricking the things with a power supply)
            if (chkTmr >= LONG_WAIT){
     276:	80 91 2c 38 	lds	r24, 0x382C	; 0x80382c <chkTmr.3777>
     27a:	8a 3f       	cpi	r24, 0xFA	; 250
     27c:	08 f4       	brcc	.+2      	; 0x280 <MakeFriends+0x188>
     27e:	74 c0       	rjmp	.+232    	; 0x368 <MakeFriends+0x270>
                candidate = jackIn-whoami;
     280:	90 91 39 38 	lds	r25, 0x3839	; 0x803839 <whoami>
     284:	80 91 2b 38 	lds	r24, 0x382B	; 0x80382b <jackIn.3778>
     288:	89 1b       	sub	r24, r25
     28a:	80 93 2a 38 	sts	0x382A, r24	; 0x80382a <__data_end>
                if (candidate > whoami) setDAC[0] = 250; else setDAC[0] = 0;
     28e:	98 17       	cp	r25, r24
     290:	20 f4       	brcc	.+8      	; 0x29a <MakeFriends+0x1a2>
     292:	8a ef       	ldi	r24, 0xFA	; 250
     294:	80 93 00 38 	sts	0x3800, r24	; 0x803800 <__data_start>
     298:	02 c0       	rjmp	.+4      	; 0x29e <MakeFriends+0x1a6>
     29a:	10 92 00 38 	sts	0x3800, r1	; 0x803800 <__data_start>
                progress = THIRD_KISS;
     29e:	83 e0       	ldi	r24, 0x03	; 3
     2a0:	80 93 2d 38 	sts	0x382D, r24	; 0x80382d <progress.3775>
                chkTmr = 0;
     2a4:	10 92 2c 38 	sts	0x382C, r1	; 0x80382c <chkTmr.3777>
     2a8:	5f c0       	rjmp	.+190    	; 0x368 <MakeFriends+0x270>
            }
        } 
        
        //Wait a bit, check Voltage again, if ok show who you connected with and your own number, save, exit
        else if (progress == THIRD_KISS) {
     2aa:	83 30       	cpi	r24, 0x03	; 3
     2ac:	e1 f5       	brne	.+120    	; 0x326 <MakeFriends+0x22e>
            chkTmr++;
     2ae:	80 91 2c 38 	lds	r24, 0x382C	; 0x80382c <chkTmr.3777>
     2b2:	8f 5f       	subi	r24, 0xFF	; 255
     2b4:	80 93 2c 38 	sts	0x382C, r24	; 0x80382c <chkTmr.3777>
            if (chkTmr >= SHORT_WAIT) {
     2b8:	88 30       	cpi	r24, 0x08	; 8
     2ba:	08 f4       	brcc	.+2      	; 0x2be <MakeFriends+0x1c6>
                if (chkVolt250() == 5) {
     2bc:	55 c0       	rjmp	.+170    	; 0x368 <MakeFriends+0x270>
     2be:	fc de       	rcall	.-520    	; 0xb8 <chkVolt250>
     2c0:	85 30       	cpi	r24, 0x05	; 5
     2c2:	09 f0       	breq	.+2      	; 0x2c6 <MakeFriends+0x1ce>
     2c4:	99 cf       	rjmp	.-206    	; 0x1f8 <MakeFriends+0x100>
                    UpdateState(99+candidate);
     2c6:	80 91 2a 38 	lds	r24, 0x382A	; 0x80382a <__data_end>
     2ca:	8d 59       	subi	r24, 0x9D	; 157
     2cc:	0e 94 b5 0a 	call	0x156a	; 0x156a <UpdateState>
                    UpdateState(99+whoami);
     2d0:	80 91 39 38 	lds	r24, 0x3839	; 0x803839 <whoami>
     2d4:	8d 59       	subi	r24, 0x9D	; 157
     2d6:	0e 94 b5 0a 	call	0x156a	; 0x156a <UpdateState>
                    for (uint8_t x=0; x<5; ++x){
                        iLED[WING[L][x]] = (x<candidate)?dimValue:0;
     2da:	20 91 2a 38 	lds	r18, 0x382A	; 0x80382a <__data_end>
                        iLED[WING[R][x]] = (x<whoami)?dimValue:00;
     2de:	30 91 39 38 	lds	r19, 0x3839	; 0x803839 <whoami>
     2e2:	ae e8       	ldi	r26, 0x8E	; 142
     2e4:	bc eb       	ldi	r27, 0xBC	; 188
            chkTmr++;
            if (chkTmr >= SHORT_WAIT) {
                if (chkVolt250() == 5) {
                    UpdateState(99+candidate);
                    UpdateState(99+whoami);
                    for (uint8_t x=0; x<5; ++x){
     2e6:	80 e0       	ldi	r24, 0x00	; 0
     2e8:	ed 01       	movw	r28, r26
                        iLED[WING[L][x]] = (x<candidate)?dimValue:0;
     2ea:	15 96       	adiw	r26, 0x05	; 5
     2ec:	ec 91       	ld	r30, X
     2ee:	15 97       	sbiw	r26, 0x05	; 5
     2f0:	f0 e0       	ldi	r31, 0x00	; 0
     2f2:	82 17       	cp	r24, r18
     2f4:	18 f4       	brcc	.+6      	; 0x2fc <MakeFriends+0x204>
     2f6:	90 91 0b 38 	lds	r25, 0x380B	; 0x80380b <dimValue>
     2fa:	01 c0       	rjmp	.+2      	; 0x2fe <MakeFriends+0x206>
     2fc:	90 e0       	ldi	r25, 0x00	; 0
     2fe:	ec 53       	subi	r30, 0x3C	; 60
     300:	f5 4c       	sbci	r31, 0xC5	; 197
     302:	90 83       	st	Z, r25
     304:	11 96       	adiw	r26, 0x01	; 1
                        iLED[WING[R][x]] = (x<whoami)?dimValue:00;
     306:	e8 81       	ld	r30, Y
     308:	f0 e0       	ldi	r31, 0x00	; 0
     30a:	83 17       	cp	r24, r19
     30c:	18 f4       	brcc	.+6      	; 0x314 <MakeFriends+0x21c>
     30e:	90 91 0b 38 	lds	r25, 0x380B	; 0x80380b <dimValue>
     312:	01 c0       	rjmp	.+2      	; 0x316 <MakeFriends+0x21e>
     314:	90 e0       	ldi	r25, 0x00	; 0
     316:	ec 53       	subi	r30, 0x3C	; 60
     318:	f5 4c       	sbci	r31, 0xC5	; 197
     31a:	90 83       	st	Z, r25
            chkTmr++;
            if (chkTmr >= SHORT_WAIT) {
                if (chkVolt250() == 5) {
                    UpdateState(99+candidate);
                    UpdateState(99+whoami);
                    for (uint8_t x=0; x<5; ++x){
     31c:	8f 5f       	subi	r24, 0xFF	; 255
     31e:	85 30       	cpi	r24, 0x05	; 5
     320:	19 f7       	brne	.-58     	; 0x2e8 <MakeFriends+0x1f0>
                        iLED[WING[L][x]] = (x<candidate)?dimValue:0;
                        iLED[WING[R][x]] = (x<whoami)?dimValue:00;
                    }   
                    progress = FOURTH_BASE;
     322:	84 e0       	ldi	r24, 0x04	; 4
     324:	bd cf       	rjmp	.-134    	; 0x2a0 <MakeFriends+0x1a8>
                } else progress = NO_OTHER;                
                chkTmr = 0;
            }

        //Wait for divorce of force quit
        } else if (progress == FOURTH_BASE) {
     326:	84 30       	cpi	r24, 0x04	; 4
            if (chkVolt250() == 5) {
     328:	f9 f4       	brne	.+62     	; 0x368 <MakeFriends+0x270>
     32a:	c6 de       	rcall	.-628    	; 0xb8 <chkVolt250>
     32c:	85 30       	cpi	r24, 0x05	; 5
     32e:	e1 f4       	brne	.+56     	; 0x368 <MakeFriends+0x270>
                chkTmr++;
     330:	80 91 2c 38 	lds	r24, 0x382C	; 0x80382c <chkTmr.3777>
     334:	8f 5f       	subi	r24, 0xFF	; 255
     336:	80 93 2c 38 	sts	0x382C, r24	; 0x80382c <chkTmr.3777>
                if (chkTmr >= LONG_WAIT) {
     33a:	8a 3f       	cpi	r24, 0xFA	; 250
     33c:	a8 f0       	brcs	.+42     	; 0x368 <MakeFriends+0x270>
     33e:	ee e8       	ldi	r30, 0x8E	; 142
     340:	fc eb       	ldi	r31, 0xBC	; 188
     342:	83 e9       	ldi	r24, 0x93	; 147
     344:	9c eb       	ldi	r25, 0xBC	; 188
     346:	ef 01       	movw	r28, r30
                    for (uint8_t x=0; x<5; ++x){
                        iLED[WING[L][x]] = 0;
     348:	a5 81       	ldd	r26, Z+5	; 0x05
     34a:	b0 e0       	ldi	r27, 0x00	; 0
     34c:	ac 53       	subi	r26, 0x3C	; 60
     34e:	b5 4c       	sbci	r27, 0xC5	; 197
     350:	1c 92       	st	X, r1
     352:	31 96       	adiw	r30, 0x01	; 1
                        iLED[WING[R][x]] = 0;
     354:	a8 81       	ld	r26, Y
     356:	b0 e0       	ldi	r27, 0x00	; 0
     358:	ac 53       	subi	r26, 0x3C	; 60
     35a:	b5 4c       	sbci	r27, 0xC5	; 197
     35c:	1c 92       	st	X, r1
        //Wait for divorce of force quit
        } else if (progress == FOURTH_BASE) {
            if (chkVolt250() == 5) {
                chkTmr++;
                if (chkTmr >= LONG_WAIT) {
                    for (uint8_t x=0; x<5; ++x){
     35e:	8e 17       	cp	r24, r30
     360:	9f 07       	cpc	r25, r31
     362:	89 f7       	brne	.-30     	; 0x346 <MakeFriends+0x24e>
                    }                    
                }
            }
        }

    } else progress = NO_OTHER;
     364:	10 92 2d 38 	sts	0x382D, r1	; 0x80382d <progress.3775>
      
    return 0;
}
     368:	80 e0       	ldi	r24, 0x00	; 0
     36a:	df 91       	pop	r29
     36c:	cf 91       	pop	r28
     36e:	1f 91       	pop	r17
     370:	0f 91       	pop	r16
     372:	ff 90       	pop	r15
     374:	ef 90       	pop	r14
     376:	08 95       	ret

00000378 <I2C_init>:
// the Atmel device documentation mentions a special command for repeated start TWI_MCMD_REPSTART_gc,
// but this is not used in Atmel's demo code, so we don't use it either

void I2C_rep_start(uint8_t shifted_addr)						    // send repeated start, device_addr + LSB set if READ
{
	TWI0.MADDR = shifted_addr;	
     378:	81 e0       	ldi	r24, 0x01	; 1
     37a:	80 93 22 04 	sts	0x0422, r24	; 0x800422 <__TEXT_REGION_LENGTH__+0x700422>
     37e:	e6 e2       	ldi	r30, 0x26	; 38
     380:	f4 e0       	ldi	r31, 0x04	; 4
     382:	80 83       	st	Z, r24
     384:	10 92 30 04 	sts	0x0430, r1	; 0x800430 <__TEXT_REGION_LENGTH__+0x700430>
     388:	a1 e2       	ldi	r26, 0x21	; 33
     38a:	b4 e0       	ldi	r27, 0x04	; 4
     38c:	92 e0       	ldi	r25, 0x02	; 2
     38e:	9c 93       	st	X, r25
     390:	90 83       	st	Z, r25
     392:	10 92 31 04 	sts	0x0431, r1	; 0x800431 <__TEXT_REGION_LENGTH__+0x700431>
     396:	e0 e1       	ldi	r30, 0x10	; 16
     398:	f8 e0       	ldi	r31, 0x08	; 8
     39a:	97 e0       	ldi	r25, 0x07	; 7
     39c:	96 83       	std	Z+6, r25	; 0x06
     39e:	98 e0       	ldi	r25, 0x08	; 8
     3a0:	94 83       	std	Z+4, r25	; 0x04
     3a2:	83 83       	std	Z+3, r24	; 0x03
     3a4:	8c 93       	st	X, r24
     3a6:	85 81       	ldd	r24, Z+5	; 0x05
     3a8:	81 60       	ori	r24, 0x01	; 1
     3aa:	85 83       	std	Z+5, r24	; 0x05
     3ac:	85 81       	ldd	r24, Z+5	; 0x05
     3ae:	84 6c       	ori	r24, 0xC4	; 196
     3b0:	85 83       	std	Z+5, r24	; 0x05
     3b2:	08 95       	ret

000003b4 <I2C_recover>:
     3b4:	80 91 14 08 	lds	r24, 0x0814	; 0x800814 <__TEXT_REGION_LENGTH__+0x700814>
     3b8:	88 60       	ori	r24, 0x08	; 8
     3ba:	80 93 14 08 	sts	0x0814, r24	; 0x800814 <__TEXT_REGION_LENGTH__+0x700814>
     3be:	10 92 13 08 	sts	0x0813, r1	; 0x800813 <__TEXT_REGION_LENGTH__+0x700813>
     3c2:	82 e0       	ldi	r24, 0x02	; 2
     3c4:	80 93 22 04 	sts	0x0422, r24	; 0x800422 <__TEXT_REGION_LENGTH__+0x700422>
     3c8:	99 e0       	ldi	r25, 0x09	; 9
     3ca:	21 e0       	ldi	r18, 0x01	; 1
     3cc:	81 e0       	ldi	r24, 0x01	; 1
     3ce:	20 93 21 04 	sts	0x0421, r18	; 0x800421 <__TEXT_REGION_LENGTH__+0x700421>
     3d2:	30 e1       	ldi	r19, 0x10	; 16
     3d4:	3a 95       	dec	r19
     3d6:	f1 f7       	brne	.-4      	; 0x3d4 <I2C_recover+0x20>
     3d8:	00 c0       	rjmp	.+0      	; 0x3da <I2C_recover+0x26>
     3da:	20 93 22 04 	sts	0x0422, r18	; 0x800422 <__TEXT_REGION_LENGTH__+0x700422>
     3de:	30 e1       	ldi	r19, 0x10	; 16
     3e0:	3a 95       	dec	r19
     3e2:	f1 f7       	brne	.-4      	; 0x3e0 <I2C_recover+0x2c>
     3e4:	00 c0       	rjmp	.+0      	; 0x3e6 <I2C_recover+0x32>
     3e6:	91 50       	subi	r25, 0x01	; 1
     3e8:	89 f7       	brne	.-30     	; 0x3cc <I2C_recover+0x18>
     3ea:	28 e0       	ldi	r18, 0x08	; 8
     3ec:	20 93 14 08 	sts	0x0814, r18	; 0x800814 <__TEXT_REGION_LENGTH__+0x700814>
     3f0:	80 93 13 08 	sts	0x0813, r24	; 0x800813 <__TEXT_REGION_LENGTH__+0x700813>
     3f4:	92 e0       	ldi	r25, 0x02	; 2
     3f6:	90 93 21 04 	sts	0x0421, r25	; 0x800421 <__TEXT_REGION_LENGTH__+0x700421>
     3fa:	90 91 15 08 	lds	r25, 0x0815	; 0x800815 <__TEXT_REGION_LENGTH__+0x700815>
     3fe:	91 60       	ori	r25, 0x01	; 1
     400:	90 93 15 08 	sts	0x0815, r25	; 0x800815 <__TEXT_REGION_LENGTH__+0x700815>
     404:	90 91 15 08 	lds	r25, 0x0815	; 0x800815 <__TEXT_REGION_LENGTH__+0x700815>
     408:	94 6c       	ori	r25, 0xC4	; 196
     40a:	90 93 15 08 	sts	0x0815, r25	; 0x800815 <__TEXT_REGION_LENGTH__+0x700815>
     40e:	20 93 14 08 	sts	0x0814, r18	; 0x800814 <__TEXT_REGION_LENGTH__+0x700814>
     412:	80 93 13 08 	sts	0x0813, r24	; 0x800813 <__TEXT_REGION_LENGTH__+0x700813>
     416:	80 93 21 04 	sts	0x0421, r24	; 0x800421 <__TEXT_REGION_LENGTH__+0x700421>
     41a:	80 91 15 08 	lds	r24, 0x0815	; 0x800815 <__TEXT_REGION_LENGTH__+0x700815>
     41e:	81 60       	ori	r24, 0x01	; 1
     420:	80 93 15 08 	sts	0x0815, r24	; 0x800815 <__TEXT_REGION_LENGTH__+0x700815>
     424:	80 91 15 08 	lds	r24, 0x0815	; 0x800815 <__TEXT_REGION_LENGTH__+0x700815>
     428:	84 6c       	ori	r24, 0xC4	; 196
     42a:	80 93 15 08 	sts	0x0815, r24	; 0x800815 <__TEXT_REGION_LENGTH__+0x700815>
     42e:	08 95       	ret

00000430 <I2C_start>:
     430:	28 2f       	mov	r18, r24
     432:	90 91 15 08 	lds	r25, 0x0815	; 0x800815 <__TEXT_REGION_LENGTH__+0x700815>
     436:	90 6c       	ori	r25, 0xC0	; 192
     438:	90 93 15 08 	sts	0x0815, r25	; 0x800815 <__TEXT_REGION_LENGTH__+0x700815>
     43c:	90 91 15 08 	lds	r25, 0x0815	; 0x800815 <__TEXT_REGION_LENGTH__+0x700815>
     440:	89 2f       	mov	r24, r25
     442:	84 70       	andi	r24, 0x04	; 4
     444:	92 fd       	sbrc	r25, 2
     446:	03 c0       	rjmp	.+6      	; 0x44e <I2C_start+0x1e>
     448:	20 93 17 08 	sts	0x0817, r18	; 0x800817 <__TEXT_REGION_LENGTH__+0x700817>
     44c:	08 95       	ret
     44e:	84 e0       	ldi	r24, 0x04	; 4
     450:	08 95       	ret

00000452 <I2C_wait_ACK>:
     452:	8c e0       	ldi	r24, 0x0C	; 12
     454:	80 93 5a 3a 	sts	0x3A5A, r24	; 0x803a5a <timeout_I2C>
     458:	80 91 15 08 	lds	r24, 0x0815	; 0x800815 <__TEXT_REGION_LENGTH__+0x700815>
     45c:	87 fd       	sbrc	r24, 7
     45e:	0a c0       	rjmp	.+20     	; 0x474 <I2C_wait_ACK+0x22>
     460:	80 91 15 08 	lds	r24, 0x0815	; 0x800815 <__TEXT_REGION_LENGTH__+0x700815>
     464:	86 fd       	sbrc	r24, 6
     466:	06 c0       	rjmp	.+12     	; 0x474 <I2C_wait_ACK+0x22>
     468:	80 91 5a 3a 	lds	r24, 0x3A5A	; 0x803a5a <timeout_I2C>
     46c:	81 11       	cpse	r24, r1
     46e:	f4 cf       	rjmp	.-24     	; 0x458 <I2C_wait_ACK+0x6>
     470:	8f ef       	ldi	r24, 0xFF	; 255
     472:	08 95       	ret
     474:	80 91 15 08 	lds	r24, 0x0815	; 0x800815 <__TEXT_REGION_LENGTH__+0x700815>
     478:	80 6c       	ori	r24, 0xC0	; 192
     47a:	80 93 15 08 	sts	0x0815, r24	; 0x800815 <__TEXT_REGION_LENGTH__+0x700815>
     47e:	80 91 15 08 	lds	r24, 0x0815	; 0x800815 <__TEXT_REGION_LENGTH__+0x700815>
     482:	82 fd       	sbrc	r24, 2
     484:	09 c0       	rjmp	.+18     	; 0x498 <I2C_wait_ACK+0x46>
     486:	80 91 15 08 	lds	r24, 0x0815	; 0x800815 <__TEXT_REGION_LENGTH__+0x700815>
     48a:	83 fd       	sbrc	r24, 3
     48c:	07 c0       	rjmp	.+14     	; 0x49c <I2C_wait_ACK+0x4a>
     48e:	80 91 15 08 	lds	r24, 0x0815	; 0x800815 <__TEXT_REGION_LENGTH__+0x700815>
     492:	82 95       	swap	r24
     494:	81 70       	andi	r24, 0x01	; 1
     496:	08 95       	ret
     498:	84 e0       	ldi	r24, 0x04	; 4
     49a:	08 95       	ret
     49c:	82 e0       	ldi	r24, 0x02	; 2
     49e:	08 95       	ret

000004a0 <I2C_read>:
}

uint8_t	I2C_read(uint8_t *data, uint8_t ack_flag)					// read data, ack_flag 0: send ACK, 1: send NACK, returns status
{
     4a0:	fc 01       	movw	r30, r24
	timeout_I2C = READ_TIMEOUT;										// reset timeout counter, will be decremented by LED matrix interrupt
     4a2:	8c e0       	ldi	r24, 0x0C	; 12
     4a4:	80 93 5a 3a 	sts	0x3A5A, r24	; 0x803a5a <timeout_I2C>
	if ((TWI0.MSTATUS & TWI_BUSSTATE_gm) == TWI_BUSSTATE_OWNER_gc)	// if master controls bus
     4a8:	90 91 15 08 	lds	r25, 0x0815	; 0x800815 <__TEXT_REGION_LENGTH__+0x700815>
     4ac:	89 2f       	mov	r24, r25
     4ae:	83 70       	andi	r24, 0x03	; 3
     4b0:	82 30       	cpi	r24, 0x02	; 2
     4b2:	11 f0       	breq	.+4      	; 0x4b8 <I2C_read+0x18>
		else		TWI0.MCTRLB |= TWI_ACKACT_NACK_gc;				// setup NACK (last byte read)
		*data = TWI0.MDATA;
		if (ack_flag == 0) TWI0.MCTRLB |= TWI_MCMD_RECVTRANS_gc;	// send ACK, more bytes to follow					
		return 0;
	}
	else return 8;													// master does not control bus
     4b4:	88 e0       	ldi	r24, 0x08	; 8
     4b6:	08 95       	ret
uint8_t	I2C_read(uint8_t *data, uint8_t ack_flag)					// read data, ack_flag 0: send ACK, 1: send NACK, returns status
{
	timeout_I2C = READ_TIMEOUT;										// reset timeout counter, will be decremented by LED matrix interrupt
	if ((TWI0.MSTATUS & TWI_BUSSTATE_gm) == TWI_BUSSTATE_OWNER_gc)	// if master controls bus
	{		
		while (!(TWI0.MSTATUS & TWI_RIF_bm))						// wait for RIF set (data byte received)
     4b8:	90 91 15 08 	lds	r25, 0x0815	; 0x800815 <__TEXT_REGION_LENGTH__+0x700815>
     4bc:	97 fd       	sbrc	r25, 7
     4be:	06 c0       	rjmp	.+12     	; 0x4cc <I2C_read+0x2c>
		{
			if (!(timeout_I2C)) return 0xff;			            // return timeout error
     4c0:	90 91 5a 3a 	lds	r25, 0x3A5A	; 0x803a5a <timeout_I2C>
     4c4:	91 11       	cpse	r25, r1
     4c6:	f8 cf       	rjmp	.-16     	; 0x4b8 <I2C_read+0x18>
     4c8:	8f ef       	ldi	r24, 0xFF	; 255
     4ca:	08 95       	ret
		}
		TWI0.MSTATUS |= (TWI_RIF_bm | TWI_WIF_bm);					// clear Read and Write interrupt flags	
     4cc:	90 91 15 08 	lds	r25, 0x0815	; 0x800815 <__TEXT_REGION_LENGTH__+0x700815>
     4d0:	90 6c       	ori	r25, 0xC0	; 192
     4d2:	90 93 15 08 	sts	0x0815, r25	; 0x800815 <__TEXT_REGION_LENGTH__+0x700815>
		if (TWI0.MSTATUS & TWI_BUSERR_bm) return 4;					// Bus Error, abort
     4d6:	90 91 15 08 	lds	r25, 0x0815	; 0x800815 <__TEXT_REGION_LENGTH__+0x700815>
     4da:	92 fd       	sbrc	r25, 2
     4dc:	1e c0       	rjmp	.+60     	; 0x51a <I2C_read+0x7a>
		if (TWI0.MSTATUS & TWI_ARBLOST_bm) return 2;				// Arbitration Lost, abort
     4de:	90 91 15 08 	lds	r25, 0x0815	; 0x800815 <__TEXT_REGION_LENGTH__+0x700815>
     4e2:	93 fd       	sbrc	r25, 3
     4e4:	1d c0       	rjmp	.+58     	; 0x520 <I2C_read+0x80>
		if (TWI0.MSTATUS & TWI_RXACK_bm) return 1;					// Slave replied with NACK, abort				
     4e6:	90 91 15 08 	lds	r25, 0x0815	; 0x800815 <__TEXT_REGION_LENGTH__+0x700815>
     4ea:	89 2f       	mov	r24, r25
     4ec:	80 71       	andi	r24, 0x10	; 16
     4ee:	94 fd       	sbrc	r25, 4
     4f0:	16 c0       	rjmp	.+44     	; 0x51e <I2C_read+0x7e>
		if (ack_flag == 0) TWI0.MCTRLB &= ~(1 << TWI_ACKACT_bp);	// setup ACK
     4f2:	90 91 14 08 	lds	r25, 0x0814	; 0x800814 <__TEXT_REGION_LENGTH__+0x700814>
     4f6:	61 11       	cpse	r22, r1
     4f8:	02 c0       	rjmp	.+4      	; 0x4fe <I2C_read+0x5e>
     4fa:	9b 7f       	andi	r25, 0xFB	; 251
     4fc:	01 c0       	rjmp	.+2      	; 0x500 <I2C_read+0x60>
		else		TWI0.MCTRLB |= TWI_ACKACT_NACK_gc;				// setup NACK (last byte read)
     4fe:	94 60       	ori	r25, 0x04	; 4
     500:	90 93 14 08 	sts	0x0814, r25	; 0x800814 <__TEXT_REGION_LENGTH__+0x700814>
		*data = TWI0.MDATA;
     504:	90 91 18 08 	lds	r25, 0x0818	; 0x800818 <__TEXT_REGION_LENGTH__+0x700818>
     508:	90 83       	st	Z, r25
		if (ack_flag == 0) TWI0.MCTRLB |= TWI_MCMD_RECVTRANS_gc;	// send ACK, more bytes to follow					
     50a:	61 11       	cpse	r22, r1
     50c:	09 c0       	rjmp	.+18     	; 0x520 <I2C_read+0x80>
     50e:	90 91 14 08 	lds	r25, 0x0814	; 0x800814 <__TEXT_REGION_LENGTH__+0x700814>
     512:	92 60       	ori	r25, 0x02	; 2
     514:	90 93 14 08 	sts	0x0814, r25	; 0x800814 <__TEXT_REGION_LENGTH__+0x700814>
     518:	08 95       	ret
		while (!(TWI0.MSTATUS & TWI_RIF_bm))						// wait for RIF set (data byte received)
		{
			if (!(timeout_I2C)) return 0xff;			            // return timeout error
		}
		TWI0.MSTATUS |= (TWI_RIF_bm | TWI_WIF_bm);					// clear Read and Write interrupt flags	
		if (TWI0.MSTATUS & TWI_BUSERR_bm) return 4;					// Bus Error, abort
     51a:	84 e0       	ldi	r24, 0x04	; 4
     51c:	08 95       	ret
		if (TWI0.MSTATUS & TWI_ARBLOST_bm) return 2;				// Arbitration Lost, abort
		if (TWI0.MSTATUS & TWI_RXACK_bm) return 1;					// Slave replied with NACK, abort				
     51e:	81 e0       	ldi	r24, 0x01	; 1
		*data = TWI0.MDATA;
		if (ack_flag == 0) TWI0.MCTRLB |= TWI_MCMD_RECVTRANS_gc;	// send ACK, more bytes to follow					
		return 0;
	}
	else return 8;													// master does not control bus
}
     520:	08 95       	ret

00000522 <I2C_write>:

uint8_t I2C_write(uint8_t *data)									// write data, return status
{
     522:	fc 01       	movw	r30, r24
	timeout_I2C = WRITE_TIMEOUT;									// reset timeout counter, will be decremented by LED matrix interrupt
     524:	8c e0       	ldi	r24, 0x0C	; 12
     526:	80 93 5a 3a 	sts	0x3A5A, r24	; 0x803a5a <timeout_I2C>
	if ((TWI0.MSTATUS & TWI_BUSSTATE_gm) == TWI_BUSSTATE_OWNER_gc)	// if master controls bus
     52a:	90 91 15 08 	lds	r25, 0x0815	; 0x800815 <__TEXT_REGION_LENGTH__+0x700815>
     52e:	93 70       	andi	r25, 0x03	; 3
     530:	92 30       	cpi	r25, 0x02	; 2
     532:	b1 f4       	brne	.+44     	; 0x560 <I2C_write+0x3e>
	{
		TWI0.MDATA = *data;		
     534:	80 81       	ld	r24, Z
     536:	80 93 18 08 	sts	0x0818, r24	; 0x800818 <__TEXT_REGION_LENGTH__+0x700818>
		while (!(TWI0.MSTATUS & TWI_WIF_bm))						// wait until WIF set, status register contains ACK/NACK bit
     53a:	80 91 15 08 	lds	r24, 0x0815	; 0x800815 <__TEXT_REGION_LENGTH__+0x700815>
     53e:	86 fd       	sbrc	r24, 6
     540:	06 c0       	rjmp	.+12     	; 0x54e <I2C_write+0x2c>
		{
			if (!(timeout_I2C)) return 0xff;			            // return timeout error
     542:	80 91 5a 3a 	lds	r24, 0x3A5A	; 0x803a5a <timeout_I2C>
     546:	81 11       	cpse	r24, r1
     548:	f8 cf       	rjmp	.-16     	; 0x53a <I2C_write+0x18>
     54a:	8f ef       	ldi	r24, 0xFF	; 255
     54c:	08 95       	ret
		}
		if (TWI0.MSTATUS & TWI_BUSERR_bm) return 4;					// Bus Error, abort
     54e:	80 91 15 08 	lds	r24, 0x0815	; 0x800815 <__TEXT_REGION_LENGTH__+0x700815>
     552:	82 fd       	sbrc	r24, 2
     554:	07 c0       	rjmp	.+14     	; 0x564 <I2C_write+0x42>
		if (TWI0.MSTATUS & TWI_RXACK_bm) return 1;					// Slave replied with NACK, abort
     556:	80 91 15 08 	lds	r24, 0x0815	; 0x800815 <__TEXT_REGION_LENGTH__+0x700815>
	if ((TWI0.MSTATUS & TWI_BUSSTATE_gm) == TWI_BUSSTATE_OWNER_gc)	// if master controls bus
	{
		TWI0.MDATA = *data;		
		while (!(TWI0.MSTATUS & TWI_WIF_bm))						// wait until WIF set, status register contains ACK/NACK bit
		{
			if (!(timeout_I2C)) return 0xff;			            // return timeout error
     55a:	82 95       	swap	r24
     55c:	81 70       	andi	r24, 0x01	; 1
     55e:	08 95       	ret
		}
		if (TWI0.MSTATUS & TWI_BUSERR_bm) return 4;					// Bus Error, abort
		if (TWI0.MSTATUS & TWI_RXACK_bm) return 1;					// Slave replied with NACK, abort
		return 0;													// no error	
	}
	else return 8;													// master does not control bus
     560:	88 e0       	ldi	r24, 0x08	; 8
     562:	08 95       	ret
		TWI0.MDATA = *data;		
		while (!(TWI0.MSTATUS & TWI_WIF_bm))						// wait until WIF set, status register contains ACK/NACK bit
		{
			if (!(timeout_I2C)) return 0xff;			            // return timeout error
		}
		if (TWI0.MSTATUS & TWI_BUSERR_bm) return 4;					// Bus Error, abort
     564:	84 e0       	ldi	r24, 0x04	; 4
		if (TWI0.MSTATUS & TWI_RXACK_bm) return 1;					// Slave replied with NACK, abort
		return 0;													// no error	
	}
	else return 8;													// master does not control bus
}
     566:	08 95       	ret

00000568 <I2C_stop>:

void I2C_stop()
{
	TWI0.MCTRLB |= TWI_MCMD_STOP_gc;
     568:	e0 e1       	ldi	r30, 0x10	; 16
     56a:	f8 e0       	ldi	r31, 0x08	; 8
     56c:	84 81       	ldd	r24, Z+4	; 0x04
     56e:	83 60       	ori	r24, 0x03	; 3
     570:	84 83       	std	Z+4, r24	; 0x04
     572:	08 95       	ret

00000574 <I2C_read_bytes>:
// addr_ptr		address of first array element to transfer
// slave reg	starting slave register
// num_bytes	number of bytes to transfer

uint8_t	I2C_read_bytes(uint8_t slave_addr, uint8_t *reg_ptr, uint8_t reg_len, uint8_t *dat_ptr, uint8_t dat_len)
{
     574:	cf 92       	push	r12
     576:	df 92       	push	r13
     578:	ff 92       	push	r15
     57a:	0f 93       	push	r16
     57c:	1f 93       	push	r17
     57e:	cf 93       	push	r28
     580:	df 93       	push	r29
     582:	6b 01       	movw	r12, r22
     584:	f4 2e       	mov	r15, r20
     586:	e9 01       	movw	r28, r18
	uint8_t status;
	if (dat_len > MAX_LEN) dat_len = MAX_LEN;
	status = I2C_start(slave_addr << 1);							// slave write address, LSB 0
     588:	18 2f       	mov	r17, r24
     58a:	11 0f       	add	r17, r17
     58c:	81 2f       	mov	r24, r17
     58e:	50 df       	rcall	.-352    	; 0x430 <I2C_start>
	if (status != 0) goto error;
     590:	81 11       	cpse	r24, r1
	status = I2C_wait_ACK();										// wait for slave ACK
     592:	2b c0       	rjmp	.+86     	; 0x5ea <I2C_read_bytes+0x76>
     594:	5e df       	rcall	.-324    	; 0x452 <I2C_wait_ACK>
	if (status == 1) {
     596:	81 30       	cpi	r24, 0x01	; 1
		I2C_stop();													// NACK, abort
     598:	19 f4       	brne	.+6      	; 0x5a0 <I2C_read_bytes+0x2c>
     59a:	e6 df       	rcall	.-52     	; 0x568 <I2C_stop>
		return 1;
     59c:	81 e0       	ldi	r24, 0x01	; 1
     59e:	27 c0       	rjmp	.+78     	; 0x5ee <I2C_read_bytes+0x7a>
	}
	if (status != 0) goto error;
     5a0:	81 11       	cpse	r24, r1
     5a2:	23 c0       	rjmp	.+70     	; 0x5ea <I2C_read_bytes+0x76>
    while(reg_len > 0){
     5a4:	ff 20       	and	r15, r15
	    status = I2C_write(reg_ptr);    							// send slave start register
     5a6:	49 f0       	breq	.+18     	; 0x5ba <I2C_read_bytes+0x46>
     5a8:	c6 01       	movw	r24, r12
     5aa:	bb df       	rcall	.-138    	; 0x522 <I2C_write>
	    if (status != 0) goto error;
     5ac:	81 11       	cpse	r24, r1
     5ae:	1d c0       	rjmp	.+58     	; 0x5ea <I2C_read_bytes+0x76>
        ++reg_ptr;
     5b0:	8f ef       	ldi	r24, 0xFF	; 255
     5b2:	c8 1a       	sub	r12, r24
     5b4:	d8 0a       	sbc	r13, r24
        --reg_len;
     5b6:	fa 94       	dec	r15
     5b8:	f5 cf       	rjmp	.-22     	; 0x5a4 <I2C_read_bytes+0x30>
     5ba:	01 34       	cpi	r16, 0x41	; 65
     5bc:	08 f0       	brcs	.+2      	; 0x5c0 <I2C_read_bytes+0x4c>
     5be:	00 e4       	ldi	r16, 0x40	; 64
    }
	I2C_rep_start((slave_addr << 1) + 1);							// slave read address, LSB 1
     5c0:	1f 5f       	subi	r17, 0xFF	; 255
// the Atmel device documentation mentions a special command for repeated start TWI_MCMD_REPSTART_gc,
// but this is not used in Atmel's demo code, so we don't use it either

void I2C_rep_start(uint8_t shifted_addr)						    // send repeated start, device_addr + LSB set if READ
{
	TWI0.MADDR = shifted_addr;	
     5c2:	10 93 17 08 	sts	0x0817, r17	; 0x800817 <__TEXT_REGION_LENGTH__+0x700817>
	    if (status != 0) goto error;
        ++reg_ptr;
        --reg_len;
    }
	I2C_rep_start((slave_addr << 1) + 1);							// slave read address, LSB 1
	while (dat_len > 1) {
     5c6:	02 30       	cpi	r16, 0x02	; 2
		status = I2C_read(dat_ptr, 0);								// first bytes, send ACK
     5c8:	40 f0       	brcs	.+16     	; 0x5da <I2C_read_bytes+0x66>
     5ca:	60 e0       	ldi	r22, 0x00	; 0
     5cc:	ce 01       	movw	r24, r28
     5ce:	68 df       	rcall	.-304    	; 0x4a0 <I2C_read>
		if (status != 0) goto error;
     5d0:	81 11       	cpse	r24, r1
     5d2:	0b c0       	rjmp	.+22     	; 0x5ea <I2C_read_bytes+0x76>
		++dat_ptr;
		--dat_len;
     5d4:	21 96       	adiw	r28, 0x01	; 1
     5d6:	01 50       	subi	r16, 0x01	; 1
	}
	status = I2C_read(dat_ptr, 1);									// single or last byte, send NACK
     5d8:	f6 cf       	rjmp	.-20     	; 0x5c6 <I2C_read_bytes+0x52>
     5da:	61 e0       	ldi	r22, 0x01	; 1
     5dc:	ce 01       	movw	r24, r28
	if (status != 0) goto error;
     5de:	60 df       	rcall	.-320    	; 0x4a0 <I2C_read>
     5e0:	81 11       	cpse	r24, r1
	I2C_stop();
     5e2:	03 c0       	rjmp	.+6      	; 0x5ea <I2C_read_bytes+0x76>
     5e4:	c1 df       	rcall	.-126    	; 0x568 <I2C_stop>
	return 0;
     5e6:	80 e0       	ldi	r24, 0x00	; 0
     5e8:	02 c0       	rjmp	.+4      	; 0x5ee <I2C_read_bytes+0x7a>
	
error:
	I2C_recover();													// clock out possibly stuck slave, reset master
     5ea:	e4 de       	rcall	.-568    	; 0x3b4 <I2C_recover>
     5ec:	8f ef       	ldi	r24, 0xFF	; 255
	return 0xff;													// flag error
     5ee:	df 91       	pop	r29
}
     5f0:	cf 91       	pop	r28
     5f2:	1f 91       	pop	r17
     5f4:	0f 91       	pop	r16
     5f6:	ff 90       	pop	r15
     5f8:	df 90       	pop	r13
     5fa:	cf 90       	pop	r12
     5fc:	08 95       	ret

000005fe <initLanyard>:
uint8_t         lastButtonState = 0xff;
uint8_t         digit = 0xff;
uint16_t        lanyardLastActive = 0;

void initLanyard() {
    lanyardPos      = 0;
     5fe:	10 92 32 38 	sts	0x3832, r1	; 0x803832 <lanyardPos>
    lanyardCnt      = 0;
     602:	10 92 31 38 	sts	0x3831, r1	; 0x803831 <lanyardCnt>
    lanyardState    = TRUE;
     606:	81 e0       	ldi	r24, 0x01	; 1
     608:	80 93 04 38 	sts	0x3804, r24	; 0x803804 <lanyardState>
    lastButtonState = 0xff;
     60c:	8f ef       	ldi	r24, 0xFF	; 255
     60e:	80 93 03 38 	sts	0x3803, r24	; 0x803803 <lastButtonState>
    iLED[CAT]       = 0;
     612:	e0 91 8a bc 	lds	r30, 0xBC8A	; 0x80bc8a <__bss_end+0x8176>
     616:	f0 e0       	ldi	r31, 0x00	; 0
     618:	ec 53       	subi	r30, 0x3C	; 60
     61a:	f5 4c       	sbci	r31, 0xC5	; 197
     61c:	10 82       	st	Z, r1
    iLED[EYE[G][L]] = 0;
     61e:	e0 91 9b bc 	lds	r30, 0xBC9B	; 0x80bc9b <__bss_end+0x8187>
     622:	f0 e0       	ldi	r31, 0x00	; 0
     624:	ec 53       	subi	r30, 0x3C	; 60
     626:	f5 4c       	sbci	r31, 0xC5	; 197
     628:	10 82       	st	Z, r1
    iLED[EYE[G][R]] = 0;
     62a:	e0 91 9a bc 	lds	r30, 0xBC9A	; 0x80bc9a <__bss_end+0x8186>
     62e:	f0 e0       	ldi	r31, 0x00	; 0
     630:	ec 53       	subi	r30, 0x3C	; 60
     632:	f5 4c       	sbci	r31, 0xC5	; 197
     634:	10 82       	st	Z, r1
    iLED[EYE[R][L]] = 0;
     636:	e0 91 99 bc 	lds	r30, 0xBC99	; 0x80bc99 <__bss_end+0x8185>
     63a:	f0 e0       	ldi	r31, 0x00	; 0
     63c:	ec 53       	subi	r30, 0x3C	; 60
     63e:	f5 4c       	sbci	r31, 0xC5	; 197
     640:	10 82       	st	Z, r1
    iLED[EYE[R][R]] = 0;
     642:	e0 91 98 bc 	lds	r30, 0xBC98	; 0x80bc98 <__bss_end+0x8184>
     646:	f0 e0       	ldi	r31, 0x00	; 0
     648:	ec 53       	subi	r30, 0x3C	; 60
     64a:	f5 4c       	sbci	r31, 0xC5	; 197
     64c:	10 82       	st	Z, r1
     64e:	a2 ea       	ldi	r26, 0xA2	; 162
     650:	bc eb       	ldi	r27, 0xBC	; 188
    for (int i=0; i<6; i++ )
        iLED[HCKR[G][i]] = 0;
     652:	ed 91       	ld	r30, X+
     654:	f0 e0       	ldi	r31, 0x00	; 0
     656:	ec 53       	subi	r30, 0x3C	; 60
     658:	f5 4c       	sbci	r31, 0xC5	; 197
     65a:	10 82       	st	Z, r1
    iLED[CAT]       = 0;
    iLED[EYE[G][L]] = 0;
    iLED[EYE[G][R]] = 0;
    iLED[EYE[R][L]] = 0;
    iLED[EYE[R][R]] = 0;
    for (int i=0; i<6; i++ )
     65c:	8c eb       	ldi	r24, 0xBC	; 188
     65e:	a8 3a       	cpi	r26, 0xA8	; 168
     660:	b8 07       	cpc	r27, r24
     662:	b9 f7       	brne	.-18     	; 0x652 <initLanyard+0x54>
        iLED[HCKR[G][i]] = 0;
}
     664:	08 95       	ret

00000666 <LanyardCode>:

// Main game loop
uint8_t LanyardCode(){
     666:	cf 93       	push	r28
    if (gameNow == LANYARD && idleTimeout(lanyardLastActive,LANYARD_MAX_IDLE)) {
     668:	80 91 38 38 	lds	r24, 0x3838	; 0x803838 <gameNow>
     66c:	83 30       	cpi	r24, 0x03	; 3
     66e:	71 f4       	brne	.+28     	; 0x68c <LanyardCode+0x26>
     670:	6a e0       	ldi	r22, 0x0A	; 10
     672:	70 e0       	ldi	r23, 0x00	; 0
     674:	80 91 2f 38 	lds	r24, 0x382F	; 0x80382f <lanyardLastActive>
     678:	90 91 30 38 	lds	r25, 0x3830	; 0x803830 <lanyardLastActive+0x1>
     67c:	0e 94 c4 0c 	call	0x1988	; 0x1988 <idleTimeout>
     680:	88 23       	and	r24, r24
     682:	21 f0       	breq	.+8      	; 0x68c <LanyardCode+0x26>
        /* clean up maze game and go back to text game */
        initLanyard();
     684:	bc df       	rcall	.-136    	; 0x5fe <initLanyard>
        gameNow = TEXT;
     686:	10 92 38 38 	sts	0x3838, r1	; 0x803838 <gameNow>
        return 0;
     68a:	bf c0       	rjmp	.+382    	; 0x80a <LanyardCode+0x1a4>
    }

    if (CheckState(LANYARD_COMPLETED))
     68c:	8b e7       	ldi	r24, 0x7B	; 123
     68e:	77 d7       	rcall	.+3822   	; 0x157e <CheckState>
     690:	81 11       	cpse	r24, r1
     692:	bb c0       	rjmp	.+374    	; 0x80a <LanyardCode+0x1a4>
        return 0;

    if ( gameNow != TEXT && gameNow != LANYARD )
     694:	80 91 38 38 	lds	r24, 0x3838	; 0x803838 <gameNow>
     698:	88 23       	and	r24, r24
     69a:	19 f0       	breq	.+6      	; 0x6a2 <LanyardCode+0x3c>
     69c:	83 30       	cpi	r24, 0x03	; 3
     69e:	09 f0       	breq	.+2      	; 0x6a2 <LanyardCode+0x3c>
     6a0:	b4 c0       	rjmp	.+360    	; 0x80a <LanyardCode+0x1a4>
        return 0;

    /* activate led for buttonstate */
    iLED[CAT] = (buttonState==0xff ? 0 : dimValue);
     6a2:	c0 91 8a bc 	lds	r28, 0xBC8A	; 0x80bc8a <__bss_end+0x8176>
     6a6:	ec 2f       	mov	r30, r28
     6a8:	f0 e0       	ldi	r31, 0x00	; 0
     6aa:	90 91 09 38 	lds	r25, 0x3809	; 0x803809 <buttonState>
     6ae:	9f 3f       	cpi	r25, 0xFF	; 255
     6b0:	19 f0       	breq	.+6      	; 0x6b8 <LanyardCode+0x52>
     6b2:	80 91 0b 38 	lds	r24, 0x380B	; 0x80380b <dimValue>
     6b6:	01 c0       	rjmp	.+2      	; 0x6ba <LanyardCode+0x54>
     6b8:	80 e0       	ldi	r24, 0x00	; 0
     6ba:	ec 53       	subi	r30, 0x3C	; 60
     6bc:	f5 4c       	sbci	r31, 0xC5	; 197
     6be:	80 83       	st	Z, r24

    if ( (buttonState & 0xf0) == 0)
     6c0:	89 2f       	mov	r24, r25
     6c2:	80 7f       	andi	r24, 0xF0	; 240
     6c4:	09 f4       	brne	.+2      	; 0x6c8 <LanyardCode+0x62>
     6c6:	a1 c0       	rjmp	.+322    	; 0x80a <LanyardCode+0x1a4>
        return 0;

    if ((buttonState&0x0f) == (lastButtonState&0x0f))
     6c8:	80 91 03 38 	lds	r24, 0x3803	; 0x803803 <lastButtonState>
     6cc:	89 27       	eor	r24, r25
     6ce:	8f 70       	andi	r24, 0x0F	; 15
     6d0:	09 f4       	brne	.+2      	; 0x6d4 <LanyardCode+0x6e>
     6d2:	9b c0       	rjmp	.+310    	; 0x80a <LanyardCode+0x1a4>
        return 0;

    lanyardLastActive = getClock();
     6d4:	0e 94 b5 0c 	call	0x196a	; 0x196a <getClock>
     6d8:	80 93 2f 38 	sts	0x382F, r24	; 0x80382f <lanyardLastActive>
     6dc:	90 93 30 38 	sts	0x3830, r25	; 0x803830 <lanyardLastActive+0x1>

    if (lastButtonState == 0xff){
     6e0:	80 91 03 38 	lds	r24, 0x3803	; 0x803803 <lastButtonState>
     6e4:	8f 3f       	cpi	r24, 0xFF	; 255
     6e6:	09 f0       	breq	.+2      	; 0x6ea <LanyardCode+0x84>
     6e8:	8c c0       	rjmp	.+280    	; 0x802 <LanyardCode+0x19c>
        switch (buttonState & 0x0f) {
     6ea:	80 91 09 38 	lds	r24, 0x3809	; 0x803809 <buttonState>
     6ee:	8f 70       	andi	r24, 0x0F	; 15
     6f0:	82 30       	cpi	r24, 0x02	; 2
     6f2:	61 f0       	breq	.+24     	; 0x70c <LanyardCode+0xa6>
     6f4:	28 f4       	brcc	.+10     	; 0x700 <LanyardCode+0x9a>
     6f6:	81 30       	cpi	r24, 0x01	; 1
     6f8:	69 f4       	brne	.+26     	; 0x714 <LanyardCode+0xae>
            case 0b0001:
                digit = 0;
     6fa:	10 92 02 38 	sts	0x3802, r1	; 0x803802 <digit>
                break;
     6fe:	0d c0       	rjmp	.+26     	; 0x71a <LanyardCode+0xb4>
        return 0;

    lanyardLastActive = getClock();

    if (lastButtonState == 0xff){
        switch (buttonState & 0x0f) {
     700:	84 30       	cpi	r24, 0x04	; 4
     702:	31 f0       	breq	.+12     	; 0x710 <LanyardCode+0xaa>
     704:	88 30       	cpi	r24, 0x08	; 8
     706:	31 f4       	brne	.+12     	; 0x714 <LanyardCode+0xae>
            case 0b0100:
                digit = 3;
                break;

            case 0b1000:
                digit = 2;
     708:	82 e0       	ldi	r24, 0x02	; 2
     70a:	05 c0       	rjmp	.+10     	; 0x716 <LanyardCode+0xb0>
            case 0b0001:
                digit = 0;
                break;

            case 0b0010:
                digit = 1;
     70c:	81 e0       	ldi	r24, 0x01	; 1
     70e:	03 c0       	rjmp	.+6      	; 0x716 <LanyardCode+0xb0>
                break;

            case 0b0100:
                digit = 3;
     710:	83 e0       	ldi	r24, 0x03	; 3
     712:	01 c0       	rjmp	.+2      	; 0x716 <LanyardCode+0xb0>
            case 0b1000:
                digit = 2;
                break;

            default:
                digit = 0xff;
     714:	8f ef       	ldi	r24, 0xFF	; 255
     716:	80 93 02 38 	sts	0x3802, r24	; 0x803802 <digit>
                break;
        }
        gameNow = LANYARD;
     71a:	83 e0       	ldi	r24, 0x03	; 3
     71c:	80 93 38 38 	sts	0x3838, r24	; 0x803838 <gameNow>
        /* TODO play tone for button */

        if (digit == lanyardCode[lanyardPos]) {
     720:	80 91 32 38 	lds	r24, 0x3832	; 0x803832 <lanyardPos>
     724:	e8 2f       	mov	r30, r24
     726:	f0 e0       	ldi	r31, 0x00	; 0
     728:	ee 58       	subi	r30, 0x8E	; 142
     72a:	f3 44       	sbci	r31, 0x43	; 67
     72c:	20 81       	ld	r18, Z
     72e:	90 91 02 38 	lds	r25, 0x3802	; 0x803802 <digit>
     732:	29 13       	cpse	r18, r25
     734:	12 c0       	rjmp	.+36     	; 0x75a <LanyardCode+0xf4>
            lanyardState &= TRUE;
     736:	90 91 04 38 	lds	r25, 0x3804	; 0x803804 <lanyardState>
     73a:	91 70       	andi	r25, 0x01	; 1
     73c:	90 93 04 38 	sts	0x3804, r25	; 0x803804 <lanyardState>
            iLED[EYE[R][L]] = 0;
     740:	e0 91 99 bc 	lds	r30, 0xBC99	; 0x80bc99 <__bss_end+0x8185>
     744:	f0 e0       	ldi	r31, 0x00	; 0
     746:	ec 53       	subi	r30, 0x3C	; 60
     748:	f5 4c       	sbci	r31, 0xC5	; 197
     74a:	10 82       	st	Z, r1
            iLED[EYE[R][R]] = 0;
     74c:	e0 91 98 bc 	lds	r30, 0xBC98	; 0x80bc98 <__bss_end+0x8184>
     750:	f0 e0       	ldi	r31, 0x00	; 0
     752:	ec 53       	subi	r30, 0x3C	; 60
     754:	f5 4c       	sbci	r31, 0xC5	; 197
     756:	10 82       	st	Z, r1
     758:	05 c0       	rjmp	.+10     	; 0x764 <LanyardCode+0xfe>
        } else {
            lanyardState = FALSE;
     75a:	10 92 04 38 	sts	0x3804, r1	; 0x803804 <lanyardState>
            if (lanyardPos < 4 ) {
     75e:	84 30       	cpi	r24, 0x04	; 4
     760:	08 f4       	brcc	.+2      	; 0x764 <LanyardCode+0xfe>
     762:	90 cf       	rjmp	.-224    	; 0x684 <LanyardCode+0x1e>
                */
                gameNow         = TEXT;
                return 0;
            }
        }
        lanyardPos++;
     764:	8f 5f       	subi	r24, 0xFF	; 255
     766:	80 93 32 38 	sts	0x3832, r24	; 0x803832 <lanyardPos>
        lanyardCnt++;            
     76a:	90 91 31 38 	lds	r25, 0x3831	; 0x803831 <lanyardCnt>
     76e:	9f 5f       	subi	r25, 0xFF	; 255
        if (lanyardCnt >= 4) {
     770:	94 30       	cpi	r25, 0x04	; 4
     772:	18 f4       	brcc	.+6      	; 0x77a <LanyardCode+0x114>
                gameNow         = TEXT;
                return 0;
            }
        }
        lanyardPos++;
        lanyardCnt++;            
     774:	90 93 31 38 	sts	0x3831, r25	; 0x803831 <lanyardCnt>
     778:	44 c0       	rjmp	.+136    	; 0x802 <LanyardCode+0x19c>
        if (lanyardCnt >= 4) {
            lanyardCnt = 0;
     77a:	10 92 31 38 	sts	0x3831, r1	; 0x803831 <lanyardCnt>
            if (lanyardState == TRUE) {
     77e:	90 91 04 38 	lds	r25, 0x3804	; 0x803804 <lanyardState>
     782:	91 30       	cpi	r25, 0x01	; 1
     784:	69 f5       	brne	.+90     	; 0x7e0 <LanyardCode+0x17a>
                iLED[HCKR[G][(lanyardPos/4)-1]] = dimValue;
     786:	e8 2f       	mov	r30, r24
     788:	e6 95       	lsr	r30
     78a:	e6 95       	lsr	r30
     78c:	f0 e0       	ldi	r31, 0x00	; 0
     78e:	e4 56       	subi	r30, 0x64	; 100
     790:	f3 44       	sbci	r31, 0x43	; 67
     792:	e5 81       	ldd	r30, Z+5	; 0x05
     794:	f0 e0       	ldi	r31, 0x00	; 0
     796:	90 91 0b 38 	lds	r25, 0x380B	; 0x80380b <dimValue>
     79a:	ec 53       	subi	r30, 0x3C	; 60
     79c:	f5 4c       	sbci	r31, 0xC5	; 197
     79e:	90 83       	st	Z, r25
                if (lanyardPos == sizeof(lanyardCode)) {
     7a0:	88 31       	cpi	r24, 0x18	; 24
                    UpdateState(LANYARD_COMPLETED);
     7a2:	79 f5       	brne	.+94     	; 0x802 <LanyardCode+0x19c>
     7a4:	8b e7       	ldi	r24, 0x7B	; 123
     7a6:	e1 d6       	rcall	.+3522   	; 0x156a <UpdateState>
                    iLED[CAT]       = 0;
     7a8:	ec 2f       	mov	r30, r28
     7aa:	f0 e0       	ldi	r31, 0x00	; 0
     7ac:	ec 53       	subi	r30, 0x3C	; 60
     7ae:	f5 4c       	sbci	r31, 0xC5	; 197
     7b0:	10 82       	st	Z, r1
                    iLED[EYE[R][L]] = 0;
     7b2:	e0 91 99 bc 	lds	r30, 0xBC99	; 0x80bc99 <__bss_end+0x8185>
     7b6:	f0 e0       	ldi	r31, 0x00	; 0
     7b8:	ec 53       	subi	r30, 0x3C	; 60
     7ba:	f5 4c       	sbci	r31, 0xC5	; 197
     7bc:	10 82       	st	Z, r1
                    iLED[EYE[R][R]] = 0;
     7be:	e0 91 98 bc 	lds	r30, 0xBC98	; 0x80bc98 <__bss_end+0x8184>
     7c2:	f0 e0       	ldi	r31, 0x00	; 0
     7c4:	ec 53       	subi	r30, 0x3C	; 60
     7c6:	f5 4c       	sbci	r31, 0xC5	; 197
     7c8:	10 82       	st	Z, r1
                    iLED[EYE[G][L]] = dimValue;
     7ca:	e0 91 9b bc 	lds	r30, 0xBC9B	; 0x80bc9b <__bss_end+0x8187>
     7ce:	f0 e0       	ldi	r31, 0x00	; 0
     7d0:	80 91 0b 38 	lds	r24, 0x380B	; 0x80380b <dimValue>
     7d4:	ec 53       	subi	r30, 0x3C	; 60
     7d6:	f5 4c       	sbci	r31, 0xC5	; 197
     7d8:	80 83       	st	Z, r24
                    iLED[EYE[G][R]] = dimValue;
     7da:	e0 91 9a bc 	lds	r30, 0xBC9A	; 0x80bc9a <__bss_end+0x8186>
                    /*TODO state = STATE_MUSIC;*/
                }
            } else {
                initLanyard();
     7de:	0b c0       	rjmp	.+22     	; 0x7f6 <LanyardCode+0x190>
     7e0:	0e df       	rcall	.-484    	; 0x5fe <initLanyard>
                iLED[EYE[R][L]] = dimValue;
     7e2:	e0 91 99 bc 	lds	r30, 0xBC99	; 0x80bc99 <__bss_end+0x8185>
     7e6:	f0 e0       	ldi	r31, 0x00	; 0
     7e8:	80 91 0b 38 	lds	r24, 0x380B	; 0x80380b <dimValue>
     7ec:	ec 53       	subi	r30, 0x3C	; 60
     7ee:	f5 4c       	sbci	r31, 0xC5	; 197
     7f0:	80 83       	st	Z, r24
                iLED[EYE[R][R]] = dimValue;
     7f2:	e0 91 98 bc 	lds	r30, 0xBC98	; 0x80bc98 <__bss_end+0x8184>
     7f6:	f0 e0       	ldi	r31, 0x00	; 0
     7f8:	80 91 0b 38 	lds	r24, 0x380B	; 0x80380b <dimValue>
     7fc:	ec 53       	subi	r30, 0x3C	; 60
     7fe:	f5 4c       	sbci	r31, 0xC5	; 197
     800:	80 83       	st	Z, r24
            }
        }
    }

    lastButtonState = buttonState;
     802:	80 91 09 38 	lds	r24, 0x3809	; 0x803809 <buttonState>
     806:	80 93 03 38 	sts	0x3803, r24	; 0x803803 <lastButtonState>
    return 0;
}
     80a:	80 e0       	ldi	r24, 0x00	; 0
     80c:	cf 91       	pop	r28
     80e:	08 95       	ret

00000810 <initMaze>:
uint8_t         mazeState = TRUE;
uint8_t         inverted  = FALSE;
uint16_t        mazeLastActive = 0;

void initMaze() {
    mazePos = 0;
     810:	10 92 45 38 	sts	0x3845, r1	; 0x803845 <mazePos>
    mazeCnt = 0;
     814:	10 92 44 38 	sts	0x3844, r1	; 0x803844 <mazeCnt>
    mazeState = TRUE;
     818:	81 e0       	ldi	r24, 0x01	; 1
     81a:	80 93 0c 38 	sts	0x380C, r24	; 0x80380c <mazeState>
    inverted  = FALSE;
     81e:	10 92 43 38 	sts	0x3843, r1	; 0x803843 <inverted>
    iLED[CAT]       = 0;
     822:	e0 91 8a bc 	lds	r30, 0xBC8A	; 0x80bc8a <__bss_end+0x8176>
     826:	f0 e0       	ldi	r31, 0x00	; 0
     828:	ec 53       	subi	r30, 0x3C	; 60
     82a:	f5 4c       	sbci	r31, 0xC5	; 197
     82c:	10 82       	st	Z, r1
    iLED[EYE[G][L]] = 0;
     82e:	e0 91 9b bc 	lds	r30, 0xBC9B	; 0x80bc9b <__bss_end+0x8187>
     832:	f0 e0       	ldi	r31, 0x00	; 0
     834:	ec 53       	subi	r30, 0x3C	; 60
     836:	f5 4c       	sbci	r31, 0xC5	; 197
     838:	10 82       	st	Z, r1
    iLED[EYE[G][R]] = 0;
     83a:	e0 91 9a bc 	lds	r30, 0xBC9A	; 0x80bc9a <__bss_end+0x8186>
     83e:	f0 e0       	ldi	r31, 0x00	; 0
     840:	ec 53       	subi	r30, 0x3C	; 60
     842:	f5 4c       	sbci	r31, 0xC5	; 197
     844:	10 82       	st	Z, r1
    iLED[EYE[R][L]] = 0;
     846:	e0 91 99 bc 	lds	r30, 0xBC99	; 0x80bc99 <__bss_end+0x8185>
     84a:	f0 e0       	ldi	r31, 0x00	; 0
     84c:	ec 53       	subi	r30, 0x3C	; 60
     84e:	f5 4c       	sbci	r31, 0xC5	; 197
     850:	10 82       	st	Z, r1
    iLED[EYE[R][R]] = 0;
     852:	e0 91 98 bc 	lds	r30, 0xBC98	; 0x80bc98 <__bss_end+0x8184>
     856:	f0 e0       	ldi	r31, 0x00	; 0
     858:	ec 53       	subi	r30, 0x3C	; 60
     85a:	f5 4c       	sbci	r31, 0xC5	; 197
     85c:	10 82       	st	Z, r1
     85e:	a2 ea       	ldi	r26, 0xA2	; 162
     860:	bc eb       	ldi	r27, 0xBC	; 188
    for (int i=0; i<6; i++ )
        iLED[HCKR[G][i]] = 0;
     862:	ed 91       	ld	r30, X+
     864:	f0 e0       	ldi	r31, 0x00	; 0
     866:	ec 53       	subi	r30, 0x3C	; 60
     868:	f5 4c       	sbci	r31, 0xC5	; 197
     86a:	10 82       	st	Z, r1
    iLED[CAT]       = 0;
    iLED[EYE[G][L]] = 0;
    iLED[EYE[G][R]] = 0;
    iLED[EYE[R][L]] = 0;
    iLED[EYE[R][R]] = 0;
    for (int i=0; i<6; i++ )
     86c:	8c eb       	ldi	r24, 0xBC	; 188
     86e:	a8 3a       	cpi	r26, 0xA8	; 168
     870:	b8 07       	cpc	r27, r24
     872:	b9 f7       	brne	.-18     	; 0x862 <initMaze+0x52>
        iLED[HCKR[G][i]] = 0;
}
     874:	08 95       	ret

00000876 <showFieldStrength>:

void showFieldStrength(int16_t val) {
    uint8_t count;
    int16_t tmp;

    tmp = abs(val);
     876:	97 ff       	sbrs	r25, 7
     878:	03 c0       	rjmp	.+6      	; 0x880 <showFieldStrength+0xa>
     87a:	91 95       	neg	r25
     87c:	81 95       	neg	r24
     87e:	91 09       	sbc	r25, r1

    if ( tmp*2 > HALL_LOW )
     880:	9c 01       	movw	r18, r24
     882:	22 0f       	add	r18, r18
     884:	33 1f       	adc	r19, r19
     886:	29 37       	cpi	r18, 0x79	; 121
     888:	31 05       	cpc	r19, r1
     88a:	44 f0       	brlt	.+16     	; 0x89c <showFieldStrength+0x26>
        gameNow = MAZE;
     88c:	41 e0       	ldi	r20, 0x01	; 1
     88e:	40 93 38 38 	sts	0x3838, r20	; 0x803838 <gameNow>

    if ( tmp*2 < HALL_LOW )
        count = 0;
    else if ( tmp   < HALL_LOW )
     892:	88 37       	cpi	r24, 0x78	; 120
     894:	91 05       	cpc	r25, r1
     896:	74 f4       	brge	.+28     	; 0x8b4 <showFieldStrength+0x3e>
        count = 1;
     898:	81 e0       	ldi	r24, 0x01	; 1
     89a:	1f c0       	rjmp	.+62     	; 0x8da <showFieldStrength+0x64>
    tmp = abs(val);

    if ( tmp*2 > HALL_LOW )
        gameNow = MAZE;

    if ( tmp*2 < HALL_LOW )
     89c:	28 37       	cpi	r18, 0x78	; 120
     89e:	31 05       	cpc	r19, r1
     8a0:	29 f4       	brne	.+10     	; 0x8ac <showFieldStrength+0x36>
        count = 0;
    else if ( tmp   < HALL_LOW )
     8a2:	88 37       	cpi	r24, 0x78	; 120
     8a4:	91 05       	cpc	r25, r1
     8a6:	24 f4       	brge	.+8      	; 0x8b0 <showFieldStrength+0x3a>
        count = 1;
     8a8:	81 e0       	ldi	r24, 0x01	; 1
     8aa:	11 c0       	rjmp	.+34     	; 0x8ce <showFieldStrength+0x58>

    if ( tmp*2 > HALL_LOW )
        gameNow = MAZE;

    if ( tmp*2 < HALL_LOW )
        count = 0;
     8ac:	80 e0       	ldi	r24, 0x00	; 0
     8ae:	0f c0       	rjmp	.+30     	; 0x8ce <showFieldStrength+0x58>
    else if ( tmp   < HALL_LOW )
        count = 1;
    else if ( tmp*2 < HALL_HIGH )
        count = 2;
     8b0:	82 e0       	ldi	r24, 0x02	; 2
     8b2:	0d c0       	rjmp	.+26     	; 0x8ce <showFieldStrength+0x58>

    if ( tmp*2 < HALL_LOW )
        count = 0;
    else if ( tmp   < HALL_LOW )
        count = 1;
    else if ( tmp*2 < HALL_HIGH )
     8b4:	2c 32       	cpi	r18, 0x2C	; 44
     8b6:	41 e0       	ldi	r20, 0x01	; 1
     8b8:	34 07       	cpc	r19, r20
     8ba:	74 f0       	brlt	.+28     	; 0x8d8 <showFieldStrength+0x62>
        count = 2;
    else if ( tmp*3 < HALL_HIGH*2 )
     8bc:	28 0f       	add	r18, r24
     8be:	39 1f       	adc	r19, r25
     8c0:	28 35       	cpi	r18, 0x58	; 88
     8c2:	32 40       	sbci	r19, 0x02	; 2
     8c4:	5c f1       	brlt	.+86     	; 0x91c <showFieldStrength+0xa6>
        count = 3;
    else if ( tmp   < HALL_HIGH )
     8c6:	8c 32       	cpi	r24, 0x2C	; 44
     8c8:	91 40       	sbci	r25, 0x01	; 1
     8ca:	54 f1       	brlt	.+84     	; 0x920 <showFieldStrength+0xaa>
        count = 4;
    else
        count = 5;
     8cc:	85 e0       	ldi	r24, 0x05	; 5

    if (gameNow == MAZE) {
     8ce:	90 91 38 38 	lds	r25, 0x3838	; 0x803838 <gameNow>
     8d2:	91 30       	cpi	r25, 0x01	; 1
     8d4:	39 f5       	brne	.+78     	; 0x924 <showFieldStrength+0xae>
     8d6:	01 c0       	rjmp	.+2      	; 0x8da <showFieldStrength+0x64>
    if ( tmp*2 < HALL_LOW )
        count = 0;
    else if ( tmp   < HALL_LOW )
        count = 1;
    else if ( tmp*2 < HALL_HIGH )
        count = 2;
     8d8:	82 e0       	ldi	r24, 0x02	; 2
     8da:	ee e8       	ldi	r30, 0x8E	; 142
     8dc:	fc eb       	ldi	r31, 0xBC	; 188
     8de:	90 e0       	ldi	r25, 0x00	; 0
        count = 5;

    if (gameNow == MAZE) {
        for (uint8_t i=0; i<5; i++) {
            if (i<count) {
                iLED[WING[L][i]] = dimValue;
     8e0:	a5 81       	ldd	r26, Z+5	; 0x05
     8e2:	b0 e0       	ldi	r27, 0x00	; 0
    else
        count = 5;

    if (gameNow == MAZE) {
        for (uint8_t i=0; i<5; i++) {
            if (i<count) {
     8e4:	98 17       	cp	r25, r24
     8e6:	68 f4       	brcc	.+26     	; 0x902 <showFieldStrength+0x8c>
                iLED[WING[L][i]] = dimValue;
     8e8:	20 91 0b 38 	lds	r18, 0x380B	; 0x80380b <dimValue>
     8ec:	ac 53       	subi	r26, 0x3C	; 60
     8ee:	b5 4c       	sbci	r27, 0xC5	; 197
     8f0:	2c 93       	st	X, r18
                iLED[WING[R][i]] = dimValue;
     8f2:	a0 81       	ld	r26, Z
     8f4:	b0 e0       	ldi	r27, 0x00	; 0
     8f6:	20 91 0b 38 	lds	r18, 0x380B	; 0x80380b <dimValue>
     8fa:	ac 53       	subi	r26, 0x3C	; 60
     8fc:	b5 4c       	sbci	r27, 0xC5	; 197
     8fe:	2c 93       	st	X, r18
     900:	08 c0       	rjmp	.+16     	; 0x912 <showFieldStrength+0x9c>
            } else {
                iLED[WING[L][i]] = 0;
     902:	ac 53       	subi	r26, 0x3C	; 60
     904:	b5 4c       	sbci	r27, 0xC5	; 197
     906:	1c 92       	st	X, r1
                iLED[WING[R][i]] = 0;
     908:	a0 81       	ld	r26, Z
     90a:	b0 e0       	ldi	r27, 0x00	; 0
     90c:	ac 53       	subi	r26, 0x3C	; 60
     90e:	b5 4c       	sbci	r27, 0xC5	; 197
     910:	1c 92       	st	X, r1
        count = 4;
    else
        count = 5;

    if (gameNow == MAZE) {
        for (uint8_t i=0; i<5; i++) {
     912:	9f 5f       	subi	r25, 0xFF	; 255
     914:	31 96       	adiw	r30, 0x01	; 1
     916:	95 30       	cpi	r25, 0x05	; 5
     918:	19 f7       	brne	.-58     	; 0x8e0 <showFieldStrength+0x6a>
     91a:	08 95       	ret
    else if ( tmp   < HALL_LOW )
        count = 1;
    else if ( tmp*2 < HALL_HIGH )
        count = 2;
    else if ( tmp*3 < HALL_HIGH*2 )
        count = 3;
     91c:	83 e0       	ldi	r24, 0x03	; 3
     91e:	d7 cf       	rjmp	.-82     	; 0x8ce <showFieldStrength+0x58>
    else if ( tmp   < HALL_HIGH )
        count = 4;
     920:	84 e0       	ldi	r24, 0x04	; 4
     922:	d5 cf       	rjmp	.-86     	; 0x8ce <showFieldStrength+0x58>
     924:	08 95       	ret

00000926 <MagnetMaze>:
        }
    }
}

// Main game loop
uint8_t MagnetMaze(){
     926:	cf 93       	push	r28
     928:	df 93       	push	r29
    if (gameNow == MAZE && idleTimeout(mazeLastActive,MAZE_MAX_IDLE)) {
     92a:	80 91 38 38 	lds	r24, 0x3838	; 0x803838 <gameNow>
     92e:	81 30       	cpi	r24, 0x01	; 1
     930:	71 f4       	brne	.+28     	; 0x94e <MagnetMaze+0x28>
     932:	6a e0       	ldi	r22, 0x0A	; 10
     934:	70 e0       	ldi	r23, 0x00	; 0
     936:	80 91 41 38 	lds	r24, 0x3841	; 0x803841 <mazeLastActive>
     93a:	90 91 42 38 	lds	r25, 0x3842	; 0x803842 <mazeLastActive+0x1>
     93e:	0e 94 c4 0c 	call	0x1988	; 0x1988 <idleTimeout>
     942:	88 23       	and	r24, r24
     944:	21 f0       	breq	.+8      	; 0x94e <MagnetMaze+0x28>
        /* clean up maze game and go back to text game */
        initMaze();
     946:	64 df       	rcall	.-312    	; 0x810 <initMaze>
        gameNow = TEXT;
     948:	10 92 38 38 	sts	0x3838, r1	; 0x803838 <gameNow>
        return 0;
     94c:	eb c0       	rjmp	.+470    	; 0xb24 <MagnetMaze+0x1fe>

    if (CheckState(MAZE_COMPLETED))
        return 0;

    */
    if ( (gameNow != TEXT) && (gameNow != MAZE) )
     94e:	80 91 38 38 	lds	r24, 0x3838	; 0x803838 <gameNow>
     952:	82 30       	cpi	r24, 0x02	; 2
     954:	08 f0       	brcs	.+2      	; 0x958 <MagnetMaze+0x32>
     956:	e6 c0       	rjmp	.+460    	; 0xb24 <MagnetMaze+0x1fe>
        return 0;

    if (calHall == 0)
     958:	80 91 ed 3a 	lds	r24, 0x3AED	; 0x803aed <calHall>
     95c:	90 91 ee 3a 	lds	r25, 0x3AEE	; 0x803aee <calHall+0x1>
     960:	89 2b       	or	r24, r25
     962:	41 f4       	brne	.+16     	; 0x974 <MagnetMaze+0x4e>
        calHall = adcHall;
     964:	80 91 b5 3a 	lds	r24, 0x3AB5	; 0x803ab5 <adcHall>
     968:	90 91 b6 3a 	lds	r25, 0x3AB6	; 0x803ab6 <adcHall+0x1>
     96c:	80 93 ed 3a 	sts	0x3AED, r24	; 0x803aed <calHall>
     970:	90 93 ee 3a 	sts	0x3AEE, r25	; 0x803aee <calHall+0x1>

    int16_t valHall = adcHall - calHall;
     974:	c0 91 b5 3a 	lds	r28, 0x3AB5	; 0x803ab5 <adcHall>
     978:	d0 91 b6 3a 	lds	r29, 0x3AB6	; 0x803ab6 <adcHall+0x1>
     97c:	80 91 ed 3a 	lds	r24, 0x3AED	; 0x803aed <calHall>
     980:	90 91 ee 3a 	lds	r25, 0x3AEE	; 0x803aee <calHall+0x1>
     984:	c8 1b       	sub	r28, r24
     986:	d9 0b       	sbc	r29, r25
    showFieldStrength(valHall);
     988:	ce 01       	movw	r24, r28
     98a:	75 df       	rcall	.-278    	; 0x876 <showFieldStrength>

    switch (curHallState) {
     98c:	80 91 47 38 	lds	r24, 0x3847	; 0x803847 <curHallState>
     990:	81 30       	cpi	r24, 0x01	; 1
     992:	89 f0       	breq	.+34     	; 0x9b6 <MagnetMaze+0x90>
     994:	18 f0       	brcs	.+6      	; 0x99c <MagnetMaze+0x76>
     996:	82 30       	cpi	r24, 0x02	; 2
     998:	c1 f0       	breq	.+48     	; 0x9ca <MagnetMaze+0xa4>
     99a:	1f c0       	rjmp	.+62     	; 0x9da <MagnetMaze+0xb4>
        case 0:
            if ( valHall + HALL_HIGH < 0 ) {
     99c:	c4 3d       	cpi	r28, 0xD4	; 212
     99e:	9e ef       	ldi	r25, 0xFE	; 254
     9a0:	d9 07       	cpc	r29, r25
     9a2:	14 f4       	brge	.+4      	; 0x9a8 <MagnetMaze+0x82>
                newHallState = 1;
     9a4:	91 e0       	ldi	r25, 0x01	; 1
     9a6:	04 c0       	rjmp	.+8      	; 0x9b0 <MagnetMaze+0x8a>
            } else if ( valHall - HALL_HIGH > 0 ) {
     9a8:	cd 32       	cpi	r28, 0x2D	; 45
     9aa:	d1 40       	sbci	r29, 0x01	; 1
     9ac:	5c f0       	brlt	.+22     	; 0x9c4 <MagnetMaze+0x9e>
                newHallState = 2;
     9ae:	92 e0       	ldi	r25, 0x02	; 2
     9b0:	90 93 46 38 	sts	0x3846, r25	; 0x803846 <newHallState>
     9b4:	12 c0       	rjmp	.+36     	; 0x9da <MagnetMaze+0xb4>
                newHallState = 0;
            }
            break;
        
        case 1:
            if ( valHall - HALL_HIGH > 0 ) {
     9b6:	cd 32       	cpi	r28, 0x2D	; 45
     9b8:	91 e0       	ldi	r25, 0x01	; 1
     9ba:	d9 07       	cpc	r29, r25
     9bc:	c4 f7       	brge	.-16     	; 0x9ae <MagnetMaze+0x88>
                newHallState = 2;
            } else if ( valHall + HALL_LOW > 0 ) {
     9be:	c9 38       	cpi	r28, 0x89	; 137
     9c0:	df 4f       	sbci	r29, 0xFF	; 255
     9c2:	84 f3       	brlt	.-32     	; 0x9a4 <MagnetMaze+0x7e>
            if ( valHall + HALL_HIGH < 0 ) {
                newHallState = 1;
            } else if ( valHall - HALL_HIGH > 0 ) {
                newHallState = 2;
            } else {
                newHallState = 0;
     9c4:	10 92 46 38 	sts	0x3846, r1	; 0x803846 <newHallState>
     9c8:	08 c0       	rjmp	.+16     	; 0x9da <MagnetMaze+0xb4>
                newHallState = 1;
            }
            break;
        
        case 2:
            if ( valHall + HALL_HIGH < 0 ) {
     9ca:	c4 3d       	cpi	r28, 0xD4	; 212
     9cc:	9e ef       	ldi	r25, 0xFE	; 254
     9ce:	d9 07       	cpc	r29, r25
     9d0:	4c f3       	brlt	.-46     	; 0x9a4 <MagnetMaze+0x7e>
                newHallState = 1;
            } else if ( valHall - HALL_LOW < 0 ) {
     9d2:	c8 37       	cpi	r28, 0x78	; 120
     9d4:	d1 05       	cpc	r29, r1
     9d6:	b4 f3       	brlt	.-20     	; 0x9c4 <MagnetMaze+0x9e>
     9d8:	ea cf       	rjmp	.-44     	; 0x9ae <MagnetMaze+0x88>
            }
            break;
    }

    /* activate led for hallstate */
    iLED[CAT] = (newHallState ? dimValue : 0);
     9da:	c0 91 8a bc 	lds	r28, 0xBC8A	; 0x80bc8a <__bss_end+0x8176>
     9de:	ec 2f       	mov	r30, r28
     9e0:	f0 e0       	ldi	r31, 0x00	; 0
     9e2:	90 91 46 38 	lds	r25, 0x3846	; 0x803846 <newHallState>
     9e6:	99 23       	and	r25, r25
     9e8:	19 f0       	breq	.+6      	; 0x9f0 <MagnetMaze+0xca>
     9ea:	20 91 0b 38 	lds	r18, 0x380B	; 0x80380b <dimValue>
     9ee:	01 c0       	rjmp	.+2      	; 0x9f2 <MagnetMaze+0xcc>
     9f0:	20 e0       	ldi	r18, 0x00	; 0
     9f2:	ec 53       	subi	r30, 0x3C	; 60
     9f4:	f5 4c       	sbci	r31, 0xC5	; 197
     9f6:	20 83       	st	Z, r18

    if (newHallState != curHallState) {
     9f8:	89 17       	cp	r24, r25
     9fa:	09 f4       	brne	.+2      	; 0x9fe <MagnetMaze+0xd8>
        /* keep track of time to enable an idle timeout to exit the game */
        mazeLastActive = getClock();
     9fc:	93 c0       	rjmp	.+294    	; 0xb24 <MagnetMaze+0x1fe>
     9fe:	b5 d7       	rcall	.+3946   	; 0x196a <getClock>
     a00:	80 93 41 38 	sts	0x3841, r24	; 0x803841 <mazeLastActive>
     a04:	90 93 42 38 	sts	0x3842, r25	; 0x803842 <mazeLastActive+0x1>

        /* Make the maze work regardless of badge orientation */
        if ((mazePos == 0) && (newHallState != 0))
     a08:	20 91 45 38 	lds	r18, 0x3845	; 0x803845 <mazePos>
     a0c:	80 91 46 38 	lds	r24, 0x3846	; 0x803846 <newHallState>
     a10:	21 11       	cpse	r18, r1
     a12:	08 c0       	rjmp	.+16     	; 0xa24 <MagnetMaze+0xfe>
     a14:	88 23       	and	r24, r24
     a16:	31 f0       	breq	.+12     	; 0xa24 <MagnetMaze+0xfe>
            inverted = (newHallState != mazeCode[0]) ? TRUE : FALSE;
     a18:	91 e0       	ldi	r25, 0x01	; 1
     a1a:	81 30       	cpi	r24, 0x01	; 1
     a1c:	09 f4       	brne	.+2      	; 0xa20 <MagnetMaze+0xfa>
     a1e:	90 e0       	ldi	r25, 0x00	; 0
     a20:	90 93 43 38 	sts	0x3843, r25	; 0x803843 <inverted>

        curHallState = newHallState;
     a24:	80 93 47 38 	sts	0x3847, r24	; 0x803847 <curHallState>
        
        if (curHallState != 0) {
     a28:	88 23       	and	r24, r24
     a2a:	09 f4       	brne	.+2      	; 0xa2e <MagnetMaze+0x108>
     a2c:	7b c0       	rjmp	.+246    	; 0xb24 <MagnetMaze+0x1fe>
            gameNow = MAZE;
     a2e:	91 e0       	ldi	r25, 0x01	; 1
     a30:	90 93 38 38 	sts	0x3838, r25	; 0x803838 <gameNow>
            if ( (inverted ? curHallState^3 : curHallState) == mazeCode[mazePos]) {
     a34:	90 91 43 38 	lds	r25, 0x3843	; 0x803843 <inverted>
     a38:	99 23       	and	r25, r25
     a3a:	11 f0       	breq	.+4      	; 0xa40 <MagnetMaze+0x11a>
     a3c:	93 e0       	ldi	r25, 0x03	; 3
     a3e:	89 27       	eor	r24, r25
     a40:	90 e0       	ldi	r25, 0x00	; 0
     a42:	e2 2f       	mov	r30, r18
     a44:	f0 e0       	ldi	r31, 0x00	; 0
     a46:	e8 55       	subi	r30, 0x58	; 88
     a48:	f3 44       	sbci	r31, 0x43	; 67
     a4a:	40 81       	ld	r20, Z
     a4c:	50 e0       	ldi	r21, 0x00	; 0
     a4e:	84 17       	cp	r24, r20
     a50:	95 07       	cpc	r25, r21
     a52:	91 f4       	brne	.+36     	; 0xa78 <MagnetMaze+0x152>
                mazeState &= TRUE;
     a54:	80 91 0c 38 	lds	r24, 0x380C	; 0x80380c <mazeState>
     a58:	81 70       	andi	r24, 0x01	; 1
     a5a:	80 93 0c 38 	sts	0x380C, r24	; 0x80380c <mazeState>
                iLED[EYE[R][L]] = 0;
     a5e:	e0 91 99 bc 	lds	r30, 0xBC99	; 0x80bc99 <__bss_end+0x8185>
     a62:	f0 e0       	ldi	r31, 0x00	; 0
     a64:	ec 53       	subi	r30, 0x3C	; 60
     a66:	f5 4c       	sbci	r31, 0xC5	; 197
     a68:	10 82       	st	Z, r1
                iLED[EYE[R][R]] = 0;
     a6a:	e0 91 98 bc 	lds	r30, 0xBC98	; 0x80bc98 <__bss_end+0x8184>
     a6e:	f0 e0       	ldi	r31, 0x00	; 0
     a70:	ec 53       	subi	r30, 0x3C	; 60
     a72:	f5 4c       	sbci	r31, 0xC5	; 197
     a74:	10 82       	st	Z, r1
     a76:	02 c0       	rjmp	.+4      	; 0xa7c <MagnetMaze+0x156>
            } else {
                mazeState = FALSE;
     a78:	10 92 0c 38 	sts	0x380C, r1	; 0x80380c <mazeState>
                /* play tone BAD */
            }
            mazePos++;
     a7c:	81 e0       	ldi	r24, 0x01	; 1
     a7e:	82 0f       	add	r24, r18
     a80:	80 93 45 38 	sts	0x3845, r24	; 0x803845 <mazePos>
            mazeCnt++;            
     a84:	90 91 44 38 	lds	r25, 0x3844	; 0x803844 <mazeCnt>
     a88:	9f 5f       	subi	r25, 0xFF	; 255
            if (mazeCnt >= 3) {
     a8a:	93 30       	cpi	r25, 0x03	; 3
     a8c:	18 f4       	brcc	.+6      	; 0xa94 <MagnetMaze+0x16e>
            } else {
                mazeState = FALSE;
                /* play tone BAD */
            }
            mazePos++;
            mazeCnt++;            
     a8e:	90 93 44 38 	sts	0x3844, r25	; 0x803844 <mazeCnt>
     a92:	48 c0       	rjmp	.+144    	; 0xb24 <MagnetMaze+0x1fe>
            if (mazeCnt >= 3) {
                mazeCnt = 0;
     a94:	10 92 44 38 	sts	0x3844, r1	; 0x803844 <mazeCnt>
                if (mazeState == TRUE) {
     a98:	90 91 0c 38 	lds	r25, 0x380C	; 0x80380c <mazeState>
     a9c:	91 30       	cpi	r25, 0x01	; 1
     a9e:	79 f5       	brne	.+94     	; 0xafe <MagnetMaze+0x1d8>
                    /* play tone GOOD */
                    iLED[HCKR[G][(mazePos/3)-1]] = dimValue;
     aa0:	eb ea       	ldi	r30, 0xAB	; 171
     aa2:	8e 9f       	mul	r24, r30
     aa4:	e1 2d       	mov	r30, r1
     aa6:	11 24       	eor	r1, r1
     aa8:	e6 95       	lsr	r30
     aaa:	f0 e0       	ldi	r31, 0x00	; 0
     aac:	e4 56       	subi	r30, 0x64	; 100
     aae:	f3 44       	sbci	r31, 0x43	; 67
     ab0:	e5 81       	ldd	r30, Z+5	; 0x05
     ab2:	f0 e0       	ldi	r31, 0x00	; 0
     ab4:	90 91 0b 38 	lds	r25, 0x380B	; 0x80380b <dimValue>
     ab8:	ec 53       	subi	r30, 0x3C	; 60
     aba:	f5 4c       	sbci	r31, 0xC5	; 197
     abc:	90 83       	st	Z, r25
                    if (mazePos == sizeof(mazeCode)) {
     abe:	82 31       	cpi	r24, 0x12	; 18
                        UpdateState(MAZE_COMPLETED);
     ac0:	89 f5       	brne	.+98     	; 0xb24 <MagnetMaze+0x1fe>
     ac2:	8d e7       	ldi	r24, 0x7D	; 125
     ac4:	52 d5       	rcall	.+2724   	; 0x156a <UpdateState>
                        iLED[CAT]       = 0;
     ac6:	ec 2f       	mov	r30, r28
     ac8:	f0 e0       	ldi	r31, 0x00	; 0
     aca:	ec 53       	subi	r30, 0x3C	; 60
     acc:	f5 4c       	sbci	r31, 0xC5	; 197
     ace:	10 82       	st	Z, r1
                        iLED[EYE[R][L]] = 0;
     ad0:	e0 91 99 bc 	lds	r30, 0xBC99	; 0x80bc99 <__bss_end+0x8185>
     ad4:	f0 e0       	ldi	r31, 0x00	; 0
     ad6:	ec 53       	subi	r30, 0x3C	; 60
     ad8:	f5 4c       	sbci	r31, 0xC5	; 197
     ada:	10 82       	st	Z, r1
                        iLED[EYE[R][R]] = 0;
     adc:	e0 91 98 bc 	lds	r30, 0xBC98	; 0x80bc98 <__bss_end+0x8184>
     ae0:	f0 e0       	ldi	r31, 0x00	; 0
     ae2:	ec 53       	subi	r30, 0x3C	; 60
     ae4:	f5 4c       	sbci	r31, 0xC5	; 197
     ae6:	10 82       	st	Z, r1
                        iLED[EYE[G][L]] = dimValue;
     ae8:	e0 91 9b bc 	lds	r30, 0xBC9B	; 0x80bc9b <__bss_end+0x8187>
     aec:	f0 e0       	ldi	r31, 0x00	; 0
     aee:	80 91 0b 38 	lds	r24, 0x380B	; 0x80380b <dimValue>
     af2:	ec 53       	subi	r30, 0x3C	; 60
     af4:	f5 4c       	sbci	r31, 0xC5	; 197
                        iLED[EYE[G][R]] = dimValue;
     af6:	80 83       	st	Z, r24
     af8:	e0 91 9a bc 	lds	r30, 0xBC9A	; 0x80bc9a <__bss_end+0x8186>
                        /*state = STATE_MUSIC;*/
                    }
                } else {
                    initMaze();
     afc:	0d c0       	rjmp	.+26     	; 0xb18 <MagnetMaze+0x1f2>
     afe:	88 de       	rcall	.-752    	; 0x810 <initMaze>
                    gameNow   = TEXT;
     b00:	10 92 38 38 	sts	0x3838, r1	; 0x803838 <gameNow>
                    iLED[EYE[R][L]] = dimValue;
     b04:	e0 91 99 bc 	lds	r30, 0xBC99	; 0x80bc99 <__bss_end+0x8185>
     b08:	f0 e0       	ldi	r31, 0x00	; 0
     b0a:	80 91 0b 38 	lds	r24, 0x380B	; 0x80380b <dimValue>
     b0e:	ec 53       	subi	r30, 0x3C	; 60
     b10:	f5 4c       	sbci	r31, 0xC5	; 197
     b12:	80 83       	st	Z, r24
                    iLED[EYE[R][R]] = dimValue;
     b14:	e0 91 98 bc 	lds	r30, 0xBC98	; 0x80bc98 <__bss_end+0x8184>
     b18:	f0 e0       	ldi	r31, 0x00	; 0
     b1a:	80 91 0b 38 	lds	r24, 0x380B	; 0x80380b <dimValue>
     b1e:	ec 53       	subi	r30, 0x3C	; 60
     b20:	f5 4c       	sbci	r31, 0xC5	; 197
     b22:	80 83       	st	Z, r24
                }
            }
        }
    }
    return 0;
}
     b24:	80 e0       	ldi	r24, 0x00	; 0
     b26:	df 91       	pop	r29
     b28:	cf 91       	pop	r28
     b2a:	08 95       	ret

00000b2c <Setup>:
#include <I2C.h>                //Fixed a semi-crappy lib found on internet, replace with interrupt driven one? If so, check hardware errata pdf!

volatile uint16_t tmp16bit;    
volatile uint8_t mask[8] = {0x01, 0x03, 0x07, 0x0f, 0x1f, 0x3f, 0x7f, 0xff};

void Setup(){
     b2c:	cf 93       	push	r28
     b2e:	df 93       	push	r29
    cli();
     b30:	f8 94       	cli

    //Set up clock at 10MHz
    CCP = CCP_IOREG_gc;
     b32:	88 ed       	ldi	r24, 0xD8	; 216
     b34:	84 bf       	out	0x34, r24	; 52
    CLKCTRL_MCLKCTRLB = 0x01;
     b36:	c1 e0       	ldi	r28, 0x01	; 1
     b38:	c0 93 61 00 	sts	0x0061, r28	; 0x800061 <__TEXT_REGION_LENGTH__+0x700061>

    //Set I/O direction registers
    PORTA_DIR = 0b01001010;
     b3c:	8a e4       	ldi	r24, 0x4A	; 74
     b3e:	80 93 00 04 	sts	0x0400, r24	; 0x800400 <__TEXT_REGION_LENGTH__+0x700400>
    PORTB_DIR = 0b01111100;
     b42:	8c e7       	ldi	r24, 0x7C	; 124
     b44:	80 93 20 04 	sts	0x0420, r24	; 0x800420 <__TEXT_REGION_LENGTH__+0x700420>
    PORTC_DIR = 0b00111111;
     b48:	9f e3       	ldi	r25, 0x3F	; 63
     b4a:	90 93 40 04 	sts	0x0440, r25	; 0x800440 <__TEXT_REGION_LENGTH__+0x700440>

    //Invert some pins for correcting LED reversal error
    PORTC_PIN3CTRL |= 0x80;
     b4e:	80 91 53 04 	lds	r24, 0x0453	; 0x800453 <__TEXT_REGION_LENGTH__+0x700453>
     b52:	80 68       	ori	r24, 0x80	; 128
     b54:	80 93 53 04 	sts	0x0453, r24	; 0x800453 <__TEXT_REGION_LENGTH__+0x700453>
    PORTC_PIN4CTRL |= 0x80;
     b58:	80 91 54 04 	lds	r24, 0x0454	; 0x800454 <__TEXT_REGION_LENGTH__+0x700454>
     b5c:	80 68       	ori	r24, 0x80	; 128
     b5e:	80 93 54 04 	sts	0x0454, r24	; 0x800454 <__TEXT_REGION_LENGTH__+0x700454>
    PORTC_PIN5CTRL |= 0x80;
     b62:	80 91 55 04 	lds	r24, 0x0455	; 0x800455 <__TEXT_REGION_LENGTH__+0x700455>
     b66:	80 68       	ori	r24, 0x80	; 128
     b68:	80 93 55 04 	sts	0x0455, r24	; 0x800455 <__TEXT_REGION_LENGTH__+0x700455>
    PORTB_PIN3CTRL |= 0x80;
     b6c:	80 91 33 04 	lds	r24, 0x0433	; 0x800433 <__TEXT_REGION_LENGTH__+0x700433>
     b70:	80 68       	ori	r24, 0x80	; 128
     b72:	80 93 33 04 	sts	0x0433, r24	; 0x800433 <__TEXT_REGION_LENGTH__+0x700433>
    PORTB_PIN4CTRL |= 0x80;
     b76:	80 91 34 04 	lds	r24, 0x0434	; 0x800434 <__TEXT_REGION_LENGTH__+0x700434>
     b7a:	80 68       	ori	r24, 0x80	; 128
     b7c:	80 93 34 04 	sts	0x0434, r24	; 0x800434 <__TEXT_REGION_LENGTH__+0x700434>
    PORTB_PIN5CTRL |= 0x80;
     b80:	80 91 35 04 	lds	r24, 0x0435	; 0x800435 <__TEXT_REGION_LENGTH__+0x700435>
     b84:	80 68       	ori	r24, 0x80	; 128
     b86:	80 93 35 04 	sts	0x0435, r24	; 0x800435 <__TEXT_REGION_LENGTH__+0x700435>
    PORTB_PIN2CTRL |= 0x80;
    PORTB_PIN6CTRL |= 0x80;
    */

    //UART (Alternative pins PA1=TxD, PA2=RxD, baudrate 9600, 8n1, RX and Buffer empty interrupts on)
    PORTMUX_CTRLB = 0x01;
     b8a:	c0 93 01 02 	sts	0x0201, r28	; 0x800201 <__TEXT_REGION_LENGTH__+0x700201>
    PORTA_OUTSET = 0x02;
     b8e:	d2 e0       	ldi	r29, 0x02	; 2
     b90:	d0 93 05 04 	sts	0x0405, r29	; 0x800405 <__TEXT_REGION_LENGTH__+0x700405>
    USART0_BAUD = (uint16_t)USART0_BAUD_RATE(115200);
     b94:	2b e5       	ldi	r18, 0x5B	; 91
     b96:	31 e0       	ldi	r19, 0x01	; 1
     b98:	20 93 08 08 	sts	0x0808, r18	; 0x800808 <__TEXT_REGION_LENGTH__+0x700808>
     b9c:	30 93 09 08 	sts	0x0809, r19	; 0x800809 <__TEXT_REGION_LENGTH__+0x700809>
    USART0_CTRLA = 0xA0; //Interrupts on
     ba0:	80 ea       	ldi	r24, 0xA0	; 160
     ba2:	80 93 05 08 	sts	0x0805, r24	; 0x800805 <__TEXT_REGION_LENGTH__+0x700805>
    USART0_CTRLB = 0xC0; //RX and TX on
     ba6:	80 ec       	ldi	r24, 0xC0	; 192
     ba8:	80 93 06 08 	sts	0x0806, r24	; 0x800806 <__TEXT_REGION_LENGTH__+0x700806>
    USART0_CTRLC = 0x03; //8 bits data, no parity, 1 stop bit
     bac:	83 e0       	ldi	r24, 0x03	; 3
     bae:	80 93 07 08 	sts	0x0807, r24	; 0x800807 <__TEXT_REGION_LENGTH__+0x700807>
     
    //GPIO registers 0..3 can be used for global variables used in ISR routines (ASM capability: IN, OUT, SBI, CBI, SBIS, SBIC)
    L_COL = 0;     //Used in LED array to hold currently driven column value
     bb2:	1c ba       	out	0x1c, r1	; 28
    RXCNT = 0;     //Used as UART receive counter
     bb4:	1d ba       	out	0x1d, r1	; 29
    AUPOS = 0;     //Used as audio input/output buffer counter
     bb6:	1e ba       	out	0x1e, r1	; 30
    GPIOR3 = 0;    //
     bb8:	1f ba       	out	0x1f, r1	; 31

    //Init TCA (split mode, f_CLK/16, PWM on 6 alternative pins, underflow int enabled, synced and started)
    TCA0_SPLIT_CTRLD = 1;
     bba:	c0 93 03 0a 	sts	0x0A03, r28	; 0x800a03 <__TEXT_REGION_LENGTH__+0x700a03>
    TCA0_SPLIT_CTRLA = (0x4)<<1;
     bbe:	88 e0       	ldi	r24, 0x08	; 8
     bc0:	80 93 00 0a 	sts	0x0A00, r24	; 0x800a00 <__TEXT_REGION_LENGTH__+0x700a00>
    PORTMUX_CTRLC = 0x3F;
     bc4:	90 93 02 02 	sts	0x0202, r25	; 0x800202 <__TEXT_REGION_LENGTH__+0x700202>
    TCA0_SPLIT_CTRLB = 0x77;
     bc8:	87 e7       	ldi	r24, 0x77	; 119
     bca:	80 93 01 0a 	sts	0x0A01, r24	; 0x800a01 <__TEXT_REGION_LENGTH__+0x700a01>
    TCA0_SPLIT_INTCTRL = 0x1;
     bce:	c0 93 0a 0a 	sts	0x0A0A, r28	; 0x800a0a <__TEXT_REGION_LENGTH__+0x700a0a>
    TCA0_SPLIT_CTRLESET = ((0x2)<<2)|0x3;
     bd2:	8b e0       	ldi	r24, 0x0B	; 11
     bd4:	80 93 05 0a 	sts	0x0A05, r24	; 0x800a05 <__TEXT_REGION_LENGTH__+0x700a05>
    TCA0_SPLIT_CTRLA |= 1;
     bd8:	80 91 00 0a 	lds	r24, 0x0A00	; 0x800a00 <__TEXT_REGION_LENGTH__+0x700a00>
     bdc:	81 60       	ori	r24, 0x01	; 1
     bde:	80 93 00 0a 	sts	0x0A00, r24	; 0x800a00 <__TEXT_REGION_LENGTH__+0x700a00>
     
    //Init TCB0 (compare value sets serial Tx pause between characters, uses TCA0 prescaler, enabled, interrupt disabled)
    TCB0_CTRLA = ((0x02)<<1)|0x01;
     be2:	85 e0       	ldi	r24, 0x05	; 5
     be4:	80 93 40 0a 	sts	0x0A40, r24	; 0x800a40 <__TEXT_REGION_LENGTH__+0x700a40>
    TCB0_CTRLB = 0;
     be8:	10 92 41 0a 	sts	0x0A41, r1	; 0x800a41 <__TEXT_REGION_LENGTH__+0x700a41>
    TCB0_CCMP = 0x01FF;
     bec:	8f ef       	ldi	r24, 0xFF	; 255
     bee:	91 e0       	ldi	r25, 0x01	; 1
     bf0:	80 93 4c 0a 	sts	0x0A4C, r24	; 0x800a4c <__TEXT_REGION_LENGTH__+0x700a4c>
     bf4:	90 93 4d 0a 	sts	0x0A4D, r25	; 0x800a4d <__TEXT_REGION_LENGTH__+0x700a4d>
    TCB0_INTCTRL = 0x00;     
     bf8:	10 92 45 0a 	sts	0x0A45, r1	; 0x800a45 <__TEXT_REGION_LENGTH__+0x700a45>
     
    //Init TCB1 (compare value sets audio sample rate (0x038B = 11025sps), enabled, interrupt enabled)
    TCB1_CTRLA = 0x01;
     bfc:	c0 93 50 0a 	sts	0x0A50, r28	; 0x800a50 <__TEXT_REGION_LENGTH__+0x700a50>
    TCB1_CTRLB = 0;
     c00:	10 92 51 0a 	sts	0x0A51, r1	; 0x800a51 <__TEXT_REGION_LENGTH__+0x700a51>
    TCB1_CCMP = 0x038B;
     c04:	8b e8       	ldi	r24, 0x8B	; 139
     c06:	93 e0       	ldi	r25, 0x03	; 3
     c08:	80 93 5c 0a 	sts	0x0A5C, r24	; 0x800a5c <__TEXT_REGION_LENGTH__+0x700a5c>
     c0c:	90 93 5d 0a 	sts	0x0A5D, r25	; 0x800a5d <__TEXT_REGION_LENGTH__+0x700a5d>
    TCB1_INTCTRL = 0x01;
     c10:	c0 93 55 0a 	sts	0x0A55, r28	; 0x800a55 <__TEXT_REGION_LENGTH__+0x700a55>

    //Init I2C (100kHz)
    I2C_init();
     c14:	b1 db       	rcall	.-2206   	; 0x378 <I2C_init>

    //VREF (DAC, ADC's)
    VREF_CTRLA   = 0x12;    //0x22 for audio in/out (2.5V), 0x12 for temperature in, audio out (1.1V/2.5V)
     c16:	82 e1       	ldi	r24, 0x12	; 18
     c18:	80 93 a0 00 	sts	0x00A0, r24	; 0x8000a0 <__TEXT_REGION_LENGTH__+0x7000a0>
    VREF_CTRLC   = 0x20;    //ADC1 reference at 2.5V
     c1c:	80 e2       	ldi	r24, 0x20	; 32
     c1e:	80 93 a2 00 	sts	0x00A2, r24	; 0x8000a2 <__TEXT_REGION_LENGTH__+0x7000a2>
    VREF_CTRLB   = 0x01;    //DAC0 ref forced enabled
     c22:	c0 93 a1 00 	sts	0x00A1, r28	; 0x8000a1 <__TEXT_REGION_LENGTH__+0x7000a1>

    //Init ADC0 (audio in, also controls DAC output rate, internal temperature?)
    ADC0_CTRLA   = 0x02;    //10 bit resolution, free running
     c26:	d0 93 00 06 	sts	0x0600, r29	; 0x800600 <__TEXT_REGION_LENGTH__+0x700600>
    ADC0_CTRLC   = 0x44;    //Reduced sample capacitor, internal reference, clock/32 => 24038sps
     c2a:	84 e4       	ldi	r24, 0x44	; 68
     c2c:	80 93 02 06 	sts	0x0602, r24	; 0x800602 <__TEXT_REGION_LENGTH__+0x700602>
    ADC0_MUXPOS  = 0x1E;    //Audio in: AIN7 at (0x07), Temperature: Internal sensor at (0x1E)
     c30:	8e e1       	ldi	r24, 0x1E	; 30
     c32:	80 93 06 06 	sts	0x0606, r24	; 0x800606 <__TEXT_REGION_LENGTH__+0x700606>
    ADC0_INTCTRL = 0x01;    //Result ready interrupt enabled
     c36:	c0 93 0a 06 	sts	0x060A, r28	; 0x80060a <__TEXT_REGION_LENGTH__+0x70060a>
    ADC0_CTRLA  |= 0x01;    //ADC0 enabled
     c3a:	80 91 00 06 	lds	r24, 0x0600	; 0x800600 <__TEXT_REGION_LENGTH__+0x700600>
     c3e:	81 60       	ori	r24, 0x01	; 1
     c40:	80 93 00 06 	sts	0x0600, r24	; 0x800600 <__TEXT_REGION_LENGTH__+0x700600>
    ADC0_COMMAND = 0x01;    //Start first conversion, after that it will run periodically.
     c44:	c0 93 08 06 	sts	0x0608, r28	; 0x800608 <__TEXT_REGION_LENGTH__+0x700608>

    //Init ADC1 (buttons and sensors: CH0=Photo transistor, CH1=Hall, CH4=Buttons)
    ADC1_CTRLA   = 0;
     c48:	10 92 40 06 	sts	0x0640, r1	; 0x800640 <__TEXT_REGION_LENGTH__+0x700640>
    ADC1_CTRLB   = 0x02;    //4 results automatically accumulated
     c4c:	d0 93 41 06 	sts	0x0641, r29	; 0x800641 <__TEXT_REGION_LENGTH__+0x700641>
    ADC1_CTRLC   = 0x52;    //Reduced sample capacitor, VDD as reference, clock/8
     c50:	82 e5       	ldi	r24, 0x52	; 82
     c52:	80 93 42 06 	sts	0x0642, r24	; 0x800642 <__TEXT_REGION_LENGTH__+0x700642>
    ADC1_SAMPCTRL= 0x04;    //Extend sampling time with 4 cycles (6 total)
     c56:	84 e0       	ldi	r24, 0x04	; 4
     c58:	80 93 45 06 	sts	0x0645, r24	; 0x800645 <__TEXT_REGION_LENGTH__+0x700645>
    ADC1_MUXPOS  = 0x04;    //Start with Buttons, for sensors, activate sensor power first.
     c5c:	80 93 46 06 	sts	0x0646, r24	; 0x800646 <__TEXT_REGION_LENGTH__+0x700646>
    ADC1_INTCTRL = 0x01;    //Result ready interrupt enabled
     c60:	c0 93 4a 06 	sts	0x064A, r28	; 0x80064a <__TEXT_REGION_LENGTH__+0x70064a>
    ADC1_CTRLA  |= 0x01;    //ADC0 enabled
     c64:	80 91 40 06 	lds	r24, 0x0640	; 0x800640 <__TEXT_REGION_LENGTH__+0x700640>
     c68:	81 60       	ori	r24, 0x01	; 1
     c6a:	80 93 40 06 	sts	0x0640, r24	; 0x800640 <__TEXT_REGION_LENGTH__+0x700640>
    ADC1_COMMAND = 0x01;    //Start single conversion
     c6e:	c0 93 48 06 	sts	0x0648, r28	; 0x800648 <__TEXT_REGION_LENGTH__+0x700648>

    //Init DAC0
    DAC0_CTRLA = 0x40;     //Enable output buffer (connect to pin)
     c72:	80 e4       	ldi	r24, 0x40	; 64
     c74:	80 93 a0 06 	sts	0x06A0, r24	; 0x8006a0 <__TEXT_REGION_LENGTH__+0x7006a0>
    DAC0_DATA = 0x80;      //Data value at half point (about 1.25V)
     c78:	80 e8       	ldi	r24, 0x80	; 128
     c7a:	80 93 a1 06 	sts	0x06A1, r24	; 0x8006a1 <__TEXT_REGION_LENGTH__+0x7006a1>
    DAC0_CTRLA |= 0x01;    //Enable DAC
     c7e:	80 91 a0 06 	lds	r24, 0x06A0	; 0x8006a0 <__TEXT_REGION_LENGTH__+0x7006a0>
     c82:	81 60       	ori	r24, 0x01	; 1
     c84:	80 93 a0 06 	sts	0x06A0, r24	; 0x8006a0 <__TEXT_REGION_LENGTH__+0x7006a0>
     
    //PIT and RTC interrupts
    while(RTC_STATUS & RTC_CTRLABUSY_bm);
     c88:	80 91 41 01 	lds	r24, 0x0141	; 0x800141 <__TEXT_REGION_LENGTH__+0x700141>
     c8c:	80 fd       	sbrc	r24, 0
     c8e:	fc cf       	rjmp	.-8      	; 0xc88 <Setup+0x15c>
    RTC_CTRLA          = (0x6)<<3;                         //Prescaler: /64
     c90:	80 e3       	ldi	r24, 0x30	; 48
     c92:	80 93 40 01 	sts	0x0140, r24	; 0x800140 <__TEXT_REGION_LENGTH__+0x700140>
    RTC_CLKSEL         = 0;                                //Clock source: internal 32768Hz clock
     c96:	10 92 47 01 	sts	0x0147, r1	; 0x800147 <__TEXT_REGION_LENGTH__+0x700147>
    while(RTC_STATUS & RTC_PERBUSY_bm);
     c9a:	80 91 41 01 	lds	r24, 0x0141	; 0x800141 <__TEXT_REGION_LENGTH__+0x700141>
     c9e:	82 fd       	sbrc	r24, 2
     ca0:	fc cf       	rjmp	.-8      	; 0xc9a <Setup+0x16e>
    RTC_PER            = 512*60;                           //60 second period (for clocking how long the device has been running?)
     ca2:	80 e0       	ldi	r24, 0x00	; 0
     ca4:	98 e7       	ldi	r25, 0x78	; 120
     ca6:	80 93 4a 01 	sts	0x014A, r24	; 0x80014a <__TEXT_REGION_LENGTH__+0x70014a>
     caa:	90 93 4b 01 	sts	0x014B, r25	; 0x80014b <__TEXT_REGION_LENGTH__+0x70014b>
    tmp16bit = (RTC_CNT + BTN_TMR)%RTC_PER;
     cae:	80 91 48 01 	lds	r24, 0x0148	; 0x800148 <__TEXT_REGION_LENGTH__+0x700148>
     cb2:	90 91 49 01 	lds	r25, 0x0149	; 0x800149 <__TEXT_REGION_LENGTH__+0x700149>
     cb6:	60 91 4a 01 	lds	r22, 0x014A	; 0x80014a <__TEXT_REGION_LENGTH__+0x70014a>
     cba:	70 91 4b 01 	lds	r23, 0x014B	; 0x80014b <__TEXT_REGION_LENGTH__+0x70014b>
     cbe:	82 96       	adiw	r24, 0x22	; 34
     cc0:	0e 94 e6 1d 	call	0x3bcc	; 0x3bcc <__udivmodhi4>
     cc4:	80 93 f1 3a 	sts	0x3AF1, r24	; 0x803af1 <tmp16bit>
     cc8:	90 93 f2 3a 	sts	0x3AF2, r25	; 0x803af2 <tmp16bit+0x1>
    while(RTC_STATUS & RTC_CMPBUSY_bm);
     ccc:	80 91 41 01 	lds	r24, 0x0141	; 0x800141 <__TEXT_REGION_LENGTH__+0x700141>
     cd0:	83 fd       	sbrc	r24, 3
     cd2:	fc cf       	rjmp	.-8      	; 0xccc <Setup+0x1a0>
    RTC_CMP            = tmp16bit;                         //Button timing
     cd4:	80 91 f1 3a 	lds	r24, 0x3AF1	; 0x803af1 <tmp16bit>
     cd8:	90 91 f2 3a 	lds	r25, 0x3AF2	; 0x803af2 <tmp16bit+0x1>
     cdc:	80 93 4c 01 	sts	0x014C, r24	; 0x80014c <__TEXT_REGION_LENGTH__+0x70014c>
     ce0:	90 93 4d 01 	sts	0x014D, r25	; 0x80014d <__TEXT_REGION_LENGTH__+0x70014d>
    RTC_INTCTRL        = 0x03;                             //RTC overflow interrupt enabled
     ce4:	83 e0       	ldi	r24, 0x03	; 3
     ce6:	80 93 42 01 	sts	0x0142, r24	; 0x800142 <__TEXT_REGION_LENGTH__+0x700142>
    RTC_PITINTCTRL     = 0x01;                             //PIT interrupt enabled
     cea:	81 e0       	ldi	r24, 0x01	; 1
     cec:	80 93 52 01 	sts	0x0152, r24	; 0x800152 <__TEXT_REGION_LENGTH__+0x700152>
    RTC_PITCTRLA       = (0x1)<<3;                         //Interrupt fires after 4 RTC clock cycles Rate=(RTCCLK/(PRESC*PERIOD)) 32768/256=128Hz
     cf0:	88 e0       	ldi	r24, 0x08	; 8
     cf2:	80 93 50 01 	sts	0x0150, r24	; 0x800150 <__TEXT_REGION_LENGTH__+0x700150>
    while(RTC_STATUS & RTC_CTRLABUSY_bm);      
     cf6:	80 91 41 01 	lds	r24, 0x0141	; 0x800141 <__TEXT_REGION_LENGTH__+0x700141>
     cfa:	80 fd       	sbrc	r24, 0
     cfc:	fc cf       	rjmp	.-8      	; 0xcf6 <Setup+0x1ca>
    RTC_CTRLA          |= 0x01;                            //Enable RTC
     cfe:	80 91 40 01 	lds	r24, 0x0140	; 0x800140 <__TEXT_REGION_LENGTH__+0x700140>
     d02:	81 60       	ori	r24, 0x01	; 1
     d04:	80 93 40 01 	sts	0x0140, r24	; 0x800140 <__TEXT_REGION_LENGTH__+0x700140>
    RTC_PITCTRLA       |= 0x01;                            //Enable PIT
     d08:	80 91 50 01 	lds	r24, 0x0150	; 0x800150 <__TEXT_REGION_LENGTH__+0x700150>
     d0c:	81 60       	ori	r24, 0x01	; 1
     d0e:	80 93 50 01 	sts	0x0150, r24	; 0x800150 <__TEXT_REGION_LENGTH__+0x700150>
     
    //Other inits
    serRx[0] = 0;           // Empty Rx buffer (first char is enough)
     d12:	10 92 6f 3a 	sts	0x3A6F, r1	; 0x803a6f <serRx>
    serTxAddr = &serRx[0];  // Point to first address of the Rx buffer
     d16:	8f e6       	ldi	r24, 0x6F	; 111
     d18:	9a e3       	ldi	r25, 0x3A	; 58
     d1a:	80 93 b3 3a 	sts	0x3AB3, r24	; 0x803ab3 <serTxAddr>
     d1e:	90 93 b4 3a 	sts	0x3AB4, r25	; 0x803ab4 <serTxAddr+0x1>

    sei();
     d22:	78 94       	sei
}
     d24:	df 91       	pop	r29
     d26:	cf 91       	pop	r28
     d28:	08 95       	ret

00000d2a <__vector_8>:

// TCA0 is used for driving the LED matrix at 488Hz (* 5 columns = 2440Hz). The lower 8 bit underflow interrupt is used to load new values and shift between columns.
ISR(TCA0_LUNF_vect){
     d2a:	1f 92       	push	r1
     d2c:	0f 92       	push	r0
     d2e:	0f b6       	in	r0, 0x3f	; 63
     d30:	0f 92       	push	r0
     d32:	11 24       	eor	r1, r1
     d34:	8f 93       	push	r24
     d36:	9f 93       	push	r25
     d38:	af 93       	push	r26
     d3a:	bf 93       	push	r27
     d3c:	ef 93       	push	r30
     d3e:	ff 93       	push	r31
    //Turn off all columns
    PORTC_OUTCLR = 0x07;
     d40:	87 e0       	ldi	r24, 0x07	; 7
     d42:	80 93 46 04 	sts	0x0446, r24	; 0x800446 <__TEXT_REGION_LENGTH__+0x700446>
    PORTB_OUTCLR = 0x44;
     d46:	84 e4       	ldi	r24, 0x44	; 68
     d48:	80 93 26 04 	sts	0x0426, r24	; 0x800426 <__TEXT_REGION_LENGTH__+0x700426>
    "ldi r25, 6        \n"
    "ld r24, %a[arr]+  \n"
    "st %a[wo]+, r24   \n"
    "dec r25           \n"
    "brne .-8          \n"
    :: [wo] "e" (&TCA0_SPLIT_LCMP0), [arr] "e" (&iLED[(L_COL<<3)]) : "r25", "r24", "cc", "memory");
     d4c:	ec b3       	in	r30, 0x1c	; 28
     d4e:	88 e0       	ldi	r24, 0x08	; 8
     d50:	e8 9f       	mul	r30, r24
     d52:	f0 01       	movw	r30, r0
     d54:	11 24       	eor	r1, r1
     d56:	ec 53       	subi	r30, 0x3C	; 60
     d58:	f5 4c       	sbci	r31, 0xC5	; 197
    //Turn off all columns
    PORTC_OUTCLR = 0x07;
    PORTB_OUTCLR = 0x44;

    //Write all of the compare registers of TCA0 with PWM values in array (rows)
    asm(
     d5a:	a8 e2       	ldi	r26, 0x28	; 40
     d5c:	ba e0       	ldi	r27, 0x0A	; 10
     d5e:	96 e0       	ldi	r25, 0x06	; 6
     d60:	81 91       	ld	r24, Z+
     d62:	8d 93       	st	X+, r24
     d64:	9a 95       	dec	r25
     d66:	e1 f7       	brne	.-8      	; 0xd60 <__vector_8+0x36>
    "st %a[wo]+, r24   \n"
    "dec r25           \n"
    "brne .-8          \n"
    :: [wo] "e" (&TCA0_SPLIT_LCMP0), [arr] "e" (&iLED[(L_COL<<3)]) : "r25", "r24", "cc", "memory");

    TCA0_SPLIT_CTRLESET = ((0x2)<<2)|0x3; //Sync timers: Moved this below the PWM value loading to fix the data shifting in asm above.
     d68:	8b e0       	ldi	r24, 0x0B	; 11
     d6a:	80 93 05 0a 	sts	0x0A05, r24	; 0x800a05 <__TEXT_REGION_LENGTH__+0x700a05>

    //Turn on the right column
    if (L_COL<3) {
     d6e:	8c b3       	in	r24, 0x1c	; 28
     d70:	83 30       	cpi	r24, 0x03	; 3
     d72:	58 f4       	brcc	.+22     	; 0xd8a <__vector_8+0x60>
        asm(
     d74:	8c b3       	in	r24, 0x1c	; 28
     d76:	91 e0       	ldi	r25, 0x01	; 1
     d78:	01 c0       	rjmp	.+2      	; 0xd7c <__vector_8+0x52>
     d7a:	99 0f       	add	r25, r25
     d7c:	8a 95       	dec	r24
     d7e:	ea f7       	brpl	.-6      	; 0xd7a <__vector_8+0x50>
     d80:	99 b9       	out	0x09, r25	; 9
     d82:	8c b3       	in	r24, 0x1c	; 28
     d84:	83 95       	inc	r24
     d86:	8c bb       	out	0x1c, r24	; 28
     d88:	0a c0       	rjmp	.+20     	; 0xd9e <__vector_8+0x74>
        "in r24, %[io0]  \n"
        "inc r24         \n"
        "out %[io0], r24 \n"
        :: [io0] "I" (&L_COL), [vpc] "I" (&VPORTC_OUT) : "r24", "r25", "cc");
        } else {
        asm(
     d8a:	8c b3       	in	r24, 0x1c	; 28
     d8c:	83 30       	cpi	r24, 0x03	; 3
     d8e:	21 f4       	brne	.+8      	; 0xd98 <__vector_8+0x6e>
     d90:	2a 9a       	sbi	0x05, 2	; 5
     d92:	83 95       	inc	r24
     d94:	8c bb       	out	0x1c, r24	; 28
     d96:	03 c0       	rjmp	.+6      	; 0xd9e <__vector_8+0x74>
     d98:	2e 9a       	sbi	0x05, 6	; 5
     d9a:	88 27       	eor	r24, r24
     d9c:	8c bb       	out	0x1c, r24	; 28
        "clr r24         \n"
        "out %[io0], r24 \n"
        :: [io0] "I" (&L_COL), [vpb] "I" (&VPORTB_OUT) : "r24", "cc");
    }
    
    if(timeout_I2C) --timeout_I2C;
     d9e:	80 91 5a 3a 	lds	r24, 0x3A5A	; 0x803a5a <timeout_I2C>
     da2:	88 23       	and	r24, r24
     da4:	29 f0       	breq	.+10     	; 0xdb0 <__vector_8+0x86>
     da6:	80 91 5a 3a 	lds	r24, 0x3A5A	; 0x803a5a <timeout_I2C>
     daa:	81 50       	subi	r24, 0x01	; 1
     dac:	80 93 5a 3a 	sts	0x3A5A, r24	; 0x803a5a <timeout_I2C>
    TCA0_SPLIT_INTFLAGS = 0xFF;
     db0:	8f ef       	ldi	r24, 0xFF	; 255
     db2:	80 93 0b 0a 	sts	0x0A0B, r24	; 0x800a0b <__TEXT_REGION_LENGTH__+0x700a0b>
}
     db6:	ff 91       	pop	r31
     db8:	ef 91       	pop	r30
     dba:	bf 91       	pop	r27
     dbc:	af 91       	pop	r26
     dbe:	9f 91       	pop	r25
     dc0:	8f 91       	pop	r24
     dc2:	0f 90       	pop	r0
     dc4:	0f be       	out	0x3f, r0	; 63
     dc6:	0f 90       	pop	r0
     dc8:	1f 90       	pop	r1
     dca:	18 95       	reti

00000dcc <__vector_13>:

// TCB0 is used for (slowly) sending serial characters. A 0x00 character code is needed to terminate sending or it will leak memory to serial. It's a feature, honest! 
ISR(TCB0_INT_vect){
     dcc:	1f 92       	push	r1
     dce:	0f 92       	push	r0
     dd0:	0f b6       	in	r0, 0x3f	; 63
     dd2:	0f 92       	push	r0
     dd4:	11 24       	eor	r1, r1
     dd6:	8f 93       	push	r24
     dd8:	9f 93       	push	r25
     dda:	ef 93       	push	r30
     ddc:	ff 93       	push	r31
    if (*serTxAddr) {
     dde:	e0 91 b3 3a 	lds	r30, 0x3AB3	; 0x803ab3 <serTxAddr>
     de2:	f0 91 b4 3a 	lds	r31, 0x3AB4	; 0x803ab4 <serTxAddr+0x1>
     de6:	80 81       	ld	r24, Z
     de8:	88 23       	and	r24, r24
     dea:	91 f0       	breq	.+36     	; 0xe10 <__vector_13+0x44>
        USART0_TXDATAL = *serTxAddr;
     dec:	80 81       	ld	r24, Z
     dee:	80 93 02 08 	sts	0x0802, r24	; 0x800802 <__TEXT_REGION_LENGTH__+0x700802>
        serTxAddr++;
     df2:	80 91 b3 3a 	lds	r24, 0x3AB3	; 0x803ab3 <serTxAddr>
     df6:	90 91 b4 3a 	lds	r25, 0x3AB4	; 0x803ab4 <serTxAddr+0x1>
     dfa:	01 96       	adiw	r24, 0x01	; 1
     dfc:	80 93 b3 3a 	sts	0x3AB3, r24	; 0x803ab3 <serTxAddr>
     e00:	90 93 b4 3a 	sts	0x3AB4, r25	; 0x803ab4 <serTxAddr+0x1>
        USART0_CTRLA |= USART_DREIE_bm;
     e04:	80 91 05 08 	lds	r24, 0x0805	; 0x800805 <__TEXT_REGION_LENGTH__+0x700805>
     e08:	80 62       	ori	r24, 0x20	; 32
     e0a:	80 93 05 08 	sts	0x0805, r24	; 0x800805 <__TEXT_REGION_LENGTH__+0x700805>
     e0e:	05 c0       	rjmp	.+10     	; 0xe1a <__vector_13+0x4e>
    } else {
        serTxDone = 1;
     e10:	81 e0       	ldi	r24, 0x01	; 1
     e12:	80 93 0a 38 	sts	0x380A, r24	; 0x80380a <serTxDone>
        TCB0_INTCTRL = 0x00;
     e16:	10 92 45 0a 	sts	0x0A45, r1	; 0x800a45 <__TEXT_REGION_LENGTH__+0x700a45>
    }
    TCB0_INTFLAGS = TCB_CAPT_bm;
     e1a:	81 e0       	ldi	r24, 0x01	; 1
     e1c:	80 93 46 0a 	sts	0x0A46, r24	; 0x800a46 <__TEXT_REGION_LENGTH__+0x700a46>
}
     e20:	ff 91       	pop	r31
     e22:	ef 91       	pop	r30
     e24:	9f 91       	pop	r25
     e26:	8f 91       	pop	r24
     e28:	0f 90       	pop	r0
     e2a:	0f be       	out	0x3f, r0	; 63
     e2c:	0f 90       	pop	r0
     e2e:	1f 90       	pop	r1
     e30:	18 95       	reti

00000e32 <__vector_14>:

// TCB1 is used for audio generation. Keeps playing "data" until 0 is reached. Audio sample data can contain 0x01 to 0xFF, centered around 0x80
ISR(TCB1_INT_vect){
     e32:	1f 92       	push	r1
     e34:	0f 92       	push	r0
     e36:	0f b6       	in	r0, 0x3f	; 63
     e38:	0f 92       	push	r0
     e3a:	11 24       	eor	r1, r1
     e3c:	2f 93       	push	r18
     e3e:	3f 93       	push	r19
     e40:	4f 93       	push	r20
     e42:	8f 93       	push	r24
     e44:	9f 93       	push	r25
     e46:	ef 93       	push	r30
     e48:	ff 93       	push	r31
    int16_t volCtrl;
    if (*auSmpAddr == 0) auSmpAddr = auRepAddr;
     e4a:	e0 91 07 38 	lds	r30, 0x3807	; 0x803807 <auSmpAddr>
     e4e:	f0 91 08 38 	lds	r31, 0x3808	; 0x803808 <auSmpAddr+0x1>
     e52:	80 81       	ld	r24, Z
     e54:	81 11       	cpse	r24, r1
     e56:	08 c0       	rjmp	.+16     	; 0xe68 <__vector_14+0x36>
     e58:	80 91 05 38 	lds	r24, 0x3805	; 0x803805 <auRepAddr>
     e5c:	90 91 06 38 	lds	r25, 0x3806	; 0x803806 <auRepAddr+0x1>
     e60:	80 93 07 38 	sts	0x3807, r24	; 0x803807 <auSmpAddr>
     e64:	90 93 08 38 	sts	0x3808, r25	; 0x803808 <auSmpAddr+0x1>
    if (*auSmpAddr) {
     e68:	e0 91 07 38 	lds	r30, 0x3807	; 0x803807 <auSmpAddr>
     e6c:	f0 91 08 38 	lds	r31, 0x3808	; 0x803808 <auSmpAddr+0x1>
     e70:	80 81       	ld	r24, Z
     e72:	88 23       	and	r24, r24
     e74:	e1 f0       	breq	.+56     	; 0xeae <__vector_14+0x7c>
        volCtrl = ((((int16_t)(*auSmpAddr) - 0x7f) * auVolume) >> 8) + 0x80;
     e76:	20 81       	ld	r18, Z
     e78:	40 91 b0 3a 	lds	r20, 0x3AB0	; 0x803ab0 <auVolume>
        DAC0_DATA = (uint8_t)(volCtrl);
     e7c:	30 e0       	ldi	r19, 0x00	; 0
     e7e:	2f 57       	subi	r18, 0x7F	; 127
     e80:	31 09       	sbc	r19, r1
     e82:	42 9f       	mul	r20, r18
     e84:	c0 01       	movw	r24, r0
     e86:	43 9f       	mul	r20, r19
     e88:	90 0d       	add	r25, r0
     e8a:	11 24       	eor	r1, r1
     e8c:	89 2f       	mov	r24, r25
     e8e:	99 0f       	add	r25, r25
     e90:	99 0b       	sbc	r25, r25
     e92:	80 58       	subi	r24, 0x80	; 128
     e94:	9f 4f       	sbci	r25, 0xFF	; 255
     e96:	80 93 a1 06 	sts	0x06A1, r24	; 0x8006a1 <__TEXT_REGION_LENGTH__+0x7006a1>
        ++auSmpAddr;
     e9a:	80 91 07 38 	lds	r24, 0x3807	; 0x803807 <auSmpAddr>
     e9e:	90 91 08 38 	lds	r25, 0x3808	; 0x803808 <auSmpAddr+0x1>
     ea2:	01 96       	adiw	r24, 0x01	; 1
     ea4:	80 93 07 38 	sts	0x3807, r24	; 0x803807 <auSmpAddr>
     ea8:	90 93 08 38 	sts	0x3808, r25	; 0x803808 <auSmpAddr+0x1>
     eac:	06 c0       	rjmp	.+12     	; 0xeba <__vector_14+0x88>
    } else {
        DAC0_DATA = 0x80;
     eae:	80 e8       	ldi	r24, 0x80	; 128
     eb0:	80 93 a1 06 	sts	0x06A1, r24	; 0x8006a1 <__TEXT_REGION_LENGTH__+0x7006a1>
        auPlayDone = 1;
     eb4:	81 e0       	ldi	r24, 0x01	; 1
     eb6:	80 93 ec 3a 	sts	0x3AEC, r24	; 0x803aec <auPlayDone>
    }
    TCB1_INTFLAGS = TCB_CAPT_bm;
     eba:	81 e0       	ldi	r24, 0x01	; 1
     ebc:	80 93 56 0a 	sts	0x0A56, r24	; 0x800a56 <__TEXT_REGION_LENGTH__+0x700a56>
}
     ec0:	ff 91       	pop	r31
     ec2:	ef 91       	pop	r30
     ec4:	9f 91       	pop	r25
     ec6:	8f 91       	pop	r24
     ec8:	4f 91       	pop	r20
     eca:	3f 91       	pop	r19
     ecc:	2f 91       	pop	r18
     ece:	0f 90       	pop	r0
     ed0:	0f be       	out	0x3f, r0	; 63
     ed2:	0f 90       	pop	r0
     ed4:	1f 90       	pop	r1
     ed6:	18 95       	reti

00000ed8 <__vector_27>:

// Reads up to RXLEN characters until LF is found, LF sets the serRxDone flag and writes 0 instead of LF.
ISR(USART0_RXC_vect){
     ed8:	1f 92       	push	r1
     eda:	0f 92       	push	r0
     edc:	0f b6       	in	r0, 0x3f	; 63
     ede:	0f 92       	push	r0
     ee0:	11 24       	eor	r1, r1
     ee2:	8f 93       	push	r24
     ee4:	ef 93       	push	r30
     ee6:	ff 93       	push	r31
    if (serRxDone == 0){
     ee8:	80 91 40 38 	lds	r24, 0x3840	; 0x803840 <serRxDone>
     eec:	81 11       	cpse	r24, r1
     eee:	44 c0       	rjmp	.+136    	; 0xf78 <__vector_27+0xa0>
        serRx[RXCNT] = USART0.RXDATAL;
     ef0:	ed b3       	in	r30, 0x1d	; 29
     ef2:	f0 e0       	ldi	r31, 0x00	; 0
     ef4:	80 91 00 08 	lds	r24, 0x0800	; 0x800800 <__TEXT_REGION_LENGTH__+0x700800>
     ef8:	e1 59       	subi	r30, 0x91	; 145
     efa:	f5 4c       	sbci	r31, 0xC5	; 197
     efc:	80 83       	st	Z, r24
        USART0_TXDATAL = serRx[RXCNT];
     efe:	ed b3       	in	r30, 0x1d	; 29
     f00:	f0 e0       	ldi	r31, 0x00	; 0
     f02:	e1 59       	subi	r30, 0x91	; 145
     f04:	f5 4c       	sbci	r31, 0xC5	; 197
     f06:	80 81       	ld	r24, Z
     f08:	80 93 02 08 	sts	0x0802, r24	; 0x800802 <__TEXT_REGION_LENGTH__+0x700802>
        if ((serRx[RXCNT] == 0x0A)||(serRx[RXCNT] == 0x0D)){
     f0c:	ed b3       	in	r30, 0x1d	; 29
     f0e:	f0 e0       	ldi	r31, 0x00	; 0
     f10:	e1 59       	subi	r30, 0x91	; 145
     f12:	f5 4c       	sbci	r31, 0xC5	; 197
     f14:	80 81       	ld	r24, Z
     f16:	8a 30       	cpi	r24, 0x0A	; 10
     f18:	39 f0       	breq	.+14     	; 0xf28 <__vector_27+0x50>
     f1a:	ed b3       	in	r30, 0x1d	; 29
     f1c:	f0 e0       	ldi	r31, 0x00	; 0
     f1e:	e1 59       	subi	r30, 0x91	; 145
     f20:	f5 4c       	sbci	r31, 0xC5	; 197
     f22:	80 81       	ld	r24, Z
     f24:	8d 30       	cpi	r24, 0x0D	; 13
     f26:	49 f4       	brne	.+18     	; 0xf3a <__vector_27+0x62>
            serRx[RXCNT] = 0;
     f28:	ed b3       	in	r30, 0x1d	; 29
     f2a:	f0 e0       	ldi	r31, 0x00	; 0
     f2c:	e1 59       	subi	r30, 0x91	; 145
     f2e:	f5 4c       	sbci	r31, 0xC5	; 197
     f30:	10 82       	st	Z, r1
            serRxDone = 1;
     f32:	81 e0       	ldi	r24, 0x01	; 1
     f34:	80 93 40 38 	sts	0x3840, r24	; 0x803840 <serRxDone>
     f38:	1f c0       	rjmp	.+62     	; 0xf78 <__vector_27+0xa0>
        } else if (((serRx[RXCNT] == 0x08)||(serRx[RXCNT] == 0x7F))&&(RXCNT > 0)) {
     f3a:	ed b3       	in	r30, 0x1d	; 29
     f3c:	f0 e0       	ldi	r31, 0x00	; 0
     f3e:	e1 59       	subi	r30, 0x91	; 145
     f40:	f5 4c       	sbci	r31, 0xC5	; 197
     f42:	80 81       	ld	r24, Z
     f44:	88 30       	cpi	r24, 0x08	; 8
     f46:	39 f0       	breq	.+14     	; 0xf56 <__vector_27+0x7e>
     f48:	ed b3       	in	r30, 0x1d	; 29
     f4a:	f0 e0       	ldi	r31, 0x00	; 0
     f4c:	e1 59       	subi	r30, 0x91	; 145
     f4e:	f5 4c       	sbci	r31, 0xC5	; 197
     f50:	80 81       	ld	r24, Z
     f52:	8f 37       	cpi	r24, 0x7F	; 127
     f54:	59 f4       	brne	.+22     	; 0xf6c <__vector_27+0x94>
     f56:	8d b3       	in	r24, 0x1d	; 29
     f58:	88 23       	and	r24, r24
     f5a:	41 f0       	breq	.+16     	; 0xf6c <__vector_27+0x94>
            serRx[RXCNT] = 0;
     f5c:	ed b3       	in	r30, 0x1d	; 29
     f5e:	f0 e0       	ldi	r31, 0x00	; 0
     f60:	e1 59       	subi	r30, 0x91	; 145
     f62:	f5 4c       	sbci	r31, 0xC5	; 197
     f64:	10 82       	st	Z, r1
            --RXCNT;
     f66:	8d b3       	in	r24, 0x1d	; 29
     f68:	81 50       	subi	r24, 0x01	; 1
     f6a:	05 c0       	rjmp	.+10     	; 0xf76 <__vector_27+0x9e>
        } else if (RXCNT < (RXLEN-1)) ++RXCNT;
     f6c:	8d b3       	in	r24, 0x1d	; 29
     f6e:	80 34       	cpi	r24, 0x40	; 64
     f70:	18 f4       	brcc	.+6      	; 0xf78 <__vector_27+0xa0>
     f72:	8d b3       	in	r24, 0x1d	; 29
     f74:	8f 5f       	subi	r24, 0xFF	; 255
     f76:	8d bb       	out	0x1d, r24	; 29
    }
    USART0_STATUS = USART_RXCIF_bm;
     f78:	80 e8       	ldi	r24, 0x80	; 128
     f7a:	80 93 04 08 	sts	0x0804, r24	; 0x800804 <__TEXT_REGION_LENGTH__+0x700804>
};
     f7e:	ff 91       	pop	r31
     f80:	ef 91       	pop	r30
     f82:	8f 91       	pop	r24
     f84:	0f 90       	pop	r0
     f86:	0f be       	out	0x3f, r0	; 63
     f88:	0f 90       	pop	r0
     f8a:	1f 90       	pop	r1
     f8c:	18 95       	reti

00000f8e <__vector_28>:

// Trigger new data write and turn off DRE interrupt.
ISR(USART0_DRE_vect){
     f8e:	1f 92       	push	r1
     f90:	0f 92       	push	r0
     f92:	0f b6       	in	r0, 0x3f	; 63
     f94:	0f 92       	push	r0
     f96:	11 24       	eor	r1, r1
     f98:	8f 93       	push	r24
     f9a:	ef 93       	push	r30
     f9c:	ff 93       	push	r31
    TCB0_CNT = 0;
     f9e:	10 92 4a 0a 	sts	0x0A4A, r1	; 0x800a4a <__TEXT_REGION_LENGTH__+0x700a4a>
     fa2:	10 92 4b 0a 	sts	0x0A4B, r1	; 0x800a4b <__TEXT_REGION_LENGTH__+0x700a4b>
    TCB0_INTCTRL = 0x01;
     fa6:	81 e0       	ldi	r24, 0x01	; 1
     fa8:	80 93 45 0a 	sts	0x0A45, r24	; 0x800a45 <__TEXT_REGION_LENGTH__+0x700a45>
    USART0_CTRLA &= ~(USART_DREIE_bm);
     fac:	e5 e0       	ldi	r30, 0x05	; 5
     fae:	f8 e0       	ldi	r31, 0x08	; 8
     fb0:	80 81       	ld	r24, Z
     fb2:	8f 7d       	andi	r24, 0xDF	; 223
     fb4:	80 83       	st	Z, r24
};
     fb6:	ff 91       	pop	r31
     fb8:	ef 91       	pop	r30
     fba:	8f 91       	pop	r24
     fbc:	0f 90       	pop	r0
     fbe:	0f be       	out	0x3f, r0	; 63
     fc0:	0f 90       	pop	r0
     fc2:	1f 90       	pop	r1
     fc4:	18 95       	reti

00000fc6 <__vector_20>:

// ADC used for audio input and temperature sensor.
ISR(ADC0_RESRDY_vect){
     fc6:	1f 92       	push	r1
     fc8:	0f 92       	push	r0
     fca:	0f b6       	in	r0, 0x3f	; 63
     fcc:	0f 92       	push	r0
     fce:	11 24       	eor	r1, r1
     fd0:	8f 93       	push	r24
     fd2:	9f 93       	push	r25
     fd4:	ef 93       	push	r30
     fd6:	ff 93       	push	r31
    //If just switched reference, discard first few samples
    if (adc0Chg == 0){
     fd8:	80 91 33 38 	lds	r24, 0x3833	; 0x803833 <adc0Chg>
     fdc:	81 11       	cpse	r24, r1
     fde:	19 c0       	rjmp	.+50     	; 0x1012 <__vector_20+0x4c>
        AUPOS = (AUPOS+1)&(AULEN-1);
     fe0:	8e b3       	in	r24, 0x1e	; 30
     fe2:	8f 5f       	subi	r24, 0xFF	; 255
     fe4:	87 70       	andi	r24, 0x07	; 7
     fe6:	8e bb       	out	0x1e, r24	; 30
        if (ADC0_MUXPOS == 0x1E) adcTemp = ADC0_RES; else auIn[AUPOS]=ADC0_RESL;
     fe8:	80 91 06 06 	lds	r24, 0x0606	; 0x800606 <__TEXT_REGION_LENGTH__+0x700606>
     fec:	8e 31       	cpi	r24, 0x1E	; 30
     fee:	49 f4       	brne	.+18     	; 0x1002 <__vector_20+0x3c>
     ff0:	80 91 10 06 	lds	r24, 0x0610	; 0x800610 <__TEXT_REGION_LENGTH__+0x700610>
     ff4:	90 91 11 06 	lds	r25, 0x0611	; 0x800611 <__TEXT_REGION_LENGTH__+0x700611>
     ff8:	80 93 ef 3a 	sts	0x3AEF, r24	; 0x803aef <adcTemp>
     ffc:	90 93 f0 3a 	sts	0x3AF0, r25	; 0x803af0 <adcTemp+0x1>
    1000:	0d c0       	rjmp	.+26     	; 0x101c <__vector_20+0x56>
    1002:	ee b3       	in	r30, 0x1e	; 30
    1004:	f0 e0       	ldi	r31, 0x00	; 0
    1006:	80 91 10 06 	lds	r24, 0x0610	; 0x800610 <__TEXT_REGION_LENGTH__+0x700610>
    100a:	e4 54       	subi	r30, 0x44	; 68
    100c:	f5 4c       	sbci	r31, 0xC5	; 197
    100e:	80 83       	st	Z, r24
    1010:	05 c0       	rjmp	.+10     	; 0x101c <__vector_20+0x56>
    } else --adc0Chg;
    1012:	80 91 33 38 	lds	r24, 0x3833	; 0x803833 <adc0Chg>
    1016:	81 50       	subi	r24, 0x01	; 1
    1018:	80 93 33 38 	sts	0x3833, r24	; 0x803833 <adc0Chg>
    ADC0_INTFLAGS = ADC_RESRDY_bm;
    101c:	81 e0       	ldi	r24, 0x01	; 1
    101e:	80 93 0b 06 	sts	0x060B, r24	; 0x80060b <__TEXT_REGION_LENGTH__+0x70060b>
}
    1022:	ff 91       	pop	r31
    1024:	ef 91       	pop	r30
    1026:	9f 91       	pop	r25
    1028:	8f 91       	pop	r24
    102a:	0f 90       	pop	r0
    102c:	0f be       	out	0x3f, r0	; 63
    102e:	0f 90       	pop	r0
    1030:	1f 90       	pop	r1
    1032:	18 95       	reti

00001034 <__vector_22>:

// Reads out sensors at 8Hz and buttons at 42Hz (timed by PIT), power for the sensors is on 1/8th of the time to save power.
ISR(ADC1_RESRDY_vect){
    1034:	1f 92       	push	r1
    1036:	0f 92       	push	r0
    1038:	0f b6       	in	r0, 0x3f	; 63
    103a:	0f 92       	push	r0
    103c:	11 24       	eor	r1, r1
    103e:	8f 93       	push	r24
    1040:	9f 93       	push	r25
    if (ADC1_MUXPOS == 0) {
    1042:	80 91 46 06 	lds	r24, 0x0646	; 0x800646 <__TEXT_REGION_LENGTH__+0x700646>
    1046:	81 11       	cpse	r24, r1
    1048:	0a c0       	rjmp	.+20     	; 0x105e <__vector_22+0x2a>
        adcPhot = ADC1_RES;
    104a:	80 91 50 06 	lds	r24, 0x0650	; 0x800650 <__TEXT_REGION_LENGTH__+0x700650>
    104e:	90 91 51 06 	lds	r25, 0x0651	; 0x800651 <__TEXT_REGION_LENGTH__+0x700651>
    1052:	80 93 b7 3a 	sts	0x3AB7, r24	; 0x803ab7 <adcPhot>
    1056:	90 93 b8 3a 	sts	0x3AB8, r25	; 0x803ab8 <adcPhot+0x1>
        ADC1_MUXPOS = 0x01;             //Select Hall sensor
    105a:	81 e0       	ldi	r24, 0x01	; 1
    105c:	10 c0       	rjmp	.+32     	; 0x107e <__vector_22+0x4a>
    } else if (ADC1_MUXPOS == 1){
    105e:	80 91 46 06 	lds	r24, 0x0646	; 0x800646 <__TEXT_REGION_LENGTH__+0x700646>
    1062:	81 30       	cpi	r24, 0x01	; 1
    1064:	79 f4       	brne	.+30     	; 0x1084 <__vector_22+0x50>
        PORTA_OUTCLR = 0b00001000;      //Turn off sensor power
    1066:	88 e0       	ldi	r24, 0x08	; 8
    1068:	80 93 06 04 	sts	0x0406, r24	; 0x800406 <__TEXT_REGION_LENGTH__+0x700406>
        adcHall = ADC1_RES;
    106c:	80 91 50 06 	lds	r24, 0x0650	; 0x800650 <__TEXT_REGION_LENGTH__+0x700650>
    1070:	90 91 51 06 	lds	r25, 0x0651	; 0x800651 <__TEXT_REGION_LENGTH__+0x700651>
    1074:	80 93 b5 3a 	sts	0x3AB5, r24	; 0x803ab5 <adcHall>
    1078:	90 93 b6 3a 	sts	0x3AB6, r25	; 0x803ab6 <adcHall+0x1>
        ADC1_MUXPOS = 0x04;             //select buttons
    107c:	84 e0       	ldi	r24, 0x04	; 4
    107e:	80 93 46 06 	sts	0x0646, r24	; 0x800646 <__TEXT_REGION_LENGTH__+0x700646>
    1082:	10 c0       	rjmp	.+32     	; 0x10a4 <__vector_22+0x70>
    } else {
        adcBtns = ADC1_RES;
    1084:	80 91 50 06 	lds	r24, 0x0650	; 0x800650 <__TEXT_REGION_LENGTH__+0x700650>
    1088:	90 91 51 06 	lds	r25, 0x0651	; 0x800651 <__TEXT_REGION_LENGTH__+0x700651>
    108c:	80 93 b1 3a 	sts	0x3AB1, r24	; 0x803ab1 <adcBtns>
    1090:	90 93 b2 3a 	sts	0x3AB2, r25	; 0x803ab2 <adcBtns+0x1>
        if (A1CNT == 15){
    1094:	8f b3       	in	r24, 0x1f	; 31
    1096:	8f 30       	cpi	r24, 0x0F	; 15
    1098:	29 f4       	brne	.+10     	; 0x10a4 <__vector_22+0x70>
            ADC1_MUXPOS = 0x00;         //Select photo transistor
    109a:	10 92 46 06 	sts	0x0646, r1	; 0x800646 <__TEXT_REGION_LENGTH__+0x700646>
            PORTA_OUTSET = 0b00001000;  //Turn on sensor power
    109e:	88 e0       	ldi	r24, 0x08	; 8
    10a0:	80 93 05 04 	sts	0x0405, r24	; 0x800405 <__TEXT_REGION_LENGTH__+0x700405>
        }
    }

    A1CNT=(A1CNT+1)%16;        
    10a4:	8f b3       	in	r24, 0x1f	; 31
    10a6:	90 e0       	ldi	r25, 0x00	; 0
    10a8:	01 96       	adiw	r24, 0x01	; 1
    10aa:	8f 70       	andi	r24, 0x0F	; 15
    10ac:	99 27       	eor	r25, r25
    10ae:	8f bb       	out	0x1f, r24	; 31
    ADC1_INTFLAGS = ADC_RESRDY_bm;
    10b0:	81 e0       	ldi	r24, 0x01	; 1
    10b2:	80 93 4b 06 	sts	0x064B, r24	; 0x80064b <__TEXT_REGION_LENGTH__+0x70064b>
}
    10b6:	9f 91       	pop	r25
    10b8:	8f 91       	pop	r24
    10ba:	0f 90       	pop	r0
    10bc:	0f be       	out	0x3f, r0	; 63
    10be:	0f 90       	pop	r0
    10c0:	1f 90       	pop	r1
    10c2:	18 95       	reti

000010c4 <__vector_6>:

// RTC compare interrupt, triggers at 512/BTN_TMR rate, also RTC overflow interrupt, triggers once a minute
ISR(RTC_CNT_vect) {
    10c4:	1f 92       	push	r1
    10c6:	0f 92       	push	r0
    10c8:	0f b6       	in	r0, 0x3f	; 63
    10ca:	0f 92       	push	r0
    10cc:	11 24       	eor	r1, r1
    10ce:	5f 93       	push	r21
    10d0:	6f 93       	push	r22
    10d2:	7f 93       	push	r23
    10d4:	8f 93       	push	r24
    10d6:	9f 93       	push	r25
    10d8:	af 93       	push	r26
    10da:	bf 93       	push	r27
    if (RTC_INTFLAGS & RTC_CMP_bm){
    10dc:	80 91 43 01 	lds	r24, 0x0143	; 0x800143 <__TEXT_REGION_LENGTH__+0x700143>
    10e0:	81 ff       	sbrs	r24, 1
    10e2:	26 c0       	rjmp	.+76     	; 0x1130 <__vector_6+0x6c>
        if (buttonMark<0xff) buttonMark++;   // For button timing purposes
    10e4:	80 91 3e 38 	lds	r24, 0x383E	; 0x80383e <buttonMark>
    10e8:	8f 3f       	cpi	r24, 0xFF	; 255
    10ea:	29 f0       	breq	.+10     	; 0x10f6 <__vector_6+0x32>
    10ec:	80 91 3e 38 	lds	r24, 0x383E	; 0x80383e <buttonMark>
    10f0:	8f 5f       	subi	r24, 0xFF	; 255
    10f2:	80 93 3e 38 	sts	0x383E, r24	; 0x80383e <buttonMark>
        tmp16bit = (RTC_CNT + BTN_TMR)%RTC_PER;
    10f6:	80 91 48 01 	lds	r24, 0x0148	; 0x800148 <__TEXT_REGION_LENGTH__+0x700148>
    10fa:	90 91 49 01 	lds	r25, 0x0149	; 0x800149 <__TEXT_REGION_LENGTH__+0x700149>
    10fe:	60 91 4a 01 	lds	r22, 0x014A	; 0x80014a <__TEXT_REGION_LENGTH__+0x70014a>
    1102:	70 91 4b 01 	lds	r23, 0x014B	; 0x80014b <__TEXT_REGION_LENGTH__+0x70014b>
    1106:	82 96       	adiw	r24, 0x22	; 34
    1108:	0e 94 e6 1d 	call	0x3bcc	; 0x3bcc <__udivmodhi4>
    110c:	80 93 f1 3a 	sts	0x3AF1, r24	; 0x803af1 <tmp16bit>
    1110:	90 93 f2 3a 	sts	0x3AF2, r25	; 0x803af2 <tmp16bit+0x1>
        while(RTC_STATUS & RTC_CMPBUSY_bm);
    1114:	80 91 41 01 	lds	r24, 0x0141	; 0x800141 <__TEXT_REGION_LENGTH__+0x700141>
    1118:	83 fd       	sbrc	r24, 3
    111a:	fc cf       	rjmp	.-8      	; 0x1114 <__vector_6+0x50>
        RTC_CMP = tmp16bit;                 // Button timing: next interrupt set
    111c:	80 91 f1 3a 	lds	r24, 0x3AF1	; 0x803af1 <tmp16bit>
    1120:	90 91 f2 3a 	lds	r25, 0x3AF2	; 0x803af2 <tmp16bit+0x1>
    1124:	80 93 4c 01 	sts	0x014C, r24	; 0x80014c <__TEXT_REGION_LENGTH__+0x70014c>
    1128:	90 93 4d 01 	sts	0x014D, r25	; 0x80014d <__TEXT_REGION_LENGTH__+0x70014d>
        RTC_INTFLAGS = RTC_CMP_bm;		    // clear interrupt flag
    112c:	82 e0       	ldi	r24, 0x02	; 2
    112e:	06 c0       	rjmp	.+12     	; 0x113c <__vector_6+0x78>
    } else {
        minuteMark++;                       // For very slow timing purposes, overflows to 0
    1130:	80 91 3f 38 	lds	r24, 0x383F	; 0x80383f <minuteMark>
    1134:	8f 5f       	subi	r24, 0xFF	; 255
    1136:	80 93 3f 38 	sts	0x383F, r24	; 0x80383f <minuteMark>
        RTC_INTFLAGS = RTC_OVF_bm;		    // clear interrupt flag
    113a:	81 e0       	ldi	r24, 0x01	; 1
    113c:	80 93 43 01 	sts	0x0143, r24	; 0x800143 <__TEXT_REGION_LENGTH__+0x700143>
    }
}
    1140:	bf 91       	pop	r27
    1142:	af 91       	pop	r26
    1144:	9f 91       	pop	r25
    1146:	8f 91       	pop	r24
    1148:	7f 91       	pop	r23
    114a:	6f 91       	pop	r22
    114c:	5f 91       	pop	r21
    114e:	0f 90       	pop	r0
    1150:	0f be       	out	0x3f, r0	; 63
    1152:	0f 90       	pop	r0
    1154:	1f 90       	pop	r1
    1156:	18 95       	reti

00001158 <__vector_7>:

// PIT interrupt (timing of ADC1: sensor values)
ISR(RTC_PIT_vect) {						// PIT interrupt handling code
    1158:	1f 92       	push	r1
    115a:	0f 92       	push	r0
    115c:	0f b6       	in	r0, 0x3f	; 63
    115e:	0f 92       	push	r0
    1160:	11 24       	eor	r1, r1
    1162:	8f 93       	push	r24
    ADC1_COMMAND = 0x01;
    1164:	81 e0       	ldi	r24, 0x01	; 1
    1166:	80 93 48 06 	sts	0x0648, r24	; 0x800648 <__TEXT_REGION_LENGTH__+0x700648>
    RTC_PITINTFLAGS = RTC_PI_bm;		// clear interrupt flag
    116a:	80 93 53 01 	sts	0x0153, r24	; 0x800153 <__TEXT_REGION_LENGTH__+0x700153>
}
    116e:	8f 91       	pop	r24
    1170:	0f 90       	pop	r0
    1172:	0f be       	out	0x3f, r0	; 63
    1174:	0f 90       	pop	r0
    1176:	1f 90       	pop	r1
    1178:	18 95       	reti

0000117a <EERead>:

// Read bytes from EEPROM
void EERead(uint8_t eeAddr, uint8_t *eeValues, uint8_t size)
{
    while(NVMCTRL_STATUS & NVMCTRL_EEBUSY_bm);              // Wait until any write operation has finished
    117a:	90 91 02 10 	lds	r25, 0x1002	; 0x801002 <__TEXT_REGION_LENGTH__+0x701002>
    117e:	91 fd       	sbrc	r25, 1
    1180:	fc cf       	rjmp	.-8      	; 0x117a <EERead>
    1182:	fb 01       	movw	r30, r22
    1184:	48 0f       	add	r20, r24

    while(size){
    1186:	84 17       	cp	r24, r20
    1188:	39 f0       	breq	.+14     	; 0x1198 <EERead+0x1e>
        *eeValues++ = *(uint8_t *)(EEPROM_START+eeAddr++);  // Read data from buffer
    118a:	a8 2f       	mov	r26, r24
    118c:	b0 e0       	ldi	r27, 0x00	; 0
    118e:	bc 5e       	subi	r27, 0xEC	; 236
    1190:	9c 91       	ld	r25, X
    1192:	91 93       	st	Z+, r25
    1194:	8f 5f       	subi	r24, 0xFF	; 255
    1196:	f7 cf       	rjmp	.-18     	; 0x1186 <EERead+0xc>
        --size;
    }
}
    1198:	08 95       	ret

0000119a <EEWrite>:
{
    uint8_t lastByteOfPage;
    while(size){
        lastByteOfPage = 0;
        while(NVMCTRL_STATUS & NVMCTRL_EEBUSY_bm);              // Wait until any write operation has finished
        CCP = CCP_SPM_gc;                                       // Gain access to NVMCTRL_CTRLA
    119a:	9d e9       	ldi	r25, 0x9D	; 157
        NVMCTRL_CTRLA = NVMCTRL_CMD_PAGEBUFCLR_gc;              // Clear page buffer
    119c:	24 e0       	ldi	r18, 0x04	; 4
            if ((eeAddr % EEPROM_PAGE_SIZE) == (EEPROM_PAGE_SIZE-1)) lastByteOfPage = 1;
            *(uint8_t *)(EEPROM_START+eeAddr++) = *eeValues++;  // Write data to buffer
            --size;
        }
        CCP = CCP_SPM_gc;
        NVMCTRL_CTRLA = NVMCTRL_CMD_PAGEERASEWRITE_gc;          // Erase old data and write new data to EEPROM
    119e:	33 e0       	ldi	r19, 0x03	; 3

// Write bytes to the EEPROM, if address exceeds EEPROM space data wraps around
uint8_t EEWrite(uint8_t eeAddr, uint8_t *eeValues, uint8_t size)
{
    uint8_t lastByteOfPage;
    while(size){
    11a0:	44 23       	and	r20, r20
    11a2:	09 f1       	breq	.+66     	; 0x11e6 <EEWrite+0x4c>
        lastByteOfPage = 0;
        while(NVMCTRL_STATUS & NVMCTRL_EEBUSY_bm);              // Wait until any write operation has finished
    11a4:	50 91 02 10 	lds	r21, 0x1002	; 0x801002 <__TEXT_REGION_LENGTH__+0x701002>
    11a8:	51 fd       	sbrc	r21, 1
    11aa:	fc cf       	rjmp	.-8      	; 0x11a4 <EEWrite+0xa>
        CCP = CCP_SPM_gc;                                       // Gain access to NVMCTRL_CTRLA
    11ac:	94 bf       	out	0x34, r25	; 52
        NVMCTRL_CTRLA = NVMCTRL_CMD_PAGEBUFCLR_gc;              // Clear page buffer
    11ae:	20 93 00 10 	sts	0x1000, r18	; 0x801000 <__TEXT_REGION_LENGTH__+0x701000>
    11b2:	e8 2f       	mov	r30, r24
        while((size) && (lastByteOfPage == 0)){
            if ((eeAddr % EEPROM_PAGE_SIZE) == (EEPROM_PAGE_SIZE-1)) lastByteOfPage = 1;
    11b4:	58 2f       	mov	r21, r24
    11b6:	5f 71       	andi	r21, 0x1F	; 31
            *(uint8_t *)(EEPROM_START+eeAddr++) = *eeValues++;  // Write data to buffer
    11b8:	8f 5f       	subi	r24, 0xFF	; 255
    11ba:	6f 5f       	subi	r22, 0xFF	; 255
    11bc:	7f 4f       	sbci	r23, 0xFF	; 255
    11be:	db 01       	movw	r26, r22
    11c0:	11 97       	sbiw	r26, 0x01	; 1
    11c2:	ac 91       	ld	r26, X
    11c4:	f0 e0       	ldi	r31, 0x00	; 0
    11c6:	fc 5e       	subi	r31, 0xEC	; 236
    11c8:	a0 83       	st	Z, r26
            --size;
    11ca:	41 50       	subi	r20, 0x01	; 1
    while(size){
        lastByteOfPage = 0;
        while(NVMCTRL_STATUS & NVMCTRL_EEBUSY_bm);              // Wait until any write operation has finished
        CCP = CCP_SPM_gc;                                       // Gain access to NVMCTRL_CTRLA
        NVMCTRL_CTRLA = NVMCTRL_CMD_PAGEBUFCLR_gc;              // Clear page buffer
        while((size) && (lastByteOfPage == 0)){
    11cc:	19 f0       	breq	.+6      	; 0x11d4 <EEWrite+0x3a>
            if ((eeAddr % EEPROM_PAGE_SIZE) == (EEPROM_PAGE_SIZE-1)) lastByteOfPage = 1;
            *(uint8_t *)(EEPROM_START+eeAddr++) = *eeValues++;  // Write data to buffer
    11ce:	e8 2f       	mov	r30, r24
    while(size){
        lastByteOfPage = 0;
        while(NVMCTRL_STATUS & NVMCTRL_EEBUSY_bm);              // Wait until any write operation has finished
        CCP = CCP_SPM_gc;                                       // Gain access to NVMCTRL_CTRLA
        NVMCTRL_CTRLA = NVMCTRL_CMD_PAGEBUFCLR_gc;              // Clear page buffer
        while((size) && (lastByteOfPage == 0)){
    11d0:	5f 31       	cpi	r21, 0x1F	; 31
    11d2:	81 f7       	brne	.-32     	; 0x11b4 <EEWrite+0x1a>
            if ((eeAddr % EEPROM_PAGE_SIZE) == (EEPROM_PAGE_SIZE-1)) lastByteOfPage = 1;
            *(uint8_t *)(EEPROM_START+eeAddr++) = *eeValues++;  // Write data to buffer
            --size;
        }
        CCP = CCP_SPM_gc;
    11d4:	94 bf       	out	0x34, r25	; 52
        NVMCTRL_CTRLA = NVMCTRL_CMD_PAGEERASEWRITE_gc;          // Erase old data and write new data to EEPROM
    11d6:	30 93 00 10 	sts	0x1000, r19	; 0x801000 <__TEXT_REGION_LENGTH__+0x701000>
        if (NVMCTRL_STATUS & NVMCTRL_WRERROR_bm) return 1;
    11da:	50 91 02 10 	lds	r21, 0x1002	; 0x801002 <__TEXT_REGION_LENGTH__+0x701002>
    11de:	52 ff       	sbrs	r21, 2
    11e0:	df cf       	rjmp	.-66     	; 0x11a0 <EEWrite+0x6>
    11e2:	81 e0       	ldi	r24, 0x01	; 1
    }
    return 0;
}
    11e4:	08 95       	ret
        }
        CCP = CCP_SPM_gc;
        NVMCTRL_CTRLA = NVMCTRL_CMD_PAGEERASEWRITE_gc;          // Erase old data and write new data to EEPROM
        if (NVMCTRL_STATUS & NVMCTRL_WRERROR_bm) return 1;
    }
    return 0;
    11e6:	80 e0       	ldi	r24, 0x00	; 0
    11e8:	08 95       	ret

000011ea <SerSend>:
}

// Sends a set of characters to the serial port, stops only when character value 0 is reached.
uint8_t SerSend(unsigned char *addr){
    if (serTxDone){
    11ea:	20 91 0a 38 	lds	r18, 0x380A	; 0x80380a <serTxDone>
    11ee:	22 23       	and	r18, r18
    11f0:	59 f0       	breq	.+22     	; 0x1208 <SerSend+0x1e>
        serTxAddr = addr;
    11f2:	80 93 b3 3a 	sts	0x3AB3, r24	; 0x803ab3 <serTxAddr>
    11f6:	90 93 b4 3a 	sts	0x3AB4, r25	; 0x803ab4 <serTxAddr+0x1>
        serTxDone = 0;
    11fa:	10 92 0a 38 	sts	0x380A, r1	; 0x80380a <serTxDone>
        TCB0_INTCTRL = 0x01;
    11fe:	81 e0       	ldi	r24, 0x01	; 1
    1200:	80 93 45 0a 	sts	0x0A45, r24	; 0x800a45 <__TEXT_REGION_LENGTH__+0x700a45>
        return 0;
    1204:	80 e0       	ldi	r24, 0x00	; 0
    1206:	08 95       	ret
    } else return 1;    //Error: Still sending data
    1208:	81 e0       	ldi	r24, 0x01	; 1
};
    120a:	08 95       	ret

0000120c <SerSpeed>:

// Set serial character output speed, 255-0 (0.8 to 100ms delay between characters)
void SerSpeed(uint8_t serSpd){
    120c:	28 2f       	mov	r18, r24
    if (serSpd<1) serSpd = 1;
    120e:	81 11       	cpse	r24, r1
    1210:	01 c0       	rjmp	.+2      	; 0x1214 <SerSpeed+0x8>
    1212:	21 e0       	ldi	r18, 0x01	; 1
    TCB0_CCMP = ((uint16_t)(0xFF-serSpd)<<8) + 0xFF;
    1214:	8f ef       	ldi	r24, 0xFF	; 255
    1216:	90 e0       	ldi	r25, 0x00	; 0
    1218:	82 1b       	sub	r24, r18
    121a:	91 09       	sbc	r25, r1
    121c:	98 2f       	mov	r25, r24
    121e:	88 27       	eor	r24, r24
    1220:	81 50       	subi	r24, 0x01	; 1
    1222:	9f 4f       	sbci	r25, 0xFF	; 255
    1224:	80 93 4c 0a 	sts	0x0A4C, r24	; 0x800a4c <__TEXT_REGION_LENGTH__+0x700a4c>
    1228:	90 93 4d 0a 	sts	0x0A4D, r25	; 0x800a4d <__TEXT_REGION_LENGTH__+0x700a4d>
    122c:	08 95       	ret

0000122e <SelectTSens>:
};

// Select temperature sensor
void SelectTSens(){
     VREF_CTRLA   = 0x12;    //0x22 for audio in/out (2.5V), 0x12 for temperature in, audio out (1.1V/2.5V)
    122e:	82 e1       	ldi	r24, 0x12	; 18
    1230:	80 93 a0 00 	sts	0x00A0, r24	; 0x8000a0 <__TEXT_REGION_LENGTH__+0x7000a0>
     ADC0_CTRLA   &= ~(ADC_RESSEL_bm);
    1234:	e0 e0       	ldi	r30, 0x00	; 0
    1236:	f6 e0       	ldi	r31, 0x06	; 6
    1238:	80 81       	ld	r24, Z
    123a:	8b 7f       	andi	r24, 0xFB	; 251
    123c:	80 83       	st	Z, r24
     ADC0_MUXPOS  = 0x1E;    //Audio in: AIN7 at (0x07), Temperature: Internal sensor at (0x1E)
    123e:	8e e1       	ldi	r24, 0x1E	; 30
    1240:	80 93 06 06 	sts	0x0606, r24	; 0x800606 <__TEXT_REGION_LENGTH__+0x700606>
     adc0Chg = 3;
    1244:	83 e0       	ldi	r24, 0x03	; 3
    1246:	80 93 33 38 	sts	0x3833, r24	; 0x803833 <adc0Chg>
    124a:	08 95       	ret

0000124c <SelectAuIn>:
};

// Select "audio" input (0-2.5V)
void SelectAuIn(){
     VREF_CTRLA   = 0x22;    //0x22 for audio in/out (2.5V), 0x12 for temperature in, audio out (1.1V/2.5V)
    124c:	82 e2       	ldi	r24, 0x22	; 34
    124e:	80 93 a0 00 	sts	0x00A0, r24	; 0x8000a0 <__TEXT_REGION_LENGTH__+0x7000a0>
     ADC0_CTRLA   |= ADC_RESSEL_bm;
    1252:	e0 e0       	ldi	r30, 0x00	; 0
    1254:	f6 e0       	ldi	r31, 0x06	; 6
    1256:	80 81       	ld	r24, Z
    1258:	84 60       	ori	r24, 0x04	; 4
    125a:	80 83       	st	Z, r24
     ADC0_MUXPOS  = 0x07;    //Audio in: AIN7 at (0x07), Temperature: Internal sensor at (0x1E)
    125c:	87 e0       	ldi	r24, 0x07	; 7
    125e:	80 93 06 06 	sts	0x0606, r24	; 0x800606 <__TEXT_REGION_LENGTH__+0x700606>
     adc0Chg = 3;
    1262:	83 e0       	ldi	r24, 0x03	; 3
    1264:	80 93 33 38 	sts	0x3833, r24	; 0x803833 <adc0Chg>
    1268:	08 95       	ret

0000126a <CheckButtons>:
};

// Returns button combination (4LSB) and number of consecutive times this combination is detected. First read should always be ignored! 
uint8_t CheckButtons(uint8_t previousValue){
    uint8_t bADC = (uint8_t)(adcBtns>>4);
    126a:	20 91 b1 3a 	lds	r18, 0x3AB1	; 0x803ab1 <adcBtns>
    126e:	30 91 b2 3a 	lds	r19, 0x3AB2	; 0x803ab2 <adcBtns+0x1>
    uint8_t bNibble = 0x0F;     //MSB to LSB: Bottom left, top left, top right, bottom right, 0F is error
    
    switch(bADC){
    1272:	94 e0       	ldi	r25, 0x04	; 4
    1274:	36 95       	lsr	r19
    1276:	27 95       	ror	r18
    1278:	9a 95       	dec	r25
    127a:	e1 f7       	brne	.-8      	; 0x1274 <CheckButtons+0xa>
    127c:	33 27       	eor	r19, r19
    127e:	2c 35       	cpi	r18, 0x5C	; 92
    1280:	31 05       	cpc	r19, r1
    1282:	d0 f4       	brcc	.+52     	; 0x12b8 <CheckButtons+0x4e>
    1284:	23 35       	cpi	r18, 0x53	; 83
    1286:	31 05       	cpc	r19, r1
    1288:	a8 f5       	brcc	.+106    	; 0x12f4 <CheckButtons+0x8a>
    128a:	22 33       	cpi	r18, 0x32	; 50
    128c:	31 05       	cpc	r19, r1
    128e:	50 f4       	brcc	.+20     	; 0x12a4 <CheckButtons+0x3a>
    1290:	2d 32       	cpi	r18, 0x2D	; 45
    1292:	31 05       	cpc	r19, r1
    1294:	58 f5       	brcc	.+86     	; 0x12ec <CheckButtons+0x82>
    1296:	23 52       	subi	r18, 0x23	; 35
    1298:	31 09       	sbc	r19, r1
    129a:	25 30       	cpi	r18, 0x05	; 5
    129c:	31 05       	cpc	r19, r1
    129e:	80 f5       	brcc	.+96     	; 0x1300 <CheckButtons+0x96>

        case 35 ... 39:          //37: Both left
        bNibble = 0b1100;
    12a0:	9c e0       	ldi	r25, 0x0C	; 12
    12a2:	2f c0       	rjmp	.+94     	; 0x1302 <CheckButtons+0x98>
// Returns button combination (4LSB) and number of consecutive times this combination is detected. First read should always be ignored! 
uint8_t CheckButtons(uint8_t previousValue){
    uint8_t bADC = (uint8_t)(adcBtns>>4);
    uint8_t bNibble = 0x0F;     //MSB to LSB: Bottom left, top left, top right, bottom right, 0F is error
    
    switch(bADC){
    12a4:	27 33       	cpi	r18, 0x37	; 55
    12a6:	31 05       	cpc	r19, r1
    12a8:	18 f1       	brcs	.+70     	; 0x12f0 <CheckButtons+0x86>
    12aa:	2e 53       	subi	r18, 0x3E	; 62
    12ac:	31 09       	sbc	r19, r1
    12ae:	27 30       	cpi	r18, 0x07	; 7
    12b0:	31 05       	cpc	r19, r1
    12b2:	30 f5       	brcc	.+76     	; 0x1300 <CheckButtons+0x96>
        case 50 ... 54:          //52: Bottom left
        bNibble = 0b1000;
        break;

        case 62 ... 68:          //65: Both top
        bNibble = 0b0110;
    12b4:	96 e0       	ldi	r25, 0x06	; 6
        break;
    12b6:	25 c0       	rjmp	.+74     	; 0x1302 <CheckButtons+0x98>
// Returns button combination (4LSB) and number of consecutive times this combination is detected. First read should always be ignored! 
uint8_t CheckButtons(uint8_t previousValue){
    uint8_t bADC = (uint8_t)(adcBtns>>4);
    uint8_t bNibble = 0x0F;     //MSB to LSB: Bottom left, top left, top right, bottom right, 0F is error
    
    switch(bADC){
    12b8:	2a 38       	cpi	r18, 0x8A	; 138
    12ba:	31 05       	cpc	r19, r1
    12bc:	50 f4       	brcc	.+20     	; 0x12d2 <CheckButtons+0x68>
    12be:	29 37       	cpi	r18, 0x79	; 121
    12c0:	31 05       	cpc	r19, r1
    12c2:	d0 f4       	brcc	.+52     	; 0x12f8 <CheckButtons+0x8e>
    12c4:	23 56       	subi	r18, 0x63	; 99
    12c6:	31 09       	sbc	r19, r1
    12c8:	2b 30       	cpi	r18, 0x0B	; 11
    12ca:	31 05       	cpc	r19, r1
    12cc:	c8 f4       	brcc	.+50     	; 0x1300 <CheckButtons+0x96>
        case 83 ... 91:          //87: Top left
        bNibble = 0b0100;
        break;

        case 99 ... 109:         //104: Both right
        bNibble = 0b0011;
    12ce:	93 e0       	ldi	r25, 0x03	; 3
        break;
    12d0:	18 c0       	rjmp	.+48     	; 0x1302 <CheckButtons+0x98>
// Returns button combination (4LSB) and number of consecutive times this combination is detected. First read should always be ignored! 
uint8_t CheckButtons(uint8_t previousValue){
    uint8_t bADC = (uint8_t)(adcBtns>>4);
    uint8_t bNibble = 0x0F;     //MSB to LSB: Bottom left, top left, top right, bottom right, 0F is error
    
    switch(bADC){
    12d2:	22 3a       	cpi	r18, 0xA2	; 162
    12d4:	31 05       	cpc	r19, r1
    12d6:	a0 f0       	brcs	.+40     	; 0x1300 <CheckButtons+0x96>
    12d8:	2b 3b       	cpi	r18, 0xBB	; 187
    12da:	31 05       	cpc	r19, r1
    12dc:	78 f0       	brcs	.+30     	; 0x12fc <CheckButtons+0x92>
    12de:	20 5f       	subi	r18, 0xF0	; 240
    12e0:	31 09       	sbc	r19, r1
    12e2:	20 31       	cpi	r18, 0x10	; 16
    12e4:	31 05       	cpc	r19, r1
    12e6:	60 f4       	brcc	.+24     	; 0x1300 <CheckButtons+0x96>
        case 162 ... 186:        //174: Bottom right
        bNibble = 0b0001;
        break;

        case 240 ... 255:        //255: No button pressed
        bNibble = 0b0000;
    12e8:	90 e0       	ldi	r25, 0x00	; 0
        break;
    12ea:	0b c0       	rjmp	.+22     	; 0x1302 <CheckButtons+0x98>
        case 35 ... 39:          //37: Both left
        bNibble = 0b1100;
        break;

        case 45 ... 49:          //47: Both bottom
        bNibble = 0b1001;
    12ec:	99 e0       	ldi	r25, 0x09	; 9
        break;
    12ee:	09 c0       	rjmp	.+18     	; 0x1302 <CheckButtons+0x98>

        case 50 ... 54:          //52: Bottom left
        bNibble = 0b1000;
    12f0:	98 e0       	ldi	r25, 0x08	; 8
        break;
    12f2:	07 c0       	rjmp	.+14     	; 0x1302 <CheckButtons+0x98>
        case 62 ... 68:          //65: Both top
        bNibble = 0b0110;
        break;

        case 83 ... 91:          //87: Top left
        bNibble = 0b0100;
    12f4:	94 e0       	ldi	r25, 0x04	; 4
        break;
    12f6:	05 c0       	rjmp	.+10     	; 0x1302 <CheckButtons+0x98>
        case 99 ... 109:         //104: Both right
        bNibble = 0b0011;
        break;

        case 121 ... 137:        //129: Top right
        bNibble = 0b0010;
    12f8:	92 e0       	ldi	r25, 0x02	; 2
        break;
    12fa:	03 c0       	rjmp	.+6      	; 0x1302 <CheckButtons+0x98>

        case 162 ... 186:        //174: Bottom right
        bNibble = 0b0001;
    12fc:	91 e0       	ldi	r25, 0x01	; 1
        break;
    12fe:	01 c0       	rjmp	.+2      	; 0x1302 <CheckButtons+0x98>
};

// Returns button combination (4LSB) and number of consecutive times this combination is detected. First read should always be ignored! 
uint8_t CheckButtons(uint8_t previousValue){
    uint8_t bADC = (uint8_t)(adcBtns>>4);
    uint8_t bNibble = 0x0F;     //MSB to LSB: Bottom left, top left, top right, bottom right, 0F is error
    1300:	9f e0       	ldi	r25, 0x0F	; 15
        case 240 ... 255:        //255: No button pressed
        bNibble = 0b0000;
        break;
    }

    if ((previousValue&0x0F)==bNibble){
    1302:	28 2f       	mov	r18, r24
    1304:	2f 70       	andi	r18, 0x0F	; 15
    1306:	92 13       	cpse	r25, r18
    1308:	06 c0       	rjmp	.+12     	; 0x1316 <CheckButtons+0xac>
        if ((previousValue&0xF0) < 0xF0) previousValue += 0x10; //Same value? Increase time nibble
    130a:	98 2f       	mov	r25, r24
    130c:	90 7f       	andi	r25, 0xF0	; 240
    130e:	90 3f       	cpi	r25, 0xF0	; 240
    1310:	39 f0       	breq	.+14     	; 0x1320 <CheckButtons+0xb6>
    1312:	80 5f       	subi	r24, 0xF0	; 240
    1314:	08 95       	ret
        return previousValue;       
    } else if (bNibble == 0) return 0xFF; //Buttons released, 0xFF triggers readout, previousValue holds last button value.
    1316:	99 23       	and	r25, r25
    1318:	11 f0       	breq	.+4      	; 0x131e <CheckButtons+0xb4>
    131a:	89 2f       	mov	r24, r25
    131c:	08 95       	ret
    131e:	8f ef       	ldi	r24, 0xFF	; 255
              else return bNibble;  //New value  
}
    1320:	08 95       	ret

00001322 <lfsr>:

uint8_t lfsr(){
    static uint16_t state = 0xd401;
    state ^= (state << 13);
    1322:	80 91 1e 38 	lds	r24, 0x381E	; 0x80381e <state.3883>
    1326:	90 91 1f 38 	lds	r25, 0x381F	; 0x80381f <state.3883+0x1>
    132a:	9c 01       	movw	r18, r24
    132c:	32 2f       	mov	r19, r18
    132e:	22 27       	eor	r18, r18
    1330:	32 95       	swap	r19
    1332:	33 0f       	add	r19, r19
    1334:	30 7e       	andi	r19, 0xE0	; 224
    1336:	82 27       	eor	r24, r18
    1338:	93 27       	eor	r25, r19
    state ^= (state >> 9);
    133a:	9c 01       	movw	r18, r24
    133c:	23 2f       	mov	r18, r19
    133e:	33 27       	eor	r19, r19
    1340:	26 95       	lsr	r18
    1342:	82 27       	eor	r24, r18
    1344:	93 27       	eor	r25, r19
    state ^= (state << 7);
    1346:	9c 01       	movw	r18, r24
    1348:	36 95       	lsr	r19
    134a:	32 2f       	mov	r19, r18
    134c:	22 27       	eor	r18, r18
    134e:	37 95       	ror	r19
    1350:	27 95       	ror	r18
    1352:	82 27       	eor	r24, r18
    1354:	93 27       	eor	r25, r19
    1356:	80 93 1e 38 	sts	0x381E, r24	; 0x80381e <state.3883>
    135a:	90 93 1f 38 	sts	0x381F, r25	; 0x80381f <state.3883+0x1>
    return (state & 0xff);
}
    135e:	08 95       	ret

00001360 <floatSpeed>:

void floatSpeed(uint8_t bits, uint16_t min, uint16_t max){
    1360:	df 92       	push	r13
    1362:	ef 92       	push	r14
    1364:	ff 92       	push	r15
    1366:	0f 93       	push	r16
    1368:	1f 93       	push	r17
    136a:	cf 93       	push	r28
    136c:	df 93       	push	r29
    136e:	7b 01       	movw	r14, r22
    1370:	8a 01       	movw	r16, r20
    uint16_t val = TCB1_CCMP;
    1372:	c0 91 5c 0a 	lds	r28, 0x0A5C	; 0x800a5c <__TEXT_REGION_LENGTH__+0x700a5c>
    1376:	d0 91 5d 0a 	lds	r29, 0x0A5D	; 0x800a5d <__TEXT_REGION_LENGTH__+0x700a5d>
    bits = mask[(bits-1)&0x07];
    137a:	e8 2f       	mov	r30, r24
    137c:	f0 e0       	ldi	r31, 0x00	; 0
    137e:	31 97       	sbiw	r30, 0x01	; 1
    1380:	e7 70       	andi	r30, 0x07	; 7
    1382:	ff 27       	eor	r31, r31
    1384:	e0 5e       	subi	r30, 0xE0	; 224
    1386:	f7 4c       	sbci	r31, 0xC7	; 199
    1388:	d0 80       	ld	r13, Z
    val += (lfsr()&bits);
    138a:	cb df       	rcall	.-106    	; 0x1322 <lfsr>
    138c:	8d 21       	and	r24, r13
    138e:	c8 0f       	add	r28, r24
    1390:	d1 1d       	adc	r29, r1
    val -= (lfsr()&bits);
    1392:	c7 df       	rcall	.-114    	; 0x1322 <lfsr>
    1394:	8d 21       	and	r24, r13
    1396:	c8 1b       	sub	r28, r24
    1398:	d1 09       	sbc	r29, r1
    139a:	0c 17       	cp	r16, r28
    139c:	1d 07       	cpc	r17, r29
    139e:	08 f4       	brcc	.+2      	; 0x13a2 <floatSpeed+0x42>
    13a0:	e8 01       	movw	r28, r16
    13a2:	c7 01       	movw	r24, r14
    13a4:	ec 16       	cp	r14, r28
    13a6:	fd 06       	cpc	r15, r29
    13a8:	08 f4       	brcc	.+2      	; 0x13ac <floatSpeed+0x4c>
    13aa:	ce 01       	movw	r24, r28
    13ac:	80 93 5c 0a 	sts	0x0A5C, r24	; 0x800a5c <__TEXT_REGION_LENGTH__+0x700a5c>
    if (val > max) val = max;    
    if (val < min) val = min;  
    TCB1_CCMP = val;
    13b0:	90 93 5d 0a 	sts	0x0A5D, r25	; 0x800a5d <__TEXT_REGION_LENGTH__+0x700a5d>
    13b4:	df 91       	pop	r29
}
    13b6:	cf 91       	pop	r28
    13b8:	1f 91       	pop	r17
    13ba:	0f 91       	pop	r16
    13bc:	ff 90       	pop	r15
    13be:	ef 90       	pop	r14
    13c0:	df 90       	pop	r13
    13c2:	08 95       	ret

000013c4 <floatAround>:
    13c4:	0f 93       	push	r16

uint8_t floatAround(uint8_t sample, uint8_t bits, uint8_t min, uint8_t max){
    13c6:	1f 93       	push	r17
    13c8:	cf 93       	push	r28
    13ca:	df 93       	push	r29
    13cc:	c8 2f       	mov	r28, r24
    13ce:	d4 2f       	mov	r29, r20
    13d0:	02 2f       	mov	r16, r18
    bits = mask[(bits-1)&0x07];
    13d2:	e6 2f       	mov	r30, r22
    13d4:	f0 e0       	ldi	r31, 0x00	; 0
    13d6:	31 97       	sbiw	r30, 0x01	; 1
    13d8:	e7 70       	andi	r30, 0x07	; 7
    13da:	ff 27       	eor	r31, r31
    13dc:	e0 5e       	subi	r30, 0xE0	; 224
    13de:	f7 4c       	sbci	r31, 0xC7	; 199
    13e0:	10 81       	ld	r17, Z
    sample += lfsr()&bits;
    13e2:	9f df       	rcall	.-194    	; 0x1322 <lfsr>
    13e4:	81 23       	and	r24, r17
    13e6:	c8 0f       	add	r28, r24
    sample -= lfsr()&bits;
    13e8:	9c df       	rcall	.-200    	; 0x1322 <lfsr>
    13ea:	81 23       	and	r24, r17
    13ec:	c8 1b       	sub	r28, r24
    13ee:	8c 2f       	mov	r24, r28
    13f0:	00 23       	and	r16, r16
    if (max){
    13f2:	41 f0       	breq	.+16     	; 0x1404 <floatAround+0x40>
    13f4:	9c 2f       	mov	r25, r28
    13f6:	0c 17       	cp	r16, r28
    13f8:	08 f4       	brcc	.+2      	; 0x13fc <floatAround+0x38>
    13fa:	90 2f       	mov	r25, r16
    13fc:	8d 2f       	mov	r24, r29
    13fe:	d9 17       	cp	r29, r25
    1400:	08 f4       	brcc	.+2      	; 0x1404 <floatAround+0x40>
    1402:	89 2f       	mov	r24, r25
    1404:	41 e0       	ldi	r20, 0x01	; 1
        if (sample > max) sample = max;
        if (sample < min) sample = min;
    }
    if (min & (sample < min)) sample = min;
    1406:	50 e0       	ldi	r21, 0x00	; 0
    1408:	8d 17       	cp	r24, r29
    140a:	10 f0       	brcs	.+4      	; 0x1410 <floatAround+0x4c>
    140c:	40 e0       	ldi	r20, 0x00	; 0
    140e:	50 e0       	ldi	r21, 0x00	; 0
    1410:	2d 2f       	mov	r18, r29
    1412:	30 e0       	ldi	r19, 0x00	; 0
    1414:	24 23       	and	r18, r20
    1416:	35 23       	and	r19, r21
    1418:	23 2b       	or	r18, r19
    141a:	09 f0       	breq	.+2      	; 0x141e <floatAround+0x5a>
    141c:	8d 2f       	mov	r24, r29
    141e:	df 91       	pop	r29

    return sample;
}
    1420:	cf 91       	pop	r28
    1422:	1f 91       	pop	r17
    1424:	0f 91       	pop	r16
    1426:	08 95       	ret

00001428 <SaveGameState>:
    1428:	cf 92       	push	r12
    inventory[0] = (gameState[INVADDR]<<8|gameState[INVADDR+1]);
    inventory[1] = (gameState[INVADDR+2]<<8|gameState[INVADDR+3]);
}

//Save changed data to EEPROM
uint8_t SaveGameState(){
    142a:	df 92       	push	r13
    142c:	ff 92       	push	r15
    142e:	0f 93       	push	r16
    1430:	1f 93       	push	r17
    1432:	cf 93       	push	r28
    1434:	df 93       	push	r29
    1436:	cd b7       	in	r28, 0x3d	; 61
    1438:	de b7       	in	r29, 0x3e	; 62
    143a:	64 97       	sbiw	r28, 0x14	; 20
    143c:	cd bf       	out	0x3d, r28	; 61
    143e:	de bf       	out	0x3e, r29	; 62
    uint8_t gameCheck[BOOTCHK];

    //Read all data up to the boot/check result address from EEPROM
    EERead(0, &gameCheck[0], BOOTCHK);
    1440:	44 e1       	ldi	r20, 0x14	; 20
    1442:	be 01       	movw	r22, r28
    1444:	6f 5f       	subi	r22, 0xFF	; 255
    1446:	7f 4f       	sbci	r23, 0xFF	; 255
    1448:	80 e0       	ldi	r24, 0x00	; 0
    144a:	97 de       	rcall	.-722    	; 0x117a <EERead>
    144c:	8b e5       	ldi	r24, 0x5B	; 91
    144e:	c8 2e       	mov	r12, r24
    1450:	8a e3       	ldi	r24, 0x3A	; 58
    1452:	d8 2e       	mov	r13, r24
    1454:	8e 01       	movw	r16, r28
    1456:	0f 5f       	subi	r16, 0xFF	; 255
    1458:	1f 4f       	sbci	r17, 0xFF	; 255

    //Check game status bits
    for (uint8_t x=0; x<STATLEN; ++x){
    145a:	f1 2c       	mov	r15, r1
        if (gameState[x] != gameCheck[x]){
    145c:	f8 01       	movw	r30, r16
    145e:	81 91       	ld	r24, Z+
    1460:	8f 01       	movw	r16, r30
    1462:	f6 01       	movw	r30, r12
    1464:	90 81       	ld	r25, Z
    1466:	98 13       	cpse	r25, r24
    1468:	08 c0       	rjmp	.+16     	; 0x147a <SaveGameState+0x52>

    //Read all data up to the boot/check result address from EEPROM
    EERead(0, &gameCheck[0], BOOTCHK);

    //Check game status bits
    for (uint8_t x=0; x<STATLEN; ++x){
    146a:	f3 94       	inc	r15
    146c:	ff ef       	ldi	r31, 0xFF	; 255
    146e:	cf 1a       	sub	r12, r31
    1470:	df 0a       	sbc	r13, r31
    1472:	80 e1       	ldi	r24, 0x10	; 16
    1474:	f8 12       	cpse	r15, r24
    1476:	f2 cf       	rjmp	.-28     	; 0x145c <SaveGameState+0x34>
    1478:	08 c0       	rjmp	.+16     	; 0x148a <SaveGameState+0x62>
        if (gameState[x] != gameCheck[x]){
            if (EEWrite(x, &gameState[x], 1)) return 1;
    147a:	41 e0       	ldi	r20, 0x01	; 1
    147c:	b6 01       	movw	r22, r12
    147e:	8f 2d       	mov	r24, r15
    1480:	8c de       	rcall	.-744    	; 0x119a <EEWrite>
    1482:	88 23       	and	r24, r24
    1484:	91 f3       	breq	.-28     	; 0x146a <SaveGameState+0x42>
    1486:	91 e0       	ldi	r25, 0x01	; 1
    1488:	36 c0       	rjmp	.+108    	; 0x14f6 <SaveGameState+0xce>
        }
    }

    //Check the inventory too
    gameState[INVADDR] = (uint8_t)(inventory[0]>>8);
    148a:	20 91 3a 38 	lds	r18, 0x383A	; 0x80383a <inventory>
    148e:	30 91 3b 38 	lds	r19, 0x383B	; 0x80383b <inventory+0x1>
    1492:	30 93 6b 3a 	sts	0x3A6B, r19	; 0x803a6b <gameState+0x10>
    gameState[INVADDR+1] = (uint8_t)(inventory[0]&0xff);
    1496:	20 93 6c 3a 	sts	0x3A6C, r18	; 0x803a6c <gameState+0x11>
    gameState[INVADDR+2] = (uint8_t)(inventory[1]>>8);
    149a:	80 91 3c 38 	lds	r24, 0x383C	; 0x80383c <inventory+0x2>
    149e:	90 91 3d 38 	lds	r25, 0x383D	; 0x80383d <inventory+0x3>
    14a2:	90 93 6d 3a 	sts	0x3A6D, r25	; 0x803a6d <gameState+0x12>
    gameState[INVADDR+3] = (uint8_t)(inventory[1]&0xff);
    14a6:	80 93 6e 3a 	sts	0x3A6E, r24	; 0x803a6e <gameState+0x13>
    if (inventory[0] != (gameCheck[INVADDR]<<8|gameCheck[INVADDR+1])) {
    14aa:	89 89       	ldd	r24, Y+17	; 0x11
    14ac:	9a 89       	ldd	r25, Y+18	; 0x12
    14ae:	98 27       	eor	r25, r24
    14b0:	89 27       	eor	r24, r25
    14b2:	98 27       	eor	r25, r24
    14b4:	28 17       	cp	r18, r24
    14b6:	39 07       	cpc	r19, r25
    14b8:	69 f4       	brne	.+26     	; 0x14d4 <SaveGameState+0xac>
        if (EEWrite(INVADDR, &gameState[INVADDR], 2)) return 1;
    }
    if (inventory[1] != (gameCheck[INVADDR+2]<<8|gameCheck[INVADDR+3])) {
    14ba:	8b 89       	ldd	r24, Y+19	; 0x13
    14bc:	9c 89       	ldd	r25, Y+20	; 0x14
    14be:	98 27       	eor	r25, r24
    14c0:	89 27       	eor	r24, r25
    14c2:	98 27       	eor	r25, r24
    14c4:	20 91 3c 38 	lds	r18, 0x383C	; 0x80383c <inventory+0x2>
    14c8:	30 91 3d 38 	lds	r19, 0x383D	; 0x80383d <inventory+0x3>
    14cc:	28 17       	cp	r18, r24
    14ce:	39 07       	cpc	r19, r25
    14d0:	49 f4       	brne	.+18     	; 0x14e4 <SaveGameState+0xbc>
    14d2:	10 c0       	rjmp	.+32     	; 0x14f4 <SaveGameState+0xcc>
    gameState[INVADDR] = (uint8_t)(inventory[0]>>8);
    gameState[INVADDR+1] = (uint8_t)(inventory[0]&0xff);
    gameState[INVADDR+2] = (uint8_t)(inventory[1]>>8);
    gameState[INVADDR+3] = (uint8_t)(inventory[1]&0xff);
    if (inventory[0] != (gameCheck[INVADDR]<<8|gameCheck[INVADDR+1])) {
        if (EEWrite(INVADDR, &gameState[INVADDR], 2)) return 1;
    14d4:	42 e0       	ldi	r20, 0x02	; 2
    14d6:	6b e6       	ldi	r22, 0x6B	; 107
    14d8:	7a e3       	ldi	r23, 0x3A	; 58
    14da:	80 e1       	ldi	r24, 0x10	; 16
    14dc:	5e de       	rcall	.-836    	; 0x119a <EEWrite>
    14de:	88 23       	and	r24, r24
    14e0:	61 f3       	breq	.-40     	; 0x14ba <SaveGameState+0x92>
    14e2:	d1 cf       	rjmp	.-94     	; 0x1486 <SaveGameState+0x5e>
    }
    if (inventory[1] != (gameCheck[INVADDR+2]<<8|gameCheck[INVADDR+3])) {
        if (EEWrite(INVADDR+2, &gameState[INVADDR+2], 2)) return 1;
    14e4:	42 e0       	ldi	r20, 0x02	; 2
    14e6:	6d e6       	ldi	r22, 0x6D	; 109
    14e8:	7a e3       	ldi	r23, 0x3A	; 58
    14ea:	82 e1       	ldi	r24, 0x12	; 18
    14ec:	56 de       	rcall	.-852    	; 0x119a <EEWrite>
    EERead(0, &gameCheck[0], BOOTCHK);

    //Check game status bits
    for (uint8_t x=0; x<STATLEN; ++x){
        if (gameState[x] != gameCheck[x]){
            if (EEWrite(x, &gameState[x], 1)) return 1;
    14ee:	91 e0       	ldi	r25, 0x01	; 1
    14f0:	81 11       	cpse	r24, r1
    14f2:	01 c0       	rjmp	.+2      	; 0x14f6 <SaveGameState+0xce>
    14f4:	90 e0       	ldi	r25, 0x00	; 0
    if (inventory[1] != (gameCheck[INVADDR+2]<<8|gameCheck[INVADDR+3])) {
        if (EEWrite(INVADDR+2, &gameState[INVADDR+2], 2)) return 1;
    }

    return 0;
}
    14f6:	89 2f       	mov	r24, r25
    14f8:	64 96       	adiw	r28, 0x14	; 20
    14fa:	cd bf       	out	0x3d, r28	; 61
    14fc:	de bf       	out	0x3e, r29	; 62
    14fe:	df 91       	pop	r29
    1500:	cf 91       	pop	r28
    1502:	1f 91       	pop	r17
    1504:	0f 91       	pop	r16
    1506:	ff 90       	pop	r15
    1508:	df 90       	pop	r13
    150a:	cf 90       	pop	r12
    150c:	08 95       	ret

0000150e <ReadStatusBit>:

uint8_t ReadStatusBit(uint8_t number){
    number &= 0x7f;
    if (gameState[number>>3] & (1<<(number&7))) return 1; else return 0;
    150e:	e8 2f       	mov	r30, r24
    1510:	ef 77       	andi	r30, 0x7F	; 127
    1512:	e6 95       	lsr	r30
    1514:	e6 95       	lsr	r30
    1516:	e6 95       	lsr	r30
    1518:	f0 e0       	ldi	r31, 0x00	; 0
    151a:	e5 5a       	subi	r30, 0xA5	; 165
    151c:	f5 4c       	sbci	r31, 0xC5	; 197
    151e:	20 81       	ld	r18, Z
    1520:	30 e0       	ldi	r19, 0x00	; 0
    1522:	87 70       	andi	r24, 0x07	; 7
    1524:	a9 01       	movw	r20, r18
    1526:	02 c0       	rjmp	.+4      	; 0x152c <ReadStatusBit+0x1e>
    1528:	55 95       	asr	r21
    152a:	47 95       	ror	r20
    152c:	8a 95       	dec	r24
    152e:	e2 f7       	brpl	.-8      	; 0x1528 <ReadStatusBit+0x1a>
    1530:	ca 01       	movw	r24, r20
}
    1532:	81 70       	andi	r24, 0x01	; 1
    1534:	08 95       	ret

00001536 <WriteStatusBit>:

void WriteStatusBit(uint8_t number, uint8_t state){
    number &= 0x7f;
    1536:	e8 2f       	mov	r30, r24
    1538:	ef 77       	andi	r30, 0x7F	; 127
    153a:	e6 95       	lsr	r30
    153c:	e6 95       	lsr	r30
    153e:	e6 95       	lsr	r30
    1540:	28 2f       	mov	r18, r24
    1542:	27 70       	andi	r18, 0x07	; 7
    if (state) gameState[number>>3] |= 1<<(number&7);
    1544:	f0 e0       	ldi	r31, 0x00	; 0
    1546:	e5 5a       	subi	r30, 0xA5	; 165
    1548:	f5 4c       	sbci	r31, 0xC5	; 197
    154a:	81 e0       	ldi	r24, 0x01	; 1
    154c:	90 e0       	ldi	r25, 0x00	; 0
    154e:	01 c0       	rjmp	.+2      	; 0x1552 <WriteStatusBit+0x1c>
    1550:	88 0f       	add	r24, r24
    1552:	2a 95       	dec	r18
    1554:	ea f7       	brpl	.-6      	; 0x1550 <WriteStatusBit+0x1a>
    1556:	66 23       	and	r22, r22
    1558:	19 f0       	breq	.+6      	; 0x1560 <WriteStatusBit+0x2a>
    155a:	90 81       	ld	r25, Z
    155c:	89 2b       	or	r24, r25
    155e:	03 c0       	rjmp	.+6      	; 0x1566 <WriteStatusBit+0x30>
    else gameState[number>>3] &= ~(1<<(number&7));
    1560:	80 95       	com	r24
    1562:	90 81       	ld	r25, Z
    1564:	89 23       	and	r24, r25
    1566:	80 83       	st	Z, r24
    1568:	08 95       	ret

0000156a <UpdateState>:
}

//Update game state: num -> vBBBBbbb v=value(0 is set!), BBBB=Byte number, bbb=bit number
void UpdateState(uint8_t num){
    156a:	98 2f       	mov	r25, r24
    uint8_t clearBit = num & 0x80;
    num &= 0x7f;
    156c:	8f 77       	andi	r24, 0x7F	; 127
    if (num) {
    156e:	31 f0       	breq	.+12     	; 0x157c <UpdateState+0x12>
        if (clearBit) {
    1570:	97 ff       	sbrs	r25, 7
    1572:	02 c0       	rjmp	.+4      	; 0x1578 <UpdateState+0xe>
            WriteStatusBit(num, 0);
    1574:	60 e0       	ldi	r22, 0x00	; 0
    1576:	01 c0       	rjmp	.+2      	; 0x157a <UpdateState+0x10>
        } else {
            WriteStatusBit(num, 1);
    1578:	61 e0       	ldi	r22, 0x01	; 1
    157a:	dd cf       	rjmp	.-70     	; 0x1536 <WriteStatusBit>
    157c:	08 95       	ret

0000157e <CheckState>:
        }
    }
}

//Checks if state of bit BBBBbbb matches with v (inverted) bit
uint8_t CheckState(uint8_t num){
    157e:	cf 93       	push	r28
    1580:	c8 2f       	mov	r28, r24
    uint8_t bitSet = 0;
    if (ReadStatusBit(num & 0x7f)){
    1582:	8f 77       	andi	r24, 0x7F	; 127
    1584:	c4 df       	rcall	.-120    	; 0x150e <ReadStatusBit>
    1586:	2c 2f       	mov	r18, r28
    1588:	22 1f       	adc	r18, r18
    158a:	22 27       	eor	r18, r18
    158c:	22 1f       	adc	r18, r18
    158e:	91 e0       	ldi	r25, 0x01	; 1
    1590:	81 11       	cpse	r24, r1
    1592:	01 c0       	rjmp	.+2      	; 0x1596 <CheckState+0x18>
    1594:	90 e0       	ldi	r25, 0x00	; 0
    }
    if (((num & 0x80)>0)^(bitSet>0)){
        return 1;
    }
    return 0;
}
    1596:	82 2f       	mov	r24, r18
    1598:	89 27       	eor	r24, r25
    159a:	cf 91       	pop	r28
    159c:	08 95       	ret

0000159e <getID>:

//Give out a number 0..3, calculated using serial number fields
uint8_t getID(){
    uint8_t id = 0;
    uint8_t *serNum;
    serNum = (uint8_t*)&SIGROW_SERNUM0;
    159e:	e3 e0       	ldi	r30, 0x03	; 3
    15a0:	f1 e1       	ldi	r31, 0x11	; 17
    return 0;
}

//Give out a number 0..3, calculated using serial number fields
uint8_t getID(){
    uint8_t id = 0;
    15a2:	80 e0       	ldi	r24, 0x00	; 0
    uint8_t *serNum;
    serNum = (uint8_t*)&SIGROW_SERNUM0;

    for (uint8_t x=0; x<10; ++x){
        id += *serNum;
    15a4:	91 91       	ld	r25, Z+
    15a6:	89 0f       	add	r24, r25
uint8_t getID(){
    uint8_t id = 0;
    uint8_t *serNum;
    serNum = (uint8_t*)&SIGROW_SERNUM0;

    for (uint8_t x=0; x<10; ++x){
    15a8:	ed 30       	cpi	r30, 0x0D	; 13
    15aa:	91 e1       	ldi	r25, 0x11	; 17
    15ac:	f9 07       	cpc	r31, r25
    15ae:	d1 f7       	brne	.-12     	; 0x15a4 <getID+0x6>
        id += *serNum;
        ++serNum;
    }
    id %= 4;
    whoami = id+1;
    15b0:	83 70       	andi	r24, 0x03	; 3
    15b2:	8f 5f       	subi	r24, 0xFF	; 255
    15b4:	80 93 39 38 	sts	0x3839, r24	; 0x803839 <whoami>
    return whoami;
}
    15b8:	08 95       	ret

000015ba <Reset>:

void Reset(){
    15ba:	eb e5       	ldi	r30, 0x5B	; 91
    15bc:	fa e3       	ldi	r31, 0x3A	; 58
    //# 110   set to 1 by FW if badge UUID mod 4 == 0
    //# 111   set to 1 by FW if badge UUID mod 4 == 1
    //# 112   set to 1 by FW if badge UUID mod 4 == 2
    //# 113   set to 1 by FW if badge UUID mod 4 == 3
    for (uint8_t x=0; x<sizeof(gameState); ++x){
        gameState[x] = 0;
    15be:	11 92       	st	Z+, r1
    //Reset game progress (all zeroes) and load some bits:
    //# 110   set to 1 by FW if badge UUID mod 4 == 0
    //# 111   set to 1 by FW if badge UUID mod 4 == 1
    //# 112   set to 1 by FW if badge UUID mod 4 == 2
    //# 113   set to 1 by FW if badge UUID mod 4 == 3
    for (uint8_t x=0; x<sizeof(gameState); ++x){
    15c0:	8a e3       	ldi	r24, 0x3A	; 58
    15c2:	ef 36       	cpi	r30, 0x6F	; 111
    15c4:	f8 07       	cpc	r31, r24
    15c6:	d9 f7       	brne	.-10     	; 0x15be <Reset+0x4>
        gameState[x] = 0;
    }

    uint8_t id = getID();
    15c8:	ea df       	rcall	.-44     	; 0x159e <getID>

    //Write bit in gameState location 110..113
    if (id == 0) WriteStatusBit(110, 1);
    15ca:	81 11       	cpse	r24, r1
    15cc:	04 c0       	rjmp	.+8      	; 0x15d6 <Reset+0x1c>
    if (gameState[number>>3] & (1<<(number&7))) return 1; else return 0;
}

void WriteStatusBit(uint8_t number, uint8_t state){
    number &= 0x7f;
    if (state) gameState[number>>3] |= 1<<(number&7);
    15ce:	80 91 68 3a 	lds	r24, 0x3A68	; 0x803a68 <gameState+0xd>
    15d2:	80 64       	ori	r24, 0x40	; 64
    15d4:	05 c0       	rjmp	.+10     	; 0x15e0 <Reset+0x26>

    uint8_t id = getID();

    //Write bit in gameState location 110..113
    if (id == 0) WriteStatusBit(110, 1);
    else if (id == 1) WriteStatusBit(111, 1);
    15d6:	81 30       	cpi	r24, 0x01	; 1
    15d8:	31 f4       	brne	.+12     	; 0x15e6 <Reset+0x2c>
    if (gameState[number>>3] & (1<<(number&7))) return 1; else return 0;
}

void WriteStatusBit(uint8_t number, uint8_t state){
    number &= 0x7f;
    if (state) gameState[number>>3] |= 1<<(number&7);
    15da:	80 91 68 3a 	lds	r24, 0x3A68	; 0x803a68 <gameState+0xd>
    15de:	80 68       	ori	r24, 0x80	; 128
    15e0:	80 93 68 3a 	sts	0x3A68, r24	; 0x803a68 <gameState+0xd>
    15e4:	0d c0       	rjmp	.+26     	; 0x1600 <Reset+0x46>
    uint8_t id = getID();

    //Write bit in gameState location 110..113
    if (id == 0) WriteStatusBit(110, 1);
    else if (id == 1) WriteStatusBit(111, 1);
    else if (id == 2) WriteStatusBit(112, 1);
    15e6:	82 30       	cpi	r24, 0x02	; 2
    15e8:	21 f4       	brne	.+8      	; 0x15f2 <Reset+0x38>
    if (gameState[number>>3] & (1<<(number&7))) return 1; else return 0;
}

void WriteStatusBit(uint8_t number, uint8_t state){
    number &= 0x7f;
    if (state) gameState[number>>3] |= 1<<(number&7);
    15ea:	80 91 69 3a 	lds	r24, 0x3A69	; 0x803a69 <gameState+0xe>
    15ee:	81 60       	ori	r24, 0x01	; 1
    15f0:	05 c0       	rjmp	.+10     	; 0x15fc <Reset+0x42>

    //Write bit in gameState location 110..113
    if (id == 0) WriteStatusBit(110, 1);
    else if (id == 1) WriteStatusBit(111, 1);
    else if (id == 2) WriteStatusBit(112, 1);
    else if (id == 3) WriteStatusBit(113, 1);
    15f2:	83 30       	cpi	r24, 0x03	; 3
    15f4:	29 f4       	brne	.+10     	; 0x1600 <Reset+0x46>
    if (gameState[number>>3] & (1<<(number&7))) return 1; else return 0;
}

void WriteStatusBit(uint8_t number, uint8_t state){
    number &= 0x7f;
    if (state) gameState[number>>3] |= 1<<(number&7);
    15f6:	80 91 69 3a 	lds	r24, 0x3A69	; 0x803a69 <gameState+0xe>
    15fa:	82 60       	ori	r24, 0x02	; 2
    15fc:	80 93 69 3a 	sts	0x3A69, r24	; 0x803a69 <gameState+0xe>
    1600:	80 91 5b 3a 	lds	r24, 0x3A5B	; 0x803a5b <gameState>
    1604:	81 60       	ori	r24, 0x01	; 1
    1606:	80 93 5b 3a 	sts	0x3A5B, r24	; 0x803a5b <gameState>
    160a:	08 95       	ret

0000160c <LoadGameState>:

    return sample;
}

//Load game status
void LoadGameState(){
    160c:	cf 93       	push	r28
    160e:	df 93       	push	r29
    EERead(0, &gameState[0], BOOTCHK);   //Load game status bits from EEPROM
    1610:	44 e1       	ldi	r20, 0x14	; 20
    1612:	6b e5       	ldi	r22, 0x5B	; 91
    1614:	7a e3       	ldi	r23, 0x3A	; 58
    1616:	80 e0       	ldi	r24, 0x00	; 0
    1618:	b0 dd       	rcall	.-1184   	; 0x117a <EERead>
    161a:	ce e6       	ldi	r28, 0x6E	; 110

    uint8_t idSet = 0;
    161c:	d0 e0       	ldi	r29, 0x00	; 0
    for (uint8_t x=0; x<4; ++x){
        idSet += ReadStatusBit(110+x);
    161e:	8c 2f       	mov	r24, r28
    1620:	76 df       	rcall	.-276    	; 0x150e <ReadStatusBit>
    1622:	d8 0f       	add	r29, r24
    1624:	cf 5f       	subi	r28, 0xFF	; 255
//Load game status
void LoadGameState(){
    EERead(0, &gameState[0], BOOTCHK);   //Load game status bits from EEPROM

    uint8_t idSet = 0;
    for (uint8_t x=0; x<4; ++x){
    1626:	c2 37       	cpi	r28, 0x72	; 114
    1628:	d1 f7       	brne	.-12     	; 0x161e <LoadGameState+0x12>
        idSet += ReadStatusBit(110+x);
    }

    //Check if badge is reset(0 = cheated!) or new(3) or error(2)
    if (idSet != 1) {
    162a:	d1 30       	cpi	r29, 0x01	; 1
        Reset();
    162c:	11 f0       	breq	.+4      	; 0x1632 <LoadGameState+0x26>
    162e:	c5 df       	rcall	.-118    	; 0x15ba <Reset>
    } else getID();
    1630:	01 c0       	rjmp	.+2      	; 0x1634 <LoadGameState+0x28>
    1632:	b5 df       	rcall	.-150    	; 0x159e <getID>

    inventory[0] = (gameState[INVADDR]<<8|gameState[INVADDR+1]);
    1634:	80 91 6b 3a 	lds	r24, 0x3A6B	; 0x803a6b <gameState+0x10>
    1638:	90 91 6c 3a 	lds	r25, 0x3A6C	; 0x803a6c <gameState+0x11>
    163c:	98 27       	eor	r25, r24
    163e:	89 27       	eor	r24, r25
    1640:	98 27       	eor	r25, r24
    1642:	80 93 3a 38 	sts	0x383A, r24	; 0x80383a <inventory>
    1646:	90 93 3b 38 	sts	0x383B, r25	; 0x80383b <inventory+0x1>
    inventory[1] = (gameState[INVADDR+2]<<8|gameState[INVADDR+3]);
    164a:	80 91 6d 3a 	lds	r24, 0x3A6D	; 0x803a6d <gameState+0x12>
    164e:	90 91 6e 3a 	lds	r25, 0x3A6E	; 0x803a6e <gameState+0x13>
    1652:	98 27       	eor	r25, r24
    1654:	89 27       	eor	r24, r25
    1656:	98 27       	eor	r25, r24
    1658:	80 93 3c 38 	sts	0x383C, r24	; 0x80383c <inventory+0x2>
    165c:	90 93 3d 38 	sts	0x383D, r25	; 0x80383d <inventory+0x3>
}
    1660:	df 91       	pop	r29
    1662:	cf 91       	pop	r28
    1664:	08 95       	ret

00001666 <HotSummer>:
    //Write bit 0, must always be 1!
    WriteStatusBit(0, 1);
}

//Sets specific game bits after the badge is heated for one and two times.
uint8_t HotSummer(){
    1666:	cf 93       	push	r28
    static uint8_t cooledDown = 0;

    if (CheckState(SUMMERS_COMPLETED)){
    1668:	86 e7       	ldi	r24, 0x76	; 118
    166a:	89 df       	rcall	.-238    	; 0x157e <CheckState>
    166c:	c8 2f       	mov	r28, r24
    166e:	88 23       	and	r24, r24
    1670:	81 f0       	breq	.+32     	; 0x1692 <HotSummer+0x2c>
        iLED[SCARAB[G]] = 0;
    1672:	e0 91 8d bc 	lds	r30, 0xBC8D	; 0x80bc8d <__bss_end+0x8179>
    1676:	f0 e0       	ldi	r31, 0x00	; 0
    1678:	ec 53       	subi	r30, 0x3C	; 60
    167a:	f5 4c       	sbci	r31, 0xC5	; 197
    167c:	10 82       	st	Z, r1
        iLED[SCARAB[R]] = dimValue;
    167e:	e0 91 8c bc 	lds	r30, 0xBC8C	; 0x80bc8c <__bss_end+0x8178>
    1682:	f0 e0       	ldi	r31, 0x00	; 0
    1684:	80 91 0b 38 	lds	r24, 0x380B	; 0x80380b <dimValue>
    1688:	ec 53       	subi	r30, 0x3C	; 60
    168a:	f5 4c       	sbci	r31, 0xC5	; 197
    168c:	80 83       	st	Z, r24
        return 1;
    168e:	c1 e0       	ldi	r28, 0x01	; 1
    1690:	4c c0       	rjmp	.+152    	; 0x172a <HotSummer+0xc4>
    }

    if (CheckState(FIRST_SUMMER)) {
    1692:	85 e7       	ldi	r24, 0x75	; 117
    1694:	74 df       	rcall	.-280    	; 0x157e <CheckState>
    1696:	88 23       	and	r24, r24
    1698:	59 f1       	breq	.+86     	; 0x16f0 <HotSummer+0x8a>
        iLED[SCARAB[G]] = dimValue;
    169a:	e0 91 8d bc 	lds	r30, 0xBC8D	; 0x80bc8d <__bss_end+0x8179>
    169e:	f0 e0       	ldi	r31, 0x00	; 0
    16a0:	80 91 0b 38 	lds	r24, 0x380B	; 0x80380b <dimValue>
    16a4:	ec 53       	subi	r30, 0x3C	; 60
    16a6:	f5 4c       	sbci	r31, 0xC5	; 197
    16a8:	80 83       	st	Z, r24
        if ((cooledDown) && (adcTemp >= (calTemp + 32))) {
    16aa:	80 91 53 38 	lds	r24, 0x3853	; 0x803853 <cooledDown.3942>
    16ae:	88 23       	and	r24, r24
    16b0:	79 f0       	breq	.+30     	; 0x16d0 <HotSummer+0x6a>
    16b2:	80 91 ba 3a 	lds	r24, 0x3ABA	; 0x803aba <calTemp>
    16b6:	90 91 bb 3a 	lds	r25, 0x3ABB	; 0x803abb <calTemp+0x1>
    16ba:	20 91 ef 3a 	lds	r18, 0x3AEF	; 0x803aef <adcTemp>
    16be:	30 91 f0 3a 	lds	r19, 0x3AF0	; 0x803af0 <adcTemp+0x1>
    16c2:	80 96       	adiw	r24, 0x20	; 32
    16c4:	28 17       	cp	r18, r24
    16c6:	39 07       	cpc	r19, r25
            UpdateState(SUMMERS_COMPLETED);
    16c8:	18 f0       	brcs	.+6      	; 0x16d0 <HotSummer+0x6a>
    16ca:	86 e7       	ldi	r24, 0x76	; 118
    16cc:	4e df       	rcall	.-356    	; 0x156a <UpdateState>
            return 0;
    16ce:	2d c0       	rjmp	.+90     	; 0x172a <HotSummer+0xc4>
        }
        if (adcTemp <= (calTemp + 8)) cooledDown = 1;
    16d0:	80 91 ba 3a 	lds	r24, 0x3ABA	; 0x803aba <calTemp>
    16d4:	90 91 bb 3a 	lds	r25, 0x3ABB	; 0x803abb <calTemp+0x1>
    16d8:	20 91 ef 3a 	lds	r18, 0x3AEF	; 0x803aef <adcTemp>
    16dc:	30 91 f0 3a 	lds	r19, 0x3AF0	; 0x803af0 <adcTemp+0x1>
    16e0:	08 96       	adiw	r24, 0x08	; 8
    16e2:	82 17       	cp	r24, r18
    16e4:	93 07       	cpc	r25, r19
    16e6:	08 f1       	brcs	.+66     	; 0x172a <HotSummer+0xc4>
    16e8:	81 e0       	ldi	r24, 0x01	; 1
    16ea:	80 93 53 38 	sts	0x3853, r24	; 0x803853 <cooledDown.3942>
    16ee:	1d c0       	rjmp	.+58     	; 0x172a <HotSummer+0xc4>
                   
    } else {
        if (calTemp == 0) calTemp = adcTemp;
    16f0:	80 91 ba 3a 	lds	r24, 0x3ABA	; 0x803aba <calTemp>
    16f4:	90 91 bb 3a 	lds	r25, 0x3ABB	; 0x803abb <calTemp+0x1>
    16f8:	89 2b       	or	r24, r25
    16fa:	41 f4       	brne	.+16     	; 0x170c <HotSummer+0xa6>
    16fc:	80 91 ef 3a 	lds	r24, 0x3AEF	; 0x803aef <adcTemp>
    1700:	90 91 f0 3a 	lds	r25, 0x3AF0	; 0x803af0 <adcTemp+0x1>
    1704:	80 93 ba 3a 	sts	0x3ABA, r24	; 0x803aba <calTemp>
    1708:	90 93 bb 3a 	sts	0x3ABB, r25	; 0x803abb <calTemp+0x1>
        if (adcTemp >= (calTemp + 32)) {
    170c:	80 91 ba 3a 	lds	r24, 0x3ABA	; 0x803aba <calTemp>
    1710:	90 91 bb 3a 	lds	r25, 0x3ABB	; 0x803abb <calTemp+0x1>
    1714:	20 91 ef 3a 	lds	r18, 0x3AEF	; 0x803aef <adcTemp>
    1718:	30 91 f0 3a 	lds	r19, 0x3AF0	; 0x803af0 <adcTemp+0x1>
    171c:	80 96       	adiw	r24, 0x20	; 32
    171e:	28 17       	cp	r18, r24
    1720:	39 07       	cpc	r19, r25
            UpdateState(FIRST_SUMMER);
    1722:	18 f0       	brcs	.+6      	; 0x172a <HotSummer+0xc4>
    1724:	85 e7       	ldi	r24, 0x75	; 117
    1726:	21 df       	rcall	.-446    	; 0x156a <UpdateState>
        }
    }
    return 0;
    1728:	c0 e0       	ldi	r28, 0x00	; 0
}
    172a:	8c 2f       	mov	r24, r28
    172c:	cf 91       	pop	r28
    172e:	08 95       	ret

00001730 <GenerateBlinks>:

void GenerateBlinks(){
    1730:	cf 93       	push	r28
    1732:	df 93       	push	r29
    static uint8_t test = 0;
    iLED[WING[L][test%5]] = 0;
    1734:	20 91 52 38 	lds	r18, 0x3852	; 0x803852 <test.3945>
    1738:	82 2f       	mov	r24, r18
    173a:	65 e0       	ldi	r22, 0x05	; 5
    173c:	0e 94 da 1d 	call	0x3bb4	; 0x3bb4 <__udivmodqi4>
    1740:	e9 2f       	mov	r30, r25
    1742:	f0 e0       	ldi	r31, 0x00	; 0
    1744:	e2 57       	subi	r30, 0x72	; 114
    1746:	f3 44       	sbci	r31, 0x43	; 67
    1748:	e5 81       	ldd	r30, Z+5	; 0x05
    174a:	f0 e0       	ldi	r31, 0x00	; 0
    174c:	ec 53       	subi	r30, 0x3C	; 60
    174e:	f5 4c       	sbci	r31, 0xC5	; 197
    1750:	10 82       	st	Z, r1
    iLED[WING[L][(test+1)%5]] = dimValue;
    1752:	82 2f       	mov	r24, r18
    1754:	90 e0       	ldi	r25, 0x00	; 0
    1756:	01 96       	adiw	r24, 0x01	; 1
    1758:	65 e0       	ldi	r22, 0x05	; 5
    175a:	70 e0       	ldi	r23, 0x00	; 0
    175c:	0e 94 fa 1d 	call	0x3bf4	; 0x3bf4 <__divmodhi4>
    1760:	fc 01       	movw	r30, r24
    1762:	e2 57       	subi	r30, 0x72	; 114
    1764:	f3 44       	sbci	r31, 0x43	; 67
    1766:	e5 81       	ldd	r30, Z+5	; 0x05
    1768:	f0 e0       	ldi	r31, 0x00	; 0
    176a:	80 91 0b 38 	lds	r24, 0x380B	; 0x80380b <dimValue>
    176e:	ec 53       	subi	r30, 0x3C	; 60
    1770:	f5 4c       	sbci	r31, 0xC5	; 197
    1772:	80 83       	st	Z, r24
    ++test;
    1774:	2f 5f       	subi	r18, 0xFF	; 255
    1776:	20 93 52 38 	sts	0x3852, r18	; 0x803852 <test.3945>
    177a:	8e e8       	ldi	r24, 0x8E	; 142
    177c:	9c eb       	ldi	r25, 0xBC	; 188
    177e:	c8 e9       	ldi	r28, 0x98	; 152
    1780:	dc eb       	ldi	r29, 0xBC	; 188

    for (uint8_t x=0; x<5; ++x){
        iLED[WING[R][x]] = iLED[WING[L][4-x]];
    1782:	dc 01       	movw	r26, r24
    1784:	ed 91       	ld	r30, X+
    1786:	cd 01       	movw	r24, r26
    1788:	f0 e0       	ldi	r31, 0x00	; 0
    178a:	aa 91       	ld	r26, -Y
    178c:	b0 e0       	ldi	r27, 0x00	; 0
    178e:	ac 53       	subi	r26, 0x3C	; 60
    1790:	b5 4c       	sbci	r27, 0xC5	; 197
    1792:	2c 91       	ld	r18, X
    1794:	ec 53       	subi	r30, 0x3C	; 60
    1796:	f5 4c       	sbci	r31, 0xC5	; 197
    1798:	20 83       	st	Z, r18
    static uint8_t test = 0;
    iLED[WING[L][test%5]] = 0;
    iLED[WING[L][(test+1)%5]] = dimValue;
    ++test;

    for (uint8_t x=0; x<5; ++x){
    179a:	bc eb       	ldi	r27, 0xBC	; 188
    179c:	c3 39       	cpi	r28, 0x93	; 147
    179e:	db 07       	cpc	r29, r27
    17a0:	81 f7       	brne	.-32     	; 0x1782 <GenerateBlinks+0x52>
        iLED[WING[R][x]] = iLED[WING[L][4-x]];
    }
}
    17a2:	df 91       	pop	r29
    17a4:	cf 91       	pop	r28
    17a6:	08 95       	ret

000017a8 <GenerateAudio>:


uint8_t GenerateAudio(){
    17a8:	0f 93       	push	r16
    17aa:	1f 93       	push	r17
    17ac:	cf 93       	push	r28
    17ae:	df 93       	push	r29

    if (auIn[AULEN>>1] < HPLVL) {
    17b0:	80 91 c0 3a 	lds	r24, 0x3AC0	; 0x803ac0 <auIn+0x4>
    17b4:	89 31       	cpi	r24, 0x19	; 25
    17b6:	08 f0       	brcs	.+2      	; 0x17ba <GenerateAudio+0x12>
    17b8:	cf c0       	rjmp	.+414    	; 0x1958 <GenerateAudio+0x1b0>

        detHdPh = 1;
    17ba:	81 e0       	ldi	r24, 0x01	; 1
    17bc:	80 93 b9 3a 	sts	0x3AB9, r24	; 0x803ab9 <detHdPh>

        //Audio for text adventure
        if ((effect&0xff00)==0) {
    17c0:	80 91 36 38 	lds	r24, 0x3836	; 0x803836 <effect>
    17c4:	90 91 37 38 	lds	r25, 0x3837	; 0x803837 <effect+0x1>
    17c8:	88 27       	eor	r24, r24
    17ca:	89 2b       	or	r24, r25
    17cc:	09 f0       	breq	.+2      	; 0x17d0 <GenerateAudio+0x28>
    17ce:	c6 c0       	rjmp	.+396    	; 0x195c <GenerateAudio+0x1b4>

            //Silence
            if ((effect&0xE0)==0){
    17d0:	80 91 36 38 	lds	r24, 0x3836	; 0x803836 <effect>
    17d4:	90 91 37 38 	lds	r25, 0x3837	; 0x803837 <effect+0x1>
    17d8:	80 7e       	andi	r24, 0xE0	; 224
    17da:	99 27       	eor	r25, r25
    17dc:	89 2b       	or	r24, r25
    17de:	31 f4       	brne	.+12     	; 0x17ec <GenerateAudio+0x44>
                auRepAddr = &zero;
    17e0:	84 e3       	ldi	r24, 0x34	; 52
    17e2:	98 e3       	ldi	r25, 0x38	; 56
    17e4:	80 93 05 38 	sts	0x3805, r24	; 0x803805 <auRepAddr>
    17e8:	90 93 06 38 	sts	0x3806, r25	; 0x803806 <auRepAddr+0x1>
            }

            //Bad (buzzer)
            if ((effect&0xE0)==32){
    17ec:	80 91 36 38 	lds	r24, 0x3836	; 0x803836 <effect>
    17f0:	90 91 37 38 	lds	r25, 0x3837	; 0x803837 <effect+0x1>
    17f4:	80 7e       	andi	r24, 0xE0	; 224
    17f6:	99 27       	eor	r25, r25
    17f8:	80 97       	sbiw	r24, 0x20	; 32
    17fa:	09 f0       	breq	.+2      	; 0x17fe <GenerateAudio+0x56>
    17fc:	59 c0       	rjmp	.+178    	; 0x18b0 <GenerateAudio+0x108>
                static uint8_t auBuffer[17] = {1, 255, 128, 128, 192, 255, 64, 255, 192, 128, 64, 1, 192, 1, 64, 128, 0}; 
                static uint8_t loudness, duration, start;
                floatSpeed(1, 0x2000, 0x2200);
    17fe:	40 e0       	ldi	r20, 0x00	; 0
    1800:	52 e2       	ldi	r21, 0x22	; 34
    1802:	60 e0       	ldi	r22, 0x00	; 0
    1804:	70 e2       	ldi	r23, 0x20	; 32
    1806:	81 e0       	ldi	r24, 0x01	; 1
    1808:	ab dd       	rcall	.-1194   	; 0x1360 <floatSpeed>
                auBuffer[2] = floatAround(0x80, 5, 0x01, 0x00);
    180a:	20 e0       	ldi	r18, 0x00	; 0
    180c:	41 e0       	ldi	r20, 0x01	; 1
    180e:	65 e0       	ldi	r22, 0x05	; 5
    1810:	80 e8       	ldi	r24, 0x80	; 128
    1812:	d8 dd       	rcall	.-1104   	; 0x13c4 <floatAround>
    1814:	80 93 0f 38 	sts	0x380F, r24	; 0x80380f <auBuffer.3952+0x2>

                if (buttonMark) {
    1818:	80 91 3e 38 	lds	r24, 0x383E	; 0x80383e <buttonMark>
    181c:	88 23       	and	r24, r24
    181e:	09 f4       	brne	.+2      	; 0x1822 <GenerateAudio+0x7a>
    1820:	47 c0       	rjmp	.+142    	; 0x18b0 <GenerateAudio+0x108>
                    if (start == 0) {
    1822:	80 91 51 38 	lds	r24, 0x3851	; 0x803851 <start.3955>
    1826:	81 11       	cpse	r24, r1
    1828:	15 c0       	rjmp	.+42     	; 0x1854 <GenerateAudio+0xac>
                        duration = 4;
    182a:	84 e0       	ldi	r24, 0x04	; 4
    182c:	80 93 50 38 	sts	0x3850, r24	; 0x803850 <duration.3954>
                        loudness = 0xff;
    1830:	8f ef       	ldi	r24, 0xFF	; 255
    1832:	80 93 4f 38 	sts	0x384F, r24	; 0x80384f <loudness.3953>
                        TCB1_CCMP = 0x2000;
    1836:	80 e0       	ldi	r24, 0x00	; 0
    1838:	90 e2       	ldi	r25, 0x20	; 32
    183a:	80 93 5c 0a 	sts	0x0A5C, r24	; 0x800a5c <__TEXT_REGION_LENGTH__+0x700a5c>
    183e:	90 93 5d 0a 	sts	0x0A5D, r25	; 0x800a5d <__TEXT_REGION_LENGTH__+0x700a5d>
                        auRepAddr = &auBuffer[0];
    1842:	8d e0       	ldi	r24, 0x0D	; 13
    1844:	98 e3       	ldi	r25, 0x38	; 56
    1846:	80 93 05 38 	sts	0x3805, r24	; 0x803805 <auRepAddr>
    184a:	90 93 06 38 	sts	0x3806, r25	; 0x803806 <auRepAddr+0x1>
                        start = 1;
    184e:	81 e0       	ldi	r24, 0x01	; 1
    1850:	80 93 51 38 	sts	0x3851, r24	; 0x803851 <start.3955>
                    }

                    if (loudness) {
    1854:	80 91 4f 38 	lds	r24, 0x384F	; 0x80384f <loudness.3953>
    1858:	88 23       	and	r24, r24
    185a:	69 f0       	breq	.+26     	; 0x1876 <GenerateAudio+0xce>
                        auVolume = loudness;
    185c:	80 93 b0 3a 	sts	0x3AB0, r24	; 0x803ab0 <auVolume>
                        if (duration) duration--; else loudness >>= 1;
    1860:	90 91 50 38 	lds	r25, 0x3850	; 0x803850 <duration.3954>
    1864:	99 23       	and	r25, r25
    1866:	21 f0       	breq	.+8      	; 0x1870 <GenerateAudio+0xc8>
    1868:	91 50       	subi	r25, 0x01	; 1
    186a:	90 93 50 38 	sts	0x3850, r25	; 0x803850 <duration.3954>
    186e:	03 c0       	rjmp	.+6      	; 0x1876 <GenerateAudio+0xce>
    1870:	86 95       	lsr	r24
    1872:	80 93 4f 38 	sts	0x384F, r24	; 0x80384f <loudness.3953>
                    } 

                    if (loudness == 0) {
    1876:	80 91 4f 38 	lds	r24, 0x384F	; 0x80384f <loudness.3953>
    187a:	81 11       	cpse	r24, r1
    187c:	19 c0       	rjmp	.+50     	; 0x18b0 <GenerateAudio+0x108>
                        effect &= 0x10;
    187e:	80 91 36 38 	lds	r24, 0x3836	; 0x803836 <effect>
    1882:	90 91 37 38 	lds	r25, 0x3837	; 0x803837 <effect+0x1>
    1886:	80 71       	andi	r24, 0x10	; 16
    1888:	99 27       	eor	r25, r25
    188a:	80 93 36 38 	sts	0x3836, r24	; 0x803836 <effect>
    188e:	90 93 37 38 	sts	0x3837, r25	; 0x803837 <effect+0x1>
                        auRepAddr = &zero;
    1892:	84 e3       	ldi	r24, 0x34	; 52
    1894:	98 e3       	ldi	r25, 0x38	; 56
    1896:	80 93 05 38 	sts	0x3805, r24	; 0x803805 <auRepAddr>
    189a:	90 93 06 38 	sts	0x3806, r25	; 0x803806 <auRepAddr+0x1>
                        auSmpAddr = &zero;
    189e:	80 93 07 38 	sts	0x3807, r24	; 0x803807 <auSmpAddr>
    18a2:	90 93 08 38 	sts	0x3808, r25	; 0x803808 <auSmpAddr+0x1>
                        auVolume = 0xff;
    18a6:	8f ef       	ldi	r24, 0xFF	; 255
    18a8:	80 93 b0 3a 	sts	0x3AB0, r24	; 0x803ab0 <auVolume>
                        start = 0;
    18ac:	10 92 51 38 	sts	0x3851, r1	; 0x803851 <start.3955>
                    }
                }
            }

            //Good (bell)
            if ((effect&0xE0)==64){
    18b0:	80 91 36 38 	lds	r24, 0x3836	; 0x803836 <effect>
    18b4:	90 91 37 38 	lds	r25, 0x3837	; 0x803837 <effect+0x1>
                //auBuffer = 
            }

            //Rain storm with whistling wind
            if ((effect&0xE0)==96){
    18b8:	80 91 36 38 	lds	r24, 0x3836	; 0x803836 <effect>
    18bc:	90 91 37 38 	lds	r25, 0x3837	; 0x803837 <effect+0x1>
    18c0:	80 7e       	andi	r24, 0xE0	; 224
    18c2:	99 27       	eor	r25, r25
    18c4:	80 36       	cpi	r24, 0x60	; 96
    18c6:	91 05       	cpc	r25, r1
    18c8:	d1 f5       	brne	.+116    	; 0x193e <GenerateAudio+0x196>
                static uint8_t auBuffer[7];
                auBuffer[6]= 0;        
    18ca:	10 92 4e 38 	sts	0x384E, r1	; 0x80384e <auBuffer.3956+0x6>
                auRepAddr = &auBuffer[0];
    18ce:	88 e4       	ldi	r24, 0x48	; 72
    18d0:	98 e3       	ldi	r25, 0x38	; 56
    18d2:	80 93 05 38 	sts	0x3805, r24	; 0x803805 <auRepAddr>
    18d6:	90 93 06 38 	sts	0x3806, r25	; 0x803806 <auRepAddr+0x1>
    18da:	8c 01       	movw	r16, r24

                //Noise is to be generated fast, outside of buttonMark loop
                for (uint8_t x=1; x<6; ++x){
    18dc:	c1 e0       	ldi	r28, 0x01	; 1
                    if (x%3) auBuffer[x] = floatAround(0x80, 5, 0x01, 0x00);
    18de:	d3 e0       	ldi	r29, 0x03	; 3
    18e0:	8c 2f       	mov	r24, r28
    18e2:	6d 2f       	mov	r22, r29
    18e4:	0e 94 da 1d 	call	0x3bb4	; 0x3bb4 <__udivmodqi4>
    18e8:	99 23       	and	r25, r25
    18ea:	39 f0       	breq	.+14     	; 0x18fa <GenerateAudio+0x152>
    18ec:	20 e0       	ldi	r18, 0x00	; 0
    18ee:	41 e0       	ldi	r20, 0x01	; 1
    18f0:	65 e0       	ldi	r22, 0x05	; 5
    18f2:	80 e8       	ldi	r24, 0x80	; 128
    18f4:	67 dd       	rcall	.-1330   	; 0x13c4 <floatAround>
    18f6:	f8 01       	movw	r30, r16
    18f8:	81 83       	std	Z+1, r24	; 0x01
                static uint8_t auBuffer[7];
                auBuffer[6]= 0;        
                auRepAddr = &auBuffer[0];

                //Noise is to be generated fast, outside of buttonMark loop
                for (uint8_t x=1; x<6; ++x){
    18fa:	cf 5f       	subi	r28, 0xFF	; 255
    18fc:	0f 5f       	subi	r16, 0xFF	; 255
    18fe:	1f 4f       	sbci	r17, 0xFF	; 255
    1900:	c6 30       	cpi	r28, 0x06	; 6
    1902:	71 f7       	brne	.-36     	; 0x18e0 <GenerateAudio+0x138>
                    if (x%3) auBuffer[x] = floatAround(0x80, 5, 0x01, 0x00);
                }

                if (buttonMark){
    1904:	80 91 3e 38 	lds	r24, 0x383E	; 0x80383e <buttonMark>
    1908:	88 23       	and	r24, r24
    190a:	c9 f0       	breq	.+50     	; 0x193e <GenerateAudio+0x196>
                    //"Floating" speed for howl (and noise, but that's hardly audible)
                    floatSpeed(5, 0x0280, 0x0400);
    190c:	40 e0       	ldi	r20, 0x00	; 0
    190e:	54 e0       	ldi	r21, 0x04	; 4
    1910:	60 e8       	ldi	r22, 0x80	; 128
    1912:	72 e0       	ldi	r23, 0x02	; 2
    1914:	85 e0       	ldi	r24, 0x05	; 5
    1916:	24 dd       	rcall	.-1464   	; 0x1360 <floatSpeed>
            
                    //"Floating" volume and wind howl during 8 bit rainstorm needs some randomness
                    auVolume = floatAround(auVolume, 2, 0x10, 0xA0);
    1918:	80 91 b0 3a 	lds	r24, 0x3AB0	; 0x803ab0 <auVolume>
    191c:	20 ea       	ldi	r18, 0xA0	; 160
    191e:	40 e1       	ldi	r20, 0x10	; 16
    1920:	62 e0       	ldi	r22, 0x02	; 2
    1922:	50 dd       	rcall	.-1376   	; 0x13c4 <floatAround>
    1924:	80 93 b0 3a 	sts	0x3AB0, r24	; 0x803ab0 <auVolume>
                    auBuffer[0] = floatAround(auBuffer[0], 2, 0x70, 0x90);
    1928:	20 e9       	ldi	r18, 0x90	; 144
    192a:	40 e7       	ldi	r20, 0x70	; 112
    192c:	62 e0       	ldi	r22, 0x02	; 2
    192e:	80 91 48 38 	lds	r24, 0x3848	; 0x803848 <auBuffer.3956>
    1932:	48 dd       	rcall	.-1392   	; 0x13c4 <floatAround>
    1934:	80 93 48 38 	sts	0x3848, r24	; 0x803848 <auBuffer.3956>
                    auBuffer[3] = 0xFF-auBuffer[0];  //Inverse value of wind[0] produces a whistle
    1938:	80 95       	com	r24
    193a:	80 93 4b 38 	sts	0x384B, r24	; 0x80384b <auBuffer.3956+0x3>
                }
            }

            //Footsteps
            if ((effect&0xE0)==128){
    193e:	80 91 36 38 	lds	r24, 0x3836	; 0x803836 <effect>
    1942:	90 91 37 38 	lds	r25, 0x3837	; 0x803837 <effect+0x1>

            }

            //
            if ((effect&0xE0)==160){
    1946:	80 91 36 38 	lds	r24, 0x3836	; 0x803836 <effect>
    194a:	90 91 37 38 	lds	r25, 0x3837	; 0x803837 <effect+0x1>

            }

            //
            if ((effect&0xE0)==192){
    194e:	80 91 36 38 	lds	r24, 0x3836	; 0x803836 <effect>
    1952:	90 91 37 38 	lds	r25, 0x3837	; 0x803837 <effect+0x1>
    1956:	02 c0       	rjmp	.+4      	; 0x195c <GenerateAudio+0x1b4>
            //
            else {
            }
        }
    } else {
        detHdPh = 0;
    1958:	10 92 b9 3a 	sts	0x3AB9, r1	; 0x803ab9 <detHdPh>
    }
    return buttonMark;
    195c:	80 91 3e 38 	lds	r24, 0x383E	; 0x80383e <buttonMark>
}
    1960:	df 91       	pop	r29
    1962:	cf 91       	pop	r28
    1964:	1f 91       	pop	r17
    1966:	0f 91       	pop	r16
    1968:	08 95       	ret

0000196a <getClock>:

uint16_t getClock() {
    return 60 * minuteMark + (RTC_CNT>>9);
    196a:	20 91 3f 38 	lds	r18, 0x383F	; 0x80383f <minuteMark>
    196e:	80 91 48 01 	lds	r24, 0x0148	; 0x800148 <__TEXT_REGION_LENGTH__+0x700148>
    1972:	90 91 49 01 	lds	r25, 0x0149	; 0x800149 <__TEXT_REGION_LENGTH__+0x700149>
    1976:	89 2f       	mov	r24, r25
    1978:	99 27       	eor	r25, r25
    197a:	86 95       	lsr	r24
}
    197c:	3c e3       	ldi	r19, 0x3C	; 60
    197e:	23 9f       	mul	r18, r19
    1980:	80 0d       	add	r24, r0
    1982:	91 1d       	adc	r25, r1
    1984:	11 24       	eor	r1, r1
    1986:	08 95       	ret

00001988 <idleTimeout>:

uint8_t idleTimeout(uint16_t lastActive, uint16_t maxIdle) {
    1988:	0f 93       	push	r16
    198a:	1f 93       	push	r17
    198c:	cf 93       	push	r28
    198e:	df 93       	push	r29
    1990:	8c 01       	movw	r16, r24
    1992:	eb 01       	movw	r28, r22
    uint16_t curClock;

    curClock = getClock();
    1994:	ea df       	rcall	.-44     	; 0x196a <getClock>
    1996:	9c 01       	movw	r18, r24
    if (curClock < lastActive)
    1998:	80 17       	cp	r24, r16
    199a:	91 07       	cpc	r25, r17
    199c:	08 f4       	brcc	.+2      	; 0x19a0 <idleTimeout+0x18>
        curClock += 256 * 60;
    199e:	34 5c       	subi	r19, 0xC4	; 196

    return (curClock > (lastActive + maxIdle));
    19a0:	c0 0f       	add	r28, r16
    19a2:	d1 1f       	adc	r29, r17
    19a4:	81 e0       	ldi	r24, 0x01	; 1
    19a6:	c2 17       	cp	r28, r18
    19a8:	d3 07       	cpc	r29, r19
    19aa:	08 f0       	brcs	.+2      	; 0x19ae <idleTimeout+0x26>
    19ac:	80 e0       	ldi	r24, 0x00	; 0
}
    19ae:	df 91       	pop	r29
    19b0:	cf 91       	pop	r28
    19b2:	1f 91       	pop	r17
    19b4:	0f 91       	pop	r16
    19b6:	08 95       	ret

000019b8 <simonLed>:

void simonTone(uint8_t val) {
    // TODO some way to set teh audio stuff
}

void simonLed(uint8_t val) {
    19b8:	cf 93       	push	r28
    19ba:	df 93       	push	r29
    19bc:	ee e8       	ldi	r30, 0x8E	; 142
    19be:	fc eb       	ldi	r31, 0xBC	; 188
    19c0:	ef 01       	movw	r28, r30
    for (uint8_t n = 0; n < 5; n++) {
        iLED[WING[L][n]] = 0;
    19c2:	a5 81       	ldd	r26, Z+5	; 0x05
    19c4:	b0 e0       	ldi	r27, 0x00	; 0
    19c6:	ac 53       	subi	r26, 0x3C	; 60
    19c8:	b5 4c       	sbci	r27, 0xC5	; 197
    19ca:	1c 92       	st	X, r1
    19cc:	31 96       	adiw	r30, 0x01	; 1
        iLED[WING[R][n]] = 0;
    19ce:	a8 81       	ld	r26, Y
    19d0:	b0 e0       	ldi	r27, 0x00	; 0
    19d2:	ac 53       	subi	r26, 0x3C	; 60
    19d4:	b5 4c       	sbci	r27, 0xC5	; 197
    19d6:	1c 92       	st	X, r1
void simonTone(uint8_t val) {
    // TODO some way to set teh audio stuff
}

void simonLed(uint8_t val) {
    for (uint8_t n = 0; n < 5; n++) {
    19d8:	9c eb       	ldi	r25, 0xBC	; 188
    19da:	e3 39       	cpi	r30, 0x93	; 147
    19dc:	f9 07       	cpc	r31, r25
    19de:	81 f7       	brne	.-32     	; 0x19c0 <simonLed+0x8>
        iLED[WING[L][n]] = 0;
        iLED[WING[R][n]] = 0;
    }
    if (val == 1) {
    19e0:	81 30       	cpi	r24, 0x01	; 1
    19e2:	99 f4       	brne	.+38     	; 0x1a0a <simonLed+0x52>
        iLED[WING[L][0]] = dimValue;
    19e4:	e0 91 93 bc 	lds	r30, 0xBC93	; 0x80bc93 <__bss_end+0x817f>
    19e8:	f0 e0       	ldi	r31, 0x00	; 0
    19ea:	80 91 0b 38 	lds	r24, 0x380B	; 0x80380b <dimValue>
    19ee:	ec 53       	subi	r30, 0x3C	; 60
    19f0:	f5 4c       	sbci	r31, 0xC5	; 197
    19f2:	80 83       	st	Z, r24
        iLED[WING[L][1]] = dimValue;
    19f4:	e0 91 94 bc 	lds	r30, 0xBC94	; 0x80bc94 <__bss_end+0x8180>
    19f8:	f0 e0       	ldi	r31, 0x00	; 0
    19fa:	80 91 0b 38 	lds	r24, 0x380B	; 0x80380b <dimValue>
    19fe:	ec 53       	subi	r30, 0x3C	; 60
    1a00:	f5 4c       	sbci	r31, 0xC5	; 197
    1a02:	80 83       	st	Z, r24
        iLED[WING[L][2]] = dimValue;
    1a04:	e0 91 95 bc 	lds	r30, 0xBC95	; 0x80bc95 <__bss_end+0x8181>
    1a08:	2e c0       	rjmp	.+92     	; 0x1a66 <simonLed+0xae>
    } else if (val == 2) {
    1a0a:	82 30       	cpi	r24, 0x02	; 2
    1a0c:	59 f4       	brne	.+22     	; 0x1a24 <simonLed+0x6c>
        iLED[WING[L][3]] = dimValue;
    1a0e:	e0 91 96 bc 	lds	r30, 0xBC96	; 0x80bc96 <__bss_end+0x8182>
    1a12:	f0 e0       	ldi	r31, 0x00	; 0
    1a14:	80 91 0b 38 	lds	r24, 0x380B	; 0x80380b <dimValue>
    1a18:	ec 53       	subi	r30, 0x3C	; 60
    1a1a:	f5 4c       	sbci	r31, 0xC5	; 197
    1a1c:	80 83       	st	Z, r24
        iLED[WING[L][4]] = dimValue;
    1a1e:	e0 91 97 bc 	lds	r30, 0xBC97	; 0x80bc97 <__bss_end+0x8183>
    1a22:	21 c0       	rjmp	.+66     	; 0x1a66 <simonLed+0xae>
    } else if (val == 3) {
    1a24:	83 30       	cpi	r24, 0x03	; 3
    1a26:	99 f4       	brne	.+38     	; 0x1a4e <simonLed+0x96>
        iLED[WING[R][0]] = dimValue;
    1a28:	e0 91 8e bc 	lds	r30, 0xBC8E	; 0x80bc8e <__bss_end+0x817a>
    1a2c:	f0 e0       	ldi	r31, 0x00	; 0
    1a2e:	80 91 0b 38 	lds	r24, 0x380B	; 0x80380b <dimValue>
    1a32:	ec 53       	subi	r30, 0x3C	; 60
    1a34:	f5 4c       	sbci	r31, 0xC5	; 197
    1a36:	80 83       	st	Z, r24
        iLED[WING[R][1]] = dimValue;
    1a38:	e0 91 8f bc 	lds	r30, 0xBC8F	; 0x80bc8f <__bss_end+0x817b>
    1a3c:	f0 e0       	ldi	r31, 0x00	; 0
    1a3e:	80 91 0b 38 	lds	r24, 0x380B	; 0x80380b <dimValue>
    1a42:	ec 53       	subi	r30, 0x3C	; 60
    1a44:	f5 4c       	sbci	r31, 0xC5	; 197
    1a46:	80 83       	st	Z, r24
        iLED[WING[R][2]] = dimValue;
    1a48:	e0 91 90 bc 	lds	r30, 0xBC90	; 0x80bc90 <__bss_end+0x817c>
    1a4c:	0c c0       	rjmp	.+24     	; 0x1a66 <simonLed+0xae>
    } else if (val == 4) {
    1a4e:	84 30       	cpi	r24, 0x04	; 4
    1a50:	81 f4       	brne	.+32     	; 0x1a72 <simonLed+0xba>
        iLED[WING[R][3]] = dimValue;
    1a52:	e0 91 91 bc 	lds	r30, 0xBC91	; 0x80bc91 <__bss_end+0x817d>
    1a56:	f0 e0       	ldi	r31, 0x00	; 0
    1a58:	80 91 0b 38 	lds	r24, 0x380B	; 0x80380b <dimValue>
    1a5c:	ec 53       	subi	r30, 0x3C	; 60
    1a5e:	f5 4c       	sbci	r31, 0xC5	; 197
    1a60:	80 83       	st	Z, r24
        iLED[WING[R][4]] = dimValue;
    1a62:	e0 91 92 bc 	lds	r30, 0xBC92	; 0x80bc92 <__bss_end+0x817e>
    1a66:	f0 e0       	ldi	r31, 0x00	; 0
    1a68:	80 91 0b 38 	lds	r24, 0x380B	; 0x80380b <dimValue>
    1a6c:	ec 53       	subi	r30, 0x3C	; 60
    1a6e:	f5 4c       	sbci	r31, 0xC5	; 197
    1a70:	80 83       	st	Z, r24
    }
    simonTone(val);
}
    1a72:	df 91       	pop	r29
    1a74:	cf 91       	pop	r28
    1a76:	08 95       	ret

00001a78 <BastetDictates>:

// Main game loop
uint8_t BastetDictates() {
    1a78:	cf 93       	push	r28
    1a7a:	df 93       	push	r29
    if (CheckState(BASTET_COMPLETED))
    1a7c:	8a e7       	ldi	r24, 0x7A	; 122
    1a7e:	7f dd       	rcall	.-1282   	; 0x157e <CheckState>
    1a80:	81 11       	cpse	r24, r1
    1a82:	b8 c0       	rjmp	.+368    	; 0x1bf4 <BastetDictates+0x17c>
        return 0;

    if ((TEXT != gameNow) && (BASTET != gameNow))
    1a84:	80 91 38 38 	lds	r24, 0x3838	; 0x803838 <gameNow>
    1a88:	8d 7f       	andi	r24, 0xFD	; 253
    1a8a:	09 f0       	breq	.+2      	; 0x1a8e <BastetDictates+0x16>
    1a8c:	b3 c0       	rjmp	.+358    	; 0x1bf4 <BastetDictates+0x17c>
        return 0;

    if (BASTET_BOOT == simonGameState) {
    1a8e:	80 91 56 38 	lds	r24, 0x3856	; 0x803856 <simonGameState>
    1a92:	81 11       	cpse	r24, r1
    1a94:	22 c0       	rjmp	.+68     	; 0x1ada <BastetDictates+0x62>
        simonPos = ((adcPhot+adcTemp)&0x3f);
    1a96:	20 91 b7 3a 	lds	r18, 0x3AB7	; 0x803ab7 <adcPhot>
    1a9a:	30 91 b8 3a 	lds	r19, 0x3AB8	; 0x803ab8 <adcPhot+0x1>
    1a9e:	80 91 ef 3a 	lds	r24, 0x3AEF	; 0x803aef <adcTemp>
    1aa2:	90 91 f0 3a 	lds	r25, 0x3AF0	; 0x803af0 <adcTemp+0x1>
    1aa6:	82 0f       	add	r24, r18
    1aa8:	8f 73       	andi	r24, 0x3F	; 63
    1aaa:	80 93 28 38 	sts	0x3828, r24	; 0x803828 <simonPos>
        for(uint8_t x=0; x<simonPos; ++x) lfsr();
    1aae:	c0 e0       	ldi	r28, 0x00	; 0
    1ab0:	80 91 28 38 	lds	r24, 0x3828	; 0x803828 <simonPos>
    1ab4:	c8 17       	cp	r28, r24
    1ab6:	18 f4       	brcc	.+6      	; 0x1abe <BastetDictates+0x46>
    1ab8:	34 dc       	rcall	.-1944   	; 0x1322 <lfsr>
    1aba:	cf 5f       	subi	r28, 0xFF	; 255
    1abc:	f9 cf       	rjmp	.-14     	; 0x1ab0 <BastetDictates+0x38>
    1abe:	c8 e5       	ldi	r28, 0x58	; 88

        for (uint8_t i = 0; i < BASTET_LENGTH; i++) {
            simonState[i] = (lfsr() % 4);
    1ac0:	d8 e3       	ldi	r29, 0x38	; 56
    1ac2:	2f dc       	rcall	.-1954   	; 0x1322 <lfsr>
    1ac4:	83 70       	andi	r24, 0x03	; 3
    1ac6:	89 93       	st	Y+, r24

    if (BASTET_BOOT == simonGameState) {
        simonPos = ((adcPhot+adcTemp)&0x3f);
        for(uint8_t x=0; x<simonPos; ++x) lfsr();

        for (uint8_t i = 0; i < BASTET_LENGTH; i++) {
    1ac8:	88 e3       	ldi	r24, 0x38	; 56
    1aca:	c8 36       	cpi	r28, 0x68	; 104
    1acc:	d8 07       	cpc	r29, r24
    1ace:	c9 f7       	brne	.-14     	; 0x1ac2 <BastetDictates+0x4a>
            simonState[i] = (lfsr() % 4);
        }
        simonPos = 1;
    1ad0:	81 e0       	ldi	r24, 0x01	; 1
    1ad2:	80 93 28 38 	sts	0x3828, r24	; 0x803828 <simonPos>
        simonGameState = BASTET_GAME_START;
    1ad6:	80 93 56 38 	sts	0x3856, r24	; 0x803856 <simonGameState>
    }

    if (BASTET_GAME_START == simonGameState) {
    1ada:	80 91 56 38 	lds	r24, 0x3856	; 0x803856 <simonGameState>
    1ade:	81 30       	cpi	r24, 0x01	; 1
    1ae0:	29 f4       	brne	.+10     	; 0x1aec <BastetDictates+0x74>
        // TODO start animu
        simonGameState = BASTET_GAME_SHOW_PATTERN;
    1ae2:	83 e0       	ldi	r24, 0x03	; 3
    1ae4:	80 93 56 38 	sts	0x3856, r24	; 0x803856 <simonGameState>
        simonTimer = 0;
    1ae8:	10 92 55 38 	sts	0x3855, r1	; 0x803855 <simonTimer>
    }

    if (BASTET_GAME_SHOW_PATTERN == simonGameState) {
    1aec:	80 91 56 38 	lds	r24, 0x3856	; 0x803856 <simonGameState>
    1af0:	83 30       	cpi	r24, 0x03	; 3
    1af2:	d9 f4       	brne	.+54     	; 0x1b2a <BastetDictates+0xb2>
        // assuming 15Hz
        uint8_t pos = simonTimer / (15 - (simonPos>>1));
    1af4:	20 91 28 38 	lds	r18, 0x3828	; 0x803828 <simonPos>
    1af8:	80 91 55 38 	lds	r24, 0x3855	; 0x803855 <simonTimer>
    1afc:	90 e0       	ldi	r25, 0x00	; 0
    1afe:	32 2f       	mov	r19, r18
    1b00:	36 95       	lsr	r19
    1b02:	6f e0       	ldi	r22, 0x0F	; 15
    1b04:	70 e0       	ldi	r23, 0x00	; 0
    1b06:	63 1b       	sub	r22, r19
    1b08:	71 09       	sbc	r23, r1
    1b0a:	0e 94 fa 1d 	call	0x3bf4	; 0x3bf4 <__divmodhi4>
        if (pos > simonPos) {
    1b0e:	26 17       	cp	r18, r22
    1b10:	30 f4       	brcc	.+12     	; 0x1b1e <BastetDictates+0xa6>
            simonGameState = BASTET_GAME_INPUT;
    1b12:	85 e0       	ldi	r24, 0x05	; 5
    1b14:	80 93 56 38 	sts	0x3856, r24	; 0x803856 <simonGameState>
            simonLed(0);
    1b18:	80 e0       	ldi	r24, 0x00	; 0
    1b1a:	4e df       	rcall	.-356    	; 0x19b8 <simonLed>
            return 0;
    1b1c:	6b c0       	rjmp	.+214    	; 0x1bf4 <BastetDictates+0x17c>
        }
        simonLed(simonState[pos]);
    1b1e:	77 27       	eor	r23, r23
    1b20:	fb 01       	movw	r30, r22
    1b22:	e8 5a       	subi	r30, 0xA8	; 168
    1b24:	f7 4c       	sbci	r31, 0xC7	; 199
    1b26:	80 81       	ld	r24, Z
    1b28:	47 df       	rcall	.-370    	; 0x19b8 <simonLed>
    }

    if (BASTET_GAME_INPUT == simonGameState) {
    1b2a:	80 91 56 38 	lds	r24, 0x3856	; 0x803856 <simonGameState>
    1b2e:	85 30       	cpi	r24, 0x05	; 5
    1b30:	09 f0       	breq	.+2      	; 0x1b34 <BastetDictates+0xbc>
    1b32:	4e c0       	rjmp	.+156    	; 0x1bd0 <BastetDictates+0x158>
        uint8_t choice = 0;
        if ((buttonState & 0xf0)&&(buttonState < 0xff)) {
    1b34:	e0 91 09 38 	lds	r30, 0x3809	; 0x803809 <buttonState>
    1b38:	8e 2f       	mov	r24, r30
    1b3a:	80 7f       	andi	r24, 0xF0	; 240
    1b3c:	c9 f1       	breq	.+114    	; 0x1bb0 <BastetDictates+0x138>
    1b3e:	ef 3f       	cpi	r30, 0xFF	; 255
    1b40:	b9 f1       	breq	.+110    	; 0x1bb0 <BastetDictates+0x138>
    1b42:	ef 70       	andi	r30, 0x0F	; 15
    1b44:	e1 50       	subi	r30, 0x01	; 1
    1b46:	e8 30       	cpi	r30, 0x08	; 8
    1b48:	98 f5       	brcc	.+102    	; 0x1bb0 <BastetDictates+0x138>
    1b4a:	f0 e0       	ldi	r31, 0x00	; 0
    1b4c:	e6 54       	subi	r30, 0x46	; 70
    1b4e:	f3 44       	sbci	r31, 0x43	; 67
    1b50:	c0 81       	ld	r28, Z
                    break;
            }
        }

        //Button pressed
        if (choice > 0) {
    1b52:	cc 23       	and	r28, r28
    1b54:	69 f1       	breq	.+90     	; 0x1bb0 <BastetDictates+0x138>
            gameNow = BASTET;
    1b56:	82 e0       	ldi	r24, 0x02	; 2
    1b58:	80 93 38 38 	sts	0x3838, r24	; 0x803838 <gameNow>
            if (simonProcessed == 0) {
    1b5c:	80 91 54 38 	lds	r24, 0x3854	; 0x803854 <simonProcessed>
    1b60:	81 11       	cpse	r24, r1
                simonTimer = 0;
    1b62:	43 c0       	rjmp	.+134    	; 0x1bea <BastetDictates+0x172>
    1b64:	10 92 55 38 	sts	0x3855, r1	; 0x803855 <simonTimer>
                simonLed(choice);
    1b68:	8c 2f       	mov	r24, r28
    1b6a:	26 df       	rcall	.-436    	; 0x19b8 <simonLed>
                // TODO something timer something 
                if (simonState[simonInputPos]+1 == choice) {
    1b6c:	40 91 57 38 	lds	r20, 0x3857	; 0x803857 <simonInputPos>
    1b70:	e4 2f       	mov	r30, r20
    1b72:	f0 e0       	ldi	r31, 0x00	; 0
    1b74:	e8 5a       	subi	r30, 0xA8	; 168
    1b76:	f7 4c       	sbci	r31, 0xC7	; 199
    1b78:	20 81       	ld	r18, Z
    1b7a:	30 e0       	ldi	r19, 0x00	; 0
    1b7c:	2f 5f       	subi	r18, 0xFF	; 255
    1b7e:	3f 4f       	sbci	r19, 0xFF	; 255
    1b80:	8c 2f       	mov	r24, r28
    1b82:	90 e0       	ldi	r25, 0x00	; 0
    1b84:	28 17       	cp	r18, r24
    1b86:	39 07       	cpc	r19, r25
    1b88:	21 f4       	brne	.+8      	; 0x1b92 <BastetDictates+0x11a>
                    // TODO correct sound
                    simonInputPos++;
    1b8a:	4f 5f       	subi	r20, 0xFF	; 255
    1b8c:	40 93 57 38 	sts	0x3857, r20	; 0x803857 <simonInputPos>
                } else {
                    // TODO fail sound
                    simonInputPos = 0;
    1b90:	06 c0       	rjmp	.+12     	; 0x1b9e <BastetDictates+0x126>
    1b92:	10 92 57 38 	sts	0x3857, r1	; 0x803857 <simonInputPos>
                    gameNow = TEXT;
    1b96:	10 92 38 38 	sts	0x3838, r1	; 0x803838 <gameNow>
                    simonLed(0);
    1b9a:	80 e0       	ldi	r24, 0x00	; 0
                }

                if (simonInputPos == BASTET_LENGTH) {
    1b9c:	0d df       	rcall	.-486    	; 0x19b8 <simonLed>
    1b9e:	80 91 57 38 	lds	r24, 0x3857	; 0x803857 <simonInputPos>
    1ba2:	80 31       	cpi	r24, 0x10	; 16
                    // TODO win animu
                    UpdateState(BASTET_COMPLETED);
    1ba4:	a9 f4       	brne	.+42     	; 0x1bd0 <BastetDictates+0x158>
    1ba6:	8a e7       	ldi	r24, 0x7A	; 122
    1ba8:	e0 dc       	rcall	.-1600   	; 0x156a <UpdateState>
                    gameNow = TEXT;
    1baa:	10 92 38 38 	sts	0x3838, r1	; 0x803838 <gameNow>
    1bae:	10 c0       	rjmp	.+32     	; 0x1bd0 <BastetDictates+0x158>
                }
            }
        
        //Button released, next or reset!
        } else {    
            if (simonInputPos == simonPos) {
    1bb0:	80 91 57 38 	lds	r24, 0x3857	; 0x803857 <simonInputPos>
    1bb4:	90 91 28 38 	lds	r25, 0x3828	; 0x803828 <simonPos>
    1bb8:	89 13       	cpse	r24, r25
    1bba:	08 c0       	rjmp	.+16     	; 0x1bcc <BastetDictates+0x154>
                simonPos++;
    1bbc:	8f 5f       	subi	r24, 0xFF	; 255
    1bbe:	80 93 28 38 	sts	0x3828, r24	; 0x803828 <simonPos>
                simonInputPos = 0;
    1bc2:	10 92 57 38 	sts	0x3857, r1	; 0x803857 <simonInputPos>
                simonGameState = BASTET_GAME_SHOW_PATTERN;
    1bc6:	83 e0       	ldi	r24, 0x03	; 3
    1bc8:	80 93 56 38 	sts	0x3856, r24	; 0x803856 <simonGameState>
            }                    
            simonProcessed = 0;
    1bcc:	10 92 54 38 	sts	0x3854, r1	; 0x803854 <simonProcessed>
        }
    }

    if (BASTET_GAME_WAIT_LEDS == simonGameState) {
    1bd0:	80 91 56 38 	lds	r24, 0x3856	; 0x803856 <simonGameState>
    1bd4:	84 30       	cpi	r24, 0x04	; 4
        if (simonTimer >= 7) {
    1bd6:	49 f4       	brne	.+18     	; 0x1bea <BastetDictates+0x172>
    1bd8:	80 91 55 38 	lds	r24, 0x3855	; 0x803855 <simonTimer>
    1bdc:	87 30       	cpi	r24, 0x07	; 7
            // on to next state after .5 second
            simonLed(0);  // LEDs off
    1bde:	28 f0       	brcs	.+10     	; 0x1bea <BastetDictates+0x172>
    1be0:	80 e0       	ldi	r24, 0x00	; 0
    1be2:	ea de       	rcall	.-556    	; 0x19b8 <simonLed>
            simonGameState = BASTET_GAME_INPUT;
    1be4:	85 e0       	ldi	r24, 0x05	; 5
    1be6:	80 93 56 38 	sts	0x3856, r24	; 0x803856 <simonGameState>
        }
    }

    ++simonTimer;
    1bea:	80 91 55 38 	lds	r24, 0x3855	; 0x803855 <simonTimer>
    1bee:	8f 5f       	subi	r24, 0xFF	; 255
    1bf0:	80 93 55 38 	sts	0x3855, r24	; 0x803855 <simonTimer>
    return 0;
}
    1bf4:	80 e0       	ldi	r24, 0x00	; 0
    1bf6:	df 91       	pop	r29
    1bf8:	cf 91       	pop	r28
    1bfa:	08 95       	ret

00001bfc <Cheat>:

//
void SetResponse(uint8_t number, uint16_t address, uint16_t length, uint8_t type){
    reactStr[0][number]=address;
    reactStr[1][number]=length;
    reactStr[2][number]=type;
    1bfc:	1f 93       	push	r17
    1bfe:	cf 93       	push	r28
    1c00:	df 93       	push	r29
    1c02:	cd b7       	in	r28, 0x3d	; 61
    1c04:	de b7       	in	r29, 0x3e	; 62
    1c06:	62 97       	sbiw	r28, 0x12	; 18
    1c08:	cd bf       	out	0x3d, r28	; 61
    1c0a:	de bf       	out	0x3e, r29	; 62
    1c0c:	8a 8b       	std	Y+18, r24	; 0x12
    1c0e:	80 e1       	ldi	r24, 0x10	; 16
    1c10:	e2 e6       	ldi	r30, 0x62	; 98
    1c12:	fc eb       	ldi	r31, 0xBC	; 188
    1c14:	de 01       	movw	r26, r28
    1c16:	11 96       	adiw	r26, 0x01	; 1
    1c18:	01 90       	ld	r0, Z+
    1c1a:	0d 92       	st	X+, r0
    1c1c:	8a 95       	dec	r24
    1c1e:	e1 f7       	brne	.-8      	; 0x1c18 <Cheat+0x1c>
    1c20:	fe 01       	movw	r30, r28
    1c22:	31 96       	adiw	r30, 0x01	; 1
    1c24:	90 e0       	ldi	r25, 0x00	; 0
    1c26:	8f ef       	ldi	r24, 0xFF	; 255
    1c28:	21 91       	ld	r18, Z+
    1c2a:	31 91       	ld	r19, Z+
    1c2c:	26 17       	cp	r18, r22
    1c2e:	37 07       	cpc	r19, r23
    1c30:	09 f4       	brne	.+2      	; 0x1c34 <Cheat+0x38>
    1c32:	89 2f       	mov	r24, r25
    1c34:	9f 5f       	subi	r25, 0xFF	; 255
    1c36:	98 30       	cpi	r25, 0x08	; 8
    1c38:	b9 f7       	brne	.-18     	; 0x1c28 <Cheat+0x2c>
    1c3a:	88 30       	cpi	r24, 0x08	; 8
    1c3c:	10 f0       	brcs	.+4      	; 0x1c42 <Cheat+0x46>
    1c3e:	80 e0       	ldi	r24, 0x00	; 0
    1c40:	12 c0       	rjmp	.+36     	; 0x1c66 <Cheat+0x6a>
    1c42:	18 e1       	ldi	r17, 0x18	; 24
    1c44:	18 0f       	add	r17, r24
    1c46:	41 e0       	ldi	r20, 0x01	; 1
    1c48:	be 01       	movw	r22, r28
    1c4a:	6f 5e       	subi	r22, 0xEF	; 239
    1c4c:	7f 4f       	sbci	r23, 0xFF	; 255
    1c4e:	81 2f       	mov	r24, r17
    1c50:	94 da       	rcall	.-2776   	; 0x117a <EERead>
    1c52:	89 89       	ldd	r24, Y+17	; 0x11
    1c54:	8f 3f       	cpi	r24, 0xFF	; 255
    1c56:	99 f7       	brne	.-26     	; 0x1c3e <Cheat+0x42>
    1c58:	41 e0       	ldi	r20, 0x01	; 1
    1c5a:	be 01       	movw	r22, r28
    1c5c:	6e 5e       	subi	r22, 0xEE	; 238
    1c5e:	7f 4f       	sbci	r23, 0xFF	; 255
    1c60:	81 2f       	mov	r24, r17
    1c62:	9b da       	rcall	.-2762   	; 0x119a <EEWrite>
    1c64:	81 e0       	ldi	r24, 0x01	; 1
    1c66:	62 96       	adiw	r28, 0x12	; 18
    1c68:	cd bf       	out	0x3d, r28	; 61
    1c6a:	de bf       	out	0x3e, r29	; 62
    1c6c:	df 91       	pop	r29
    1c6e:	cf 91       	pop	r28
    1c70:	1f 91       	pop	r17
    1c72:	08 95       	ret

00001c74 <DecryptData>:
    1c74:	f9 01       	movw	r30, r18
    1c76:	9c 01       	movw	r18, r24
    1c78:	2e 1b       	sub	r18, r30
    1c7a:	3f 0b       	sbc	r19, r31
    1c7c:	88 e0       	ldi	r24, 0x08	; 8
    1c7e:	48 9f       	mul	r20, r24
    1c80:	a0 01       	movw	r20, r0
    1c82:	11 24       	eor	r1, r1
    1c84:	4c 5c       	subi	r20, 0xCC	; 204
    1c86:	52 44       	sbci	r21, 0x42	; 66
    1c88:	66 23       	and	r22, r22
    1c8a:	69 f0       	breq	.+26     	; 0x1ca6 <DecryptData+0x32>
    1c8c:	df 01       	movw	r26, r30
    1c8e:	a2 0f       	add	r26, r18
    1c90:	b3 1f       	adc	r27, r19
    1c92:	a7 70       	andi	r26, 0x07	; 7
    1c94:	bb 27       	eor	r27, r27
    1c96:	a4 0f       	add	r26, r20
    1c98:	b5 1f       	adc	r27, r21
    1c9a:	80 81       	ld	r24, Z
    1c9c:	9c 91       	ld	r25, X
    1c9e:	98 27       	eor	r25, r24
    1ca0:	91 93       	st	Z+, r25
    1ca2:	61 50       	subi	r22, 0x01	; 1
    1ca4:	f1 cf       	rjmp	.-30     	; 0x1c88 <DecryptData+0x14>
    1ca6:	08 95       	ret

00001ca8 <UnflipData>:
    1ca8:	26 2f       	mov	r18, r22
    1caa:	fb 01       	movw	r30, r22
    1cac:	35 e5       	ldi	r19, 0x55	; 85
    1cae:	9e 2f       	mov	r25, r30
    1cb0:	92 1b       	sub	r25, r18
    1cb2:	98 17       	cp	r25, r24
    1cb4:	28 f4       	brcc	.+10     	; 0x1cc0 <UnflipData+0x18>
    1cb6:	90 81       	ld	r25, Z
    1cb8:	92 95       	swap	r25
    1cba:	93 27       	eor	r25, r19
    1cbc:	91 93       	st	Z+, r25
    1cbe:	f7 cf       	rjmp	.-18     	; 0x1cae <UnflipData+0x6>
    1cc0:	08 95       	ret

00001cc2 <ExtEERead>:
    1cc2:	af 92       	push	r10
    1cc4:	bf 92       	push	r11
    1cc6:	cf 92       	push	r12
    1cc8:	df 92       	push	r13
    1cca:	ef 92       	push	r14
    1ccc:	ff 92       	push	r15
    1cce:	0f 93       	push	r16
    1cd0:	1f 93       	push	r17
    1cd2:	cf 93       	push	r28
    1cd4:	df 93       	push	r29
    1cd6:	00 d0       	rcall	.+0      	; 0x1cd8 <ExtEERead+0x16>
    1cd8:	cd b7       	in	r28, 0x3d	; 61
    1cda:	de b7       	in	r29, 0x3e	; 62
    1cdc:	d6 2e       	mov	r13, r22
    1cde:	c4 2e       	mov	r12, r20
    1ce0:	59 01       	movw	r10, r18
    1ce2:	7c 01       	movw	r14, r24
    1ce4:	e8 94       	clt
    1ce6:	f7 f8       	bld	r15, 7
    1ce8:	f9 82       	std	Y+1, r15	; 0x01
    1cea:	ea 82       	std	Y+2, r14	; 0x02
    1cec:	06 2f       	mov	r16, r22
    1cee:	42 e0       	ldi	r20, 0x02	; 2
    1cf0:	be 01       	movw	r22, r28
    1cf2:	6f 5f       	subi	r22, 0xFF	; 255
    1cf4:	7f 4f       	sbci	r23, 0xFF	; 255
    1cf6:	80 e5       	ldi	r24, 0x50	; 80
    1cf8:	0e 94 ba 02 	call	0x574	; 0x574 <I2C_read_bytes>
    1cfc:	18 2f       	mov	r17, r24
    1cfe:	81 11       	cpse	r24, r1
    1d00:	05 c0       	rjmp	.+10     	; 0x1d0c <ExtEERead+0x4a>
    1d02:	95 01       	movw	r18, r10
    1d04:	4c 2d       	mov	r20, r12
    1d06:	6d 2d       	mov	r22, r13
    1d08:	c7 01       	movw	r24, r14
    1d0a:	b4 df       	rcall	.-152    	; 0x1c74 <DecryptData>
    1d0c:	81 2f       	mov	r24, r17
    1d0e:	0f 90       	pop	r0
    1d10:	0f 90       	pop	r0
    1d12:	df 91       	pop	r29
    1d14:	cf 91       	pop	r28
    1d16:	1f 91       	pop	r17
    1d18:	0f 91       	pop	r16
    1d1a:	ff 90       	pop	r15
    1d1c:	ef 90       	pop	r14
    1d1e:	df 90       	pop	r13
    1d20:	cf 90       	pop	r12
    1d22:	bf 90       	pop	r11
    1d24:	af 90       	pop	r10
    1d26:	08 95       	ret

00001d28 <ClearTxAfter>:
    1d28:	8f 5f       	subi	r24, 0xFF	; 255
    1d2a:	88 30       	cpi	r24, 0x08	; 8
    1d2c:	30 f4       	brcc	.+12     	; 0x1d3a <ClearTxAfter+0x12>
    1d2e:	e8 2f       	mov	r30, r24
    1d30:	f0 e0       	ldi	r31, 0x00	; 0
    1d32:	ee 5b       	subi	r30, 0xBE	; 190
    1d34:	f5 4c       	sbci	r31, 0xC5	; 197
    1d36:	10 82       	st	Z, r1
    1d38:	f7 cf       	rjmp	.-18     	; 0x1d28 <ClearTxAfter>
    1d3a:	08 95       	ret

00001d3c <StartsWith>:
    1d3c:	ac 01       	movw	r20, r24
    1d3e:	90 e0       	ldi	r25, 0x00	; 0
    1d40:	e9 2f       	mov	r30, r25
    1d42:	f0 e0       	ldi	r31, 0x00	; 0
    1d44:	da 01       	movw	r26, r20
    1d46:	ae 0f       	add	r26, r30
    1d48:	bf 1f       	adc	r27, r31
    1d4a:	3c 91       	ld	r19, X
    1d4c:	e6 0f       	add	r30, r22
    1d4e:	f7 1f       	adc	r31, r23
    1d50:	31 11       	cpse	r19, r1
    1d52:	05 c0       	rjmp	.+10     	; 0x1d5e <StartsWith+0x22>
    1d54:	81 e0       	ldi	r24, 0x01	; 1
    1d56:	90 81       	ld	r25, Z
    1d58:	99 23       	and	r25, r25
    1d5a:	49 f0       	breq	.+18     	; 0x1d6e <StartsWith+0x32>
    1d5c:	07 c0       	rjmp	.+14     	; 0x1d6c <StartsWith+0x30>
    1d5e:	20 81       	ld	r18, Z
    1d60:	22 23       	and	r18, r18
    1d62:	c1 f3       	breq	.-16     	; 0x1d54 <StartsWith+0x18>
    1d64:	32 13       	cpse	r19, r18
    1d66:	02 c0       	rjmp	.+4      	; 0x1d6c <StartsWith+0x30>
    1d68:	9f 5f       	subi	r25, 0xFF	; 255
    1d6a:	ea cf       	rjmp	.-44     	; 0x1d40 <StartsWith+0x4>
    1d6c:	80 e0       	ldi	r24, 0x00	; 0
    1d6e:	08 95       	ret

00001d70 <PrepareSending>:
    1d70:	61 15       	cp	r22, r1
    1d72:	71 05       	cpc	r23, r1
    1d74:	51 f1       	breq	.+84     	; 0x1dca <PrepareSending+0x5a>
    1d76:	ea e4       	ldi	r30, 0x4A	; 74
    1d78:	fa e3       	ldi	r31, 0x3A	; 58
    1d7a:	a2 e4       	ldi	r26, 0x42	; 66
    1d7c:	ba e3       	ldi	r27, 0x3A	; 58
    1d7e:	20 e0       	ldi	r18, 0x00	; 0
    1d80:	3f ef       	ldi	r19, 0xFF	; 255
    1d82:	6f 3f       	cpi	r22, 0xFF	; 255
    1d84:	71 05       	cpc	r23, r1
    1d86:	69 f0       	breq	.+26     	; 0x1da2 <PrepareSending+0x32>
    1d88:	60 f0       	brcs	.+24     	; 0x1da2 <PrepareSending+0x32>
    1d8a:	81 93       	st	Z+, r24
    1d8c:	91 93       	st	Z+, r25
    1d8e:	3d 93       	st	X+, r19
    1d90:	81 50       	subi	r24, 0x01	; 1
    1d92:	9f 4f       	sbci	r25, 0xFF	; 255
    1d94:	6f 5f       	subi	r22, 0xFF	; 255
    1d96:	71 09       	sbc	r23, r1
    1d98:	2f 5f       	subi	r18, 0xFF	; 255
    1d9a:	27 30       	cpi	r18, 0x07	; 7
    1d9c:	91 f7       	brne	.-28     	; 0x1d82 <PrepareSending+0x12>
    1d9e:	81 e0       	ldi	r24, 0x01	; 1
    1da0:	08 95       	ret
    1da2:	e2 2f       	mov	r30, r18
    1da4:	f0 e0       	ldi	r31, 0x00	; 0
    1da6:	df 01       	movw	r26, r30
    1da8:	aa 0f       	add	r26, r26
    1daa:	bb 1f       	adc	r27, r27
    1dac:	a6 5b       	subi	r26, 0xB6	; 182
    1dae:	b5 4c       	sbci	r27, 0xC5	; 197
    1db0:	8d 93       	st	X+, r24
    1db2:	9c 93       	st	X, r25
    1db4:	ee 5b       	subi	r30, 0xBE	; 190
    1db6:	f5 4c       	sbci	r31, 0xC5	; 197
    1db8:	cb 01       	movw	r24, r22
    1dba:	6f ef       	ldi	r22, 0xFF	; 255
    1dbc:	70 e0       	ldi	r23, 0x00	; 0
    1dbe:	0e 94 e6 1d 	call	0x3bcc	; 0x3bcc <__udivmodhi4>
    1dc2:	80 83       	st	Z, r24
    1dc4:	40 93 40 3a 	sts	0x3A40, r20	; 0x803a40 <txTypeNow>
    1dc8:	05 c0       	rjmp	.+10     	; 0x1dd4 <PrepareSending+0x64>
    1dca:	10 92 4a 3a 	sts	0x3A4A, r1	; 0x803a4a <txAddrList>
    1dce:	10 92 4b 3a 	sts	0x3A4B, r1	; 0x803a4b <txAddrList+0x1>
    1dd2:	20 e0       	ldi	r18, 0x00	; 0
    1dd4:	82 2f       	mov	r24, r18
    1dd6:	a8 df       	rcall	.-176    	; 0x1d28 <ClearTxAfter>
    1dd8:	10 92 41 3a 	sts	0x3A41, r1	; 0x803a41 <txAddrNow>
    1ddc:	80 e0       	ldi	r24, 0x00	; 0
    1dde:	08 95       	ret

00001de0 <SetStandardResponse>:
}

//
uint8_t SetStandardResponse(uint8_t custStrEnd){
    1de0:	cf 93       	push	r28
    1de2:	df 93       	push	r29
    return 0;
}

//
void SetResponse(uint8_t number, uint16_t address, uint16_t length, uint8_t type){
    reactStr[0][number]=address;
    1de4:	28 2f       	mov	r18, r24
    1de6:	30 e0       	ldi	r19, 0x00	; 0
    1de8:	f9 01       	movw	r30, r18
    1dea:	ee 0f       	add	r30, r30
    1dec:	ff 1f       	adc	r31, r31
    1dee:	eb 5e       	subi	r30, 0xEB	; 235
    1df0:	f6 4c       	sbci	r31, 0xC6	; 198
    1df2:	ab e5       	ldi	r26, 0x5B	; 91
    1df4:	ba e7       	ldi	r27, 0x7A	; 122
    1df6:	a0 83       	st	Z, r26
    1df8:	b1 83       	std	Z+1, r27	; 0x01
    reactStr[1][number]=length;
    1dfa:	f9 01       	movw	r30, r18
    1dfc:	ee 0f       	add	r30, r30
    1dfe:	ff 1f       	adc	r31, r31
    1e00:	eb 5a       	subi	r30, 0xAB	; 171
    1e02:	f6 4c       	sbci	r31, 0xC6	; 198
    1e04:	62 e0       	ldi	r22, 0x02	; 2
    1e06:	70 e0       	ldi	r23, 0x00	; 0
    1e08:	60 83       	st	Z, r22
    1e0a:	71 83       	std	Z+1, r23	; 0x01
    reactStr[2][number]=type;
    1e0c:	22 0f       	add	r18, r18
    1e0e:	33 1f       	adc	r19, r19
    1e10:	f9 01       	movw	r30, r18
    1e12:	eb 56       	subi	r30, 0x6B	; 107
    1e14:	f6 4c       	sbci	r31, 0xC6	; 198
    1e16:	41 e0       	ldi	r20, 0x01	; 1
    1e18:	50 e0       	ldi	r21, 0x00	; 0
    1e1a:	40 83       	st	Z, r20
    1e1c:	51 83       	std	Z+1, r21	; 0x01
    return 0;
}

//
void SetResponse(uint8_t number, uint16_t address, uint16_t length, uint8_t type){
    reactStr[0][number]=address;
    1e1e:	21 e0       	ldi	r18, 0x01	; 1
    1e20:	28 0f       	add	r18, r24
    1e22:	30 e0       	ldi	r19, 0x00	; 0
    1e24:	f9 01       	movw	r30, r18
    1e26:	ee 0f       	add	r30, r30
    1e28:	ff 1f       	adc	r31, r31
    1e2a:	eb 5e       	subi	r30, 0xEB	; 235
    1e2c:	f6 4c       	sbci	r31, 0xC6	; 198
    1e2e:	c4 e6       	ldi	r28, 0x64	; 100
    1e30:	da e7       	ldi	r29, 0x7A	; 122
    1e32:	c0 83       	st	Z, r28
    1e34:	d1 83       	std	Z+1, r29	; 0x01
    reactStr[1][number]=length;
    1e36:	f9 01       	movw	r30, r18
    1e38:	ee 0f       	add	r30, r30
    1e3a:	ff 1f       	adc	r31, r31
    1e3c:	eb 5a       	subi	r30, 0xAB	; 171
    1e3e:	f6 4c       	sbci	r31, 0xC6	; 198
    1e40:	ca e0       	ldi	r28, 0x0A	; 10
    1e42:	d0 e0       	ldi	r29, 0x00	; 0
    1e44:	c0 83       	st	Z, r28
    1e46:	d1 83       	std	Z+1, r29	; 0x01
    reactStr[2][number]=type;
    1e48:	22 0f       	add	r18, r18
    1e4a:	33 1f       	adc	r19, r19
    1e4c:	f9 01       	movw	r30, r18
    1e4e:	eb 56       	subi	r30, 0x6B	; 107
    1e50:	f6 4c       	sbci	r31, 0xC6	; 198
    1e52:	40 83       	st	Z, r20
    1e54:	51 83       	std	Z+1, r21	; 0x01
uint8_t SetStandardResponse(uint8_t custStrEnd){

    SetResponse(custStrEnd++, A_LF, 2, TEASER);
    SetResponse(custStrEnd++, A_LOCATION, L_LOCATION, TEASER);
    //SetResponse(custStrEnd++, A_SPACE, L_SPACE, TEASER);
    reactStr[0][custStrEnd++] = CURR_LOC;
    1e56:	e2 e0       	ldi	r30, 0x02	; 2
    1e58:	e8 0f       	add	r30, r24
    1e5a:	f0 e0       	ldi	r31, 0x00	; 0
    1e5c:	ee 0f       	add	r30, r30
    1e5e:	ff 1f       	adc	r31, r31
    1e60:	eb 5e       	subi	r30, 0xEB	; 235
    1e62:	f6 4c       	sbci	r31, 0xC6	; 198
    1e64:	20 ef       	ldi	r18, 0xF0	; 240
    1e66:	3f ef       	ldi	r19, 0xFF	; 255
    1e68:	20 83       	st	Z, r18
    1e6a:	31 83       	std	Z+1, r19	; 0x01
    return 0;
}

//
void SetResponse(uint8_t number, uint16_t address, uint16_t length, uint8_t type){
    reactStr[0][number]=address;
    1e6c:	23 e0       	ldi	r18, 0x03	; 3
    1e6e:	28 0f       	add	r18, r24
    1e70:	30 e0       	ldi	r19, 0x00	; 0
    1e72:	f9 01       	movw	r30, r18
    1e74:	ee 0f       	add	r30, r30
    1e76:	ff 1f       	adc	r31, r31
    1e78:	eb 5e       	subi	r30, 0xEB	; 235
    1e7a:	f6 4c       	sbci	r31, 0xC6	; 198
    1e7c:	a0 83       	st	Z, r26
    1e7e:	b1 83       	std	Z+1, r27	; 0x01
    reactStr[1][number]=length;
    1e80:	f9 01       	movw	r30, r18
    1e82:	ee 0f       	add	r30, r30
    1e84:	ff 1f       	adc	r31, r31
    1e86:	eb 5a       	subi	r30, 0xAB	; 171
    1e88:	f6 4c       	sbci	r31, 0xC6	; 198
    1e8a:	60 83       	st	Z, r22
    1e8c:	71 83       	std	Z+1, r23	; 0x01
    reactStr[2][number]=type;
    1e8e:	22 0f       	add	r18, r18
    1e90:	33 1f       	adc	r19, r19
    1e92:	f9 01       	movw	r30, r18
    1e94:	eb 56       	subi	r30, 0x6B	; 107
    1e96:	f6 4c       	sbci	r31, 0xC6	; 198
    1e98:	40 83       	st	Z, r20
    1e9a:	51 83       	std	Z+1, r21	; 0x01
    return 0;
}

//
void SetResponse(uint8_t number, uint16_t address, uint16_t length, uint8_t type){
    reactStr[0][number]=address;
    1e9c:	24 e0       	ldi	r18, 0x04	; 4
    1e9e:	28 0f       	add	r18, r24
    1ea0:	30 e0       	ldi	r19, 0x00	; 0
    1ea2:	f9 01       	movw	r30, r18
    1ea4:	ee 0f       	add	r30, r30
    1ea6:	ff 1f       	adc	r31, r31
    1ea8:	eb 5e       	subi	r30, 0xEB	; 235
    1eaa:	f6 4c       	sbci	r31, 0xC6	; 198
    1eac:	a7 e5       	ldi	r26, 0x57	; 87
    1eae:	ba e7       	ldi	r27, 0x7A	; 122
    1eb0:	a0 83       	st	Z, r26
    1eb2:	b1 83       	std	Z+1, r27	; 0x01
    reactStr[1][number]=length;
    1eb4:	f9 01       	movw	r30, r18
    1eb6:	ee 0f       	add	r30, r30
    1eb8:	ff 1f       	adc	r31, r31
    1eba:	eb 5a       	subi	r30, 0xAB	; 171
    1ebc:	f6 4c       	sbci	r31, 0xC6	; 198
    1ebe:	60 83       	st	Z, r22
    1ec0:	71 83       	std	Z+1, r23	; 0x01
    reactStr[2][number]=type;
    1ec2:	22 0f       	add	r18, r18
    1ec4:	33 1f       	adc	r19, r19
    1ec6:	f9 01       	movw	r30, r18
    1ec8:	eb 56       	subi	r30, 0x6B	; 107
    1eca:	f6 4c       	sbci	r31, 0xC6	; 198
    1ecc:	40 83       	st	Z, r20
    1ece:	51 83       	std	Z+1, r21	; 0x01
    SetResponse(custStrEnd++, A_LF, 2, TEASER);
    SetResponse(custStrEnd++, A_PROMPT, L_PROMPT, TEASER);
    //SetResponse(custStrEnd++, A_SPACE, L_SPACE, TEASER);

    return custStrEnd;
}
    1ed0:	8b 5f       	subi	r24, 0xFB	; 251
    1ed2:	df 91       	pop	r29
    1ed4:	cf 91       	pop	r28
    1ed6:	08 95       	ret

00001ed8 <PopulateObject>:

//Get all the relevant data and string addresses of an object
void PopulateObject(uint16_t offset, object_model_t *object){
    1ed8:	af 92       	push	r10
    1eda:	bf 92       	push	r11
    1edc:	df 92       	push	r13
    1ede:	ef 92       	push	r14
    1ee0:	ff 92       	push	r15
    1ee2:	0f 93       	push	r16
    1ee4:	1f 93       	push	r17
    1ee6:	cf 93       	push	r28
    1ee8:	df 93       	push	r29
    1eea:	cd b7       	in	r28, 0x3d	; 61
    1eec:	de b7       	in	r29, 0x3e	; 62
    1eee:	2c 97       	sbiw	r28, 0x0c	; 12
    1ef0:	cd bf       	out	0x3d, r28	; 61
    1ef2:	de bf       	out	0x3e, r29	; 62
    1ef4:	7c 01       	movw	r14, r24
    1ef6:	8b 01       	movw	r16, r22
    uint16_t parStr;
    offset += L_BOILER;

    //Fill things with fixed distance to offset
    uint8_t data[OFF_STRINGFLDS];
    ExtEERead(offset, OFF_STRINGFLDS, GAME, &data[0]);
    1ef8:	9e 01       	movw	r18, r28
    1efa:	2f 5f       	subi	r18, 0xFF	; 255
    1efc:	3f 4f       	sbci	r19, 0xFF	; 255
    1efe:	40 e0       	ldi	r20, 0x00	; 0
    1f00:	6c e0       	ldi	r22, 0x0C	; 12
    1f02:	80 96       	adiw	r24, 0x20	; 32
    1f04:	de de       	rcall	.-580    	; 0x1cc2 <ExtEERead>
    object->addrNextObj = (data[OFF_NEXTOBJ]<<8|data[OFF_NEXTOBJ+1])+L_BOILER;
    1f06:	89 81       	ldd	r24, Y+1	; 0x01
    1f08:	9a 81       	ldd	r25, Y+2	; 0x02
    1f0a:	98 27       	eor	r25, r24
    1f0c:	89 27       	eor	r24, r25
    1f0e:	98 27       	eor	r25, r24
    1f10:	80 96       	adiw	r24, 0x20	; 32
    1f12:	f8 01       	movw	r30, r16
    1f14:	80 83       	st	Z, r24
    1f16:	91 83       	std	Z+1, r25	; 0x01
    object->addrNextLvl = (data[OFF_NEXTLVL]<<8|data[OFF_NEXTLVL+1])+L_BOILER;
    1f18:	8b 81       	ldd	r24, Y+3	; 0x03
    1f1a:	9c 81       	ldd	r25, Y+4	; 0x04
    1f1c:	98 27       	eor	r25, r24
    1f1e:	89 27       	eor	r24, r25
    1f20:	98 27       	eor	r25, r24
    1f22:	80 96       	adiw	r24, 0x20	; 32
    1f24:	82 83       	std	Z+2, r24	; 0x02
    1f26:	93 83       	std	Z+3, r25	; 0x03
    1f28:	de 01       	movw	r26, r28
    1f2a:	15 96       	adiw	r26, 0x05	; 5
    1f2c:	34 96       	adiw	r30, 0x04	; 4
    1f2e:	c8 01       	movw	r24, r16
    1f30:	0c 96       	adiw	r24, 0x0c	; 12
    for (uint8_t x=0; x<BYTE_FIELDS_LEN; ++x){
        object->byteField[x]=data[x+OFF_BYTEFLDS];
    1f32:	2d 91       	ld	r18, X+
    1f34:	21 93       	st	Z+, r18
    //Fill things with fixed distance to offset
    uint8_t data[OFF_STRINGFLDS];
    ExtEERead(offset, OFF_STRINGFLDS, GAME, &data[0]);
    object->addrNextObj = (data[OFF_NEXTOBJ]<<8|data[OFF_NEXTOBJ+1])+L_BOILER;
    object->addrNextLvl = (data[OFF_NEXTLVL]<<8|data[OFF_NEXTLVL+1])+L_BOILER;
    for (uint8_t x=0; x<BYTE_FIELDS_LEN; ++x){
    1f36:	e8 17       	cp	r30, r24
    1f38:	f9 07       	cpc	r31, r25
    1f3a:	d9 f7       	brne	.-10     	; 0x1f32 <PopulateObject+0x5a>
        object->byteField[x]=data[x+OFF_BYTEFLDS];
    }

    //Find out where all of the strings begin and how long they are
    offset += OFF_STRINGFLDS;
    1f3c:	fc e2       	ldi	r31, 0x2C	; 44
    1f3e:	ef 0e       	add	r14, r31
    1f40:	f1 1c       	adc	r15, r1
    1f42:	58 01       	movw	r10, r16
    for(uint8_t x=0; x<STRING_FIELDS_LEN; ++x){
    1f44:	d1 2c       	mov	r13, r1
        
        //Determine length
        ExtEERead(offset, 3, GAME, &data[0]);
    1f46:	9e 01       	movw	r18, r28
    1f48:	2f 5f       	subi	r18, 0xFF	; 255
    1f4a:	3f 4f       	sbci	r19, 0xFF	; 255
    1f4c:	40 e0       	ldi	r20, 0x00	; 0
    1f4e:	63 e0       	ldi	r22, 0x03	; 3
    1f50:	c7 01       	movw	r24, r14
    1f52:	b7 de       	rcall	.-658    	; 0x1cc2 <ExtEERead>
    1f54:	89 81       	ldd	r24, Y+1	; 0x01
    1f56:	9a 81       	ldd	r25, Y+2	; 0x02
    1f58:	98 27       	eor	r25, r24
    1f5a:	89 27       	eor	r24, r25
    1f5c:	98 27       	eor	r25, r24
        parStr = (data[0]<<8|data[1]);
        offset += 2;
    1f5e:	97 01       	movw	r18, r14
    1f60:	2e 5f       	subi	r18, 0xFE	; 254
    1f62:	3f 4f       	sbci	r19, 0xFF	; 255
        if (x >= OPEN_ACL_MSG){
    1f64:	43 e0       	ldi	r20, 0x03	; 3
    1f66:	4d 15       	cp	r20, r13
    1f68:	80 f4       	brcc	.+32     	; 0x1f8a <PopulateObject+0xb2>
            object->lenStr[x]= parStr-1;
    1f6a:	ac 01       	movw	r20, r24
    1f6c:	41 50       	subi	r20, 0x01	; 1
    1f6e:	51 09       	sbc	r21, r1
    1f70:	f8 01       	movw	r30, r16
    1f72:	42 8f       	std	Z+26, r20	; 0x1a
    1f74:	53 8f       	std	Z+27, r21	; 0x1b
            object->addrStr[x]=offset+1;
    1f76:	f3 e0       	ldi	r31, 0x03	; 3
    1f78:	ef 0e       	add	r14, r31
    1f7a:	f1 1c       	adc	r15, r1
    1f7c:	f8 01       	movw	r30, r16
    1f7e:	e4 86       	std	Z+12, r14	; 0x0c
    1f80:	f5 86       	std	Z+13, r15	; 0x0d
            object->effect[x-OPEN_ACL_MSG] = data[2];
    1f82:	4b 81       	ldd	r20, Y+3	; 0x03
    1f84:	f5 01       	movw	r30, r10
    1f86:	44 a3       	std	Z+36, r20	; 0x24
    1f88:	05 c0       	rjmp	.+10     	; 0x1f94 <PopulateObject+0xbc>
        } else {
            object->lenStr[x]= parStr;
    1f8a:	f8 01       	movw	r30, r16
    1f8c:	82 8f       	std	Z+26, r24	; 0x1a
    1f8e:	93 8f       	std	Z+27, r25	; 0x1b
            object->addrStr[x]=offset;
    1f90:	24 87       	std	Z+12, r18	; 0x0c
    1f92:	35 87       	std	Z+13, r19	; 0x0d
        }
        
        //Determine string start location for next field
        offset += parStr;
    1f94:	7c 01       	movw	r14, r24
    1f96:	e2 0e       	add	r14, r18
    1f98:	f3 1e       	adc	r15, r19
        object->byteField[x]=data[x+OFF_BYTEFLDS];
    }

    //Find out where all of the strings begin and how long they are
    offset += OFF_STRINGFLDS;
    for(uint8_t x=0; x<STRING_FIELDS_LEN; ++x){
    1f9a:	d3 94       	inc	r13
    1f9c:	0e 5f       	subi	r16, 0xFE	; 254
    1f9e:	1f 4f       	sbci	r17, 0xFF	; 255
    1fa0:	ff ef       	ldi	r31, 0xFF	; 255
    1fa2:	af 1a       	sub	r10, r31
    1fa4:	bf 0a       	sbc	r11, r31
    1fa6:	47 e0       	ldi	r20, 0x07	; 7
    1fa8:	d4 12       	cpse	r13, r20
    1faa:	cd cf       	rjmp	.-102    	; 0x1f46 <PopulateObject+0x6e>
        }
        
        //Determine string start location for next field
        offset += parStr;
    }    
}
    1fac:	2c 96       	adiw	r28, 0x0c	; 12
    1fae:	cd bf       	out	0x3d, r28	; 61
    1fb0:	de bf       	out	0x3e, r29	; 62
    1fb2:	df 91       	pop	r29
    1fb4:	cf 91       	pop	r28
    1fb6:	1f 91       	pop	r17
    1fb8:	0f 91       	pop	r16
    1fba:	ff 90       	pop	r15
    1fbc:	ef 90       	pop	r14
    1fbe:	df 90       	pop	r13
    1fc0:	bf 90       	pop	r11
    1fc2:	af 90       	pop	r10
    1fc4:	08 95       	ret

00001fc6 <CheckLetter>:

//Check if the entered letter corresponds with a name
uint8_t CheckLetter(uint16_t object, uint8_t letter){
    1fc6:	cf 92       	push	r12
    1fc8:	df 92       	push	r13
    1fca:	ef 92       	push	r14
    1fcc:	ff 92       	push	r15
    1fce:	0f 93       	push	r16
    1fd0:	1f 93       	push	r17
    1fd2:	cf 93       	push	r28
    1fd4:	df 93       	push	r29
    1fd6:	cd b7       	in	r28, 0x3d	; 61
    1fd8:	de b7       	in	r29, 0x3e	; 62
    1fda:	a0 97       	sbiw	r28, 0x20	; 32
    1fdc:	cd bf       	out	0x3d, r28	; 61
    1fde:	de bf       	out	0x3e, r29	; 62
    1fe0:	c6 2e       	mov	r12, r22
    
    uint8_t found = 0;
    uint8_t data[32];

    object += L_BOILER;
    1fe2:	7c 01       	movw	r14, r24
    1fe4:	20 e2       	ldi	r18, 0x20	; 32
    1fe6:	e2 0e       	add	r14, r18
    1fe8:	f1 1c       	adc	r15, r1
    ExtEERead(object+OFF_STRINGFLDS, 2, GAME, &data[0]);
    1fea:	9e 01       	movw	r18, r28
    1fec:	2f 5f       	subi	r18, 0xFF	; 255
    1fee:	3f 4f       	sbci	r19, 0xFF	; 255
    1ff0:	40 e0       	ldi	r20, 0x00	; 0
    1ff2:	62 e0       	ldi	r22, 0x02	; 2
    1ff4:	8c 96       	adiw	r24, 0x2c	; 44
    1ff6:	65 de       	rcall	.-822    	; 0x1cc2 <ExtEERead>
    uint8_t x = data[1]; //Assuming a name is not longer than 255 characters.
    1ff8:	1a 81       	ldd	r17, Y+2	; 0x02
}

//Check if the entered letter corresponds with a name
uint8_t CheckLetter(uint16_t object, uint8_t letter){
    
    uint8_t found = 0;
    1ffa:	d1 2c       	mov	r13, r1

    object += L_BOILER;
    ExtEERead(object+OFF_STRINGFLDS, 2, GAME, &data[0]);
    uint8_t x = data[1]; //Assuming a name is not longer than 255 characters.

    while (x){
    1ffc:	11 23       	and	r17, r17
    1ffe:	51 f1       	breq	.+84     	; 0x2054 <CheckLetter+0x8e>
    2000:	01 2f       	mov	r16, r17
    2002:	11 32       	cpi	r17, 0x21	; 33
    2004:	08 f0       	brcs	.+2      	; 0x2008 <CheckLetter+0x42>
    2006:	00 e2       	ldi	r16, 0x20	; 32
        uint8_t max;
        if (x>32) max = 32; else max = x;
        ExtEERead(object+OFF_STRINGFLDS+2, max, GAME, &data[0]);
    2008:	9e 01       	movw	r18, r28
    200a:	2f 5f       	subi	r18, 0xFF	; 255
    200c:	3f 4f       	sbci	r19, 0xFF	; 255
    200e:	40 e0       	ldi	r20, 0x00	; 0
    2010:	60 2f       	mov	r22, r16
    2012:	c7 01       	movw	r24, r14
    2014:	0e 96       	adiw	r24, 0x0e	; 14
    2016:	55 de       	rcall	.-854    	; 0x1cc2 <ExtEERead>
    2018:	fe 01       	movw	r30, r28
    201a:	31 96       	adiw	r30, 0x01	; 1
        for (uint8_t y=0; y<max; ++y){
    201c:	80 e0       	ldi	r24, 0x00	; 0
            if (found){
    201e:	dd 20       	and	r13, r13
    2020:	61 f0       	breq	.+24     	; 0x203a <CheckLetter+0x74>
                if ((data[y]|0x20) == letter) return 1; else return 0;
    2022:	e1 e0       	ldi	r30, 0x01	; 1
    2024:	f0 e0       	ldi	r31, 0x00	; 0
    2026:	ec 0f       	add	r30, r28
    2028:	fd 1f       	adc	r31, r29
    202a:	e8 0f       	add	r30, r24
    202c:	f1 1d       	adc	r31, r1
    202e:	90 81       	ld	r25, Z
    2030:	90 62       	ori	r25, 0x20	; 32
    2032:	81 e0       	ldi	r24, 0x01	; 1
    2034:	9c 11       	cpse	r25, r12
    2036:	0e c0       	rjmp	.+28     	; 0x2054 <CheckLetter+0x8e>
    2038:	0e c0       	rjmp	.+28     	; 0x2056 <CheckLetter+0x90>
            }
            if (data[y] == '[') found = 1;
    203a:	91 91       	ld	r25, Z+
    203c:	dd 24       	eor	r13, r13
    203e:	d3 94       	inc	r13
    2040:	9b 35       	cpi	r25, 0x5B	; 91
    2042:	09 f0       	breq	.+2      	; 0x2046 <CheckLetter+0x80>
    2044:	d1 2c       	mov	r13, r1

    while (x){
        uint8_t max;
        if (x>32) max = 32; else max = x;
        ExtEERead(object+OFF_STRINGFLDS+2, max, GAME, &data[0]);
        for (uint8_t y=0; y<max; ++y){
    2046:	8f 5f       	subi	r24, 0xFF	; 255
    2048:	80 17       	cp	r24, r16
    204a:	48 f3       	brcs	.-46     	; 0x201e <CheckLetter+0x58>
            if (found){
                if ((data[y]|0x20) == letter) return 1; else return 0;
            }
            if (data[y] == '[') found = 1;
        }
        object += max;
    204c:	e0 0e       	add	r14, r16
    204e:	f1 1c       	adc	r15, r1
        x -= max;
    2050:	10 1b       	sub	r17, r16
    2052:	d4 cf       	rjmp	.-88     	; 0x1ffc <CheckLetter+0x36>
    }
    return 0;
    2054:	80 e0       	ldi	r24, 0x00	; 0
}
    2056:	a0 96       	adiw	r28, 0x20	; 32
    2058:	cd bf       	out	0x3d, r28	; 61
    205a:	de bf       	out	0x3e, r29	; 62
    205c:	df 91       	pop	r29
    205e:	cf 91       	pop	r28
    2060:	1f 91       	pop	r17
    2062:	0f 91       	pop	r16
    2064:	ff 90       	pop	r15
    2066:	ef 90       	pop	r14
    2068:	df 90       	pop	r13
    206a:	cf 90       	pop	r12
    206c:	08 95       	ret

0000206e <FindChild>:

//Returns the child's address if the child is visible and the search letter matches
uint16_t FindChild(uint16_t parent, uint8_t letter, uint16_t start){
    206e:	af 92       	push	r10
    2070:	bf 92       	push	r11
    2072:	df 92       	push	r13
    2074:	ef 92       	push	r14
    2076:	ff 92       	push	r15
    2078:	0f 93       	push	r16
    207a:	1f 93       	push	r17
    207c:	cf 93       	push	r28
    207e:	df 93       	push	r29
    2080:	00 d0       	rcall	.+0      	; 0x2082 <FindChild+0x14>
    2082:	00 d0       	rcall	.+0      	; 0x2084 <FindChild+0x16>
    2084:	cd b7       	in	r28, 0x3d	; 61
    2086:	de b7       	in	r29, 0x3e	; 62
    2088:	d6 2e       	mov	r13, r22
    208a:	5a 01       	movw	r10, r20
    
    uint16_t child = parent;
    uint8_t data[4];

    ExtEERead(child+L_BOILER, 4, GAME, &data[0]);
    208c:	9e 01       	movw	r18, r28
    208e:	2f 5f       	subi	r18, 0xFF	; 255
    2090:	3f 4f       	sbci	r19, 0xFF	; 255
    2092:	40 e0       	ldi	r20, 0x00	; 0
    2094:	64 e0       	ldi	r22, 0x04	; 4
    2096:	80 96       	adiw	r24, 0x20	; 32
    2098:	14 de       	rcall	.-984    	; 0x1cc2 <ExtEERead>
    209a:	e9 80       	ldd	r14, Y+1	; 0x01
    209c:	fa 80       	ldd	r15, Y+2	; 0x02
    209e:	fe 24       	eor	r15, r14
    20a0:	ef 24       	eor	r14, r15
    20a2:	fe 24       	eor	r15, r14
    20a4:	0b 81       	ldd	r16, Y+3	; 0x03
    20a6:	1c 81       	ldd	r17, Y+4	; 0x04
    20a8:	10 27       	eor	r17, r16
    20aa:	01 27       	eor	r16, r17
    20ac:	10 27       	eor	r17, r16
    parent = (data[0]<<8|data[1]);    //Next object on parent level
    child =  (data[2]<<8|data[3]);    //First object on child level

    //As long as the child is within the parent's range
    while (parent>child){
    20ae:	0e 15       	cp	r16, r14
    20b0:	1f 05       	cpc	r17, r15
    20b2:	30 f5       	brcc	.+76     	; 0x2100 <FindChild+0x92>

        //If child's address is higher than the start address, perform search for letter
        if (child>start){
    20b4:	a0 16       	cp	r10, r16
    20b6:	b1 06       	cpc	r11, r17
    20b8:	58 f0       	brcs	.+22     	; 0x20d0 <FindChild+0x62>
                if ((letter == 0)||(CheckLetter(child, letter))) return child;
            }
        }

        //Not visible or name not right
        ExtEERead(child+L_BOILER, 2, GAME, &data[0]);
    20ba:	9e 01       	movw	r18, r28
    20bc:	2f 5f       	subi	r18, 0xFF	; 255
    20be:	3f 4f       	sbci	r19, 0xFF	; 255
    20c0:	40 e0       	ldi	r20, 0x00	; 0
    20c2:	62 e0       	ldi	r22, 0x02	; 2
    20c4:	c8 01       	movw	r24, r16
    20c6:	80 96       	adiw	r24, 0x20	; 32
    20c8:	fc dd       	rcall	.-1032   	; 0x1cc2 <ExtEERead>
    20ca:	09 81       	ldd	r16, Y+1	; 0x01
    20cc:	1a 81       	ldd	r17, Y+2	; 0x02
    20ce:	ec cf       	rjmp	.-40     	; 0x20a8 <FindChild+0x3a>
    //As long as the child is within the parent's range
    while (parent>child){

        //If child's address is higher than the start address, perform search for letter
        if (child>start){
            ExtEERead(child+OFF_BYTEFLDS+VISIBLE_ACL+L_BOILER, 1, GAME, &data[0]);
    20d0:	9e 01       	movw	r18, r28
    20d2:	2f 5f       	subi	r18, 0xFF	; 255
    20d4:	3f 4f       	sbci	r19, 0xFF	; 255
    20d6:	40 e0       	ldi	r20, 0x00	; 0
    20d8:	61 e0       	ldi	r22, 0x01	; 1
    20da:	c8 01       	movw	r24, r16
    20dc:	85 96       	adiw	r24, 0x25	; 37
    20de:	f1 dd       	rcall	.-1054   	; 0x1cc2 <ExtEERead>
            if ((data[0] == 0)||(CheckState(data[0]))) {
    20e0:	89 81       	ldd	r24, Y+1	; 0x01
    20e2:	81 11       	cpse	r24, r1
    20e4:	03 c0       	rjmp	.+6      	; 0x20ec <FindChild+0x7e>
                if ((letter == 0)||(CheckLetter(child, letter))) return child;
    20e6:	d1 10       	cpse	r13, r1
    20e8:	05 c0       	rjmp	.+10     	; 0x20f4 <FindChild+0x86>
    while (parent>child){

        //If child's address is higher than the start address, perform search for letter
        if (child>start){
            ExtEERead(child+OFF_BYTEFLDS+VISIBLE_ACL+L_BOILER, 1, GAME, &data[0]);
            if ((data[0] == 0)||(CheckState(data[0]))) {
    20ea:	0d c0       	rjmp	.+26     	; 0x2106 <FindChild+0x98>
    20ec:	48 da       	rcall	.-2928   	; 0x157e <CheckState>
    20ee:	81 11       	cpse	r24, r1
    20f0:	fa cf       	rjmp	.-12     	; 0x20e6 <FindChild+0x78>
                if ((letter == 0)||(CheckLetter(child, letter))) return child;
    20f2:	e3 cf       	rjmp	.-58     	; 0x20ba <FindChild+0x4c>
    20f4:	6d 2d       	mov	r22, r13
    20f6:	c8 01       	movw	r24, r16
    20f8:	66 df       	rcall	.-308    	; 0x1fc6 <CheckLetter>
    20fa:	88 23       	and	r24, r24
    20fc:	f1 f2       	breq	.-68     	; 0x20ba <FindChild+0x4c>
    20fe:	03 c0       	rjmp	.+6      	; 0x2106 <FindChild+0x98>

        //Not visible or name not right
        ExtEERead(child+L_BOILER, 2, GAME, &data[0]);
        child = (data[0]<<8|data[1]);    //Next object on child level
        
    } return 0;
    2100:	80 e0       	ldi	r24, 0x00	; 0
    2102:	90 e0       	ldi	r25, 0x00	; 0
    2104:	01 c0       	rjmp	.+2      	; 0x2108 <FindChild+0x9a>
    2106:	c8 01       	movw	r24, r16
}
    2108:	24 96       	adiw	r28, 0x04	; 4
    210a:	cd bf       	out	0x3d, r28	; 61
    210c:	de bf       	out	0x3e, r29	; 62
    210e:	df 91       	pop	r29
    2110:	cf 91       	pop	r28
    2112:	1f 91       	pop	r17
    2114:	0f 91       	pop	r16
    2116:	ff 90       	pop	r15
    2118:	ef 90       	pop	r14
    211a:	df 90       	pop	r13
    211c:	bf 90       	pop	r11
    211e:	af 90       	pop	r10
    2120:	08 95       	ret

00002122 <InpOkChk>:

//Allow only a(A) to z(Z) and 0 to 9 as input
uint8_t InpOkChk(uint8_t test){
    test |= 0x20;
    2122:	80 62       	ori	r24, 0x20	; 32
    if ((test>='a')&&(test<='z')) return 1;
    2124:	9f e9       	ldi	r25, 0x9F	; 159
    2126:	98 0f       	add	r25, r24
    2128:	9a 31       	cpi	r25, 0x1A	; 26
    212a:	38 f0       	brcs	.+14     	; 0x213a <InpOkChk+0x18>
    212c:	90 ed       	ldi	r25, 0xD0	; 208
    212e:	98 0f       	add	r25, r24
    2130:	81 e0       	ldi	r24, 0x01	; 1
    2132:	9a 30       	cpi	r25, 0x0A	; 10
    2134:	18 f0       	brcs	.+6      	; 0x213c <InpOkChk+0x1a>
    2136:	80 e0       	ldi	r24, 0x00	; 0
    2138:	08 95       	ret
    213a:	81 e0       	ldi	r24, 0x01	; 1
    if ((test>='0')&&(test<='9')) return 1;
    return 0;
}
    213c:	08 95       	ret

0000213e <CleanInput>:

//Cleans input of garbage and returns length of cleaned input "o->d2  !\0" becomes "od2\0"
uint8_t CleanInput(uint8_t *data){
    213e:	0f 93       	push	r16
    2140:	1f 93       	push	r17
    2142:	cf 93       	push	r28
    2144:	df 93       	push	r29
    2146:	8c 01       	movw	r16, r24
    uint8_t cnt = 0;
    for (uint8_t x=0; data[x]!=0; ++x){
    2148:	d0 e0       	ldi	r29, 0x00	; 0
    return 0;
}

//Cleans input of garbage and returns length of cleaned input "o->d2  !\0" becomes "od2\0"
uint8_t CleanInput(uint8_t *data){
    uint8_t cnt = 0;
    214a:	c0 e0       	ldi	r28, 0x00	; 0
    for (uint8_t x=0; data[x]!=0; ++x){
    214c:	f8 01       	movw	r30, r16
    214e:	ed 0f       	add	r30, r29
    2150:	f1 1d       	adc	r31, r1
    2152:	20 81       	ld	r18, Z
    2154:	8c 2f       	mov	r24, r28
    2156:	90 e0       	ldi	r25, 0x00	; 0
    2158:	22 23       	and	r18, r18
    215a:	51 f0       	breq	.+20     	; 0x2170 <CleanInput+0x32>
        data[cnt] = data[x];
    215c:	d8 01       	movw	r26, r16
    215e:	a8 0f       	add	r26, r24
    2160:	b9 1f       	adc	r27, r25
    2162:	2c 93       	st	X, r18
        if (InpOkChk(data[x])) ++cnt;
    2164:	80 81       	ld	r24, Z
    2166:	dd df       	rcall	.-70     	; 0x2122 <InpOkChk>
    2168:	81 11       	cpse	r24, r1
    216a:	cf 5f       	subi	r28, 0xFF	; 255
}

//Cleans input of garbage and returns length of cleaned input "o->d2  !\0" becomes "od2\0"
uint8_t CleanInput(uint8_t *data){
    uint8_t cnt = 0;
    for (uint8_t x=0; data[x]!=0; ++x){
    216c:	df 5f       	subi	r29, 0xFF	; 255
    216e:	ee cf       	rjmp	.-36     	; 0x214c <CleanInput+0xe>
        data[cnt] = data[x];
        if (InpOkChk(data[x])) ++cnt;
    }
    data[cnt] = 0;
    2170:	f8 01       	movw	r30, r16
    2172:	e8 0f       	add	r30, r24
    2174:	f9 1f       	adc	r31, r25
    2176:	10 82       	st	Z, r1
    return cnt;
}
    2178:	8c 2f       	mov	r24, r28
    217a:	df 91       	pop	r29
    217c:	cf 91       	pop	r28
    217e:	1f 91       	pop	r17
    2180:	0f 91       	pop	r16
    2182:	08 95       	ret

00002184 <CheckSend>:

//Send routine, optimized for low memory usage
uint8_t CheckSend(){
    2184:	cf 93       	push	r28
    static uint8_t txPart;
    uint8_t EEreadLength=0;

    //Play effects if available and not already playing
    if (effect == 0){
    2186:	80 91 36 38 	lds	r24, 0x3836	; 0x803836 <effect>
    218a:	90 91 37 38 	lds	r25, 0x3837	; 0x803837 <effect+0x1>
    218e:	89 2b       	or	r24, r25
    2190:	99 f4       	brne	.+38     	; 0x21b8 <CheckSend+0x34>
        effect = currObj.byteField[EFFECTS];
    2192:	80 91 19 3a 	lds	r24, 0x3A19	; 0x803a19 <currObj+0x4>
    2196:	90 e0       	ldi	r25, 0x00	; 0
    2198:	80 93 36 38 	sts	0x3836, r24	; 0x803836 <effect>
    219c:	90 93 37 38 	sts	0x3837, r25	; 0x803837 <effect+0x1>
        auStart = ((effect&0xE0)>0);
    21a0:	80 91 36 38 	lds	r24, 0x3836	; 0x803836 <effect>
    21a4:	90 91 37 38 	lds	r25, 0x3837	; 0x803837 <effect+0x1>
    21a8:	80 7e       	andi	r24, 0xE0	; 224
    21aa:	99 27       	eor	r25, r25
    21ac:	21 e0       	ldi	r18, 0x01	; 1
    21ae:	89 2b       	or	r24, r25
    21b0:	09 f4       	brne	.+2      	; 0x21b4 <CheckSend+0x30>
    21b2:	20 e0       	ldi	r18, 0x00	; 0
    21b4:	20 93 35 38 	sts	0x3835, r18	; 0x803835 <auStart>
    }

    //Check if more string(part)s have to be sent to the serial output if previous send operation is completed
    if ((txAddrNow < TXLISTLEN) && serTxDone){
    21b8:	20 91 41 3a 	lds	r18, 0x3A41	; 0x803a41 <txAddrNow>
    21bc:	28 30       	cpi	r18, 0x08	; 8
    21be:	08 f0       	brcs	.+2      	; 0x21c2 <CheckSend+0x3e>
    21c0:	48 c0       	rjmp	.+144    	; 0x2252 <CheckSend+0xce>
    21c2:	80 91 0a 38 	lds	r24, 0x380A	; 0x80380a <serTxDone>
    21c6:	88 23       	and	r24, r24
    21c8:	09 f4       	brne	.+2      	; 0x21cc <CheckSend+0x48>
    21ca:	43 c0       	rjmp	.+134    	; 0x2252 <CheckSend+0xce>
        if (txStrLen[txAddrNow] == 0){
    21cc:	82 2f       	mov	r24, r18
    21ce:	90 e0       	ldi	r25, 0x00	; 0
    21d0:	fc 01       	movw	r30, r24
    21d2:	ee 5b       	subi	r30, 0xBE	; 190
    21d4:	f5 4c       	sbci	r31, 0xC5	; 197
    21d6:	e0 81       	ld	r30, Z
    21d8:	e1 11       	cpse	r30, r1
    21da:	06 c0       	rjmp	.+12     	; 0x21e8 <CheckSend+0x64>
            txPart = 0;
    21dc:	10 92 00 39 	sts	0x3900, r1	; 0x803900 <txPart.3942>
            txAddrNow = TXLISTLEN;
    21e0:	88 e0       	ldi	r24, 0x08	; 8
    21e2:	80 93 41 3a 	sts	0x3A41, r24	; 0x803a41 <txAddrNow>
    21e6:	2d c0       	rjmp	.+90     	; 0x2242 <CheckSend+0xbe>
        } else if (txPart < txStrLen[txAddrNow]){
    21e8:	50 91 00 39 	lds	r21, 0x3900	; 0x803900 <txPart.3942>
    21ec:	5e 17       	cp	r21, r30
    21ee:	58 f5       	brcc	.+86     	; 0x2246 <CheckSend+0xc2>
            EEreadLength = txStrLen[txAddrNow]-txPart;
    21f0:	ce 2f       	mov	r28, r30
    21f2:	c5 1b       	sub	r28, r21
    21f4:	c1 32       	cpi	r28, 0x21	; 33
    21f6:	08 f0       	brcs	.+2      	; 0x21fa <CheckSend+0x76>
    21f8:	c0 e2       	ldi	r28, 0x20	; 32
            if (EEreadLength>=TXLEN) EEreadLength = TXLEN-1;
            ExtEERead(txAddrList[txAddrNow]+txPart, EEreadLength, txTypeNow, &txBuffer[0]);
    21fa:	88 0f       	add	r24, r24
    21fc:	99 1f       	adc	r25, r25
    21fe:	fc 01       	movw	r30, r24
    2200:	e6 5b       	subi	r30, 0xB6	; 182
    2202:	f5 4c       	sbci	r31, 0xC5	; 197
    2204:	80 81       	ld	r24, Z
    2206:	91 81       	ldd	r25, Z+1	; 0x01
    2208:	23 ef       	ldi	r18, 0xF3	; 243
    220a:	3a e3       	ldi	r19, 0x3A	; 58
    220c:	40 91 40 3a 	lds	r20, 0x3A40	; 0x803a40 <txTypeNow>
    2210:	6c 2f       	mov	r22, r28
    2212:	85 0f       	add	r24, r21
    2214:	91 1d       	adc	r25, r1
    2216:	55 dd       	rcall	.-1366   	; 0x1cc2 <ExtEERead>
            txPart += EEreadLength;
    2218:	80 91 00 39 	lds	r24, 0x3900	; 0x803900 <txPart.3942>
    221c:	8c 0f       	add	r24, r28
    221e:	80 93 00 39 	sts	0x3900, r24	; 0x803900 <txPart.3942>
            txBuffer[EEreadLength] = 0; //Add string terminator after piece to send to plug memory leak
    2222:	ec 2f       	mov	r30, r28
    2224:	f0 e0       	ldi	r31, 0x00	; 0
    2226:	ed 50       	subi	r30, 0x0D	; 13
    2228:	f5 4c       	sbci	r31, 0xC5	; 197
    222a:	10 82       	st	Z, r1
            if ((txBuffer[0] == 0) && (EEreadLength)) txBuffer[0] = 0xDB; //Block character when data wrong.
    222c:	80 91 f3 3a 	lds	r24, 0x3AF3	; 0x803af3 <txBuffer>
    2230:	81 11       	cpse	r24, r1
    2232:	03 c0       	rjmp	.+6      	; 0x223a <CheckSend+0xb6>
    2234:	8b ed       	ldi	r24, 0xDB	; 219
    2236:	80 93 f3 3a 	sts	0x3AF3, r24	; 0x803af3 <txBuffer>
            SerSend(&txBuffer[0]);
    223a:	83 ef       	ldi	r24, 0xF3	; 243
    223c:	9a e3       	ldi	r25, 0x3A	; 58
    223e:	0e 94 f5 08 	call	0x11ea	; 0x11ea <SerSend>
        } else {
            txPart = 0;
            ++txAddrNow;
        }
    } else if (serTxDone) return 0; //All is sent!
    return 1; //Still sending, do not change the data in the tx variables
    2242:	81 e0       	ldi	r24, 0x01	; 1
    2244:	0b c0       	rjmp	.+22     	; 0x225c <CheckSend+0xd8>
            txPart += EEreadLength;
            txBuffer[EEreadLength] = 0; //Add string terminator after piece to send to plug memory leak
            if ((txBuffer[0] == 0) && (EEreadLength)) txBuffer[0] = 0xDB; //Block character when data wrong.
            SerSend(&txBuffer[0]);
        } else {
            txPart = 0;
    2246:	10 92 00 39 	sts	0x3900, r1	; 0x803900 <txPart.3942>
            ++txAddrNow;
    224a:	2f 5f       	subi	r18, 0xFF	; 255
    224c:	20 93 41 3a 	sts	0x3A41, r18	; 0x803a41 <txAddrNow>
    2250:	f8 cf       	rjmp	.-16     	; 0x2242 <CheckSend+0xbe>
        }
    } else if (serTxDone) return 0; //All is sent!
    2252:	90 91 0a 38 	lds	r25, 0x380A	; 0x80380a <serTxDone>
    2256:	81 e0       	ldi	r24, 0x01	; 1
    2258:	91 11       	cpse	r25, r1
    225a:	80 e0       	ldi	r24, 0x00	; 0
    return 1; //Still sending, do not change the data in the tx variables
}
    225c:	cf 91       	pop	r28
    225e:	08 95       	ret

00002260 <CheckResponse>:

//Send another part of the response and play the effect afterwards
uint8_t CheckResponse(){
    2260:	cf 93       	push	r28
    2262:	df 93       	push	r29
    static uint8_t number = 0;
    if (responseList){
    2264:	c0 91 14 39 	lds	r28, 0x3914	; 0x803914 <responseList>
    2268:	cc 23       	and	r28, r28
    226a:	e9 f1       	breq	.+122    	; 0x22e6 <CheckResponse+0x86>
        --responseList;
    226c:	c1 50       	subi	r28, 0x01	; 1
    226e:	c0 93 14 39 	sts	0x3914, r28	; 0x803914 <responseList>
        if (reactStr[0][number] == CURR_LOC) {
    2272:	d0 91 ff 38 	lds	r29, 0x38FF	; 0x8038ff <number.3946>
    2276:	2d 2f       	mov	r18, r29
    2278:	30 e0       	ldi	r19, 0x00	; 0
    227a:	f9 01       	movw	r30, r18
    227c:	ee 0f       	add	r30, r30
    227e:	ff 1f       	adc	r31, r31
    2280:	eb 5e       	subi	r30, 0xEB	; 235
    2282:	f6 4c       	sbci	r31, 0xC6	; 198
    2284:	80 81       	ld	r24, Z
    2286:	91 81       	ldd	r25, Z+1	; 0x01
    2288:	80 3f       	cpi	r24, 0xF0	; 240
    228a:	4f ef       	ldi	r20, 0xFF	; 255
    228c:	94 07       	cpc	r25, r20
    228e:	51 f4       	brne	.+20     	; 0x22a4 <CheckResponse+0x44>
            PrepareSending(currObj.addrStr[NAME], currObj.lenStr[NAME], GAME);
    2290:	60 91 2f 3a 	lds	r22, 0x3A2F	; 0x803a2f <currObj+0x1a>
    2294:	70 91 30 3a 	lds	r23, 0x3A30	; 0x803a30 <currObj+0x1b>
    2298:	40 e0       	ldi	r20, 0x00	; 0
    229a:	80 91 21 3a 	lds	r24, 0x3A21	; 0x803a21 <currObj+0xc>
    229e:	90 91 22 3a 	lds	r25, 0x3A22	; 0x803a22 <currObj+0xd>
    22a2:	0d c0       	rjmp	.+26     	; 0x22be <CheckResponse+0x5e>
        } else {
            PrepareSending(reactStr[0][number], reactStr[1][number], reactStr[2][number]);
    22a4:	d9 01       	movw	r26, r18
    22a6:	aa 0f       	add	r26, r26
    22a8:	bb 1f       	adc	r27, r27
    22aa:	ab 56       	subi	r26, 0x6B	; 107
    22ac:	b6 4c       	sbci	r27, 0xC6	; 198
    22ae:	22 0f       	add	r18, r18
    22b0:	33 1f       	adc	r19, r19
    22b2:	f9 01       	movw	r30, r18
    22b4:	eb 5a       	subi	r30, 0xAB	; 171
    22b6:	f6 4c       	sbci	r31, 0xC6	; 198
    22b8:	60 81       	ld	r22, Z
    22ba:	71 81       	ldd	r23, Z+1	; 0x01
    22bc:	4c 91       	ld	r20, X
    22be:	58 dd       	rcall	.-1360   	; 0x1d70 <PrepareSending>
        }
        ++number;
    22c0:	df 5f       	subi	r29, 0xFF	; 255
    22c2:	d0 93 ff 38 	sts	0x38FF, r29	; 0x8038ff <number.3946>

        if (responseList == 0) {
    22c6:	c1 11       	cpse	r28, r1
    22c8:	0d c0       	rjmp	.+26     	; 0x22e4 <CheckResponse+0x84>
            effect = currObj.byteField[EFFECTS];
    22ca:	80 91 19 3a 	lds	r24, 0x3A19	; 0x803a19 <currObj+0x4>
    22ce:	90 e0       	ldi	r25, 0x00	; 0
    22d0:	80 93 36 38 	sts	0x3836, r24	; 0x803836 <effect>
    22d4:	90 93 37 38 	sts	0x3837, r25	; 0x803837 <effect+0x1>
            RXCNT = 0;
    22d8:	1d ba       	out	0x1d, r1	; 29
            serRxDone = 0;
    22da:	10 92 40 38 	sts	0x3840, r1	; 0x803840 <serRxDone>
            number = 0;
    22de:	10 92 ff 38 	sts	0x38FF, r1	; 0x8038ff <number.3946>
    22e2:	01 c0       	rjmp	.+2      	; 0x22e6 <CheckResponse+0x86>
            return 0;
        }
        return 1;
    22e4:	c1 e0       	ldi	r28, 0x01	; 1
    }
    return 0;
}
    22e6:	8c 2f       	mov	r24, r28
    22e8:	df 91       	pop	r29
    22ea:	cf 91       	pop	r28
    22ec:	08 95       	ret

000022ee <CheckInput>:

//User input check (and validation)
uint8_t CheckInput(uint8_t *data){
    22ee:	4f 92       	push	r4
    22f0:	5f 92       	push	r5
    22f2:	6f 92       	push	r6
    22f4:	7f 92       	push	r7
    22f6:	8f 92       	push	r8
    22f8:	9f 92       	push	r9
    22fa:	af 92       	push	r10
    22fc:	bf 92       	push	r11
    22fe:	cf 92       	push	r12
    2300:	df 92       	push	r13
    2302:	ef 92       	push	r14
    2304:	ff 92       	push	r15
    2306:	0f 93       	push	r16
    2308:	1f 93       	push	r17
    230a:	cf 93       	push	r28
    230c:	df 93       	push	r29
    230e:	cd b7       	in	r28, 0x3d	; 61
    2310:	de b7       	in	r29, 0x3e	; 62
    2312:	a1 97       	sbiw	r28, 0x21	; 33
    2314:	cd bf       	out	0x3d, r28	; 61
    2316:	de bf       	out	0x3e, r29	; 62
    2318:	8c 01       	movw	r16, r24
    
    //Load game data after reboot
    if (currDepth == 0xff) {
    231a:	80 91 29 38 	lds	r24, 0x3829	; 0x803829 <currDepth>
    231e:	8f 3f       	cpi	r24, 0xFF	; 255
    2320:	49 f4       	brne	.+18     	; 0x2334 <CheckInput+0x46>
        //Start at first location
        PopulateObject(route[0], &currObj);
    2322:	65 e1       	ldi	r22, 0x15	; 21
    2324:	7a e3       	ldi	r23, 0x3A	; 58
    2326:	80 91 d5 39 	lds	r24, 0x39D5	; 0x8039d5 <route>
    232a:	90 91 d6 39 	lds	r25, 0x39D6	; 0x8039d6 <route+0x1>
    232e:	d4 dd       	rcall	.-1112   	; 0x1ed8 <PopulateObject>
        currDepth = 0;
    2330:	10 92 29 38 	sts	0x3829, r1	; 0x803829 <currDepth>
    }

    if (serRxDone){
    2334:	80 91 40 38 	lds	r24, 0x3840	; 0x803840 <serRxDone>
    2338:	88 23       	and	r24, r24
    233a:	09 f4       	brne	.+2      	; 0x233e <CheckInput+0x50>
    233c:	63 c2       	rjmp	.+1222   	; 0x2804 <CheckInput+0x516>

        //Special input requested from user by game
        if (specialInput[0]){
    233e:	80 91 04 39 	lds	r24, 0x3904	; 0x803904 <specialInput>
    2342:	88 23       	and	r24, r24
    2344:	09 f4       	brne	.+2      	; 0x2348 <CheckInput+0x5a>
    2346:	57 c0       	rjmp	.+174    	; 0x23f6 <CheckInput+0x108>
            specialPassed = 0;
    2348:	10 92 03 39 	sts	0x3903, r1	; 0x803903 <specialPassed>
            data[0] = 'a';
    234c:	81 e6       	ldi	r24, 0x61	; 97
    234e:	f8 01       	movw	r30, r16
    2350:	80 83       	st	Z, r24
            
            //Normal code challenge
            if (StartsWith((uint8_t *)&serRx[0], &specialInput[0])) {
    2352:	64 e0       	ldi	r22, 0x04	; 4
    2354:	79 e3       	ldi	r23, 0x39	; 57
    2356:	8f e6       	ldi	r24, 0x6F	; 111
    2358:	9a e3       	ldi	r25, 0x3A	; 58
    235a:	f0 dc       	rcall	.-1568   	; 0x1d3c <StartsWith>
    235c:	f8 2e       	mov	r15, r24
    235e:	88 23       	and	r24, r24
    2360:	21 f0       	breq	.+8      	; 0x236a <CheckInput+0x7c>
                specialPassed = 1;
    2362:	81 e0       	ldi	r24, 0x01	; 1
    2364:	80 93 03 39 	sts	0x3903, r24	; 0x803903 <specialPassed>
    2368:	04 c0       	rjmp	.+8      	; 0x2372 <CheckInput+0x84>
                //specialInput[0] = 0;
                //data[1] = 0;

            //Special challenge 1
            } else if ((specialInput[0] == '1')&&(specialInput[2] == 0)) {
    236a:	80 91 04 39 	lds	r24, 0x3904	; 0x803904 <specialInput>
    236e:	81 33       	cpi	r24, 0x31	; 49
    2370:	11 f0       	breq	.+4      	; 0x2376 <CheckInput+0x88>
                responseList = 32;
                return 1;
            }
        } 
        //Data received, but not any of the commands above
        return 0;
    2372:	f1 2c       	mov	r15, r1
    2374:	49 c2       	rjmp	.+1170   	; 0x2808 <CheckInput+0x51a>
                specialPassed = 1;
                //specialInput[0] = 0;
                //data[1] = 0;

            //Special challenge 1
            } else if ((specialInput[0] == '1')&&(specialInput[2] == 0)) {
    2376:	80 91 06 39 	lds	r24, 0x3906	; 0x803906 <specialInput+0x2>
    237a:	81 11       	cpse	r24, r1
    237c:	fa cf       	rjmp	.-12     	; 0x2372 <CheckInput+0x84>
                uint8_t inputLen = CleanInput((uint8_t *)&serRx[0]);
    237e:	8f e6       	ldi	r24, 0x6F	; 111
    2380:	9a e3       	ldi	r25, 0x3A	; 58
    2382:	dd de       	rcall	.-582    	; 0x213e <CleanInput>
                specialPassed = 2;
    2384:	92 e0       	ldi	r25, 0x02	; 2
    2386:	90 93 03 39 	sts	0x3903, r25	; 0x803903 <specialPassed>
                data[1] = 0;
    238a:	f8 01       	movw	r30, r16
    238c:	11 82       	std	Z+1, r1	; 0x01

                if (inputLen >= 2) {
    238e:	82 30       	cpi	r24, 0x02	; 2
    2390:	80 f3       	brcs	.-32     	; 0x2372 <CheckInput+0x84>
                    if ((serRx[0] == '1')||(serRx[0] == '2')||(serRx[0] == '3')||(serRx[0] == '4')) {
    2392:	80 91 6f 3a 	lds	r24, 0x3A6F	; 0x803a6f <serRx>
    2396:	81 33       	cpi	r24, 0x31	; 49
    2398:	61 f0       	breq	.+24     	; 0x23b2 <CheckInput+0xc4>
    239a:	80 91 6f 3a 	lds	r24, 0x3A6F	; 0x803a6f <serRx>
    239e:	82 33       	cpi	r24, 0x32	; 50
    23a0:	41 f0       	breq	.+16     	; 0x23b2 <CheckInput+0xc4>
    23a2:	80 91 6f 3a 	lds	r24, 0x3A6F	; 0x803a6f <serRx>
    23a6:	83 33       	cpi	r24, 0x33	; 51
    23a8:	21 f0       	breq	.+8      	; 0x23b2 <CheckInput+0xc4>
    23aa:	80 91 6f 3a 	lds	r24, 0x3A6F	; 0x803a6f <serRx>
    23ae:	84 33       	cpi	r24, 0x34	; 52
    23b0:	01 f7       	brne	.-64     	; 0x2372 <CheckInput+0x84>
                        serRx[1] |= 0x20;
    23b2:	80 91 70 3a 	lds	r24, 0x3A70	; 0x803a70 <serRx+0x1>
    23b6:	80 62       	ori	r24, 0x20	; 32
    23b8:	80 93 70 3a 	sts	0x3A70, r24	; 0x803a70 <serRx+0x1>
                        if ((serRx[1] == 'a')||(serRx[1] == 'e')||(serRx[1] == 'f')||(serRx[1] == 'w')) {
    23bc:	80 91 70 3a 	lds	r24, 0x3A70	; 0x803a70 <serRx+0x1>
    23c0:	81 36       	cpi	r24, 0x61	; 97
    23c2:	61 f0       	breq	.+24     	; 0x23dc <CheckInput+0xee>
    23c4:	80 91 70 3a 	lds	r24, 0x3A70	; 0x803a70 <serRx+0x1>
    23c8:	85 36       	cpi	r24, 0x65	; 101
    23ca:	41 f0       	breq	.+16     	; 0x23dc <CheckInput+0xee>
    23cc:	80 91 70 3a 	lds	r24, 0x3A70	; 0x803a70 <serRx+0x1>
    23d0:	86 36       	cpi	r24, 0x66	; 102
    23d2:	21 f0       	breq	.+8      	; 0x23dc <CheckInput+0xee>
    23d4:	80 91 70 3a 	lds	r24, 0x3A70	; 0x803a70 <serRx+0x1>
    23d8:	87 37       	cpi	r24, 0x77	; 119
    23da:	59 f6       	brne	.-106    	; 0x2372 <CheckInput+0x84>
                            data[1] = specialInput[1]+0x11;
    23dc:	80 91 05 39 	lds	r24, 0x3905	; 0x803905 <specialInput+0x1>
    23e0:	8f 5e       	subi	r24, 0xEF	; 239
    23e2:	f8 01       	movw	r30, r16
    23e4:	81 83       	std	Z+1, r24	; 0x01
                            data[2] = serRx[0];
    23e6:	80 91 6f 3a 	lds	r24, 0x3A6F	; 0x803a6f <serRx>
    23ea:	82 83       	std	Z+2, r24	; 0x02
                            data[3] = serRx[1];
    23ec:	80 91 70 3a 	lds	r24, 0x3A70	; 0x803a70 <serRx+0x1>
    23f0:	83 83       	std	Z+3, r24	; 0x03
                            data[4] = 0;
    23f2:	14 82       	std	Z+4, r1	; 0x04
    23f4:	09 c2       	rjmp	.+1042   	; 0x2808 <CheckInput+0x51a>
        
        //Normal input
        } else {

            //Change status bit
            if ((serRx[0] == '#')&&(RXCNT == 6)){
    23f6:	80 91 6f 3a 	lds	r24, 0x3A6F	; 0x803a6f <serRx>
    23fa:	83 32       	cpi	r24, 0x23	; 35
    23fc:	81 f5       	brne	.+96     	; 0x245e <CheckInput+0x170>
    23fe:	8d b3       	in	r24, 0x1d	; 29
    2400:	86 30       	cpi	r24, 0x06	; 6
    2402:	69 f5       	brne	.+90     	; 0x245e <CheckInput+0x170>
    2404:	81 e0       	ldi	r24, 0x01	; 1
    2406:	90 e0       	ldi	r25, 0x00	; 0
    2408:	10 e0       	ldi	r17, 0x00	; 0
                uint8_t bitNr = 0;

                for (uint8_t x=1; x<4; ++x) {
                    serRx[x] -= '0';
    240a:	fc 01       	movw	r30, r24
    240c:	e1 59       	subi	r30, 0x91	; 145
    240e:	f5 4c       	sbci	r31, 0xC5	; 197
    2410:	20 81       	ld	r18, Z
    2412:	20 53       	subi	r18, 0x30	; 48
    2414:	20 83       	st	Z, r18
                    bitNr *= 10;
    2416:	11 0f       	add	r17, r17
    2418:	21 2f       	mov	r18, r17
    241a:	22 0f       	add	r18, r18
    241c:	22 0f       	add	r18, r18
    241e:	12 0f       	add	r17, r18
                    if (serRx[1] > 2) break;
    2420:	20 91 70 3a 	lds	r18, 0x3A70	; 0x803a70 <serRx+0x1>
    2424:	23 30       	cpi	r18, 0x03	; 3
    2426:	48 f4       	brcc	.+18     	; 0x243a <CheckInput+0x14c>
                    if (serRx[x] < 10) {
    2428:	20 81       	ld	r18, Z
    242a:	2a 30       	cpi	r18, 0x0A	; 10
    242c:	b0 f4       	brcc	.+44     	; 0x245a <CheckInput+0x16c>
                        bitNr += serRx[x];
    242e:	20 81       	ld	r18, Z
    2430:	12 0f       	add	r17, r18
    2432:	01 96       	adiw	r24, 0x01	; 1

            //Change status bit
            if ((serRx[0] == '#')&&(RXCNT == 6)){
                uint8_t bitNr = 0;

                for (uint8_t x=1; x<4; ++x) {
    2434:	84 30       	cpi	r24, 0x04	; 4
    2436:	91 05       	cpc	r25, r1
    2438:	41 f7       	brne	.-48     	; 0x240a <CheckInput+0x11c>
                        continue;
                    }
                    bitNr = 0;
                    break;
                }
                if ((bitNr)&&(bitNr!=128)) {
    243a:	81 2f       	mov	r24, r17
    243c:	8f 77       	andi	r24, 0x7F	; 127
    243e:	69 f0       	breq	.+26     	; 0x245a <CheckInput+0x16c>
                    if (Cheat(0xff-bitNr, serRx[4]<<8|serRx[5])) UpdateState(bitNr);
    2440:	80 91 73 3a 	lds	r24, 0x3A73	; 0x803a73 <serRx+0x4>
    2444:	60 91 74 3a 	lds	r22, 0x3A74	; 0x803a74 <serRx+0x5>
    2448:	70 e0       	ldi	r23, 0x00	; 0
    244a:	78 2b       	or	r23, r24
    244c:	81 2f       	mov	r24, r17
    244e:	80 95       	com	r24
    2450:	d5 db       	rcall	.-2134   	; 0x1bfc <Cheat>
    2452:	88 23       	and	r24, r24
    2454:	11 f0       	breq	.+4      	; 0x245a <CheckInput+0x16c>
    2456:	81 2f       	mov	r24, r17
    2458:	88 d8       	rcall	.-3824   	; 0x156a <UpdateState>
                }
                responseList = SetStandardResponse(0);
    245a:	80 e0       	ldi	r24, 0x00	; 0
    245c:	50 c0       	rjmp	.+160    	; 0x24fe <CheckInput+0x210>
    245e:	d8 01       	movw	r26, r16
    2460:	80 e0       	ldi	r24, 0x00	; 0
    2462:	90 e0       	ldi	r25, 0x00	; 0
                return 1;            
            }
            
            //Read up to the \0 character and convert to lower case.
            for (uint8_t x=0; x<RXLEN; ++x){
                if ((serRx[x]<'A')||(serRx[x]>'Z')) data[x]=serRx[x]; else data[x]=serRx[x]|0x20;
    2464:	fc 01       	movw	r30, r24
    2466:	e1 59       	subi	r30, 0x91	; 145
    2468:	f5 4c       	sbci	r31, 0xC5	; 197
    246a:	20 81       	ld	r18, Z
    246c:	21 34       	cpi	r18, 0x41	; 65
    246e:	18 f0       	brcs	.+6      	; 0x2476 <CheckInput+0x188>
    2470:	20 81       	ld	r18, Z
    2472:	2b 35       	cpi	r18, 0x5B	; 91
    2474:	10 f0       	brcs	.+4      	; 0x247a <CheckInput+0x18c>
    2476:	20 81       	ld	r18, Z
    2478:	02 c0       	rjmp	.+4      	; 0x247e <CheckInput+0x190>
    247a:	20 81       	ld	r18, Z
    247c:	20 62       	ori	r18, 0x20	; 32
    247e:	2c 93       	st	X, r18
                if (serRx[x] == 0) {
    2480:	20 81       	ld	r18, Z
    2482:	21 11       	cpse	r18, r1
    2484:	05 c0       	rjmp	.+10     	; 0x2490 <CheckInput+0x1a2>
                    data[x] = 0;
    2486:	f8 01       	movw	r30, r16
    2488:	e8 0f       	add	r30, r24
    248a:	f1 1d       	adc	r31, r1
    248c:	10 82       	st	Z, r1
                    break;
    248e:	05 c0       	rjmp	.+10     	; 0x249a <CheckInput+0x1ac>
    2490:	01 96       	adiw	r24, 0x01	; 1
    2492:	11 96       	adiw	r26, 0x01	; 1
                responseList = SetStandardResponse(0);
                return 1;            
            }
            
            //Read up to the \0 character and convert to lower case.
            for (uint8_t x=0; x<RXLEN; ++x){
    2494:	81 34       	cpi	r24, 0x41	; 65
    2496:	91 05       	cpc	r25, r1
    2498:	29 f7       	brne	.-54     	; 0x2464 <CheckInput+0x176>
                    break;
                }
            }

            //No text
            if (serRx[0] == 0){
    249a:	80 91 6f 3a 	lds	r24, 0x3A6F	; 0x803a6f <serRx>
                data[0] = 0;
    249e:	f8 01       	movw	r30, r16
                    break;
                }
            }

            //No text
            if (serRx[0] == 0){
    24a0:	81 11       	cpse	r24, r1
    24a2:	05 c0       	rjmp	.+10     	; 0x24ae <CheckInput+0x1c0>
                data[0] = 0;
    24a4:	10 82       	st	Z, r1
                RXCNT = 0;
    24a6:	1d ba       	out	0x1d, r1	; 29
                serRxDone = 0;
    24a8:	10 92 40 38 	sts	0x3840, r1	; 0x803840 <serRxDone>
    24ac:	ab c1       	rjmp	.+854    	; 0x2804 <CheckInput+0x516>
                return 1;
            }

            //Help text
            if ((data[0] == '?')||(data[0] == 'h')){
    24ae:	80 81       	ld	r24, Z
    24b0:	8f 33       	cpi	r24, 0x3F	; 63
    24b2:	11 f0       	breq	.+4      	; 0x24b8 <CheckInput+0x1ca>
    24b4:	88 36       	cpi	r24, 0x68	; 104
    24b6:	39 f5       	brne	.+78     	; 0x2506 <CheckInput+0x218>
    return 0;
}

//
void SetResponse(uint8_t number, uint16_t address, uint16_t length, uint8_t type){
    reactStr[0][number]=address;
    24b8:	8b e5       	ldi	r24, 0x5B	; 91
    24ba:	9a e7       	ldi	r25, 0x7A	; 122
    24bc:	80 93 15 39 	sts	0x3915, r24	; 0x803915 <reactStr>
    24c0:	90 93 16 39 	sts	0x3916, r25	; 0x803916 <reactStr+0x1>
    reactStr[1][number]=length;
    24c4:	84 e0       	ldi	r24, 0x04	; 4
    24c6:	90 e0       	ldi	r25, 0x00	; 0
    24c8:	80 93 55 39 	sts	0x3955, r24	; 0x803955 <reactStr+0x40>
    24cc:	90 93 56 39 	sts	0x3956, r25	; 0x803956 <reactStr+0x41>
    reactStr[2][number]=type;
    24d0:	81 e0       	ldi	r24, 0x01	; 1
    24d2:	90 e0       	ldi	r25, 0x00	; 0
    24d4:	80 93 95 39 	sts	0x3995, r24	; 0x803995 <reactStr+0x80>
    24d8:	90 93 96 39 	sts	0x3996, r25	; 0x803996 <reactStr+0x81>
    return 0;
}

//
void SetResponse(uint8_t number, uint16_t address, uint16_t length, uint8_t type){
    reactStr[0][number]=address;
    24dc:	23 e9       	ldi	r18, 0x93	; 147
    24de:	3b e7       	ldi	r19, 0x7B	; 123
    24e0:	20 93 17 39 	sts	0x3917, r18	; 0x803917 <reactStr+0x2>
    24e4:	30 93 18 39 	sts	0x3918, r19	; 0x803918 <reactStr+0x3>
    reactStr[1][number]=length;
    24e8:	2d e6       	ldi	r18, 0x6D	; 109
    24ea:	34 e0       	ldi	r19, 0x04	; 4
    24ec:	20 93 57 39 	sts	0x3957, r18	; 0x803957 <reactStr+0x42>
    24f0:	30 93 58 39 	sts	0x3958, r19	; 0x803958 <reactStr+0x43>
    reactStr[2][number]=type;
    24f4:	80 93 97 39 	sts	0x3997, r24	; 0x803997 <reactStr+0x82>
    24f8:	90 93 98 39 	sts	0x3998, r25	; 0x803998 <reactStr+0x83>

            //Help text
            if ((data[0] == '?')||(data[0] == 'h')){
                SetResponse(0, A_LF, 4, TEASER);
                SetResponse(1, A_HELP, L_HELP, TEASER);
                responseList = SetStandardResponse(2);
    24fc:	82 e0       	ldi	r24, 0x02	; 2
    24fe:	70 dc       	rcall	.-1824   	; 0x1de0 <SetStandardResponse>
    2500:	80 93 14 39 	sts	0x3914, r24	; 0x803914 <responseList>
    2504:	7f c1       	rjmp	.+766    	; 0x2804 <CheckInput+0x516>
                return 1;
            }        
        
            //Alphabet text
            if (data[0] == 'a'){
    2506:	81 36       	cpi	r24, 0x61	; 97
    2508:	d9 f4       	brne	.+54     	; 0x2540 <CheckInput+0x252>
    return 0;
}

//
void SetResponse(uint8_t number, uint16_t address, uint16_t length, uint8_t type){
    reactStr[0][number]=address;
    250a:	8b e5       	ldi	r24, 0x5B	; 91
    250c:	9a e7       	ldi	r25, 0x7A	; 122
    250e:	80 93 15 39 	sts	0x3915, r24	; 0x803915 <reactStr>
    2512:	90 93 16 39 	sts	0x3916, r25	; 0x803916 <reactStr+0x1>
    reactStr[1][number]=length;
    2516:	84 e0       	ldi	r24, 0x04	; 4
    2518:	90 e0       	ldi	r25, 0x00	; 0
    251a:	80 93 55 39 	sts	0x3955, r24	; 0x803955 <reactStr+0x40>
    251e:	90 93 56 39 	sts	0x3956, r25	; 0x803956 <reactStr+0x41>
    reactStr[2][number]=type;
    2522:	81 e0       	ldi	r24, 0x01	; 1
    2524:	90 e0       	ldi	r25, 0x00	; 0
    2526:	80 93 95 39 	sts	0x3995, r24	; 0x803995 <reactStr+0x80>
    252a:	90 93 96 39 	sts	0x3996, r25	; 0x803996 <reactStr+0x81>
    return 0;
}

//
void SetResponse(uint8_t number, uint16_t address, uint16_t length, uint8_t type){
    reactStr[0][number]=address;
    252e:	2e e6       	ldi	r18, 0x6E	; 110
    2530:	3a e7       	ldi	r19, 0x7A	; 122
    2532:	20 93 17 39 	sts	0x3917, r18	; 0x803917 <reactStr+0x2>
    2536:	30 93 18 39 	sts	0x3918, r19	; 0x803918 <reactStr+0x3>
    reactStr[1][number]=length;
    253a:	25 e2       	ldi	r18, 0x25	; 37
    253c:	31 e0       	ldi	r19, 0x01	; 1
    253e:	d6 cf       	rjmp	.-84     	; 0x24ec <CheckInput+0x1fe>
                responseList = SetStandardResponse(2);
                return 1;
            }

            //Whoami text
            if (data[0] == 'w'){
    2540:	87 37       	cpi	r24, 0x77	; 119
    2542:	09 f0       	breq	.+2      	; 0x2546 <CheckInput+0x258>
    2544:	6e c0       	rjmp	.+220    	; 0x2622 <CheckInput+0x334>
    return 0;
}

//
void SetResponse(uint8_t number, uint16_t address, uint16_t length, uint8_t type){
    reactStr[0][number]=address;
    2546:	8b e5       	ldi	r24, 0x5B	; 91
    2548:	9a e7       	ldi	r25, 0x7A	; 122
    254a:	80 93 15 39 	sts	0x3915, r24	; 0x803915 <reactStr>
    254e:	90 93 16 39 	sts	0x3916, r25	; 0x803916 <reactStr+0x1>
    reactStr[1][number]=length;
    2552:	84 e0       	ldi	r24, 0x04	; 4
    2554:	90 e0       	ldi	r25, 0x00	; 0
    2556:	80 93 55 39 	sts	0x3955, r24	; 0x803955 <reactStr+0x40>
    255a:	90 93 56 39 	sts	0x3956, r25	; 0x803956 <reactStr+0x41>
    reactStr[2][number]=type;
    255e:	21 e0       	ldi	r18, 0x01	; 1
    2560:	30 e0       	ldi	r19, 0x00	; 0
    2562:	20 93 95 39 	sts	0x3995, r18	; 0x803995 <reactStr+0x80>
    2566:	30 93 96 39 	sts	0x3996, r19	; 0x803996 <reactStr+0x81>
    return 0;
}

//
void SetResponse(uint8_t number, uint16_t address, uint16_t length, uint8_t type){
    reactStr[0][number]=address;
    256a:	8b ec       	ldi	r24, 0xCB	; 203
    256c:	96 e7       	ldi	r25, 0x76	; 118
    256e:	80 93 17 39 	sts	0x3917, r24	; 0x803917 <reactStr+0x2>
    2572:	90 93 18 39 	sts	0x3918, r25	; 0x803918 <reactStr+0x3>
    reactStr[1][number]=length;
    2576:	82 e1       	ldi	r24, 0x12	; 18
    2578:	90 e0       	ldi	r25, 0x00	; 0
    257a:	80 93 57 39 	sts	0x3957, r24	; 0x803957 <reactStr+0x42>
    257e:	90 93 58 39 	sts	0x3958, r25	; 0x803958 <reactStr+0x43>
    reactStr[2][number]=type;
    2582:	20 93 97 39 	sts	0x3997, r18	; 0x803997 <reactStr+0x82>
    2586:	30 93 98 39 	sts	0x3998, r19	; 0x803998 <reactStr+0x83>

            //Whoami text
            if (data[0] == 'w'){
                SetResponse(0, A_LF, 4, TEASER);
                SetResponse(1, A_HELLO, L_HELLO, TEASER);
                if (whoami == 1) {
    258a:	80 91 39 38 	lds	r24, 0x3839	; 0x803839 <whoami>
    258e:	81 30       	cpi	r24, 0x01	; 1
    2590:	19 f4       	brne	.+6      	; 0x2598 <CheckInput+0x2aa>
    return 0;
}

//
void SetResponse(uint8_t number, uint16_t address, uint16_t length, uint8_t type){
    reactStr[0][number]=address;
    2592:	85 ec       	ldi	r24, 0xC5	; 197
    2594:	96 e7       	ldi	r25, 0x76	; 118
    2596:	0f c0       	rjmp	.+30     	; 0x25b6 <CheckInput+0x2c8>
            if (data[0] == 'w'){
                SetResponse(0, A_LF, 4, TEASER);
                SetResponse(1, A_HELLO, L_HELLO, TEASER);
                if (whoami == 1) {
                    SetResponse(2, A_ANUBIS, L_ANUBIS, TEASER);
                } else if (whoami == 2) {
    2598:	82 30       	cpi	r24, 0x02	; 2
    259a:	49 f4       	brne	.+18     	; 0x25ae <CheckInput+0x2c0>
    return 0;
}

//
void SetResponse(uint8_t number, uint16_t address, uint16_t length, uint8_t type){
    reactStr[0][number]=address;
    259c:	82 ec       	ldi	r24, 0xC2	; 194
    259e:	96 e7       	ldi	r25, 0x76	; 118
    25a0:	80 93 19 39 	sts	0x3919, r24	; 0x803919 <reactStr+0x4>
    25a4:	90 93 1a 39 	sts	0x391A, r25	; 0x80391a <reactStr+0x5>
    reactStr[1][number]=length;
    25a8:	83 e0       	ldi	r24, 0x03	; 3
    25aa:	90 e0       	ldi	r25, 0x00	; 0
    25ac:	1e c0       	rjmp	.+60     	; 0x25ea <CheckInput+0x2fc>
                SetResponse(1, A_HELLO, L_HELLO, TEASER);
                if (whoami == 1) {
                    SetResponse(2, A_ANUBIS, L_ANUBIS, TEASER);
                } else if (whoami == 2) {
                    SetResponse(2, A_BES, L_BES, TEASER);
                } else if (whoami == 3) {
    25ae:	83 30       	cpi	r24, 0x03	; 3
    25b0:	49 f4       	brne	.+18     	; 0x25c4 <CheckInput+0x2d6>
    return 0;
}

//
void SetResponse(uint8_t number, uint16_t address, uint16_t length, uint8_t type){
    reactStr[0][number]=address;
    25b2:	8c eb       	ldi	r24, 0xBC	; 188
    25b4:	96 e7       	ldi	r25, 0x76	; 118
    25b6:	80 93 19 39 	sts	0x3919, r24	; 0x803919 <reactStr+0x4>
    25ba:	90 93 1a 39 	sts	0x391A, r25	; 0x80391a <reactStr+0x5>
    reactStr[1][number]=length;
    25be:	86 e0       	ldi	r24, 0x06	; 6
    25c0:	90 e0       	ldi	r25, 0x00	; 0
    25c2:	13 c0       	rjmp	.+38     	; 0x25ea <CheckInput+0x2fc>
                    SetResponse(2, A_ANUBIS, L_ANUBIS, TEASER);
                } else if (whoami == 2) {
                    SetResponse(2, A_BES, L_BES, TEASER);
                } else if (whoami == 3) {
                    SetResponse(2, A_KHONSU, L_KHONSU, TEASER);
                } else if (whoami == 4) {
    25c4:	84 30       	cpi	r24, 0x04	; 4
    25c6:	49 f4       	brne	.+18     	; 0x25da <CheckInput+0x2ec>
    return 0;
}

//
void SetResponse(uint8_t number, uint16_t address, uint16_t length, uint8_t type){
    reactStr[0][number]=address;
    25c8:	87 eb       	ldi	r24, 0xB7	; 183
    25ca:	96 e7       	ldi	r25, 0x76	; 118
    25cc:	80 93 19 39 	sts	0x3919, r24	; 0x803919 <reactStr+0x4>
    25d0:	90 93 1a 39 	sts	0x391A, r25	; 0x80391a <reactStr+0x5>
    reactStr[1][number]=length;
    25d4:	85 e0       	ldi	r24, 0x05	; 5
    25d6:	90 e0       	ldi	r25, 0x00	; 0
    25d8:	08 c0       	rjmp	.+16     	; 0x25ea <CheckInput+0x2fc>
    return 0;
}

//
void SetResponse(uint8_t number, uint16_t address, uint16_t length, uint8_t type){
    reactStr[0][number]=address;
    25da:	80 e4       	ldi	r24, 0x40	; 64
    25dc:	96 e7       	ldi	r25, 0x76	; 118
    25de:	80 93 19 39 	sts	0x3919, r24	; 0x803919 <reactStr+0x4>
    25e2:	90 93 1a 39 	sts	0x391A, r25	; 0x80391a <reactStr+0x5>
    reactStr[1][number]=length;
    25e6:	82 e4       	ldi	r24, 0x42	; 66
    25e8:	90 e0       	ldi	r25, 0x00	; 0
    25ea:	80 93 59 39 	sts	0x3959, r24	; 0x803959 <reactStr+0x44>
    25ee:	90 93 5a 39 	sts	0x395A, r25	; 0x80395a <reactStr+0x45>
    reactStr[2][number]=type;
    25f2:	20 93 99 39 	sts	0x3999, r18	; 0x803999 <reactStr+0x84>
    25f6:	30 93 9a 39 	sts	0x399A, r19	; 0x80399a <reactStr+0x85>
    return 0;
}

//
void SetResponse(uint8_t number, uint16_t address, uint16_t length, uint8_t type){
    reactStr[0][number]=address;
    25fa:	8d e9       	ldi	r24, 0x9D	; 157
    25fc:	96 e7       	ldi	r25, 0x76	; 118
    25fe:	80 93 1b 39 	sts	0x391B, r24	; 0x80391b <reactStr+0x6>
    2602:	90 93 1c 39 	sts	0x391C, r25	; 0x80391c <reactStr+0x7>
    reactStr[1][number]=length;
    2606:	8a e1       	ldi	r24, 0x1A	; 26
    2608:	90 e0       	ldi	r25, 0x00	; 0
    260a:	80 93 5b 39 	sts	0x395B, r24	; 0x80395b <reactStr+0x46>
    260e:	90 93 5c 39 	sts	0x395C, r25	; 0x80395c <reactStr+0x47>
    reactStr[2][number]=type;
    2612:	81 e0       	ldi	r24, 0x01	; 1
    2614:	90 e0       	ldi	r25, 0x00	; 0
    2616:	80 93 9b 39 	sts	0x399B, r24	; 0x80399b <reactStr+0x86>
    261a:	90 93 9c 39 	sts	0x399C, r25	; 0x80399c <reactStr+0x87>
                    SetResponse(2, A_THOTH, L_THOTH, TEASER);
                } else {
                    SetResponse(2, A_ERROR, L_ERROR, TEASER);
                }
                SetResponse(3, A_PLEASED, L_PLEASED, TEASER);
                responseList = SetStandardResponse(4);
    261e:	84 e0       	ldi	r24, 0x04	; 4
    2620:	6e cf       	rjmp	.-292    	; 0x24fe <CheckInput+0x210>
                return 1;
            }

            //Quit text
            if (data[0] == 'q'){
    2622:	81 37       	cpi	r24, 0x71	; 113
    2624:	d9 f4       	brne	.+54     	; 0x265c <CheckInput+0x36e>
    return 0;
}

//
void SetResponse(uint8_t number, uint16_t address, uint16_t length, uint8_t type){
    reactStr[0][number]=address;
    2626:	8b e5       	ldi	r24, 0x5B	; 91
    2628:	9a e7       	ldi	r25, 0x7A	; 122
    262a:	80 93 15 39 	sts	0x3915, r24	; 0x803915 <reactStr>
    262e:	90 93 16 39 	sts	0x3916, r25	; 0x803916 <reactStr+0x1>
    reactStr[1][number]=length;
    2632:	84 e0       	ldi	r24, 0x04	; 4
    2634:	90 e0       	ldi	r25, 0x00	; 0
    2636:	80 93 55 39 	sts	0x3955, r24	; 0x803955 <reactStr+0x40>
    263a:	90 93 56 39 	sts	0x3956, r25	; 0x803956 <reactStr+0x41>
    reactStr[2][number]=type;
    263e:	81 e0       	ldi	r24, 0x01	; 1
    2640:	90 e0       	ldi	r25, 0x00	; 0
    2642:	80 93 95 39 	sts	0x3995, r24	; 0x803995 <reactStr+0x80>
    2646:	90 93 96 39 	sts	0x3996, r25	; 0x803996 <reactStr+0x81>
    return 0;
}

//
void SetResponse(uint8_t number, uint16_t address, uint16_t length, uint8_t type){
    reactStr[0][number]=address;
    264a:	23 e0       	ldi	r18, 0x03	; 3
    264c:	3a e7       	ldi	r19, 0x7A	; 122
    264e:	20 93 17 39 	sts	0x3917, r18	; 0x803917 <reactStr+0x2>
    2652:	30 93 18 39 	sts	0x3918, r19	; 0x803918 <reactStr+0x3>
    reactStr[1][number]=length;
    2656:	24 e5       	ldi	r18, 0x54	; 84
    2658:	30 e0       	ldi	r19, 0x00	; 0
                responseList = SetStandardResponse(2);
                return 1;
            }

            //Fake cheat = reset badge!
            if (StartsWith(&data[0], "iddqd")){
    265a:	48 cf       	rjmp	.-368    	; 0x24ec <CheckInput+0x1fe>
    265c:	62 ec       	ldi	r22, 0xC2	; 194
    265e:	7c eb       	ldi	r23, 0xBC	; 188
    2660:	c8 01       	movw	r24, r16
    2662:	6c db       	rcall	.-2344   	; 0x1d3c <StartsWith>
    2664:	88 23       	and	r24, r24
    2666:	f9 f0       	breq	.+62     	; 0x26a6 <CheckInput+0x3b8>
    2668:	1e e6       	ldi	r17, 0x6E	; 110
            
                //Reset game data by wiping the UUID bits
                for (uint8_t x=0; x<4; ++x){
                    WriteStatusBit(110+x, 0);
    266a:	60 e0       	ldi	r22, 0x00	; 0
    266c:	81 2f       	mov	r24, r17
    266e:	0e 94 9b 0a 	call	0x1536	; 0x1536 <WriteStatusBit>
    2672:	1f 5f       	subi	r17, 0xFF	; 255

            //Fake cheat = reset badge!
            if (StartsWith(&data[0], "iddqd")){
            
                //Reset game data by wiping the UUID bits
                for (uint8_t x=0; x<4; ++x){
    2674:	12 37       	cpi	r17, 0x72	; 114
    2676:	c9 f7       	brne	.-14     	; 0x266a <CheckInput+0x37c>
                    WriteStatusBit(110+x, 0);
                }
                SaveGameState();
    2678:	0e 94 14 0a 	call	0x1428	; 0x1428 <SaveGameState>

                uint8_t cheat[] = "Cheater! Contact badge team... ";
    267c:	80 e2       	ldi	r24, 0x20	; 32
    267e:	e5 e0       	ldi	r30, 0x05	; 5
    2680:	fd eb       	ldi	r31, 0xBD	; 189
    2682:	de 01       	movw	r26, r28
    2684:	11 96       	adiw	r26, 0x01	; 1
    2686:	01 90       	ld	r0, Z+
    2688:	0d 92       	st	X+, r0
    268a:	8a 95       	dec	r24
    268c:	e1 f7       	brne	.-8      	; 0x2686 <CheckInput+0x398>
                SerSpeed(60);
    268e:	8c e3       	ldi	r24, 0x3C	; 60
    2690:	0e 94 06 09 	call	0x120c	; 0x120c <SerSpeed>
                while(1){
                    if (serTxDone) SerSend(&cheat[0]);
    2694:	80 91 0a 38 	lds	r24, 0x380A	; 0x80380a <serTxDone>
    2698:	88 23       	and	r24, r24
    269a:	e1 f3       	breq	.-8      	; 0x2694 <CheckInput+0x3a6>
    269c:	ce 01       	movw	r24, r28
    269e:	01 96       	adiw	r24, 0x01	; 1
    26a0:	0e 94 f5 08 	call	0x11ea	; 0x11ea <SerSend>
                }
            }
            
            //Cheat reset (Quote from: Donald E. Westlake)
            if (StartsWith(&data[0], "the trouble with real life is, there's no reset button")){
    26a4:	f7 cf       	rjmp	.-18     	; 0x2694 <CheckInput+0x3a6>
    26a6:	68 ec       	ldi	r22, 0xC8	; 200
    26a8:	7c eb       	ldi	r23, 0xBC	; 188
    26aa:	c8 01       	movw	r24, r16
    26ac:	47 db       	rcall	.-2418   	; 0x1d3c <StartsWith>
    26ae:	68 2e       	mov	r6, r24
    26b0:	88 23       	and	r24, r24
    26b2:	61 f1       	breq	.+88     	; 0x270c <CheckInput+0x41e>
                
                //Reset cheat data by resetting the EEPROM bytes
                uint8_t empty=0xff;
    26b4:	8f ef       	ldi	r24, 0xFF	; 255
    26b6:	89 a3       	std	Y+33, r24	; 0x21
    26b8:	18 e1       	ldi	r17, 0x18	; 24
                for (uint8_t x=0; x<MAX_CHEATS; ++x){
                    EEWrite(CHEATS+x, &empty, 1);
    26ba:	41 e0       	ldi	r20, 0x01	; 1
    26bc:	be 01       	movw	r22, r28
    26be:	6f 5d       	subi	r22, 0xDF	; 223
    26c0:	7f 4f       	sbci	r23, 0xFF	; 255
    26c2:	81 2f       	mov	r24, r17
    26c4:	0e 94 cd 08 	call	0x119a	; 0x119a <EEWrite>
    26c8:	1f 5f       	subi	r17, 0xFF	; 255
            //Cheat reset (Quote from: Donald E. Westlake)
            if (StartsWith(&data[0], "the trouble with real life is, there's no reset button")){
                
                //Reset cheat data by resetting the EEPROM bytes
                uint8_t empty=0xff;
                for (uint8_t x=0; x<MAX_CHEATS; ++x){
    26ca:	10 32       	cpi	r17, 0x20	; 32
    26cc:	b1 f7       	brne	.-20     	; 0x26ba <CheckInput+0x3cc>
    26ce:	1e e6       	ldi	r17, 0x6E	; 110
                    EEWrite(CHEATS+x, &empty, 1);
                }
                //Reset game data by wiping the UUID bits
                for (uint8_t x=0; x<4; ++x){
                    WriteStatusBit(110+x, 0);
    26d0:	60 e0       	ldi	r22, 0x00	; 0
    26d2:	81 2f       	mov	r24, r17
    26d4:	0e 94 9b 0a 	call	0x1536	; 0x1536 <WriteStatusBit>
    26d8:	1f 5f       	subi	r17, 0xFF	; 255
                uint8_t empty=0xff;
                for (uint8_t x=0; x<MAX_CHEATS; ++x){
                    EEWrite(CHEATS+x, &empty, 1);
                }
                //Reset game data by wiping the UUID bits
                for (uint8_t x=0; x<4; ++x){
    26da:	12 37       	cpi	r17, 0x72	; 114
    26dc:	c9 f7       	brne	.-14     	; 0x26d0 <CheckInput+0x3e2>
                    WriteStatusBit(110+x, 0);
                }
                
                SaveGameState();
    26de:	0e 94 14 0a 	call	0x1428	; 0x1428 <SaveGameState>

                uint8_t cheat[] = "Reset please! ";
    26e2:	8f e0       	ldi	r24, 0x0F	; 15
    26e4:	e5 e2       	ldi	r30, 0x25	; 37
    26e6:	fd eb       	ldi	r31, 0xBD	; 189
    26e8:	de 01       	movw	r26, r28
    26ea:	11 96       	adiw	r26, 0x01	; 1
    26ec:	01 90       	ld	r0, Z+
    26ee:	0d 92       	st	X+, r0
    26f0:	8a 95       	dec	r24
    26f2:	e1 f7       	brne	.-8      	; 0x26ec <CheckInput+0x3fe>
                SerSpeed(60);
    26f4:	8c e3       	ldi	r24, 0x3C	; 60
    26f6:	0e 94 06 09 	call	0x120c	; 0x120c <SerSpeed>
                while(1){
                    if (serTxDone) SerSend(&cheat[0]);
    26fa:	80 91 0a 38 	lds	r24, 0x380A	; 0x80380a <serTxDone>
    26fe:	88 23       	and	r24, r24
    2700:	e1 f3       	breq	.-8      	; 0x26fa <CheckInput+0x40c>
    2702:	ce 01       	movw	r24, r28
    2704:	01 96       	adiw	r24, 0x01	; 1
    2706:	0e 94 f5 08 	call	0x11ea	; 0x11ea <SerSend>
                }
            }
            if (StartsWith(&data[0], "cheat")){
    270a:	f7 cf       	rjmp	.-18     	; 0x26fa <CheckInput+0x40c>
    270c:	6f ef       	ldi	r22, 0xFF	; 255
    270e:	7c eb       	ldi	r23, 0xBC	; 188
    2710:	c8 01       	movw	r24, r16
    2712:	14 db       	rcall	.-2520   	; 0x1d3c <StartsWith>
    2714:	88 23       	and	r24, r24
    2716:	09 f4       	brne	.+2      	; 0x271a <CheckInput+0x42c>
    2718:	2c ce       	rjmp	.-936    	; 0x2372 <CheckInput+0x84>
    271a:	05 e1       	ldi	r16, 0x15	; 21
    271c:	19 e3       	ldi	r17, 0x39	; 57
    271e:	78 e1       	ldi	r23, 0x18	; 24
    2720:	77 2e       	mov	r7, r23
                    
                    //Set up sending out number
                    EERead(CHEATS+x, &bit, 1);
                    bit = 0xff-bit;
                    for (n=2; n>=0; --n) {
                        digit[n] = bit % 10;
    2722:	ea e0       	ldi	r30, 0x0A	; 10
    2724:	5e 2e       	mov	r5, r30
                        bit /= 10;
    2726:	f4 e6       	ldi	r31, 0x64	; 100
    2728:	4f 2e       	mov	r4, r31
}

//
void SetResponse(uint8_t number, uint16_t address, uint16_t length, uint8_t type){
    reactStr[0][number]=address;
    reactStr[1][number]=length;
    272a:	ee 24       	eor	r14, r14
    272c:	e3 94       	inc	r14
    272e:	f1 2c       	mov	r15, r1
    2730:	cc 24       	eor	r12, r12
    2732:	c3 94       	inc	r12
    2734:	d1 2c       	mov	r13, r1
    return 0;
}

//
void SetResponse(uint8_t number, uint16_t address, uint16_t length, uint8_t type){
    reactStr[0][number]=address;
    2736:	89 e5       	ldi	r24, 0x59	; 89
    2738:	88 2e       	mov	r8, r24
    273a:	8a e7       	ldi	r24, 0x7A	; 122
    273c:	98 2e       	mov	r9, r24
    reactStr[1][number]=length;
    273e:	92 e0       	ldi	r25, 0x02	; 2
    2740:	a9 2e       	mov	r10, r25
    2742:	b1 2c       	mov	r11, r1
                uint8_t bit, digit[3];

                for (uint8_t x=0; x<MAX_CHEATS; ++x){
                    
                    //Set up sending out number
                    EERead(CHEATS+x, &bit, 1);
    2744:	41 e0       	ldi	r20, 0x01	; 1
    2746:	be 01       	movw	r22, r28
    2748:	6f 5d       	subi	r22, 0xDF	; 223
    274a:	7f 4f       	sbci	r23, 0xFF	; 255
    274c:	87 2d       	mov	r24, r7
    274e:	0e 94 bd 08 	call	0x117a	; 0x117a <EERead>
                    bit = 0xff-bit;
    2752:	29 a1       	ldd	r18, Y+33	; 0x21
    2754:	20 95       	com	r18
                    for (n=2; n>=0; --n) {
                        digit[n] = bit % 10;
    2756:	82 2f       	mov	r24, r18
    2758:	65 2d       	mov	r22, r5
    275a:	0e 94 da 1d 	call	0x3bb4	; 0x3bb4 <__udivmodqi4>
    275e:	9b 83       	std	Y+3, r25	; 0x03
    2760:	0e 94 da 1d 	call	0x3bb4	; 0x3bb4 <__udivmodqi4>
    2764:	9a 83       	std	Y+2, r25	; 0x02
                        bit /= 10;
    2766:	82 2f       	mov	r24, r18
    2768:	64 2d       	mov	r22, r4
    276a:	0e 94 da 1d 	call	0x3bb4	; 0x3bb4 <__udivmodqi4>
                    
                    //Set up sending out number
                    EERead(CHEATS+x, &bit, 1);
                    bit = 0xff-bit;
                    for (n=2; n>=0; --n) {
                        digit[n] = bit % 10;
    276e:	89 83       	std	Y+1, r24	; 0x01
    2770:	19 a2       	std	Y+33, r1	; 0x21
    2772:	de 01       	movw	r26, r28
    2774:	11 96       	adiw	r26, 0x01	; 1
    2776:	40 e0       	ldi	r20, 0x00	; 0
                        bit /= 10;
                    }

                    for (n=0; n<3; ++n) {
                        SetResponse(x*4+n, A_DIGITS+digit[n], 1, TEASER);
    2778:	2d 91       	ld	r18, X+
    return 0;
}

//
void SetResponse(uint8_t number, uint16_t address, uint16_t length, uint8_t type){
    reactStr[0][number]=address;
    277a:	86 2d       	mov	r24, r6
    277c:	84 0f       	add	r24, r20
    277e:	90 e0       	ldi	r25, 0x00	; 0
    2780:	fc 01       	movw	r30, r24
    2782:	ee 0f       	add	r30, r30
    2784:	ff 1f       	adc	r31, r31
    2786:	eb 5e       	subi	r30, 0xEB	; 235
    2788:	f6 4c       	sbci	r31, 0xC6	; 198
    278a:	30 e0       	ldi	r19, 0x00	; 0
    278c:	2d 52       	subi	r18, 0x2D	; 45
    278e:	3b 48       	sbci	r19, 0x8B	; 139
    2790:	20 83       	st	Z, r18
    2792:	31 83       	std	Z+1, r19	; 0x01
    reactStr[1][number]=length;
    2794:	fc 01       	movw	r30, r24
    2796:	ee 0f       	add	r30, r30
    2798:	ff 1f       	adc	r31, r31
    279a:	eb 5a       	subi	r30, 0xAB	; 171
    279c:	f6 4c       	sbci	r31, 0xC6	; 198
    279e:	e0 82       	st	Z, r14
    27a0:	f1 82       	std	Z+1, r15	; 0x01
    reactStr[2][number]=type;
    27a2:	88 0f       	add	r24, r24
    27a4:	99 1f       	adc	r25, r25
    27a6:	fc 01       	movw	r30, r24
    27a8:	eb 56       	subi	r30, 0x6B	; 107
    27aa:	f6 4c       	sbci	r31, 0xC6	; 198
    27ac:	e0 82       	st	Z, r14
    27ae:	f1 82       	std	Z+1, r15	; 0x01
    27b0:	4f 5f       	subi	r20, 0xFF	; 255
                    for (n=2; n>=0; --n) {
                        digit[n] = bit % 10;
                        bit /= 10;
                    }

                    for (n=0; n<3; ++n) {
    27b2:	43 30       	cpi	r20, 0x03	; 3
    27b4:	09 f7       	brne	.-62     	; 0x2778 <CheckInput+0x48a>
    return 0;
}

//
void SetResponse(uint8_t number, uint16_t address, uint16_t length, uint8_t type){
    reactStr[0][number]=address;
    27b6:	f8 01       	movw	r30, r16
    27b8:	86 82       	std	Z+6, r8	; 0x06
    27ba:	97 82       	std	Z+7, r9	; 0x07
    reactStr[1][number]=length;
    27bc:	ea 5b       	subi	r30, 0xBA	; 186
    27be:	ff 4f       	sbci	r31, 0xFF	; 255
    27c0:	a0 82       	st	Z, r10
    27c2:	b1 82       	std	Z+1, r11	; 0x01
    reactStr[2][number]=type;
    27c4:	e0 5c       	subi	r30, 0xC0	; 192
    27c6:	ff 4f       	sbci	r31, 0xFF	; 255
    27c8:	c0 82       	st	Z, r12
    27ca:	d1 82       	std	Z+1, r13	; 0x01
    27cc:	73 94       	inc	r7
    27ce:	08 5f       	subi	r16, 0xF8	; 248
    27d0:	1f 4f       	sbci	r17, 0xFF	; 255
    27d2:	f4 e0       	ldi	r31, 0x04	; 4
    27d4:	6f 0e       	add	r6, r31
            }
            if (StartsWith(&data[0], "cheat")){
                int8_t n;
                uint8_t bit, digit[3];

                for (uint8_t x=0; x<MAX_CHEATS; ++x){
    27d6:	80 e2       	ldi	r24, 0x20	; 32
    27d8:	78 12       	cpse	r7, r24
    27da:	b4 cf       	rjmp	.-152    	; 0x2744 <CheckInput+0x456>
    return 0;
}

//
void SetResponse(uint8_t number, uint16_t address, uint16_t length, uint8_t type){
    reactStr[0][number]=address;
    27dc:	8b e5       	ldi	r24, 0x5B	; 91
    27de:	9a e7       	ldi	r25, 0x7A	; 122
    27e0:	80 93 53 39 	sts	0x3953, r24	; 0x803953 <reactStr+0x3e>
    27e4:	90 93 54 39 	sts	0x3954, r25	; 0x803954 <reactStr+0x3f>
    reactStr[1][number]=length;
    27e8:	84 e0       	ldi	r24, 0x04	; 4
    27ea:	90 e0       	ldi	r25, 0x00	; 0
    27ec:	80 93 93 39 	sts	0x3993, r24	; 0x803993 <reactStr+0x7e>
    27f0:	90 93 94 39 	sts	0x3994, r25	; 0x803994 <reactStr+0x7f>
    reactStr[2][number]=type;
    27f4:	81 e0       	ldi	r24, 0x01	; 1
    27f6:	90 e0       	ldi	r25, 0x00	; 0
    27f8:	80 93 d3 39 	sts	0x39D3, r24	; 0x8039d3 <reactStr+0xbe>
    27fc:	90 93 d4 39 	sts	0x39D4, r25	; 0x8039d4 <reactStr+0xbf>
                        SetResponse(x*4+n, A_DIGITS+digit[n], 1, TEASER);
                    }                
                    SetResponse(x*4+3, A_COMMA, L_COMMA, TEASER);
                }
                SetResponse((4*MAX_CHEATS)-1, A_LF, 4, TEASER);
                responseList = 32;
    2800:	70 92 14 39 	sts	0x3914, r7	; 0x803914 <responseList>
        //Data received, but not any of the commands above
        return 0;
    }

    //Serial input not available yet
    return 1;
    2804:	ff 24       	eor	r15, r15
    2806:	f3 94       	inc	r15
}
    2808:	8f 2d       	mov	r24, r15
    280a:	a1 96       	adiw	r28, 0x21	; 33
    280c:	cd bf       	out	0x3d, r28	; 61
    280e:	de bf       	out	0x3e, r29	; 62
    2810:	df 91       	pop	r29
    2812:	cf 91       	pop	r28
    2814:	1f 91       	pop	r17
    2816:	0f 91       	pop	r16
    2818:	ff 90       	pop	r15
    281a:	ef 90       	pop	r14
    281c:	df 90       	pop	r13
    281e:	cf 90       	pop	r12
    2820:	bf 90       	pop	r11
    2822:	af 90       	pop	r10
    2824:	9f 90       	pop	r9
    2826:	8f 90       	pop	r8
    2828:	7f 90       	pop	r7
    282a:	6f 90       	pop	r6
    282c:	5f 90       	pop	r5
    282e:	4f 90       	pop	r4
    2830:	08 95       	ret

00002832 <ProcessInput>:

//The game logic!
uint8_t ProcessInput(uint8_t *data){
    2832:	4f 92       	push	r4
    2834:	5f 92       	push	r5
    2836:	6f 92       	push	r6
    2838:	7f 92       	push	r7
    283a:	8f 92       	push	r8
    283c:	9f 92       	push	r9
    283e:	af 92       	push	r10
    2840:	bf 92       	push	r11
    2842:	cf 92       	push	r12
    2844:	df 92       	push	r13
    2846:	ef 92       	push	r14
    2848:	ff 92       	push	r15
    284a:	0f 93       	push	r16
    284c:	1f 93       	push	r17
    284e:	cf 93       	push	r28
    2850:	df 93       	push	r29
    2852:	cd b7       	in	r28, 0x3d	; 61
    2854:	de b7       	in	r29, 0x3e	; 62
    2856:	2a 97       	sbiw	r28, 0x0a	; 10
    2858:	cd bf       	out	0x3d, r28	; 61
    285a:	de bf       	out	0x3e, r29	; 62
    285c:	8c 01       	movw	r16, r24
    static object_model_t actObj1, actObj2;
    uint8_t elements = 1;

    CleanInput(&data[0]);
    285e:	6f dc       	rcall	.-1826   	; 0x213e <CleanInput>
    uint8_t inputLen = CleanInput(&data[0]);
    2860:	c8 01       	movw	r24, r16
    2862:	6d dc       	rcall	.-1830   	; 0x213e <CleanInput>
    2864:	f8 2e       	mov	r15, r24

    if (inputLen) {
    2866:	88 23       	and	r24, r24
    2868:	09 f4       	brne	.+2      	; 0x286c <ProcessInput+0x3a>
    286a:	ee c7       	rjmp	.+4060   	; 0x3848 <ProcessInput+0x1016>

        //eXit to previous location
        if (data[0] == 'x'){
    286c:	d8 01       	movw	r26, r16
    286e:	8c 91       	ld	r24, X
    2870:	88 37       	cpi	r24, 0x78	; 120
    2872:	09 f0       	breq	.+2      	; 0x2876 <ProcessInput+0x44>
    2874:	45 c0       	rjmp	.+138    	; 0x2900 <ProcessInput+0xce>

            //Standing in the Lobby?
            if ((route[currDepth] == 0)||(currDepth == 0)){
    2876:	80 91 29 38 	lds	r24, 0x3829	; 0x803829 <currDepth>
    287a:	e8 2f       	mov	r30, r24
    287c:	f0 e0       	ldi	r31, 0x00	; 0
    287e:	ee 0f       	add	r30, r30
    2880:	ff 1f       	adc	r31, r31
    2882:	eb 52       	subi	r30, 0x2B	; 43
    2884:	f6 4c       	sbci	r31, 0xC6	; 198
    2886:	20 81       	ld	r18, Z
    2888:	31 81       	ldd	r19, Z+1	; 0x01
    288a:	23 2b       	or	r18, r19
    288c:	11 f0       	breq	.+4      	; 0x2892 <ProcessInput+0x60>
    288e:	81 11       	cpse	r24, r1
    2890:	03 c0       	rjmp	.+6      	; 0x2898 <ProcessInput+0x66>
    return 0;
}

//
void SetResponse(uint8_t number, uint16_t address, uint16_t length, uint8_t type){
    reactStr[0][number]=address;
    2892:	82 e8       	ldi	r24, 0x82	; 130
    2894:	96 e7       	ldi	r25, 0x76	; 118
    2896:	a1 c5       	rjmp	.+2882   	; 0x33da <ProcessInput+0xba8>
            //Standing in the Lobby?
            if ((route[currDepth] == 0)||(currDepth == 0)){
                SetResponse(elements++, A_NOTPOSSIBLE, L_NOTPOSSIBLE, TEASER);
            
            //Is there a way to go back?
            } else if (CheckState(currObj.byteField[OPEN_ACL])){
    2898:	80 91 1b 3a 	lds	r24, 0x3A1B	; 0x803a1b <currObj+0x6>
    289c:	0e 94 bf 0a 	call	0x157e	; 0x157e <CheckState>
    28a0:	88 23       	and	r24, r24
    28a2:	b9 f0       	breq	.+46     	; 0x28d2 <ProcessInput+0xa0>
                --currDepth;
    28a4:	e0 91 29 38 	lds	r30, 0x3829	; 0x803829 <currDepth>
    28a8:	e1 50       	subi	r30, 0x01	; 1
    28aa:	e0 93 29 38 	sts	0x3829, r30	; 0x803829 <currDepth>
                PopulateObject(route[currDepth], &currObj);
    28ae:	f0 e0       	ldi	r31, 0x00	; 0
    28b0:	ee 0f       	add	r30, r30
    28b2:	ff 1f       	adc	r31, r31
    28b4:	eb 52       	subi	r30, 0x2B	; 43
    28b6:	f6 4c       	sbci	r31, 0xC6	; 198
    28b8:	65 e1       	ldi	r22, 0x15	; 21
    28ba:	7a e3       	ldi	r23, 0x3A	; 58
    28bc:	80 81       	ld	r24, Z
    28be:	91 81       	ldd	r25, Z+1	; 0x01
    28c0:	0b db       	rcall	.-2538   	; 0x1ed8 <PopulateObject>
                effect = currObj.byteField[EFFECTS];
    28c2:	80 91 19 3a 	lds	r24, 0x3A19	; 0x803a19 <currObj+0x4>
    28c6:	90 e0       	ldi	r25, 0x00	; 0
    28c8:	80 93 36 38 	sts	0x3836, r24	; 0x803836 <effect>
    28cc:	90 93 37 38 	sts	0x3837, r25	; 0x803837 <effect+0x1>
    28d0:	31 c2       	rjmp	.+1122   	; 0x2d34 <ProcessInput+0x502>
            
            //No way out, print denied message of location
            } else {
                SetResponse(elements++, currObj.addrStr[OPEN_ACL_MSG], currObj.lenStr[OPEN_ACL_MSG], GAME);
    28d2:	80 91 37 3a 	lds	r24, 0x3A37	; 0x803a37 <currObj+0x22>
    28d6:	90 91 38 3a 	lds	r25, 0x3A38	; 0x803a38 <currObj+0x23>
    return 0;
}

//
void SetResponse(uint8_t number, uint16_t address, uint16_t length, uint8_t type){
    reactStr[0][number]=address;
    28da:	20 91 29 3a 	lds	r18, 0x3A29	; 0x803a29 <currObj+0x14>
    28de:	30 91 2a 3a 	lds	r19, 0x3A2A	; 0x803a2a <currObj+0x15>
    28e2:	20 93 17 39 	sts	0x3917, r18	; 0x803917 <reactStr+0x2>
    28e6:	30 93 18 39 	sts	0x3918, r19	; 0x803918 <reactStr+0x3>
    reactStr[1][number]=length;
    28ea:	80 93 57 39 	sts	0x3957, r24	; 0x803957 <reactStr+0x42>
    28ee:	90 93 58 39 	sts	0x3958, r25	; 0x803958 <reactStr+0x43>
    reactStr[2][number]=type;
    28f2:	10 92 97 39 	sts	0x3997, r1	; 0x803997 <reactStr+0x82>
    28f6:	10 92 98 39 	sts	0x3998, r1	; 0x803998 <reactStr+0x83>
                effect = currObj.byteField[EFFECTS];
            
            //No way out, print denied message of location
            } else {
                SetResponse(elements++, currObj.addrStr[OPEN_ACL_MSG], currObj.lenStr[OPEN_ACL_MSG], GAME);
                effect = currObj.effect[0];               
    28fa:	80 91 3d 3a 	lds	r24, 0x3A3D	; 0x803a3d <currObj+0x28>
    28fe:	3a c6       	rjmp	.+3188   	; 0x3574 <ProcessInput+0xd42>
            }   
        
        //Enter locations or Open objects    
        } else if ((data[0] == 'e')||(data[0] == 'o')) {
    2900:	85 36       	cpi	r24, 0x65	; 101
    2902:	19 f0       	breq	.+6      	; 0x290a <ProcessInput+0xd8>
    2904:	8f 36       	cpi	r24, 0x6F	; 111
    2906:	09 f0       	breq	.+2      	; 0x290a <ProcessInput+0xd8>
    2908:	df c0       	rjmp	.+446    	; 0x2ac8 <ProcessInput+0x296>
                
            //Not possible, too many/little characters
            if (inputLen != 2){
    290a:	b2 e0       	ldi	r27, 0x02	; 2
    290c:	fb 12       	cpse	r15, r27
    290e:	c1 cf       	rjmp	.-126    	; 0x2892 <ProcessInput+0x60>
                SetResponse(elements++, A_NOTPOSSIBLE, L_NOTPOSSIBLE, TEASER);
            } else {
                uint8_t canDo = 0;
                route[currDepth+1] = FindChild(route[currDepth], data[1], 0);
    2910:	e0 90 29 38 	lds	r14, 0x3829	; 0x803829 <currDepth>
    2914:	f1 2c       	mov	r15, r1
    2916:	f7 01       	movw	r30, r14
    2918:	ee 0f       	add	r30, r30
    291a:	ff 1f       	adc	r31, r31
    291c:	eb 52       	subi	r30, 0x2B	; 43
    291e:	f6 4c       	sbci	r31, 0xC6	; 198
    2920:	40 e0       	ldi	r20, 0x00	; 0
    2922:	50 e0       	ldi	r21, 0x00	; 0
    2924:	d8 01       	movw	r26, r16
    2926:	11 96       	adiw	r26, 0x01	; 1
    2928:	6c 91       	ld	r22, X
    292a:	80 81       	ld	r24, Z
    292c:	91 81       	ldd	r25, Z+1	; 0x01
    292e:	9f db       	rcall	.-2242   	; 0x206e <FindChild>
    2930:	f7 01       	movw	r30, r14
    2932:	ee 0f       	add	r30, r30
    2934:	ff 1f       	adc	r31, r31
    2936:	e9 52       	subi	r30, 0x29	; 41
    2938:	f6 4c       	sbci	r31, 0xC6	; 198
    293a:	80 83       	st	Z, r24
    293c:	91 83       	std	Z+1, r25	; 0x01
                    
                //Child found?
                if (route[currDepth+1]) {
    293e:	90 91 29 38 	lds	r25, 0x3829	; 0x803829 <currDepth>
    2942:	29 2f       	mov	r18, r25
    2944:	30 e0       	ldi	r19, 0x00	; 0
    2946:	f9 01       	movw	r30, r18
    2948:	ee 0f       	add	r30, r30
    294a:	ff 1f       	adc	r31, r31
    294c:	e9 52       	subi	r30, 0x29	; 41
    294e:	f6 4c       	sbci	r31, 0xC6	; 198
    2950:	40 81       	ld	r20, Z
    2952:	51 81       	ldd	r21, Z+1	; 0x01
    2954:	41 15       	cp	r20, r1
    2956:	51 05       	cpc	r21, r1
    2958:	21 f0       	breq	.+8      	; 0x2962 <ProcessInput+0x130>
                    PopulateObject(route[currDepth+1], &actObj1);
    295a:	64 ed       	ldi	r22, 0xD4	; 212
    295c:	78 e3       	ldi	r23, 0x38	; 56
    295e:	ca 01       	movw	r24, r20
    2960:	1c c0       	rjmp	.+56     	; 0x299a <ProcessInput+0x168>
                    canDo = 1;
                //No child, maybe a step back, letter ok?
                } else if (currDepth) {
    2962:	99 23       	and	r25, r25
    2964:	09 f4       	brne	.+2      	; 0x2968 <ProcessInput+0x136>
    2966:	87 c7       	rjmp	.+3854   	; 0x3876 <ProcessInput+0x1044>
                    if (CheckLetter(route[currDepth-1], data[1])) {
    2968:	22 0f       	add	r18, r18
    296a:	33 1f       	adc	r19, r19
    296c:	f9 01       	movw	r30, r18
    296e:	ed 52       	subi	r30, 0x2D	; 45
    2970:	f6 4c       	sbci	r31, 0xC6	; 198
    2972:	d8 01       	movw	r26, r16
    2974:	11 96       	adiw	r26, 0x01	; 1
    2976:	6c 91       	ld	r22, X
    2978:	80 81       	ld	r24, Z
    297a:	91 81       	ldd	r25, Z+1	; 0x01
    297c:	24 db       	rcall	.-2488   	; 0x1fc6 <CheckLetter>
    297e:	88 23       	and	r24, r24
    2980:	09 f4       	brne	.+2      	; 0x2984 <ProcessInput+0x152>
    2982:	79 c7       	rjmp	.+3826   	; 0x3876 <ProcessInput+0x1044>
                        PopulateObject(route[currDepth-1], &actObj1);
    2984:	e0 91 29 38 	lds	r30, 0x3829	; 0x803829 <currDepth>
    2988:	f0 e0       	ldi	r31, 0x00	; 0
    298a:	ee 0f       	add	r30, r30
    298c:	ff 1f       	adc	r31, r31
    298e:	ed 52       	subi	r30, 0x2D	; 45
    2990:	f6 4c       	sbci	r31, 0xC6	; 198
    2992:	64 ed       	ldi	r22, 0xD4	; 212
    2994:	78 e3       	ldi	r23, 0x38	; 56
    2996:	80 81       	ld	r24, Z
    2998:	91 81       	ldd	r25, Z+1	; 0x01
    299a:	9e da       	rcall	.-2756   	; 0x1ed8 <PopulateObject>
                    }
                }

                //The candidate is found! Let's check if the action is legit
                if (canDo) {
                    if ((data[0] == 'e') && ((actObj1.byteField[ACTION_MASK]&ENTER)==0)) {
    299c:	f8 01       	movw	r30, r16
    299e:	80 81       	ld	r24, Z
    29a0:	85 36       	cpi	r24, 0x65	; 101
    29a2:	c9 f4       	brne	.+50     	; 0x29d6 <ProcessInput+0x1a4>
    29a4:	80 91 dc 38 	lds	r24, 0x38DC	; 0x8038dc <actObj1.3994+0x8>
    29a8:	80 fd       	sbrc	r24, 0
    29aa:	1e c0       	rjmp	.+60     	; 0x29e8 <ProcessInput+0x1b6>
    return 0;
}

//
void SetResponse(uint8_t number, uint16_t address, uint16_t length, uint8_t type){
    reactStr[0][number]=address;
    29ac:	80 ea       	ldi	r24, 0xA0	; 160
    29ae:	99 e7       	ldi	r25, 0x79	; 121
    29b0:	80 93 17 39 	sts	0x3917, r24	; 0x803917 <reactStr+0x2>
    29b4:	90 93 18 39 	sts	0x3918, r25	; 0x803918 <reactStr+0x3>
    reactStr[1][number]=length;
    29b8:	8e e1       	ldi	r24, 0x1E	; 30
    29ba:	90 e0       	ldi	r25, 0x00	; 0
    29bc:	80 93 57 39 	sts	0x3957, r24	; 0x803957 <reactStr+0x42>
    29c0:	90 93 58 39 	sts	0x3958, r25	; 0x803958 <reactStr+0x43>
    reactStr[2][number]=type;
    29c4:	81 e0       	ldi	r24, 0x01	; 1
    29c6:	90 e0       	ldi	r25, 0x00	; 0
    29c8:	80 93 97 39 	sts	0x3997, r24	; 0x803997 <reactStr+0x82>
    29cc:	90 93 98 39 	sts	0x3998, r25	; 0x803998 <reactStr+0x83>
                }

                //The candidate is found! Let's check if the action is legit
                if (canDo) {
                    if ((data[0] == 'e') && ((actObj1.byteField[ACTION_MASK]&ENTER)==0)) {
                        SetResponse(elements++, A_CANTENTER, L_CANTENTER, TEASER);
    29d0:	72 e0       	ldi	r23, 0x02	; 2
    29d2:	77 2e       	mov	r7, r23
    29d4:	1e c7       	rjmp	.+3644   	; 0x3812 <ProcessInput+0xfe0>
                    } else if ((data[0] == 'o') && ((actObj1.byteField[ACTION_MASK]&OPEN)==0)) {
    29d6:	8f 36       	cpi	r24, 0x6F	; 111
    29d8:	39 f4       	brne	.+14     	; 0x29e8 <ProcessInput+0x1b6>
    29da:	80 91 dc 38 	lds	r24, 0x38DC	; 0x8038dc <actObj1.3994+0x8>
    29de:	81 fd       	sbrc	r24, 1
    29e0:	03 c0       	rjmp	.+6      	; 0x29e8 <ProcessInput+0x1b6>
    return 0;
}

//
void SetResponse(uint8_t number, uint16_t address, uint16_t length, uint8_t type){
    reactStr[0][number]=address;
    29e2:	85 e8       	ldi	r24, 0x85	; 133
    29e4:	99 e7       	ldi	r25, 0x79	; 121
    29e6:	f9 c4       	rjmp	.+2546   	; 0x33da <ProcessInput+0xba8>
                        SetResponse(elements++, A_CANTENTER, L_CANTENTER, TEASER);
                    } else if ((data[0] == 'o') && ((actObj1.byteField[ACTION_MASK]&OPEN)==0)) {
                        SetResponse(elements++, A_CANTOPEN, L_CANTOPEN, TEASER);
                    
                    //Action legit, permission granted?
                    } else if (CheckState(actObj1.byteField[OPEN_ACL])) {
    29e8:	80 91 da 38 	lds	r24, 0x38DA	; 0x8038da <actObj1.3994+0x6>
    29ec:	0e 94 bf 0a 	call	0x157e	; 0x157e <CheckState>
    29f0:	e0 91 29 38 	lds	r30, 0x3829	; 0x803829 <currDepth>
    29f4:	88 23       	and	r24, r24
    29f6:	09 f4       	brne	.+2      	; 0x29fa <ProcessInput+0x1c8>
    29f8:	49 c0       	rjmp	.+146    	; 0x2a8c <ProcessInput+0x25a>
                            
                        //Yes! Check if we must move forward or backwards.
                        if (route[currDepth+1]) ++currDepth; else --currDepth;
    29fa:	ae 2f       	mov	r26, r30
    29fc:	b0 e0       	ldi	r27, 0x00	; 0
    29fe:	aa 0f       	add	r26, r26
    2a00:	bb 1f       	adc	r27, r27
    2a02:	a9 52       	subi	r26, 0x29	; 41
    2a04:	b6 4c       	sbci	r27, 0xC6	; 198
    2a06:	8d 91       	ld	r24, X+
    2a08:	9c 91       	ld	r25, X
    2a0a:	89 2b       	or	r24, r25
    2a0c:	11 f0       	breq	.+4      	; 0x2a12 <ProcessInput+0x1e0>
    2a0e:	ef 5f       	subi	r30, 0xFF	; 255
    2a10:	01 c0       	rjmp	.+2      	; 0x2a14 <ProcessInput+0x1e2>
    2a12:	e1 50       	subi	r30, 0x01	; 1
    2a14:	e0 93 29 38 	sts	0x3829, r30	; 0x803829 <currDepth>
                        PopulateObject(route[currDepth], &currObj);
    2a18:	e0 91 29 38 	lds	r30, 0x3829	; 0x803829 <currDepth>
    2a1c:	f0 e0       	ldi	r31, 0x00	; 0
    2a1e:	ee 0f       	add	r30, r30
    2a20:	ff 1f       	adc	r31, r31
    2a22:	eb 52       	subi	r30, 0x2B	; 43
    2a24:	f6 4c       	sbci	r31, 0xC6	; 198
    2a26:	65 e1       	ldi	r22, 0x15	; 21
    2a28:	7a e3       	ldi	r23, 0x3A	; 58
    2a2a:	80 81       	ld	r24, Z
    2a2c:	91 81       	ldd	r25, Z+1	; 0x01
    2a2e:	54 da       	rcall	.-2904   	; 0x1ed8 <PopulateObject>
                        SetResponse(elements++, currObj.addrStr[DESC], currObj.lenStr[DESC],GAME);
    2a30:	80 91 31 3a 	lds	r24, 0x3A31	; 0x803a31 <currObj+0x1c>
    2a34:	90 91 32 3a 	lds	r25, 0x3A32	; 0x803a32 <currObj+0x1d>
    return 0;
}

//
void SetResponse(uint8_t number, uint16_t address, uint16_t length, uint8_t type){
    reactStr[0][number]=address;
    2a38:	20 91 23 3a 	lds	r18, 0x3A23	; 0x803a23 <currObj+0xe>
    2a3c:	30 91 24 3a 	lds	r19, 0x3A24	; 0x803a24 <currObj+0xf>
    2a40:	20 93 17 39 	sts	0x3917, r18	; 0x803917 <reactStr+0x2>
    2a44:	30 93 18 39 	sts	0x3918, r19	; 0x803918 <reactStr+0x3>
    reactStr[1][number]=length;
    2a48:	80 93 57 39 	sts	0x3957, r24	; 0x803957 <reactStr+0x42>
    2a4c:	90 93 58 39 	sts	0x3958, r25	; 0x803958 <reactStr+0x43>
    reactStr[2][number]=type;
    2a50:	10 92 97 39 	sts	0x3997, r1	; 0x803997 <reactStr+0x82>
    2a54:	10 92 98 39 	sts	0x3998, r1	; 0x803998 <reactStr+0x83>
    return 0;
}

//
void SetResponse(uint8_t number, uint16_t address, uint16_t length, uint8_t type){
    reactStr[0][number]=address;
    2a58:	8b e5       	ldi	r24, 0x5B	; 91
    2a5a:	9a e7       	ldi	r25, 0x7A	; 122
    2a5c:	80 93 19 39 	sts	0x3919, r24	; 0x803919 <reactStr+0x4>
    2a60:	90 93 1a 39 	sts	0x391A, r25	; 0x80391a <reactStr+0x5>
    reactStr[1][number]=length;
    2a64:	82 e0       	ldi	r24, 0x02	; 2
    2a66:	90 e0       	ldi	r25, 0x00	; 0
    2a68:	80 93 59 39 	sts	0x3959, r24	; 0x803959 <reactStr+0x44>
    2a6c:	90 93 5a 39 	sts	0x395A, r25	; 0x80395a <reactStr+0x45>
    reactStr[2][number]=type;
    2a70:	81 e0       	ldi	r24, 0x01	; 1
    2a72:	90 e0       	ldi	r25, 0x00	; 0
    2a74:	80 93 99 39 	sts	0x3999, r24	; 0x803999 <reactStr+0x84>
    2a78:	90 93 9a 39 	sts	0x399A, r25	; 0x80399a <reactStr+0x85>
                        //Yes! Check if we must move forward or backwards.
                        if (route[currDepth+1]) ++currDepth; else --currDepth;
                        PopulateObject(route[currDepth], &currObj);
                        SetResponse(elements++, currObj.addrStr[DESC], currObj.lenStr[DESC],GAME);
                        SetResponse(elements++, A_LF, 2, TEASER);
                        effect = currObj.byteField[EFFECTS];
    2a7c:	80 91 19 3a 	lds	r24, 0x3A19	; 0x803a19 <currObj+0x4>
    2a80:	90 e0       	ldi	r25, 0x00	; 0
    2a82:	80 93 36 38 	sts	0x3836, r24	; 0x803836 <effect>
    2a86:	90 93 37 38 	sts	0x3837, r25	; 0x803837 <effect+0x1>
    2a8a:	8d c4       	rjmp	.+2330   	; 0x33a6 <ProcessInput+0xb74>
                                                  
                    //Not granted!
                    } else {
                        route[currDepth+1] = 0;
    2a8c:	f0 e0       	ldi	r31, 0x00	; 0
    2a8e:	ee 0f       	add	r30, r30
    2a90:	ff 1f       	adc	r31, r31
    2a92:	e9 52       	subi	r30, 0x29	; 41
    2a94:	f6 4c       	sbci	r31, 0xC6	; 198
    2a96:	10 82       	st	Z, r1
    2a98:	11 82       	std	Z+1, r1	; 0x01
                        SetResponse(elements++, actObj1.addrStr[OPEN_ACL_MSG], actObj1.lenStr[OPEN_ACL_MSG], GAME);
    2a9a:	80 91 f6 38 	lds	r24, 0x38F6	; 0x8038f6 <actObj1.3994+0x22>
    2a9e:	90 91 f7 38 	lds	r25, 0x38F7	; 0x8038f7 <actObj1.3994+0x23>
    return 0;
}

//
void SetResponse(uint8_t number, uint16_t address, uint16_t length, uint8_t type){
    reactStr[0][number]=address;
    2aa2:	20 91 e8 38 	lds	r18, 0x38E8	; 0x8038e8 <actObj1.3994+0x14>
    2aa6:	30 91 e9 38 	lds	r19, 0x38E9	; 0x8038e9 <actObj1.3994+0x15>
    2aaa:	20 93 17 39 	sts	0x3917, r18	; 0x803917 <reactStr+0x2>
    2aae:	30 93 18 39 	sts	0x3918, r19	; 0x803918 <reactStr+0x3>
    reactStr[1][number]=length;
    2ab2:	80 93 57 39 	sts	0x3957, r24	; 0x803957 <reactStr+0x42>
    2ab6:	90 93 58 39 	sts	0x3958, r25	; 0x803958 <reactStr+0x43>
    reactStr[2][number]=type;
    2aba:	10 92 97 39 	sts	0x3997, r1	; 0x803997 <reactStr+0x82>
    2abe:	10 92 98 39 	sts	0x3998, r1	; 0x803998 <reactStr+0x83>
                                                  
                    //Not granted!
                    } else {
                        route[currDepth+1] = 0;
                        SetResponse(elements++, actObj1.addrStr[OPEN_ACL_MSG], actObj1.lenStr[OPEN_ACL_MSG], GAME);
                        effect = actObj1.effect[0];              
    2ac2:	80 91 fc 38 	lds	r24, 0x38FC	; 0x8038fc <actObj1.3994+0x28>
    2ac6:	56 c5       	rjmp	.+2732   	; 0x3574 <ProcessInput+0xd42>
                    SetResponse(elements++, A_DONTSEE, L_DONTSEE, TEASER);                
                }
            }

        //Look around or at objects
        } else if (data[0] == 'l') {
    2ac8:	8c 36       	cpi	r24, 0x6C	; 108
    2aca:	09 f0       	breq	.+2      	; 0x2ace <ProcessInput+0x29c>
    2acc:	57 c1       	rjmp	.+686    	; 0x2d7c <ProcessInput+0x54a>
    2ace:	e0 91 29 38 	lds	r30, 0x3829	; 0x803829 <currDepth>
            if (inputLen == 1) {
    2ad2:	b1 e0       	ldi	r27, 0x01	; 1
    2ad4:	fb 12       	cpse	r15, r27
    2ad6:	f6 c0       	rjmp	.+492    	; 0x2cc4 <ProcessInput+0x492>

                //Show info about this area first
                SetResponse(elements++, currObj.addrStr[DESC], currObj.lenStr[DESC],GAME);
    2ad8:	80 91 31 3a 	lds	r24, 0x3A31	; 0x803a31 <currObj+0x1c>
    2adc:	90 91 32 3a 	lds	r25, 0x3A32	; 0x803a32 <currObj+0x1d>
    return 0;
}

//
void SetResponse(uint8_t number, uint16_t address, uint16_t length, uint8_t type){
    reactStr[0][number]=address;
    2ae0:	20 91 23 3a 	lds	r18, 0x3A23	; 0x803a23 <currObj+0xe>
    2ae4:	30 91 24 3a 	lds	r19, 0x3A24	; 0x803a24 <currObj+0xf>
    2ae8:	20 93 17 39 	sts	0x3917, r18	; 0x803917 <reactStr+0x2>
    2aec:	30 93 18 39 	sts	0x3918, r19	; 0x803918 <reactStr+0x3>
    reactStr[1][number]=length;
    2af0:	80 93 57 39 	sts	0x3957, r24	; 0x803957 <reactStr+0x42>
    2af4:	90 93 58 39 	sts	0x3958, r25	; 0x803958 <reactStr+0x43>
    reactStr[2][number]=type;
    2af8:	10 92 97 39 	sts	0x3997, r1	; 0x803997 <reactStr+0x82>
    2afc:	10 92 98 39 	sts	0x3998, r1	; 0x803998 <reactStr+0x83>
    return 0;
}

//
void SetResponse(uint8_t number, uint16_t address, uint16_t length, uint8_t type){
    reactStr[0][number]=address;
    2b00:	8b e5       	ldi	r24, 0x5B	; 91
    2b02:	9a e7       	ldi	r25, 0x7A	; 122
    2b04:	80 93 19 39 	sts	0x3919, r24	; 0x803919 <reactStr+0x4>
    2b08:	90 93 1a 39 	sts	0x391A, r25	; 0x80391a <reactStr+0x5>
    reactStr[1][number]=length;
    2b0c:	82 e0       	ldi	r24, 0x02	; 2
    2b0e:	90 e0       	ldi	r25, 0x00	; 0
    2b10:	80 93 59 39 	sts	0x3959, r24	; 0x803959 <reactStr+0x44>
    2b14:	90 93 5a 39 	sts	0x395A, r25	; 0x80395a <reactStr+0x45>
    reactStr[2][number]=type;
    2b18:	81 e0       	ldi	r24, 0x01	; 1
    2b1a:	90 e0       	ldi	r25, 0x00	; 0
    2b1c:	80 93 99 39 	sts	0x3999, r24	; 0x803999 <reactStr+0x84>
    2b20:	90 93 9a 39 	sts	0x399A, r25	; 0x80399a <reactStr+0x85>
    return 0;
}

//
void SetResponse(uint8_t number, uint16_t address, uint16_t length, uint8_t type){
    reactStr[0][number]=address;
    2b24:	2e ee       	ldi	r18, 0xEE	; 238
    2b26:	39 e7       	ldi	r19, 0x79	; 121
    2b28:	20 93 1b 39 	sts	0x391B, r18	; 0x80391b <reactStr+0x6>
    2b2c:	30 93 1c 39 	sts	0x391C, r19	; 0x80391c <reactStr+0x7>
    reactStr[1][number]=length;
    2b30:	25 e1       	ldi	r18, 0x15	; 21
    2b32:	30 e0       	ldi	r19, 0x00	; 0
    2b34:	20 93 5b 39 	sts	0x395B, r18	; 0x80395b <reactStr+0x46>
    2b38:	30 93 5c 39 	sts	0x395C, r19	; 0x80395c <reactStr+0x47>
    reactStr[2][number]=type;
    2b3c:	80 93 9b 39 	sts	0x399B, r24	; 0x80399b <reactStr+0x86>
    2b40:	90 93 9c 39 	sts	0x399C, r25	; 0x80399c <reactStr+0x87>
                SetResponse(elements++, currObj.addrStr[DESC], currObj.lenStr[DESC],GAME);
                SetResponse(elements++, A_LF, 2, TEASER);
                SetResponse(elements++, A_LOOK, L_LOOK, TEASER);

                //Check the visible children first
                route[currDepth+1] = 0;
    2b44:	f0 e0       	ldi	r31, 0x00	; 0
    2b46:	ee 0f       	add	r30, r30
    2b48:	ff 1f       	adc	r31, r31
    2b4a:	e9 52       	subi	r30, 0x29	; 41
    2b4c:	f6 4c       	sbci	r31, 0xC6	; 198
    2b4e:	10 82       	st	Z, r1
    2b50:	11 82       	std	Z+1, r1	; 0x01
            if (inputLen == 1) {

                //Show info about this area first
                SetResponse(elements++, currObj.addrStr[DESC], currObj.lenStr[DESC],GAME);
                SetResponse(elements++, A_LF, 2, TEASER);
                SetResponse(elements++, A_LOOK, L_LOOK, TEASER);
    2b52:	84 e0       	ldi	r24, 0x04	; 4
    2b54:	68 2e       	mov	r6, r24
    return 0;
}

//
void SetResponse(uint8_t number, uint16_t address, uint16_t length, uint8_t type){
    reactStr[0][number]=address;
    2b56:	99 e5       	ldi	r25, 0x59	; 89
    2b58:	c9 2e       	mov	r12, r25
    2b5a:	9a e7       	ldi	r25, 0x7A	; 122
    2b5c:	d9 2e       	mov	r13, r25
    reactStr[1][number]=length;
    2b5e:	22 e0       	ldi	r18, 0x02	; 2
    2b60:	a2 2e       	mov	r10, r18
    2b62:	b1 2c       	mov	r11, r1
    reactStr[2][number]=type;
    2b64:	88 24       	eor	r8, r8
    2b66:	83 94       	inc	r8
    2b68:	91 2c       	mov	r9, r1
                SetResponse(elements++, A_LOOK, L_LOOK, TEASER);

                //Check the visible children first
                route[currDepth+1] = 0;
                do{
                    route[currDepth+1] = FindChild(route[currDepth], 0, route[currDepth+1]);
    2b6a:	80 91 29 38 	lds	r24, 0x3829	; 0x803829 <currDepth>
    2b6e:	90 e0       	ldi	r25, 0x00	; 0
    2b70:	9c 01       	movw	r18, r24
    2b72:	22 0f       	add	r18, r18
    2b74:	33 1f       	adc	r19, r19
    2b76:	f9 01       	movw	r30, r18
    2b78:	e9 52       	subi	r30, 0x29	; 41
    2b7a:	f6 4c       	sbci	r31, 0xC6	; 198
    2b7c:	7f 01       	movw	r14, r30
    2b7e:	40 81       	ld	r20, Z
    2b80:	51 81       	ldd	r21, Z+1	; 0x01
    2b82:	f9 01       	movw	r30, r18
    2b84:	eb 52       	subi	r30, 0x2B	; 43
    2b86:	f6 4c       	sbci	r31, 0xC6	; 198
    2b88:	60 e0       	ldi	r22, 0x00	; 0
    2b8a:	80 81       	ld	r24, Z
    2b8c:	91 81       	ldd	r25, Z+1	; 0x01
    2b8e:	6f da       	rcall	.-2850   	; 0x206e <FindChild>
    2b90:	d7 01       	movw	r26, r14
    2b92:	8d 93       	st	X+, r24
    2b94:	9c 93       	st	X, r25
                    if (route[currDepth+1]) {
    2b96:	e0 91 29 38 	lds	r30, 0x3829	; 0x803829 <currDepth>
    2b9a:	f0 e0       	ldi	r31, 0x00	; 0
    2b9c:	ee 0f       	add	r30, r30
    2b9e:	ff 1f       	adc	r31, r31
    2ba0:	e9 52       	subi	r30, 0x29	; 41
    2ba2:	f6 4c       	sbci	r31, 0xC6	; 198
    2ba4:	80 81       	ld	r24, Z
    2ba6:	91 81       	ldd	r25, Z+1	; 0x01
    2ba8:	00 97       	sbiw	r24, 0x00	; 0
    2baa:	09 f4       	brne	.+2      	; 0x2bae <ProcessInput+0x37c>
    2bac:	4a c0       	rjmp	.+148    	; 0x2c42 <ProcessInput+0x410>
                        if ((route[currDepth+1] != inventory[0])&&(route[currDepth+1] != inventory[1])) {
    2bae:	20 91 3a 38 	lds	r18, 0x383A	; 0x80383a <inventory>
    2bb2:	30 91 3b 38 	lds	r19, 0x383B	; 0x80383b <inventory+0x1>
    2bb6:	82 17       	cp	r24, r18
    2bb8:	93 07       	cpc	r25, r19
    2bba:	09 f4       	brne	.+2      	; 0x2bbe <ProcessInput+0x38c>
    2bbc:	42 c0       	rjmp	.+132    	; 0x2c42 <ProcessInput+0x410>
    2bbe:	20 91 3c 38 	lds	r18, 0x383C	; 0x80383c <inventory+0x2>
    2bc2:	30 91 3d 38 	lds	r19, 0x383D	; 0x80383d <inventory+0x3>
    2bc6:	82 17       	cp	r24, r18
    2bc8:	93 07       	cpc	r25, r19
                            PopulateObject(route[currDepth+1], &actObj1);
    2bca:	d9 f1       	breq	.+118    	; 0x2c42 <ProcessInput+0x410>
    2bcc:	64 ed       	ldi	r22, 0xD4	; 212
    2bce:	78 e3       	ldi	r23, 0x38	; 56
    2bd0:	83 d9       	rcall	.-3322   	; 0x1ed8 <PopulateObject>
                            SetResponse(elements++, actObj1.addrStr[NAME], actObj1.lenStr[NAME],GAME);
    2bd2:	80 91 ee 38 	lds	r24, 0x38EE	; 0x8038ee <actObj1.3994+0x1a>
    2bd6:	90 91 ef 38 	lds	r25, 0x38EF	; 0x8038ef <actObj1.3994+0x1b>
    return 0;
}

//
void SetResponse(uint8_t number, uint16_t address, uint16_t length, uint8_t type){
    reactStr[0][number]=address;
    2bda:	e6 2d       	mov	r30, r6
    2bdc:	f0 e0       	ldi	r31, 0x00	; 0
    2bde:	df 01       	movw	r26, r30
    2be0:	aa 0f       	add	r26, r26
    2be2:	bb 1f       	adc	r27, r27
    2be4:	ab 5e       	subi	r26, 0xEB	; 235
    2be6:	b6 4c       	sbci	r27, 0xC6	; 198
    2be8:	20 91 e0 38 	lds	r18, 0x38E0	; 0x8038e0 <actObj1.3994+0xc>
    2bec:	30 91 e1 38 	lds	r19, 0x38E1	; 0x8038e1 <actObj1.3994+0xd>
    2bf0:	2d 93       	st	X+, r18
    2bf2:	3c 93       	st	X, r19
    reactStr[1][number]=length;
    2bf4:	df 01       	movw	r26, r30
    2bf6:	aa 0f       	add	r26, r26
    2bf8:	bb 1f       	adc	r27, r27
    2bfa:	ab 5a       	subi	r26, 0xAB	; 171
    2bfc:	b6 4c       	sbci	r27, 0xC6	; 198
    2bfe:	8d 93       	st	X+, r24
    2c00:	9c 93       	st	X, r25
    reactStr[2][number]=type;
    2c02:	ee 0f       	add	r30, r30
    2c04:	ff 1f       	adc	r31, r31
    2c06:	eb 56       	subi	r30, 0x6B	; 107
    2c08:	f6 4c       	sbci	r31, 0xC6	; 198
    2c0a:	10 82       	st	Z, r1
    2c0c:	11 82       	std	Z+1, r1	; 0x01
    return 0;
}

//
void SetResponse(uint8_t number, uint16_t address, uint16_t length, uint8_t type){
    reactStr[0][number]=address;
    2c0e:	81 e0       	ldi	r24, 0x01	; 1
    2c10:	86 0d       	add	r24, r6
    2c12:	90 e0       	ldi	r25, 0x00	; 0
    2c14:	63 94       	inc	r6
    2c16:	63 94       	inc	r6
    2c18:	fc 01       	movw	r30, r24
    2c1a:	ee 0f       	add	r30, r30
    2c1c:	ff 1f       	adc	r31, r31
    2c1e:	eb 5e       	subi	r30, 0xEB	; 235
    2c20:	f6 4c       	sbci	r31, 0xC6	; 198
    2c22:	c0 82       	st	Z, r12
    2c24:	d1 82       	std	Z+1, r13	; 0x01
    reactStr[1][number]=length;
    2c26:	fc 01       	movw	r30, r24
    2c28:	ee 0f       	add	r30, r30
    2c2a:	ff 1f       	adc	r31, r31
    2c2c:	eb 5a       	subi	r30, 0xAB	; 171
    2c2e:	f6 4c       	sbci	r31, 0xC6	; 198
    2c30:	a0 82       	st	Z, r10
    2c32:	b1 82       	std	Z+1, r11	; 0x01
    reactStr[2][number]=type;
    2c34:	88 0f       	add	r24, r24
    2c36:	99 1f       	adc	r25, r25
    2c38:	fc 01       	movw	r30, r24
    2c3a:	eb 56       	subi	r30, 0x6B	; 107
    2c3c:	f6 4c       	sbci	r31, 0xC6	; 198
    2c3e:	80 82       	st	Z, r8
    2c40:	91 82       	std	Z+1, r9	; 0x01
                            PopulateObject(route[currDepth+1], &actObj1);
                            SetResponse(elements++, actObj1.addrStr[NAME], actObj1.lenStr[NAME],GAME);
                            SetResponse(elements++, A_COMMA, L_COMMA, TEASER);
                        }
                    }
                }while (route[currDepth+1]);
    2c42:	20 91 29 38 	lds	r18, 0x3829	; 0x803829 <currDepth>
    2c46:	82 2f       	mov	r24, r18
    2c48:	90 e0       	ldi	r25, 0x00	; 0
    2c4a:	fc 01       	movw	r30, r24
    2c4c:	ee 0f       	add	r30, r30
    2c4e:	ff 1f       	adc	r31, r31
    2c50:	e9 52       	subi	r30, 0x29	; 41
    2c52:	f6 4c       	sbci	r31, 0xC6	; 198
    2c54:	40 81       	ld	r20, Z
    2c56:	51 81       	ldd	r21, Z+1	; 0x01
    2c58:	45 2b       	or	r20, r21
    2c5a:	09 f0       	breq	.+2      	; 0x2c5e <ProcessInput+0x42c>
    2c5c:	86 cf       	rjmp	.-244    	; 0x2b6a <ProcessInput+0x338>

                //Look back if not on level 0
                if (currDepth) {
    2c5e:	22 23       	and	r18, r18
                    PopulateObject(route[currDepth-1], &actObj1);
    2c60:	69 f1       	breq	.+90     	; 0x2cbc <ProcessInput+0x48a>
    2c62:	88 0f       	add	r24, r24
    2c64:	99 1f       	adc	r25, r25
    2c66:	fc 01       	movw	r30, r24
    2c68:	ed 52       	subi	r30, 0x2D	; 45
    2c6a:	f6 4c       	sbci	r31, 0xC6	; 198
    2c6c:	64 ed       	ldi	r22, 0xD4	; 212
    2c6e:	78 e3       	ldi	r23, 0x38	; 56
    2c70:	80 81       	ld	r24, Z
    2c72:	91 81       	ldd	r25, Z+1	; 0x01
    2c74:	31 d9       	rcall	.-3486   	; 0x1ed8 <PopulateObject>
                    SetResponse(elements++, actObj1.addrStr[NAME], actObj1.lenStr[NAME],GAME);
    2c76:	20 91 ee 38 	lds	r18, 0x38EE	; 0x8038ee <actObj1.3994+0x1a>
    2c7a:	30 91 ef 38 	lds	r19, 0x38EF	; 0x8038ef <actObj1.3994+0x1b>
    2c7e:	77 24       	eor	r7, r7
    2c80:	73 94       	inc	r7
    2c82:	76 0c       	add	r7, r6
    return 0;
}

//
void SetResponse(uint8_t number, uint16_t address, uint16_t length, uint8_t type){
    reactStr[0][number]=address;
    2c84:	86 2d       	mov	r24, r6
    2c86:	90 e0       	ldi	r25, 0x00	; 0
    2c88:	fc 01       	movw	r30, r24
    2c8a:	ee 0f       	add	r30, r30
    2c8c:	ff 1f       	adc	r31, r31
    2c8e:	eb 5e       	subi	r30, 0xEB	; 235
    2c90:	f6 4c       	sbci	r31, 0xC6	; 198
    2c92:	40 91 e0 38 	lds	r20, 0x38E0	; 0x8038e0 <actObj1.3994+0xc>
    2c96:	50 91 e1 38 	lds	r21, 0x38E1	; 0x8038e1 <actObj1.3994+0xd>
    2c9a:	40 83       	st	Z, r20
    2c9c:	51 83       	std	Z+1, r21	; 0x01
    reactStr[1][number]=length;
    2c9e:	fc 01       	movw	r30, r24
    2ca0:	ee 0f       	add	r30, r30
    2ca2:	ff 1f       	adc	r31, r31
    2ca4:	eb 5a       	subi	r30, 0xAB	; 171
    2ca6:	f6 4c       	sbci	r31, 0xC6	; 198
    2ca8:	20 83       	st	Z, r18
    2caa:	31 83       	std	Z+1, r19	; 0x01
    reactStr[2][number]=type;
    2cac:	88 0f       	add	r24, r24
    2cae:	99 1f       	adc	r25, r25
    2cb0:	fc 01       	movw	r30, r24
    2cb2:	eb 56       	subi	r30, 0x6B	; 107
    2cb4:	f6 4c       	sbci	r31, 0xC6	; 198
    2cb6:	10 82       	st	Z, r1
    2cb8:	11 82       	std	Z+1, r1	; 0x01
    2cba:	ab c5       	rjmp	.+2902   	; 0x3812 <ProcessInput+0xfe0>

                //Look back if not on level 0
                if (currDepth) {
                    PopulateObject(route[currDepth-1], &actObj1);
                    SetResponse(elements++, actObj1.addrStr[NAME], actObj1.lenStr[NAME],GAME);
                } else elements-=1;
    2cbc:	77 24       	eor	r7, r7
    2cbe:	7a 94       	dec	r7
    2cc0:	76 0c       	add	r7, r6
    2cc2:	a7 c5       	rjmp	.+2894   	; 0x3812 <ProcessInput+0xfe0>

            } else {
                route[currDepth+1] = FindChild(route[currDepth], data[1], 0);
    2cc4:	ee 2e       	mov	r14, r30
    2cc6:	f1 2c       	mov	r15, r1
    2cc8:	f7 01       	movw	r30, r14
    2cca:	ee 0f       	add	r30, r30
    2ccc:	ff 1f       	adc	r31, r31
    2cce:	eb 52       	subi	r30, 0x2B	; 43
    2cd0:	f6 4c       	sbci	r31, 0xC6	; 198
    2cd2:	40 e0       	ldi	r20, 0x00	; 0
    2cd4:	50 e0       	ldi	r21, 0x00	; 0
    2cd6:	d8 01       	movw	r26, r16
    2cd8:	11 96       	adiw	r26, 0x01	; 1
    2cda:	6c 91       	ld	r22, X
    2cdc:	80 81       	ld	r24, Z
    2cde:	91 81       	ldd	r25, Z+1	; 0x01
    2ce0:	c6 d9       	rcall	.-3188   	; 0x206e <FindChild>
    2ce2:	f7 01       	movw	r30, r14
    2ce4:	ee 0f       	add	r30, r30
    2ce6:	ff 1f       	adc	r31, r31
    2ce8:	e9 52       	subi	r30, 0x29	; 41
    2cea:	f6 4c       	sbci	r31, 0xC6	; 198
    2cec:	80 83       	st	Z, r24
    2cee:	91 83       	std	Z+1, r25	; 0x01
                if (route[currDepth+1]) {
    2cf0:	90 91 29 38 	lds	r25, 0x3829	; 0x803829 <currDepth>
    2cf4:	29 2f       	mov	r18, r25
    2cf6:	30 e0       	ldi	r19, 0x00	; 0
    2cf8:	f9 01       	movw	r30, r18
    2cfa:	ee 0f       	add	r30, r30
    2cfc:	ff 1f       	adc	r31, r31
    2cfe:	e9 52       	subi	r30, 0x29	; 41
    2d00:	f6 4c       	sbci	r31, 0xC6	; 198
    2d02:	40 81       	ld	r20, Z
    2d04:	51 81       	ldd	r21, Z+1	; 0x01
    2d06:	41 15       	cp	r20, r1
    2d08:	51 05       	cpc	r21, r1
    2d0a:	21 f0       	breq	.+8      	; 0x2d14 <ProcessInput+0x4e2>
                    PopulateObject(route[currDepth+1], &actObj1);
    2d0c:	64 ed       	ldi	r22, 0xD4	; 212
    2d0e:	78 e3       	ldi	r23, 0x38	; 56
    2d10:	ca 01       	movw	r24, r20
    2d12:	1e c0       	rjmp	.+60     	; 0x2d50 <ProcessInput+0x51e>
//TODO: CHECKSTATE -> A_CANTLOOK item
                    SetResponse(elements++, actObj1.addrStr[DESC], actObj1.lenStr[DESC],GAME);   
                } else if (currDepth) {
    2d14:	99 23       	and	r25, r25
    2d16:	09 f4       	brne	.+2      	; 0x2d1a <ProcessInput+0x4e8>
                    if (CheckLetter(route[currDepth-1], data[1])) {
    2d18:	ae c5       	rjmp	.+2908   	; 0x3876 <ProcessInput+0x1044>
    2d1a:	22 0f       	add	r18, r18
    2d1c:	33 1f       	adc	r19, r19
    2d1e:	f9 01       	movw	r30, r18
    2d20:	ed 52       	subi	r30, 0x2D	; 45
    2d22:	f6 4c       	sbci	r31, 0xC6	; 198
    2d24:	d8 01       	movw	r26, r16
    2d26:	11 96       	adiw	r26, 0x01	; 1
    2d28:	6c 91       	ld	r22, X
    2d2a:	80 81       	ld	r24, Z
    2d2c:	91 81       	ldd	r25, Z+1	; 0x01
    2d2e:	4b d9       	rcall	.-3434   	; 0x1fc6 <CheckLetter>
    2d30:	81 11       	cpse	r24, r1
    2d32:	03 c0       	rjmp	.+6      	; 0x2d3a <ProcessInput+0x508>
}

//The game logic!
uint8_t ProcessInput(uint8_t *data){
    static object_model_t actObj1, actObj2;
    uint8_t elements = 1;
    2d34:	77 24       	eor	r7, r7
    2d36:	73 94       	inc	r7
                    PopulateObject(route[currDepth+1], &actObj1);
//TODO: CHECKSTATE -> A_CANTLOOK item
                    SetResponse(elements++, actObj1.addrStr[DESC], actObj1.lenStr[DESC],GAME);   
                } else if (currDepth) {
                    if (CheckLetter(route[currDepth-1], data[1])) {
                        PopulateObject(route[currDepth-1], &actObj1);
    2d38:	6c c5       	rjmp	.+2776   	; 0x3812 <ProcessInput+0xfe0>
    2d3a:	e0 91 29 38 	lds	r30, 0x3829	; 0x803829 <currDepth>
    2d3e:	f0 e0       	ldi	r31, 0x00	; 0
    2d40:	ee 0f       	add	r30, r30
    2d42:	ff 1f       	adc	r31, r31
    2d44:	ed 52       	subi	r30, 0x2D	; 45
    2d46:	f6 4c       	sbci	r31, 0xC6	; 198
    2d48:	64 ed       	ldi	r22, 0xD4	; 212
    2d4a:	78 e3       	ldi	r23, 0x38	; 56
    2d4c:	80 81       	ld	r24, Z
    2d4e:	91 81       	ldd	r25, Z+1	; 0x01
    2d50:	c3 d8       	rcall	.-3706   	; 0x1ed8 <PopulateObject>
                        SetResponse(elements++, actObj1.addrStr[DESC], actObj1.lenStr[DESC],GAME);
    2d52:	80 91 f0 38 	lds	r24, 0x38F0	; 0x8038f0 <actObj1.3994+0x1c>
    2d56:	90 91 f1 38 	lds	r25, 0x38F1	; 0x8038f1 <actObj1.3994+0x1d>
    return 0;
}

//
void SetResponse(uint8_t number, uint16_t address, uint16_t length, uint8_t type){
    reactStr[0][number]=address;
    2d5a:	20 91 e2 38 	lds	r18, 0x38E2	; 0x8038e2 <actObj1.3994+0xe>
    2d5e:	30 91 e3 38 	lds	r19, 0x38E3	; 0x8038e3 <actObj1.3994+0xf>
    2d62:	20 93 17 39 	sts	0x3917, r18	; 0x803917 <reactStr+0x2>
    2d66:	30 93 18 39 	sts	0x3918, r19	; 0x803918 <reactStr+0x3>
    reactStr[1][number]=length;
    2d6a:	80 93 57 39 	sts	0x3957, r24	; 0x803957 <reactStr+0x42>
    2d6e:	90 93 58 39 	sts	0x3958, r25	; 0x803958 <reactStr+0x43>
    reactStr[2][number]=type;
    2d72:	10 92 97 39 	sts	0x3997, r1	; 0x803997 <reactStr+0x82>
    2d76:	10 92 98 39 	sts	0x3998, r1	; 0x803998 <reactStr+0x83>
    2d7a:	2a ce       	rjmp	.-940    	; 0x29d0 <ProcessInput+0x19e>
                    SetResponse(elements++, A_DONTSEE, L_DONTSEE, TEASER);
                }
            }
        
        //Pick up an object
        } else if (data[0] == 'p') {
    2d7c:	80 37       	cpi	r24, 0x70	; 112
    2d7e:	09 f0       	breq	.+2      	; 0x2d82 <ProcessInput+0x550>
    2d80:	96 c0       	rjmp	.+300    	; 0x2eae <ProcessInput+0x67c>
            if (inventory[0]&&inventory[1]) {
    2d82:	80 91 3a 38 	lds	r24, 0x383A	; 0x80383a <inventory>
    2d86:	90 91 3b 38 	lds	r25, 0x383B	; 0x80383b <inventory+0x1>
    2d8a:	89 2b       	or	r24, r25
    2d8c:	79 f0       	breq	.+30     	; 0x2dac <ProcessInput+0x57a>
    2d8e:	80 91 3c 38 	lds	r24, 0x383C	; 0x80383c <inventory+0x2>
    2d92:	90 91 3d 38 	lds	r25, 0x383D	; 0x80383d <inventory+0x3>
    2d96:	89 2b       	or	r24, r25
    2d98:	49 f0       	breq	.+18     	; 0x2dac <ProcessInput+0x57a>
    return 0;
}

//
void SetResponse(uint8_t number, uint16_t address, uint16_t length, uint8_t type){
    reactStr[0][number]=address;
    2d9a:	85 e4       	ldi	r24, 0x45	; 69
    2d9c:	98 e7       	ldi	r25, 0x78	; 120
    2d9e:	80 93 17 39 	sts	0x3917, r24	; 0x803917 <reactStr+0x2>
    2da2:	90 93 18 39 	sts	0x3918, r25	; 0x803918 <reactStr+0x3>
    reactStr[1][number]=length;
    2da6:	89 e5       	ldi	r24, 0x59	; 89
    2da8:	90 e0       	ldi	r25, 0x00	; 0
    2daa:	08 ce       	rjmp	.-1008   	; 0x29bc <ProcessInput+0x18a>
        
        //Pick up an object
        } else if (data[0] == 'p') {
            if (inventory[0]&&inventory[1]) {
                SetResponse(elements++, A_CARRYTWO, L_CARRYTWO, TEASER);
            } else if (inputLen != 2) {
    2dac:	b2 e0       	ldi	r27, 0x02	; 2
    2dae:	fb 12       	cpse	r15, r27
    2db0:	70 cd       	rjmp	.-1312   	; 0x2892 <ProcessInput+0x60>
                SetResponse(elements++, A_NOTPOSSIBLE, L_NOTPOSSIBLE, TEASER);
            } else {
                route[currDepth+1] = FindChild(route[currDepth], data[1], 0);
    2db2:	e0 90 29 38 	lds	r14, 0x3829	; 0x803829 <currDepth>
    2db6:	f1 2c       	mov	r15, r1
    2db8:	f7 01       	movw	r30, r14
    2dba:	ee 0f       	add	r30, r30
    2dbc:	ff 1f       	adc	r31, r31
    2dbe:	eb 52       	subi	r30, 0x2B	; 43
    2dc0:	f6 4c       	sbci	r31, 0xC6	; 198
    2dc2:	40 e0       	ldi	r20, 0x00	; 0
    2dc4:	50 e0       	ldi	r21, 0x00	; 0
    2dc6:	d8 01       	movw	r26, r16
    2dc8:	11 96       	adiw	r26, 0x01	; 1
    2dca:	6c 91       	ld	r22, X
    2dcc:	80 81       	ld	r24, Z
    2dce:	91 81       	ldd	r25, Z+1	; 0x01
    2dd0:	4e d9       	rcall	.-3428   	; 0x206e <FindChild>
    2dd2:	f7 01       	movw	r30, r14
    2dd4:	ee 0f       	add	r30, r30
    2dd6:	ff 1f       	adc	r31, r31
    2dd8:	e9 52       	subi	r30, 0x29	; 41
    2dda:	f6 4c       	sbci	r31, 0xC6	; 198
    2ddc:	80 83       	st	Z, r24
    2dde:	91 83       	std	Z+1, r25	; 0x01
                if (route[currDepth+1]) {
    2de0:	20 91 29 38 	lds	r18, 0x3829	; 0x803829 <currDepth>
    2de4:	30 e0       	ldi	r19, 0x00	; 0
    2de6:	2f 5f       	subi	r18, 0xFF	; 255
    2de8:	3f 4f       	sbci	r19, 0xFF	; 255
    2dea:	22 0f       	add	r18, r18
    2dec:	33 1f       	adc	r19, r19
    2dee:	f9 01       	movw	r30, r18
    2df0:	eb 52       	subi	r30, 0x2B	; 43
    2df2:	f6 4c       	sbci	r31, 0xC6	; 198
    2df4:	80 81       	ld	r24, Z
    2df6:	91 81       	ldd	r25, Z+1	; 0x01
    2df8:	00 97       	sbiw	r24, 0x00	; 0
    2dfa:	09 f4       	brne	.+2      	; 0x2dfe <ProcessInput+0x5cc>
    2dfc:	ca c3       	rjmp	.+1940   	; 0x3592 <ProcessInput+0xd60>
                    if ((route[currDepth+1] == inventory[0])||(route[currDepth+1] == inventory[1])) {
    2dfe:	40 91 3a 38 	lds	r20, 0x383A	; 0x80383a <inventory>
    2e02:	50 91 3b 38 	lds	r21, 0x383B	; 0x80383b <inventory+0x1>
    2e06:	84 17       	cp	r24, r20
    2e08:	95 07       	cpc	r25, r21
    2e0a:	39 f0       	breq	.+14     	; 0x2e1a <ProcessInput+0x5e8>
    2e0c:	40 91 3c 38 	lds	r20, 0x383C	; 0x80383c <inventory+0x2>
    2e10:	50 91 3d 38 	lds	r21, 0x383D	; 0x80383d <inventory+0x3>
    2e14:	84 17       	cp	r24, r20
    2e16:	95 07       	cpc	r25, r21
    2e18:	c1 f4       	brne	.+48     	; 0x2e4a <ProcessInput+0x618>
    return 0;
}

//
void SetResponse(uint8_t number, uint16_t address, uint16_t length, uint8_t type){
    reactStr[0][number]=address;
    2e1a:	80 e2       	ldi	r24, 0x20	; 32
    2e1c:	98 e7       	ldi	r25, 0x78	; 120
    2e1e:	80 93 17 39 	sts	0x3917, r24	; 0x803917 <reactStr+0x2>
    2e22:	90 93 18 39 	sts	0x3918, r25	; 0x803918 <reactStr+0x3>
    reactStr[1][number]=length;
    2e26:	85 e2       	ldi	r24, 0x25	; 37
    2e28:	90 e0       	ldi	r25, 0x00	; 0
    2e2a:	80 93 57 39 	sts	0x3957, r24	; 0x803957 <reactStr+0x42>
    2e2e:	90 93 58 39 	sts	0x3958, r25	; 0x803958 <reactStr+0x43>
    reactStr[2][number]=type;
    2e32:	81 e0       	ldi	r24, 0x01	; 1
    2e34:	90 e0       	ldi	r25, 0x00	; 0
    2e36:	80 93 97 39 	sts	0x3997, r24	; 0x803997 <reactStr+0x82>
    2e3a:	90 93 98 39 	sts	0x3998, r25	; 0x803998 <reactStr+0x83>
            } else {
                route[currDepth+1] = FindChild(route[currDepth], data[1], 0);
                if (route[currDepth+1]) {
                    if ((route[currDepth+1] == inventory[0])||(route[currDepth+1] == inventory[1])) {
                        SetResponse(elements++, A_ALREADYCARRYING, L_ALREADYCARRYING, TEASER);
                        route[currDepth+1] = 0;
    2e3e:	f9 01       	movw	r30, r18
    2e40:	eb 52       	subi	r30, 0x2B	; 43
    2e42:	f6 4c       	sbci	r31, 0xC6	; 198
    2e44:	10 82       	st	Z, r1
    2e46:	11 82       	std	Z+1, r1	; 0x01
                    } else {
                        //Put item in the inventory if possible
                        PopulateObject(route[currDepth+1], &actObj1);  
    2e48:	c3 cd       	rjmp	.-1146   	; 0x29d0 <ProcessInput+0x19e>
    2e4a:	64 ed       	ldi	r22, 0xD4	; 212
    2e4c:	78 e3       	ldi	r23, 0x38	; 56
    2e4e:	44 d8       	rcall	.-3960   	; 0x1ed8 <PopulateObject>
                        if (CheckState(actObj1.byteField[ACTION_ACL])) {
    2e50:	80 91 db 38 	lds	r24, 0x38DB	; 0x8038db <actObj1.3994+0x7>
    2e54:	0e 94 bf 0a 	call	0x157e	; 0x157e <CheckState>
    2e58:	88 23       	and	r24, r24
    2e5a:	09 f4       	brne	.+2      	; 0x2e5e <ProcessInput+0x62c>
    2e5c:	75 c3       	rjmp	.+1770   	; 0x3548 <ProcessInput+0xd16>
                            if (actObj1.byteField[ITEM_NR]) {
    2e5e:	80 91 df 38 	lds	r24, 0x38DF	; 0x8038df <actObj1.3994+0xb>
    2e62:	88 23       	and	r24, r24
    2e64:	09 f4       	brne	.+2      	; 0x2e68 <ProcessInput+0x636>
    2e66:	15 cd       	rjmp	.-1494   	; 0x2892 <ProcessInput+0x60>
                                if (inventory[0]) {
    2e68:	80 91 3a 38 	lds	r24, 0x383A	; 0x80383a <inventory>
    2e6c:	90 91 3b 38 	lds	r25, 0x383B	; 0x80383b <inventory+0x1>
    2e70:	e0 91 29 38 	lds	r30, 0x3829	; 0x803829 <currDepth>
                                    inventory[1] = route[currDepth+1];
    2e74:	f0 e0       	ldi	r31, 0x00	; 0
    2e76:	ee 0f       	add	r30, r30
    2e78:	ff 1f       	adc	r31, r31
    2e7a:	e9 52       	subi	r30, 0x29	; 41
    2e7c:	f6 4c       	sbci	r31, 0xC6	; 198
                    } else {
                        //Put item in the inventory if possible
                        PopulateObject(route[currDepth+1], &actObj1);  
                        if (CheckState(actObj1.byteField[ACTION_ACL])) {
                            if (actObj1.byteField[ITEM_NR]) {
                                if (inventory[0]) {
    2e7e:	89 2b       	or	r24, r25
    2e80:	39 f0       	breq	.+14     	; 0x2e90 <ProcessInput+0x65e>
                                    inventory[1] = route[currDepth+1];
    2e82:	80 81       	ld	r24, Z
    2e84:	91 81       	ldd	r25, Z+1	; 0x01
    2e86:	80 93 3c 38 	sts	0x383C, r24	; 0x80383c <inventory+0x2>
    2e8a:	90 93 3d 38 	sts	0x383D, r25	; 0x80383d <inventory+0x3>
    2e8e:	06 c0       	rjmp	.+12     	; 0x2e9c <ProcessInput+0x66a>
                                } else {
                                    inventory[0] = route[currDepth+1];
    2e90:	80 81       	ld	r24, Z
    2e92:	91 81       	ldd	r25, Z+1	; 0x01
    2e94:	80 93 3a 38 	sts	0x383A, r24	; 0x80383a <inventory>
    2e98:	90 93 3b 38 	sts	0x383B, r25	; 0x80383b <inventory+0x1>
    return 0;
}

//
void SetResponse(uint8_t number, uint16_t address, uint16_t length, uint8_t type){
    reactStr[0][number]=address;
    2e9c:	8a e0       	ldi	r24, 0x0A	; 10
    2e9e:	98 e7       	ldi	r25, 0x78	; 120
    2ea0:	80 93 17 39 	sts	0x3917, r24	; 0x803917 <reactStr+0x2>
    2ea4:	90 93 18 39 	sts	0x3918, r25	; 0x803918 <reactStr+0x3>
    reactStr[1][number]=length;
    2ea8:	86 e1       	ldi	r24, 0x16	; 22
    2eaa:	90 e0       	ldi	r25, 0x00	; 0
    2eac:	5e c2       	rjmp	.+1212   	; 0x336a <ProcessInput+0xb38>
                } else SetResponse(elements++, A_NOSUCHOBJECT, L_NOSUCHOBJECT, TEASER);
            }
        } else

        //Drop item if in inventory
        if (data[0] == 'd') {
    2eae:	84 36       	cpi	r24, 0x64	; 100
    2eb0:	d9 f4       	brne	.+54     	; 0x2ee8 <ProcessInput+0x6b6>
            if ((inventory[0] == 0)&&(inventory[1] == 0)){
    2eb2:	80 91 3a 38 	lds	r24, 0x383A	; 0x80383a <inventory>
    2eb6:	90 91 3b 38 	lds	r25, 0x383B	; 0x80383b <inventory+0x1>
    2eba:	00 97       	sbiw	r24, 0x00	; 0
    2ebc:	09 f0       	breq	.+2      	; 0x2ec0 <ProcessInput+0x68e>
    2ebe:	de c4       	rjmp	.+2492   	; 0x387c <ProcessInput+0x104a>
    2ec0:	80 91 3c 38 	lds	r24, 0x383C	; 0x80383c <inventory+0x2>
    2ec4:	90 91 3d 38 	lds	r25, 0x383D	; 0x80383d <inventory+0x3>
    2ec8:	89 2b       	or	r24, r25
    2eca:	49 f4       	brne	.+18     	; 0x2ede <ProcessInput+0x6ac>
    return 0;
}

//
void SetResponse(uint8_t number, uint16_t address, uint16_t length, uint8_t type){
    reactStr[0][number]=address;
    2ecc:	84 ee       	ldi	r24, 0xE4	; 228
    2ece:	97 e7       	ldi	r25, 0x77	; 119
    2ed0:	80 93 17 39 	sts	0x3917, r24	; 0x803917 <reactStr+0x2>
    2ed4:	90 93 18 39 	sts	0x3918, r25	; 0x803918 <reactStr+0x3>
    reactStr[1][number]=length;
    2ed8:	86 e2       	ldi	r24, 0x26	; 38
    2eda:	90 e0       	ldi	r25, 0x00	; 0
    2edc:	6f cd       	rjmp	.-1314   	; 0x29bc <ProcessInput+0x18a>

        //Drop item if in inventory
        if (data[0] == 'd') {
            if ((inventory[0] == 0)&&(inventory[1] == 0)){
                SetResponse(elements++, A_EMPTYHANDS, L_EMPTYHANDS, TEASER);
            } else if (inputLen != 2) {
    2ede:	b2 e0       	ldi	r27, 0x02	; 2
    2ee0:	fb 16       	cp	r15, r27
    2ee2:	09 f4       	brne	.+2      	; 0x2ee6 <ProcessInput+0x6b4>
    2ee4:	31 c5       	rjmp	.+2658   	; 0x3948 <ProcessInput+0x1116>
    2ee6:	d5 cc       	rjmp	.-1622   	; 0x2892 <ProcessInput+0x60>
                    if (x) SetResponse(elements++, A_NOTCARRYING, L_NOTCARRYING, TEASER);
                }
            }

        //Inventory list
        } else if (data[0] == 'i') {
    2ee8:	89 36       	cpi	r24, 0x69	; 105
    2eea:	09 f0       	breq	.+2      	; 0x2eee <ProcessInput+0x6bc>
    2eec:	7b c0       	rjmp	.+246    	; 0x2fe4 <ProcessInput+0x7b2>
            if ((inventory[0] == 0)&&(inventory[1] == 0)){
    2eee:	80 91 3a 38 	lds	r24, 0x383A	; 0x80383a <inventory>
    2ef2:	90 91 3b 38 	lds	r25, 0x383B	; 0x80383b <inventory+0x1>
    2ef6:	89 2b       	or	r24, r25
    2ef8:	31 f4       	brne	.+12     	; 0x2f06 <ProcessInput+0x6d4>
    2efa:	80 91 3c 38 	lds	r24, 0x383C	; 0x80383c <inventory+0x2>
    2efe:	90 91 3d 38 	lds	r25, 0x383D	; 0x80383d <inventory+0x3>
    2f02:	89 2b       	or	r24, r25
    2f04:	19 f3       	breq	.-58     	; 0x2ecc <ProcessInput+0x69a>
    return 0;
}

//
void SetResponse(uint8_t number, uint16_t address, uint16_t length, uint8_t type){
    reactStr[0][number]=address;
    2f06:	8a e0       	ldi	r24, 0x0A	; 10
    2f08:	98 e7       	ldi	r25, 0x78	; 120
    2f0a:	80 93 17 39 	sts	0x3917, r24	; 0x803917 <reactStr+0x2>
    2f0e:	90 93 18 39 	sts	0x3918, r25	; 0x803918 <reactStr+0x3>
    reactStr[1][number]=length;
    2f12:	86 e1       	ldi	r24, 0x16	; 22
    2f14:	90 e0       	ldi	r25, 0x00	; 0
    2f16:	80 93 57 39 	sts	0x3957, r24	; 0x803957 <reactStr+0x42>
    2f1a:	90 93 58 39 	sts	0x3958, r25	; 0x803958 <reactStr+0x43>
    reactStr[2][number]=type;
    2f1e:	81 e0       	ldi	r24, 0x01	; 1
    2f20:	90 e0       	ldi	r25, 0x00	; 0
    2f22:	80 93 97 39 	sts	0x3997, r24	; 0x803997 <reactStr+0x82>
    2f26:	90 93 98 39 	sts	0x3998, r25	; 0x803998 <reactStr+0x83>
    2f2a:	2a e3       	ldi	r18, 0x3A	; 58
    2f2c:	e2 2e       	mov	r14, r18
    2f2e:	28 e3       	ldi	r18, 0x38	; 56
    2f30:	f2 2e       	mov	r15, r18
    2f32:	3e e3       	ldi	r19, 0x3E	; 62
    2f34:	63 2e       	mov	r6, r19
    2f36:	38 e3       	ldi	r19, 0x38	; 56
    2f38:	73 2e       	mov	r7, r19
        //Inventory list
        } else if (data[0] == 'i') {
            if ((inventory[0] == 0)&&(inventory[1] == 0)){
                SetResponse(elements++, A_EMPTYHANDS, L_EMPTYHANDS, TEASER);
            } else {
                SetResponse(elements++, A_NOWCARRING, L_NOWCARRING, TEASER);
    2f3a:	42 e0       	ldi	r20, 0x02	; 2
    2f3c:	54 2e       	mov	r5, r20
    return 0;
}

//
void SetResponse(uint8_t number, uint16_t address, uint16_t length, uint8_t type){
    reactStr[0][number]=address;
    2f3e:	59 e5       	ldi	r21, 0x59	; 89
    2f40:	c5 2e       	mov	r12, r21
    2f42:	5a e7       	ldi	r21, 0x7A	; 122
    2f44:	d5 2e       	mov	r13, r21
    reactStr[1][number]=length;
    2f46:	62 e0       	ldi	r22, 0x02	; 2
    2f48:	a6 2e       	mov	r10, r22
    2f4a:	b1 2c       	mov	r11, r1
    reactStr[2][number]=type;
    2f4c:	88 24       	eor	r8, r8
    2f4e:	83 94       	inc	r8
    2f50:	91 2c       	mov	r9, r1
            } else {
                SetResponse(elements++, A_NOWCARRING, L_NOWCARRING, TEASER);
                //SetResponse(elements++, A_SPACE, L_SPACE, TEASER);
                
                for (uint8_t x=0; x<2; ++x) {
                    if (inventory[x]) {
    2f52:	d7 01       	movw	r26, r14
    2f54:	8d 91       	ld	r24, X+
    2f56:	9d 91       	ld	r25, X+
    2f58:	7d 01       	movw	r14, r26
    2f5a:	00 97       	sbiw	r24, 0x00	; 0
    2f5c:	d9 f1       	breq	.+118    	; 0x2fd4 <ProcessInput+0x7a2>
                        PopulateObject(inventory[x], &actObj1);
    2f5e:	64 ed       	ldi	r22, 0xD4	; 212
    2f60:	78 e3       	ldi	r23, 0x38	; 56
    2f62:	0e 94 6c 0f 	call	0x1ed8	; 0x1ed8 <PopulateObject>
                        SetResponse(elements++, actObj1.addrStr[NAME], actObj1.lenStr[NAME], GAME);
    2f66:	80 91 ee 38 	lds	r24, 0x38EE	; 0x8038ee <actObj1.3994+0x1a>
    2f6a:	90 91 ef 38 	lds	r25, 0x38EF	; 0x8038ef <actObj1.3994+0x1b>
    return 0;
}

//
void SetResponse(uint8_t number, uint16_t address, uint16_t length, uint8_t type){
    reactStr[0][number]=address;
    2f6e:	e5 2d       	mov	r30, r5
    2f70:	f0 e0       	ldi	r31, 0x00	; 0
    2f72:	df 01       	movw	r26, r30
    2f74:	aa 0f       	add	r26, r26
    2f76:	bb 1f       	adc	r27, r27
    2f78:	ab 5e       	subi	r26, 0xEB	; 235
    2f7a:	b6 4c       	sbci	r27, 0xC6	; 198
    2f7c:	20 91 e0 38 	lds	r18, 0x38E0	; 0x8038e0 <actObj1.3994+0xc>
    2f80:	30 91 e1 38 	lds	r19, 0x38E1	; 0x8038e1 <actObj1.3994+0xd>
    2f84:	2d 93       	st	X+, r18
    2f86:	3c 93       	st	X, r19
    reactStr[1][number]=length;
    2f88:	df 01       	movw	r26, r30
    2f8a:	aa 0f       	add	r26, r26
    2f8c:	bb 1f       	adc	r27, r27
    2f8e:	ab 5a       	subi	r26, 0xAB	; 171
    2f90:	b6 4c       	sbci	r27, 0xC6	; 198
    2f92:	8d 93       	st	X+, r24
    2f94:	9c 93       	st	X, r25
    reactStr[2][number]=type;
    2f96:	ee 0f       	add	r30, r30
    2f98:	ff 1f       	adc	r31, r31
    2f9a:	eb 56       	subi	r30, 0x6B	; 107
    2f9c:	f6 4c       	sbci	r31, 0xC6	; 198
    2f9e:	10 82       	st	Z, r1
    2fa0:	11 82       	std	Z+1, r1	; 0x01
    return 0;
}

//
void SetResponse(uint8_t number, uint16_t address, uint16_t length, uint8_t type){
    reactStr[0][number]=address;
    2fa2:	e1 e0       	ldi	r30, 0x01	; 1
    2fa4:	e5 0d       	add	r30, r5
    2fa6:	f0 e0       	ldi	r31, 0x00	; 0
    2fa8:	53 94       	inc	r5
    2faa:	53 94       	inc	r5
    2fac:	df 01       	movw	r26, r30
    2fae:	aa 0f       	add	r26, r26
    2fb0:	bb 1f       	adc	r27, r27
    2fb2:	ab 5e       	subi	r26, 0xEB	; 235
    2fb4:	b6 4c       	sbci	r27, 0xC6	; 198
    2fb6:	cd 92       	st	X+, r12
    2fb8:	dc 92       	st	X, r13
    reactStr[1][number]=length;
    2fba:	df 01       	movw	r26, r30
    2fbc:	aa 0f       	add	r26, r26
    2fbe:	bb 1f       	adc	r27, r27
    2fc0:	ab 5a       	subi	r26, 0xAB	; 171
    2fc2:	b6 4c       	sbci	r27, 0xC6	; 198
    2fc4:	ad 92       	st	X+, r10
    2fc6:	bc 92       	st	X, r11
    reactStr[2][number]=type;
    2fc8:	ee 0f       	add	r30, r30
    2fca:	ff 1f       	adc	r31, r31
    2fcc:	eb 56       	subi	r30, 0x6B	; 107
    2fce:	f6 4c       	sbci	r31, 0xC6	; 198
    2fd0:	80 82       	st	Z, r8
    2fd2:	91 82       	std	Z+1, r9	; 0x01
                SetResponse(elements++, A_EMPTYHANDS, L_EMPTYHANDS, TEASER);
            } else {
                SetResponse(elements++, A_NOWCARRING, L_NOWCARRING, TEASER);
                //SetResponse(elements++, A_SPACE, L_SPACE, TEASER);
                
                for (uint8_t x=0; x<2; ++x) {
    2fd4:	6e 14       	cp	r6, r14
    2fd6:	7f 04       	cpc	r7, r15
    2fd8:	09 f0       	breq	.+2      	; 0x2fdc <ProcessInput+0x7aa>
    2fda:	bb cf       	rjmp	.-138    	; 0x2f52 <ProcessInput+0x720>
                        SetResponse(elements++, actObj1.addrStr[NAME], actObj1.lenStr[NAME], GAME);
                        SetResponse(elements++, A_COMMA, L_COMMA, TEASER);
                        //SetResponse(elements++, A_SPACE, L_SPACE, TEASER);
                    }
                }
                elements -= 1;
    2fdc:	77 24       	eor	r7, r7
    2fde:	7a 94       	dec	r7
    2fe0:	75 0c       	add	r7, r5
    2fe2:	17 c4       	rjmp	.+2094   	; 0x3812 <ProcessInput+0xfe0>
            }            
        
        //Talk, use, give, read
        } else if ((data[0] == 't')||(data[0] == 'u')||(data[0] == 'g')||(data[0] == 'r')) {
    2fe4:	9c e8       	ldi	r25, 0x8C	; 140
    2fe6:	98 0f       	add	r25, r24
    2fe8:	92 30       	cpi	r25, 0x02	; 2
    2fea:	28 f0       	brcs	.+10     	; 0x2ff6 <ProcessInput+0x7c4>
    2fec:	87 36       	cpi	r24, 0x67	; 103
    2fee:	19 f0       	breq	.+6      	; 0x2ff6 <ProcessInput+0x7c4>
    2ff0:	82 37       	cpi	r24, 0x72	; 114
    2ff2:	09 f0       	breq	.+2      	; 0x2ff6 <ProcessInput+0x7c4>
    2ff4:	d7 c2       	rjmp	.+1454   	; 0x35a4 <ProcessInput+0xd72>
            if ((inputLen<2)||(inputLen>3)) {
    2ff6:	8e ef       	ldi	r24, 0xFE	; 254
    2ff8:	8f 0d       	add	r24, r15
    2ffa:	82 30       	cpi	r24, 0x02	; 2
    2ffc:	08 f0       	brcs	.+2      	; 0x3000 <ProcessInput+0x7ce>
    2ffe:	49 cc       	rjmp	.-1902   	; 0x2892 <ProcessInput+0x60>
                SetResponse(elements++, A_NOTPOSSIBLE, L_NOTPOSSIBLE, TEASER);                
            
            //Check for visible person or object first
            } else {
                route[currDepth+1] = FindChild(route[currDepth], data[inputLen-1], 0);
    3000:	e0 91 29 38 	lds	r30, 0x3829	; 0x803829 <currDepth>
    3004:	ce 2e       	mov	r12, r30
    3006:	d1 2c       	mov	r13, r1
    3008:	d8 01       	movw	r26, r16
    300a:	af 0d       	add	r26, r15
    300c:	b1 1d       	adc	r27, r1
    300e:	11 97       	sbiw	r26, 0x01	; 1
    3010:	f6 01       	movw	r30, r12
    3012:	ee 0f       	add	r30, r30
    3014:	ff 1f       	adc	r31, r31
    3016:	eb 52       	subi	r30, 0x2B	; 43
    3018:	f6 4c       	sbci	r31, 0xC6	; 198
    301a:	40 e0       	ldi	r20, 0x00	; 0
    301c:	50 e0       	ldi	r21, 0x00	; 0
    301e:	6c 91       	ld	r22, X
    3020:	80 81       	ld	r24, Z
    3022:	91 81       	ldd	r25, Z+1	; 0x01
    3024:	24 d8       	rcall	.-4024   	; 0x206e <FindChild>
    3026:	f6 01       	movw	r30, r12
    3028:	ee 0f       	add	r30, r30
    302a:	ff 1f       	adc	r31, r31
    302c:	e9 52       	subi	r30, 0x29	; 41
    302e:	f6 4c       	sbci	r31, 0xC6	; 198
    3030:	80 83       	st	Z, r24
    3032:	91 83       	std	Z+1, r25	; 0x01
                if (route[currDepth+1]) {
    3034:	e0 91 29 38 	lds	r30, 0x3829	; 0x803829 <currDepth>
    3038:	f0 e0       	ldi	r31, 0x00	; 0
    303a:	ee 0f       	add	r30, r30
    303c:	ff 1f       	adc	r31, r31
    303e:	e9 52       	subi	r30, 0x29	; 41
    3040:	f6 4c       	sbci	r31, 0xC6	; 198
    3042:	80 81       	ld	r24, Z
    3044:	91 81       	ldd	r25, Z+1	; 0x01
    3046:	00 97       	sbiw	r24, 0x00	; 0
    3048:	09 f4       	brne	.+2      	; 0x304c <ProcessInput+0x81a>
    304a:	9a c2       	rjmp	.+1332   	; 0x3580 <ProcessInput+0xd4e>
                    
                    //Give item to person / use item on object 
                    if ((inputLen == 3)&&((data[0] == 'u')||(data[0] == 'g'))) {
    304c:	b3 e0       	ldi	r27, 0x03	; 3
    304e:	fb 12       	cpse	r15, r27
    3050:	78 c1       	rjmp	.+752    	; 0x3342 <ProcessInput+0xb10>
    3052:	f8 01       	movw	r30, r16
    3054:	20 81       	ld	r18, Z
    3056:	25 37       	cpi	r18, 0x75	; 117
    3058:	19 f0       	breq	.+6      	; 0x3060 <ProcessInput+0x82e>
    305a:	27 36       	cpi	r18, 0x67	; 103
    305c:	09 f0       	breq	.+2      	; 0x3060 <ProcessInput+0x82e>
    305e:	71 c1       	rjmp	.+738    	; 0x3342 <ProcessInput+0xb10>
    3060:	61 2c       	mov	r6, r1
    3062:	77 24       	eor	r7, r7
    3064:	73 94       	inc	r7
    return 0;
}

//
void SetResponse(uint8_t number, uint16_t address, uint16_t length, uint8_t type){
    reactStr[0][number]=address;
    3066:	54 e6       	ldi	r21, 0x64	; 100
    3068:	c5 2e       	mov	r12, r21
    306a:	59 e7       	ldi	r21, 0x79	; 121
    306c:	d5 2e       	mov	r13, r21
    reactStr[1][number]=length;
    306e:	61 e2       	ldi	r22, 0x21	; 33
    3070:	a6 2e       	mov	r10, r22
    3072:	b1 2c       	mov	r11, r1
    reactStr[2][number]=type;
    3074:	88 24       	eor	r8, r8
    3076:	83 94       	inc	r8
    3078:	91 2c       	mov	r9, r1
                if (route[currDepth+1]) {
                    
                    //Give item to person / use item on object 
                    if ((inputLen == 3)&&((data[0] == 'u')||(data[0] == 'g'))) {
                        for (uint8_t x=0; x<2; x++) {
                            if (inventory[x]) { 
    307a:	e6 2c       	mov	r14, r6
    307c:	f1 2c       	mov	r15, r1
    307e:	c7 01       	movw	r24, r14
    3080:	88 0f       	add	r24, r24
    3082:	99 1f       	adc	r25, r25
    3084:	9c 01       	movw	r18, r24
    3086:	26 5c       	subi	r18, 0xC6	; 198
    3088:	37 4c       	sbci	r19, 0xC7	; 199
    308a:	79 01       	movw	r14, r18
    308c:	d9 01       	movw	r26, r18
    308e:	8d 91       	ld	r24, X+
    3090:	9c 91       	ld	r25, X
    3092:	00 97       	sbiw	r24, 0x00	; 0
    3094:	81 f0       	breq	.+32     	; 0x30b6 <ProcessInput+0x884>
                                if (CheckLetter(inventory[x], data[1])) {
    3096:	f8 01       	movw	r30, r16
    3098:	61 81       	ldd	r22, Z+1	; 0x01
    309a:	0e 94 e3 0f 	call	0x1fc6	; 0x1fc6 <CheckLetter>
    309e:	88 23       	and	r24, r24
    30a0:	51 f0       	breq	.+20     	; 0x30b6 <ProcessInput+0x884>
                                    PopulateObject(inventory[x], &actObj2);
    30a2:	69 ea       	ldi	r22, 0xA9	; 169
    30a4:	78 e3       	ldi	r23, 0x38	; 56
    30a6:	d7 01       	movw	r26, r14
    30a8:	8d 91       	ld	r24, X+
    30aa:	9c 91       	ld	r25, X
    30ac:	0e 94 6c 0f 	call	0x1ed8	; 0x1ed8 <PopulateObject>
                                    x = 2;
    30b0:	32 e0       	ldi	r19, 0x02	; 2
    30b2:	63 2e       	mov	r6, r19
    30b4:	1e c0       	rjmp	.+60     	; 0x30f2 <ProcessInput+0x8c0>
                                }
                            }
                            if (x == 1) { 
    30b6:	b1 e0       	ldi	r27, 0x01	; 1
    30b8:	6b 12       	cpse	r6, r27
    30ba:	1a c0       	rjmp	.+52     	; 0x30f0 <ProcessInput+0x8be>
    return 0;
}

//
void SetResponse(uint8_t number, uint16_t address, uint16_t length, uint8_t type){
    reactStr[0][number]=address;
    30bc:	e7 2d       	mov	r30, r7
    30be:	f0 e0       	ldi	r31, 0x00	; 0
    30c0:	df 01       	movw	r26, r30
    30c2:	aa 0f       	add	r26, r26
    30c4:	bb 1f       	adc	r27, r27
    30c6:	ab 5e       	subi	r26, 0xEB	; 235
    30c8:	b6 4c       	sbci	r27, 0xC6	; 198
    30ca:	cd 92       	st	X+, r12
    30cc:	dc 92       	st	X, r13
    reactStr[1][number]=length;
    30ce:	df 01       	movw	r26, r30
    30d0:	aa 0f       	add	r26, r26
    30d2:	bb 1f       	adc	r27, r27
    30d4:	ab 5a       	subi	r26, 0xAB	; 171
    30d6:	b6 4c       	sbci	r27, 0xC6	; 198
    30d8:	ad 92       	st	X+, r10
    30da:	bc 92       	st	X, r11
    reactStr[2][number]=type;
    30dc:	ee 0f       	add	r30, r30
    30de:	ff 1f       	adc	r31, r31
    30e0:	eb 56       	subi	r30, 0x6B	; 107
    30e2:	f6 4c       	sbci	r31, 0xC6	; 198
    30e4:	80 82       	st	Z, r8
    30e6:	91 82       	std	Z+1, r9	; 0x01
                                    x = 2;
                                }
                            }
                            if (x == 1) { 
                                SetResponse(elements++, A_NOTCARRYING, L_NOTCARRYING, TEASER);
                                data[0] = 0;
    30e8:	f8 01       	movw	r30, r16
    30ea:	10 82       	st	Z, r1
                                    PopulateObject(inventory[x], &actObj2);
                                    x = 2;
                                }
                            }
                            if (x == 1) { 
                                SetResponse(elements++, A_NOTCARRYING, L_NOTCARRYING, TEASER);
    30ec:	73 94       	inc	r7
    30ee:	01 c0       	rjmp	.+2      	; 0x30f2 <ProcessInput+0x8c0>
    30f0:	61 2c       	mov	r6, r1
                route[currDepth+1] = FindChild(route[currDepth], data[inputLen-1], 0);
                if (route[currDepth+1]) {
                    
                    //Give item to person / use item on object 
                    if ((inputLen == 3)&&((data[0] == 'u')||(data[0] == 'g'))) {
                        for (uint8_t x=0; x<2; x++) {
    30f2:	63 94       	inc	r6
    30f4:	f1 e0       	ldi	r31, 0x01	; 1
    30f6:	6f 16       	cp	r6, r31
    30f8:	09 f4       	brne	.+2      	; 0x30fc <ProcessInput+0x8ca>
    30fa:	bf cf       	rjmp	.-130    	; 0x307a <ProcessInput+0x848>
                                data[0] = 0;
                            }
                        }

                        //Both the item and person/object are found, check if action is legit
                        if (data[0]){
    30fc:	d8 01       	movw	r26, r16
    30fe:	8c 91       	ld	r24, X
    3100:	88 23       	and	r24, r24
    3102:	09 f4       	brne	.+2      	; 0x3106 <ProcessInput+0x8d4>
    3104:	86 c3       	rjmp	.+1804   	; 0x3812 <ProcessInput+0xfe0>
                            PopulateObject(route[currDepth+1], &actObj1);
    3106:	e0 91 29 38 	lds	r30, 0x3829	; 0x803829 <currDepth>
    310a:	f0 e0       	ldi	r31, 0x00	; 0
    310c:	ee 0f       	add	r30, r30
    310e:	ff 1f       	adc	r31, r31
    3110:	e9 52       	subi	r30, 0x29	; 41
    3112:	f6 4c       	sbci	r31, 0xC6	; 198
    3114:	64 ed       	ldi	r22, 0xD4	; 212
    3116:	78 e3       	ldi	r23, 0x38	; 56
    3118:	80 81       	ld	r24, Z
    311a:	91 81       	ldd	r25, Z+1	; 0x01
    311c:	0e 94 6c 0f 	call	0x1ed8	; 0x1ed8 <PopulateObject>

                            //Special game
                            if (actObj1.lenStr[ACTION_STR1] == 1) {
    3120:	e0 90 f2 38 	lds	r14, 0x38F2	; 0x8038f2 <actObj1.3994+0x1e>
    3124:	f0 90 f3 38 	lds	r15, 0x38F3	; 0x8038f3 <actObj1.3994+0x1f>
    3128:	b1 e0       	ldi	r27, 0x01	; 1
    312a:	eb 16       	cp	r14, r27
    312c:	f1 04       	cpc	r15, r1
    312e:	09 f0       	breq	.+2      	; 0x3132 <ProcessInput+0x900>
    3130:	9a c0       	rjmp	.+308    	; 0x3266 <ProcessInput+0xa34>
                                ExtEERead(actObj1.addrStr[ACTION_STR1], 1, GAME, &data[2]);
    3132:	98 01       	movw	r18, r16
    3134:	2e 5f       	subi	r18, 0xFE	; 254
    3136:	3f 4f       	sbci	r19, 0xFF	; 255
    3138:	40 e0       	ldi	r20, 0x00	; 0
    313a:	61 e0       	ldi	r22, 0x01	; 1
    313c:	80 91 e4 38 	lds	r24, 0x38E4	; 0x8038e4 <actObj1.3994+0x10>
    3140:	90 91 e5 38 	lds	r25, 0x38E5	; 0x8038e5 <actObj1.3994+0x11>
    3144:	0e 94 61 0e 	call	0x1cc2	; 0x1cc2 <ExtEERead>
                                if (data[2] == '1') {
    3148:	f8 01       	movw	r30, r16
    314a:	42 81       	ldd	r20, Z+2	; 0x02
    314c:	21 e0       	ldi	r18, 0x01	; 1
    314e:	27 0d       	add	r18, r7
    3150:	87 2d       	mov	r24, r7
    3152:	90 e0       	ldi	r25, 0x00	; 0
    3154:	41 33       	cpi	r20, 0x31	; 49
    3156:	09 f0       	breq	.+2      	; 0x315a <ProcessInput+0x928>
    3158:	6b c0       	rjmp	.+214    	; 0x3230 <ProcessInput+0x9fe>
                                    uint8_t item = actObj2.byteField[ITEM_NR];
    315a:	30 91 b4 38 	lds	r19, 0x38B4	; 0x8038b4 <actObj2.3995+0xb>
                                    if ((item < 31)||(item > 34)) {
    315e:	51 ee       	ldi	r21, 0xE1	; 225
    3160:	53 0f       	add	r21, r19
    return 0;
}

//
void SetResponse(uint8_t number, uint16_t address, uint16_t length, uint8_t type){
    reactStr[0][number]=address;
    3162:	fc 01       	movw	r30, r24
    3164:	ee 0f       	add	r30, r30
    3166:	ff 1f       	adc	r31, r31
    3168:	eb 5e       	subi	r30, 0xEB	; 235
    316a:	f6 4c       	sbci	r31, 0xC6	; 198
                            //Special game
                            if (actObj1.lenStr[ACTION_STR1] == 1) {
                                ExtEERead(actObj1.addrStr[ACTION_STR1], 1, GAME, &data[2]);
                                if (data[2] == '1') {
                                    uint8_t item = actObj2.byteField[ITEM_NR];
                                    if ((item < 31)||(item > 34)) {
    316c:	54 30       	cpi	r21, 0x04	; 4
    316e:	60 f0       	brcs	.+24     	; 0x3188 <ProcessInput+0x956>
    return 0;
}

//
void SetResponse(uint8_t number, uint16_t address, uint16_t length, uint8_t type){
    reactStr[0][number]=address;
    3170:	44 e0       	ldi	r20, 0x04	; 4
    3172:	59 e7       	ldi	r21, 0x79	; 121
    3174:	40 83       	st	Z, r20
    3176:	51 83       	std	Z+1, r21	; 0x01
    reactStr[1][number]=length;
    3178:	fc 01       	movw	r30, r24
    317a:	ee 0f       	add	r30, r30
    317c:	ff 1f       	adc	r31, r31
    317e:	eb 5a       	subi	r30, 0xAB	; 171
    3180:	f6 4c       	sbci	r31, 0xC6	; 198
    3182:	4a e1       	ldi	r20, 0x1A	; 26
    3184:	50 e0       	ldi	r21, 0x00	; 0
    3186:	64 c0       	rjmp	.+200    	; 0x3250 <ProcessInput+0xa1e>
    return 0;
}

//
void SetResponse(uint8_t number, uint16_t address, uint16_t length, uint8_t type){
    reactStr[0][number]=address;
    3188:	6e e8       	ldi	r22, 0x8E	; 142
    318a:	75 e7       	ldi	r23, 0x75	; 117
    318c:	60 83       	st	Z, r22
    318e:	71 83       	std	Z+1, r23	; 0x01
    reactStr[1][number]=length;
    3190:	fc 01       	movw	r30, r24
    3192:	ee 0f       	add	r30, r30
    3194:	ff 1f       	adc	r31, r31
    3196:	eb 5a       	subi	r30, 0xAB	; 171
    3198:	f6 4c       	sbci	r31, 0xC6	; 198
    319a:	62 eb       	ldi	r22, 0xB2	; 178
    319c:	70 e0       	ldi	r23, 0x00	; 0
    319e:	60 83       	st	Z, r22
    31a0:	71 83       	std	Z+1, r23	; 0x01
    reactStr[2][number]=type;
    31a2:	88 0f       	add	r24, r24
    31a4:	99 1f       	adc	r25, r25
    31a6:	fc 01       	movw	r30, r24
    31a8:	eb 56       	subi	r30, 0x6B	; 107
    31aa:	f6 4c       	sbci	r31, 0xC6	; 198
    31ac:	e0 82       	st	Z, r14
    31ae:	f1 82       	std	Z+1, r15	; 0x01
    return 0;
}

//
void SetResponse(uint8_t number, uint16_t address, uint16_t length, uint8_t type){
    reactStr[0][number]=address;
    31b0:	82 2f       	mov	r24, r18
    31b2:	90 e0       	ldi	r25, 0x00	; 0
    31b4:	fc 01       	movw	r30, r24
    31b6:	ee 0f       	add	r30, r30
    31b8:	ff 1f       	adc	r31, r31
    31ba:	eb 5e       	subi	r30, 0xEB	; 235
    31bc:	f6 4c       	sbci	r31, 0xC6	; 198
    31be:	6b e5       	ldi	r22, 0x5B	; 91
    31c0:	7a e7       	ldi	r23, 0x7A	; 122
    31c2:	60 83       	st	Z, r22
    31c4:	71 83       	std	Z+1, r23	; 0x01
    reactStr[1][number]=length;
    31c6:	fc 01       	movw	r30, r24
    31c8:	ee 0f       	add	r30, r30
    31ca:	ff 1f       	adc	r31, r31
    31cc:	eb 5a       	subi	r30, 0xAB	; 171
    31ce:	f6 4c       	sbci	r31, 0xC6	; 198
    31d0:	62 e0       	ldi	r22, 0x02	; 2
    31d2:	70 e0       	ldi	r23, 0x00	; 0
    31d4:	60 83       	st	Z, r22
    31d6:	71 83       	std	Z+1, r23	; 0x01
    reactStr[2][number]=type;
    31d8:	88 0f       	add	r24, r24
    31da:	99 1f       	adc	r25, r25
    31dc:	fc 01       	movw	r30, r24
    31de:	eb 56       	subi	r30, 0x6B	; 107
    31e0:	f6 4c       	sbci	r31, 0xC6	; 198
    31e2:	e0 82       	st	Z, r14
    31e4:	f1 82       	std	Z+1, r15	; 0x01
    return 0;
}

//
void SetResponse(uint8_t number, uint16_t address, uint16_t length, uint8_t type){
    reactStr[0][number]=address;
    31e6:	82 e0       	ldi	r24, 0x02	; 2
    31e8:	87 0d       	add	r24, r7
    31ea:	90 e0       	ldi	r25, 0x00	; 0
    31ec:	f3 e0       	ldi	r31, 0x03	; 3
    31ee:	7f 0e       	add	r7, r31
    31f0:	fc 01       	movw	r30, r24
    31f2:	ee 0f       	add	r30, r30
    31f4:	ff 1f       	adc	r31, r31
    31f6:	eb 5e       	subi	r30, 0xEB	; 235
    31f8:	f6 4c       	sbci	r31, 0xC6	; 198
    31fa:	60 eb       	ldi	r22, 0xB0	; 176
    31fc:	78 e7       	ldi	r23, 0x78	; 120
    31fe:	60 83       	st	Z, r22
    3200:	71 83       	std	Z+1, r23	; 0x01
    reactStr[1][number]=length;
    3202:	fc 01       	movw	r30, r24
    3204:	ee 0f       	add	r30, r30
    3206:	ff 1f       	adc	r31, r31
    3208:	eb 5a       	subi	r30, 0xAB	; 171
    320a:	f6 4c       	sbci	r31, 0xC6	; 198
    320c:	62 e1       	ldi	r22, 0x12	; 18
    320e:	70 e0       	ldi	r23, 0x00	; 0
    3210:	60 83       	st	Z, r22
    3212:	71 83       	std	Z+1, r23	; 0x01
    reactStr[2][number]=type;
    3214:	88 0f       	add	r24, r24
    3216:	99 1f       	adc	r25, r25
    3218:	fc 01       	movw	r30, r24
    321a:	eb 56       	subi	r30, 0x6B	; 107
    321c:	f6 4c       	sbci	r31, 0xC6	; 198
    321e:	e0 82       	st	Z, r14
    3220:	f1 82       	std	Z+1, r15	; 0x01
                                        SetResponse(elements++, A_CANTUSE, L_CANTUSE, TEASER);
                                    } else {
                                        SetResponse(elements++, A_PRIEST, L_PRIEST, TEASER);
                                        SetResponse(elements++, A_LF, 2, TEASER);
                                        SetResponse(elements++, A_RESPONSE, L_RESPONSE, TEASER);
                                        specialInput[0] = '1';
    3222:	40 93 04 39 	sts	0x3904, r20	; 0x803904 <specialInput>
                                        specialInput[1] = item;
    3226:	30 93 05 39 	sts	0x3905, r19	; 0x803905 <specialInput+0x1>
                                        specialInput[2] = 0;
    322a:	10 92 06 39 	sts	0x3906, r1	; 0x803906 <specialInput+0x2>
    322e:	f1 c2       	rjmp	.+1506   	; 0x3812 <ProcessInput+0xfe0>
    return 0;
}

//
void SetResponse(uint8_t number, uint16_t address, uint16_t length, uint8_t type){
    reactStr[0][number]=address;
    3230:	fc 01       	movw	r30, r24
    3232:	ee 0f       	add	r30, r30
    3234:	ff 1f       	adc	r31, r31
    3236:	eb 5e       	subi	r30, 0xEB	; 235
    3238:	f6 4c       	sbci	r31, 0xC6	; 198
    323a:	40 e4       	ldi	r20, 0x40	; 64
    323c:	56 e7       	ldi	r21, 0x76	; 118
    323e:	40 83       	st	Z, r20
    3240:	51 83       	std	Z+1, r21	; 0x01
    reactStr[1][number]=length;
    3242:	fc 01       	movw	r30, r24
    3244:	ee 0f       	add	r30, r30
    3246:	ff 1f       	adc	r31, r31
    3248:	eb 5a       	subi	r30, 0xAB	; 171
    324a:	f6 4c       	sbci	r31, 0xC6	; 198
    324c:	42 e4       	ldi	r20, 0x42	; 66
    324e:	50 e0       	ldi	r21, 0x00	; 0
    3250:	40 83       	st	Z, r20
    3252:	51 83       	std	Z+1, r21	; 0x01
    reactStr[2][number]=type;
    3254:	88 0f       	add	r24, r24
    3256:	99 1f       	adc	r25, r25
    3258:	fc 01       	movw	r30, r24
    325a:	eb 56       	subi	r30, 0x6B	; 107
    325c:	f6 4c       	sbci	r31, 0xC6	; 198
    325e:	e0 82       	st	Z, r14
    3260:	f1 82       	std	Z+1, r15	; 0x01
                                        specialInput[2] = 0;
                                    }

                                //There should not be another special
                                } else {
                                    SetResponse(elements++, A_ERROR, L_ERROR, TEASER);
    3262:	72 2e       	mov	r7, r18
    3264:	d6 c2       	rjmp	.+1452   	; 0x3812 <ProcessInput+0xfe0>
                                }

                            //Normal "use ... on ..." or "give ... to ..." action
                            } else if (actObj1.byteField[ACTION_ITEM] == actObj2.byteField[ITEM_NR]) {
    3266:	90 91 dd 38 	lds	r25, 0x38DD	; 0x8038dd <actObj1.3994+0x9>
    326a:	80 91 b4 38 	lds	r24, 0x38B4	; 0x8038b4 <actObj2.3995+0xb>
    326e:	98 13       	cpse	r25, r24
    3270:	2f c0       	rjmp	.+94     	; 0x32d0 <ProcessInput+0xa9e>
                                SetResponse(elements++, actObj1.addrStr[ACTION_MSG], actObj1.lenStr[ACTION_MSG], GAME);
    3272:	20 91 fa 38 	lds	r18, 0x38FA	; 0x8038fa <actObj1.3994+0x26>
    3276:	30 91 fb 38 	lds	r19, 0x38FB	; 0x8038fb <actObj1.3994+0x27>
    327a:	ff 24       	eor	r15, r15
    327c:	f3 94       	inc	r15
    327e:	f7 0c       	add	r15, r7
    return 0;
}

//
void SetResponse(uint8_t number, uint16_t address, uint16_t length, uint8_t type){
    reactStr[0][number]=address;
    3280:	87 2d       	mov	r24, r7
    3282:	90 e0       	ldi	r25, 0x00	; 0
    3284:	fc 01       	movw	r30, r24
    3286:	ee 0f       	add	r30, r30
    3288:	ff 1f       	adc	r31, r31
    328a:	eb 5e       	subi	r30, 0xEB	; 235
    328c:	f6 4c       	sbci	r31, 0xC6	; 198
    328e:	40 91 ec 38 	lds	r20, 0x38EC	; 0x8038ec <actObj1.3994+0x18>
    3292:	50 91 ed 38 	lds	r21, 0x38ED	; 0x8038ed <actObj1.3994+0x19>
    3296:	40 83       	st	Z, r20
    3298:	51 83       	std	Z+1, r21	; 0x01
    reactStr[1][number]=length;
    329a:	fc 01       	movw	r30, r24
    329c:	ee 0f       	add	r30, r30
    329e:	ff 1f       	adc	r31, r31
    32a0:	eb 5a       	subi	r30, 0xAB	; 171
    32a2:	f6 4c       	sbci	r31, 0xC6	; 198
    32a4:	20 83       	st	Z, r18
    32a6:	31 83       	std	Z+1, r19	; 0x01
    reactStr[2][number]=type;
    32a8:	88 0f       	add	r24, r24
    32aa:	99 1f       	adc	r25, r25
    32ac:	fc 01       	movw	r30, r24
    32ae:	eb 56       	subi	r30, 0x6B	; 107
    32b0:	f6 4c       	sbci	r31, 0xC6	; 198
    32b2:	10 82       	st	Z, r1
    32b4:	11 82       	std	Z+1, r1	; 0x01
                                }

                            //Normal "use ... on ..." or "give ... to ..." action
                            } else if (actObj1.byteField[ACTION_ITEM] == actObj2.byteField[ITEM_NR]) {
                                SetResponse(elements++, actObj1.addrStr[ACTION_MSG], actObj1.lenStr[ACTION_MSG], GAME);
                                effect = actObj1.effect[2];
    32b6:	80 91 fe 38 	lds	r24, 0x38FE	; 0x8038fe <actObj1.3994+0x2a>
    32ba:	90 e0       	ldi	r25, 0x00	; 0
    32bc:	80 93 36 38 	sts	0x3836, r24	; 0x803836 <effect>
    32c0:	90 93 37 38 	sts	0x3837, r25	; 0x803837 <effect+0x1>
                                UpdateState(actObj1.byteField[ACTION_STATE]);
    32c4:	80 91 de 38 	lds	r24, 0x38DE	; 0x8038de <actObj1.3994+0xa>
    32c8:	0e 94 b5 0a 	call	0x156a	; 0x156a <UpdateState>
                                    SetResponse(elements++, A_ERROR, L_ERROR, TEASER);
                                }

                            //Normal "use ... on ..." or "give ... to ..." action
                            } else if (actObj1.byteField[ACTION_ITEM] == actObj2.byteField[ITEM_NR]) {
                                SetResponse(elements++, actObj1.addrStr[ACTION_MSG], actObj1.lenStr[ACTION_MSG], GAME);
    32cc:	7f 2c       	mov	r7, r15
    32ce:	a1 c2       	rjmp	.+1346   	; 0x3812 <ProcessInput+0xfe0>
                                effect = actObj1.effect[2];
                                UpdateState(actObj1.byteField[ACTION_STATE]);
                                
                            } else {
                                if (data[0] == 'u') {
    32d0:	d8 01       	movw	r26, r16
    32d2:	8c 91       	ld	r24, X
    32d4:	85 37       	cpi	r24, 0x75	; 117
    32d6:	99 f4       	brne	.+38     	; 0x32fe <ProcessInput+0xacc>
    return 0;
}

//
void SetResponse(uint8_t number, uint16_t address, uint16_t length, uint8_t type){
    reactStr[0][number]=address;
    32d8:	87 2d       	mov	r24, r7
    32da:	90 e0       	ldi	r25, 0x00	; 0
    32dc:	fc 01       	movw	r30, r24
    32de:	ee 0f       	add	r30, r30
    32e0:	ff 1f       	adc	r31, r31
    32e2:	eb 5e       	subi	r30, 0xEB	; 235
    32e4:	f6 4c       	sbci	r31, 0xC6	; 198
    32e6:	24 e0       	ldi	r18, 0x04	; 4
    32e8:	39 e7       	ldi	r19, 0x79	; 121
    32ea:	20 83       	st	Z, r18
    32ec:	31 83       	std	Z+1, r19	; 0x01
    reactStr[1][number]=length;
    32ee:	fc 01       	movw	r30, r24
    32f0:	ee 0f       	add	r30, r30
    32f2:	ff 1f       	adc	r31, r31
    32f4:	eb 5a       	subi	r30, 0xAB	; 171
    32f6:	f6 4c       	sbci	r31, 0xC6	; 198
    32f8:	2a e1       	ldi	r18, 0x1A	; 26
    32fa:	30 e0       	ldi	r19, 0x00	; 0
    32fc:	15 c0       	rjmp	.+42     	; 0x3328 <ProcessInput+0xaf6>
                                UpdateState(actObj1.byteField[ACTION_STATE]);
                                
                            } else {
                                if (data[0] == 'u') {
                                    SetResponse(elements++, A_CANTUSE, L_CANTUSE, TEASER);
                                } else if (data[0] == 'g') {
    32fe:	87 36       	cpi	r24, 0x67	; 103
    3300:	09 f0       	breq	.+2      	; 0x3304 <ProcessInput+0xad2>
    3302:	87 c2       	rjmp	.+1294   	; 0x3812 <ProcessInput+0xfe0>
    return 0;
}

//
void SetResponse(uint8_t number, uint16_t address, uint16_t length, uint8_t type){
    reactStr[0][number]=address;
    3304:	87 2d       	mov	r24, r7
    3306:	90 e0       	ldi	r25, 0x00	; 0
    3308:	fc 01       	movw	r30, r24
    330a:	ee 0f       	add	r30, r30
    330c:	ff 1f       	adc	r31, r31
    330e:	eb 5e       	subi	r30, 0xEB	; 235
    3310:	f6 4c       	sbci	r31, 0xC6	; 198
    3312:	2d ed       	ldi	r18, 0xDD	; 221
    3314:	36 e7       	ldi	r19, 0x76	; 118
    3316:	20 83       	st	Z, r18
    3318:	31 83       	std	Z+1, r19	; 0x01
    reactStr[1][number]=length;
    331a:	fc 01       	movw	r30, r24
    331c:	ee 0f       	add	r30, r30
    331e:	ff 1f       	adc	r31, r31
    3320:	eb 5a       	subi	r30, 0xAB	; 171
    3322:	f6 4c       	sbci	r31, 0xC6	; 198
    3324:	28 e2       	ldi	r18, 0x28	; 40
    3326:	30 e0       	ldi	r19, 0x00	; 0
    3328:	20 83       	st	Z, r18
    332a:	31 83       	std	Z+1, r19	; 0x01
    reactStr[2][number]=type;
    332c:	88 0f       	add	r24, r24
    332e:	99 1f       	adc	r25, r25
    3330:	fc 01       	movw	r30, r24
    3332:	eb 56       	subi	r30, 0x6B	; 107
    3334:	f6 4c       	sbci	r31, 0xC6	; 198
    3336:	81 e0       	ldi	r24, 0x01	; 1
    3338:	90 e0       	ldi	r25, 0x00	; 0
    333a:	80 83       	st	Z, r24
    333c:	91 83       	std	Z+1, r25	; 0x01
                                
                            } else {
                                if (data[0] == 'u') {
                                    SetResponse(elements++, A_CANTUSE, L_CANTUSE, TEASER);
                                } else if (data[0] == 'g') {
                                    SetResponse(elements++, A_CANTGIVE, L_CANTGIVE, TEASER);                                    
    333e:	73 94       	inc	r7
    3340:	68 c2       	rjmp	.+1232   	; 0x3812 <ProcessInput+0xfe0>
                            }
                        }
                    
                    //Talk to person, read or use object (without item)                          
                    } else {
                        PopulateObject(route[currDepth+1], &actObj1);
    3342:	64 ed       	ldi	r22, 0xD4	; 212
    3344:	78 e3       	ldi	r23, 0x38	; 56
    3346:	0e 94 6c 0f 	call	0x1ed8	; 0x1ed8 <PopulateObject>
                        if ((data[0] == 't')&&((actObj1.byteField[ACTION_MASK]&TALK) == 0)) {
    334a:	f8 01       	movw	r30, r16
    334c:	80 81       	ld	r24, Z
    334e:	84 37       	cpi	r24, 0x74	; 116
    3350:	69 f5       	brne	.+90     	; 0x33ac <ProcessInput+0xb7a>
    3352:	80 91 dc 38 	lds	r24, 0x38DC	; 0x8038dc <actObj1.3994+0x8>
    3356:	83 fd       	sbrc	r24, 3
    3358:	4a c0       	rjmp	.+148    	; 0x33ee <ProcessInput+0xbbc>
    return 0;
}

//
void SetResponse(uint8_t number, uint16_t address, uint16_t length, uint8_t type){
    reactStr[0][number]=address;
    335a:	8e e1       	ldi	r24, 0x1E	; 30
    335c:	99 e7       	ldi	r25, 0x79	; 121
    335e:	80 93 17 39 	sts	0x3917, r24	; 0x803917 <reactStr+0x2>
    3362:	90 93 18 39 	sts	0x3918, r25	; 0x803918 <reactStr+0x3>
    reactStr[1][number]=length;
    3366:	8e e1       	ldi	r24, 0x1E	; 30
    3368:	90 e0       	ldi	r25, 0x00	; 0
    336a:	80 93 57 39 	sts	0x3957, r24	; 0x803957 <reactStr+0x42>
    336e:	90 93 58 39 	sts	0x3958, r25	; 0x803958 <reactStr+0x43>
    reactStr[2][number]=type;
    3372:	81 e0       	ldi	r24, 0x01	; 1
    3374:	90 e0       	ldi	r25, 0x00	; 0
    3376:	80 93 97 39 	sts	0x3997, r24	; 0x803997 <reactStr+0x82>
    337a:	90 93 98 39 	sts	0x3998, r25	; 0x803998 <reactStr+0x83>
                    //Talk to person, read or use object (without item)                          
                    } else {
                        PopulateObject(route[currDepth+1], &actObj1);
                        if ((data[0] == 't')&&((actObj1.byteField[ACTION_MASK]&TALK) == 0)) {
                            SetResponse(elements++, A_WHYTALK, L_WHYTALK, TEASER);
                            SetResponse(elements++, actObj1.addrStr[NAME], actObj1.lenStr[NAME], GAME);
    337e:	80 91 ee 38 	lds	r24, 0x38EE	; 0x8038ee <actObj1.3994+0x1a>
    3382:	90 91 ef 38 	lds	r25, 0x38EF	; 0x8038ef <actObj1.3994+0x1b>
    return 0;
}

//
void SetResponse(uint8_t number, uint16_t address, uint16_t length, uint8_t type){
    reactStr[0][number]=address;
    3386:	20 91 e0 38 	lds	r18, 0x38E0	; 0x8038e0 <actObj1.3994+0xc>
    338a:	30 91 e1 38 	lds	r19, 0x38E1	; 0x8038e1 <actObj1.3994+0xd>
    338e:	20 93 19 39 	sts	0x3919, r18	; 0x803919 <reactStr+0x4>
    3392:	30 93 1a 39 	sts	0x391A, r19	; 0x80391a <reactStr+0x5>
    reactStr[1][number]=length;
    3396:	80 93 59 39 	sts	0x3959, r24	; 0x803959 <reactStr+0x44>
    339a:	90 93 5a 39 	sts	0x395A, r25	; 0x80395a <reactStr+0x45>
    reactStr[2][number]=type;
    339e:	10 92 99 39 	sts	0x3999, r1	; 0x803999 <reactStr+0x84>
    33a2:	10 92 9a 39 	sts	0x399A, r1	; 0x80399a <reactStr+0x85>
                    //Talk to person, read or use object (without item)                          
                    } else {
                        PopulateObject(route[currDepth+1], &actObj1);
                        if ((data[0] == 't')&&((actObj1.byteField[ACTION_MASK]&TALK) == 0)) {
                            SetResponse(elements++, A_WHYTALK, L_WHYTALK, TEASER);
                            SetResponse(elements++, actObj1.addrStr[NAME], actObj1.lenStr[NAME], GAME);
    33a6:	a3 e0       	ldi	r26, 0x03	; 3
    33a8:	7a 2e       	mov	r7, r26
    33aa:	33 c2       	rjmp	.+1126   	; 0x3812 <ProcessInput+0xfe0>
                        } else if ((data[0] == 'u')&&((actObj1.byteField[ACTION_MASK]&USE) == 0)) {
    33ac:	85 37       	cpi	r24, 0x75	; 117
    33ae:	69 f4       	brne	.+26     	; 0x33ca <ProcessInput+0xb98>
    33b0:	80 91 dc 38 	lds	r24, 0x38DC	; 0x8038dc <actObj1.3994+0x8>
    33b4:	84 fd       	sbrc	r24, 4
    33b6:	1b c0       	rjmp	.+54     	; 0x33ee <ProcessInput+0xbbc>
    return 0;
}

//
void SetResponse(uint8_t number, uint16_t address, uint16_t length, uint8_t type){
    reactStr[0][number]=address;
    33b8:	84 e0       	ldi	r24, 0x04	; 4
    33ba:	99 e7       	ldi	r25, 0x79	; 121
    33bc:	80 93 17 39 	sts	0x3917, r24	; 0x803917 <reactStr+0x2>
    33c0:	90 93 18 39 	sts	0x3918, r25	; 0x803918 <reactStr+0x3>
    reactStr[1][number]=length;
    33c4:	8a e1       	ldi	r24, 0x1A	; 26
    33c6:	90 e0       	ldi	r25, 0x00	; 0
    33c8:	f9 ca       	rjmp	.-2574   	; 0x29bc <ProcessInput+0x18a>
                        if ((data[0] == 't')&&((actObj1.byteField[ACTION_MASK]&TALK) == 0)) {
                            SetResponse(elements++, A_WHYTALK, L_WHYTALK, TEASER);
                            SetResponse(elements++, actObj1.addrStr[NAME], actObj1.lenStr[NAME], GAME);
                        } else if ((data[0] == 'u')&&((actObj1.byteField[ACTION_MASK]&USE) == 0)) {
                            SetResponse(elements++, A_CANTUSE, L_CANTUSE, TEASER);
                        } else if ((data[0] == 'r')&&((actObj1.byteField[ACTION_MASK]&READ) == 0)) {
    33ca:	82 37       	cpi	r24, 0x72	; 114
    33cc:	69 f4       	brne	.+26     	; 0x33e8 <ProcessInput+0xbb6>
    33ce:	80 91 dc 38 	lds	r24, 0x38DC	; 0x8038dc <actObj1.3994+0x8>
    33d2:	85 fd       	sbrc	r24, 5
    33d4:	0c c0       	rjmp	.+24     	; 0x33ee <ProcessInput+0xbbc>
    return 0;
}

//
void SetResponse(uint8_t number, uint16_t address, uint16_t length, uint8_t type){
    reactStr[0][number]=address;
    33d6:	89 ee       	ldi	r24, 0xE9	; 233
    33d8:	98 e7       	ldi	r25, 0x78	; 120
    33da:	80 93 17 39 	sts	0x3917, r24	; 0x803917 <reactStr+0x2>
    33de:	90 93 18 39 	sts	0x3918, r25	; 0x803918 <reactStr+0x3>
    reactStr[1][number]=length;
    33e2:	8b e1       	ldi	r24, 0x1B	; 27
    33e4:	90 e0       	ldi	r25, 0x00	; 0
    33e6:	ea ca       	rjmp	.-2604   	; 0x29bc <ProcessInput+0x18a>
                            SetResponse(elements++, actObj1.addrStr[NAME], actObj1.lenStr[NAME], GAME);
                        } else if ((data[0] == 'u')&&((actObj1.byteField[ACTION_MASK]&USE) == 0)) {
                            SetResponse(elements++, A_CANTUSE, L_CANTUSE, TEASER);
                        } else if ((data[0] == 'r')&&((actObj1.byteField[ACTION_MASK]&READ) == 0)) {
                            SetResponse(elements++, A_CANTREAD, L_CANTREAD, TEASER);
                        } else if (data[0] == 'g'){ 
    33e8:	87 36       	cpi	r24, 0x67	; 103
    33ea:	09 f4       	brne	.+2      	; 0x33ee <ProcessInput+0xbbc>
    33ec:	52 ca       	rjmp	.-2908   	; 0x2892 <ProcessInput+0x60>
                            SetResponse(elements++, A_NOTPOSSIBLE, L_NOTPOSSIBLE, TEASER);  
                        } else {

                            //Special game, not enough characters
                            if (actObj1.lenStr[ACTION_STR1] == 1) {
    33ee:	e0 90 f2 38 	lds	r14, 0x38F2	; 0x8038f2 <actObj1.3994+0x1e>
    33f2:	f0 90 f3 38 	lds	r15, 0x38F3	; 0x8038f3 <actObj1.3994+0x1f>
    33f6:	f1 e0       	ldi	r31, 0x01	; 1
    33f8:	ef 16       	cp	r14, r31
    33fa:	f1 04       	cpc	r15, r1
    33fc:	11 f5       	brne	.+68     	; 0x3442 <ProcessInput+0xc10>
                                ExtEERead(actObj1.addrStr[ACTION_STR1], 1, GAME, &data[2]);
    33fe:	98 01       	movw	r18, r16
    3400:	2e 5f       	subi	r18, 0xFE	; 254
    3402:	3f 4f       	sbci	r19, 0xFF	; 255
    3404:	40 e0       	ldi	r20, 0x00	; 0
    3406:	61 e0       	ldi	r22, 0x01	; 1
    3408:	80 91 e4 38 	lds	r24, 0x38E4	; 0x8038e4 <actObj1.3994+0x10>
    340c:	90 91 e5 38 	lds	r25, 0x38E5	; 0x8038e5 <actObj1.3994+0x11>
    3410:	0e 94 61 0e 	call	0x1cc2	; 0x1cc2 <ExtEERead>
                                if (data[2] == '1') {
    3414:	d8 01       	movw	r26, r16
    3416:	12 96       	adiw	r26, 0x02	; 2
    3418:	8c 91       	ld	r24, X
    341a:	81 33       	cpi	r24, 0x31	; 49
    341c:	09 f0       	breq	.+2      	; 0x3420 <ProcessInput+0xbee>
    341e:	8a cc       	rjmp	.-1772   	; 0x2d34 <ProcessInput+0x502>
    return 0;
}

//
void SetResponse(uint8_t number, uint16_t address, uint16_t length, uint8_t type){
    reactStr[0][number]=address;
    3420:	83 e6       	ldi	r24, 0x63	; 99
    3422:	95 e7       	ldi	r25, 0x75	; 117
    3424:	80 93 17 39 	sts	0x3917, r24	; 0x803917 <reactStr+0x2>
    3428:	90 93 18 39 	sts	0x3918, r25	; 0x803918 <reactStr+0x3>
    reactStr[1][number]=length;
    342c:	8b e2       	ldi	r24, 0x2B	; 43
    342e:	90 e0       	ldi	r25, 0x00	; 0
    3430:	80 93 57 39 	sts	0x3957, r24	; 0x803957 <reactStr+0x42>
    3434:	90 93 58 39 	sts	0x3958, r25	; 0x803958 <reactStr+0x43>
    reactStr[2][number]=type;
    3438:	e0 92 97 39 	sts	0x3997, r14	; 0x803997 <reactStr+0x82>
    343c:	f0 92 98 39 	sts	0x3998, r15	; 0x803998 <reactStr+0x83>
    3440:	c7 ca       	rjmp	.-2674   	; 0x29d0 <ProcessInput+0x19e>
                                if (data[2] == '1') {
                                    SetResponse(elements++, A_PLEASEOFFER, L_PLEASEOFFER, TEASER);
                                }

                            //General request
                            } else if (actObj1.lenStr[ACTION_STR1]) {
    3442:	e1 14       	cp	r14, r1
    3444:	f1 04       	cpc	r15, r1
    3446:	09 f4       	brne	.+2      	; 0x344a <ProcessInput+0xc18>
    3448:	59 c0       	rjmp	.+178    	; 0x34fc <ProcessInput+0xcca>
    return 0;
}

//
void SetResponse(uint8_t number, uint16_t address, uint16_t length, uint8_t type){
    reactStr[0][number]=address;
    344a:	80 91 e4 38 	lds	r24, 0x38E4	; 0x8038e4 <actObj1.3994+0x10>
    344e:	90 91 e5 38 	lds	r25, 0x38E5	; 0x8038e5 <actObj1.3994+0x11>
    3452:	80 93 17 39 	sts	0x3917, r24	; 0x803917 <reactStr+0x2>
    3456:	90 93 18 39 	sts	0x3918, r25	; 0x803918 <reactStr+0x3>
    reactStr[1][number]=length;
    345a:	e0 92 57 39 	sts	0x3957, r14	; 0x803957 <reactStr+0x42>
    345e:	f0 92 58 39 	sts	0x3958, r15	; 0x803958 <reactStr+0x43>
    reactStr[2][number]=type;
    3462:	10 92 97 39 	sts	0x3997, r1	; 0x803997 <reactStr+0x82>
    3466:	10 92 98 39 	sts	0x3998, r1	; 0x803998 <reactStr+0x83>
    return 0;
}

//
void SetResponse(uint8_t number, uint16_t address, uint16_t length, uint8_t type){
    reactStr[0][number]=address;
    346a:	8b e5       	ldi	r24, 0x5B	; 91
    346c:	9a e7       	ldi	r25, 0x7A	; 122
    346e:	80 93 19 39 	sts	0x3919, r24	; 0x803919 <reactStr+0x4>
    3472:	90 93 1a 39 	sts	0x391A, r25	; 0x80391a <reactStr+0x5>
    reactStr[1][number]=length;
    3476:	82 e0       	ldi	r24, 0x02	; 2
    3478:	90 e0       	ldi	r25, 0x00	; 0
    347a:	80 93 59 39 	sts	0x3959, r24	; 0x803959 <reactStr+0x44>
    347e:	90 93 5a 39 	sts	0x395A, r25	; 0x80395a <reactStr+0x45>
    reactStr[2][number]=type;
    3482:	81 e0       	ldi	r24, 0x01	; 1
    3484:	90 e0       	ldi	r25, 0x00	; 0
    3486:	80 93 99 39 	sts	0x3999, r24	; 0x803999 <reactStr+0x84>
    348a:	90 93 9a 39 	sts	0x399A, r25	; 0x80399a <reactStr+0x85>
    return 0;
}

//
void SetResponse(uint8_t number, uint16_t address, uint16_t length, uint8_t type){
    reactStr[0][number]=address;
    348e:	20 eb       	ldi	r18, 0xB0	; 176
    3490:	38 e7       	ldi	r19, 0x78	; 120
    3492:	20 93 1b 39 	sts	0x391B, r18	; 0x80391b <reactStr+0x6>
    3496:	30 93 1c 39 	sts	0x391C, r19	; 0x80391c <reactStr+0x7>
    reactStr[1][number]=length;
    349a:	22 e1       	ldi	r18, 0x12	; 18
    349c:	30 e0       	ldi	r19, 0x00	; 0
    349e:	20 93 5b 39 	sts	0x395B, r18	; 0x80395b <reactStr+0x46>
    34a2:	30 93 5c 39 	sts	0x395C, r19	; 0x80395c <reactStr+0x47>
    reactStr[2][number]=type;
    34a6:	80 93 9b 39 	sts	0x399B, r24	; 0x80399b <reactStr+0x86>
    34aa:	90 93 9c 39 	sts	0x399C, r25	; 0x80399c <reactStr+0x87>
                            //General request
                            } else if (actObj1.lenStr[ACTION_STR1]) {
                                SetResponse(elements++, actObj1.addrStr[ACTION_STR1], actObj1.lenStr[ACTION_STR1], GAME);
                                SetResponse(elements++, A_LF, 2, TEASER);
                                SetResponse(elements++, A_RESPONSE, L_RESPONSE, TEASER);
                                if (actObj1.lenStr[ACTION_STR2]>(INP_LENGTH-1)) actObj1.lenStr[ACTION_STR2] = (INP_LENGTH-1);
    34ae:	80 91 f4 38 	lds	r24, 0x38F4	; 0x8038f4 <actObj1.3994+0x20>
    34b2:	90 91 f5 38 	lds	r25, 0x38F5	; 0x8038f5 <actObj1.3994+0x21>
    34b6:	40 97       	sbiw	r24, 0x10	; 16
    34b8:	30 f0       	brcs	.+12     	; 0x34c6 <ProcessInput+0xc94>
    34ba:	8f e0       	ldi	r24, 0x0F	; 15
    34bc:	90 e0       	ldi	r25, 0x00	; 0
    34be:	80 93 f4 38 	sts	0x38F4, r24	; 0x8038f4 <actObj1.3994+0x20>
    34c2:	90 93 f5 38 	sts	0x38F5, r25	; 0x8038f5 <actObj1.3994+0x21>
                                ExtEERead(actObj1.addrStr[ACTION_STR2], actObj1.lenStr[ACTION_STR2], GAME, (uint8_t *)&specialInput[0]);
    34c6:	24 e0       	ldi	r18, 0x04	; 4
    34c8:	39 e3       	ldi	r19, 0x39	; 57
    34ca:	40 e0       	ldi	r20, 0x00	; 0
    34cc:	60 91 f4 38 	lds	r22, 0x38F4	; 0x8038f4 <actObj1.3994+0x20>
    34d0:	80 91 e6 38 	lds	r24, 0x38E6	; 0x8038e6 <actObj1.3994+0x12>
    34d4:	90 91 e7 38 	lds	r25, 0x38E7	; 0x8038e7 <actObj1.3994+0x13>
    34d8:	0e 94 61 0e 	call	0x1cc2	; 0x1cc2 <ExtEERead>
                                UnflipData(actObj1.lenStr[ACTION_STR2], (uint8_t *)&specialInput[0]);
    34dc:	64 e0       	ldi	r22, 0x04	; 4
    34de:	79 e3       	ldi	r23, 0x39	; 57
    34e0:	80 91 f4 38 	lds	r24, 0x38F4	; 0x8038f4 <actObj1.3994+0x20>
    34e4:	0e 94 54 0e 	call	0x1ca8	; 0x1ca8 <UnflipData>
                                specialInput[actObj1.lenStr[ACTION_STR2]] = 0;
    34e8:	e0 91 f4 38 	lds	r30, 0x38F4	; 0x8038f4 <actObj1.3994+0x20>
    34ec:	f0 91 f5 38 	lds	r31, 0x38F5	; 0x8038f5 <actObj1.3994+0x21>
    34f0:	ec 5f       	subi	r30, 0xFC	; 252
    34f2:	f6 4c       	sbci	r31, 0xC6	; 198
    34f4:	10 82       	st	Z, r1

                            //General request
                            } else if (actObj1.lenStr[ACTION_STR1]) {
                                SetResponse(elements++, actObj1.addrStr[ACTION_STR1], actObj1.lenStr[ACTION_STR1], GAME);
                                SetResponse(elements++, A_LF, 2, TEASER);
                                SetResponse(elements++, A_RESPONSE, L_RESPONSE, TEASER);
    34f6:	f4 e0       	ldi	r31, 0x04	; 4
    34f8:	7f 2e       	mov	r7, r31
    34fa:	8b c1       	rjmp	.+790    	; 0x3812 <ProcessInput+0xfe0>
                                ExtEERead(actObj1.addrStr[ACTION_STR2], actObj1.lenStr[ACTION_STR2], GAME, (uint8_t *)&specialInput[0]);
                                UnflipData(actObj1.lenStr[ACTION_STR2], (uint8_t *)&specialInput[0]);
                                specialInput[actObj1.lenStr[ACTION_STR2]] = 0;
                            
                            //Normal action    
                            } else if (CheckState(actObj1.byteField[ACTION_ACL])){
    34fc:	80 91 db 38 	lds	r24, 0x38DB	; 0x8038db <actObj1.3994+0x7>
    3500:	0e 94 bf 0a 	call	0x157e	; 0x157e <CheckState>
    3504:	88 23       	and	r24, r24
    3506:	01 f1       	breq	.+64     	; 0x3548 <ProcessInput+0xd16>
                                SetResponse(elements++, actObj1.addrStr[ACTION_MSG], actObj1.lenStr[ACTION_MSG], GAME);
    3508:	80 91 fa 38 	lds	r24, 0x38FA	; 0x8038fa <actObj1.3994+0x26>
    350c:	90 91 fb 38 	lds	r25, 0x38FB	; 0x8038fb <actObj1.3994+0x27>
    return 0;
}

//
void SetResponse(uint8_t number, uint16_t address, uint16_t length, uint8_t type){
    reactStr[0][number]=address;
    3510:	20 91 ec 38 	lds	r18, 0x38EC	; 0x8038ec <actObj1.3994+0x18>
    3514:	30 91 ed 38 	lds	r19, 0x38ED	; 0x8038ed <actObj1.3994+0x19>
    3518:	20 93 17 39 	sts	0x3917, r18	; 0x803917 <reactStr+0x2>
    351c:	30 93 18 39 	sts	0x3918, r19	; 0x803918 <reactStr+0x3>
    reactStr[1][number]=length;
    3520:	80 93 57 39 	sts	0x3957, r24	; 0x803957 <reactStr+0x42>
    3524:	90 93 58 39 	sts	0x3958, r25	; 0x803958 <reactStr+0x43>
    reactStr[2][number]=type;
    3528:	10 92 97 39 	sts	0x3997, r1	; 0x803997 <reactStr+0x82>
    352c:	10 92 98 39 	sts	0x3998, r1	; 0x803998 <reactStr+0x83>
                                specialInput[actObj1.lenStr[ACTION_STR2]] = 0;
                            
                            //Normal action    
                            } else if (CheckState(actObj1.byteField[ACTION_ACL])){
                                SetResponse(elements++, actObj1.addrStr[ACTION_MSG], actObj1.lenStr[ACTION_MSG], GAME);
                                effect = actObj1.effect[2];
    3530:	80 91 fe 38 	lds	r24, 0x38FE	; 0x8038fe <actObj1.3994+0x2a>
    3534:	90 e0       	ldi	r25, 0x00	; 0
    3536:	80 93 36 38 	sts	0x3836, r24	; 0x803836 <effect>
    353a:	90 93 37 38 	sts	0x3837, r25	; 0x803837 <effect+0x1>
                                UpdateState(actObj1.byteField[ACTION_STATE]);
    353e:	80 91 de 38 	lds	r24, 0x38DE	; 0x8038de <actObj1.3994+0xa>
    3542:	0e 94 b5 0a 	call	0x156a	; 0x156a <UpdateState>
    3546:	44 ca       	rjmp	.-2936   	; 0x29d0 <ProcessInput+0x19e>
                            } else {
                                SetResponse(elements++, actObj1.addrStr[ACTION_ACL_MSG], actObj1.lenStr[ACTION_ACL_MSG], GAME);
    3548:	80 91 f8 38 	lds	r24, 0x38F8	; 0x8038f8 <actObj1.3994+0x24>
    354c:	90 91 f9 38 	lds	r25, 0x38F9	; 0x8038f9 <actObj1.3994+0x25>
    return 0;
}

//
void SetResponse(uint8_t number, uint16_t address, uint16_t length, uint8_t type){
    reactStr[0][number]=address;
    3550:	20 91 ea 38 	lds	r18, 0x38EA	; 0x8038ea <actObj1.3994+0x16>
    3554:	30 91 eb 38 	lds	r19, 0x38EB	; 0x8038eb <actObj1.3994+0x17>
    3558:	20 93 17 39 	sts	0x3917, r18	; 0x803917 <reactStr+0x2>
    355c:	30 93 18 39 	sts	0x3918, r19	; 0x803918 <reactStr+0x3>
    reactStr[1][number]=length;
    3560:	80 93 57 39 	sts	0x3957, r24	; 0x803957 <reactStr+0x42>
    3564:	90 93 58 39 	sts	0x3958, r25	; 0x803958 <reactStr+0x43>
    reactStr[2][number]=type;
    3568:	10 92 97 39 	sts	0x3997, r1	; 0x803997 <reactStr+0x82>
    356c:	10 92 98 39 	sts	0x3998, r1	; 0x803998 <reactStr+0x83>
                                SetResponse(elements++, actObj1.addrStr[ACTION_MSG], actObj1.lenStr[ACTION_MSG], GAME);
                                effect = actObj1.effect[2];
                                UpdateState(actObj1.byteField[ACTION_STATE]);
                            } else {
                                SetResponse(elements++, actObj1.addrStr[ACTION_ACL_MSG], actObj1.lenStr[ACTION_ACL_MSG], GAME);
                                effect = actObj1.effect[1];
    3570:	80 91 fd 38 	lds	r24, 0x38FD	; 0x8038fd <actObj1.3994+0x29>
    3574:	90 e0       	ldi	r25, 0x00	; 0
    3576:	80 93 36 38 	sts	0x3836, r24	; 0x803836 <effect>
    357a:	90 93 37 38 	sts	0x3837, r25	; 0x803837 <effect+0x1>
    357e:	28 ca       	rjmp	.-2992   	; 0x29d0 <ProcessInput+0x19e>
                        }
                    }

                //Person or object not found
                } else {
                    if ((data[0] == 't')||(data[0] == 'g')){
    3580:	f8 01       	movw	r30, r16
    3582:	80 81       	ld	r24, Z
    3584:	84 37       	cpi	r24, 0x74	; 116
    3586:	11 f0       	breq	.+4      	; 0x358c <ProcessInput+0xd5a>
    3588:	87 36       	cpi	r24, 0x67	; 103
    358a:	19 f4       	brne	.+6      	; 0x3592 <ProcessInput+0xd60>
    return 0;
}

//
void SetResponse(uint8_t number, uint16_t address, uint16_t length, uint8_t type){
    reactStr[0][number]=address;
    358c:	8c e3       	ldi	r24, 0x3C	; 60
    358e:	99 e7       	ldi	r25, 0x79	; 121
    3590:	02 c0       	rjmp	.+4      	; 0x3596 <ProcessInput+0xd64>
    3592:	80 e5       	ldi	r24, 0x50	; 80
    3594:	99 e7       	ldi	r25, 0x79	; 121
    3596:	80 93 17 39 	sts	0x3917, r24	; 0x803917 <reactStr+0x2>
    359a:	90 93 18 39 	sts	0x3918, r25	; 0x803918 <reactStr+0x3>
    reactStr[1][number]=length;
    359e:	84 e1       	ldi	r24, 0x14	; 20
    35a0:	90 e0       	ldi	r25, 0x00	; 0
    35a2:	0c ca       	rjmp	.-3048   	; 0x29bc <ProcessInput+0x18a>
                    }
                }
            }
        
        //Special answer given
        } else if (data[0] == 'a'){
    35a4:	81 36       	cpi	r24, 0x61	; 97
    35a6:	09 f0       	breq	.+2      	; 0x35aa <ProcessInput+0xd78>
    35a8:	c5 cb       	rjmp	.-2166   	; 0x2d34 <ProcessInput+0x502>
            
            //Priest offerings
            if (specialPassed >= 2) {
    35aa:	80 91 03 39 	lds	r24, 0x3903	; 0x803903 <specialPassed>
    35ae:	82 30       	cpi	r24, 0x02	; 2
    35b0:	08 f4       	brcc	.+2      	; 0x35b4 <ProcessInput+0xd82>
    35b2:	bd c0       	rjmp	.+378    	; 0x372e <ProcessInput+0xefc>
                if (data[1] > 0) {
    35b4:	d8 01       	movw	r26, r16
    35b6:	11 96       	adiw	r26, 0x01	; 1
    35b8:	2c 91       	ld	r18, X
    35ba:	22 23       	and	r18, r18
    35bc:	09 f4       	brne	.+2      	; 0x35c0 <ProcessInput+0xd8e>
    35be:	a4 c0       	rjmp	.+328    	; 0x3708 <ProcessInput+0xed6>

                    uint8_t  digit[10] = {0, 0, 0, 0, 0, 0, 0, 0, 0, 0};
    35c0:	fe 01       	movw	r30, r28
    35c2:	31 96       	adiw	r30, 0x01	; 1
    35c4:	7f 01       	movw	r14, r30
    35c6:	8a e0       	ldi	r24, 0x0A	; 10
    35c8:	df 01       	movw	r26, r30
    35ca:	1d 92       	st	X+, r1
    35cc:	8a 95       	dec	r24
    35ce:	e9 f7       	brne	.-6      	; 0x35ca <ProcessInput+0xd98>
                        answer = ((offering  & 2) << 19) + ((offering  & 1) << 8) + \
                        ((element   & 2) << 15) + ((element   & 1) << 4) + \
                        ((kneelings & 2) << 11) + ((kneelings & 1))
                        answer = answer << (3-person)
                    */
                    data[1]-='1';
    35d0:	21 53       	subi	r18, 0x31	; 49
    35d2:	f8 01       	movw	r30, r16
    35d4:	21 83       	std	Z+1, r18	; 0x01
                    data[2]-='1';
    35d6:	32 81       	ldd	r19, Z+2	; 0x02
    35d8:	31 53       	subi	r19, 0x31	; 49
    35da:	32 83       	std	Z+2, r19	; 0x02
                    if (data[3] == 'a') data[3] = 1;
    35dc:	83 81       	ldd	r24, Z+3	; 0x03
    35de:	81 36       	cpi	r24, 0x61	; 97
    35e0:	11 f4       	brne	.+4      	; 0x35e6 <ProcessInput+0xdb4>
    35e2:	81 e0       	ldi	r24, 0x01	; 1
    35e4:	08 c0       	rjmp	.+16     	; 0x35f6 <ProcessInput+0xdc4>
                    else if (data[3] == 'e') data[3] = 0;
    35e6:	85 36       	cpi	r24, 0x65	; 101
    35e8:	11 f4       	brne	.+4      	; 0x35ee <ProcessInput+0xdbc>
    35ea:	13 82       	std	Z+3, r1	; 0x03
    35ec:	08 c0       	rjmp	.+16     	; 0x35fe <ProcessInput+0xdcc>
                    else if (data[3] == 'f') data[3] = 3;
    35ee:	86 36       	cpi	r24, 0x66	; 102
    35f0:	21 f4       	brne	.+8      	; 0x35fa <ProcessInput+0xdc8>
    35f2:	83 e0       	ldi	r24, 0x03	; 3
    35f4:	f8 01       	movw	r30, r16
    35f6:	83 83       	std	Z+3, r24	; 0x03
    35f8:	02 c0       	rjmp	.+4      	; 0x35fe <ProcessInput+0xdcc>
                    else data[3] = 2;
    35fa:	82 e0       	ldi	r24, 0x02	; 2
    35fc:	83 83       	std	Z+3, r24	; 0x03

                    if (data[1] & 2) answer += (1UL << 20);
    35fe:	21 fd       	sbrc	r18, 1
    3600:	04 c0       	rjmp	.+8      	; 0x360a <ProcessInput+0xdd8>
            //Priest offerings
            if (specialPassed >= 2) {
                if (data[1] > 0) {

                    uint8_t  digit[10] = {0, 0, 0, 0, 0, 0, 0, 0, 0, 0};
                    uint32_t answer = 0;
    3602:	80 e0       	ldi	r24, 0x00	; 0
    3604:	90 e0       	ldi	r25, 0x00	; 0
    3606:	dc 01       	movw	r26, r24
    3608:	04 c0       	rjmp	.+8      	; 0x3612 <ProcessInput+0xde0>
                    if (data[3] == 'a') data[3] = 1;
                    else if (data[3] == 'e') data[3] = 0;
                    else if (data[3] == 'f') data[3] = 3;
                    else data[3] = 2;

                    if (data[1] & 2) answer += (1UL << 20);
    360a:	80 e0       	ldi	r24, 0x00	; 0
    360c:	90 e0       	ldi	r25, 0x00	; 0
    360e:	a0 e1       	ldi	r26, 0x10	; 16
    3610:	b0 e0       	ldi	r27, 0x00	; 0
                    if (data[1] & 1) answer += (1 << 8);
    3612:	20 ff       	sbrs	r18, 0
    3614:	03 c0       	rjmp	.+6      	; 0x361c <ProcessInput+0xdea>
    3616:	9f 5f       	subi	r25, 0xFF	; 255
    3618:	af 4f       	sbci	r26, 0xFF	; 255
    361a:	bf 4f       	sbci	r27, 0xFF	; 255
                    if (data[3] & 2) answer += (1UL << 16);
    361c:	f8 01       	movw	r30, r16
    361e:	23 81       	ldd	r18, Z+3	; 0x03
    3620:	21 fd       	sbrc	r18, 1
    3622:	11 96       	adiw	r26, 0x01	; 1
                    if (data[3] & 1) answer += (1 << 4);
    3624:	20 ff       	sbrs	r18, 0
    3626:	03 c0       	rjmp	.+6      	; 0x362e <ProcessInput+0xdfc>
    3628:	40 96       	adiw	r24, 0x10	; 16
    362a:	a1 1d       	adc	r26, r1
    362c:	b1 1d       	adc	r27, r1
                    if (data[2] & 2) answer += (1 << 12);
    362e:	31 ff       	sbrs	r19, 1
    3630:	03 c0       	rjmp	.+6      	; 0x3638 <ProcessInput+0xe06>
    3632:	90 5f       	subi	r25, 0xF0	; 240
    3634:	af 4f       	sbci	r26, 0xFF	; 255
    3636:	bf 4f       	sbci	r27, 0xFF	; 255
                    if (data[2] & 1) answer += 1;
    3638:	30 ff       	sbrs	r19, 0
    363a:	03 c0       	rjmp	.+6      	; 0x3642 <ProcessInput+0xe10>
    363c:	01 96       	adiw	r24, 0x01	; 1
    363e:	a1 1d       	adc	r26, r1
    3640:	b1 1d       	adc	r27, r1
                    answer <<= (4 - whoami);            
    3642:	40 91 39 38 	lds	r20, 0x3839	; 0x803839 <whoami>
    3646:	24 e0       	ldi	r18, 0x04	; 4
    3648:	30 e0       	ldi	r19, 0x00	; 0
    364a:	24 1b       	sub	r18, r20
    364c:	31 09       	sbc	r19, r1
    364e:	bc 01       	movw	r22, r24
    3650:	cd 01       	movw	r24, r26
    3652:	04 c0       	rjmp	.+8      	; 0x365c <ProcessInput+0xe2a>
    3654:	66 0f       	add	r22, r22
    3656:	77 1f       	adc	r23, r23
    3658:	88 1f       	adc	r24, r24
    365a:	99 1f       	adc	r25, r25
    365c:	2a 95       	dec	r18
    365e:	d2 f7       	brpl	.-12     	; 0x3654 <ProcessInput+0xe22>
    return 0;
}

//
void SetResponse(uint8_t number, uint16_t address, uint16_t length, uint8_t type){
    reactStr[0][number]=address;
    3660:	26 e0       	ldi	r18, 0x06	; 6
    3662:	35 e7       	ldi	r19, 0x75	; 117
    3664:	20 93 17 39 	sts	0x3917, r18	; 0x803917 <reactStr+0x2>
    3668:	30 93 18 39 	sts	0x3918, r19	; 0x803918 <reactStr+0x3>
    reactStr[1][number]=length;
    366c:	20 e2       	ldi	r18, 0x20	; 32
    366e:	30 e0       	ldi	r19, 0x00	; 0
    3670:	20 93 57 39 	sts	0x3957, r18	; 0x803957 <reactStr+0x42>
    3674:	30 93 58 39 	sts	0x3958, r19	; 0x803958 <reactStr+0x43>
    reactStr[2][number]=type;
    3678:	21 e0       	ldi	r18, 0x01	; 1
    367a:	30 e0       	ldi	r19, 0x00	; 0
    367c:	20 93 97 39 	sts	0x3997, r18	; 0x803997 <reactStr+0x82>
    3680:	30 93 98 39 	sts	0x3998, r19	; 0x803998 <reactStr+0x83>
                    answer <<= (4 - whoami);            

                    SetResponse(elements++, A_YOURPART, L_YOURPART, TEASER);
                    
                    //Set up sending out number
                    for (n=9; n>=0; --n) {
    3684:	59 e0       	ldi	r21, 0x09	; 9
                        digit[n] = answer % 10;
    3686:	b5 2e       	mov	r11, r21
    3688:	ea e0       	ldi	r30, 0x0A	; 10
    368a:	4e 2e       	mov	r4, r30
    368c:	51 2c       	mov	r5, r1
    368e:	61 2c       	mov	r6, r1
    3690:	71 2c       	mov	r7, r1
    3692:	67 01       	movw	r12, r14
    3694:	cb 0c       	add	r12, r11
    3696:	d1 1c       	adc	r13, r1
    3698:	a3 01       	movw	r20, r6
    369a:	92 01       	movw	r18, r4
    369c:	be d2       	rcall	.+1404   	; 0x3c1a <__udivmodsi4>
    369e:	d6 01       	movw	r26, r12
    36a0:	6c 93       	st	X, r22
                        answer /= 10;
    36a2:	b9 01       	movw	r22, r18
    36a4:	ca 01       	movw	r24, r20
                        if (answer == 0) break;
    36a6:	61 15       	cp	r22, r1
    36a8:	71 05       	cpc	r23, r1
    36aa:	81 05       	cpc	r24, r1
    36ac:	91 05       	cpc	r25, r1
    36ae:	51 f4       	brne	.+20     	; 0x36c4 <ProcessInput+0xe92>
    36b0:	25 e1       	ldi	r18, 0x15	; 21
    36b2:	c2 2e       	mov	r12, r18
    36b4:	29 e3       	ldi	r18, 0x39	; 57
    36b6:	d2 2e       	mov	r13, r18
    36b8:	32 e0       	ldi	r19, 0x02	; 2
    36ba:	73 2e       	mov	r7, r19
}

//
void SetResponse(uint8_t number, uint16_t address, uint16_t length, uint8_t type){
    reactStr[0][number]=address;
    reactStr[1][number]=length;
    36bc:	88 24       	eor	r8, r8
    36be:	83 94       	inc	r8
    36c0:	91 2c       	mov	r9, r1
    36c2:	02 c0       	rjmp	.+4      	; 0x36c8 <ProcessInput+0xe96>
                    answer <<= (4 - whoami);            

                    SetResponse(elements++, A_YOURPART, L_YOURPART, TEASER);
                    
                    //Set up sending out number
                    for (n=9; n>=0; --n) {
    36c4:	ba 94       	dec	r11
                        digit[n] = answer % 10;
                        answer /= 10;
                        if (answer == 0) break;
                    }
    36c6:	e5 cf       	rjmp	.-54     	; 0x3692 <ProcessInput+0xe60>
    36c8:	f2 e0       	ldi	r31, 0x02	; 2
    36ca:	cf 0e       	add	r12, r31
    36cc:	d1 1c       	adc	r13, r1
                    for (; n<10; ++n) {
    36ce:	29 e0       	ldi	r18, 0x09	; 9
    36d0:	2b 15       	cp	r18, r11
    36d2:	08 f4       	brcc	.+2      	; 0x36d6 <ProcessInput+0xea4>
    36d4:	9c c0       	rjmp	.+312    	; 0x380e <ProcessInput+0xfdc>
                        SetResponse(elements++, A_DIGITS+digit[n], 1, TEASER);
    36d6:	73 94       	inc	r7
    36d8:	f7 01       	movw	r30, r14
    36da:	eb 0d       	add	r30, r11
    36dc:	f1 1d       	adc	r31, r1
    return 0;
}

//
void SetResponse(uint8_t number, uint16_t address, uint16_t length, uint8_t type){
    reactStr[0][number]=address;
    36de:	80 81       	ld	r24, Z
    36e0:	90 e0       	ldi	r25, 0x00	; 0
    36e2:	8d 52       	subi	r24, 0x2D	; 45
    36e4:	9b 48       	sbci	r25, 0x8B	; 139
    36e6:	f6 01       	movw	r30, r12
    36e8:	82 83       	std	Z+2, r24	; 0x02
    36ea:	93 83       	std	Z+3, r25	; 0x03
    reactStr[1][number]=length;
    36ec:	ee 5b       	subi	r30, 0xBE	; 190
    36ee:	ff 4f       	sbci	r31, 0xFF	; 255
    36f0:	80 82       	st	Z, r8
    36f2:	91 82       	std	Z+1, r9	; 0x01
    reactStr[2][number]=type;
    36f4:	e0 5c       	subi	r30, 0xC0	; 192
    36f6:	ff 4f       	sbci	r31, 0xFF	; 255
    36f8:	80 82       	st	Z, r8
    36fa:	91 82       	std	Z+1, r9	; 0x01
                        answer /= 10;
                        if (answer == 0) break;
                    }
                    for (; n<10; ++n) {
                        SetResponse(elements++, A_DIGITS+digit[n], 1, TEASER);
                        UpdateState(actObj1.byteField[ACTION_STATE]);
    36fc:	80 91 de 38 	lds	r24, 0x38DE	; 0x8038de <actObj1.3994+0xa>
    3700:	0e 94 b5 0a 	call	0x156a	; 0x156a <UpdateState>
                    for (n=9; n>=0; --n) {
                        digit[n] = answer % 10;
                        answer /= 10;
                        if (answer == 0) break;
                    }
                    for (; n<10; ++n) {
    3704:	b3 94       	inc	r11
    3706:	e0 cf       	rjmp	.-64     	; 0x36c8 <ProcessInput+0xe96>
    return 0;
}

//
void SetResponse(uint8_t number, uint16_t address, uint16_t length, uint8_t type){
    reactStr[0][number]=address;
    3708:	86 e2       	ldi	r24, 0x26	; 38
    370a:	95 e7       	ldi	r25, 0x75	; 117
    370c:	80 93 17 39 	sts	0x3917, r24	; 0x803917 <reactStr+0x2>
    3710:	90 93 18 39 	sts	0x3918, r25	; 0x803918 <reactStr+0x3>
    reactStr[1][number]=length;
    3714:	8d e3       	ldi	r24, 0x3D	; 61
    3716:	90 e0       	ldi	r25, 0x00	; 0
    3718:	80 93 57 39 	sts	0x3957, r24	; 0x803957 <reactStr+0x42>
    371c:	90 93 58 39 	sts	0x3958, r25	; 0x803958 <reactStr+0x43>
    reactStr[2][number]=type;
    3720:	81 e0       	ldi	r24, 0x01	; 1
    3722:	90 e0       	ldi	r25, 0x00	; 0
    3724:	80 93 97 39 	sts	0x3997, r24	; 0x803997 <reactStr+0x82>
    3728:	90 93 98 39 	sts	0x3998, r25	; 0x803998 <reactStr+0x83>
    372c:	6e c0       	rjmp	.+220    	; 0x380a <ProcessInput+0xfd8>
    372e:	e0 91 29 38 	lds	r30, 0x3829	; 0x803829 <currDepth>
                    SetResponse(elements++, A_BADOFFERING, L_BADOFFERING, TEASER);
                }
            
            //Other questions    
            } else if (specialPassed == 1) {
                PopulateObject(route[currDepth+1], &actObj1);
    3732:	f0 e0       	ldi	r31, 0x00	; 0
    3734:	ee 0f       	add	r30, r30
    3736:	ff 1f       	adc	r31, r31
    3738:	e9 52       	subi	r30, 0x29	; 41
    373a:	f6 4c       	sbci	r31, 0xC6	; 198
    373c:	64 ed       	ldi	r22, 0xD4	; 212
    373e:	78 e3       	ldi	r23, 0x38	; 56
                } else {
                    SetResponse(elements++, A_BADOFFERING, L_BADOFFERING, TEASER);
                }
            
            //Other questions    
            } else if (specialPassed == 1) {
    3740:	81 30       	cpi	r24, 0x01	; 1
    3742:	09 f0       	breq	.+2      	; 0x3746 <ProcessInput+0xf14>
    3744:	46 c0       	rjmp	.+140    	; 0x37d2 <ProcessInput+0xfa0>
                PopulateObject(route[currDepth+1], &actObj1);
    3746:	80 81       	ld	r24, Z
    3748:	91 81       	ldd	r25, Z+1	; 0x01
    374a:	0e 94 6c 0f 	call	0x1ed8	; 0x1ed8 <PopulateObject>
                if (CheckState(actObj1.byteField[ACTION_ACL])){
    374e:	80 91 db 38 	lds	r24, 0x38DB	; 0x8038db <actObj1.3994+0x7>
    3752:	0e 94 bf 0a 	call	0x157e	; 0x157e <CheckState>
    3756:	88 23       	and	r24, r24
    3758:	01 f1       	breq	.+64     	; 0x379a <ProcessInput+0xf68>
                    SetResponse(elements++, actObj1.addrStr[ACTION_MSG], actObj1.lenStr[ACTION_MSG], GAME);
    375a:	80 91 fa 38 	lds	r24, 0x38FA	; 0x8038fa <actObj1.3994+0x26>
    375e:	90 91 fb 38 	lds	r25, 0x38FB	; 0x8038fb <actObj1.3994+0x27>
    return 0;
}

//
void SetResponse(uint8_t number, uint16_t address, uint16_t length, uint8_t type){
    reactStr[0][number]=address;
    3762:	20 91 ec 38 	lds	r18, 0x38EC	; 0x8038ec <actObj1.3994+0x18>
    3766:	30 91 ed 38 	lds	r19, 0x38ED	; 0x8038ed <actObj1.3994+0x19>
    376a:	20 93 17 39 	sts	0x3917, r18	; 0x803917 <reactStr+0x2>
    376e:	30 93 18 39 	sts	0x3918, r19	; 0x803918 <reactStr+0x3>
    reactStr[1][number]=length;
    3772:	80 93 57 39 	sts	0x3957, r24	; 0x803957 <reactStr+0x42>
    3776:	90 93 58 39 	sts	0x3958, r25	; 0x803958 <reactStr+0x43>
    reactStr[2][number]=type;
    377a:	10 92 97 39 	sts	0x3997, r1	; 0x803997 <reactStr+0x82>
    377e:	10 92 98 39 	sts	0x3998, r1	; 0x803998 <reactStr+0x83>
            //Other questions    
            } else if (specialPassed == 1) {
                PopulateObject(route[currDepth+1], &actObj1);
                if (CheckState(actObj1.byteField[ACTION_ACL])){
                    SetResponse(elements++, actObj1.addrStr[ACTION_MSG], actObj1.lenStr[ACTION_MSG], GAME);
                    effect = actObj1.effect[2];
    3782:	80 91 fe 38 	lds	r24, 0x38FE	; 0x8038fe <actObj1.3994+0x2a>
    3786:	90 e0       	ldi	r25, 0x00	; 0
    3788:	80 93 36 38 	sts	0x3836, r24	; 0x803836 <effect>
    378c:	90 93 37 38 	sts	0x3837, r25	; 0x803837 <effect+0x1>
                    UpdateState(actObj1.byteField[ACTION_STATE]);
    3790:	80 91 de 38 	lds	r24, 0x38DE	; 0x8038de <actObj1.3994+0xa>
    3794:	0e 94 b5 0a 	call	0x156a	; 0x156a <UpdateState>
    3798:	38 c0       	rjmp	.+112    	; 0x380a <ProcessInput+0xfd8>
                } else {
                    SetResponse(elements++, actObj1.addrStr[ACTION_ACL_MSG], actObj1.lenStr[ACTION_ACL_MSG], GAME);
    379a:	80 91 f8 38 	lds	r24, 0x38F8	; 0x8038f8 <actObj1.3994+0x24>
    379e:	90 91 f9 38 	lds	r25, 0x38F9	; 0x8038f9 <actObj1.3994+0x25>
    return 0;
}

//
void SetResponse(uint8_t number, uint16_t address, uint16_t length, uint8_t type){
    reactStr[0][number]=address;
    37a2:	20 91 ea 38 	lds	r18, 0x38EA	; 0x8038ea <actObj1.3994+0x16>
    37a6:	30 91 eb 38 	lds	r19, 0x38EB	; 0x8038eb <actObj1.3994+0x17>
    37aa:	20 93 17 39 	sts	0x3917, r18	; 0x803917 <reactStr+0x2>
    37ae:	30 93 18 39 	sts	0x3918, r19	; 0x803918 <reactStr+0x3>
    reactStr[1][number]=length;
    37b2:	80 93 57 39 	sts	0x3957, r24	; 0x803957 <reactStr+0x42>
    37b6:	90 93 58 39 	sts	0x3958, r25	; 0x803958 <reactStr+0x43>
    reactStr[2][number]=type;
    37ba:	10 92 97 39 	sts	0x3997, r1	; 0x803997 <reactStr+0x82>
    37be:	10 92 98 39 	sts	0x3998, r1	; 0x803998 <reactStr+0x83>
                    SetResponse(elements++, actObj1.addrStr[ACTION_MSG], actObj1.lenStr[ACTION_MSG], GAME);
                    effect = actObj1.effect[2];
                    UpdateState(actObj1.byteField[ACTION_STATE]);
                } else {
                    SetResponse(elements++, actObj1.addrStr[ACTION_ACL_MSG], actObj1.lenStr[ACTION_ACL_MSG], GAME);
                    effect = actObj1.effect[1];
    37c2:	80 91 fd 38 	lds	r24, 0x38FD	; 0x8038fd <actObj1.3994+0x29>
    37c6:	90 e0       	ldi	r25, 0x00	; 0
    37c8:	80 93 36 38 	sts	0x3836, r24	; 0x803836 <effect>
    37cc:	90 93 37 38 	sts	0x3837, r25	; 0x803837 <effect+0x1>
    37d0:	1c c0       	rjmp	.+56     	; 0x380a <ProcessInput+0xfd8>
                }

            } else {
                PopulateObject(route[currDepth+1], &actObj1);
    37d2:	80 81       	ld	r24, Z
    37d4:	91 81       	ldd	r25, Z+1	; 0x01
    37d6:	0e 94 6c 0f 	call	0x1ed8	; 0x1ed8 <PopulateObject>
    return 0;
}

//
void SetResponse(uint8_t number, uint16_t address, uint16_t length, uint8_t type){
    reactStr[0][number]=address;
    37da:	8e e9       	ldi	r24, 0x9E	; 158
    37dc:	98 e7       	ldi	r25, 0x78	; 120
    37de:	80 93 17 39 	sts	0x3917, r24	; 0x803917 <reactStr+0x2>
    37e2:	90 93 18 39 	sts	0x3918, r25	; 0x803918 <reactStr+0x3>
    reactStr[1][number]=length;
    37e6:	82 e1       	ldi	r24, 0x12	; 18
    37e8:	90 e0       	ldi	r25, 0x00	; 0
    37ea:	80 93 57 39 	sts	0x3957, r24	; 0x803957 <reactStr+0x42>
    37ee:	90 93 58 39 	sts	0x3958, r25	; 0x803958 <reactStr+0x43>
    reactStr[2][number]=type;
    37f2:	81 e0       	ldi	r24, 0x01	; 1
    37f4:	90 e0       	ldi	r25, 0x00	; 0
    37f6:	80 93 97 39 	sts	0x3997, r24	; 0x803997 <reactStr+0x82>
    37fa:	90 93 98 39 	sts	0x3998, r25	; 0x803998 <reactStr+0x83>
                }

            } else {
                PopulateObject(route[currDepth+1], &actObj1);
                SetResponse(elements++, A_INCORRECT, L_INCORRECT, TEASER);
                PunishmentTime = getClock();
    37fe:	0e 94 b5 0c 	call	0x196a	; 0x196a <getClock>
    3802:	80 93 01 39 	sts	0x3901, r24	; 0x803901 <PunishmentTime>
    3806:	90 93 02 39 	sts	0x3902, r25	; 0x803902 <PunishmentTime+0x1>
                    effect = actObj1.effect[1];
                }

            } else {
                PopulateObject(route[currDepth+1], &actObj1);
                SetResponse(elements++, A_INCORRECT, L_INCORRECT, TEASER);
    380a:	82 e0       	ldi	r24, 0x02	; 2
    380c:	78 2e       	mov	r7, r24
                PunishmentTime = getClock();
            }
            specialInput[0] = 0;
    380e:	10 92 04 39 	sts	0x3904, r1	; 0x803904 <specialInput>
    return 0;
}

//
void SetResponse(uint8_t number, uint16_t address, uint16_t length, uint8_t type){
    reactStr[0][number]=address;
    3812:	8b e5       	ldi	r24, 0x5B	; 91
    3814:	9a e7       	ldi	r25, 0x7A	; 122
    3816:	80 93 15 39 	sts	0x3915, r24	; 0x803915 <reactStr>
    381a:	90 93 16 39 	sts	0x3916, r25	; 0x803916 <reactStr+0x1>
    reactStr[1][number]=length;
    381e:	82 e0       	ldi	r24, 0x02	; 2
    3820:	90 e0       	ldi	r25, 0x00	; 0
    3822:	80 93 55 39 	sts	0x3955, r24	; 0x803955 <reactStr+0x40>
    3826:	90 93 56 39 	sts	0x3956, r25	; 0x803956 <reactStr+0x41>
    reactStr[2][number]=type;
    382a:	81 e0       	ldi	r24, 0x01	; 1
    382c:	90 e0       	ldi	r25, 0x00	; 0
    382e:	80 93 95 39 	sts	0x3995, r24	; 0x803995 <reactStr+0x80>
    3832:	90 93 96 39 	sts	0x3996, r25	; 0x803996 <reactStr+0x81>
               
        }
            
        //Input handled
        SetResponse(0, A_LF, 2, TEASER);
        if (specialInput[0]) responseList = elements; else responseList = SetStandardResponse(elements);
    3836:	80 91 04 39 	lds	r24, 0x3904	; 0x803904 <specialInput>
    383a:	88 23       	and	r24, r24
    383c:	19 f0       	breq	.+6      	; 0x3844 <ProcessInput+0x1012>
    383e:	70 92 14 39 	sts	0x3914, r7	; 0x803914 <responseList>
    3842:	9a c0       	rjmp	.+308    	; 0x3978 <ProcessInput+0x1146>
    3844:	87 2d       	mov	r24, r7
    3846:	12 c0       	rjmp	.+36     	; 0x386c <ProcessInput+0x103a>
    return 0;
}

//
void SetResponse(uint8_t number, uint16_t address, uint16_t length, uint8_t type){
    reactStr[0][number]=address;
    3848:	8b e5       	ldi	r24, 0x5B	; 91
    384a:	9a e7       	ldi	r25, 0x7A	; 122
    384c:	80 93 15 39 	sts	0x3915, r24	; 0x803915 <reactStr>
    3850:	90 93 16 39 	sts	0x3916, r25	; 0x803916 <reactStr+0x1>
    reactStr[1][number]=length;
    3854:	82 e0       	ldi	r24, 0x02	; 2
    3856:	90 e0       	ldi	r25, 0x00	; 0
    3858:	80 93 55 39 	sts	0x3955, r24	; 0x803955 <reactStr+0x40>
    385c:	90 93 56 39 	sts	0x3956, r25	; 0x803956 <reactStr+0x41>
    reactStr[2][number]=type;
    3860:	81 e0       	ldi	r24, 0x01	; 1
    3862:	90 e0       	ldi	r25, 0x00	; 0
    3864:	80 93 95 39 	sts	0x3995, r24	; 0x803995 <reactStr+0x80>
    3868:	90 93 96 39 	sts	0x3996, r25	; 0x803996 <reactStr+0x81>
        SetResponse(0, A_LF, 2, TEASER);
        if (specialInput[0]) responseList = elements; else responseList = SetStandardResponse(elements);

    } else {
        SetResponse(0, A_LF, 2, TEASER);
        responseList = SetStandardResponse(1);
    386c:	0e 94 f0 0e 	call	0x1de0	; 0x1de0 <SetStandardResponse>
    3870:	80 93 14 39 	sts	0x3914, r24	; 0x803914 <responseList>
    return 0;
}

//
void SetResponse(uint8_t number, uint16_t address, uint16_t length, uint8_t type){
    reactStr[0][number]=address;
    3874:	81 c0       	rjmp	.+258    	; 0x3978 <ProcessInput+0x1146>
    3876:	84 ed       	ldi	r24, 0xD4	; 212
    3878:	99 e7       	ldi	r25, 0x79	; 121

        //Drop item if in inventory
        if (data[0] == 'd') {
            if ((inventory[0] == 0)&&(inventory[1] == 0)){
                SetResponse(elements++, A_EMPTYHANDS, L_EMPTYHANDS, TEASER);
            } else if (inputLen != 2) {
    387a:	a0 cd       	rjmp	.-1216   	; 0x33bc <ProcessInput+0xb8a>
    387c:	b2 e0       	ldi	r27, 0x02	; 2
    387e:	fb 12       	cpse	r15, r27
    3880:	08 c8       	rjmp	.-4080   	; 0x2892 <ProcessInput+0x60>
                SetResponse(elements++, A_NOTPOSSIBLE, L_NOTPOSSIBLE, TEASER);
            } else {
                for (uint8_t x=0; x<2; ++x) {
                    if (inventory[x]) {
                        if (CheckLetter(inventory[x], data[1])) {
    3882:	d8 01       	movw	r26, r16
    3884:	11 96       	adiw	r26, 0x01	; 1
    3886:	6c 91       	ld	r22, X
    3888:	0e 94 e3 0f 	call	0x1fc6	; 0x1fc6 <CheckLetter>
    388c:	88 23       	and	r24, r24
    388e:	09 f4       	brne	.+2      	; 0x3892 <ProcessInput+0x1060>
    3890:	5b c0       	rjmp	.+182    	; 0x3948 <ProcessInput+0x1116>
                SetResponse(elements++, A_EMPTYHANDS, L_EMPTYHANDS, TEASER);
            } else if (inputLen != 2) {
                SetResponse(elements++, A_NOTPOSSIBLE, L_NOTPOSSIBLE, TEASER);
            } else {
                for (uint8_t x=0; x<2; ++x) {
                    if (inventory[x]) {
    3892:	80 e0       	ldi	r24, 0x00	; 0
    3894:	90 e0       	ldi	r25, 0x00	; 0
                        if (CheckLetter(inventory[x], data[1])) {
                            PopulateObject(inventory[x], &actObj1);
    3896:	88 0f       	add	r24, r24
    3898:	99 1f       	adc	r25, r25
    389a:	9c 01       	movw	r18, r24
    389c:	26 5c       	subi	r18, 0xC6	; 198
    389e:	37 4c       	sbci	r19, 0xC7	; 199
    38a0:	79 01       	movw	r14, r18
    38a2:	64 ed       	ldi	r22, 0xD4	; 212
    38a4:	78 e3       	ldi	r23, 0x38	; 56
    38a6:	d9 01       	movw	r26, r18
    38a8:	8d 91       	ld	r24, X+
    38aa:	9c 91       	ld	r25, X
    38ac:	0e 94 6c 0f 	call	0x1ed8	; 0x1ed8 <PopulateObject>
    return 0;
}

//
void SetResponse(uint8_t number, uint16_t address, uint16_t length, uint8_t type){
    reactStr[0][number]=address;
    38b0:	84 ed       	ldi	r24, 0xD4	; 212
    38b2:	97 e7       	ldi	r25, 0x77	; 119
    38b4:	80 93 17 39 	sts	0x3917, r24	; 0x803917 <reactStr+0x2>
    38b8:	90 93 18 39 	sts	0x3918, r25	; 0x803918 <reactStr+0x3>
    reactStr[1][number]=length;
    38bc:	80 e1       	ldi	r24, 0x10	; 16
    38be:	90 e0       	ldi	r25, 0x00	; 0
    38c0:	80 93 57 39 	sts	0x3957, r24	; 0x803957 <reactStr+0x42>
    38c4:	90 93 58 39 	sts	0x3958, r25	; 0x803958 <reactStr+0x43>
    reactStr[2][number]=type;
    38c8:	81 e0       	ldi	r24, 0x01	; 1
    38ca:	90 e0       	ldi	r25, 0x00	; 0
    38cc:	80 93 97 39 	sts	0x3997, r24	; 0x803997 <reactStr+0x82>
    38d0:	90 93 98 39 	sts	0x3998, r25	; 0x803998 <reactStr+0x83>
                for (uint8_t x=0; x<2; ++x) {
                    if (inventory[x]) {
                        if (CheckLetter(inventory[x], data[1])) {
                            PopulateObject(inventory[x], &actObj1);
                            SetResponse(elements++, A_DROPPING, L_DROPPING, TEASER);
                            SetResponse(elements++, actObj1.addrStr[NAME], actObj1.lenStr[NAME], GAME);
    38d4:	20 91 ee 38 	lds	r18, 0x38EE	; 0x8038ee <actObj1.3994+0x1a>
    38d8:	30 91 ef 38 	lds	r19, 0x38EF	; 0x8038ef <actObj1.3994+0x1b>
    return 0;
}

//
void SetResponse(uint8_t number, uint16_t address, uint16_t length, uint8_t type){
    reactStr[0][number]=address;
    38dc:	40 91 e0 38 	lds	r20, 0x38E0	; 0x8038e0 <actObj1.3994+0xc>
    38e0:	50 91 e1 38 	lds	r21, 0x38E1	; 0x8038e1 <actObj1.3994+0xd>
    38e4:	40 93 19 39 	sts	0x3919, r20	; 0x803919 <reactStr+0x4>
    38e8:	50 93 1a 39 	sts	0x391A, r21	; 0x80391a <reactStr+0x5>
    reactStr[1][number]=length;
    38ec:	20 93 59 39 	sts	0x3959, r18	; 0x803959 <reactStr+0x44>
    38f0:	30 93 5a 39 	sts	0x395A, r19	; 0x80395a <reactStr+0x45>
    reactStr[2][number]=type;
    38f4:	10 92 99 39 	sts	0x3999, r1	; 0x803999 <reactStr+0x84>
    38f8:	10 92 9a 39 	sts	0x399A, r1	; 0x80399a <reactStr+0x85>
    return 0;
}

//
void SetResponse(uint8_t number, uint16_t address, uint16_t length, uint8_t type){
    reactStr[0][number]=address;
    38fc:	2b e5       	ldi	r18, 0x5B	; 91
    38fe:	3a e7       	ldi	r19, 0x7A	; 122
    3900:	20 93 1b 39 	sts	0x391B, r18	; 0x80391b <reactStr+0x6>
    3904:	30 93 1c 39 	sts	0x391C, r19	; 0x80391c <reactStr+0x7>
    reactStr[1][number]=length;
    3908:	22 e0       	ldi	r18, 0x02	; 2
    390a:	30 e0       	ldi	r19, 0x00	; 0
    390c:	20 93 5b 39 	sts	0x395B, r18	; 0x80395b <reactStr+0x46>
    3910:	30 93 5c 39 	sts	0x395C, r19	; 0x80395c <reactStr+0x47>
    reactStr[2][number]=type;
    3914:	80 93 9b 39 	sts	0x399B, r24	; 0x80399b <reactStr+0x86>
    3918:	90 93 9c 39 	sts	0x399C, r25	; 0x80399c <reactStr+0x87>
    return 0;
}

//
void SetResponse(uint8_t number, uint16_t address, uint16_t length, uint8_t type){
    reactStr[0][number]=address;
    391c:	27 e9       	ldi	r18, 0x97	; 151
    391e:	37 e7       	ldi	r19, 0x77	; 119
    3920:	20 93 1d 39 	sts	0x391D, r18	; 0x80391d <reactStr+0x8>
    3924:	30 93 1e 39 	sts	0x391E, r19	; 0x80391e <reactStr+0x9>
    reactStr[1][number]=length;
    3928:	2d e3       	ldi	r18, 0x3D	; 61
    392a:	30 e0       	ldi	r19, 0x00	; 0
    392c:	20 93 5d 39 	sts	0x395D, r18	; 0x80395d <reactStr+0x48>
    3930:	30 93 5e 39 	sts	0x395E, r19	; 0x80395e <reactStr+0x49>
    reactStr[2][number]=type;
    3934:	80 93 9d 39 	sts	0x399D, r24	; 0x80399d <reactStr+0x88>
    3938:	90 93 9e 39 	sts	0x399E, r25	; 0x80399e <reactStr+0x89>
                            PopulateObject(inventory[x], &actObj1);
                            SetResponse(elements++, A_DROPPING, L_DROPPING, TEASER);
                            SetResponse(elements++, actObj1.addrStr[NAME], actObj1.lenStr[NAME], GAME);
                            SetResponse(elements++, A_LF, 2, TEASER);
                            SetResponse(elements++, A_RETURNING, L_RETURNING, TEASER);
                            inventory[x] = 0;
    393c:	f7 01       	movw	r30, r14
    393e:	10 82       	st	Z, r1
    3940:	11 82       	std	Z+1, r1	; 0x01
                        if (CheckLetter(inventory[x], data[1])) {
                            PopulateObject(inventory[x], &actObj1);
                            SetResponse(elements++, A_DROPPING, L_DROPPING, TEASER);
                            SetResponse(elements++, actObj1.addrStr[NAME], actObj1.lenStr[NAME], GAME);
                            SetResponse(elements++, A_LF, 2, TEASER);
                            SetResponse(elements++, A_RETURNING, L_RETURNING, TEASER);
    3942:	f5 e0       	ldi	r31, 0x05	; 5
    3944:	7f 2e       	mov	r7, r31
                            inventory[x] = 0;
                            break;
    3946:	65 cf       	rjmp	.-310    	; 0x3812 <ProcessInput+0xfe0>
                SetResponse(elements++, A_EMPTYHANDS, L_EMPTYHANDS, TEASER);
            } else if (inputLen != 2) {
                SetResponse(elements++, A_NOTPOSSIBLE, L_NOTPOSSIBLE, TEASER);
            } else {
                for (uint8_t x=0; x<2; ++x) {
                    if (inventory[x]) {
    3948:	80 91 3c 38 	lds	r24, 0x383C	; 0x80383c <inventory+0x2>
    394c:	90 91 3d 38 	lds	r25, 0x383D	; 0x80383d <inventory+0x3>
    3950:	00 97       	sbiw	r24, 0x00	; 0
    3952:	49 f0       	breq	.+18     	; 0x3966 <ProcessInput+0x1134>
                        if (CheckLetter(inventory[x], data[1])) {
    3954:	f8 01       	movw	r30, r16
    3956:	61 81       	ldd	r22, Z+1	; 0x01
    3958:	0e 94 e3 0f 	call	0x1fc6	; 0x1fc6 <CheckLetter>
    395c:	88 23       	and	r24, r24
    395e:	19 f0       	breq	.+6      	; 0x3966 <ProcessInput+0x1134>
                SetResponse(elements++, A_EMPTYHANDS, L_EMPTYHANDS, TEASER);
            } else if (inputLen != 2) {
                SetResponse(elements++, A_NOTPOSSIBLE, L_NOTPOSSIBLE, TEASER);
            } else {
                for (uint8_t x=0; x<2; ++x) {
                    if (inventory[x]) {
    3960:	81 e0       	ldi	r24, 0x01	; 1
    3962:	90 e0       	ldi	r25, 0x00	; 0
    3964:	98 cf       	rjmp	.-208    	; 0x3896 <ProcessInput+0x1064>
    return 0;
}

//
void SetResponse(uint8_t number, uint16_t address, uint16_t length, uint8_t type){
    reactStr[0][number]=address;
    3966:	84 e6       	ldi	r24, 0x64	; 100
    3968:	99 e7       	ldi	r25, 0x79	; 121
    396a:	80 93 17 39 	sts	0x3917, r24	; 0x803917 <reactStr+0x2>
    396e:	90 93 18 39 	sts	0x3918, r25	; 0x803918 <reactStr+0x3>
    reactStr[1][number]=length;
    3972:	81 e2       	ldi	r24, 0x21	; 33
    3974:	90 e0       	ldi	r25, 0x00	; 0
    3976:	22 c8       	rjmp	.-4028   	; 0x29bc <ProcessInput+0x18a>
    } else {
        SetResponse(0, A_LF, 2, TEASER);
        responseList = SetStandardResponse(1);
    }

    data[0] = 0;
    3978:	d8 01       	movw	r26, r16
    397a:	1c 92       	st	X, r1
    serRxDone = 0;
    397c:	10 92 40 38 	sts	0x3840, r1	; 0x803840 <serRxDone>
    RXCNT = 0;    
    3980:	1d ba       	out	0x1d, r1	; 29
    return 0;
}
    3982:	80 e0       	ldi	r24, 0x00	; 0
    3984:	2a 96       	adiw	r28, 0x0a	; 10
    3986:	cd bf       	out	0x3d, r28	; 61
    3988:	de bf       	out	0x3e, r29	; 62
    398a:	df 91       	pop	r29
    398c:	cf 91       	pop	r28
    398e:	1f 91       	pop	r17
    3990:	0f 91       	pop	r16
    3992:	ff 90       	pop	r15
    3994:	ef 90       	pop	r14
    3996:	df 90       	pop	r13
    3998:	cf 90       	pop	r12
    399a:	bf 90       	pop	r11
    399c:	af 90       	pop	r10
    399e:	9f 90       	pop	r9
    39a0:	8f 90       	pop	r8
    39a2:	7f 90       	pop	r7
    39a4:	6f 90       	pop	r6
    39a6:	5f 90       	pop	r5
    39a8:	4f 90       	pop	r4
    39aa:	08 95       	ret

000039ac <TextAdventure>:


//MAIN GAME STRUCTURE
uint8_t TextAdventure(){
    39ac:	cf 93       	push	r28
    static uint8_t serInput[RXLEN];
    uint16_t PunishmentCount;
    
    /* Count down PunishmentTime on WING LEDs */
    if (PunishmentTime != 0) {
    39ae:	80 91 01 39 	lds	r24, 0x3901	; 0x803901 <PunishmentTime>
    39b2:	90 91 02 39 	lds	r25, 0x3902	; 0x803902 <PunishmentTime+0x1>
    39b6:	89 2b       	or	r24, r25
    39b8:	29 f4       	brne	.+10     	; 0x39c4 <TextAdventure+0x18>
            }
        }
    }

    //Still sending data to serial?
    if (CheckSend()) return 1;
    39ba:	0e 94 c2 10 	call	0x2184	; 0x2184 <CheckSend>
    39be:	81 11       	cpse	r24, r1
    39c0:	49 c0       	rjmp	.+146    	; 0x3a54 <TextAdventure+0xa8>
    39c2:	43 c0       	rjmp	.+134    	; 0x3a4a <TextAdventure+0x9e>
    static uint8_t serInput[RXLEN];
    uint16_t PunishmentCount;
    
    /* Count down PunishmentTime on WING LEDs */
    if (PunishmentTime != 0) {
        PunishmentCount = getClock();
    39c4:	0e 94 b5 0c 	call	0x196a	; 0x196a <getClock>
        if (PunishmentCount < PunishmentTime)
    39c8:	20 91 01 39 	lds	r18, 0x3901	; 0x803901 <PunishmentTime>
    39cc:	30 91 02 39 	lds	r19, 0x3902	; 0x803902 <PunishmentTime+0x1>
    39d0:	82 17       	cp	r24, r18
    39d2:	93 07       	cpc	r25, r19
    39d4:	08 f4       	brcc	.+2      	; 0x39d8 <TextAdventure+0x2c>
            PunishmentCount += 256 * 60;
    39d6:	94 5c       	subi	r25, 0xC4	; 196
        PunishmentCount -= PunishmentTime;
    39d8:	82 1b       	sub	r24, r18
    39da:	93 0b       	sbc	r25, r19
        if (PunishmentCount > 10) {
    39dc:	8b 30       	cpi	r24, 0x0B	; 11
    39de:	91 05       	cpc	r25, r1
    39e0:	30 f0       	brcs	.+12     	; 0x39ee <TextAdventure+0x42>
            PunishmentTime = 0;
    39e2:	10 92 01 39 	sts	0x3901, r1	; 0x803901 <PunishmentTime>
    39e6:	10 92 02 39 	sts	0x3902, r1	; 0x803902 <PunishmentTime+0x1>
            PunishmentCount = 10;
    39ea:	8a e0       	ldi	r24, 0x0A	; 10
    39ec:	90 e0       	ldi	r25, 0x00	; 0
        }
        if (gameNow == TEXT ) {
    39ee:	20 91 38 38 	lds	r18, 0x3838	; 0x803838 <gameNow>
    39f2:	21 11       	cpse	r18, r1
    39f4:	e2 cf       	rjmp	.-60     	; 0x39ba <TextAdventure+0xe>
    39f6:	ee e8       	ldi	r30, 0x8E	; 142
    39f8:	fc eb       	ldi	r31, 0xBC	; 188
            for (uint8_t i=0; i<5; i++) {
                if (PunishmentCount + i + 5 < 10)
    39fa:	9c 01       	movw	r18, r24
    39fc:	2b 5f       	subi	r18, 0xFB	; 251
    39fe:	3f 4f       	sbci	r19, 0xFF	; 255
                    iLED[WING[R][i]] = dimValue;
    3a00:	a0 81       	ld	r26, Z
    3a02:	b0 e0       	ldi	r27, 0x00	; 0
            PunishmentTime = 0;
            PunishmentCount = 10;
        }
        if (gameNow == TEXT ) {
            for (uint8_t i=0; i<5; i++) {
                if (PunishmentCount + i + 5 < 10)
    3a04:	2a 30       	cpi	r18, 0x0A	; 10
    3a06:	31 05       	cpc	r19, r1
    3a08:	30 f4       	brcc	.+12     	; 0x3a16 <TextAdventure+0x6a>
                    iLED[WING[R][i]] = dimValue;
    3a0a:	20 91 0b 38 	lds	r18, 0x380B	; 0x80380b <dimValue>
    3a0e:	ac 53       	subi	r26, 0x3C	; 60
    3a10:	b5 4c       	sbci	r27, 0xC5	; 197
    3a12:	2c 93       	st	X, r18
    3a14:	06 c0       	rjmp	.+12     	; 0x3a22 <TextAdventure+0x76>
                else
                    iLED[WING[R][i]] = 0;
    3a16:	ac 53       	subi	r26, 0x3C	; 60
    3a18:	b5 4c       	sbci	r27, 0xC5	; 197
    3a1a:	1c 92       	st	X, r1

                if (PunishmentCount + i < 10)
    3a1c:	8a 30       	cpi	r24, 0x0A	; 10
    3a1e:	91 05       	cpc	r25, r1
    3a20:	40 f4       	brcc	.+16     	; 0x3a32 <TextAdventure+0x86>
                    iLED[WING[L][i]] = dimValue;
    3a22:	a5 81       	ldd	r26, Z+5	; 0x05
    3a24:	b0 e0       	ldi	r27, 0x00	; 0
    3a26:	20 91 0b 38 	lds	r18, 0x380B	; 0x80380b <dimValue>
    3a2a:	ac 53       	subi	r26, 0x3C	; 60
    3a2c:	b5 4c       	sbci	r27, 0xC5	; 197
    3a2e:	2c 93       	st	X, r18
    3a30:	05 c0       	rjmp	.+10     	; 0x3a3c <TextAdventure+0x90>
                else
                    iLED[WING[L][i]] = 0;
    3a32:	a5 81       	ldd	r26, Z+5	; 0x05
    3a34:	b0 e0       	ldi	r27, 0x00	; 0
    3a36:	ac 53       	subi	r26, 0x3C	; 60
    3a38:	b5 4c       	sbci	r27, 0xC5	; 197
    3a3a:	1c 92       	st	X, r1
    3a3c:	01 96       	adiw	r24, 0x01	; 1
    3a3e:	31 96       	adiw	r30, 0x01	; 1
        if (PunishmentCount > 10) {
            PunishmentTime = 0;
            PunishmentCount = 10;
        }
        if (gameNow == TEXT ) {
            for (uint8_t i=0; i<5; i++) {
    3a40:	2c eb       	ldi	r18, 0xBC	; 188
    3a42:	e3 39       	cpi	r30, 0x93	; 147
    3a44:	f2 07       	cpc	r31, r18
    3a46:	c9 f6       	brne	.-78     	; 0x39fa <TextAdventure+0x4e>
    3a48:	b8 cf       	rjmp	.-144    	; 0x39ba <TextAdventure+0xe>

    //Still sending data to serial?
    if (CheckSend()) return 1;

    //Not sending? Process next response part to send, if any.
    if (CheckResponse()) return 1;        
    3a4a:	0e 94 30 11 	call	0x2260	; 0x2260 <CheckResponse>
    3a4e:	c8 2f       	mov	r28, r24
    3a50:	88 23       	and	r24, r24
    3a52:	11 f0       	breq	.+4      	; 0x3a58 <TextAdventure+0xac>
            }
        }
    }

    //Still sending data to serial?
    if (CheckSend()) return 1;
    3a54:	c1 e0       	ldi	r28, 0x01	; 1
    3a56:	13 c0       	rjmp	.+38     	; 0x3a7e <TextAdventure+0xd2>

    //Not sending? Process next response part to send, if any.
    if (CheckResponse()) return 1;        

    if (PunishmentTime == 0) {
    3a58:	80 91 01 39 	lds	r24, 0x3901	; 0x803901 <PunishmentTime>
    3a5c:	90 91 02 39 	lds	r25, 0x3902	; 0x803902 <PunishmentTime+0x1>
    3a60:	89 2b       	or	r24, r25
    3a62:	69 f4       	brne	.+26     	; 0x3a7e <TextAdventure+0xd2>
        //No responses to send, check if there is user input.
        if (CheckInput(&serInput[0])) return 2; 
    3a64:	88 e6       	ldi	r24, 0x68	; 104
    3a66:	98 e3       	ldi	r25, 0x38	; 56
    3a68:	0e 94 77 11 	call	0x22ee	; 0x22ee <CheckInput>
    3a6c:	c8 2f       	mov	r28, r24
    3a6e:	81 11       	cpse	r24, r1
    3a70:	05 c0       	rjmp	.+10     	; 0x3a7c <TextAdventure+0xd0>

        //Input found, process and save (changes only)
        ProcessInput(&serInput[0]);
    3a72:	88 e6       	ldi	r24, 0x68	; 104
    3a74:	98 e3       	ldi	r25, 0x38	; 56
    3a76:	0e 94 19 14 	call	0x2832	; 0x2832 <ProcessInput>
    3a7a:	01 c0       	rjmp	.+2      	; 0x3a7e <TextAdventure+0xd2>
    //Not sending? Process next response part to send, if any.
    if (CheckResponse()) return 1;        

    if (PunishmentTime == 0) {
        //No responses to send, check if there is user input.
        if (CheckInput(&serInput[0])) return 2; 
    3a7c:	c2 e0       	ldi	r28, 0x02	; 2
        //Input found, process and save (changes only)
        ProcessInput(&serInput[0]);
    }

    return 0;
}
    3a7e:	8c 2f       	mov	r24, r28
    3a80:	cf 91       	pop	r28
    3a82:	08 95       	ret

00003a84 <main>:


//This is where it begins, inits first and main program in while(1) loop.
int main(void)
{
    Setup();
    3a84:	0e 94 96 05 	call	0xb2c	; 0xb2c <Setup>

    SerSpeed(0xff);
    3a88:	8f ef       	ldi	r24, 0xFF	; 255
    3a8a:	0e 94 06 09 	call	0x120c	; 0x120c <SerSpeed>
    3a8e:	ac e9       	ldi	r26, 0x9C	; 156
    3a90:	bc eb       	ldi	r27, 0xBC	; 188
    ////Turn on LEDs on low setting to check for interrupt glitches

    //"Hacker"
    for (uint8_t n=0; n<6; n++){
        iLED[HCKR[R][n]] = 1;
    3a92:	81 e0       	ldi	r24, 0x01	; 1
    3a94:	ed 91       	ld	r30, X+
    3a96:	f0 e0       	ldi	r31, 0x00	; 0
    3a98:	ec 53       	subi	r30, 0x3C	; 60
    3a9a:	f5 4c       	sbci	r31, 0xC5	; 197
    3a9c:	80 83       	st	Z, r24
        iLED[HCKR[G][n]] = 1;
    3a9e:	15 96       	adiw	r26, 0x05	; 5
    3aa0:	ec 91       	ld	r30, X
    3aa2:	15 97       	sbiw	r26, 0x05	; 5
    3aa4:	f0 e0       	ldi	r31, 0x00	; 0
    3aa6:	ec 53       	subi	r30, 0x3C	; 60
    3aa8:	f5 4c       	sbci	r31, 0xC5	; 197
    3aaa:	80 83       	st	Z, r24

    SerSpeed(0xff);
    ////Turn on LEDs on low setting to check for interrupt glitches

    //"Hacker"
    for (uint8_t n=0; n<6; n++){
    3aac:	2c eb       	ldi	r18, 0xBC	; 188
    3aae:	a2 3a       	cpi	r26, 0xA2	; 162
    3ab0:	b2 07       	cpc	r27, r18
    3ab2:	81 f7       	brne	.-32     	; 0x3a94 <main+0x10>
    3ab4:	ee e8       	ldi	r30, 0x8E	; 142
    3ab6:	fc eb       	ldi	r31, 0xBC	; 188
        iLED[HCKR[G][n]] = 1;
    }

    //"Wings"
    for (uint8_t n=0; n<5; n++){
        iLED[WING[L][n]] = 1;
    3ab8:	91 e0       	ldi	r25, 0x01	; 1
    3aba:	ef 01       	movw	r28, r30
    3abc:	a5 81       	ldd	r26, Z+5	; 0x05
    3abe:	b0 e0       	ldi	r27, 0x00	; 0
    3ac0:	ac 53       	subi	r26, 0x3C	; 60
    3ac2:	b5 4c       	sbci	r27, 0xC5	; 197
    3ac4:	81 e0       	ldi	r24, 0x01	; 1
    3ac6:	9c 93       	st	X, r25
    3ac8:	31 96       	adiw	r30, 0x01	; 1
        iLED[WING[R][n]] = 1;
    3aca:	a8 81       	ld	r26, Y
    3acc:	b0 e0       	ldi	r27, 0x00	; 0
    3ace:	ac 53       	subi	r26, 0x3C	; 60
    3ad0:	b5 4c       	sbci	r27, 0xC5	; 197
    3ad2:	9c 93       	st	X, r25
        iLED[HCKR[R][n]] = 1;
        iLED[HCKR[G][n]] = 1;
    }

    //"Wings"
    for (uint8_t n=0; n<5; n++){
    3ad4:	2c eb       	ldi	r18, 0xBC	; 188
    3ad6:	e3 39       	cpi	r30, 0x93	; 147
    3ad8:	f2 07       	cpc	r31, r18
    3ada:	79 f7       	brne	.-34     	; 0x3aba <main+0x36>
        iLED[WING[L][n]] = 1;
        iLED[WING[R][n]] = 1;
    }

    //"Others"
    iLED[EYE[G][R]] = 1;
    3adc:	e0 91 9a bc 	lds	r30, 0xBC9A	; 0x80bc9a <__bss_end+0x8186>
    3ae0:	f0 e0       	ldi	r31, 0x00	; 0
    3ae2:	ec 53       	subi	r30, 0x3C	; 60
    3ae4:	f5 4c       	sbci	r31, 0xC5	; 197
    3ae6:	80 83       	st	Z, r24
    iLED[EYE[G][L]] = 1;
    3ae8:	e0 91 9b bc 	lds	r30, 0xBC9B	; 0x80bc9b <__bss_end+0x8187>
    3aec:	f0 e0       	ldi	r31, 0x00	; 0
    3aee:	ec 53       	subi	r30, 0x3C	; 60
    3af0:	f5 4c       	sbci	r31, 0xC5	; 197
    3af2:	80 83       	st	Z, r24
    iLED[EYE[R][R]] = 1;
    3af4:	e0 91 98 bc 	lds	r30, 0xBC98	; 0x80bc98 <__bss_end+0x8184>
    3af8:	f0 e0       	ldi	r31, 0x00	; 0
    3afa:	ec 53       	subi	r30, 0x3C	; 60
    3afc:	f5 4c       	sbci	r31, 0xC5	; 197
    3afe:	80 83       	st	Z, r24
    iLED[EYE[R][L]] = 1;
    3b00:	e0 91 99 bc 	lds	r30, 0xBC99	; 0x80bc99 <__bss_end+0x8185>
    3b04:	f0 e0       	ldi	r31, 0x00	; 0
    3b06:	ec 53       	subi	r30, 0x3C	; 60
    3b08:	f5 4c       	sbci	r31, 0xC5	; 197
    3b0a:	80 83       	st	Z, r24
    iLED[SCARAB[R]] = 1;
    3b0c:	e0 91 8c bc 	lds	r30, 0xBC8C	; 0x80bc8c <__bss_end+0x8178>
    3b10:	f0 e0       	ldi	r31, 0x00	; 0
    3b12:	ec 53       	subi	r30, 0x3C	; 60
    3b14:	f5 4c       	sbci	r31, 0xC5	; 197
    3b16:	80 83       	st	Z, r24
    iLED[SCARAB[G]] = 1;
    3b18:	e0 91 8d bc 	lds	r30, 0xBC8D	; 0x80bc8d <__bss_end+0x8179>
    3b1c:	f0 e0       	ldi	r31, 0x00	; 0
    3b1e:	ec 53       	subi	r30, 0x3C	; 60
    3b20:	f5 4c       	sbci	r31, 0xC5	; 197
    3b22:	80 83       	st	Z, r24
    iLED[BADGER] = 1;
    3b24:	e0 91 8b bc 	lds	r30, 0xBC8B	; 0x80bc8b <__bss_end+0x8177>
    3b28:	f0 e0       	ldi	r31, 0x00	; 0
    3b2a:	ec 53       	subi	r30, 0x3C	; 60
    3b2c:	f5 4c       	sbci	r31, 0xC5	; 197
    3b2e:	80 83       	st	Z, r24
    iLED[CAT] = 1;
    3b30:	e0 91 8a bc 	lds	r30, 0xBC8A	; 0x80bc8a <__bss_end+0x8176>
    3b34:	f0 e0       	ldi	r31, 0x00	; 0
    3b36:	ec 53       	subi	r30, 0x3C	; 60
    3b38:	f5 4c       	sbci	r31, 0xC5	; 197
    3b3a:	80 83       	st	Z, r24

    LoadGameState();
    3b3c:	0e 94 06 0b 	call	0x160c	; 0x160c <LoadGameState>

    while (TRUE) {
        if (GenerateAudio()) {
    3b40:	0e 94 d4 0b 	call	0x17a8	; 0x17a8 <GenerateAudio>
    3b44:	88 23       	and	r24, r24
    3b46:	e1 f3       	breq	.-8      	; 0x3b40 <main+0xbc>
            buttonState = CheckButtons(buttonState);
    3b48:	80 91 09 38 	lds	r24, 0x3809	; 0x803809 <buttonState>
    3b4c:	0e 94 35 09 	call	0x126a	; 0x126a <CheckButtons>
    3b50:	80 93 09 38 	sts	0x3809, r24	; 0x803809 <buttonState>
            buttonMark = 0;
    3b54:	10 92 3e 38 	sts	0x383E, r1	; 0x80383e <buttonMark>

            if (VREF_CTRLA == 0x12) SelectAuIn(); else SelectTSens();
    3b58:	80 91 a0 00 	lds	r24, 0x00A0	; 0x8000a0 <__TEXT_REGION_LENGTH__+0x7000a0>
    3b5c:	82 31       	cpi	r24, 0x12	; 18
    3b5e:	19 f4       	brne	.+6      	; 0x3b66 <main+0xe2>
    3b60:	0e 94 26 09 	call	0x124c	; 0x124c <SelectAuIn>
    3b64:	02 c0       	rjmp	.+4      	; 0x3b6a <main+0xe6>
    3b66:	0e 94 17 09 	call	0x122e	; 0x122e <SelectTSens>

            GenerateBlinks();
    3b6a:	0e 94 98 0b 	call	0x1730	; 0x1730 <GenerateBlinks>

            //Main game, to complete: Finish sub-game MagnetMaze and MakeFriends too.
            TextAdventure();
    3b6e:	1e df       	rcall	.-452    	; 0x39ac <TextAdventure>

            //Other games & user interaction checks
            MagnetMaze();
    3b70:	0e 94 93 04 	call	0x926	; 0x926 <MagnetMaze>
            LanyardCode();
    3b74:	0e 94 33 03 	call	0x666	; 0x666 <LanyardCode>
            BastetDictates();
    3b78:	0e 94 3c 0d 	call	0x1a78	; 0x1a78 <BastetDictates>
            MakeFriends();
    3b7c:	0e 94 7c 00 	call	0xf8	; 0xf8 <MakeFriends>

            //Save progress
            SaveGameState();
    3b80:	0e 94 14 0a 	call	0x1428	; 0x1428 <SaveGameState>

            //Check light sensor status (added hysteresis to preserve writing cycles to internal EEPROM)
            if (adcPhot < 10) WriteStatusBit(116, 1);
    3b84:	80 91 b7 3a 	lds	r24, 0x3AB7	; 0x803ab7 <adcPhot>
    3b88:	90 91 b8 3a 	lds	r25, 0x3AB8	; 0x803ab8 <adcPhot+0x1>
    3b8c:	0a 97       	sbiw	r24, 0x0a	; 10
    3b8e:	20 f4       	brcc	.+8      	; 0x3b98 <main+0x114>
    3b90:	61 e0       	ldi	r22, 0x01	; 1
    3b92:	84 e7       	ldi	r24, 0x74	; 116
    3b94:	0e 94 9b 0a 	call	0x1536	; 0x1536 <WriteStatusBit>
            if (adcPhot > 100) WriteStatusBit(116, 0);
    3b98:	80 91 b7 3a 	lds	r24, 0x3AB7	; 0x803ab7 <adcPhot>
    3b9c:	90 91 b8 3a 	lds	r25, 0x3AB8	; 0x803ab8 <adcPhot+0x1>
    3ba0:	85 36       	cpi	r24, 0x65	; 101
    3ba2:	91 05       	cpc	r25, r1
    3ba4:	20 f0       	brcs	.+8      	; 0x3bae <main+0x12a>
    3ba6:	60 e0       	ldi	r22, 0x00	; 0
    3ba8:	84 e7       	ldi	r24, 0x74	; 116
    3baa:	0e 94 9b 0a 	call	0x1536	; 0x1536 <WriteStatusBit>

            //Check temperature
            HotSummer();
    3bae:	0e 94 33 0b 	call	0x1666	; 0x1666 <HotSummer>
    3bb2:	c6 cf       	rjmp	.-116    	; 0x3b40 <main+0xbc>

00003bb4 <__udivmodqi4>:
    3bb4:	99 1b       	sub	r25, r25
    3bb6:	79 e0       	ldi	r23, 0x09	; 9
    3bb8:	04 c0       	rjmp	.+8      	; 0x3bc2 <__udivmodqi4_ep>

00003bba <__udivmodqi4_loop>:
    3bba:	99 1f       	adc	r25, r25
    3bbc:	96 17       	cp	r25, r22
    3bbe:	08 f0       	brcs	.+2      	; 0x3bc2 <__udivmodqi4_ep>
    3bc0:	96 1b       	sub	r25, r22

00003bc2 <__udivmodqi4_ep>:
    3bc2:	88 1f       	adc	r24, r24
    3bc4:	7a 95       	dec	r23
    3bc6:	c9 f7       	brne	.-14     	; 0x3bba <__udivmodqi4_loop>
    3bc8:	80 95       	com	r24
    3bca:	08 95       	ret

00003bcc <__udivmodhi4>:
    3bcc:	aa 1b       	sub	r26, r26
    3bce:	bb 1b       	sub	r27, r27
    3bd0:	51 e1       	ldi	r21, 0x11	; 17
    3bd2:	07 c0       	rjmp	.+14     	; 0x3be2 <__udivmodhi4_ep>

00003bd4 <__udivmodhi4_loop>:
    3bd4:	aa 1f       	adc	r26, r26
    3bd6:	bb 1f       	adc	r27, r27
    3bd8:	a6 17       	cp	r26, r22
    3bda:	b7 07       	cpc	r27, r23
    3bdc:	10 f0       	brcs	.+4      	; 0x3be2 <__udivmodhi4_ep>
    3bde:	a6 1b       	sub	r26, r22
    3be0:	b7 0b       	sbc	r27, r23

00003be2 <__udivmodhi4_ep>:
    3be2:	88 1f       	adc	r24, r24
    3be4:	99 1f       	adc	r25, r25
    3be6:	5a 95       	dec	r21
    3be8:	a9 f7       	brne	.-22     	; 0x3bd4 <__udivmodhi4_loop>
    3bea:	80 95       	com	r24
    3bec:	90 95       	com	r25
    3bee:	bc 01       	movw	r22, r24
    3bf0:	cd 01       	movw	r24, r26
    3bf2:	08 95       	ret

00003bf4 <__divmodhi4>:
    3bf4:	97 fb       	bst	r25, 7
    3bf6:	07 2e       	mov	r0, r23
    3bf8:	16 f4       	brtc	.+4      	; 0x3bfe <__divmodhi4+0xa>
    3bfa:	00 94       	com	r0
    3bfc:	06 d0       	rcall	.+12     	; 0x3c0a <__divmodhi4_neg1>
    3bfe:	77 fd       	sbrc	r23, 7
    3c00:	08 d0       	rcall	.+16     	; 0x3c12 <__divmodhi4_neg2>
    3c02:	e4 df       	rcall	.-56     	; 0x3bcc <__udivmodhi4>
    3c04:	07 fc       	sbrc	r0, 7
    3c06:	05 d0       	rcall	.+10     	; 0x3c12 <__divmodhi4_neg2>
    3c08:	3e f4       	brtc	.+14     	; 0x3c18 <__divmodhi4_exit>

00003c0a <__divmodhi4_neg1>:
    3c0a:	90 95       	com	r25
    3c0c:	81 95       	neg	r24
    3c0e:	9f 4f       	sbci	r25, 0xFF	; 255
    3c10:	08 95       	ret

00003c12 <__divmodhi4_neg2>:
    3c12:	70 95       	com	r23
    3c14:	61 95       	neg	r22
    3c16:	7f 4f       	sbci	r23, 0xFF	; 255

00003c18 <__divmodhi4_exit>:
    3c18:	08 95       	ret

00003c1a <__udivmodsi4>:
    3c1a:	a1 e2       	ldi	r26, 0x21	; 33
    3c1c:	1a 2e       	mov	r1, r26
    3c1e:	aa 1b       	sub	r26, r26
    3c20:	bb 1b       	sub	r27, r27
    3c22:	fd 01       	movw	r30, r26
    3c24:	0d c0       	rjmp	.+26     	; 0x3c40 <__udivmodsi4_ep>

00003c26 <__udivmodsi4_loop>:
    3c26:	aa 1f       	adc	r26, r26
    3c28:	bb 1f       	adc	r27, r27
    3c2a:	ee 1f       	adc	r30, r30
    3c2c:	ff 1f       	adc	r31, r31
    3c2e:	a2 17       	cp	r26, r18
    3c30:	b3 07       	cpc	r27, r19
    3c32:	e4 07       	cpc	r30, r20
    3c34:	f5 07       	cpc	r31, r21
    3c36:	20 f0       	brcs	.+8      	; 0x3c40 <__udivmodsi4_ep>
    3c38:	a2 1b       	sub	r26, r18
    3c3a:	b3 0b       	sbc	r27, r19
    3c3c:	e4 0b       	sbc	r30, r20
    3c3e:	f5 0b       	sbc	r31, r21

00003c40 <__udivmodsi4_ep>:
    3c40:	66 1f       	adc	r22, r22
    3c42:	77 1f       	adc	r23, r23
    3c44:	88 1f       	adc	r24, r24
    3c46:	99 1f       	adc	r25, r25
    3c48:	1a 94       	dec	r1
    3c4a:	69 f7       	brne	.-38     	; 0x3c26 <__udivmodsi4_loop>
    3c4c:	60 95       	com	r22
    3c4e:	70 95       	com	r23
    3c50:	80 95       	com	r24
    3c52:	90 95       	com	r25
    3c54:	9b 01       	movw	r18, r22
    3c56:	ac 01       	movw	r20, r24
    3c58:	bd 01       	movw	r22, r26
    3c5a:	cf 01       	movw	r24, r30
    3c5c:	08 95       	ret

00003c5e <_exit>:
    3c5e:	f8 94       	cli

00003c60 <__stop_program>:
    3c60:	ff cf       	rjmp	.-2      	; 0x3c60 <__stop_program>
