
ISR_IO.elf:     file format elf32-avr

Sections:
Idx Name          Size      VMA       LMA       File off  Algn
  0 .data         00000028  00803800  000033ce  00003482  2**0
                  CONTENTS, ALLOC, LOAD, DATA
  1 .text         000032f4  00000000  00000000  000000b4  2**1
                  CONTENTS, ALLOC, LOAD, READONLY, CODE
  2 .rodata       000000da  0000b2f4  000032f4  000033a8  2**0
                  CONTENTS, ALLOC, LOAD, READONLY, DATA
  3 .bss          000002de  00803828  00803828  000034aa  2**0
                  ALLOC
  4 .comment      00000030  00000000  00000000  000034aa  2**0
                  CONTENTS, READONLY
  5 .note.gnu.avr.deviceinfo 00000040  00000000  00000000  000034dc  2**2
                  CONTENTS, READONLY
  6 .debug_aranges 000002d0  00000000  00000000  0000351c  2**0
                  CONTENTS, READONLY, DEBUGGING
  7 .debug_info   00006261  00000000  00000000  000037ec  2**0
                  CONTENTS, READONLY, DEBUGGING
  8 .debug_abbrev 00002657  00000000  00000000  00009a4d  2**0
                  CONTENTS, READONLY, DEBUGGING
  9 .debug_line   000032a7  00000000  00000000  0000c0a4  2**0
                  CONTENTS, READONLY, DEBUGGING
 10 .debug_frame  0000086c  00000000  00000000  0000f34c  2**2
                  CONTENTS, READONLY, DEBUGGING
 11 .debug_str    000018b7  00000000  00000000  0000fbb8  2**0
                  CONTENTS, READONLY, DEBUGGING
 12 .debug_loc    00004010  00000000  00000000  0001146f  2**0
                  CONTENTS, READONLY, DEBUGGING
 13 .debug_ranges 00000340  00000000  00000000  0001547f  2**0
                  CONTENTS, READONLY, DEBUGGING

Disassembly of section .text:

00000000 <__vectors>:
       0:	3d c0       	rjmp	.+122    	; 0x7c <__ctors_end>
       2:	00 00       	nop
       4:	58 c0       	rjmp	.+176    	; 0xb6 <__bad_interrupt>
       6:	00 00       	nop
       8:	56 c0       	rjmp	.+172    	; 0xb6 <__bad_interrupt>
       a:	00 00       	nop
       c:	54 c0       	rjmp	.+168    	; 0xb6 <__bad_interrupt>
       e:	00 00       	nop
      10:	52 c0       	rjmp	.+164    	; 0xb6 <__bad_interrupt>
      12:	00 00       	nop
      14:	50 c0       	rjmp	.+160    	; 0xb6 <__bad_interrupt>
      16:	00 00       	nop
      18:	9d c6       	rjmp	.+3386   	; 0xd54 <__vector_6>
      1a:	00 00       	nop
      1c:	e5 c6       	rjmp	.+3530   	; 0xde8 <__vector_7>
      1e:	00 00       	nop
      20:	d0 c4       	rjmp	.+2464   	; 0x9c2 <__vector_8>
      22:	00 00       	nop
      24:	48 c0       	rjmp	.+144    	; 0xb6 <__bad_interrupt>
      26:	00 00       	nop
      28:	46 c0       	rjmp	.+140    	; 0xb6 <__bad_interrupt>
      2a:	00 00       	nop
      2c:	44 c0       	rjmp	.+136    	; 0xb6 <__bad_interrupt>
      2e:	00 00       	nop
      30:	42 c0       	rjmp	.+132    	; 0xb6 <__bad_interrupt>
      32:	00 00       	nop
      34:	17 c5       	rjmp	.+2606   	; 0xa64 <__vector_13>
      36:	00 00       	nop
      38:	48 c5       	rjmp	.+2704   	; 0xaca <__vector_14>
      3a:	00 00       	nop
      3c:	3c c0       	rjmp	.+120    	; 0xb6 <__bad_interrupt>
      3e:	00 00       	nop
      40:	3a c0       	rjmp	.+116    	; 0xb6 <__bad_interrupt>
      42:	00 00       	nop
      44:	38 c0       	rjmp	.+112    	; 0xb6 <__bad_interrupt>
      46:	00 00       	nop
      48:	36 c0       	rjmp	.+108    	; 0xb6 <__bad_interrupt>
      4a:	00 00       	nop
      4c:	34 c0       	rjmp	.+104    	; 0xb6 <__bad_interrupt>
      4e:	00 00       	nop
      50:	06 c6       	rjmp	.+3084   	; 0xc5e <__vector_20>
      52:	00 00       	nop
      54:	30 c0       	rjmp	.+96     	; 0xb6 <__bad_interrupt>
      56:	00 00       	nop
      58:	35 c6       	rjmp	.+3178   	; 0xcc4 <__vector_22>
      5a:	00 00       	nop
      5c:	2c c0       	rjmp	.+88     	; 0xb6 <__bad_interrupt>
      5e:	00 00       	nop
      60:	2a c0       	rjmp	.+84     	; 0xb6 <__bad_interrupt>
      62:	00 00       	nop
      64:	28 c0       	rjmp	.+80     	; 0xb6 <__bad_interrupt>
      66:	00 00       	nop
      68:	26 c0       	rjmp	.+76     	; 0xb6 <__bad_interrupt>
      6a:	00 00       	nop
      6c:	81 c5       	rjmp	.+2818   	; 0xb70 <__vector_27>
      6e:	00 00       	nop
      70:	da c5       	rjmp	.+2996   	; 0xc26 <__vector_28>
      72:	00 00       	nop
      74:	20 c0       	rjmp	.+64     	; 0xb6 <__bad_interrupt>
      76:	00 00       	nop
      78:	1e c0       	rjmp	.+60     	; 0xb6 <__bad_interrupt>
	...

0000007c <__ctors_end>:
      7c:	11 24       	eor	r1, r1
      7e:	1f be       	out	0x3f, r1	; 63
      80:	cf ef       	ldi	r28, 0xFF	; 255
      82:	cd bf       	out	0x3d, r28	; 61
      84:	df e3       	ldi	r29, 0x3F	; 63
      86:	de bf       	out	0x3e, r29	; 62

00000088 <__do_copy_data>:
      88:	18 e3       	ldi	r17, 0x38	; 56
      8a:	a0 e0       	ldi	r26, 0x00	; 0
      8c:	b8 e3       	ldi	r27, 0x38	; 56
      8e:	ee ec       	ldi	r30, 0xCE	; 206
      90:	f3 e3       	ldi	r31, 0x33	; 51
      92:	02 c0       	rjmp	.+4      	; 0x98 <__do_copy_data+0x10>
      94:	05 90       	lpm	r0, Z+
      96:	0d 92       	st	X+, r0
      98:	a8 32       	cpi	r26, 0x28	; 40
      9a:	b1 07       	cpc	r27, r17
      9c:	d9 f7       	brne	.-10     	; 0x94 <__do_copy_data+0xc>

0000009e <__do_clear_bss>:
      9e:	2b e3       	ldi	r18, 0x3B	; 59
      a0:	a8 e2       	ldi	r26, 0x28	; 40
      a2:	b8 e3       	ldi	r27, 0x38	; 56
      a4:	01 c0       	rjmp	.+2      	; 0xa8 <.do_clear_bss_start>

000000a6 <.do_clear_bss_loop>:
      a6:	1d 92       	st	X+, r1

000000a8 <.do_clear_bss_start>:
      a8:	a6 30       	cpi	r26, 0x06	; 6
      aa:	b2 07       	cpc	r27, r18
      ac:	e1 f7       	brne	.-8      	; 0xa6 <.do_clear_bss_loop>
      ae:	0e 94 ab 18 	call	0x3156	; 0x3156 <main>
      b2:	0c 94 78 19 	jmp	0x32f0	; 0x32f0 <_exit>

000000b6 <__bad_interrupt>:
      b6:	a4 cf       	rjmp	.-184    	; 0x0 <__vectors>

000000b8 <MakeFriends>:

// Main game loop
uint8_t MakeFriends(){
  
    return 0;
}
      b8:	80 e0       	ldi	r24, 0x00	; 0
      ba:	08 95       	ret

000000bc <I2C_init>:
// the Atmel device documentation mentions a special command for repeated start TWI_MCMD_REPSTART_gc,
// but this is not used in Atmel's demo code, so we don't use it either

void I2C_rep_start(uint8_t shifted_addr)						    // send repeated start, device_addr + LSB set if READ
{
	TWI0.MADDR = shifted_addr;	
      bc:	81 e0       	ldi	r24, 0x01	; 1
      be:	80 93 22 04 	sts	0x0422, r24	; 0x800422 <__TEXT_REGION_LENGTH__+0x700422>
      c2:	e6 e2       	ldi	r30, 0x26	; 38
      c4:	f4 e0       	ldi	r31, 0x04	; 4
      c6:	80 83       	st	Z, r24
      c8:	10 92 30 04 	sts	0x0430, r1	; 0x800430 <__TEXT_REGION_LENGTH__+0x700430>
      cc:	a1 e2       	ldi	r26, 0x21	; 33
      ce:	b4 e0       	ldi	r27, 0x04	; 4
      d0:	92 e0       	ldi	r25, 0x02	; 2
      d2:	9c 93       	st	X, r25
      d4:	90 83       	st	Z, r25
      d6:	10 92 31 04 	sts	0x0431, r1	; 0x800431 <__TEXT_REGION_LENGTH__+0x700431>
      da:	e0 e1       	ldi	r30, 0x10	; 16
      dc:	f8 e0       	ldi	r31, 0x08	; 8
      de:	97 e0       	ldi	r25, 0x07	; 7
      e0:	96 83       	std	Z+6, r25	; 0x06
      e2:	98 e0       	ldi	r25, 0x08	; 8
      e4:	94 83       	std	Z+4, r25	; 0x04
      e6:	83 83       	std	Z+3, r24	; 0x03
      e8:	8c 93       	st	X, r24
      ea:	85 81       	ldd	r24, Z+5	; 0x05
      ec:	81 60       	ori	r24, 0x01	; 1
      ee:	85 83       	std	Z+5, r24	; 0x05
      f0:	85 81       	ldd	r24, Z+5	; 0x05
      f2:	84 6c       	ori	r24, 0xC4	; 196
      f4:	85 83       	std	Z+5, r24	; 0x05
      f6:	08 95       	ret

000000f8 <I2C_recover>:
      f8:	80 91 14 08 	lds	r24, 0x0814	; 0x800814 <__TEXT_REGION_LENGTH__+0x700814>
      fc:	88 60       	ori	r24, 0x08	; 8
      fe:	80 93 14 08 	sts	0x0814, r24	; 0x800814 <__TEXT_REGION_LENGTH__+0x700814>
     102:	10 92 13 08 	sts	0x0813, r1	; 0x800813 <__TEXT_REGION_LENGTH__+0x700813>
     106:	82 e0       	ldi	r24, 0x02	; 2
     108:	80 93 22 04 	sts	0x0422, r24	; 0x800422 <__TEXT_REGION_LENGTH__+0x700422>
     10c:	99 e0       	ldi	r25, 0x09	; 9
     10e:	21 e0       	ldi	r18, 0x01	; 1
     110:	81 e0       	ldi	r24, 0x01	; 1
     112:	20 93 21 04 	sts	0x0421, r18	; 0x800421 <__TEXT_REGION_LENGTH__+0x700421>
     116:	30 e1       	ldi	r19, 0x10	; 16
     118:	3a 95       	dec	r19
     11a:	f1 f7       	brne	.-4      	; 0x118 <I2C_recover+0x20>
     11c:	00 c0       	rjmp	.+0      	; 0x11e <I2C_recover+0x26>
     11e:	20 93 22 04 	sts	0x0422, r18	; 0x800422 <__TEXT_REGION_LENGTH__+0x700422>
     122:	30 e1       	ldi	r19, 0x10	; 16
     124:	3a 95       	dec	r19
     126:	f1 f7       	brne	.-4      	; 0x124 <I2C_recover+0x2c>
     128:	00 c0       	rjmp	.+0      	; 0x12a <I2C_recover+0x32>
     12a:	91 50       	subi	r25, 0x01	; 1
     12c:	89 f7       	brne	.-30     	; 0x110 <I2C_recover+0x18>
     12e:	28 e0       	ldi	r18, 0x08	; 8
     130:	20 93 14 08 	sts	0x0814, r18	; 0x800814 <__TEXT_REGION_LENGTH__+0x700814>
     134:	80 93 13 08 	sts	0x0813, r24	; 0x800813 <__TEXT_REGION_LENGTH__+0x700813>
     138:	92 e0       	ldi	r25, 0x02	; 2
     13a:	90 93 21 04 	sts	0x0421, r25	; 0x800421 <__TEXT_REGION_LENGTH__+0x700421>
     13e:	90 91 15 08 	lds	r25, 0x0815	; 0x800815 <__TEXT_REGION_LENGTH__+0x700815>
     142:	91 60       	ori	r25, 0x01	; 1
     144:	90 93 15 08 	sts	0x0815, r25	; 0x800815 <__TEXT_REGION_LENGTH__+0x700815>
     148:	90 91 15 08 	lds	r25, 0x0815	; 0x800815 <__TEXT_REGION_LENGTH__+0x700815>
     14c:	94 6c       	ori	r25, 0xC4	; 196
     14e:	90 93 15 08 	sts	0x0815, r25	; 0x800815 <__TEXT_REGION_LENGTH__+0x700815>
     152:	20 93 14 08 	sts	0x0814, r18	; 0x800814 <__TEXT_REGION_LENGTH__+0x700814>
     156:	80 93 13 08 	sts	0x0813, r24	; 0x800813 <__TEXT_REGION_LENGTH__+0x700813>
     15a:	80 93 21 04 	sts	0x0421, r24	; 0x800421 <__TEXT_REGION_LENGTH__+0x700421>
     15e:	80 91 15 08 	lds	r24, 0x0815	; 0x800815 <__TEXT_REGION_LENGTH__+0x700815>
     162:	81 60       	ori	r24, 0x01	; 1
     164:	80 93 15 08 	sts	0x0815, r24	; 0x800815 <__TEXT_REGION_LENGTH__+0x700815>
     168:	80 91 15 08 	lds	r24, 0x0815	; 0x800815 <__TEXT_REGION_LENGTH__+0x700815>
     16c:	84 6c       	ori	r24, 0xC4	; 196
     16e:	80 93 15 08 	sts	0x0815, r24	; 0x800815 <__TEXT_REGION_LENGTH__+0x700815>
     172:	08 95       	ret

00000174 <I2C_start>:
     174:	28 2f       	mov	r18, r24
     176:	90 91 15 08 	lds	r25, 0x0815	; 0x800815 <__TEXT_REGION_LENGTH__+0x700815>
     17a:	90 6c       	ori	r25, 0xC0	; 192
     17c:	90 93 15 08 	sts	0x0815, r25	; 0x800815 <__TEXT_REGION_LENGTH__+0x700815>
     180:	90 91 15 08 	lds	r25, 0x0815	; 0x800815 <__TEXT_REGION_LENGTH__+0x700815>
     184:	89 2f       	mov	r24, r25
     186:	84 70       	andi	r24, 0x04	; 4
     188:	92 fd       	sbrc	r25, 2
     18a:	03 c0       	rjmp	.+6      	; 0x192 <I2C_start+0x1e>
     18c:	20 93 17 08 	sts	0x0817, r18	; 0x800817 <__TEXT_REGION_LENGTH__+0x700817>
     190:	08 95       	ret
     192:	84 e0       	ldi	r24, 0x04	; 4
     194:	08 95       	ret

00000196 <I2C_wait_ACK>:
     196:	8c e0       	ldi	r24, 0x0C	; 12
     198:	80 93 34 3a 	sts	0x3A34, r24	; 0x803a34 <timeout_I2C>
     19c:	80 91 15 08 	lds	r24, 0x0815	; 0x800815 <__TEXT_REGION_LENGTH__+0x700815>
     1a0:	87 fd       	sbrc	r24, 7
     1a2:	0a c0       	rjmp	.+20     	; 0x1b8 <I2C_wait_ACK+0x22>
     1a4:	80 91 15 08 	lds	r24, 0x0815	; 0x800815 <__TEXT_REGION_LENGTH__+0x700815>
     1a8:	86 fd       	sbrc	r24, 6
     1aa:	06 c0       	rjmp	.+12     	; 0x1b8 <I2C_wait_ACK+0x22>
     1ac:	80 91 34 3a 	lds	r24, 0x3A34	; 0x803a34 <timeout_I2C>
     1b0:	81 11       	cpse	r24, r1
     1b2:	f4 cf       	rjmp	.-24     	; 0x19c <I2C_wait_ACK+0x6>
     1b4:	8f ef       	ldi	r24, 0xFF	; 255
     1b6:	08 95       	ret
     1b8:	80 91 15 08 	lds	r24, 0x0815	; 0x800815 <__TEXT_REGION_LENGTH__+0x700815>
     1bc:	80 6c       	ori	r24, 0xC0	; 192
     1be:	80 93 15 08 	sts	0x0815, r24	; 0x800815 <__TEXT_REGION_LENGTH__+0x700815>
     1c2:	80 91 15 08 	lds	r24, 0x0815	; 0x800815 <__TEXT_REGION_LENGTH__+0x700815>
     1c6:	82 fd       	sbrc	r24, 2
     1c8:	09 c0       	rjmp	.+18     	; 0x1dc <I2C_wait_ACK+0x46>
     1ca:	80 91 15 08 	lds	r24, 0x0815	; 0x800815 <__TEXT_REGION_LENGTH__+0x700815>
     1ce:	83 fd       	sbrc	r24, 3
     1d0:	07 c0       	rjmp	.+14     	; 0x1e0 <I2C_wait_ACK+0x4a>
     1d2:	80 91 15 08 	lds	r24, 0x0815	; 0x800815 <__TEXT_REGION_LENGTH__+0x700815>
     1d6:	82 95       	swap	r24
     1d8:	81 70       	andi	r24, 0x01	; 1
     1da:	08 95       	ret
     1dc:	84 e0       	ldi	r24, 0x04	; 4
     1de:	08 95       	ret
     1e0:	82 e0       	ldi	r24, 0x02	; 2
     1e2:	08 95       	ret

000001e4 <I2C_read>:
}

uint8_t	I2C_read(uint8_t *data, uint8_t ack_flag)					// read data, ack_flag 0: send ACK, 1: send NACK, returns status
{
     1e4:	fc 01       	movw	r30, r24
	timeout_I2C = READ_TIMEOUT;										// reset timeout counter, will be decremented by LED matrix interrupt
     1e6:	8c e0       	ldi	r24, 0x0C	; 12
     1e8:	80 93 34 3a 	sts	0x3A34, r24	; 0x803a34 <timeout_I2C>
	if ((TWI0.MSTATUS & TWI_BUSSTATE_gm) == TWI_BUSSTATE_OWNER_gc)	// if master controls bus
     1ec:	90 91 15 08 	lds	r25, 0x0815	; 0x800815 <__TEXT_REGION_LENGTH__+0x700815>
     1f0:	89 2f       	mov	r24, r25
     1f2:	83 70       	andi	r24, 0x03	; 3
     1f4:	82 30       	cpi	r24, 0x02	; 2
     1f6:	11 f0       	breq	.+4      	; 0x1fc <I2C_read+0x18>
		else		TWI0.MCTRLB |= TWI_ACKACT_NACK_gc;				// setup NACK (last byte read)
		*data = TWI0.MDATA;
		if (ack_flag == 0) TWI0.MCTRLB |= TWI_MCMD_RECVTRANS_gc;	// send ACK, more bytes to follow					
		return 0;
	}
	else return 8;													// master does not control bus
     1f8:	88 e0       	ldi	r24, 0x08	; 8
     1fa:	08 95       	ret
uint8_t	I2C_read(uint8_t *data, uint8_t ack_flag)					// read data, ack_flag 0: send ACK, 1: send NACK, returns status
{
	timeout_I2C = READ_TIMEOUT;										// reset timeout counter, will be decremented by LED matrix interrupt
	if ((TWI0.MSTATUS & TWI_BUSSTATE_gm) == TWI_BUSSTATE_OWNER_gc)	// if master controls bus
	{		
		while (!(TWI0.MSTATUS & TWI_RIF_bm))						// wait for RIF set (data byte received)
     1fc:	90 91 15 08 	lds	r25, 0x0815	; 0x800815 <__TEXT_REGION_LENGTH__+0x700815>
     200:	97 fd       	sbrc	r25, 7
     202:	06 c0       	rjmp	.+12     	; 0x210 <I2C_read+0x2c>
		{
			if (!(timeout_I2C)) return 0xff;			            // return timeout error
     204:	90 91 34 3a 	lds	r25, 0x3A34	; 0x803a34 <timeout_I2C>
     208:	91 11       	cpse	r25, r1
     20a:	f8 cf       	rjmp	.-16     	; 0x1fc <I2C_read+0x18>
     20c:	8f ef       	ldi	r24, 0xFF	; 255
     20e:	08 95       	ret
		}
		TWI0.MSTATUS |= (TWI_RIF_bm | TWI_WIF_bm);					// clear Read and Write interrupt flags	
     210:	90 91 15 08 	lds	r25, 0x0815	; 0x800815 <__TEXT_REGION_LENGTH__+0x700815>
     214:	90 6c       	ori	r25, 0xC0	; 192
     216:	90 93 15 08 	sts	0x0815, r25	; 0x800815 <__TEXT_REGION_LENGTH__+0x700815>
		if (TWI0.MSTATUS & TWI_BUSERR_bm) return 4;					// Bus Error, abort
     21a:	90 91 15 08 	lds	r25, 0x0815	; 0x800815 <__TEXT_REGION_LENGTH__+0x700815>
     21e:	92 fd       	sbrc	r25, 2
     220:	1e c0       	rjmp	.+60     	; 0x25e <I2C_read+0x7a>
		if (TWI0.MSTATUS & TWI_ARBLOST_bm) return 2;				// Arbitration Lost, abort
     222:	90 91 15 08 	lds	r25, 0x0815	; 0x800815 <__TEXT_REGION_LENGTH__+0x700815>
     226:	93 fd       	sbrc	r25, 3
     228:	1d c0       	rjmp	.+58     	; 0x264 <I2C_read+0x80>
		if (TWI0.MSTATUS & TWI_RXACK_bm) return 1;					// Slave replied with NACK, abort				
     22a:	90 91 15 08 	lds	r25, 0x0815	; 0x800815 <__TEXT_REGION_LENGTH__+0x700815>
     22e:	89 2f       	mov	r24, r25
     230:	80 71       	andi	r24, 0x10	; 16
     232:	94 fd       	sbrc	r25, 4
     234:	16 c0       	rjmp	.+44     	; 0x262 <I2C_read+0x7e>
		if (ack_flag == 0) TWI0.MCTRLB &= ~(1 << TWI_ACKACT_bp);	// setup ACK
     236:	90 91 14 08 	lds	r25, 0x0814	; 0x800814 <__TEXT_REGION_LENGTH__+0x700814>
     23a:	61 11       	cpse	r22, r1
     23c:	02 c0       	rjmp	.+4      	; 0x242 <I2C_read+0x5e>
     23e:	9b 7f       	andi	r25, 0xFB	; 251
     240:	01 c0       	rjmp	.+2      	; 0x244 <I2C_read+0x60>
		else		TWI0.MCTRLB |= TWI_ACKACT_NACK_gc;				// setup NACK (last byte read)
     242:	94 60       	ori	r25, 0x04	; 4
     244:	90 93 14 08 	sts	0x0814, r25	; 0x800814 <__TEXT_REGION_LENGTH__+0x700814>
		*data = TWI0.MDATA;
     248:	90 91 18 08 	lds	r25, 0x0818	; 0x800818 <__TEXT_REGION_LENGTH__+0x700818>
     24c:	90 83       	st	Z, r25
		if (ack_flag == 0) TWI0.MCTRLB |= TWI_MCMD_RECVTRANS_gc;	// send ACK, more bytes to follow					
     24e:	61 11       	cpse	r22, r1
     250:	09 c0       	rjmp	.+18     	; 0x264 <I2C_read+0x80>
     252:	90 91 14 08 	lds	r25, 0x0814	; 0x800814 <__TEXT_REGION_LENGTH__+0x700814>
     256:	92 60       	ori	r25, 0x02	; 2
     258:	90 93 14 08 	sts	0x0814, r25	; 0x800814 <__TEXT_REGION_LENGTH__+0x700814>
     25c:	08 95       	ret
		while (!(TWI0.MSTATUS & TWI_RIF_bm))						// wait for RIF set (data byte received)
		{
			if (!(timeout_I2C)) return 0xff;			            // return timeout error
		}
		TWI0.MSTATUS |= (TWI_RIF_bm | TWI_WIF_bm);					// clear Read and Write interrupt flags	
		if (TWI0.MSTATUS & TWI_BUSERR_bm) return 4;					// Bus Error, abort
     25e:	84 e0       	ldi	r24, 0x04	; 4
     260:	08 95       	ret
		if (TWI0.MSTATUS & TWI_ARBLOST_bm) return 2;				// Arbitration Lost, abort
		if (TWI0.MSTATUS & TWI_RXACK_bm) return 1;					// Slave replied with NACK, abort				
     262:	81 e0       	ldi	r24, 0x01	; 1
		*data = TWI0.MDATA;
		if (ack_flag == 0) TWI0.MCTRLB |= TWI_MCMD_RECVTRANS_gc;	// send ACK, more bytes to follow					
		return 0;
	}
	else return 8;													// master does not control bus
}
     264:	08 95       	ret

00000266 <I2C_write>:

uint8_t I2C_write(uint8_t *data)									// write data, return status
{
     266:	fc 01       	movw	r30, r24
	timeout_I2C = WRITE_TIMEOUT;									// reset timeout counter, will be decremented by LED matrix interrupt
     268:	8c e0       	ldi	r24, 0x0C	; 12
     26a:	80 93 34 3a 	sts	0x3A34, r24	; 0x803a34 <timeout_I2C>
	if ((TWI0.MSTATUS & TWI_BUSSTATE_gm) == TWI_BUSSTATE_OWNER_gc)	// if master controls bus
     26e:	90 91 15 08 	lds	r25, 0x0815	; 0x800815 <__TEXT_REGION_LENGTH__+0x700815>
     272:	93 70       	andi	r25, 0x03	; 3
     274:	92 30       	cpi	r25, 0x02	; 2
     276:	b1 f4       	brne	.+44     	; 0x2a4 <I2C_write+0x3e>
	{
		TWI0.MDATA = *data;		
     278:	80 81       	ld	r24, Z
     27a:	80 93 18 08 	sts	0x0818, r24	; 0x800818 <__TEXT_REGION_LENGTH__+0x700818>
		while (!(TWI0.MSTATUS & TWI_WIF_bm))						// wait until WIF set, status register contains ACK/NACK bit
     27e:	80 91 15 08 	lds	r24, 0x0815	; 0x800815 <__TEXT_REGION_LENGTH__+0x700815>
     282:	86 fd       	sbrc	r24, 6
     284:	06 c0       	rjmp	.+12     	; 0x292 <I2C_write+0x2c>
		{
			if (!(timeout_I2C)) return 0xff;			            // return timeout error
     286:	80 91 34 3a 	lds	r24, 0x3A34	; 0x803a34 <timeout_I2C>
     28a:	81 11       	cpse	r24, r1
     28c:	f8 cf       	rjmp	.-16     	; 0x27e <I2C_write+0x18>
     28e:	8f ef       	ldi	r24, 0xFF	; 255
     290:	08 95       	ret
		}
		if (TWI0.MSTATUS & TWI_BUSERR_bm) return 4;					// Bus Error, abort
     292:	80 91 15 08 	lds	r24, 0x0815	; 0x800815 <__TEXT_REGION_LENGTH__+0x700815>
     296:	82 fd       	sbrc	r24, 2
     298:	07 c0       	rjmp	.+14     	; 0x2a8 <I2C_write+0x42>
		if (TWI0.MSTATUS & TWI_RXACK_bm) return 1;					// Slave replied with NACK, abort
     29a:	80 91 15 08 	lds	r24, 0x0815	; 0x800815 <__TEXT_REGION_LENGTH__+0x700815>
	if ((TWI0.MSTATUS & TWI_BUSSTATE_gm) == TWI_BUSSTATE_OWNER_gc)	// if master controls bus
	{
		TWI0.MDATA = *data;		
		while (!(TWI0.MSTATUS & TWI_WIF_bm))						// wait until WIF set, status register contains ACK/NACK bit
		{
			if (!(timeout_I2C)) return 0xff;			            // return timeout error
     29e:	82 95       	swap	r24
     2a0:	81 70       	andi	r24, 0x01	; 1
     2a2:	08 95       	ret
		}
		if (TWI0.MSTATUS & TWI_BUSERR_bm) return 4;					// Bus Error, abort
		if (TWI0.MSTATUS & TWI_RXACK_bm) return 1;					// Slave replied with NACK, abort
		return 0;													// no error	
	}
	else return 8;													// master does not control bus
     2a4:	88 e0       	ldi	r24, 0x08	; 8
     2a6:	08 95       	ret
		TWI0.MDATA = *data;		
		while (!(TWI0.MSTATUS & TWI_WIF_bm))						// wait until WIF set, status register contains ACK/NACK bit
		{
			if (!(timeout_I2C)) return 0xff;			            // return timeout error
		}
		if (TWI0.MSTATUS & TWI_BUSERR_bm) return 4;					// Bus Error, abort
     2a8:	84 e0       	ldi	r24, 0x04	; 4
		if (TWI0.MSTATUS & TWI_RXACK_bm) return 1;					// Slave replied with NACK, abort
		return 0;													// no error	
	}
	else return 8;													// master does not control bus
}
     2aa:	08 95       	ret

000002ac <I2C_stop>:

void I2C_stop()
{
	TWI0.MCTRLB |= TWI_MCMD_STOP_gc;
     2ac:	e0 e1       	ldi	r30, 0x10	; 16
     2ae:	f8 e0       	ldi	r31, 0x08	; 8
     2b0:	84 81       	ldd	r24, Z+4	; 0x04
     2b2:	83 60       	ori	r24, 0x03	; 3
     2b4:	84 83       	std	Z+4, r24	; 0x04
     2b6:	08 95       	ret

000002b8 <I2C_read_bytes>:
// addr_ptr		address of first array element to transfer
// slave reg	starting slave register
// num_bytes	number of bytes to transfer

uint8_t	I2C_read_bytes(uint8_t slave_addr, uint8_t *reg_ptr, uint8_t reg_len, uint8_t *dat_ptr, uint8_t dat_len)
{
     2b8:	cf 92       	push	r12
     2ba:	df 92       	push	r13
     2bc:	ff 92       	push	r15
     2be:	0f 93       	push	r16
     2c0:	1f 93       	push	r17
     2c2:	cf 93       	push	r28
     2c4:	df 93       	push	r29
     2c6:	6b 01       	movw	r12, r22
     2c8:	f4 2e       	mov	r15, r20
     2ca:	e9 01       	movw	r28, r18
	uint8_t status;
	if (dat_len > MAX_LEN) dat_len = MAX_LEN;
	status = I2C_start(slave_addr << 1);							// slave write address, LSB 0
     2cc:	18 2f       	mov	r17, r24
     2ce:	11 0f       	add	r17, r17
     2d0:	81 2f       	mov	r24, r17
     2d2:	50 df       	rcall	.-352    	; 0x174 <I2C_start>
	if (status != 0) goto error;
     2d4:	81 11       	cpse	r24, r1
	status = I2C_wait_ACK();										// wait for slave ACK
     2d6:	2b c0       	rjmp	.+86     	; 0x32e <I2C_read_bytes+0x76>
     2d8:	5e df       	rcall	.-324    	; 0x196 <I2C_wait_ACK>
	if (status == 1) {
     2da:	81 30       	cpi	r24, 0x01	; 1
		I2C_stop();													// NACK, abort
     2dc:	19 f4       	brne	.+6      	; 0x2e4 <I2C_read_bytes+0x2c>
     2de:	e6 df       	rcall	.-52     	; 0x2ac <I2C_stop>
		return 1;
     2e0:	81 e0       	ldi	r24, 0x01	; 1
     2e2:	27 c0       	rjmp	.+78     	; 0x332 <I2C_read_bytes+0x7a>
	}
	if (status != 0) goto error;
     2e4:	81 11       	cpse	r24, r1
     2e6:	23 c0       	rjmp	.+70     	; 0x32e <I2C_read_bytes+0x76>
    while(reg_len > 0){
     2e8:	ff 20       	and	r15, r15
	    status = I2C_write(reg_ptr);    							// send slave start register
     2ea:	49 f0       	breq	.+18     	; 0x2fe <I2C_read_bytes+0x46>
     2ec:	c6 01       	movw	r24, r12
     2ee:	bb df       	rcall	.-138    	; 0x266 <I2C_write>
	    if (status != 0) goto error;
     2f0:	81 11       	cpse	r24, r1
     2f2:	1d c0       	rjmp	.+58     	; 0x32e <I2C_read_bytes+0x76>
        ++reg_ptr;
     2f4:	8f ef       	ldi	r24, 0xFF	; 255
     2f6:	c8 1a       	sub	r12, r24
     2f8:	d8 0a       	sbc	r13, r24
        --reg_len;
     2fa:	fa 94       	dec	r15
     2fc:	f5 cf       	rjmp	.-22     	; 0x2e8 <I2C_read_bytes+0x30>
     2fe:	01 34       	cpi	r16, 0x41	; 65
     300:	08 f0       	brcs	.+2      	; 0x304 <I2C_read_bytes+0x4c>
     302:	00 e4       	ldi	r16, 0x40	; 64
    }
	I2C_rep_start((slave_addr << 1) + 1);							// slave read address, LSB 1
     304:	1f 5f       	subi	r17, 0xFF	; 255
// the Atmel device documentation mentions a special command for repeated start TWI_MCMD_REPSTART_gc,
// but this is not used in Atmel's demo code, so we don't use it either

void I2C_rep_start(uint8_t shifted_addr)						    // send repeated start, device_addr + LSB set if READ
{
	TWI0.MADDR = shifted_addr;	
     306:	10 93 17 08 	sts	0x0817, r17	; 0x800817 <__TEXT_REGION_LENGTH__+0x700817>
	    if (status != 0) goto error;
        ++reg_ptr;
        --reg_len;
    }
	I2C_rep_start((slave_addr << 1) + 1);							// slave read address, LSB 1
	while (dat_len > 1) {
     30a:	02 30       	cpi	r16, 0x02	; 2
		status = I2C_read(dat_ptr, 0);								// first bytes, send ACK
     30c:	40 f0       	brcs	.+16     	; 0x31e <I2C_read_bytes+0x66>
     30e:	60 e0       	ldi	r22, 0x00	; 0
     310:	ce 01       	movw	r24, r28
     312:	68 df       	rcall	.-304    	; 0x1e4 <I2C_read>
		if (status != 0) goto error;
     314:	81 11       	cpse	r24, r1
     316:	0b c0       	rjmp	.+22     	; 0x32e <I2C_read_bytes+0x76>
		++dat_ptr;
		--dat_len;
     318:	21 96       	adiw	r28, 0x01	; 1
     31a:	01 50       	subi	r16, 0x01	; 1
	}
	status = I2C_read(dat_ptr, 1);									// single or last byte, send NACK
     31c:	f6 cf       	rjmp	.-20     	; 0x30a <I2C_read_bytes+0x52>
     31e:	61 e0       	ldi	r22, 0x01	; 1
     320:	ce 01       	movw	r24, r28
	if (status != 0) goto error;
     322:	60 df       	rcall	.-320    	; 0x1e4 <I2C_read>
     324:	81 11       	cpse	r24, r1
	I2C_stop();
     326:	03 c0       	rjmp	.+6      	; 0x32e <I2C_read_bytes+0x76>
     328:	c1 df       	rcall	.-126    	; 0x2ac <I2C_stop>
	return 0;
     32a:	80 e0       	ldi	r24, 0x00	; 0
     32c:	02 c0       	rjmp	.+4      	; 0x332 <I2C_read_bytes+0x7a>
	
error:
	I2C_recover();													// clock out possibly stuck slave, reset master
     32e:	e4 de       	rcall	.-568    	; 0xf8 <I2C_recover>
     330:	8f ef       	ldi	r24, 0xFF	; 255
	return 0xff;													// flag error
     332:	df 91       	pop	r29
}
     334:	cf 91       	pop	r28
     336:	1f 91       	pop	r17
     338:	0f 91       	pop	r16
     33a:	ff 90       	pop	r15
     33c:	df 90       	pop	r13
     33e:	cf 90       	pop	r12
     340:	08 95       	ret

00000342 <LanyardCode>:
     342:	cf 93       	push	r28
uint8_t         lastButtonState = 0xff;
uint8_t         digit = 0xff;

// Main game loop
uint8_t LanyardCode(){
    if (CheckState(LANYARD_COMPLETED)) {
     344:	8b e7       	ldi	r24, 0x7B	; 123
     346:	38 d7       	rcall	.+3696   	; 0x11b8 <CheckState>
     348:	81 11       	cpse	r24, r1
     34a:	f0 c0       	rjmp	.+480    	; 0x52c <__LOCK_REGION_LENGTH__+0x12c>
        }
        */
        return 0;
    }

    if ( gameNow != TEXT && gameNow != LANYARD )
     34c:	80 91 2f 38 	lds	r24, 0x382F	; 0x80382f <gameNow>
     350:	88 23       	and	r24, r24
     352:	19 f0       	breq	.+6      	; 0x35a <LanyardCode+0x18>
     354:	83 30       	cpi	r24, 0x03	; 3
     356:	09 f0       	breq	.+2      	; 0x35a <LanyardCode+0x18>
     358:	e9 c0       	rjmp	.+466    	; 0x52c <__LOCK_REGION_LENGTH__+0x12c>
        return 0;

    /* activate led for buttonstate */
    iLED[SCARAB[G]] = (buttonState==0xff ? 0 : dimValue);
     35a:	c0 91 1f b3 	lds	r28, 0xB31F	; 0x80b31f <__bss_end+0x7819>
     35e:	ec 2f       	mov	r30, r28
     360:	f0 e0       	ldi	r31, 0x00	; 0
     362:	80 91 07 38 	lds	r24, 0x3807	; 0x803807 <buttonState>
     366:	8f 3f       	cpi	r24, 0xFF	; 255
     368:	19 f0       	breq	.+6      	; 0x370 <LanyardCode+0x2e>
     36a:	90 91 09 38 	lds	r25, 0x3809	; 0x803809 <dimValue>
     36e:	01 c0       	rjmp	.+2      	; 0x372 <LanyardCode+0x30>
     370:	90 e0       	ldi	r25, 0x00	; 0
     372:	ea 54       	subi	r30, 0x4A	; 74
     374:	f5 4c       	sbci	r31, 0xC5	; 197
     376:	90 83       	st	Z, r25

    if ( (buttonState & 0xf0) == 0)
     378:	98 2f       	mov	r25, r24
     37a:	90 7f       	andi	r25, 0xF0	; 240
     37c:	09 f4       	brne	.+2      	; 0x380 <LanyardCode+0x3e>
     37e:	d6 c0       	rjmp	.+428    	; 0x52c <__LOCK_REGION_LENGTH__+0x12c>
        return 0;

    if ((buttonState&0x0f) == (lastButtonState&0x0f))
     380:	20 91 01 38 	lds	r18, 0x3801	; 0x803801 <lastButtonState>
     384:	98 2f       	mov	r25, r24
     386:	92 27       	eor	r25, r18
     388:	9f 70       	andi	r25, 0x0F	; 15
     38a:	09 f4       	brne	.+2      	; 0x38e <LanyardCode+0x4c>
     38c:	cf c0       	rjmp	.+414    	; 0x52c <__LOCK_REGION_LENGTH__+0x12c>
        return 0;

    if (lastButtonState == 0xff){
     38e:	2f 3f       	cpi	r18, 0xFF	; 255
     390:	09 f0       	breq	.+2      	; 0x394 <LanyardCode+0x52>
     392:	c8 c0       	rjmp	.+400    	; 0x524 <__LOCK_REGION_LENGTH__+0x124>
        switch (buttonState & 0x0f) {
     394:	8f 70       	andi	r24, 0x0F	; 15
     396:	82 30       	cpi	r24, 0x02	; 2
     398:	61 f0       	breq	.+24     	; 0x3b2 <LanyardCode+0x70>
     39a:	28 f4       	brcc	.+10     	; 0x3a6 <LanyardCode+0x64>
     39c:	81 30       	cpi	r24, 0x01	; 1
     39e:	69 f4       	brne	.+26     	; 0x3ba <LanyardCode+0x78>
            case 0b0001: {
                digit = 0;
     3a0:	10 92 00 38 	sts	0x3800, r1	; 0x803800 <__data_start>
                break;
     3a4:	0d c0       	rjmp	.+26     	; 0x3c0 <LanyardCode+0x7e>

    if ((buttonState&0x0f) == (lastButtonState&0x0f))
        return 0;

    if (lastButtonState == 0xff){
        switch (buttonState & 0x0f) {
     3a6:	84 30       	cpi	r24, 0x04	; 4
     3a8:	31 f0       	breq	.+12     	; 0x3b6 <LanyardCode+0x74>
     3aa:	88 30       	cpi	r24, 0x08	; 8
     3ac:	31 f4       	brne	.+12     	; 0x3ba <LanyardCode+0x78>
                digit = 3;
                break;
            }

            case 0b1000: {
                digit = 2;
     3ae:	82 e0       	ldi	r24, 0x02	; 2
     3b0:	05 c0       	rjmp	.+10     	; 0x3bc <LanyardCode+0x7a>
                digit = 0;
                break;
            }

            case 0b0010: {
                digit = 1;
     3b2:	81 e0       	ldi	r24, 0x01	; 1
     3b4:	03 c0       	rjmp	.+6      	; 0x3bc <LanyardCode+0x7a>
                break;
            }

            case 0b0100: {
                digit = 3;
     3b6:	83 e0       	ldi	r24, 0x03	; 3
     3b8:	01 c0       	rjmp	.+2      	; 0x3bc <LanyardCode+0x7a>
                digit = 2;
                break;
            }

            default: {
                digit = 0xff;
     3ba:	8f ef       	ldi	r24, 0xFF	; 255
     3bc:	80 93 00 38 	sts	0x3800, r24	; 0x803800 <__data_start>
                break;
            }
        }
        gameNow = LANYARD;
     3c0:	83 e0       	ldi	r24, 0x03	; 3
     3c2:	80 93 2f 38 	sts	0x382F, r24	; 0x80382f <gameNow>
        /* play tone for button */

        if (digit == lanyardCode[lanyardPos]) {
     3c6:	80 91 29 38 	lds	r24, 0x3829	; 0x803829 <lanyardPos>
     3ca:	e8 2f       	mov	r30, r24
     3cc:	f0 e0       	ldi	r31, 0x00	; 0
     3ce:	ec 5f       	subi	r30, 0xFC	; 252
     3d0:	fc 44       	sbci	r31, 0x4C	; 76
     3d2:	20 81       	ld	r18, Z
     3d4:	90 91 00 38 	lds	r25, 0x3800	; 0x803800 <__data_start>
     3d8:	e0 91 1c b3 	lds	r30, 0xB31C	; 0x80b31c <__bss_end+0x7816>
     3dc:	29 13       	cpse	r18, r25
     3de:	17 c0       	rjmp	.+46     	; 0x40e <__LOCK_REGION_LENGTH__+0xe>
            lanyardState &= TRUE;
     3e0:	90 91 02 38 	lds	r25, 0x3802	; 0x803802 <lanyardState>
     3e4:	91 70       	andi	r25, 0x01	; 1
     3e6:	90 93 02 38 	sts	0x3802, r25	; 0x803802 <lanyardState>
            iLED[CAT]       = 128;
     3ea:	f0 e0       	ldi	r31, 0x00	; 0
     3ec:	ea 54       	subi	r30, 0x4A	; 74
     3ee:	f5 4c       	sbci	r31, 0xC5	; 197
     3f0:	90 e8       	ldi	r25, 0x80	; 128
     3f2:	90 83       	st	Z, r25
            iLED[EYE[R][L]] = 0;
     3f4:	e0 91 2b b3 	lds	r30, 0xB32B	; 0x80b32b <__bss_end+0x7825>
     3f8:	f0 e0       	ldi	r31, 0x00	; 0
     3fa:	ea 54       	subi	r30, 0x4A	; 74
     3fc:	f5 4c       	sbci	r31, 0xC5	; 197
     3fe:	10 82       	st	Z, r1
            iLED[EYE[R][R]] = 0;
     400:	e0 91 2a b3 	lds	r30, 0xB32A	; 0x80b32a <__bss_end+0x7824>
     404:	f0 e0       	ldi	r31, 0x00	; 0
     406:	ea 54       	subi	r30, 0x4A	; 74
     408:	f5 4c       	sbci	r31, 0xC5	; 197
     40a:	10 82       	st	Z, r1
     40c:	13 c0       	rjmp	.+38     	; 0x434 <__LOCK_REGION_LENGTH__+0x34>
        } else {
            lanyardState = FALSE;
     40e:	10 92 02 38 	sts	0x3802, r1	; 0x803802 <lanyardState>
            iLED[CAT]       = 0;
     412:	f0 e0       	ldi	r31, 0x00	; 0
     414:	ea 54       	subi	r30, 0x4A	; 74
     416:	f5 4c       	sbci	r31, 0xC5	; 197
     418:	10 82       	st	Z, r1
            if (lanyardPos < 4 ) {
     41a:	84 30       	cpi	r24, 0x04	; 4
     41c:	58 f4       	brcc	.+22     	; 0x434 <__LOCK_REGION_LENGTH__+0x34>
                /*gameNow         = BASTET;*/
                gameNow         = TEXT;
     41e:	10 92 2f 38 	sts	0x382F, r1	; 0x80382f <gameNow>
                lanyardPos      = 0;
     422:	10 92 29 38 	sts	0x3829, r1	; 0x803829 <lanyardPos>
                lanyardCnt      = 0;
     426:	10 92 28 38 	sts	0x3828, r1	; 0x803828 <__data_end>
                lanyardState    = TRUE;
     42a:	81 e0       	ldi	r24, 0x01	; 1
     42c:	80 93 02 38 	sts	0x3802, r24	; 0x803802 <lanyardState>
                lastButtonState = 0xff;
     430:	8f ef       	ldi	r24, 0xFF	; 255
     432:	7a c0       	rjmp	.+244    	; 0x528 <__LOCK_REGION_LENGTH__+0x128>
                return 0;
            }
        }
        lanyardPos++;
     434:	8f 5f       	subi	r24, 0xFF	; 255
     436:	80 93 29 38 	sts	0x3829, r24	; 0x803829 <lanyardPos>
        lanyardCnt++;            
     43a:	90 91 28 38 	lds	r25, 0x3828	; 0x803828 <__data_end>
     43e:	9f 5f       	subi	r25, 0xFF	; 255
        if (lanyardCnt >= 4) {
     440:	94 30       	cpi	r25, 0x04	; 4
     442:	18 f4       	brcc	.+6      	; 0x44a <__LOCK_REGION_LENGTH__+0x4a>
                lastButtonState = 0xff;
                return 0;
            }
        }
        lanyardPos++;
        lanyardCnt++;            
     444:	90 93 28 38 	sts	0x3828, r25	; 0x803828 <__data_end>
     448:	6d c0       	rjmp	.+218    	; 0x524 <__LOCK_REGION_LENGTH__+0x124>
        if (lanyardCnt >= 4) {
            lanyardCnt = 0;
     44a:	10 92 28 38 	sts	0x3828, r1	; 0x803828 <__data_end>
            if (lanyardState == TRUE) {
     44e:	90 91 02 38 	lds	r25, 0x3802	; 0x803802 <lanyardState>
     452:	91 30       	cpi	r25, 0x01	; 1
     454:	a1 f5       	brne	.+104    	; 0x4be <__LOCK_REGION_LENGTH__+0xbe>
                iLED[HCKR[G][(lanyardPos/4)-1]] = dimValue;
     456:	e8 2f       	mov	r30, r24
     458:	e6 95       	lsr	r30
     45a:	e6 95       	lsr	r30
     45c:	f0 e0       	ldi	r31, 0x00	; 0
     45e:	e2 5d       	subi	r30, 0xD2	; 210
     460:	fc 44       	sbci	r31, 0x4C	; 76
     462:	e5 81       	ldd	r30, Z+5	; 0x05
     464:	f0 e0       	ldi	r31, 0x00	; 0
     466:	90 91 09 38 	lds	r25, 0x3809	; 0x803809 <dimValue>
     46a:	ea 54       	subi	r30, 0x4A	; 74
     46c:	f5 4c       	sbci	r31, 0xC5	; 197
     46e:	90 83       	st	Z, r25
                if (lanyardPos == sizeof(lanyardCode)) {
     470:	88 31       	cpi	r24, 0x18	; 24
     472:	09 f0       	breq	.+2      	; 0x476 <__LOCK_REGION_LENGTH__+0x76>
     474:	57 c0       	rjmp	.+174    	; 0x524 <__LOCK_REGION_LENGTH__+0x124>
                    UpdateState(LANYARD_COMPLETED);
     476:	8b e7       	ldi	r24, 0x7B	; 123
     478:	95 d6       	rcall	.+3370   	; 0x11a4 <UpdateState>
                    iLED[SCARAB[G]] = 0;
     47a:	ec 2f       	mov	r30, r28
     47c:	f0 e0       	ldi	r31, 0x00	; 0
     47e:	ea 54       	subi	r30, 0x4A	; 74
     480:	f5 4c       	sbci	r31, 0xC5	; 197
     482:	10 82       	st	Z, r1
                    iLED[EYE[R][L]] = 0;
     484:	e0 91 2b b3 	lds	r30, 0xB32B	; 0x80b32b <__bss_end+0x7825>
     488:	f0 e0       	ldi	r31, 0x00	; 0
     48a:	ea 54       	subi	r30, 0x4A	; 74
     48c:	f5 4c       	sbci	r31, 0xC5	; 197
     48e:	10 82       	st	Z, r1
                    iLED[EYE[R][R]] = 0;
     490:	e0 91 2a b3 	lds	r30, 0xB32A	; 0x80b32a <__bss_end+0x7824>
     494:	f0 e0       	ldi	r31, 0x00	; 0
     496:	ea 54       	subi	r30, 0x4A	; 74
     498:	f5 4c       	sbci	r31, 0xC5	; 197
     49a:	10 82       	st	Z, r1
                    iLED[EYE[G][L]] = dimValue;
     49c:	e0 91 2d b3 	lds	r30, 0xB32D	; 0x80b32d <__bss_end+0x7827>
     4a0:	f0 e0       	ldi	r31, 0x00	; 0
     4a2:	80 91 09 38 	lds	r24, 0x3809	; 0x803809 <dimValue>
     4a6:	ea 54       	subi	r30, 0x4A	; 74
     4a8:	f5 4c       	sbci	r31, 0xC5	; 197
     4aa:	80 83       	st	Z, r24
                    iLED[EYE[G][R]] = dimValue;
     4ac:	e0 91 2c b3 	lds	r30, 0xB32C	; 0x80b32c <__bss_end+0x7826>
     4b0:	f0 e0       	ldi	r31, 0x00	; 0
     4b2:	80 91 09 38 	lds	r24, 0x3809	; 0x803809 <dimValue>
     4b6:	ea 54       	subi	r30, 0x4A	; 74
     4b8:	f5 4c       	sbci	r31, 0xC5	; 197
     4ba:	80 83       	st	Z, r24
     4bc:	33 c0       	rjmp	.+102    	; 0x524 <__LOCK_REGION_LENGTH__+0x124>
                    /*state = STATE_MUSIC;*/
                }
            } else {
                gameNow         = TEXT;
     4be:	10 92 2f 38 	sts	0x382F, r1	; 0x80382f <gameNow>
                lanyardPos      = 0;
     4c2:	10 92 29 38 	sts	0x3829, r1	; 0x803829 <lanyardPos>
                lanyardState    = TRUE;
     4c6:	81 e0       	ldi	r24, 0x01	; 1
     4c8:	80 93 02 38 	sts	0x3802, r24	; 0x803802 <lanyardState>
                lastButtonState = 0xff;
                iLED[SCARAB[G]] = 0;
     4cc:	ec 2f       	mov	r30, r28
     4ce:	f0 e0       	ldi	r31, 0x00	; 0
     4d0:	ea 54       	subi	r30, 0x4A	; 74
     4d2:	f5 4c       	sbci	r31, 0xC5	; 197
     4d4:	10 82       	st	Z, r1
                iLED[EYE[G][L]] = 0;
     4d6:	e0 91 2d b3 	lds	r30, 0xB32D	; 0x80b32d <__bss_end+0x7827>
     4da:	f0 e0       	ldi	r31, 0x00	; 0
     4dc:	ea 54       	subi	r30, 0x4A	; 74
     4de:	f5 4c       	sbci	r31, 0xC5	; 197
     4e0:	10 82       	st	Z, r1
                iLED[EYE[G][R]] = 0;
     4e2:	e0 91 2c b3 	lds	r30, 0xB32C	; 0x80b32c <__bss_end+0x7826>
     4e6:	f0 e0       	ldi	r31, 0x00	; 0
     4e8:	ea 54       	subi	r30, 0x4A	; 74
     4ea:	f5 4c       	sbci	r31, 0xC5	; 197
     4ec:	10 82       	st	Z, r1
                iLED[EYE[R][L]] = dimValue;
     4ee:	e0 91 2b b3 	lds	r30, 0xB32B	; 0x80b32b <__bss_end+0x7825>
     4f2:	f0 e0       	ldi	r31, 0x00	; 0
     4f4:	80 91 09 38 	lds	r24, 0x3809	; 0x803809 <dimValue>
     4f8:	ea 54       	subi	r30, 0x4A	; 74
     4fa:	f5 4c       	sbci	r31, 0xC5	; 197
     4fc:	80 83       	st	Z, r24
                iLED[EYE[R][R]] = dimValue;
     4fe:	e0 91 2a b3 	lds	r30, 0xB32A	; 0x80b32a <__bss_end+0x7824>
     502:	f0 e0       	ldi	r31, 0x00	; 0
     504:	80 91 09 38 	lds	r24, 0x3809	; 0x803809 <dimValue>
     508:	ea 54       	subi	r30, 0x4A	; 74
     50a:	f5 4c       	sbci	r31, 0xC5	; 197
     50c:	80 83       	st	Z, r24
     50e:	a4 e3       	ldi	r26, 0x34	; 52
     510:	b3 eb       	ldi	r27, 0xB3	; 179
                for (int i=0; i<6; i++ )
                    iLED[HCKR[G][i]] = 0;
     512:	ed 91       	ld	r30, X+
     514:	f0 e0       	ldi	r31, 0x00	; 0
     516:	ea 54       	subi	r30, 0x4A	; 74
     518:	f5 4c       	sbci	r31, 0xC5	; 197
     51a:	10 82       	st	Z, r1
                iLED[SCARAB[G]] = 0;
                iLED[EYE[G][L]] = 0;
                iLED[EYE[G][R]] = 0;
                iLED[EYE[R][L]] = dimValue;
                iLED[EYE[R][R]] = dimValue;
                for (int i=0; i<6; i++ )
     51c:	83 eb       	ldi	r24, 0xB3	; 179
     51e:	aa 33       	cpi	r26, 0x3A	; 58
     520:	b8 07       	cpc	r27, r24
     522:	b9 f7       	brne	.-18     	; 0x512 <__LOCK_REGION_LENGTH__+0x112>
                    iLED[HCKR[G][i]] = 0;
            }
        }
    }

    lastButtonState = buttonState;
     524:	80 91 07 38 	lds	r24, 0x3807	; 0x803807 <buttonState>
     528:	80 93 01 38 	sts	0x3801, r24	; 0x803801 <lastButtonState>
    return 0;
}
     52c:	80 e0       	ldi	r24, 0x00	; 0
     52e:	cf 91       	pop	r28
     530:	08 95       	ret

00000532 <MagnetMaze>:
uint8_t         mazeCnt = 0;
uint8_t         mazeState = TRUE;
uint8_t         inverted  = FALSE;

// Main game loop
uint8_t MagnetMaze(){
     532:	cf 93       	push	r28
     534:	df 93       	push	r29
    if (CheckState(MAZE_INACTIVE))
     536:	87 ef       	ldi	r24, 0xF7	; 247
     538:	3f d6       	rcall	.+3198   	; 0x11b8 <CheckState>
     53a:	81 11       	cpse	r24, r1
     53c:	3e c1       	rjmp	.+636    	; 0x7ba <MagnetMaze+0x288>
        return 0;

    if (CheckState(MAZE_COMPLETED))
     53e:	8d e7       	ldi	r24, 0x7D	; 125
     540:	3b d6       	rcall	.+3190   	; 0x11b8 <CheckState>
     542:	81 11       	cpse	r24, r1
     544:	3a c1       	rjmp	.+628    	; 0x7ba <MagnetMaze+0x288>
        return 0;

    if ( (gameNow != TEXT) && (gameNow != MAZE) )
     546:	80 91 2f 38 	lds	r24, 0x382F	; 0x80382f <gameNow>
     54a:	82 30       	cpi	r24, 0x02	; 2
     54c:	08 f0       	brcs	.+2      	; 0x550 <MagnetMaze+0x1e>
     54e:	35 c1       	rjmp	.+618    	; 0x7ba <MagnetMaze+0x288>
        return 0;

    if (calHall == 0)
     550:	80 91 df 3a 	lds	r24, 0x3ADF	; 0x803adf <calHall>
     554:	90 91 e0 3a 	lds	r25, 0x3AE0	; 0x803ae0 <calHall+0x1>
     558:	89 2b       	or	r24, r25
     55a:	41 f4       	brne	.+16     	; 0x56c <MagnetMaze+0x3a>
        calHall = adcHall;
     55c:	80 91 8f 3a 	lds	r24, 0x3A8F	; 0x803a8f <adcHall>
     560:	90 91 90 3a 	lds	r25, 0x3A90	; 0x803a90 <adcHall+0x1>
     564:	80 93 df 3a 	sts	0x3ADF, r24	; 0x803adf <calHall>
     568:	90 93 e0 3a 	sts	0x3AE0, r25	; 0x803ae0 <calHall+0x1>

    int16_t valHall = adcHall - calHall;
     56c:	80 91 8f 3a 	lds	r24, 0x3A8F	; 0x803a8f <adcHall>
     570:	90 91 90 3a 	lds	r25, 0x3A90	; 0x803a90 <adcHall+0x1>
     574:	20 91 df 3a 	lds	r18, 0x3ADF	; 0x803adf <calHall>
     578:	30 91 e0 3a 	lds	r19, 0x3AE0	; 0x803ae0 <calHall+0x1>
     57c:	82 1b       	sub	r24, r18
     57e:	93 0b       	sbc	r25, r19
    switch (curHallState) {
     580:	30 91 3c 38 	lds	r19, 0x383C	; 0x80383c <curHallState>
     584:	31 30       	cpi	r19, 0x01	; 1
     586:	89 f0       	breq	.+34     	; 0x5aa <MagnetMaze+0x78>
     588:	18 f0       	brcs	.+6      	; 0x590 <MagnetMaze+0x5e>
     58a:	32 30       	cpi	r19, 0x02	; 2
     58c:	c1 f0       	breq	.+48     	; 0x5be <MagnetMaze+0x8c>
     58e:	1f c0       	rjmp	.+62     	; 0x5ce <MagnetMaze+0x9c>
        case 0: {
            if ( valHall + HALL_HIGH < 0 ) {
     590:	84 3d       	cpi	r24, 0xD4	; 212
     592:	2e ef       	ldi	r18, 0xFE	; 254
     594:	92 07       	cpc	r25, r18
     596:	14 f4       	brge	.+4      	; 0x59c <MagnetMaze+0x6a>
                newHallState = 1;
     598:	81 e0       	ldi	r24, 0x01	; 1
     59a:	04 c0       	rjmp	.+8      	; 0x5a4 <MagnetMaze+0x72>
            } else if ( valHall - HALL_HIGH > 0 ) {
     59c:	8d 32       	cpi	r24, 0x2D	; 45
     59e:	91 40       	sbci	r25, 0x01	; 1
     5a0:	5c f0       	brlt	.+22     	; 0x5b8 <MagnetMaze+0x86>
                newHallState = 2;
     5a2:	82 e0       	ldi	r24, 0x02	; 2
     5a4:	80 93 3b 38 	sts	0x383B, r24	; 0x80383b <newHallState>
     5a8:	12 c0       	rjmp	.+36     	; 0x5ce <MagnetMaze+0x9c>
            }
            break;
        }
        
        case 1: {
            if ( valHall - HALL_HIGH > 0 ) {
     5aa:	8d 32       	cpi	r24, 0x2D	; 45
     5ac:	21 e0       	ldi	r18, 0x01	; 1
     5ae:	92 07       	cpc	r25, r18
     5b0:	c4 f7       	brge	.-16     	; 0x5a2 <MagnetMaze+0x70>
                newHallState = 2;
            } else if ( valHall + HALL_LOW > 0 ) {
     5b2:	89 38       	cpi	r24, 0x89	; 137
     5b4:	9f 4f       	sbci	r25, 0xFF	; 255
     5b6:	84 f3       	brlt	.-32     	; 0x598 <MagnetMaze+0x66>
            if ( valHall + HALL_HIGH < 0 ) {
                newHallState = 1;
            } else if ( valHall - HALL_HIGH > 0 ) {
                newHallState = 2;
            } else {
                newHallState = 0;
     5b8:	10 92 3b 38 	sts	0x383B, r1	; 0x80383b <newHallState>
     5bc:	08 c0       	rjmp	.+16     	; 0x5ce <MagnetMaze+0x9c>
            }
            break;
        }
        
        case 2: {
            if ( valHall + HALL_HIGH < 0 ) {
     5be:	84 3d       	cpi	r24, 0xD4	; 212
     5c0:	2e ef       	ldi	r18, 0xFE	; 254
     5c2:	92 07       	cpc	r25, r18
     5c4:	4c f3       	brlt	.-46     	; 0x598 <MagnetMaze+0x66>
                newHallState = 1;
            } else if ( valHall - HALL_LOW < 0 ) {
     5c6:	88 37       	cpi	r24, 0x78	; 120
     5c8:	91 05       	cpc	r25, r1
     5ca:	b4 f3       	brlt	.-20     	; 0x5b8 <MagnetMaze+0x86>
     5cc:	ea cf       	rjmp	.-44     	; 0x5a2 <MagnetMaze+0x70>
            break;
        }
    }

    /* activate led for hallstate */
    iLED[SCARAB[G]] = (newHallState ? dimValue : 0);
     5ce:	c0 91 1f b3 	lds	r28, 0xB31F	; 0x80b31f <__bss_end+0x7819>
     5d2:	ec 2f       	mov	r30, r28
     5d4:	f0 e0       	ldi	r31, 0x00	; 0
     5d6:	80 91 3b 38 	lds	r24, 0x383B	; 0x80383b <newHallState>
     5da:	88 23       	and	r24, r24
     5dc:	19 f0       	breq	.+6      	; 0x5e4 <MagnetMaze+0xb2>
     5de:	90 91 09 38 	lds	r25, 0x3809	; 0x803809 <dimValue>
     5e2:	01 c0       	rjmp	.+2      	; 0x5e6 <MagnetMaze+0xb4>
     5e4:	90 e0       	ldi	r25, 0x00	; 0
     5e6:	ea 54       	subi	r30, 0x4A	; 74
     5e8:	f5 4c       	sbci	r31, 0xC5	; 197
     5ea:	90 83       	st	Z, r25


    /* Make the maze work regardless of badge orientation */
    if (newHallState != 0 && mazePos == 0 )
     5ec:	88 23       	and	r24, r24
     5ee:	59 f0       	breq	.+22     	; 0x606 <MagnetMaze+0xd4>
     5f0:	20 91 3a 38 	lds	r18, 0x383A	; 0x80383a <mazePos>
     5f4:	21 11       	cpse	r18, r1
     5f6:	3d c0       	rjmp	.+122    	; 0x672 <MagnetMaze+0x140>
        inverted = (newHallState != mazeCode[0]) ? TRUE : FALSE;
     5f8:	91 e0       	ldi	r25, 0x01	; 1
     5fa:	81 30       	cpi	r24, 0x01	; 1
     5fc:	09 f4       	brne	.+2      	; 0x600 <MagnetMaze+0xce>
     5fe:	90 e0       	ldi	r25, 0x00	; 0
     600:	90 93 38 38 	sts	0x3838, r25	; 0x803838 <inverted>
     604:	36 c0       	rjmp	.+108    	; 0x672 <MagnetMaze+0x140>

    if (newHallState != curHallState) {
     606:	33 23       	and	r19, r19
     608:	09 f4       	brne	.+2      	; 0x60c <MagnetMaze+0xda>
     60a:	d7 c0       	rjmp	.+430    	; 0x7ba <MagnetMaze+0x288>
        curHallState = newHallState;
     60c:	10 92 3c 38 	sts	0x383C, r1	; 0x80383c <curHallState>
                    for (int i=0; i<6; i++ )
                        iLED[HCKR[G][i]] = 0;
                }
            }
        } else {
            if (mazePos == sizeof(mazeCode)) {
     610:	80 91 3a 38 	lds	r24, 0x383A	; 0x80383a <mazePos>
     614:	82 31       	cpi	r24, 0x12	; 18
     616:	09 f0       	breq	.+2      	; 0x61a <MagnetMaze+0xe8>
     618:	d0 c0       	rjmp	.+416    	; 0x7ba <MagnetMaze+0x288>
                gameNow   = TEXT;
     61a:	10 92 2f 38 	sts	0x382F, r1	; 0x80382f <gameNow>
                mazePos   = 0;
     61e:	10 92 3a 38 	sts	0x383A, r1	; 0x80383a <mazePos>
                mazeState = TRUE;
     622:	81 e0       	ldi	r24, 0x01	; 1
     624:	80 93 0a 38 	sts	0x380A, r24	; 0x80380a <mazeState>
                iLED[SCARAB[G]]    = 0;
     628:	10 82       	st	Z, r1
                iLED[EYE[G][L]] = 0;
     62a:	e0 91 2d b3 	lds	r30, 0xB32D	; 0x80b32d <__bss_end+0x7827>
     62e:	f0 e0       	ldi	r31, 0x00	; 0
     630:	ea 54       	subi	r30, 0x4A	; 74
     632:	f5 4c       	sbci	r31, 0xC5	; 197
     634:	10 82       	st	Z, r1
                iLED[EYE[G][R]] = 0;
     636:	e0 91 2c b3 	lds	r30, 0xB32C	; 0x80b32c <__bss_end+0x7826>
     63a:	f0 e0       	ldi	r31, 0x00	; 0
     63c:	ea 54       	subi	r30, 0x4A	; 74
     63e:	f5 4c       	sbci	r31, 0xC5	; 197
     640:	10 82       	st	Z, r1
                iLED[EYE[R][L]] = 0;
     642:	e0 91 2b b3 	lds	r30, 0xB32B	; 0x80b32b <__bss_end+0x7825>
     646:	f0 e0       	ldi	r31, 0x00	; 0
     648:	ea 54       	subi	r30, 0x4A	; 74
     64a:	f5 4c       	sbci	r31, 0xC5	; 197
     64c:	10 82       	st	Z, r1
                iLED[EYE[R][R]] = 0;
     64e:	e0 91 2a b3 	lds	r30, 0xB32A	; 0x80b32a <__bss_end+0x7824>
     652:	f0 e0       	ldi	r31, 0x00	; 0
     654:	ea 54       	subi	r30, 0x4A	; 74
     656:	f5 4c       	sbci	r31, 0xC5	; 197
     658:	10 82       	st	Z, r1
     65a:	a4 e3       	ldi	r26, 0x34	; 52
     65c:	b3 eb       	ldi	r27, 0xB3	; 179
                for (int i=0; i<6; i++ )
                    iLED[HCKR[G][i]] = 0;
     65e:	ed 91       	ld	r30, X+
     660:	f0 e0       	ldi	r31, 0x00	; 0
     662:	ea 54       	subi	r30, 0x4A	; 74
     664:	f5 4c       	sbci	r31, 0xC5	; 197
     666:	10 82       	st	Z, r1
                iLED[SCARAB[G]]    = 0;
                iLED[EYE[G][L]] = 0;
                iLED[EYE[G][R]] = 0;
                iLED[EYE[R][L]] = 0;
                iLED[EYE[R][R]] = 0;
                for (int i=0; i<6; i++ )
     668:	23 eb       	ldi	r18, 0xB3	; 179
     66a:	aa 33       	cpi	r26, 0x3A	; 58
     66c:	b2 07       	cpc	r27, r18
     66e:	b9 f7       	brne	.-18     	; 0x65e <MagnetMaze+0x12c>
     670:	a4 c0       	rjmp	.+328    	; 0x7ba <MagnetMaze+0x288>

    /* Make the maze work regardless of badge orientation */
    if (newHallState != 0 && mazePos == 0 )
        inverted = (newHallState != mazeCode[0]) ? TRUE : FALSE;

    if (newHallState != curHallState) {
     672:	38 17       	cp	r19, r24
     674:	09 f4       	brne	.+2      	; 0x678 <MagnetMaze+0x146>
     676:	a1 c0       	rjmp	.+322    	; 0x7ba <MagnetMaze+0x288>
        curHallState = newHallState;
     678:	80 93 3c 38 	sts	0x383C, r24	; 0x80383c <curHallState>
        
        if (curHallState != 0) {
            gameNow = MAZE;
     67c:	91 e0       	ldi	r25, 0x01	; 1
     67e:	90 93 2f 38 	sts	0x382F, r25	; 0x80382f <gameNow>
            if ( (inverted ? curHallState^3 : curHallState) == mazeCode[mazePos]) {
     682:	90 91 38 38 	lds	r25, 0x3838	; 0x803838 <inverted>
     686:	99 23       	and	r25, r25
     688:	11 f0       	breq	.+4      	; 0x68e <MagnetMaze+0x15c>
     68a:	93 e0       	ldi	r25, 0x03	; 3
     68c:	89 27       	eor	r24, r25
     68e:	90 e0       	ldi	r25, 0x00	; 0
     690:	e2 2f       	mov	r30, r18
     692:	f0 e0       	ldi	r31, 0x00	; 0
     694:	e6 5c       	subi	r30, 0xC6	; 198
     696:	fc 44       	sbci	r31, 0x4C	; 76
     698:	40 81       	ld	r20, Z
     69a:	50 e0       	ldi	r21, 0x00	; 0
     69c:	84 17       	cp	r24, r20
     69e:	95 07       	cpc	r25, r21
     6a0:	91 f4       	brne	.+36     	; 0x6c6 <MagnetMaze+0x194>
                mazeState &= TRUE;
     6a2:	80 91 0a 38 	lds	r24, 0x380A	; 0x80380a <mazeState>
     6a6:	81 70       	andi	r24, 0x01	; 1
     6a8:	80 93 0a 38 	sts	0x380A, r24	; 0x80380a <mazeState>
                iLED[EYE[R][L]] = 0;
     6ac:	e0 91 2b b3 	lds	r30, 0xB32B	; 0x80b32b <__bss_end+0x7825>
     6b0:	f0 e0       	ldi	r31, 0x00	; 0
     6b2:	ea 54       	subi	r30, 0x4A	; 74
     6b4:	f5 4c       	sbci	r31, 0xC5	; 197
     6b6:	10 82       	st	Z, r1
                iLED[EYE[R][R]] = 0;
     6b8:	e0 91 2a b3 	lds	r30, 0xB32A	; 0x80b32a <__bss_end+0x7824>
     6bc:	f0 e0       	ldi	r31, 0x00	; 0
     6be:	ea 54       	subi	r30, 0x4A	; 74
     6c0:	f5 4c       	sbci	r31, 0xC5	; 197
     6c2:	10 82       	st	Z, r1
     6c4:	02 c0       	rjmp	.+4      	; 0x6ca <MagnetMaze+0x198>
            } else {
                mazeState = FALSE;
     6c6:	10 92 0a 38 	sts	0x380A, r1	; 0x80380a <mazeState>
                /* play tone BAD */
            }
            mazePos++;
     6ca:	2f 5f       	subi	r18, 0xFF	; 255
     6cc:	20 93 3a 38 	sts	0x383A, r18	; 0x80383a <mazePos>
            mazeCnt++;            
     6d0:	80 91 39 38 	lds	r24, 0x3839	; 0x803839 <mazeCnt>
     6d4:	8f 5f       	subi	r24, 0xFF	; 255
            if (mazeCnt >= 3) {
     6d6:	83 30       	cpi	r24, 0x03	; 3
     6d8:	18 f4       	brcc	.+6      	; 0x6e0 <MagnetMaze+0x1ae>
            } else {
                mazeState = FALSE;
                /* play tone BAD */
            }
            mazePos++;
            mazeCnt++;            
     6da:	80 93 39 38 	sts	0x3839, r24	; 0x803839 <mazeCnt>
     6de:	6d c0       	rjmp	.+218    	; 0x7ba <MagnetMaze+0x288>
            if (mazeCnt >= 3) {
                mazeCnt = 0;
     6e0:	10 92 39 38 	sts	0x3839, r1	; 0x803839 <mazeCnt>
                if (mazeState == TRUE) {
     6e4:	80 91 0a 38 	lds	r24, 0x380A	; 0x80380a <mazeState>
     6e8:	81 30       	cpi	r24, 0x01	; 1
     6ea:	a9 f5       	brne	.+106    	; 0x756 <MagnetMaze+0x224>
                    /* play tone GOOD */
                    iLED[HCKR[G][(mazePos/3)-1]] = dimValue;
     6ec:	eb ea       	ldi	r30, 0xAB	; 171
     6ee:	2e 9f       	mul	r18, r30
     6f0:	e1 2d       	mov	r30, r1
     6f2:	11 24       	eor	r1, r1
     6f4:	e6 95       	lsr	r30
     6f6:	f0 e0       	ldi	r31, 0x00	; 0
     6f8:	e2 5d       	subi	r30, 0xD2	; 210
     6fa:	fc 44       	sbci	r31, 0x4C	; 76
     6fc:	e5 81       	ldd	r30, Z+5	; 0x05
     6fe:	f0 e0       	ldi	r31, 0x00	; 0
     700:	80 91 09 38 	lds	r24, 0x3809	; 0x803809 <dimValue>
     704:	ea 54       	subi	r30, 0x4A	; 74
     706:	f5 4c       	sbci	r31, 0xC5	; 197
     708:	80 83       	st	Z, r24
                    if (mazePos == sizeof(mazeCode)) {
     70a:	22 31       	cpi	r18, 0x12	; 18
     70c:	09 f0       	breq	.+2      	; 0x710 <MagnetMaze+0x1de>
                        UpdateState(MAZE_COMPLETED);
     70e:	55 c0       	rjmp	.+170    	; 0x7ba <MagnetMaze+0x288>
     710:	8d e7       	ldi	r24, 0x7D	; 125
     712:	48 d5       	rcall	.+2704   	; 0x11a4 <UpdateState>
                        iLED[SCARAB[G]]    = 0;
     714:	d0 e0       	ldi	r29, 0x00	; 0
     716:	ca 54       	subi	r28, 0x4A	; 74
     718:	d5 4c       	sbci	r29, 0xC5	; 197
     71a:	18 82       	st	Y, r1
                        iLED[EYE[R][L]] = 0;
     71c:	e0 91 2b b3 	lds	r30, 0xB32B	; 0x80b32b <__bss_end+0x7825>
     720:	f0 e0       	ldi	r31, 0x00	; 0
     722:	ea 54       	subi	r30, 0x4A	; 74
     724:	f5 4c       	sbci	r31, 0xC5	; 197
     726:	10 82       	st	Z, r1
                        iLED[EYE[R][R]] = 0;
     728:	e0 91 2a b3 	lds	r30, 0xB32A	; 0x80b32a <__bss_end+0x7824>
     72c:	f0 e0       	ldi	r31, 0x00	; 0
     72e:	ea 54       	subi	r30, 0x4A	; 74
     730:	f5 4c       	sbci	r31, 0xC5	; 197
     732:	10 82       	st	Z, r1
                        iLED[EYE[G][L]] = dimValue;
     734:	e0 91 2d b3 	lds	r30, 0xB32D	; 0x80b32d <__bss_end+0x7827>
     738:	f0 e0       	ldi	r31, 0x00	; 0
     73a:	80 91 09 38 	lds	r24, 0x3809	; 0x803809 <dimValue>
     73e:	ea 54       	subi	r30, 0x4A	; 74
     740:	f5 4c       	sbci	r31, 0xC5	; 197
     742:	80 83       	st	Z, r24
                        iLED[EYE[G][R]] = dimValue;
     744:	e0 91 2c b3 	lds	r30, 0xB32C	; 0x80b32c <__bss_end+0x7826>
     748:	f0 e0       	ldi	r31, 0x00	; 0
     74a:	80 91 09 38 	lds	r24, 0x3809	; 0x803809 <dimValue>
     74e:	ea 54       	subi	r30, 0x4A	; 74
     750:	f5 4c       	sbci	r31, 0xC5	; 197
     752:	80 83       	st	Z, r24
     754:	32 c0       	rjmp	.+100    	; 0x7ba <MagnetMaze+0x288>
                        /*state = STATE_MUSIC;*/
                    }
                } else {
                    gameNow   = TEXT;
     756:	10 92 2f 38 	sts	0x382F, r1	; 0x80382f <gameNow>
                    mazePos   = 0;
     75a:	10 92 3a 38 	sts	0x383A, r1	; 0x80383a <mazePos>
                    mazeState = TRUE;
     75e:	81 e0       	ldi	r24, 0x01	; 1
     760:	80 93 0a 38 	sts	0x380A, r24	; 0x80380a <mazeState>
                    iLED[SCARAB[G]]    = 0;
     764:	d0 e0       	ldi	r29, 0x00	; 0
     766:	ca 54       	subi	r28, 0x4A	; 74
     768:	d5 4c       	sbci	r29, 0xC5	; 197
     76a:	18 82       	st	Y, r1
                    iLED[EYE[G][L]] = 0;
     76c:	e0 91 2d b3 	lds	r30, 0xB32D	; 0x80b32d <__bss_end+0x7827>
     770:	f0 e0       	ldi	r31, 0x00	; 0
     772:	ea 54       	subi	r30, 0x4A	; 74
     774:	f5 4c       	sbci	r31, 0xC5	; 197
     776:	10 82       	st	Z, r1
                    iLED[EYE[G][R]] = 0;
     778:	e0 91 2c b3 	lds	r30, 0xB32C	; 0x80b32c <__bss_end+0x7826>
     77c:	f0 e0       	ldi	r31, 0x00	; 0
     77e:	ea 54       	subi	r30, 0x4A	; 74
     780:	f5 4c       	sbci	r31, 0xC5	; 197
     782:	10 82       	st	Z, r1
                    iLED[EYE[R][L]] = dimValue;
     784:	e0 91 2b b3 	lds	r30, 0xB32B	; 0x80b32b <__bss_end+0x7825>
     788:	f0 e0       	ldi	r31, 0x00	; 0
     78a:	80 91 09 38 	lds	r24, 0x3809	; 0x803809 <dimValue>
     78e:	ea 54       	subi	r30, 0x4A	; 74
     790:	f5 4c       	sbci	r31, 0xC5	; 197
     792:	80 83       	st	Z, r24
                    iLED[EYE[R][R]] = dimValue;
     794:	e0 91 2a b3 	lds	r30, 0xB32A	; 0x80b32a <__bss_end+0x7824>
     798:	f0 e0       	ldi	r31, 0x00	; 0
     79a:	80 91 09 38 	lds	r24, 0x3809	; 0x803809 <dimValue>
     79e:	ea 54       	subi	r30, 0x4A	; 74
     7a0:	f5 4c       	sbci	r31, 0xC5	; 197
     7a2:	80 83       	st	Z, r24
     7a4:	a4 e3       	ldi	r26, 0x34	; 52
     7a6:	b3 eb       	ldi	r27, 0xB3	; 179
                    for (int i=0; i<6; i++ )
                        iLED[HCKR[G][i]] = 0;
     7a8:	ed 91       	ld	r30, X+
     7aa:	f0 e0       	ldi	r31, 0x00	; 0
     7ac:	ea 54       	subi	r30, 0x4A	; 74
     7ae:	f5 4c       	sbci	r31, 0xC5	; 197
     7b0:	10 82       	st	Z, r1
                    iLED[SCARAB[G]]    = 0;
                    iLED[EYE[G][L]] = 0;
                    iLED[EYE[G][R]] = 0;
                    iLED[EYE[R][L]] = dimValue;
                    iLED[EYE[R][R]] = dimValue;
                    for (int i=0; i<6; i++ )
     7b2:	83 eb       	ldi	r24, 0xB3	; 179
     7b4:	aa 33       	cpi	r26, 0x3A	; 58
     7b6:	b8 07       	cpc	r27, r24
     7b8:	b9 f7       	brne	.-18     	; 0x7a8 <MagnetMaze+0x276>
                    iLED[HCKR[G][i]] = 0;
            }
        }
    }
    return 0;
}
     7ba:	80 e0       	ldi	r24, 0x00	; 0
     7bc:	df 91       	pop	r29
     7be:	cf 91       	pop	r28
     7c0:	08 95       	ret

000007c2 <Setup>:
// Select "audio" input (0-2.5V)
void SelectAuIn(){
     VREF_CTRLA   = 0x22;    //0x22 for audio in/out (2.5V), 0x12 for temperature in, audio out (1.1V/2.5V)
     ADC0_CTRLA   &= ~(ADC_RESSEL_bm);
     ADC0_MUXPOS  = 0x07;    //Audio in: AIN7 at (0x07), Temperature: Internal sensor at (0x1E)
     adc0Chg = 1;
     7c2:	cf 93       	push	r28
     7c4:	df 93       	push	r29
     7c6:	f8 94       	cli
     7c8:	88 ed       	ldi	r24, 0xD8	; 216
     7ca:	84 bf       	out	0x34, r24	; 52
     7cc:	c1 e0       	ldi	r28, 0x01	; 1
     7ce:	c0 93 61 00 	sts	0x0061, r28	; 0x800061 <__TEXT_REGION_LENGTH__+0x700061>
     7d2:	8a e4       	ldi	r24, 0x4A	; 74
     7d4:	80 93 00 04 	sts	0x0400, r24	; 0x800400 <__TEXT_REGION_LENGTH__+0x700400>
     7d8:	8c e7       	ldi	r24, 0x7C	; 124
     7da:	80 93 20 04 	sts	0x0420, r24	; 0x800420 <__TEXT_REGION_LENGTH__+0x700420>
     7de:	9f e3       	ldi	r25, 0x3F	; 63
     7e0:	90 93 40 04 	sts	0x0440, r25	; 0x800440 <__TEXT_REGION_LENGTH__+0x700440>
     7e4:	80 91 53 04 	lds	r24, 0x0453	; 0x800453 <__TEXT_REGION_LENGTH__+0x700453>
     7e8:	80 68       	ori	r24, 0x80	; 128
     7ea:	80 93 53 04 	sts	0x0453, r24	; 0x800453 <__TEXT_REGION_LENGTH__+0x700453>
     7ee:	80 91 54 04 	lds	r24, 0x0454	; 0x800454 <__TEXT_REGION_LENGTH__+0x700454>
     7f2:	80 68       	ori	r24, 0x80	; 128
     7f4:	80 93 54 04 	sts	0x0454, r24	; 0x800454 <__TEXT_REGION_LENGTH__+0x700454>
     7f8:	80 91 55 04 	lds	r24, 0x0455	; 0x800455 <__TEXT_REGION_LENGTH__+0x700455>
     7fc:	80 68       	ori	r24, 0x80	; 128
     7fe:	80 93 55 04 	sts	0x0455, r24	; 0x800455 <__TEXT_REGION_LENGTH__+0x700455>
     802:	80 91 33 04 	lds	r24, 0x0433	; 0x800433 <__TEXT_REGION_LENGTH__+0x700433>
     806:	80 68       	ori	r24, 0x80	; 128
     808:	80 93 33 04 	sts	0x0433, r24	; 0x800433 <__TEXT_REGION_LENGTH__+0x700433>
     80c:	80 91 34 04 	lds	r24, 0x0434	; 0x800434 <__TEXT_REGION_LENGTH__+0x700434>
     810:	80 68       	ori	r24, 0x80	; 128
     812:	80 93 34 04 	sts	0x0434, r24	; 0x800434 <__TEXT_REGION_LENGTH__+0x700434>
     816:	80 91 35 04 	lds	r24, 0x0435	; 0x800435 <__TEXT_REGION_LENGTH__+0x700435>
     81a:	80 68       	ori	r24, 0x80	; 128
     81c:	80 93 35 04 	sts	0x0435, r24	; 0x800435 <__TEXT_REGION_LENGTH__+0x700435>
     820:	c0 93 01 02 	sts	0x0201, r28	; 0x800201 <__TEXT_REGION_LENGTH__+0x700201>
     824:	d2 e0       	ldi	r29, 0x02	; 2
     826:	d0 93 05 04 	sts	0x0405, r29	; 0x800405 <__TEXT_REGION_LENGTH__+0x700405>
     82a:	2b e5       	ldi	r18, 0x5B	; 91
     82c:	31 e0       	ldi	r19, 0x01	; 1
     82e:	20 93 08 08 	sts	0x0808, r18	; 0x800808 <__TEXT_REGION_LENGTH__+0x700808>
     832:	30 93 09 08 	sts	0x0809, r19	; 0x800809 <__TEXT_REGION_LENGTH__+0x700809>
     836:	80 ea       	ldi	r24, 0xA0	; 160
     838:	80 93 05 08 	sts	0x0805, r24	; 0x800805 <__TEXT_REGION_LENGTH__+0x700805>
     83c:	80 ec       	ldi	r24, 0xC0	; 192
     83e:	80 93 06 08 	sts	0x0806, r24	; 0x800806 <__TEXT_REGION_LENGTH__+0x700806>
     842:	83 e0       	ldi	r24, 0x03	; 3
     844:	80 93 07 08 	sts	0x0807, r24	; 0x800807 <__TEXT_REGION_LENGTH__+0x700807>
     848:	1c ba       	out	0x1c, r1	; 28
     84a:	1d ba       	out	0x1d, r1	; 29
     84c:	1e ba       	out	0x1e, r1	; 30
     84e:	1f ba       	out	0x1f, r1	; 31
     850:	c0 93 03 0a 	sts	0x0A03, r28	; 0x800a03 <__TEXT_REGION_LENGTH__+0x700a03>
     854:	88 e0       	ldi	r24, 0x08	; 8
     856:	80 93 00 0a 	sts	0x0A00, r24	; 0x800a00 <__TEXT_REGION_LENGTH__+0x700a00>
     85a:	90 93 02 02 	sts	0x0202, r25	; 0x800202 <__TEXT_REGION_LENGTH__+0x700202>
     85e:	87 e7       	ldi	r24, 0x77	; 119
     860:	80 93 01 0a 	sts	0x0A01, r24	; 0x800a01 <__TEXT_REGION_LENGTH__+0x700a01>
     864:	c0 93 0a 0a 	sts	0x0A0A, r28	; 0x800a0a <__TEXT_REGION_LENGTH__+0x700a0a>
     868:	8b e0       	ldi	r24, 0x0B	; 11
     86a:	80 93 05 0a 	sts	0x0A05, r24	; 0x800a05 <__TEXT_REGION_LENGTH__+0x700a05>
     86e:	80 91 00 0a 	lds	r24, 0x0A00	; 0x800a00 <__TEXT_REGION_LENGTH__+0x700a00>
     872:	81 60       	ori	r24, 0x01	; 1
     874:	80 93 00 0a 	sts	0x0A00, r24	; 0x800a00 <__TEXT_REGION_LENGTH__+0x700a00>
     878:	85 e0       	ldi	r24, 0x05	; 5
     87a:	80 93 40 0a 	sts	0x0A40, r24	; 0x800a40 <__TEXT_REGION_LENGTH__+0x700a40>
     87e:	10 92 41 0a 	sts	0x0A41, r1	; 0x800a41 <__TEXT_REGION_LENGTH__+0x700a41>
     882:	8f ef       	ldi	r24, 0xFF	; 255
     884:	91 e0       	ldi	r25, 0x01	; 1
     886:	80 93 4c 0a 	sts	0x0A4C, r24	; 0x800a4c <__TEXT_REGION_LENGTH__+0x700a4c>
     88a:	90 93 4d 0a 	sts	0x0A4D, r25	; 0x800a4d <__TEXT_REGION_LENGTH__+0x700a4d>
     88e:	10 92 45 0a 	sts	0x0A45, r1	; 0x800a45 <__TEXT_REGION_LENGTH__+0x700a45>
     892:	c0 93 50 0a 	sts	0x0A50, r28	; 0x800a50 <__TEXT_REGION_LENGTH__+0x700a50>
     896:	10 92 51 0a 	sts	0x0A51, r1	; 0x800a51 <__TEXT_REGION_LENGTH__+0x700a51>
     89a:	8b e8       	ldi	r24, 0x8B	; 139
     89c:	93 e0       	ldi	r25, 0x03	; 3
     89e:	80 93 5c 0a 	sts	0x0A5C, r24	; 0x800a5c <__TEXT_REGION_LENGTH__+0x700a5c>
     8a2:	90 93 5d 0a 	sts	0x0A5D, r25	; 0x800a5d <__TEXT_REGION_LENGTH__+0x700a5d>
     8a6:	c0 93 55 0a 	sts	0x0A55, r28	; 0x800a55 <__TEXT_REGION_LENGTH__+0x700a55>
     8aa:	08 dc       	rcall	.-2032   	; 0xbc <I2C_init>
     8ac:	82 e1       	ldi	r24, 0x12	; 18
     8ae:	80 93 a0 00 	sts	0x00A0, r24	; 0x8000a0 <__TEXT_REGION_LENGTH__+0x7000a0>
     8b2:	80 e2       	ldi	r24, 0x20	; 32
     8b4:	80 93 a2 00 	sts	0x00A2, r24	; 0x8000a2 <__TEXT_REGION_LENGTH__+0x7000a2>
     8b8:	c0 93 a1 00 	sts	0x00A1, r28	; 0x8000a1 <__TEXT_REGION_LENGTH__+0x7000a1>
     8bc:	86 e0       	ldi	r24, 0x06	; 6
     8be:	80 93 00 06 	sts	0x0600, r24	; 0x800600 <__TEXT_REGION_LENGTH__+0x700600>
     8c2:	84 e4       	ldi	r24, 0x44	; 68
     8c4:	80 93 02 06 	sts	0x0602, r24	; 0x800602 <__TEXT_REGION_LENGTH__+0x700602>
     8c8:	8e e1       	ldi	r24, 0x1E	; 30
     8ca:	80 93 06 06 	sts	0x0606, r24	; 0x800606 <__TEXT_REGION_LENGTH__+0x700606>
     8ce:	c0 93 0a 06 	sts	0x060A, r28	; 0x80060a <__TEXT_REGION_LENGTH__+0x70060a>
     8d2:	80 91 00 06 	lds	r24, 0x0600	; 0x800600 <__TEXT_REGION_LENGTH__+0x700600>
     8d6:	81 60       	ori	r24, 0x01	; 1
     8d8:	80 93 00 06 	sts	0x0600, r24	; 0x800600 <__TEXT_REGION_LENGTH__+0x700600>
     8dc:	c0 93 08 06 	sts	0x0608, r28	; 0x800608 <__TEXT_REGION_LENGTH__+0x700608>
     8e0:	10 92 40 06 	sts	0x0640, r1	; 0x800640 <__TEXT_REGION_LENGTH__+0x700640>
     8e4:	d0 93 41 06 	sts	0x0641, r29	; 0x800641 <__TEXT_REGION_LENGTH__+0x700641>
     8e8:	82 e5       	ldi	r24, 0x52	; 82
     8ea:	80 93 42 06 	sts	0x0642, r24	; 0x800642 <__TEXT_REGION_LENGTH__+0x700642>
     8ee:	84 e0       	ldi	r24, 0x04	; 4
     8f0:	80 93 45 06 	sts	0x0645, r24	; 0x800645 <__TEXT_REGION_LENGTH__+0x700645>
     8f4:	80 93 46 06 	sts	0x0646, r24	; 0x800646 <__TEXT_REGION_LENGTH__+0x700646>
     8f8:	c0 93 4a 06 	sts	0x064A, r28	; 0x80064a <__TEXT_REGION_LENGTH__+0x70064a>
     8fc:	80 91 40 06 	lds	r24, 0x0640	; 0x800640 <__TEXT_REGION_LENGTH__+0x700640>
     900:	81 60       	ori	r24, 0x01	; 1
     902:	80 93 40 06 	sts	0x0640, r24	; 0x800640 <__TEXT_REGION_LENGTH__+0x700640>
     906:	c0 93 48 06 	sts	0x0648, r28	; 0x800648 <__TEXT_REGION_LENGTH__+0x700648>
     90a:	80 e4       	ldi	r24, 0x40	; 64
     90c:	80 93 a0 06 	sts	0x06A0, r24	; 0x8006a0 <__TEXT_REGION_LENGTH__+0x7006a0>
     910:	80 e8       	ldi	r24, 0x80	; 128
     912:	80 93 a1 06 	sts	0x06A1, r24	; 0x8006a1 <__TEXT_REGION_LENGTH__+0x7006a1>
     916:	80 91 a0 06 	lds	r24, 0x06A0	; 0x8006a0 <__TEXT_REGION_LENGTH__+0x7006a0>
     91a:	81 60       	ori	r24, 0x01	; 1
     91c:	80 93 a0 06 	sts	0x06A0, r24	; 0x8006a0 <__TEXT_REGION_LENGTH__+0x7006a0>
     920:	80 91 41 01 	lds	r24, 0x0141	; 0x800141 <__TEXT_REGION_LENGTH__+0x700141>
     924:	80 fd       	sbrc	r24, 0
     926:	fc cf       	rjmp	.-8      	; 0x920 <Setup+0x15e>
     928:	80 e3       	ldi	r24, 0x30	; 48
     92a:	80 93 40 01 	sts	0x0140, r24	; 0x800140 <__TEXT_REGION_LENGTH__+0x700140>
     92e:	10 92 47 01 	sts	0x0147, r1	; 0x800147 <__TEXT_REGION_LENGTH__+0x700147>
     932:	80 91 41 01 	lds	r24, 0x0141	; 0x800141 <__TEXT_REGION_LENGTH__+0x700141>
     936:	82 fd       	sbrc	r24, 2
     938:	fc cf       	rjmp	.-8      	; 0x932 <Setup+0x170>
     93a:	80 e0       	ldi	r24, 0x00	; 0
     93c:	98 e7       	ldi	r25, 0x78	; 120
     93e:	80 93 4a 01 	sts	0x014A, r24	; 0x80014a <__TEXT_REGION_LENGTH__+0x70014a>
     942:	90 93 4b 01 	sts	0x014B, r25	; 0x80014b <__TEXT_REGION_LENGTH__+0x70014b>
     946:	80 91 48 01 	lds	r24, 0x0148	; 0x800148 <__TEXT_REGION_LENGTH__+0x700148>
     94a:	90 91 49 01 	lds	r25, 0x0149	; 0x800149 <__TEXT_REGION_LENGTH__+0x700149>
     94e:	60 91 4a 01 	lds	r22, 0x014A	; 0x80014a <__TEXT_REGION_LENGTH__+0x70014a>
     952:	70 91 4b 01 	lds	r23, 0x014B	; 0x80014b <__TEXT_REGION_LENGTH__+0x70014b>
     956:	82 96       	adiw	r24, 0x22	; 34
     958:	0e 94 42 19 	call	0x3284	; 0x3284 <__udivmodhi4>
     95c:	80 93 e3 3a 	sts	0x3AE3, r24	; 0x803ae3 <tmp16bit>
     960:	90 93 e4 3a 	sts	0x3AE4, r25	; 0x803ae4 <tmp16bit+0x1>
     964:	80 91 41 01 	lds	r24, 0x0141	; 0x800141 <__TEXT_REGION_LENGTH__+0x700141>
     968:	83 fd       	sbrc	r24, 3
     96a:	fc cf       	rjmp	.-8      	; 0x964 <Setup+0x1a2>
     96c:	80 91 e3 3a 	lds	r24, 0x3AE3	; 0x803ae3 <tmp16bit>
     970:	90 91 e4 3a 	lds	r25, 0x3AE4	; 0x803ae4 <tmp16bit+0x1>
     974:	80 93 4c 01 	sts	0x014C, r24	; 0x80014c <__TEXT_REGION_LENGTH__+0x70014c>
     978:	90 93 4d 01 	sts	0x014D, r25	; 0x80014d <__TEXT_REGION_LENGTH__+0x70014d>
     97c:	83 e0       	ldi	r24, 0x03	; 3
     97e:	80 93 42 01 	sts	0x0142, r24	; 0x800142 <__TEXT_REGION_LENGTH__+0x700142>
     982:	81 e0       	ldi	r24, 0x01	; 1
     984:	80 93 52 01 	sts	0x0152, r24	; 0x800152 <__TEXT_REGION_LENGTH__+0x700152>
     988:	88 e0       	ldi	r24, 0x08	; 8
     98a:	80 93 50 01 	sts	0x0150, r24	; 0x800150 <__TEXT_REGION_LENGTH__+0x700150>
     98e:	80 91 41 01 	lds	r24, 0x0141	; 0x800141 <__TEXT_REGION_LENGTH__+0x700141>
     992:	80 fd       	sbrc	r24, 0
     994:	fc cf       	rjmp	.-8      	; 0x98e <Setup+0x1cc>
     996:	80 91 40 01 	lds	r24, 0x0140	; 0x800140 <__TEXT_REGION_LENGTH__+0x700140>
     99a:	81 60       	ori	r24, 0x01	; 1
     99c:	80 93 40 01 	sts	0x0140, r24	; 0x800140 <__TEXT_REGION_LENGTH__+0x700140>
     9a0:	80 91 50 01 	lds	r24, 0x0150	; 0x800150 <__TEXT_REGION_LENGTH__+0x700150>
     9a4:	81 60       	ori	r24, 0x01	; 1
     9a6:	80 93 50 01 	sts	0x0150, r24	; 0x800150 <__TEXT_REGION_LENGTH__+0x700150>
     9aa:	10 92 49 3a 	sts	0x3A49, r1	; 0x803a49 <serRx>
     9ae:	89 e4       	ldi	r24, 0x49	; 73
     9b0:	9a e3       	ldi	r25, 0x3A	; 58
     9b2:	80 93 8d 3a 	sts	0x3A8D, r24	; 0x803a8d <serTxAddr>
     9b6:	90 93 8e 3a 	sts	0x3A8E, r25	; 0x803a8e <serTxAddr+0x1>
     9ba:	78 94       	sei
     9bc:	df 91       	pop	r29
     9be:	cf 91       	pop	r28
     9c0:	08 95       	ret

000009c2 <__vector_8>:
     9c2:	1f 92       	push	r1
     9c4:	0f 92       	push	r0
     9c6:	0f b6       	in	r0, 0x3f	; 63
     9c8:	0f 92       	push	r0
     9ca:	11 24       	eor	r1, r1
     9cc:	8f 93       	push	r24
     9ce:	9f 93       	push	r25
     9d0:	af 93       	push	r26
     9d2:	bf 93       	push	r27
     9d4:	ef 93       	push	r30
     9d6:	ff 93       	push	r31
     9d8:	87 e0       	ldi	r24, 0x07	; 7
     9da:	80 93 46 04 	sts	0x0446, r24	; 0x800446 <__TEXT_REGION_LENGTH__+0x700446>
     9de:	84 e4       	ldi	r24, 0x44	; 68
     9e0:	80 93 26 04 	sts	0x0426, r24	; 0x800426 <__TEXT_REGION_LENGTH__+0x700426>
     9e4:	ec b3       	in	r30, 0x1c	; 28
     9e6:	88 e0       	ldi	r24, 0x08	; 8
     9e8:	e8 9f       	mul	r30, r24
     9ea:	f0 01       	movw	r30, r0
     9ec:	11 24       	eor	r1, r1
     9ee:	ea 54       	subi	r30, 0x4A	; 74
     9f0:	f5 4c       	sbci	r31, 0xC5	; 197
     9f2:	a8 e2       	ldi	r26, 0x28	; 40
     9f4:	ba e0       	ldi	r27, 0x0A	; 10
     9f6:	96 e0       	ldi	r25, 0x06	; 6
     9f8:	81 91       	ld	r24, Z+
     9fa:	8d 93       	st	X+, r24
     9fc:	9a 95       	dec	r25
     9fe:	e1 f7       	brne	.-8      	; 0x9f8 <__vector_8+0x36>
     a00:	8b e0       	ldi	r24, 0x0B	; 11
     a02:	80 93 05 0a 	sts	0x0A05, r24	; 0x800a05 <__TEXT_REGION_LENGTH__+0x700a05>
     a06:	8c b3       	in	r24, 0x1c	; 28
     a08:	83 30       	cpi	r24, 0x03	; 3
     a0a:	58 f4       	brcc	.+22     	; 0xa22 <__vector_8+0x60>
     a0c:	8c b3       	in	r24, 0x1c	; 28
     a0e:	91 e0       	ldi	r25, 0x01	; 1
     a10:	01 c0       	rjmp	.+2      	; 0xa14 <__vector_8+0x52>
     a12:	99 0f       	add	r25, r25
     a14:	8a 95       	dec	r24
     a16:	ea f7       	brpl	.-6      	; 0xa12 <__vector_8+0x50>
     a18:	99 b9       	out	0x09, r25	; 9
     a1a:	8c b3       	in	r24, 0x1c	; 28
     a1c:	83 95       	inc	r24
     a1e:	8c bb       	out	0x1c, r24	; 28
     a20:	0a c0       	rjmp	.+20     	; 0xa36 <__vector_8+0x74>
     a22:	8c b3       	in	r24, 0x1c	; 28
     a24:	83 30       	cpi	r24, 0x03	; 3
     a26:	21 f4       	brne	.+8      	; 0xa30 <__vector_8+0x6e>
     a28:	2a 9a       	sbi	0x05, 2	; 5
     a2a:	83 95       	inc	r24
     a2c:	8c bb       	out	0x1c, r24	; 28
     a2e:	03 c0       	rjmp	.+6      	; 0xa36 <__vector_8+0x74>
     a30:	2e 9a       	sbi	0x05, 6	; 5
     a32:	88 27       	eor	r24, r24
     a34:	8c bb       	out	0x1c, r24	; 28
     a36:	80 91 34 3a 	lds	r24, 0x3A34	; 0x803a34 <timeout_I2C>
     a3a:	88 23       	and	r24, r24
     a3c:	29 f0       	breq	.+10     	; 0xa48 <__vector_8+0x86>
     a3e:	80 91 34 3a 	lds	r24, 0x3A34	; 0x803a34 <timeout_I2C>
     a42:	81 50       	subi	r24, 0x01	; 1
     a44:	80 93 34 3a 	sts	0x3A34, r24	; 0x803a34 <timeout_I2C>
     a48:	8f ef       	ldi	r24, 0xFF	; 255
     a4a:	80 93 0b 0a 	sts	0x0A0B, r24	; 0x800a0b <__TEXT_REGION_LENGTH__+0x700a0b>
     a4e:	ff 91       	pop	r31
     a50:	ef 91       	pop	r30
     a52:	bf 91       	pop	r27
     a54:	af 91       	pop	r26
     a56:	9f 91       	pop	r25
     a58:	8f 91       	pop	r24
     a5a:	0f 90       	pop	r0
     a5c:	0f be       	out	0x3f, r0	; 63
     a5e:	0f 90       	pop	r0
     a60:	1f 90       	pop	r1
     a62:	18 95       	reti

00000a64 <__vector_13>:
     a64:	1f 92       	push	r1
     a66:	0f 92       	push	r0
     a68:	0f b6       	in	r0, 0x3f	; 63
     a6a:	0f 92       	push	r0
     a6c:	11 24       	eor	r1, r1
     a6e:	8f 93       	push	r24
     a70:	9f 93       	push	r25
     a72:	ef 93       	push	r30
     a74:	ff 93       	push	r31
     a76:	e0 91 8d 3a 	lds	r30, 0x3A8D	; 0x803a8d <serTxAddr>
     a7a:	f0 91 8e 3a 	lds	r31, 0x3A8E	; 0x803a8e <serTxAddr+0x1>
     a7e:	80 81       	ld	r24, Z
     a80:	88 23       	and	r24, r24
     a82:	91 f0       	breq	.+36     	; 0xaa8 <__vector_13+0x44>
     a84:	80 81       	ld	r24, Z
     a86:	80 93 02 08 	sts	0x0802, r24	; 0x800802 <__TEXT_REGION_LENGTH__+0x700802>
     a8a:	80 91 8d 3a 	lds	r24, 0x3A8D	; 0x803a8d <serTxAddr>
     a8e:	90 91 8e 3a 	lds	r25, 0x3A8E	; 0x803a8e <serTxAddr+0x1>
     a92:	01 96       	adiw	r24, 0x01	; 1
     a94:	80 93 8d 3a 	sts	0x3A8D, r24	; 0x803a8d <serTxAddr>
     a98:	90 93 8e 3a 	sts	0x3A8E, r25	; 0x803a8e <serTxAddr+0x1>
     a9c:	80 91 05 08 	lds	r24, 0x0805	; 0x800805 <__TEXT_REGION_LENGTH__+0x700805>
     aa0:	80 62       	ori	r24, 0x20	; 32
     aa2:	80 93 05 08 	sts	0x0805, r24	; 0x800805 <__TEXT_REGION_LENGTH__+0x700805>
     aa6:	05 c0       	rjmp	.+10     	; 0xab2 <__vector_13+0x4e>
     aa8:	81 e0       	ldi	r24, 0x01	; 1
     aaa:	80 93 08 38 	sts	0x3808, r24	; 0x803808 <serTxDone>
     aae:	10 92 45 0a 	sts	0x0A45, r1	; 0x800a45 <__TEXT_REGION_LENGTH__+0x700a45>
     ab2:	81 e0       	ldi	r24, 0x01	; 1
     ab4:	80 93 46 0a 	sts	0x0A46, r24	; 0x800a46 <__TEXT_REGION_LENGTH__+0x700a46>
     ab8:	ff 91       	pop	r31
     aba:	ef 91       	pop	r30
     abc:	9f 91       	pop	r25
     abe:	8f 91       	pop	r24
     ac0:	0f 90       	pop	r0
     ac2:	0f be       	out	0x3f, r0	; 63
     ac4:	0f 90       	pop	r0
     ac6:	1f 90       	pop	r1
     ac8:	18 95       	reti

00000aca <__vector_14>:
     aca:	1f 92       	push	r1
     acc:	0f 92       	push	r0
     ace:	0f b6       	in	r0, 0x3f	; 63
     ad0:	0f 92       	push	r0
     ad2:	11 24       	eor	r1, r1
     ad4:	2f 93       	push	r18
     ad6:	3f 93       	push	r19
     ad8:	4f 93       	push	r20
     ada:	8f 93       	push	r24
     adc:	9f 93       	push	r25
     ade:	ef 93       	push	r30
     ae0:	ff 93       	push	r31
     ae2:	e0 91 05 38 	lds	r30, 0x3805	; 0x803805 <auSmpAddr>
     ae6:	f0 91 06 38 	lds	r31, 0x3806	; 0x803806 <auSmpAddr+0x1>
     aea:	80 81       	ld	r24, Z
     aec:	81 11       	cpse	r24, r1
     aee:	08 c0       	rjmp	.+16     	; 0xb00 <__vector_14+0x36>
     af0:	80 91 03 38 	lds	r24, 0x3803	; 0x803803 <auRepAddr>
     af4:	90 91 04 38 	lds	r25, 0x3804	; 0x803804 <auRepAddr+0x1>
     af8:	80 93 05 38 	sts	0x3805, r24	; 0x803805 <auSmpAddr>
     afc:	90 93 06 38 	sts	0x3806, r25	; 0x803806 <auSmpAddr+0x1>
     b00:	e0 91 05 38 	lds	r30, 0x3805	; 0x803805 <auSmpAddr>
     b04:	f0 91 06 38 	lds	r31, 0x3806	; 0x803806 <auSmpAddr+0x1>
     b08:	80 81       	ld	r24, Z
     b0a:	88 23       	and	r24, r24
     b0c:	e1 f0       	breq	.+56     	; 0xb46 <__vector_14+0x7c>
     b0e:	20 81       	ld	r18, Z
     b10:	40 91 8a 3a 	lds	r20, 0x3A8A	; 0x803a8a <auVolume>
     b14:	30 e0       	ldi	r19, 0x00	; 0
     b16:	2f 57       	subi	r18, 0x7F	; 127
     b18:	31 09       	sbc	r19, r1
     b1a:	42 9f       	mul	r20, r18
     b1c:	c0 01       	movw	r24, r0
     b1e:	43 9f       	mul	r20, r19
     b20:	90 0d       	add	r25, r0
     b22:	11 24       	eor	r1, r1
     b24:	89 2f       	mov	r24, r25
     b26:	99 0f       	add	r25, r25
     b28:	99 0b       	sbc	r25, r25
     b2a:	80 58       	subi	r24, 0x80	; 128
     b2c:	9f 4f       	sbci	r25, 0xFF	; 255
     b2e:	80 93 a1 06 	sts	0x06A1, r24	; 0x8006a1 <__TEXT_REGION_LENGTH__+0x7006a1>
     b32:	80 91 05 38 	lds	r24, 0x3805	; 0x803805 <auSmpAddr>
     b36:	90 91 06 38 	lds	r25, 0x3806	; 0x803806 <auSmpAddr+0x1>
     b3a:	01 96       	adiw	r24, 0x01	; 1
     b3c:	80 93 05 38 	sts	0x3805, r24	; 0x803805 <auSmpAddr>
     b40:	90 93 06 38 	sts	0x3806, r25	; 0x803806 <auSmpAddr+0x1>
     b44:	06 c0       	rjmp	.+12     	; 0xb52 <__vector_14+0x88>
     b46:	80 e8       	ldi	r24, 0x80	; 128
     b48:	80 93 a1 06 	sts	0x06A1, r24	; 0x8006a1 <__TEXT_REGION_LENGTH__+0x7006a1>
     b4c:	81 e0       	ldi	r24, 0x01	; 1
     b4e:	80 93 de 3a 	sts	0x3ADE, r24	; 0x803ade <auPlayDone>
     b52:	81 e0       	ldi	r24, 0x01	; 1
     b54:	80 93 56 0a 	sts	0x0A56, r24	; 0x800a56 <__TEXT_REGION_LENGTH__+0x700a56>
     b58:	ff 91       	pop	r31
     b5a:	ef 91       	pop	r30
     b5c:	9f 91       	pop	r25
     b5e:	8f 91       	pop	r24
     b60:	4f 91       	pop	r20
     b62:	3f 91       	pop	r19
     b64:	2f 91       	pop	r18
     b66:	0f 90       	pop	r0
     b68:	0f be       	out	0x3f, r0	; 63
     b6a:	0f 90       	pop	r0
     b6c:	1f 90       	pop	r1
     b6e:	18 95       	reti

00000b70 <__vector_27>:
     b70:	1f 92       	push	r1
     b72:	0f 92       	push	r0
     b74:	0f b6       	in	r0, 0x3f	; 63
     b76:	0f 92       	push	r0
     b78:	11 24       	eor	r1, r1
     b7a:	8f 93       	push	r24
     b7c:	ef 93       	push	r30
     b7e:	ff 93       	push	r31
     b80:	80 91 37 38 	lds	r24, 0x3837	; 0x803837 <serRxDone>
     b84:	81 11       	cpse	r24, r1
     b86:	44 c0       	rjmp	.+136    	; 0xc10 <__vector_27+0xa0>
     b88:	ed b3       	in	r30, 0x1d	; 29
     b8a:	f0 e0       	ldi	r31, 0x00	; 0
     b8c:	80 91 00 08 	lds	r24, 0x0800	; 0x800800 <__TEXT_REGION_LENGTH__+0x700800>
     b90:	e7 5b       	subi	r30, 0xB7	; 183
     b92:	f5 4c       	sbci	r31, 0xC5	; 197
     b94:	80 83       	st	Z, r24
     b96:	ed b3       	in	r30, 0x1d	; 29
     b98:	f0 e0       	ldi	r31, 0x00	; 0
     b9a:	e7 5b       	subi	r30, 0xB7	; 183
     b9c:	f5 4c       	sbci	r31, 0xC5	; 197
     b9e:	80 81       	ld	r24, Z
     ba0:	80 93 02 08 	sts	0x0802, r24	; 0x800802 <__TEXT_REGION_LENGTH__+0x700802>
     ba4:	ed b3       	in	r30, 0x1d	; 29
     ba6:	f0 e0       	ldi	r31, 0x00	; 0
     ba8:	e7 5b       	subi	r30, 0xB7	; 183
     baa:	f5 4c       	sbci	r31, 0xC5	; 197
     bac:	80 81       	ld	r24, Z
     bae:	8a 30       	cpi	r24, 0x0A	; 10
     bb0:	39 f0       	breq	.+14     	; 0xbc0 <__vector_27+0x50>
     bb2:	ed b3       	in	r30, 0x1d	; 29
     bb4:	f0 e0       	ldi	r31, 0x00	; 0
     bb6:	e7 5b       	subi	r30, 0xB7	; 183
     bb8:	f5 4c       	sbci	r31, 0xC5	; 197
     bba:	80 81       	ld	r24, Z
     bbc:	8d 30       	cpi	r24, 0x0D	; 13
     bbe:	49 f4       	brne	.+18     	; 0xbd2 <__vector_27+0x62>
     bc0:	ed b3       	in	r30, 0x1d	; 29
     bc2:	f0 e0       	ldi	r31, 0x00	; 0
     bc4:	e7 5b       	subi	r30, 0xB7	; 183
     bc6:	f5 4c       	sbci	r31, 0xC5	; 197
     bc8:	10 82       	st	Z, r1
     bca:	81 e0       	ldi	r24, 0x01	; 1
     bcc:	80 93 37 38 	sts	0x3837, r24	; 0x803837 <serRxDone>
     bd0:	1f c0       	rjmp	.+62     	; 0xc10 <__vector_27+0xa0>
     bd2:	ed b3       	in	r30, 0x1d	; 29
     bd4:	f0 e0       	ldi	r31, 0x00	; 0
     bd6:	e7 5b       	subi	r30, 0xB7	; 183
     bd8:	f5 4c       	sbci	r31, 0xC5	; 197
     bda:	80 81       	ld	r24, Z
     bdc:	88 30       	cpi	r24, 0x08	; 8
     bde:	39 f0       	breq	.+14     	; 0xbee <__vector_27+0x7e>
     be0:	ed b3       	in	r30, 0x1d	; 29
     be2:	f0 e0       	ldi	r31, 0x00	; 0
     be4:	e7 5b       	subi	r30, 0xB7	; 183
     be6:	f5 4c       	sbci	r31, 0xC5	; 197
     be8:	80 81       	ld	r24, Z
     bea:	8f 37       	cpi	r24, 0x7F	; 127
     bec:	59 f4       	brne	.+22     	; 0xc04 <__vector_27+0x94>
     bee:	8d b3       	in	r24, 0x1d	; 29
     bf0:	88 23       	and	r24, r24
     bf2:	41 f0       	breq	.+16     	; 0xc04 <__vector_27+0x94>
     bf4:	ed b3       	in	r30, 0x1d	; 29
     bf6:	f0 e0       	ldi	r31, 0x00	; 0
     bf8:	e7 5b       	subi	r30, 0xB7	; 183
     bfa:	f5 4c       	sbci	r31, 0xC5	; 197
     bfc:	10 82       	st	Z, r1
     bfe:	8d b3       	in	r24, 0x1d	; 29
     c00:	81 50       	subi	r24, 0x01	; 1
     c02:	05 c0       	rjmp	.+10     	; 0xc0e <__vector_27+0x9e>
     c04:	8d b3       	in	r24, 0x1d	; 29
     c06:	80 34       	cpi	r24, 0x40	; 64
     c08:	18 f4       	brcc	.+6      	; 0xc10 <__vector_27+0xa0>
     c0a:	8d b3       	in	r24, 0x1d	; 29
     c0c:	8f 5f       	subi	r24, 0xFF	; 255
     c0e:	8d bb       	out	0x1d, r24	; 29
     c10:	80 e8       	ldi	r24, 0x80	; 128
     c12:	80 93 04 08 	sts	0x0804, r24	; 0x800804 <__TEXT_REGION_LENGTH__+0x700804>
     c16:	ff 91       	pop	r31
     c18:	ef 91       	pop	r30
     c1a:	8f 91       	pop	r24
     c1c:	0f 90       	pop	r0
     c1e:	0f be       	out	0x3f, r0	; 63
     c20:	0f 90       	pop	r0
     c22:	1f 90       	pop	r1
     c24:	18 95       	reti

00000c26 <__vector_28>:
     c26:	1f 92       	push	r1
     c28:	0f 92       	push	r0
     c2a:	0f b6       	in	r0, 0x3f	; 63
     c2c:	0f 92       	push	r0
     c2e:	11 24       	eor	r1, r1
     c30:	8f 93       	push	r24
     c32:	ef 93       	push	r30
     c34:	ff 93       	push	r31
     c36:	10 92 4a 0a 	sts	0x0A4A, r1	; 0x800a4a <__TEXT_REGION_LENGTH__+0x700a4a>
     c3a:	10 92 4b 0a 	sts	0x0A4B, r1	; 0x800a4b <__TEXT_REGION_LENGTH__+0x700a4b>
     c3e:	81 e0       	ldi	r24, 0x01	; 1
     c40:	80 93 45 0a 	sts	0x0A45, r24	; 0x800a45 <__TEXT_REGION_LENGTH__+0x700a45>
     c44:	e5 e0       	ldi	r30, 0x05	; 5
     c46:	f8 e0       	ldi	r31, 0x08	; 8
     c48:	80 81       	ld	r24, Z
     c4a:	8f 7d       	andi	r24, 0xDF	; 223
     c4c:	80 83       	st	Z, r24
     c4e:	ff 91       	pop	r31
     c50:	ef 91       	pop	r30
     c52:	8f 91       	pop	r24
     c54:	0f 90       	pop	r0
     c56:	0f be       	out	0x3f, r0	; 63
     c58:	0f 90       	pop	r0
     c5a:	1f 90       	pop	r1
     c5c:	18 95       	reti

00000c5e <__vector_20>:
     c5e:	1f 92       	push	r1
     c60:	0f 92       	push	r0
     c62:	0f b6       	in	r0, 0x3f	; 63
     c64:	0f 92       	push	r0
     c66:	11 24       	eor	r1, r1
     c68:	8f 93       	push	r24
     c6a:	9f 93       	push	r25
     c6c:	ef 93       	push	r30
     c6e:	ff 93       	push	r31
     c70:	80 91 2a 38 	lds	r24, 0x382A	; 0x80382a <adc0Chg>
     c74:	81 11       	cpse	r24, r1
     c76:	18 c0       	rjmp	.+48     	; 0xca8 <__vector_20+0x4a>
     c78:	8e b3       	in	r24, 0x1e	; 30
     c7a:	8f 5f       	subi	r24, 0xFF	; 255
     c7c:	8f 71       	andi	r24, 0x1F	; 31
     c7e:	8e bb       	out	0x1e, r24	; 30
     c80:	80 91 06 06 	lds	r24, 0x0606	; 0x800606 <__TEXT_REGION_LENGTH__+0x700606>
     c84:	8e 31       	cpi	r24, 0x1E	; 30
     c86:	41 f4       	brne	.+16     	; 0xc98 <__vector_20+0x3a>
     c88:	80 91 10 06 	lds	r24, 0x0610	; 0x800610 <__TEXT_REGION_LENGTH__+0x700610>
     c8c:	90 e0       	ldi	r25, 0x00	; 0
     c8e:	80 93 e1 3a 	sts	0x3AE1, r24	; 0x803ae1 <adcTemp>
     c92:	90 93 e2 3a 	sts	0x3AE2, r25	; 0x803ae2 <adcTemp+0x1>
     c96:	0a c0       	rjmp	.+20     	; 0xcac <__vector_20+0x4e>
     c98:	ee b3       	in	r30, 0x1e	; 30
     c9a:	f0 e0       	ldi	r31, 0x00	; 0
     c9c:	80 91 10 06 	lds	r24, 0x0610	; 0x800610 <__TEXT_REGION_LENGTH__+0x700610>
     ca0:	ea 56       	subi	r30, 0x6A	; 106
     ca2:	f5 4c       	sbci	r31, 0xC5	; 197
     ca4:	80 83       	st	Z, r24
     ca6:	02 c0       	rjmp	.+4      	; 0xcac <__vector_20+0x4e>
     ca8:	10 92 2a 38 	sts	0x382A, r1	; 0x80382a <adc0Chg>
     cac:	81 e0       	ldi	r24, 0x01	; 1
     cae:	80 93 0b 06 	sts	0x060B, r24	; 0x80060b <__TEXT_REGION_LENGTH__+0x70060b>
     cb2:	ff 91       	pop	r31
     cb4:	ef 91       	pop	r30
     cb6:	9f 91       	pop	r25
     cb8:	8f 91       	pop	r24
     cba:	0f 90       	pop	r0
     cbc:	0f be       	out	0x3f, r0	; 63
     cbe:	0f 90       	pop	r0
     cc0:	1f 90       	pop	r1
     cc2:	18 95       	reti

00000cc4 <__vector_22>:
     cc4:	1f 92       	push	r1
     cc6:	0f 92       	push	r0
     cc8:	0f b6       	in	r0, 0x3f	; 63
     cca:	0f 92       	push	r0
     ccc:	11 24       	eor	r1, r1
     cce:	8f 93       	push	r24
     cd0:	9f 93       	push	r25
     cd2:	80 91 46 06 	lds	r24, 0x0646	; 0x800646 <__TEXT_REGION_LENGTH__+0x700646>
     cd6:	81 11       	cpse	r24, r1
     cd8:	0a c0       	rjmp	.+20     	; 0xcee <__vector_22+0x2a>
     cda:	80 91 50 06 	lds	r24, 0x0650	; 0x800650 <__TEXT_REGION_LENGTH__+0x700650>
     cde:	90 91 51 06 	lds	r25, 0x0651	; 0x800651 <__TEXT_REGION_LENGTH__+0x700651>
     ce2:	80 93 91 3a 	sts	0x3A91, r24	; 0x803a91 <adcPhot>
     ce6:	90 93 92 3a 	sts	0x3A92, r25	; 0x803a92 <adcPhot+0x1>
     cea:	81 e0       	ldi	r24, 0x01	; 1
     cec:	10 c0       	rjmp	.+32     	; 0xd0e <__vector_22+0x4a>
     cee:	80 91 46 06 	lds	r24, 0x0646	; 0x800646 <__TEXT_REGION_LENGTH__+0x700646>
     cf2:	81 30       	cpi	r24, 0x01	; 1
     cf4:	79 f4       	brne	.+30     	; 0xd14 <__vector_22+0x50>
     cf6:	88 e0       	ldi	r24, 0x08	; 8
     cf8:	80 93 06 04 	sts	0x0406, r24	; 0x800406 <__TEXT_REGION_LENGTH__+0x700406>
     cfc:	80 91 50 06 	lds	r24, 0x0650	; 0x800650 <__TEXT_REGION_LENGTH__+0x700650>
     d00:	90 91 51 06 	lds	r25, 0x0651	; 0x800651 <__TEXT_REGION_LENGTH__+0x700651>
     d04:	80 93 8f 3a 	sts	0x3A8F, r24	; 0x803a8f <adcHall>
     d08:	90 93 90 3a 	sts	0x3A90, r25	; 0x803a90 <adcHall+0x1>
     d0c:	84 e0       	ldi	r24, 0x04	; 4
     d0e:	80 93 46 06 	sts	0x0646, r24	; 0x800646 <__TEXT_REGION_LENGTH__+0x700646>
     d12:	10 c0       	rjmp	.+32     	; 0xd34 <__vector_22+0x70>
     d14:	80 91 50 06 	lds	r24, 0x0650	; 0x800650 <__TEXT_REGION_LENGTH__+0x700650>
     d18:	90 91 51 06 	lds	r25, 0x0651	; 0x800651 <__TEXT_REGION_LENGTH__+0x700651>
     d1c:	80 93 8b 3a 	sts	0x3A8B, r24	; 0x803a8b <adcBtns>
     d20:	90 93 8c 3a 	sts	0x3A8C, r25	; 0x803a8c <adcBtns+0x1>
     d24:	8f b3       	in	r24, 0x1f	; 31
     d26:	8f 30       	cpi	r24, 0x0F	; 15
     d28:	29 f4       	brne	.+10     	; 0xd34 <__vector_22+0x70>
     d2a:	10 92 46 06 	sts	0x0646, r1	; 0x800646 <__TEXT_REGION_LENGTH__+0x700646>
     d2e:	88 e0       	ldi	r24, 0x08	; 8
     d30:	80 93 05 04 	sts	0x0405, r24	; 0x800405 <__TEXT_REGION_LENGTH__+0x700405>
     d34:	8f b3       	in	r24, 0x1f	; 31
     d36:	90 e0       	ldi	r25, 0x00	; 0
     d38:	01 96       	adiw	r24, 0x01	; 1
     d3a:	8f 70       	andi	r24, 0x0F	; 15
     d3c:	99 27       	eor	r25, r25
     d3e:	8f bb       	out	0x1f, r24	; 31
     d40:	81 e0       	ldi	r24, 0x01	; 1
     d42:	80 93 4b 06 	sts	0x064B, r24	; 0x80064b <__TEXT_REGION_LENGTH__+0x70064b>
     d46:	9f 91       	pop	r25
     d48:	8f 91       	pop	r24
     d4a:	0f 90       	pop	r0
     d4c:	0f be       	out	0x3f, r0	; 63
     d4e:	0f 90       	pop	r0
     d50:	1f 90       	pop	r1
     d52:	18 95       	reti

00000d54 <__vector_6>:
     d54:	1f 92       	push	r1
     d56:	0f 92       	push	r0
     d58:	0f b6       	in	r0, 0x3f	; 63
     d5a:	0f 92       	push	r0
     d5c:	11 24       	eor	r1, r1
     d5e:	5f 93       	push	r21
     d60:	6f 93       	push	r22
     d62:	7f 93       	push	r23
     d64:	8f 93       	push	r24
     d66:	9f 93       	push	r25
     d68:	af 93       	push	r26
     d6a:	bf 93       	push	r27
     d6c:	80 91 43 01 	lds	r24, 0x0143	; 0x800143 <__TEXT_REGION_LENGTH__+0x700143>
     d70:	81 ff       	sbrs	r24, 1
     d72:	26 c0       	rjmp	.+76     	; 0xdc0 <__vector_6+0x6c>
     d74:	80 91 35 38 	lds	r24, 0x3835	; 0x803835 <buttonMark>
     d78:	8f 3f       	cpi	r24, 0xFF	; 255
     d7a:	29 f0       	breq	.+10     	; 0xd86 <__vector_6+0x32>
     d7c:	80 91 35 38 	lds	r24, 0x3835	; 0x803835 <buttonMark>
     d80:	8f 5f       	subi	r24, 0xFF	; 255
     d82:	80 93 35 38 	sts	0x3835, r24	; 0x803835 <buttonMark>
     d86:	80 91 48 01 	lds	r24, 0x0148	; 0x800148 <__TEXT_REGION_LENGTH__+0x700148>
     d8a:	90 91 49 01 	lds	r25, 0x0149	; 0x800149 <__TEXT_REGION_LENGTH__+0x700149>
     d8e:	60 91 4a 01 	lds	r22, 0x014A	; 0x80014a <__TEXT_REGION_LENGTH__+0x70014a>
     d92:	70 91 4b 01 	lds	r23, 0x014B	; 0x80014b <__TEXT_REGION_LENGTH__+0x70014b>
     d96:	82 96       	adiw	r24, 0x22	; 34
     d98:	0e 94 42 19 	call	0x3284	; 0x3284 <__udivmodhi4>
     d9c:	80 93 e3 3a 	sts	0x3AE3, r24	; 0x803ae3 <tmp16bit>
     da0:	90 93 e4 3a 	sts	0x3AE4, r25	; 0x803ae4 <tmp16bit+0x1>
     da4:	80 91 41 01 	lds	r24, 0x0141	; 0x800141 <__TEXT_REGION_LENGTH__+0x700141>
     da8:	83 fd       	sbrc	r24, 3
     daa:	fc cf       	rjmp	.-8      	; 0xda4 <__vector_6+0x50>
     dac:	80 91 e3 3a 	lds	r24, 0x3AE3	; 0x803ae3 <tmp16bit>
     db0:	90 91 e4 3a 	lds	r25, 0x3AE4	; 0x803ae4 <tmp16bit+0x1>
     db4:	80 93 4c 01 	sts	0x014C, r24	; 0x80014c <__TEXT_REGION_LENGTH__+0x70014c>
     db8:	90 93 4d 01 	sts	0x014D, r25	; 0x80014d <__TEXT_REGION_LENGTH__+0x70014d>
     dbc:	82 e0       	ldi	r24, 0x02	; 2
     dbe:	06 c0       	rjmp	.+12     	; 0xdcc <__vector_6+0x78>
     dc0:	80 91 36 38 	lds	r24, 0x3836	; 0x803836 <minuteMark>
     dc4:	8f 5f       	subi	r24, 0xFF	; 255
     dc6:	80 93 36 38 	sts	0x3836, r24	; 0x803836 <minuteMark>
     dca:	81 e0       	ldi	r24, 0x01	; 1
     dcc:	80 93 43 01 	sts	0x0143, r24	; 0x800143 <__TEXT_REGION_LENGTH__+0x700143>
     dd0:	bf 91       	pop	r27
     dd2:	af 91       	pop	r26
     dd4:	9f 91       	pop	r25
     dd6:	8f 91       	pop	r24
     dd8:	7f 91       	pop	r23
     dda:	6f 91       	pop	r22
     ddc:	5f 91       	pop	r21
     dde:	0f 90       	pop	r0
     de0:	0f be       	out	0x3f, r0	; 63
     de2:	0f 90       	pop	r0
     de4:	1f 90       	pop	r1
     de6:	18 95       	reti

00000de8 <__vector_7>:
     de8:	1f 92       	push	r1
     dea:	0f 92       	push	r0
     dec:	0f b6       	in	r0, 0x3f	; 63
     dee:	0f 92       	push	r0
     df0:	11 24       	eor	r1, r1
     df2:	8f 93       	push	r24
     df4:	81 e0       	ldi	r24, 0x01	; 1
     df6:	80 93 48 06 	sts	0x0648, r24	; 0x800648 <__TEXT_REGION_LENGTH__+0x700648>
     dfa:	80 93 53 01 	sts	0x0153, r24	; 0x800153 <__TEXT_REGION_LENGTH__+0x700153>
     dfe:	8f 91       	pop	r24
     e00:	0f 90       	pop	r0
     e02:	0f be       	out	0x3f, r0	; 63
     e04:	0f 90       	pop	r0
     e06:	1f 90       	pop	r1
     e08:	18 95       	reti

00000e0a <EERead>:
     e0a:	90 91 02 10 	lds	r25, 0x1002	; 0x801002 <__TEXT_REGION_LENGTH__+0x701002>
     e0e:	91 fd       	sbrc	r25, 1
     e10:	fc cf       	rjmp	.-8      	; 0xe0a <EERead>
     e12:	fb 01       	movw	r30, r22
     e14:	48 0f       	add	r20, r24
     e16:	84 17       	cp	r24, r20
     e18:	39 f0       	breq	.+14     	; 0xe28 <EERead+0x1e>
     e1a:	a8 2f       	mov	r26, r24
     e1c:	b0 e0       	ldi	r27, 0x00	; 0
     e1e:	bc 5e       	subi	r27, 0xEC	; 236
     e20:	9c 91       	ld	r25, X
     e22:	91 93       	st	Z+, r25
     e24:	8f 5f       	subi	r24, 0xFF	; 255
     e26:	f7 cf       	rjmp	.-18     	; 0xe16 <EERead+0xc>
     e28:	08 95       	ret

00000e2a <EEWrite>:
     e2a:	9d e9       	ldi	r25, 0x9D	; 157
     e2c:	24 e0       	ldi	r18, 0x04	; 4
     e2e:	33 e0       	ldi	r19, 0x03	; 3
     e30:	44 23       	and	r20, r20
     e32:	09 f1       	breq	.+66     	; 0xe76 <EEWrite+0x4c>
     e34:	50 91 02 10 	lds	r21, 0x1002	; 0x801002 <__TEXT_REGION_LENGTH__+0x701002>
     e38:	51 fd       	sbrc	r21, 1
     e3a:	fc cf       	rjmp	.-8      	; 0xe34 <EEWrite+0xa>
     e3c:	94 bf       	out	0x34, r25	; 52
     e3e:	20 93 00 10 	sts	0x1000, r18	; 0x801000 <__TEXT_REGION_LENGTH__+0x701000>
     e42:	e8 2f       	mov	r30, r24
     e44:	58 2f       	mov	r21, r24
     e46:	5f 71       	andi	r21, 0x1F	; 31
     e48:	8f 5f       	subi	r24, 0xFF	; 255
     e4a:	6f 5f       	subi	r22, 0xFF	; 255
     e4c:	7f 4f       	sbci	r23, 0xFF	; 255
     e4e:	db 01       	movw	r26, r22
     e50:	11 97       	sbiw	r26, 0x01	; 1
     e52:	ac 91       	ld	r26, X
     e54:	f0 e0       	ldi	r31, 0x00	; 0
     e56:	fc 5e       	subi	r31, 0xEC	; 236
     e58:	a0 83       	st	Z, r26
     e5a:	41 50       	subi	r20, 0x01	; 1
     e5c:	19 f0       	breq	.+6      	; 0xe64 <EEWrite+0x3a>
     e5e:	e8 2f       	mov	r30, r24
     e60:	5f 31       	cpi	r21, 0x1F	; 31
     e62:	81 f7       	brne	.-32     	; 0xe44 <EEWrite+0x1a>
     e64:	94 bf       	out	0x34, r25	; 52
     e66:	30 93 00 10 	sts	0x1000, r19	; 0x801000 <__TEXT_REGION_LENGTH__+0x701000>
     e6a:	50 91 02 10 	lds	r21, 0x1002	; 0x801002 <__TEXT_REGION_LENGTH__+0x701002>
     e6e:	52 ff       	sbrs	r21, 2
     e70:	df cf       	rjmp	.-66     	; 0xe30 <EEWrite+0x6>
     e72:	81 e0       	ldi	r24, 0x01	; 1
     e74:	08 95       	ret
     e76:	80 e0       	ldi	r24, 0x00	; 0
     e78:	08 95       	ret

00000e7a <SerSend>:
     e7a:	20 91 08 38 	lds	r18, 0x3808	; 0x803808 <serTxDone>
     e7e:	22 23       	and	r18, r18
     e80:	59 f0       	breq	.+22     	; 0xe98 <SerSend+0x1e>
     e82:	80 93 8d 3a 	sts	0x3A8D, r24	; 0x803a8d <serTxAddr>
     e86:	90 93 8e 3a 	sts	0x3A8E, r25	; 0x803a8e <serTxAddr+0x1>
     e8a:	10 92 08 38 	sts	0x3808, r1	; 0x803808 <serTxDone>
     e8e:	81 e0       	ldi	r24, 0x01	; 1
     e90:	80 93 45 0a 	sts	0x0A45, r24	; 0x800a45 <__TEXT_REGION_LENGTH__+0x700a45>
     e94:	80 e0       	ldi	r24, 0x00	; 0
     e96:	08 95       	ret
     e98:	81 e0       	ldi	r24, 0x01	; 1
     e9a:	08 95       	ret

00000e9c <SerSpeed>:
     e9c:	28 2f       	mov	r18, r24
     e9e:	81 11       	cpse	r24, r1
     ea0:	01 c0       	rjmp	.+2      	; 0xea4 <SerSpeed+0x8>
     ea2:	21 e0       	ldi	r18, 0x01	; 1
     ea4:	8f ef       	ldi	r24, 0xFF	; 255
     ea6:	90 e0       	ldi	r25, 0x00	; 0
     ea8:	82 1b       	sub	r24, r18
     eaa:	91 09       	sbc	r25, r1
     eac:	98 2f       	mov	r25, r24
     eae:	88 27       	eor	r24, r24
     eb0:	81 50       	subi	r24, 0x01	; 1
     eb2:	9f 4f       	sbci	r25, 0xFF	; 255
     eb4:	80 93 4c 0a 	sts	0x0A4C, r24	; 0x800a4c <__TEXT_REGION_LENGTH__+0x700a4c>
     eb8:	90 93 4d 0a 	sts	0x0A4D, r25	; 0x800a4d <__TEXT_REGION_LENGTH__+0x700a4d>
     ebc:	08 95       	ret

00000ebe <CheckButtons>:
};

// Returns button combination (4LSB) and number of consecutive times this combination is detected. First read should always be ignored! 
uint8_t CheckButtons(uint8_t previousValue){
    uint8_t bADC = (uint8_t)(adcBtns>>4);
     ebe:	20 91 8b 3a 	lds	r18, 0x3A8B	; 0x803a8b <adcBtns>
     ec2:	30 91 8c 3a 	lds	r19, 0x3A8C	; 0x803a8c <adcBtns+0x1>
    uint8_t bNibble = 0x0F;     //MSB to LSB: Bottom left, top left, top right, bottom right, 0F is error
    
    switch(bADC){
     ec6:	94 e0       	ldi	r25, 0x04	; 4
     ec8:	36 95       	lsr	r19
     eca:	27 95       	ror	r18
     ecc:	9a 95       	dec	r25
     ece:	e1 f7       	brne	.-8      	; 0xec8 <CheckButtons+0xa>
     ed0:	33 27       	eor	r19, r19
     ed2:	2c 35       	cpi	r18, 0x5C	; 92
     ed4:	31 05       	cpc	r19, r1
     ed6:	d0 f4       	brcc	.+52     	; 0xf0c <CheckButtons+0x4e>
     ed8:	23 35       	cpi	r18, 0x53	; 83
     eda:	31 05       	cpc	r19, r1
     edc:	a8 f5       	brcc	.+106    	; 0xf48 <CheckButtons+0x8a>
     ede:	22 33       	cpi	r18, 0x32	; 50
     ee0:	31 05       	cpc	r19, r1
     ee2:	50 f4       	brcc	.+20     	; 0xef8 <CheckButtons+0x3a>
     ee4:	2d 32       	cpi	r18, 0x2D	; 45
     ee6:	31 05       	cpc	r19, r1
     ee8:	58 f5       	brcc	.+86     	; 0xf40 <CheckButtons+0x82>
     eea:	23 52       	subi	r18, 0x23	; 35
     eec:	31 09       	sbc	r19, r1
     eee:	25 30       	cpi	r18, 0x05	; 5
     ef0:	31 05       	cpc	r19, r1
     ef2:	80 f5       	brcc	.+96     	; 0xf54 <CheckButtons+0x96>

        case 35 ... 39:          //37: Both left
        bNibble = 0b1100;
     ef4:	9c e0       	ldi	r25, 0x0C	; 12
     ef6:	2f c0       	rjmp	.+94     	; 0xf56 <CheckButtons+0x98>
// Returns button combination (4LSB) and number of consecutive times this combination is detected. First read should always be ignored! 
uint8_t CheckButtons(uint8_t previousValue){
    uint8_t bADC = (uint8_t)(adcBtns>>4);
    uint8_t bNibble = 0x0F;     //MSB to LSB: Bottom left, top left, top right, bottom right, 0F is error
    
    switch(bADC){
     ef8:	27 33       	cpi	r18, 0x37	; 55
     efa:	31 05       	cpc	r19, r1
     efc:	18 f1       	brcs	.+70     	; 0xf44 <CheckButtons+0x86>
     efe:	2e 53       	subi	r18, 0x3E	; 62
     f00:	31 09       	sbc	r19, r1
     f02:	27 30       	cpi	r18, 0x07	; 7
     f04:	31 05       	cpc	r19, r1
     f06:	30 f5       	brcc	.+76     	; 0xf54 <CheckButtons+0x96>
        case 50 ... 54:          //52: Bottom left
        bNibble = 0b1000;
        break;

        case 62 ... 68:          //65: Both top
        bNibble = 0b0110;
     f08:	96 e0       	ldi	r25, 0x06	; 6
        break;
     f0a:	25 c0       	rjmp	.+74     	; 0xf56 <CheckButtons+0x98>
// Returns button combination (4LSB) and number of consecutive times this combination is detected. First read should always be ignored! 
uint8_t CheckButtons(uint8_t previousValue){
    uint8_t bADC = (uint8_t)(adcBtns>>4);
    uint8_t bNibble = 0x0F;     //MSB to LSB: Bottom left, top left, top right, bottom right, 0F is error
    
    switch(bADC){
     f0c:	2a 38       	cpi	r18, 0x8A	; 138
     f0e:	31 05       	cpc	r19, r1
     f10:	50 f4       	brcc	.+20     	; 0xf26 <CheckButtons+0x68>
     f12:	29 37       	cpi	r18, 0x79	; 121
     f14:	31 05       	cpc	r19, r1
     f16:	d0 f4       	brcc	.+52     	; 0xf4c <CheckButtons+0x8e>
     f18:	23 56       	subi	r18, 0x63	; 99
     f1a:	31 09       	sbc	r19, r1
     f1c:	2b 30       	cpi	r18, 0x0B	; 11
     f1e:	31 05       	cpc	r19, r1
     f20:	c8 f4       	brcc	.+50     	; 0xf54 <CheckButtons+0x96>
        case 83 ... 91:          //87: Top left
        bNibble = 0b0100;
        break;

        case 99 ... 109:         //104: Both right
        bNibble = 0b0011;
     f22:	93 e0       	ldi	r25, 0x03	; 3
        break;
     f24:	18 c0       	rjmp	.+48     	; 0xf56 <CheckButtons+0x98>
// Returns button combination (4LSB) and number of consecutive times this combination is detected. First read should always be ignored! 
uint8_t CheckButtons(uint8_t previousValue){
    uint8_t bADC = (uint8_t)(adcBtns>>4);
    uint8_t bNibble = 0x0F;     //MSB to LSB: Bottom left, top left, top right, bottom right, 0F is error
    
    switch(bADC){
     f26:	22 3a       	cpi	r18, 0xA2	; 162
     f28:	31 05       	cpc	r19, r1
     f2a:	a0 f0       	brcs	.+40     	; 0xf54 <CheckButtons+0x96>
     f2c:	2b 3b       	cpi	r18, 0xBB	; 187
     f2e:	31 05       	cpc	r19, r1
     f30:	78 f0       	brcs	.+30     	; 0xf50 <CheckButtons+0x92>
     f32:	20 5f       	subi	r18, 0xF0	; 240
     f34:	31 09       	sbc	r19, r1
     f36:	20 31       	cpi	r18, 0x10	; 16
     f38:	31 05       	cpc	r19, r1
     f3a:	60 f4       	brcc	.+24     	; 0xf54 <CheckButtons+0x96>
        case 162 ... 186:        //174: Bottom right
        bNibble = 0b0001;
        break;

        case 240 ... 255:        //255: No button pressed
        bNibble = 0b0000;
     f3c:	90 e0       	ldi	r25, 0x00	; 0
        break;
     f3e:	0b c0       	rjmp	.+22     	; 0xf56 <CheckButtons+0x98>
        case 35 ... 39:          //37: Both left
        bNibble = 0b1100;
        break;

        case 45 ... 49:          //47: Both bottom
        bNibble = 0b1001;
     f40:	99 e0       	ldi	r25, 0x09	; 9
        break;
     f42:	09 c0       	rjmp	.+18     	; 0xf56 <CheckButtons+0x98>

        case 50 ... 54:          //52: Bottom left
        bNibble = 0b1000;
     f44:	98 e0       	ldi	r25, 0x08	; 8
        break;
     f46:	07 c0       	rjmp	.+14     	; 0xf56 <CheckButtons+0x98>
        case 62 ... 68:          //65: Both top
        bNibble = 0b0110;
        break;

        case 83 ... 91:          //87: Top left
        bNibble = 0b0100;
     f48:	94 e0       	ldi	r25, 0x04	; 4
        break;
     f4a:	05 c0       	rjmp	.+10     	; 0xf56 <CheckButtons+0x98>
        case 99 ... 109:         //104: Both right
        bNibble = 0b0011;
        break;

        case 121 ... 137:        //129: Top right
        bNibble = 0b0010;
     f4c:	92 e0       	ldi	r25, 0x02	; 2
        break;
     f4e:	03 c0       	rjmp	.+6      	; 0xf56 <CheckButtons+0x98>

        case 162 ... 186:        //174: Bottom right
        bNibble = 0b0001;
     f50:	91 e0       	ldi	r25, 0x01	; 1
        break;
     f52:	01 c0       	rjmp	.+2      	; 0xf56 <CheckButtons+0x98>
};

// Returns button combination (4LSB) and number of consecutive times this combination is detected. First read should always be ignored! 
uint8_t CheckButtons(uint8_t previousValue){
    uint8_t bADC = (uint8_t)(adcBtns>>4);
    uint8_t bNibble = 0x0F;     //MSB to LSB: Bottom left, top left, top right, bottom right, 0F is error
     f54:	9f e0       	ldi	r25, 0x0F	; 15
        case 240 ... 255:        //255: No button pressed
        bNibble = 0b0000;
        break;
    }

    if ((previousValue&0x0F)==bNibble){
     f56:	28 2f       	mov	r18, r24
     f58:	2f 70       	andi	r18, 0x0F	; 15
     f5a:	92 13       	cpse	r25, r18
     f5c:	06 c0       	rjmp	.+12     	; 0xf6a <CheckButtons+0xac>
        if ((previousValue&0xF0) < 0xF0) previousValue += 0x10; //Same value? Increase time nibble
     f5e:	98 2f       	mov	r25, r24
     f60:	90 7f       	andi	r25, 0xF0	; 240
     f62:	90 3f       	cpi	r25, 0xF0	; 240
     f64:	39 f0       	breq	.+14     	; 0xf74 <CheckButtons+0xb6>
     f66:	80 5f       	subi	r24, 0xF0	; 240
     f68:	08 95       	ret
        return previousValue;       
    } else if (bNibble == 0) return 0xFF; //Buttons released, 0xFF triggers readout, previousValue holds last button value.
     f6a:	99 23       	and	r25, r25
     f6c:	11 f0       	breq	.+4      	; 0xf72 <CheckButtons+0xb4>
     f6e:	89 2f       	mov	r24, r25
     f70:	08 95       	ret
     f72:	8f ef       	ldi	r24, 0xFF	; 255
              else return bNibble;  //New value  
}
     f74:	08 95       	ret

00000f76 <lfsr>:

uint8_t lfsr(){
    static uint16_t state = 0xd401;
    state ^= (state << 13);
     f76:	80 91 1d 38 	lds	r24, 0x381D	; 0x80381d <state.3877>
     f7a:	90 91 1e 38 	lds	r25, 0x381E	; 0x80381e <state.3877+0x1>
     f7e:	9c 01       	movw	r18, r24
     f80:	32 2f       	mov	r19, r18
     f82:	22 27       	eor	r18, r18
     f84:	32 95       	swap	r19
     f86:	33 0f       	add	r19, r19
     f88:	30 7e       	andi	r19, 0xE0	; 224
     f8a:	82 27       	eor	r24, r18
     f8c:	93 27       	eor	r25, r19
    state ^= (state >> 9);
     f8e:	9c 01       	movw	r18, r24
     f90:	23 2f       	mov	r18, r19
     f92:	33 27       	eor	r19, r19
     f94:	26 95       	lsr	r18
     f96:	82 27       	eor	r24, r18
     f98:	93 27       	eor	r25, r19
    state ^= (state << 7);
     f9a:	9c 01       	movw	r18, r24
     f9c:	36 95       	lsr	r19
     f9e:	32 2f       	mov	r19, r18
     fa0:	22 27       	eor	r18, r18
     fa2:	37 95       	ror	r19
     fa4:	27 95       	ror	r18
     fa6:	82 27       	eor	r24, r18
     fa8:	93 27       	eor	r25, r19
     faa:	80 93 1d 38 	sts	0x381D, r24	; 0x80381d <state.3877>
     fae:	90 93 1e 38 	sts	0x381E, r25	; 0x80381e <state.3877+0x1>
    return (state & 0xff);
}
     fb2:	08 95       	ret

00000fb4 <floatSpeed>:

void floatSpeed(uint8_t bits, uint16_t min, uint16_t max){
     fb4:	df 92       	push	r13
     fb6:	ef 92       	push	r14
     fb8:	ff 92       	push	r15
     fba:	0f 93       	push	r16
     fbc:	1f 93       	push	r17
     fbe:	cf 93       	push	r28
     fc0:	df 93       	push	r29
     fc2:	7b 01       	movw	r14, r22
     fc4:	8a 01       	movw	r16, r20
    uint16_t val = TCB1_CCMP;
     fc6:	c0 91 5c 0a 	lds	r28, 0x0A5C	; 0x800a5c <__TEXT_REGION_LENGTH__+0x700a5c>
     fca:	d0 91 5d 0a 	lds	r29, 0x0A5D	; 0x800a5d <__TEXT_REGION_LENGTH__+0x700a5d>
    bits = mask[(bits-1)&0x07];
     fce:	e8 2f       	mov	r30, r24
     fd0:	f0 e0       	ldi	r31, 0x00	; 0
     fd2:	31 97       	sbiw	r30, 0x01	; 1
     fd4:	e7 70       	andi	r30, 0x07	; 7
     fd6:	ff 27       	eor	r31, r31
     fd8:	e1 5e       	subi	r30, 0xE1	; 225
     fda:	f7 4c       	sbci	r31, 0xC7	; 199
     fdc:	d0 80       	ld	r13, Z
    val += (lfsr()&bits);
     fde:	cb df       	rcall	.-106    	; 0xf76 <lfsr>
     fe0:	8d 21       	and	r24, r13
     fe2:	c8 0f       	add	r28, r24
     fe4:	d1 1d       	adc	r29, r1
    val -= (lfsr()&bits);
     fe6:	c7 df       	rcall	.-114    	; 0xf76 <lfsr>
     fe8:	8d 21       	and	r24, r13
     fea:	c8 1b       	sub	r28, r24
     fec:	d1 09       	sbc	r29, r1
     fee:	0c 17       	cp	r16, r28
     ff0:	1d 07       	cpc	r17, r29
     ff2:	08 f4       	brcc	.+2      	; 0xff6 <floatSpeed+0x42>
     ff4:	e8 01       	movw	r28, r16
     ff6:	c7 01       	movw	r24, r14
     ff8:	ec 16       	cp	r14, r28
     ffa:	fd 06       	cpc	r15, r29
     ffc:	08 f4       	brcc	.+2      	; 0x1000 <floatSpeed+0x4c>
     ffe:	ce 01       	movw	r24, r28
    1000:	80 93 5c 0a 	sts	0x0A5C, r24	; 0x800a5c <__TEXT_REGION_LENGTH__+0x700a5c>
    if (val > max) val = max;    //0x038B is normal rate, for wind we need to be a bit slower
    if (val < min) val = min;  
    TCB1_CCMP = val;
    1004:	90 93 5d 0a 	sts	0x0A5D, r25	; 0x800a5d <__TEXT_REGION_LENGTH__+0x700a5d>
    1008:	df 91       	pop	r29
}
    100a:	cf 91       	pop	r28
    100c:	1f 91       	pop	r17
    100e:	0f 91       	pop	r16
    1010:	ff 90       	pop	r15
    1012:	ef 90       	pop	r14
    1014:	df 90       	pop	r13
    1016:	08 95       	ret

00001018 <floatAround>:
    1018:	0f 93       	push	r16

uint8_t floatAround(uint8_t sample, uint8_t bits, uint8_t min, uint8_t max){
    101a:	1f 93       	push	r17
    101c:	cf 93       	push	r28
    101e:	df 93       	push	r29
    1020:	c8 2f       	mov	r28, r24
    1022:	04 2f       	mov	r16, r20
    1024:	12 2f       	mov	r17, r18
    bits = mask[(bits-1)&0x07];
    1026:	e6 2f       	mov	r30, r22
    1028:	f0 e0       	ldi	r31, 0x00	; 0
    102a:	31 97       	sbiw	r30, 0x01	; 1
    102c:	e7 70       	andi	r30, 0x07	; 7
    102e:	ff 27       	eor	r31, r31
    1030:	e1 5e       	subi	r30, 0xE1	; 225
    1032:	f7 4c       	sbci	r31, 0xC7	; 199
    1034:	d0 81       	ld	r29, Z
    sample += lfsr()&bits;
    1036:	9f df       	rcall	.-194    	; 0xf76 <lfsr>
    1038:	8d 23       	and	r24, r29
    103a:	c8 0f       	add	r28, r24
    sample -= lfsr()&bits;
    103c:	9c df       	rcall	.-200    	; 0xf76 <lfsr>
    103e:	8d 23       	and	r24, r29
    1040:	c8 1b       	sub	r28, r24
    1042:	8c 2f       	mov	r24, r28
    1044:	11 23       	and	r17, r17
    if (max){
    1046:	41 f0       	breq	.+16     	; 0x1058 <floatAround+0x40>
    1048:	9c 2f       	mov	r25, r28
    104a:	1c 17       	cp	r17, r28
    104c:	08 f4       	brcc	.+2      	; 0x1050 <floatAround+0x38>
    104e:	91 2f       	mov	r25, r17
    1050:	80 2f       	mov	r24, r16
    1052:	09 17       	cp	r16, r25
    1054:	08 f4       	brcc	.+2      	; 0x1058 <floatAround+0x40>
    1056:	89 2f       	mov	r24, r25
    1058:	df 91       	pop	r29
        if (sample > max) sample = max;
        if (sample < min) sample = min;
    }
    return sample;
}
    105a:	cf 91       	pop	r28
    105c:	1f 91       	pop	r17
    105e:	0f 91       	pop	r16
    1060:	08 95       	ret

00001062 <SaveGameState>:
    1062:	cf 92       	push	r12

//Save changed data to EEPROM
uint8_t SaveGameState(){
    1064:	df 92       	push	r13
    1066:	ff 92       	push	r15
    1068:	0f 93       	push	r16
    106a:	1f 93       	push	r17
    106c:	cf 93       	push	r28
    106e:	df 93       	push	r29
    1070:	cd b7       	in	r28, 0x3d	; 61
    1072:	de b7       	in	r29, 0x3e	; 62
    1074:	64 97       	sbiw	r28, 0x14	; 20
    1076:	cd bf       	out	0x3d, r28	; 61
    1078:	de bf       	out	0x3e, r29	; 62
    uint8_t gameCheck[BOOTCHK];

    //Read all data up to the boot/check result address from EEPROM
    EERead(0, &gameCheck[0], BOOTCHK);
    107a:	44 e1       	ldi	r20, 0x14	; 20
    107c:	be 01       	movw	r22, r28
    107e:	6f 5f       	subi	r22, 0xFF	; 255
    1080:	7f 4f       	sbci	r23, 0xFF	; 255
    1082:	80 e0       	ldi	r24, 0x00	; 0
    1084:	c2 de       	rcall	.-636    	; 0xe0a <EERead>
    1086:	85 e3       	ldi	r24, 0x35	; 53
    1088:	c8 2e       	mov	r12, r24
    108a:	8a e3       	ldi	r24, 0x3A	; 58
    108c:	d8 2e       	mov	r13, r24
    108e:	8e 01       	movw	r16, r28
    1090:	0f 5f       	subi	r16, 0xFF	; 255
    1092:	1f 4f       	sbci	r17, 0xFF	; 255

    //Check game status bits
    for (uint8_t x=0; x<STATLEN; ++x){
    1094:	f1 2c       	mov	r15, r1
        if (gameState[x] != gameCheck[x]){
    1096:	f8 01       	movw	r30, r16
    1098:	81 91       	ld	r24, Z+
    109a:	8f 01       	movw	r16, r30
    109c:	f6 01       	movw	r30, r12
    109e:	90 81       	ld	r25, Z
    10a0:	98 13       	cpse	r25, r24
    10a2:	08 c0       	rjmp	.+16     	; 0x10b4 <SaveGameState+0x52>

    //Read all data up to the boot/check result address from EEPROM
    EERead(0, &gameCheck[0], BOOTCHK);

    //Check game status bits
    for (uint8_t x=0; x<STATLEN; ++x){
    10a4:	f3 94       	inc	r15
    10a6:	ff ef       	ldi	r31, 0xFF	; 255
    10a8:	cf 1a       	sub	r12, r31
    10aa:	df 0a       	sbc	r13, r31
    10ac:	80 e1       	ldi	r24, 0x10	; 16
    10ae:	f8 12       	cpse	r15, r24
    10b0:	f2 cf       	rjmp	.-28     	; 0x1096 <SaveGameState+0x34>
    10b2:	08 c0       	rjmp	.+16     	; 0x10c4 <SaveGameState+0x62>
        if (gameState[x] != gameCheck[x]){
            if (EEWrite(x, &gameState[x], 1)) return 1;
    10b4:	41 e0       	ldi	r20, 0x01	; 1
    10b6:	b6 01       	movw	r22, r12
    10b8:	8f 2d       	mov	r24, r15
    10ba:	b7 de       	rcall	.-658    	; 0xe2a <EEWrite>
    10bc:	88 23       	and	r24, r24
    10be:	91 f3       	breq	.-28     	; 0x10a4 <SaveGameState+0x42>
    10c0:	91 e0       	ldi	r25, 0x01	; 1
    10c2:	36 c0       	rjmp	.+108    	; 0x1130 <SaveGameState+0xce>
        }
    }

    //Check the inventory too
    gameState[INVADDR] = (uint8_t)(inventory[0]>>8);
    10c4:	20 91 31 38 	lds	r18, 0x3831	; 0x803831 <inventory>
    10c8:	30 91 32 38 	lds	r19, 0x3832	; 0x803832 <inventory+0x1>
    10cc:	30 93 45 3a 	sts	0x3A45, r19	; 0x803a45 <gameState+0x10>
    gameState[INVADDR+1] = (uint8_t)(inventory[0]&0xff);
    10d0:	20 93 46 3a 	sts	0x3A46, r18	; 0x803a46 <gameState+0x11>
    gameState[INVADDR+2] = (uint8_t)(inventory[1]>>8);
    10d4:	80 91 33 38 	lds	r24, 0x3833	; 0x803833 <inventory+0x2>
    10d8:	90 91 34 38 	lds	r25, 0x3834	; 0x803834 <inventory+0x3>
    10dc:	90 93 47 3a 	sts	0x3A47, r25	; 0x803a47 <gameState+0x12>
    gameState[INVADDR+3] = (uint8_t)(inventory[1]&0xff);
    10e0:	80 93 48 3a 	sts	0x3A48, r24	; 0x803a48 <gameState+0x13>
    if (inventory[0] != (gameCheck[INVADDR]<<8|gameCheck[INVADDR+1])) {
    10e4:	89 89       	ldd	r24, Y+17	; 0x11
    10e6:	9a 89       	ldd	r25, Y+18	; 0x12
    10e8:	98 27       	eor	r25, r24
    10ea:	89 27       	eor	r24, r25
    10ec:	98 27       	eor	r25, r24
    10ee:	28 17       	cp	r18, r24
    10f0:	39 07       	cpc	r19, r25
    10f2:	69 f4       	brne	.+26     	; 0x110e <SaveGameState+0xac>
        if (EEWrite(INVADDR, &gameState[INVADDR], 2)) return 1;
    }
    if (inventory[1] != (gameCheck[INVADDR+2]<<8|gameCheck[INVADDR+3])) {
    10f4:	8b 89       	ldd	r24, Y+19	; 0x13
    10f6:	9c 89       	ldd	r25, Y+20	; 0x14
    10f8:	98 27       	eor	r25, r24
    10fa:	89 27       	eor	r24, r25
    10fc:	98 27       	eor	r25, r24
    10fe:	20 91 33 38 	lds	r18, 0x3833	; 0x803833 <inventory+0x2>
    1102:	30 91 34 38 	lds	r19, 0x3834	; 0x803834 <inventory+0x3>
    1106:	28 17       	cp	r18, r24
    1108:	39 07       	cpc	r19, r25
    110a:	49 f4       	brne	.+18     	; 0x111e <SaveGameState+0xbc>
    110c:	10 c0       	rjmp	.+32     	; 0x112e <SaveGameState+0xcc>
    gameState[INVADDR] = (uint8_t)(inventory[0]>>8);
    gameState[INVADDR+1] = (uint8_t)(inventory[0]&0xff);
    gameState[INVADDR+2] = (uint8_t)(inventory[1]>>8);
    gameState[INVADDR+3] = (uint8_t)(inventory[1]&0xff);
    if (inventory[0] != (gameCheck[INVADDR]<<8|gameCheck[INVADDR+1])) {
        if (EEWrite(INVADDR, &gameState[INVADDR], 2)) return 1;
    110e:	42 e0       	ldi	r20, 0x02	; 2
    1110:	65 e4       	ldi	r22, 0x45	; 69
    1112:	7a e3       	ldi	r23, 0x3A	; 58
    1114:	80 e1       	ldi	r24, 0x10	; 16
    1116:	89 de       	rcall	.-750    	; 0xe2a <EEWrite>
    1118:	88 23       	and	r24, r24
    111a:	61 f3       	breq	.-40     	; 0x10f4 <SaveGameState+0x92>
    111c:	d1 cf       	rjmp	.-94     	; 0x10c0 <SaveGameState+0x5e>
    }
    if (inventory[1] != (gameCheck[INVADDR+2]<<8|gameCheck[INVADDR+3])) {
        if (EEWrite(INVADDR+2, &gameState[INVADDR+2], 2)) return 1;
    111e:	42 e0       	ldi	r20, 0x02	; 2
    1120:	67 e4       	ldi	r22, 0x47	; 71
    1122:	7a e3       	ldi	r23, 0x3A	; 58
    1124:	82 e1       	ldi	r24, 0x12	; 18
    1126:	81 de       	rcall	.-766    	; 0xe2a <EEWrite>
    EERead(0, &gameCheck[0], BOOTCHK);

    //Check game status bits
    for (uint8_t x=0; x<STATLEN; ++x){
        if (gameState[x] != gameCheck[x]){
            if (EEWrite(x, &gameState[x], 1)) return 1;
    1128:	91 e0       	ldi	r25, 0x01	; 1
    112a:	81 11       	cpse	r24, r1
    112c:	01 c0       	rjmp	.+2      	; 0x1130 <SaveGameState+0xce>
    112e:	90 e0       	ldi	r25, 0x00	; 0
    if (inventory[1] != (gameCheck[INVADDR+2]<<8|gameCheck[INVADDR+3])) {
        if (EEWrite(INVADDR+2, &gameState[INVADDR+2], 2)) return 1;
    }

    return 0;
}
    1130:	89 2f       	mov	r24, r25
    1132:	64 96       	adiw	r28, 0x14	; 20
    1134:	cd bf       	out	0x3d, r28	; 61
    1136:	de bf       	out	0x3e, r29	; 62
    1138:	df 91       	pop	r29
    113a:	cf 91       	pop	r28
    113c:	1f 91       	pop	r17
    113e:	0f 91       	pop	r16
    1140:	ff 90       	pop	r15
    1142:	df 90       	pop	r13
    1144:	cf 90       	pop	r12
    1146:	08 95       	ret

00001148 <ReadStatusBit>:

uint8_t ReadStatusBit(uint8_t number){
    number &= 0x7f;
    if (gameState[number>>3] & (1<<(number&7))) return 1; else return 0;
    1148:	e8 2f       	mov	r30, r24
    114a:	ef 77       	andi	r30, 0x7F	; 127
    114c:	e6 95       	lsr	r30
    114e:	e6 95       	lsr	r30
    1150:	e6 95       	lsr	r30
    1152:	f0 e0       	ldi	r31, 0x00	; 0
    1154:	eb 5c       	subi	r30, 0xCB	; 203
    1156:	f5 4c       	sbci	r31, 0xC5	; 197
    1158:	20 81       	ld	r18, Z
    115a:	30 e0       	ldi	r19, 0x00	; 0
    115c:	87 70       	andi	r24, 0x07	; 7
    115e:	a9 01       	movw	r20, r18
    1160:	02 c0       	rjmp	.+4      	; 0x1166 <ReadStatusBit+0x1e>
    1162:	55 95       	asr	r21
    1164:	47 95       	ror	r20
    1166:	8a 95       	dec	r24
    1168:	e2 f7       	brpl	.-8      	; 0x1162 <ReadStatusBit+0x1a>
    116a:	ca 01       	movw	r24, r20
}
    116c:	81 70       	andi	r24, 0x01	; 1
    116e:	08 95       	ret

00001170 <WriteStatusBit>:

void WriteStatusBit(uint8_t number, uint8_t state){
    number &= 0x7f;
    1170:	e8 2f       	mov	r30, r24
    1172:	ef 77       	andi	r30, 0x7F	; 127
    1174:	e6 95       	lsr	r30
    1176:	e6 95       	lsr	r30
    1178:	e6 95       	lsr	r30
    117a:	28 2f       	mov	r18, r24
    117c:	27 70       	andi	r18, 0x07	; 7
    if (state) gameState[number>>3] |= 1<<(number&7);
    117e:	f0 e0       	ldi	r31, 0x00	; 0
    1180:	eb 5c       	subi	r30, 0xCB	; 203
    1182:	f5 4c       	sbci	r31, 0xC5	; 197
    1184:	81 e0       	ldi	r24, 0x01	; 1
    1186:	90 e0       	ldi	r25, 0x00	; 0
    1188:	01 c0       	rjmp	.+2      	; 0x118c <WriteStatusBit+0x1c>
    118a:	88 0f       	add	r24, r24
    118c:	2a 95       	dec	r18
    118e:	ea f7       	brpl	.-6      	; 0x118a <WriteStatusBit+0x1a>
    1190:	66 23       	and	r22, r22
    1192:	19 f0       	breq	.+6      	; 0x119a <WriteStatusBit+0x2a>
    1194:	90 81       	ld	r25, Z
    1196:	89 2b       	or	r24, r25
    1198:	03 c0       	rjmp	.+6      	; 0x11a0 <WriteStatusBit+0x30>
    else gameState[number>>3] &= ~(1<<(number&7));
    119a:	80 95       	com	r24
    119c:	90 81       	ld	r25, Z
    119e:	89 23       	and	r24, r25
    11a0:	80 83       	st	Z, r24
    11a2:	08 95       	ret

000011a4 <UpdateState>:
}

//Update game state: num -> vBBBBbbb v=value(0 is set!), BBBB=Byte number, bbb=bit number
void UpdateState(uint8_t num){
    11a4:	98 2f       	mov	r25, r24
    uint8_t clearBit = num & 0x80;
    num &= 0x7f;
    11a6:	8f 77       	andi	r24, 0x7F	; 127
    if (num) {
    11a8:	31 f0       	breq	.+12     	; 0x11b6 <UpdateState+0x12>
        if (clearBit) {
    11aa:	97 ff       	sbrs	r25, 7
    11ac:	02 c0       	rjmp	.+4      	; 0x11b2 <UpdateState+0xe>
            WriteStatusBit(num, 0);
    11ae:	60 e0       	ldi	r22, 0x00	; 0
    11b0:	01 c0       	rjmp	.+2      	; 0x11b4 <UpdateState+0x10>
        } else {
            WriteStatusBit(num, 1);
    11b2:	61 e0       	ldi	r22, 0x01	; 1
    11b4:	dd cf       	rjmp	.-70     	; 0x1170 <WriteStatusBit>
    11b6:	08 95       	ret

000011b8 <CheckState>:
        }
    }
}

//Checks if state of bit BBBBbbb matches with v (inverted) bit
uint8_t CheckState(uint8_t num){
    11b8:	cf 93       	push	r28
    11ba:	c8 2f       	mov	r28, r24
    uint8_t bitSet = 0;
    if (ReadStatusBit(num & 0x7f)){
    11bc:	8f 77       	andi	r24, 0x7F	; 127
    11be:	c4 df       	rcall	.-120    	; 0x1148 <ReadStatusBit>
    11c0:	2c 2f       	mov	r18, r28
    11c2:	22 1f       	adc	r18, r18
    11c4:	22 27       	eor	r18, r18
    11c6:	22 1f       	adc	r18, r18
    11c8:	91 e0       	ldi	r25, 0x01	; 1
    11ca:	81 11       	cpse	r24, r1
    11cc:	01 c0       	rjmp	.+2      	; 0x11d0 <CheckState+0x18>
    11ce:	90 e0       	ldi	r25, 0x00	; 0
    }
    if (((num & 0x80)>0)^(bitSet>0)){
        return 1;
    }
    return 0;
}
    11d0:	82 2f       	mov	r24, r18
    11d2:	89 27       	eor	r24, r25
    11d4:	cf 91       	pop	r28
    11d6:	08 95       	ret

000011d8 <getID>:

//Give out a number 0..3, calculated using serial number fields
uint8_t getID(){
    uint8_t id = 0;
    uint8_t *serNum;
    serNum = (uint8_t*)&SIGROW_SERNUM0;
    11d8:	e3 e0       	ldi	r30, 0x03	; 3
    11da:	f1 e1       	ldi	r31, 0x11	; 17
    return 0;
}

//Give out a number 0..3, calculated using serial number fields
uint8_t getID(){
    uint8_t id = 0;
    11dc:	80 e0       	ldi	r24, 0x00	; 0
    uint8_t *serNum;
    serNum = (uint8_t*)&SIGROW_SERNUM0;

    for (uint8_t x=0; x<10; ++x){
        id += *serNum;
    11de:	91 91       	ld	r25, Z+
    11e0:	89 0f       	add	r24, r25
uint8_t getID(){
    uint8_t id = 0;
    uint8_t *serNum;
    serNum = (uint8_t*)&SIGROW_SERNUM0;

    for (uint8_t x=0; x<10; ++x){
    11e2:	ed 30       	cpi	r30, 0x0D	; 13
    11e4:	91 e1       	ldi	r25, 0x11	; 17
    11e6:	f9 07       	cpc	r31, r25
    11e8:	d1 f7       	brne	.-12     	; 0x11de <getID+0x6>
        id += *serNum;
        ++serNum;
    }
    id %= 4;
    whoami = id+1;
    11ea:	83 70       	andi	r24, 0x03	; 3
    11ec:	8f 5f       	subi	r24, 0xFF	; 255
    11ee:	80 93 30 38 	sts	0x3830, r24	; 0x803830 <whoami>
    return whoami;
}
    11f2:	08 95       	ret

000011f4 <Reset>:

void Reset(){
    11f4:	e5 e3       	ldi	r30, 0x35	; 53
    11f6:	fa e3       	ldi	r31, 0x3A	; 58
    //# 110   set to 1 by FW if badge UUID mod 4 == 0
    //# 111   set to 1 by FW if badge UUID mod 4 == 1
    //# 112   set to 1 by FW if badge UUID mod 4 == 2
    //# 113   set to 1 by FW if badge UUID mod 4 == 3
    for (uint8_t x=0; x<sizeof(gameState); ++x){
        gameState[x] = 0;
    11f8:	11 92       	st	Z+, r1
    //Reset game progress (all zeroes) and load some bits:
    //# 110   set to 1 by FW if badge UUID mod 4 == 0
    //# 111   set to 1 by FW if badge UUID mod 4 == 1
    //# 112   set to 1 by FW if badge UUID mod 4 == 2
    //# 113   set to 1 by FW if badge UUID mod 4 == 3
    for (uint8_t x=0; x<sizeof(gameState); ++x){
    11fa:	8a e3       	ldi	r24, 0x3A	; 58
    11fc:	e9 34       	cpi	r30, 0x49	; 73
    11fe:	f8 07       	cpc	r31, r24
    1200:	d9 f7       	brne	.-10     	; 0x11f8 <Reset+0x4>
        gameState[x] = 0;
    }

    uint8_t id = getID();
    1202:	ea df       	rcall	.-44     	; 0x11d8 <getID>

    //Write bit in gameState location 110..113
    if (id == 0) WriteStatusBit(110, 1);
    1204:	81 11       	cpse	r24, r1
    1206:	04 c0       	rjmp	.+8      	; 0x1210 <Reset+0x1c>
    if (gameState[number>>3] & (1<<(number&7))) return 1; else return 0;
}

void WriteStatusBit(uint8_t number, uint8_t state){
    number &= 0x7f;
    if (state) gameState[number>>3] |= 1<<(number&7);
    1208:	80 91 42 3a 	lds	r24, 0x3A42	; 0x803a42 <gameState+0xd>
    120c:	80 64       	ori	r24, 0x40	; 64
    120e:	05 c0       	rjmp	.+10     	; 0x121a <Reset+0x26>

    uint8_t id = getID();

    //Write bit in gameState location 110..113
    if (id == 0) WriteStatusBit(110, 1);
    else if (id == 1) WriteStatusBit(111, 1);
    1210:	81 30       	cpi	r24, 0x01	; 1
    1212:	31 f4       	brne	.+12     	; 0x1220 <Reset+0x2c>
    if (gameState[number>>3] & (1<<(number&7))) return 1; else return 0;
}

void WriteStatusBit(uint8_t number, uint8_t state){
    number &= 0x7f;
    if (state) gameState[number>>3] |= 1<<(number&7);
    1214:	80 91 42 3a 	lds	r24, 0x3A42	; 0x803a42 <gameState+0xd>
    1218:	80 68       	ori	r24, 0x80	; 128
    121a:	80 93 42 3a 	sts	0x3A42, r24	; 0x803a42 <gameState+0xd>
    121e:	0d c0       	rjmp	.+26     	; 0x123a <Reset+0x46>
    uint8_t id = getID();

    //Write bit in gameState location 110..113
    if (id == 0) WriteStatusBit(110, 1);
    else if (id == 1) WriteStatusBit(111, 1);
    else if (id == 2) WriteStatusBit(112, 1);
    1220:	82 30       	cpi	r24, 0x02	; 2
    1222:	21 f4       	brne	.+8      	; 0x122c <Reset+0x38>
    if (gameState[number>>3] & (1<<(number&7))) return 1; else return 0;
}

void WriteStatusBit(uint8_t number, uint8_t state){
    number &= 0x7f;
    if (state) gameState[number>>3] |= 1<<(number&7);
    1224:	80 91 43 3a 	lds	r24, 0x3A43	; 0x803a43 <gameState+0xe>
    1228:	81 60       	ori	r24, 0x01	; 1
    122a:	05 c0       	rjmp	.+10     	; 0x1236 <Reset+0x42>

    //Write bit in gameState location 110..113
    if (id == 0) WriteStatusBit(110, 1);
    else if (id == 1) WriteStatusBit(111, 1);
    else if (id == 2) WriteStatusBit(112, 1);
    else if (id == 3) WriteStatusBit(113, 1);
    122c:	83 30       	cpi	r24, 0x03	; 3
    122e:	29 f4       	brne	.+10     	; 0x123a <Reset+0x46>
    if (gameState[number>>3] & (1<<(number&7))) return 1; else return 0;
}

void WriteStatusBit(uint8_t number, uint8_t state){
    number &= 0x7f;
    if (state) gameState[number>>3] |= 1<<(number&7);
    1230:	80 91 43 3a 	lds	r24, 0x3A43	; 0x803a43 <gameState+0xe>
    1234:	82 60       	ori	r24, 0x02	; 2
    1236:	80 93 43 3a 	sts	0x3A43, r24	; 0x803a43 <gameState+0xe>
    123a:	80 91 35 3a 	lds	r24, 0x3A35	; 0x803a35 <gameState>
    123e:	81 60       	ori	r24, 0x01	; 1
    1240:	80 93 35 3a 	sts	0x3A35, r24	; 0x803a35 <gameState>
    1244:	08 95       	ret

00001246 <HotSummer>:

//Sets specific game bits after the badge is heated for one and two times.
uint8_t HotSummer(){
    static uint8_t cooledDown = 0;

    if (CheckState(SUMMERS_COMPLETED)) return 0;
    1246:	86 e7       	ldi	r24, 0x76	; 118
    1248:	b7 df       	rcall	.-146    	; 0x11b8 <CheckState>
    124a:	81 11       	cpse	r24, r1
    124c:	28 c0       	rjmp	.+80     	; 0x129e <HotSummer+0x58>
    if (CheckState(FIRST_SUMMER)) {
    124e:	85 e7       	ldi	r24, 0x75	; 117
    1250:	b3 df       	rcall	.-154    	; 0x11b8 <CheckState>
    1252:	81 11       	cpse	r24, r1
    1254:	24 c0       	rjmp	.+72     	; 0x129e <HotSummer+0x58>
            
    } else {
        if (calTemp == 0) calTemp = adcTemp;
    1256:	80 91 94 3a 	lds	r24, 0x3A94	; 0x803a94 <calTemp>
    125a:	90 91 95 3a 	lds	r25, 0x3A95	; 0x803a95 <calTemp+0x1>
    125e:	89 2b       	or	r24, r25
    1260:	41 f4       	brne	.+16     	; 0x1272 <HotSummer+0x2c>
    1262:	80 91 e1 3a 	lds	r24, 0x3AE1	; 0x803ae1 <adcTemp>
    1266:	90 91 e2 3a 	lds	r25, 0x3AE2	; 0x803ae2 <adcTemp+0x1>
    126a:	80 93 94 3a 	sts	0x3A94, r24	; 0x803a94 <calTemp>
    126e:	90 93 95 3a 	sts	0x3A95, r25	; 0x803a95 <calTemp+0x1>
        if (adcTemp >= (calTemp + 8)) {
    1272:	80 91 94 3a 	lds	r24, 0x3A94	; 0x803a94 <calTemp>
    1276:	90 91 95 3a 	lds	r25, 0x3A95	; 0x803a95 <calTemp+0x1>
    127a:	20 91 e1 3a 	lds	r18, 0x3AE1	; 0x803ae1 <adcTemp>
    127e:	30 91 e2 3a 	lds	r19, 0x3AE2	; 0x803ae2 <adcTemp+0x1>
    1282:	08 96       	adiw	r24, 0x08	; 8
    1284:	28 17       	cp	r18, r24
    1286:	39 07       	cpc	r19, r25
            UpdateState(FIRST_SUMMER);
    1288:	50 f0       	brcs	.+20     	; 0x129e <HotSummer+0x58>
    128a:	85 e7       	ldi	r24, 0x75	; 117
    128c:	8b df       	rcall	.-234    	; 0x11a4 <UpdateState>
            iLED[SCARAB[G]] = dimValue;
    128e:	e0 91 1f b3 	lds	r30, 0xB31F	; 0x80b31f <__bss_end+0x7819>
    1292:	f0 e0       	ldi	r31, 0x00	; 0
    1294:	80 91 09 38 	lds	r24, 0x3809	; 0x803809 <dimValue>
    1298:	ea 54       	subi	r30, 0x4A	; 74
    129a:	f5 4c       	sbci	r31, 0xC5	; 197
    129c:	80 83       	st	Z, r24
        }
    }
    return 0;
}
    129e:	80 e0       	ldi	r24, 0x00	; 0
    12a0:	08 95       	ret

000012a2 <GenerateAudio>:

void GenerateAudio(){
    12a2:	0f 93       	push	r16
    12a4:	1f 93       	push	r17
    12a6:	cf 93       	push	r28
    12a8:	df 93       	push	r29

    //auRepAddr = &auBuffer[0];

    //Audio for text adventure
    if ((effect&0xff00)==0) {
    12aa:	80 91 2d 38 	lds	r24, 0x382D	; 0x80382d <effect>
    12ae:	90 91 2e 38 	lds	r25, 0x382E	; 0x80382e <effect+0x1>
    12b2:	88 27       	eor	r24, r24
    12b4:	89 2b       	or	r24, r25
    12b6:	09 f0       	breq	.+2      	; 0x12ba <GenerateAudio+0x18>
    12b8:	8d c0       	rjmp	.+282    	; 0x13d4 <GenerateAudio+0x132>

        //Silence
        if ((effect&0xE0)==0){
    12ba:	80 91 2d 38 	lds	r24, 0x382D	; 0x80382d <effect>
    12be:	90 91 2e 38 	lds	r25, 0x382E	; 0x80382e <effect+0x1>
    12c2:	80 7e       	andi	r24, 0xE0	; 224
    12c4:	99 27       	eor	r25, r25
    12c6:	89 2b       	or	r24, r25
    12c8:	31 f4       	brne	.+12     	; 0x12d6 <GenerateAudio+0x34>
            auRepAddr = &zero;
    12ca:	8b e2       	ldi	r24, 0x2B	; 43
    12cc:	98 e3       	ldi	r25, 0x38	; 56
    12ce:	80 93 03 38 	sts	0x3803, r24	; 0x803803 <auRepAddr>
    12d2:	90 93 04 38 	sts	0x3804, r25	; 0x803804 <auRepAddr+0x1>
        }

        //Bad (buzzer)
        if ((effect&0xE0)==32){
    12d6:	80 91 2d 38 	lds	r24, 0x382D	; 0x80382d <effect>
    12da:	90 91 2e 38 	lds	r25, 0x382E	; 0x80382e <effect+0x1>
    12de:	80 7e       	andi	r24, 0xE0	; 224
    12e0:	99 27       	eor	r25, r25
    12e2:	80 97       	sbiw	r24, 0x20	; 32
    12e4:	21 f5       	brne	.+72     	; 0x132e <GenerateAudio+0x8c>
            static uint8_t auBuffer[17] = {1, 255, 128, 128, 192, 255, 192, 255, 192, 128, 64, 1, 64, 1, 64, 128, 0}; 
            static uint8_t loudness = 0xff;
            auRepAddr = &auBuffer[0];
    12e6:	8c e0       	ldi	r24, 0x0C	; 12
    12e8:	98 e3       	ldi	r25, 0x38	; 56
    12ea:	80 93 03 38 	sts	0x3803, r24	; 0x803803 <auRepAddr>
    12ee:	90 93 04 38 	sts	0x3804, r25	; 0x803804 <auRepAddr+0x1>
            if (buttonMark) {
    12f2:	80 91 35 38 	lds	r24, 0x3835	; 0x803835 <buttonMark>
    12f6:	88 23       	and	r24, r24
    12f8:	d1 f0       	breq	.+52     	; 0x132e <GenerateAudio+0x8c>
                if (loudness) {
    12fa:	80 91 0b 38 	lds	r24, 0x380B	; 0x80380b <loudness.3933>
    12fe:	88 23       	and	r24, r24
    1300:	31 f0       	breq	.+12     	; 0x130e <GenerateAudio+0x6c>
                    auVolume = loudness;
    1302:	80 93 8a 3a 	sts	0x3A8A, r24	; 0x803a8a <auVolume>
                    --loudness;
    1306:	81 50       	subi	r24, 0x01	; 1
    1308:	80 93 0b 38 	sts	0x380B, r24	; 0x80380b <loudness.3933>
    130c:	10 c0       	rjmp	.+32     	; 0x132e <GenerateAudio+0x8c>
                } else {
                    auRepAddr = &zero;
    130e:	8b e2       	ldi	r24, 0x2B	; 43
    1310:	98 e3       	ldi	r25, 0x38	; 56
    1312:	80 93 03 38 	sts	0x3803, r24	; 0x803803 <auRepAddr>
    1316:	90 93 04 38 	sts	0x3804, r25	; 0x803804 <auRepAddr+0x1>
                    effect &= 0x10;
    131a:	80 91 2d 38 	lds	r24, 0x382D	; 0x80382d <effect>
    131e:	90 91 2e 38 	lds	r25, 0x382E	; 0x80382e <effect+0x1>
    1322:	80 71       	andi	r24, 0x10	; 16
    1324:	99 27       	eor	r25, r25
    1326:	80 93 2d 38 	sts	0x382D, r24	; 0x80382d <effect>
    132a:	90 93 2e 38 	sts	0x382E, r25	; 0x80382e <effect+0x1>
                }
            }
        }

        //Good (bell)
        if ((effect&0xE0)==64){
    132e:	80 91 2d 38 	lds	r24, 0x382D	; 0x80382d <effect>
    1332:	90 91 2e 38 	lds	r25, 0x382E	; 0x80382e <effect+0x1>
            //auBuffer = 
        }

        //Rain storm with whistling wind
        if ((effect&0xE0)==96){
    1336:	80 91 2d 38 	lds	r24, 0x382D	; 0x80382d <effect>
    133a:	90 91 2e 38 	lds	r25, 0x382E	; 0x80382e <effect+0x1>
    133e:	80 7e       	andi	r24, 0xE0	; 224
    1340:	99 27       	eor	r25, r25
    1342:	80 36       	cpi	r24, 0x60	; 96
    1344:	91 05       	cpc	r25, r1
    1346:	d1 f5       	brne	.+116    	; 0x13bc <GenerateAudio+0x11a>
            static uint8_t auBuffer[7];
            auBuffer[6]= 0;        
    1348:	10 92 43 38 	sts	0x3843, r1	; 0x803843 <auBuffer.3934+0x6>
            auRepAddr = &auBuffer[0];
    134c:	8d e3       	ldi	r24, 0x3D	; 61
    134e:	98 e3       	ldi	r25, 0x38	; 56
    1350:	80 93 03 38 	sts	0x3803, r24	; 0x803803 <auRepAddr>
    1354:	90 93 04 38 	sts	0x3804, r25	; 0x803804 <auRepAddr+0x1>
    1358:	8c 01       	movw	r16, r24

            //Noise is to be generated fast, outside of buttonMark loop
            for (uint8_t x=1; x<6; ++x){
    135a:	c1 e0       	ldi	r28, 0x01	; 1
                if (x%3) auBuffer[x] = floatAround(0x80, 5, 0x01, 0x00);
    135c:	d3 e0       	ldi	r29, 0x03	; 3
    135e:	8c 2f       	mov	r24, r28
    1360:	6d 2f       	mov	r22, r29
    1362:	0e 94 36 19 	call	0x326c	; 0x326c <__udivmodqi4>
    1366:	99 23       	and	r25, r25
    1368:	39 f0       	breq	.+14     	; 0x1378 <GenerateAudio+0xd6>
    136a:	20 e0       	ldi	r18, 0x00	; 0
    136c:	41 e0       	ldi	r20, 0x01	; 1
    136e:	65 e0       	ldi	r22, 0x05	; 5
    1370:	80 e8       	ldi	r24, 0x80	; 128
    1372:	52 de       	rcall	.-860    	; 0x1018 <floatAround>
    1374:	f8 01       	movw	r30, r16
    1376:	81 83       	std	Z+1, r24	; 0x01
            static uint8_t auBuffer[7];
            auBuffer[6]= 0;        
            auRepAddr = &auBuffer[0];

            //Noise is to be generated fast, outside of buttonMark loop
            for (uint8_t x=1; x<6; ++x){
    1378:	cf 5f       	subi	r28, 0xFF	; 255
    137a:	0f 5f       	subi	r16, 0xFF	; 255
    137c:	1f 4f       	sbci	r17, 0xFF	; 255
    137e:	c6 30       	cpi	r28, 0x06	; 6
    1380:	71 f7       	brne	.-36     	; 0x135e <GenerateAudio+0xbc>
                if (x%3) auBuffer[x] = floatAround(0x80, 5, 0x01, 0x00);
            }

            if (buttonMark){
    1382:	80 91 35 38 	lds	r24, 0x3835	; 0x803835 <buttonMark>
    1386:	88 23       	and	r24, r24
    1388:	c9 f0       	breq	.+50     	; 0x13bc <GenerateAudio+0x11a>
                //"Floating" speed for howl (and noise, but that's hardly audible)
                floatSpeed(5, 0x0280, 0x0400);
    138a:	40 e0       	ldi	r20, 0x00	; 0
    138c:	54 e0       	ldi	r21, 0x04	; 4
    138e:	60 e8       	ldi	r22, 0x80	; 128
    1390:	72 e0       	ldi	r23, 0x02	; 2
    1392:	85 e0       	ldi	r24, 0x05	; 5
    1394:	0f de       	rcall	.-994    	; 0xfb4 <floatSpeed>
            
                //"Floating" volume and wind howl during 8 bit rainstorm needs some randomness
                auVolume = floatAround(auVolume, 2, 0x10, 0xA0);
    1396:	80 91 8a 3a 	lds	r24, 0x3A8A	; 0x803a8a <auVolume>
    139a:	20 ea       	ldi	r18, 0xA0	; 160
    139c:	40 e1       	ldi	r20, 0x10	; 16
    139e:	62 e0       	ldi	r22, 0x02	; 2
    13a0:	3b de       	rcall	.-906    	; 0x1018 <floatAround>
    13a2:	80 93 8a 3a 	sts	0x3A8A, r24	; 0x803a8a <auVolume>
                auBuffer[0] = floatAround(auBuffer[0], 2, 0x70, 0x90);
    13a6:	20 e9       	ldi	r18, 0x90	; 144
    13a8:	40 e7       	ldi	r20, 0x70	; 112
    13aa:	62 e0       	ldi	r22, 0x02	; 2
    13ac:	80 91 3d 38 	lds	r24, 0x383D	; 0x80383d <auBuffer.3934>
    13b0:	33 de       	rcall	.-922    	; 0x1018 <floatAround>
    13b2:	80 93 3d 38 	sts	0x383D, r24	; 0x80383d <auBuffer.3934>
                auBuffer[3] = 0xFF-auBuffer[0];  //Inverse value of wind[0] produces a whistle
    13b6:	80 95       	com	r24
    13b8:	80 93 40 38 	sts	0x3840, r24	; 0x803840 <auBuffer.3934+0x3>
            }
        }

        //Footsteps
        if ((effect&0xE0)==128){
    13bc:	80 91 2d 38 	lds	r24, 0x382D	; 0x80382d <effect>
    13c0:	90 91 2e 38 	lds	r25, 0x382E	; 0x80382e <effect+0x1>

        }

        //Knocking
        if ((effect&0xE0)==160){
    13c4:	80 91 2d 38 	lds	r24, 0x382D	; 0x80382d <effect>
    13c8:	90 91 2e 38 	lds	r25, 0x382E	; 0x80382e <effect+0x1>

        }

        //Scream
        if ((effect&0xE0)==192){
    13cc:	80 91 2d 38 	lds	r24, 0x382D	; 0x80382d <effect>
    13d0:	90 91 2e 38 	lds	r25, 0x382E	; 0x80382e <effect+0x1>

        //Rain storm with whistling wind
        else {
        }
    }
    13d4:	df 91       	pop	r29
    13d6:	cf 91       	pop	r28
    13d8:	1f 91       	pop	r17
    13da:	0f 91       	pop	r16
    13dc:	08 95       	ret

000013de <BastetDictates>:

// Main game loop
uint8_t BastetDictates(){
  
    return 0;
}
    13de:	80 e0       	ldi	r24, 0x00	; 0
    13e0:	08 95       	ret

000013e2 <Cheat>:

//
void SetResponse(uint8_t number, uint16_t address, uint16_t length, uint8_t type){
    reactStr[0][number]=address;
    reactStr[1][number]=length;
    reactStr[2][number]=type;
    13e2:	1f 93       	push	r17
    13e4:	cf 93       	push	r28
    13e6:	df 93       	push	r29
    13e8:	cd b7       	in	r28, 0x3d	; 61
    13ea:	de b7       	in	r29, 0x3e	; 62
    13ec:	62 97       	sbiw	r28, 0x12	; 18
    13ee:	cd bf       	out	0x3d, r28	; 61
    13f0:	de bf       	out	0x3e, r29	; 62
    13f2:	8a 8b       	std	Y+18, r24	; 0x12
    13f4:	80 e1       	ldi	r24, 0x10	; 16
    13f6:	e4 ef       	ldi	r30, 0xF4	; 244
    13f8:	f2 eb       	ldi	r31, 0xB2	; 178
    13fa:	de 01       	movw	r26, r28
    13fc:	11 96       	adiw	r26, 0x01	; 1
    13fe:	01 90       	ld	r0, Z+
    1400:	0d 92       	st	X+, r0
    1402:	8a 95       	dec	r24
    1404:	e1 f7       	brne	.-8      	; 0x13fe <Cheat+0x1c>
    1406:	fe 01       	movw	r30, r28
    1408:	31 96       	adiw	r30, 0x01	; 1
    140a:	90 e0       	ldi	r25, 0x00	; 0
    140c:	8f ef       	ldi	r24, 0xFF	; 255
    140e:	21 91       	ld	r18, Z+
    1410:	31 91       	ld	r19, Z+
    1412:	26 17       	cp	r18, r22
    1414:	37 07       	cpc	r19, r23
    1416:	09 f4       	brne	.+2      	; 0x141a <Cheat+0x38>
    1418:	89 2f       	mov	r24, r25
    141a:	9f 5f       	subi	r25, 0xFF	; 255
    141c:	98 30       	cpi	r25, 0x08	; 8
    141e:	b9 f7       	brne	.-18     	; 0x140e <Cheat+0x2c>
    1420:	88 30       	cpi	r24, 0x08	; 8
    1422:	10 f0       	brcs	.+4      	; 0x1428 <Cheat+0x46>
    1424:	80 e0       	ldi	r24, 0x00	; 0
    1426:	12 c0       	rjmp	.+36     	; 0x144c <Cheat+0x6a>
    1428:	18 e1       	ldi	r17, 0x18	; 24
    142a:	18 0f       	add	r17, r24
    142c:	41 e0       	ldi	r20, 0x01	; 1
    142e:	be 01       	movw	r22, r28
    1430:	6f 5e       	subi	r22, 0xEF	; 239
    1432:	7f 4f       	sbci	r23, 0xFF	; 255
    1434:	81 2f       	mov	r24, r17
    1436:	e9 dc       	rcall	.-1582   	; 0xe0a <EERead>
    1438:	89 89       	ldd	r24, Y+17	; 0x11
    143a:	8f 3f       	cpi	r24, 0xFF	; 255
    143c:	99 f7       	brne	.-26     	; 0x1424 <Cheat+0x42>
    143e:	41 e0       	ldi	r20, 0x01	; 1
    1440:	be 01       	movw	r22, r28
    1442:	6e 5e       	subi	r22, 0xEE	; 238
    1444:	7f 4f       	sbci	r23, 0xFF	; 255
    1446:	81 2f       	mov	r24, r17
    1448:	f0 dc       	rcall	.-1568   	; 0xe2a <EEWrite>
    144a:	81 e0       	ldi	r24, 0x01	; 1
    144c:	62 96       	adiw	r28, 0x12	; 18
    144e:	cd bf       	out	0x3d, r28	; 61
    1450:	de bf       	out	0x3e, r29	; 62
    1452:	df 91       	pop	r29
    1454:	cf 91       	pop	r28
    1456:	1f 91       	pop	r17
    1458:	08 95       	ret

0000145a <DecryptData>:
    145a:	f9 01       	movw	r30, r18
    145c:	9c 01       	movw	r18, r24
    145e:	2e 1b       	sub	r18, r30
    1460:	3f 0b       	sbc	r19, r31
    1462:	88 e0       	ldi	r24, 0x08	; 8
    1464:	48 9f       	mul	r20, r24
    1466:	a0 01       	movw	r20, r0
    1468:	11 24       	eor	r1, r1
    146a:	42 54       	subi	r20, 0x42	; 66
    146c:	5c 44       	sbci	r21, 0x4C	; 76
    146e:	66 23       	and	r22, r22
    1470:	69 f0       	breq	.+26     	; 0x148c <DecryptData+0x32>
    1472:	df 01       	movw	r26, r30
    1474:	a2 0f       	add	r26, r18
    1476:	b3 1f       	adc	r27, r19
    1478:	a7 70       	andi	r26, 0x07	; 7
    147a:	bb 27       	eor	r27, r27
    147c:	a4 0f       	add	r26, r20
    147e:	b5 1f       	adc	r27, r21
    1480:	80 81       	ld	r24, Z
    1482:	9c 91       	ld	r25, X
    1484:	98 27       	eor	r25, r24
    1486:	91 93       	st	Z+, r25
    1488:	61 50       	subi	r22, 0x01	; 1
    148a:	f1 cf       	rjmp	.-30     	; 0x146e <DecryptData+0x14>
    148c:	08 95       	ret

0000148e <UnflipData>:
    148e:	26 2f       	mov	r18, r22
    1490:	fb 01       	movw	r30, r22
    1492:	35 e5       	ldi	r19, 0x55	; 85
    1494:	9e 2f       	mov	r25, r30
    1496:	92 1b       	sub	r25, r18
    1498:	98 17       	cp	r25, r24
    149a:	28 f4       	brcc	.+10     	; 0x14a6 <UnflipData+0x18>
    149c:	90 81       	ld	r25, Z
    149e:	92 95       	swap	r25
    14a0:	93 27       	eor	r25, r19
    14a2:	91 93       	st	Z+, r25
    14a4:	f7 cf       	rjmp	.-18     	; 0x1494 <UnflipData+0x6>
    14a6:	08 95       	ret

000014a8 <ExtEERead>:
    14a8:	af 92       	push	r10
    14aa:	bf 92       	push	r11
    14ac:	cf 92       	push	r12
    14ae:	df 92       	push	r13
    14b0:	ef 92       	push	r14
    14b2:	ff 92       	push	r15
    14b4:	0f 93       	push	r16
    14b6:	1f 93       	push	r17
    14b8:	cf 93       	push	r28
    14ba:	df 93       	push	r29
    14bc:	00 d0       	rcall	.+0      	; 0x14be <ExtEERead+0x16>
    14be:	cd b7       	in	r28, 0x3d	; 61
    14c0:	de b7       	in	r29, 0x3e	; 62
    14c2:	d6 2e       	mov	r13, r22
    14c4:	c4 2e       	mov	r12, r20
    14c6:	59 01       	movw	r10, r18
    14c8:	7c 01       	movw	r14, r24
    14ca:	e8 94       	clt
    14cc:	f7 f8       	bld	r15, 7
    14ce:	f9 82       	std	Y+1, r15	; 0x01
    14d0:	ea 82       	std	Y+2, r14	; 0x02
    14d2:	06 2f       	mov	r16, r22
    14d4:	42 e0       	ldi	r20, 0x02	; 2
    14d6:	be 01       	movw	r22, r28
    14d8:	6f 5f       	subi	r22, 0xFF	; 255
    14da:	7f 4f       	sbci	r23, 0xFF	; 255
    14dc:	80 e5       	ldi	r24, 0x50	; 80
    14de:	0e 94 5c 01 	call	0x2b8	; 0x2b8 <I2C_read_bytes>
    14e2:	18 2f       	mov	r17, r24
    14e4:	81 11       	cpse	r24, r1
    14e6:	05 c0       	rjmp	.+10     	; 0x14f2 <ExtEERead+0x4a>
    14e8:	95 01       	movw	r18, r10
    14ea:	4c 2d       	mov	r20, r12
    14ec:	6d 2d       	mov	r22, r13
    14ee:	c7 01       	movw	r24, r14
    14f0:	b4 df       	rcall	.-152    	; 0x145a <DecryptData>
    14f2:	81 2f       	mov	r24, r17
    14f4:	0f 90       	pop	r0
    14f6:	0f 90       	pop	r0
    14f8:	df 91       	pop	r29
    14fa:	cf 91       	pop	r28
    14fc:	1f 91       	pop	r17
    14fe:	0f 91       	pop	r16
    1500:	ff 90       	pop	r15
    1502:	ef 90       	pop	r14
    1504:	df 90       	pop	r13
    1506:	cf 90       	pop	r12
    1508:	bf 90       	pop	r11
    150a:	af 90       	pop	r10
    150c:	08 95       	ret

0000150e <ClearTxAfter>:
    150e:	8f 5f       	subi	r24, 0xFF	; 255
    1510:	88 30       	cpi	r24, 0x08	; 8
    1512:	30 f4       	brcc	.+12     	; 0x1520 <ClearTxAfter+0x12>
    1514:	e8 2f       	mov	r30, r24
    1516:	f0 e0       	ldi	r31, 0x00	; 0
    1518:	e4 5e       	subi	r30, 0xE4	; 228
    151a:	f5 4c       	sbci	r31, 0xC5	; 197
    151c:	10 82       	st	Z, r1
    151e:	f7 cf       	rjmp	.-18     	; 0x150e <ClearTxAfter>
    1520:	08 95       	ret

00001522 <StartsWith>:
    1522:	ac 01       	movw	r20, r24
    1524:	90 e0       	ldi	r25, 0x00	; 0
    1526:	e9 2f       	mov	r30, r25
    1528:	f0 e0       	ldi	r31, 0x00	; 0
    152a:	da 01       	movw	r26, r20
    152c:	ae 0f       	add	r26, r30
    152e:	bf 1f       	adc	r27, r31
    1530:	3c 91       	ld	r19, X
    1532:	e6 0f       	add	r30, r22
    1534:	f7 1f       	adc	r31, r23
    1536:	31 11       	cpse	r19, r1
    1538:	05 c0       	rjmp	.+10     	; 0x1544 <StartsWith+0x22>
    153a:	81 e0       	ldi	r24, 0x01	; 1
    153c:	90 81       	ld	r25, Z
    153e:	99 23       	and	r25, r25
    1540:	49 f0       	breq	.+18     	; 0x1554 <StartsWith+0x32>
    1542:	07 c0       	rjmp	.+14     	; 0x1552 <StartsWith+0x30>
    1544:	20 81       	ld	r18, Z
    1546:	22 23       	and	r18, r18
    1548:	c1 f3       	breq	.-16     	; 0x153a <StartsWith+0x18>
    154a:	32 13       	cpse	r19, r18
    154c:	02 c0       	rjmp	.+4      	; 0x1552 <StartsWith+0x30>
    154e:	9f 5f       	subi	r25, 0xFF	; 255
    1550:	ea cf       	rjmp	.-44     	; 0x1526 <StartsWith+0x4>
    1552:	80 e0       	ldi	r24, 0x00	; 0
    1554:	08 95       	ret

00001556 <PrepareSending>:
    1556:	61 15       	cp	r22, r1
    1558:	71 05       	cpc	r23, r1
    155a:	51 f1       	breq	.+84     	; 0x15b0 <PrepareSending+0x5a>
    155c:	e4 e2       	ldi	r30, 0x24	; 36
    155e:	fa e3       	ldi	r31, 0x3A	; 58
    1560:	ac e1       	ldi	r26, 0x1C	; 28
    1562:	ba e3       	ldi	r27, 0x3A	; 58
    1564:	20 e0       	ldi	r18, 0x00	; 0
    1566:	3f ef       	ldi	r19, 0xFF	; 255
    1568:	6f 3f       	cpi	r22, 0xFF	; 255
    156a:	71 05       	cpc	r23, r1
    156c:	69 f0       	breq	.+26     	; 0x1588 <PrepareSending+0x32>
    156e:	60 f0       	brcs	.+24     	; 0x1588 <PrepareSending+0x32>
    1570:	81 93       	st	Z+, r24
    1572:	91 93       	st	Z+, r25
    1574:	3d 93       	st	X+, r19
    1576:	81 50       	subi	r24, 0x01	; 1
    1578:	9f 4f       	sbci	r25, 0xFF	; 255
    157a:	6f 5f       	subi	r22, 0xFF	; 255
    157c:	71 09       	sbc	r23, r1
    157e:	2f 5f       	subi	r18, 0xFF	; 255
    1580:	27 30       	cpi	r18, 0x07	; 7
    1582:	91 f7       	brne	.-28     	; 0x1568 <PrepareSending+0x12>
    1584:	81 e0       	ldi	r24, 0x01	; 1
    1586:	08 95       	ret
    1588:	e2 2f       	mov	r30, r18
    158a:	f0 e0       	ldi	r31, 0x00	; 0
    158c:	df 01       	movw	r26, r30
    158e:	aa 0f       	add	r26, r26
    1590:	bb 1f       	adc	r27, r27
    1592:	ac 5d       	subi	r26, 0xDC	; 220
    1594:	b5 4c       	sbci	r27, 0xC5	; 197
    1596:	8d 93       	st	X+, r24
    1598:	9c 93       	st	X, r25
    159a:	e4 5e       	subi	r30, 0xE4	; 228
    159c:	f5 4c       	sbci	r31, 0xC5	; 197
    159e:	cb 01       	movw	r24, r22
    15a0:	6f ef       	ldi	r22, 0xFF	; 255
    15a2:	70 e0       	ldi	r23, 0x00	; 0
    15a4:	0e 94 42 19 	call	0x3284	; 0x3284 <__udivmodhi4>
    15a8:	80 83       	st	Z, r24
    15aa:	40 93 1a 3a 	sts	0x3A1A, r20	; 0x803a1a <txTypeNow>
    15ae:	05 c0       	rjmp	.+10     	; 0x15ba <PrepareSending+0x64>
    15b0:	10 92 24 3a 	sts	0x3A24, r1	; 0x803a24 <txAddrList>
    15b4:	10 92 25 3a 	sts	0x3A25, r1	; 0x803a25 <txAddrList+0x1>
    15b8:	20 e0       	ldi	r18, 0x00	; 0
    15ba:	82 2f       	mov	r24, r18
    15bc:	a8 df       	rcall	.-176    	; 0x150e <ClearTxAfter>
    15be:	10 92 1b 3a 	sts	0x3A1B, r1	; 0x803a1b <txAddrNow>
    15c2:	80 e0       	ldi	r24, 0x00	; 0
    15c4:	08 95       	ret

000015c6 <SetStandardResponse>:
}

//
uint8_t SetStandardResponse(uint8_t custStrEnd){
    15c6:	cf 93       	push	r28
    15c8:	df 93       	push	r29
    return 0;
}

//
void SetResponse(uint8_t number, uint16_t address, uint16_t length, uint8_t type){
    reactStr[0][number]=address;
    15ca:	28 2f       	mov	r18, r24
    15cc:	30 e0       	ldi	r19, 0x00	; 0
    15ce:	f9 01       	movw	r30, r18
    15d0:	ee 0f       	add	r30, r30
    15d2:	ff 1f       	adc	r31, r31
    15d4:	e1 51       	subi	r30, 0x11	; 17
    15d6:	f7 4c       	sbci	r31, 0xC7	; 199
    15d8:	ab e5       	ldi	r26, 0x5B	; 91
    15da:	ba e7       	ldi	r27, 0x7A	; 122
    15dc:	a0 83       	st	Z, r26
    15de:	b1 83       	std	Z+1, r27	; 0x01
    reactStr[1][number]=length;
    15e0:	f9 01       	movw	r30, r18
    15e2:	ee 0f       	add	r30, r30
    15e4:	ff 1f       	adc	r31, r31
    15e6:	e1 5d       	subi	r30, 0xD1	; 209
    15e8:	f6 4c       	sbci	r31, 0xC6	; 198
    15ea:	62 e0       	ldi	r22, 0x02	; 2
    15ec:	70 e0       	ldi	r23, 0x00	; 0
    15ee:	60 83       	st	Z, r22
    15f0:	71 83       	std	Z+1, r23	; 0x01
    reactStr[2][number]=type;
    15f2:	22 0f       	add	r18, r18
    15f4:	33 1f       	adc	r19, r19
    15f6:	f9 01       	movw	r30, r18
    15f8:	e1 59       	subi	r30, 0x91	; 145
    15fa:	f6 4c       	sbci	r31, 0xC6	; 198
    15fc:	41 e0       	ldi	r20, 0x01	; 1
    15fe:	50 e0       	ldi	r21, 0x00	; 0
    1600:	40 83       	st	Z, r20
    1602:	51 83       	std	Z+1, r21	; 0x01
    return 0;
}

//
void SetResponse(uint8_t number, uint16_t address, uint16_t length, uint8_t type){
    reactStr[0][number]=address;
    1604:	21 e0       	ldi	r18, 0x01	; 1
    1606:	28 0f       	add	r18, r24
    1608:	30 e0       	ldi	r19, 0x00	; 0
    160a:	f9 01       	movw	r30, r18
    160c:	ee 0f       	add	r30, r30
    160e:	ff 1f       	adc	r31, r31
    1610:	e1 51       	subi	r30, 0x11	; 17
    1612:	f7 4c       	sbci	r31, 0xC7	; 199
    1614:	c4 e6       	ldi	r28, 0x64	; 100
    1616:	da e7       	ldi	r29, 0x7A	; 122
    1618:	c0 83       	st	Z, r28
    161a:	d1 83       	std	Z+1, r29	; 0x01
    reactStr[1][number]=length;
    161c:	f9 01       	movw	r30, r18
    161e:	ee 0f       	add	r30, r30
    1620:	ff 1f       	adc	r31, r31
    1622:	e1 5d       	subi	r30, 0xD1	; 209
    1624:	f6 4c       	sbci	r31, 0xC6	; 198
    1626:	ca e0       	ldi	r28, 0x0A	; 10
    1628:	d0 e0       	ldi	r29, 0x00	; 0
    162a:	c0 83       	st	Z, r28
    162c:	d1 83       	std	Z+1, r29	; 0x01
    reactStr[2][number]=type;
    162e:	22 0f       	add	r18, r18
    1630:	33 1f       	adc	r19, r19
    1632:	f9 01       	movw	r30, r18
    1634:	e1 59       	subi	r30, 0x91	; 145
    1636:	f6 4c       	sbci	r31, 0xC6	; 198
    1638:	40 83       	st	Z, r20
    163a:	51 83       	std	Z+1, r21	; 0x01
uint8_t SetStandardResponse(uint8_t custStrEnd){

    SetResponse(custStrEnd++, A_LF, 2, TEASER);
    SetResponse(custStrEnd++, A_LOCATION, L_LOCATION, TEASER);
    //SetResponse(custStrEnd++, A_SPACE, L_SPACE, TEASER);
    reactStr[0][custStrEnd++] = CURR_LOC;
    163c:	e2 e0       	ldi	r30, 0x02	; 2
    163e:	e8 0f       	add	r30, r24
    1640:	f0 e0       	ldi	r31, 0x00	; 0
    1642:	ee 0f       	add	r30, r30
    1644:	ff 1f       	adc	r31, r31
    1646:	e1 51       	subi	r30, 0x11	; 17
    1648:	f7 4c       	sbci	r31, 0xC7	; 199
    164a:	20 ef       	ldi	r18, 0xF0	; 240
    164c:	3f ef       	ldi	r19, 0xFF	; 255
    164e:	20 83       	st	Z, r18
    1650:	31 83       	std	Z+1, r19	; 0x01
    return 0;
}

//
void SetResponse(uint8_t number, uint16_t address, uint16_t length, uint8_t type){
    reactStr[0][number]=address;
    1652:	23 e0       	ldi	r18, 0x03	; 3
    1654:	28 0f       	add	r18, r24
    1656:	30 e0       	ldi	r19, 0x00	; 0
    1658:	f9 01       	movw	r30, r18
    165a:	ee 0f       	add	r30, r30
    165c:	ff 1f       	adc	r31, r31
    165e:	e1 51       	subi	r30, 0x11	; 17
    1660:	f7 4c       	sbci	r31, 0xC7	; 199
    1662:	a0 83       	st	Z, r26
    1664:	b1 83       	std	Z+1, r27	; 0x01
    reactStr[1][number]=length;
    1666:	f9 01       	movw	r30, r18
    1668:	ee 0f       	add	r30, r30
    166a:	ff 1f       	adc	r31, r31
    166c:	e1 5d       	subi	r30, 0xD1	; 209
    166e:	f6 4c       	sbci	r31, 0xC6	; 198
    1670:	60 83       	st	Z, r22
    1672:	71 83       	std	Z+1, r23	; 0x01
    reactStr[2][number]=type;
    1674:	22 0f       	add	r18, r18
    1676:	33 1f       	adc	r19, r19
    1678:	f9 01       	movw	r30, r18
    167a:	e1 59       	subi	r30, 0x91	; 145
    167c:	f6 4c       	sbci	r31, 0xC6	; 198
    167e:	40 83       	st	Z, r20
    1680:	51 83       	std	Z+1, r21	; 0x01
    return 0;
}

//
void SetResponse(uint8_t number, uint16_t address, uint16_t length, uint8_t type){
    reactStr[0][number]=address;
    1682:	24 e0       	ldi	r18, 0x04	; 4
    1684:	28 0f       	add	r18, r24
    1686:	30 e0       	ldi	r19, 0x00	; 0
    1688:	f9 01       	movw	r30, r18
    168a:	ee 0f       	add	r30, r30
    168c:	ff 1f       	adc	r31, r31
    168e:	e1 51       	subi	r30, 0x11	; 17
    1690:	f7 4c       	sbci	r31, 0xC7	; 199
    1692:	a7 e5       	ldi	r26, 0x57	; 87
    1694:	ba e7       	ldi	r27, 0x7A	; 122
    1696:	a0 83       	st	Z, r26
    1698:	b1 83       	std	Z+1, r27	; 0x01
    reactStr[1][number]=length;
    169a:	f9 01       	movw	r30, r18
    169c:	ee 0f       	add	r30, r30
    169e:	ff 1f       	adc	r31, r31
    16a0:	e1 5d       	subi	r30, 0xD1	; 209
    16a2:	f6 4c       	sbci	r31, 0xC6	; 198
    16a4:	60 83       	st	Z, r22
    16a6:	71 83       	std	Z+1, r23	; 0x01
    reactStr[2][number]=type;
    16a8:	22 0f       	add	r18, r18
    16aa:	33 1f       	adc	r19, r19
    16ac:	f9 01       	movw	r30, r18
    16ae:	e1 59       	subi	r30, 0x91	; 145
    16b0:	f6 4c       	sbci	r31, 0xC6	; 198
    16b2:	40 83       	st	Z, r20
    16b4:	51 83       	std	Z+1, r21	; 0x01
    SetResponse(custStrEnd++, A_LF, 2, TEASER);
    SetResponse(custStrEnd++, A_PROMPT, L_PROMPT, TEASER);
    //SetResponse(custStrEnd++, A_SPACE, L_SPACE, TEASER);

    return custStrEnd;
}
    16b6:	8b 5f       	subi	r24, 0xFB	; 251
    16b8:	df 91       	pop	r29
    16ba:	cf 91       	pop	r28
    16bc:	08 95       	ret

000016be <PopulateObject>:

//Get all the relevant data and string addresses of an object
void PopulateObject(uint16_t offset, object_model_t *object){
    16be:	af 92       	push	r10
    16c0:	bf 92       	push	r11
    16c2:	df 92       	push	r13
    16c4:	ef 92       	push	r14
    16c6:	ff 92       	push	r15
    16c8:	0f 93       	push	r16
    16ca:	1f 93       	push	r17
    16cc:	cf 93       	push	r28
    16ce:	df 93       	push	r29
    16d0:	cd b7       	in	r28, 0x3d	; 61
    16d2:	de b7       	in	r29, 0x3e	; 62
    16d4:	2c 97       	sbiw	r28, 0x0c	; 12
    16d6:	cd bf       	out	0x3d, r28	; 61
    16d8:	de bf       	out	0x3e, r29	; 62
    16da:	7c 01       	movw	r14, r24
    16dc:	8b 01       	movw	r16, r22
    uint16_t parStr;
    offset += L_BOILER;

    //Fill things with fixed distance to offset
    uint8_t data[OFF_STRINGFLDS];
    ExtEERead(offset, OFF_STRINGFLDS, GAME, &data[0]);
    16de:	9e 01       	movw	r18, r28
    16e0:	2f 5f       	subi	r18, 0xFF	; 255
    16e2:	3f 4f       	sbci	r19, 0xFF	; 255
    16e4:	40 e0       	ldi	r20, 0x00	; 0
    16e6:	6c e0       	ldi	r22, 0x0C	; 12
    16e8:	80 96       	adiw	r24, 0x20	; 32
    16ea:	de de       	rcall	.-580    	; 0x14a8 <ExtEERead>
    object->addrNextObj = (data[OFF_NEXTOBJ]<<8|data[OFF_NEXTOBJ+1])+L_BOILER;
    16ec:	89 81       	ldd	r24, Y+1	; 0x01
    16ee:	9a 81       	ldd	r25, Y+2	; 0x02
    16f0:	98 27       	eor	r25, r24
    16f2:	89 27       	eor	r24, r25
    16f4:	98 27       	eor	r25, r24
    16f6:	80 96       	adiw	r24, 0x20	; 32
    16f8:	f8 01       	movw	r30, r16
    16fa:	80 83       	st	Z, r24
    16fc:	91 83       	std	Z+1, r25	; 0x01
    object->addrNextLvl = (data[OFF_NEXTLVL]<<8|data[OFF_NEXTLVL+1])+L_BOILER;
    16fe:	8b 81       	ldd	r24, Y+3	; 0x03
    1700:	9c 81       	ldd	r25, Y+4	; 0x04
    1702:	98 27       	eor	r25, r24
    1704:	89 27       	eor	r24, r25
    1706:	98 27       	eor	r25, r24
    1708:	80 96       	adiw	r24, 0x20	; 32
    170a:	82 83       	std	Z+2, r24	; 0x02
    170c:	93 83       	std	Z+3, r25	; 0x03
    170e:	de 01       	movw	r26, r28
    1710:	15 96       	adiw	r26, 0x05	; 5
    1712:	34 96       	adiw	r30, 0x04	; 4
    1714:	c8 01       	movw	r24, r16
    1716:	0c 96       	adiw	r24, 0x0c	; 12
    for (uint8_t x=0; x<BYTE_FIELDS_LEN; ++x){
        object->byteField[x]=data[x+OFF_BYTEFLDS];
    1718:	2d 91       	ld	r18, X+
    171a:	21 93       	st	Z+, r18
    //Fill things with fixed distance to offset
    uint8_t data[OFF_STRINGFLDS];
    ExtEERead(offset, OFF_STRINGFLDS, GAME, &data[0]);
    object->addrNextObj = (data[OFF_NEXTOBJ]<<8|data[OFF_NEXTOBJ+1])+L_BOILER;
    object->addrNextLvl = (data[OFF_NEXTLVL]<<8|data[OFF_NEXTLVL+1])+L_BOILER;
    for (uint8_t x=0; x<BYTE_FIELDS_LEN; ++x){
    171c:	e8 17       	cp	r30, r24
    171e:	f9 07       	cpc	r31, r25
    1720:	d9 f7       	brne	.-10     	; 0x1718 <PopulateObject+0x5a>
        object->byteField[x]=data[x+OFF_BYTEFLDS];
    }

    //Find out where all of the strings begin and how long they are
    offset += OFF_STRINGFLDS;
    1722:	fc e2       	ldi	r31, 0x2C	; 44
    1724:	ef 0e       	add	r14, r31
    1726:	f1 1c       	adc	r15, r1
    1728:	58 01       	movw	r10, r16
    for(uint8_t x=0; x<STRING_FIELDS_LEN; ++x){
    172a:	d1 2c       	mov	r13, r1
        
        //Determine length
        ExtEERead(offset, 3, GAME, &data[0]);
    172c:	9e 01       	movw	r18, r28
    172e:	2f 5f       	subi	r18, 0xFF	; 255
    1730:	3f 4f       	sbci	r19, 0xFF	; 255
    1732:	40 e0       	ldi	r20, 0x00	; 0
    1734:	63 e0       	ldi	r22, 0x03	; 3
    1736:	c7 01       	movw	r24, r14
    1738:	b7 de       	rcall	.-658    	; 0x14a8 <ExtEERead>
    173a:	89 81       	ldd	r24, Y+1	; 0x01
    173c:	9a 81       	ldd	r25, Y+2	; 0x02
    173e:	98 27       	eor	r25, r24
    1740:	89 27       	eor	r24, r25
    1742:	98 27       	eor	r25, r24
        parStr = (data[0]<<8|data[1]);
        offset += 2;
    1744:	97 01       	movw	r18, r14
    1746:	2e 5f       	subi	r18, 0xFE	; 254
    1748:	3f 4f       	sbci	r19, 0xFF	; 255
        if (x >= OPEN_ACL_MSG){
    174a:	43 e0       	ldi	r20, 0x03	; 3
    174c:	4d 15       	cp	r20, r13
    174e:	80 f4       	brcc	.+32     	; 0x1770 <PopulateObject+0xb2>
            object->lenStr[x]= parStr-1;
    1750:	ac 01       	movw	r20, r24
    1752:	41 50       	subi	r20, 0x01	; 1
    1754:	51 09       	sbc	r21, r1
    1756:	f8 01       	movw	r30, r16
    1758:	42 8f       	std	Z+26, r20	; 0x1a
    175a:	53 8f       	std	Z+27, r21	; 0x1b
            object->addrStr[x]=offset+1;
    175c:	f3 e0       	ldi	r31, 0x03	; 3
    175e:	ef 0e       	add	r14, r31
    1760:	f1 1c       	adc	r15, r1
    1762:	f8 01       	movw	r30, r16
    1764:	e4 86       	std	Z+12, r14	; 0x0c
    1766:	f5 86       	std	Z+13, r15	; 0x0d
            object->effect[x-OPEN_ACL_MSG] = data[2];
    1768:	4b 81       	ldd	r20, Y+3	; 0x03
    176a:	f5 01       	movw	r30, r10
    176c:	44 a3       	std	Z+36, r20	; 0x24
    176e:	05 c0       	rjmp	.+10     	; 0x177a <PopulateObject+0xbc>
        } else {
            object->lenStr[x]= parStr;
    1770:	f8 01       	movw	r30, r16
    1772:	82 8f       	std	Z+26, r24	; 0x1a
    1774:	93 8f       	std	Z+27, r25	; 0x1b
            object->addrStr[x]=offset;
    1776:	24 87       	std	Z+12, r18	; 0x0c
    1778:	35 87       	std	Z+13, r19	; 0x0d
        }
        
        //Determine string start location for next field
        offset += parStr;
    177a:	7c 01       	movw	r14, r24
    177c:	e2 0e       	add	r14, r18
    177e:	f3 1e       	adc	r15, r19
        object->byteField[x]=data[x+OFF_BYTEFLDS];
    }

    //Find out where all of the strings begin and how long they are
    offset += OFF_STRINGFLDS;
    for(uint8_t x=0; x<STRING_FIELDS_LEN; ++x){
    1780:	d3 94       	inc	r13
    1782:	0e 5f       	subi	r16, 0xFE	; 254
    1784:	1f 4f       	sbci	r17, 0xFF	; 255
    1786:	ff ef       	ldi	r31, 0xFF	; 255
    1788:	af 1a       	sub	r10, r31
    178a:	bf 0a       	sbc	r11, r31
    178c:	47 e0       	ldi	r20, 0x07	; 7
    178e:	d4 12       	cpse	r13, r20
    1790:	cd cf       	rjmp	.-102    	; 0x172c <PopulateObject+0x6e>
        }
        
        //Determine string start location for next field
        offset += parStr;
    }    
}
    1792:	2c 96       	adiw	r28, 0x0c	; 12
    1794:	cd bf       	out	0x3d, r28	; 61
    1796:	de bf       	out	0x3e, r29	; 62
    1798:	df 91       	pop	r29
    179a:	cf 91       	pop	r28
    179c:	1f 91       	pop	r17
    179e:	0f 91       	pop	r16
    17a0:	ff 90       	pop	r15
    17a2:	ef 90       	pop	r14
    17a4:	df 90       	pop	r13
    17a6:	bf 90       	pop	r11
    17a8:	af 90       	pop	r10
    17aa:	08 95       	ret

000017ac <CheckLetter>:

//Check if the entered letter corresponds with a name
uint8_t CheckLetter(uint16_t object, uint8_t letter){
    17ac:	cf 92       	push	r12
    17ae:	df 92       	push	r13
    17b0:	ef 92       	push	r14
    17b2:	ff 92       	push	r15
    17b4:	0f 93       	push	r16
    17b6:	1f 93       	push	r17
    17b8:	cf 93       	push	r28
    17ba:	df 93       	push	r29
    17bc:	cd b7       	in	r28, 0x3d	; 61
    17be:	de b7       	in	r29, 0x3e	; 62
    17c0:	a0 97       	sbiw	r28, 0x20	; 32
    17c2:	cd bf       	out	0x3d, r28	; 61
    17c4:	de bf       	out	0x3e, r29	; 62
    17c6:	c6 2e       	mov	r12, r22
    
    uint8_t found = 0;
    uint8_t data[32];

    object += L_BOILER;
    17c8:	7c 01       	movw	r14, r24
    17ca:	20 e2       	ldi	r18, 0x20	; 32
    17cc:	e2 0e       	add	r14, r18
    17ce:	f1 1c       	adc	r15, r1
    ExtEERead(object+OFF_STRINGFLDS, 2, GAME, &data[0]);
    17d0:	9e 01       	movw	r18, r28
    17d2:	2f 5f       	subi	r18, 0xFF	; 255
    17d4:	3f 4f       	sbci	r19, 0xFF	; 255
    17d6:	40 e0       	ldi	r20, 0x00	; 0
    17d8:	62 e0       	ldi	r22, 0x02	; 2
    17da:	8c 96       	adiw	r24, 0x2c	; 44
    17dc:	65 de       	rcall	.-822    	; 0x14a8 <ExtEERead>
    uint8_t x = data[1]; //Assuming a name is not longer than 255 characters.
    17de:	1a 81       	ldd	r17, Y+2	; 0x02
}

//Check if the entered letter corresponds with a name
uint8_t CheckLetter(uint16_t object, uint8_t letter){
    
    uint8_t found = 0;
    17e0:	d1 2c       	mov	r13, r1

    object += L_BOILER;
    ExtEERead(object+OFF_STRINGFLDS, 2, GAME, &data[0]);
    uint8_t x = data[1]; //Assuming a name is not longer than 255 characters.

    while (x){
    17e2:	11 23       	and	r17, r17
    17e4:	51 f1       	breq	.+84     	; 0x183a <CheckLetter+0x8e>
    17e6:	01 2f       	mov	r16, r17
    17e8:	11 32       	cpi	r17, 0x21	; 33
    17ea:	08 f0       	brcs	.+2      	; 0x17ee <CheckLetter+0x42>
    17ec:	00 e2       	ldi	r16, 0x20	; 32
        uint8_t max;
        if (x>32) max = 32; else max = x;
        ExtEERead(object+OFF_STRINGFLDS+2, max, GAME, &data[0]);
    17ee:	9e 01       	movw	r18, r28
    17f0:	2f 5f       	subi	r18, 0xFF	; 255
    17f2:	3f 4f       	sbci	r19, 0xFF	; 255
    17f4:	40 e0       	ldi	r20, 0x00	; 0
    17f6:	60 2f       	mov	r22, r16
    17f8:	c7 01       	movw	r24, r14
    17fa:	0e 96       	adiw	r24, 0x0e	; 14
    17fc:	55 de       	rcall	.-854    	; 0x14a8 <ExtEERead>
    17fe:	fe 01       	movw	r30, r28
    1800:	31 96       	adiw	r30, 0x01	; 1
        for (uint8_t y=0; y<max; ++y){
    1802:	80 e0       	ldi	r24, 0x00	; 0
            if (found){
    1804:	dd 20       	and	r13, r13
    1806:	61 f0       	breq	.+24     	; 0x1820 <CheckLetter+0x74>
                if ((data[y]|0x20) == letter) return 1; else return 0;
    1808:	e1 e0       	ldi	r30, 0x01	; 1
    180a:	f0 e0       	ldi	r31, 0x00	; 0
    180c:	ec 0f       	add	r30, r28
    180e:	fd 1f       	adc	r31, r29
    1810:	e8 0f       	add	r30, r24
    1812:	f1 1d       	adc	r31, r1
    1814:	90 81       	ld	r25, Z
    1816:	90 62       	ori	r25, 0x20	; 32
    1818:	81 e0       	ldi	r24, 0x01	; 1
    181a:	9c 11       	cpse	r25, r12
    181c:	0e c0       	rjmp	.+28     	; 0x183a <CheckLetter+0x8e>
    181e:	0e c0       	rjmp	.+28     	; 0x183c <CheckLetter+0x90>
            }
            if (data[y] == '[') found = 1;
    1820:	91 91       	ld	r25, Z+
    1822:	dd 24       	eor	r13, r13
    1824:	d3 94       	inc	r13
    1826:	9b 35       	cpi	r25, 0x5B	; 91
    1828:	09 f0       	breq	.+2      	; 0x182c <CheckLetter+0x80>
    182a:	d1 2c       	mov	r13, r1

    while (x){
        uint8_t max;
        if (x>32) max = 32; else max = x;
        ExtEERead(object+OFF_STRINGFLDS+2, max, GAME, &data[0]);
        for (uint8_t y=0; y<max; ++y){
    182c:	8f 5f       	subi	r24, 0xFF	; 255
    182e:	80 17       	cp	r24, r16
    1830:	48 f3       	brcs	.-46     	; 0x1804 <CheckLetter+0x58>
            if (found){
                if ((data[y]|0x20) == letter) return 1; else return 0;
            }
            if (data[y] == '[') found = 1;
        }
        object += max;
    1832:	e0 0e       	add	r14, r16
    1834:	f1 1c       	adc	r15, r1
        x -= max;
    1836:	10 1b       	sub	r17, r16
    1838:	d4 cf       	rjmp	.-88     	; 0x17e2 <CheckLetter+0x36>
    }
    return 0;
    183a:	80 e0       	ldi	r24, 0x00	; 0
}
    183c:	a0 96       	adiw	r28, 0x20	; 32
    183e:	cd bf       	out	0x3d, r28	; 61
    1840:	de bf       	out	0x3e, r29	; 62
    1842:	df 91       	pop	r29
    1844:	cf 91       	pop	r28
    1846:	1f 91       	pop	r17
    1848:	0f 91       	pop	r16
    184a:	ff 90       	pop	r15
    184c:	ef 90       	pop	r14
    184e:	df 90       	pop	r13
    1850:	cf 90       	pop	r12
    1852:	08 95       	ret

00001854 <FindChild>:

//Returns the child's address if the child is visible and the search letter matches
uint16_t FindChild(uint16_t parent, uint8_t letter, uint16_t start){
    1854:	af 92       	push	r10
    1856:	bf 92       	push	r11
    1858:	df 92       	push	r13
    185a:	ef 92       	push	r14
    185c:	ff 92       	push	r15
    185e:	0f 93       	push	r16
    1860:	1f 93       	push	r17
    1862:	cf 93       	push	r28
    1864:	df 93       	push	r29
    1866:	00 d0       	rcall	.+0      	; 0x1868 <FindChild+0x14>
    1868:	00 d0       	rcall	.+0      	; 0x186a <FindChild+0x16>
    186a:	cd b7       	in	r28, 0x3d	; 61
    186c:	de b7       	in	r29, 0x3e	; 62
    186e:	d6 2e       	mov	r13, r22
    1870:	5a 01       	movw	r10, r20
    
    uint16_t child = parent;
    uint8_t data[4];

    ExtEERead(child+L_BOILER, 4, GAME, &data[0]);
    1872:	9e 01       	movw	r18, r28
    1874:	2f 5f       	subi	r18, 0xFF	; 255
    1876:	3f 4f       	sbci	r19, 0xFF	; 255
    1878:	40 e0       	ldi	r20, 0x00	; 0
    187a:	64 e0       	ldi	r22, 0x04	; 4
    187c:	80 96       	adiw	r24, 0x20	; 32
    187e:	14 de       	rcall	.-984    	; 0x14a8 <ExtEERead>
    1880:	e9 80       	ldd	r14, Y+1	; 0x01
    1882:	fa 80       	ldd	r15, Y+2	; 0x02
    1884:	fe 24       	eor	r15, r14
    1886:	ef 24       	eor	r14, r15
    1888:	fe 24       	eor	r15, r14
    188a:	0b 81       	ldd	r16, Y+3	; 0x03
    188c:	1c 81       	ldd	r17, Y+4	; 0x04
    188e:	10 27       	eor	r17, r16
    1890:	01 27       	eor	r16, r17
    1892:	10 27       	eor	r17, r16
    parent = (data[0]<<8|data[1]);    //Next object on parent level
    child =  (data[2]<<8|data[3]);    //First object on child level

    //As long as the child is within the parent's range
    while (parent>child){
    1894:	0e 15       	cp	r16, r14
    1896:	1f 05       	cpc	r17, r15
    1898:	30 f5       	brcc	.+76     	; 0x18e6 <FindChild+0x92>

        //If child's address is higher than the start address, perform search for letter
        if (child>start){
    189a:	a0 16       	cp	r10, r16
    189c:	b1 06       	cpc	r11, r17
    189e:	58 f0       	brcs	.+22     	; 0x18b6 <FindChild+0x62>
                if ((letter == 0)||(CheckLetter(child, letter))) return child;
            }
        }

        //Not visible or name not right
        ExtEERead(child+L_BOILER, 2, GAME, &data[0]);
    18a0:	9e 01       	movw	r18, r28
    18a2:	2f 5f       	subi	r18, 0xFF	; 255
    18a4:	3f 4f       	sbci	r19, 0xFF	; 255
    18a6:	40 e0       	ldi	r20, 0x00	; 0
    18a8:	62 e0       	ldi	r22, 0x02	; 2
    18aa:	c8 01       	movw	r24, r16
    18ac:	80 96       	adiw	r24, 0x20	; 32
    18ae:	fc dd       	rcall	.-1032   	; 0x14a8 <ExtEERead>
    18b0:	09 81       	ldd	r16, Y+1	; 0x01
    18b2:	1a 81       	ldd	r17, Y+2	; 0x02
    18b4:	ec cf       	rjmp	.-40     	; 0x188e <FindChild+0x3a>
    //As long as the child is within the parent's range
    while (parent>child){

        //If child's address is higher than the start address, perform search for letter
        if (child>start){
            ExtEERead(child+OFF_BYTEFLDS+VISIBLE_ACL+L_BOILER, 1, GAME, &data[0]);
    18b6:	9e 01       	movw	r18, r28
    18b8:	2f 5f       	subi	r18, 0xFF	; 255
    18ba:	3f 4f       	sbci	r19, 0xFF	; 255
    18bc:	40 e0       	ldi	r20, 0x00	; 0
    18be:	61 e0       	ldi	r22, 0x01	; 1
    18c0:	c8 01       	movw	r24, r16
    18c2:	85 96       	adiw	r24, 0x25	; 37
    18c4:	f1 dd       	rcall	.-1054   	; 0x14a8 <ExtEERead>
            if ((data[0] == 0)||(CheckState(data[0]))) {
    18c6:	89 81       	ldd	r24, Y+1	; 0x01
    18c8:	81 11       	cpse	r24, r1
    18ca:	03 c0       	rjmp	.+6      	; 0x18d2 <FindChild+0x7e>
                if ((letter == 0)||(CheckLetter(child, letter))) return child;
    18cc:	d1 10       	cpse	r13, r1
    18ce:	05 c0       	rjmp	.+10     	; 0x18da <FindChild+0x86>
    while (parent>child){

        //If child's address is higher than the start address, perform search for letter
        if (child>start){
            ExtEERead(child+OFF_BYTEFLDS+VISIBLE_ACL+L_BOILER, 1, GAME, &data[0]);
            if ((data[0] == 0)||(CheckState(data[0]))) {
    18d0:	0d c0       	rjmp	.+26     	; 0x18ec <FindChild+0x98>
    18d2:	72 dc       	rcall	.-1820   	; 0x11b8 <CheckState>
    18d4:	81 11       	cpse	r24, r1
    18d6:	fa cf       	rjmp	.-12     	; 0x18cc <FindChild+0x78>
                if ((letter == 0)||(CheckLetter(child, letter))) return child;
    18d8:	e3 cf       	rjmp	.-58     	; 0x18a0 <FindChild+0x4c>
    18da:	6d 2d       	mov	r22, r13
    18dc:	c8 01       	movw	r24, r16
    18de:	66 df       	rcall	.-308    	; 0x17ac <CheckLetter>
    18e0:	88 23       	and	r24, r24
    18e2:	f1 f2       	breq	.-68     	; 0x18a0 <FindChild+0x4c>
    18e4:	03 c0       	rjmp	.+6      	; 0x18ec <FindChild+0x98>

        //Not visible or name not right
        ExtEERead(child+L_BOILER, 2, GAME, &data[0]);
        child = (data[0]<<8|data[1]);    //Next object on child level
        
    } return 0;
    18e6:	80 e0       	ldi	r24, 0x00	; 0
    18e8:	90 e0       	ldi	r25, 0x00	; 0
    18ea:	01 c0       	rjmp	.+2      	; 0x18ee <FindChild+0x9a>
    18ec:	c8 01       	movw	r24, r16
}
    18ee:	24 96       	adiw	r28, 0x04	; 4
    18f0:	cd bf       	out	0x3d, r28	; 61
    18f2:	de bf       	out	0x3e, r29	; 62
    18f4:	df 91       	pop	r29
    18f6:	cf 91       	pop	r28
    18f8:	1f 91       	pop	r17
    18fa:	0f 91       	pop	r16
    18fc:	ff 90       	pop	r15
    18fe:	ef 90       	pop	r14
    1900:	df 90       	pop	r13
    1902:	bf 90       	pop	r11
    1904:	af 90       	pop	r10
    1906:	08 95       	ret

00001908 <InpOkChk>:

//Allow only a(A) to z(Z) and 0 to 9 as input
uint8_t InpOkChk(uint8_t test){
    test |= 0x20;
    1908:	80 62       	ori	r24, 0x20	; 32
    if ((test>='a')&&(test<='z')) return 1;
    190a:	9f e9       	ldi	r25, 0x9F	; 159
    190c:	98 0f       	add	r25, r24
    190e:	9a 31       	cpi	r25, 0x1A	; 26
    1910:	38 f0       	brcs	.+14     	; 0x1920 <InpOkChk+0x18>
    1912:	90 ed       	ldi	r25, 0xD0	; 208
    1914:	98 0f       	add	r25, r24
    1916:	81 e0       	ldi	r24, 0x01	; 1
    1918:	9a 30       	cpi	r25, 0x0A	; 10
    191a:	18 f0       	brcs	.+6      	; 0x1922 <InpOkChk+0x1a>
    191c:	80 e0       	ldi	r24, 0x00	; 0
    191e:	08 95       	ret
    1920:	81 e0       	ldi	r24, 0x01	; 1
    if ((test>='0')&&(test<='9')) return 1;
    return 0;
}
    1922:	08 95       	ret

00001924 <CleanInput>:

//Cleans input of garbage and returns length of cleaned input "o->d2  !\0" becomes "od2\0"
uint8_t CleanInput(uint8_t *data){
    1924:	0f 93       	push	r16
    1926:	1f 93       	push	r17
    1928:	cf 93       	push	r28
    192a:	df 93       	push	r29
    192c:	8c 01       	movw	r16, r24
    uint8_t cnt = 0;
    for (uint8_t x=0; data[x]!=0; ++x){
    192e:	d0 e0       	ldi	r29, 0x00	; 0
    return 0;
}

//Cleans input of garbage and returns length of cleaned input "o->d2  !\0" becomes "od2\0"
uint8_t CleanInput(uint8_t *data){
    uint8_t cnt = 0;
    1930:	c0 e0       	ldi	r28, 0x00	; 0
    for (uint8_t x=0; data[x]!=0; ++x){
    1932:	f8 01       	movw	r30, r16
    1934:	ed 0f       	add	r30, r29
    1936:	f1 1d       	adc	r31, r1
    1938:	20 81       	ld	r18, Z
    193a:	8c 2f       	mov	r24, r28
    193c:	90 e0       	ldi	r25, 0x00	; 0
    193e:	22 23       	and	r18, r18
    1940:	51 f0       	breq	.+20     	; 0x1956 <CleanInput+0x32>
        data[cnt] = data[x];
    1942:	d8 01       	movw	r26, r16
    1944:	a8 0f       	add	r26, r24
    1946:	b9 1f       	adc	r27, r25
    1948:	2c 93       	st	X, r18
        if (InpOkChk(data[x])) ++cnt;
    194a:	80 81       	ld	r24, Z
    194c:	dd df       	rcall	.-70     	; 0x1908 <InpOkChk>
    194e:	81 11       	cpse	r24, r1
    1950:	cf 5f       	subi	r28, 0xFF	; 255
}

//Cleans input of garbage and returns length of cleaned input "o->d2  !\0" becomes "od2\0"
uint8_t CleanInput(uint8_t *data){
    uint8_t cnt = 0;
    for (uint8_t x=0; data[x]!=0; ++x){
    1952:	df 5f       	subi	r29, 0xFF	; 255
    1954:	ee cf       	rjmp	.-36     	; 0x1932 <CleanInput+0xe>
        data[cnt] = data[x];
        if (InpOkChk(data[x])) ++cnt;
    }
    data[cnt] = 0;
    1956:	f8 01       	movw	r30, r16
    1958:	e8 0f       	add	r30, r24
    195a:	f9 1f       	adc	r31, r25
    195c:	10 82       	st	Z, r1
    return cnt;
}
    195e:	8c 2f       	mov	r24, r28
    1960:	df 91       	pop	r29
    1962:	cf 91       	pop	r28
    1964:	1f 91       	pop	r17
    1966:	0f 91       	pop	r16
    1968:	08 95       	ret

0000196a <CheckSend>:

//Send routine, optimized for low memory usage
uint8_t CheckSend(){
    196a:	cf 93       	push	r28
    static uint8_t txPart;
    uint8_t EEreadLength=0;

    //Check if more string(part)s have to be sent to the serial output if previous send operation is completed
    if ((txAddrNow < TXLISTLEN) && serTxDone){
    196c:	20 91 1b 3a 	lds	r18, 0x3A1B	; 0x803a1b <txAddrNow>
    1970:	28 30       	cpi	r18, 0x08	; 8
    1972:	08 f0       	brcs	.+2      	; 0x1976 <CheckSend+0xc>
    1974:	47 c0       	rjmp	.+142    	; 0x1a04 <CheckSend+0x9a>
    1976:	80 91 08 38 	lds	r24, 0x3808	; 0x803808 <serTxDone>
    197a:	88 23       	and	r24, r24
    197c:	09 f4       	brne	.+2      	; 0x1980 <CheckSend+0x16>
    197e:	42 c0       	rjmp	.+132    	; 0x1a04 <CheckSend+0x9a>
        if (txStrLen[txAddrNow] == 0){
    1980:	82 2f       	mov	r24, r18
    1982:	90 e0       	ldi	r25, 0x00	; 0
    1984:	fc 01       	movw	r30, r24
    1986:	e4 5e       	subi	r30, 0xE4	; 228
    1988:	f5 4c       	sbci	r31, 0xC5	; 197
    198a:	e0 81       	ld	r30, Z
    198c:	e1 11       	cpse	r30, r1
    198e:	06 c0       	rjmp	.+12     	; 0x199c <CheckSend+0x32>
            txPart = 0;
    1990:	10 92 dc 38 	sts	0x38DC, r1	; 0x8038dc <txPart.3935>
            txAddrNow = TXLISTLEN;
    1994:	88 e0       	ldi	r24, 0x08	; 8
    1996:	80 93 1b 3a 	sts	0x3A1B, r24	; 0x803a1b <txAddrNow>
    199a:	2c c0       	rjmp	.+88     	; 0x19f4 <CheckSend+0x8a>
        } else if (txPart < txStrLen[txAddrNow]){
    199c:	50 91 dc 38 	lds	r21, 0x38DC	; 0x8038dc <txPart.3935>
    19a0:	5e 17       	cp	r21, r30
    19a2:	50 f5       	brcc	.+84     	; 0x19f8 <CheckSend+0x8e>
            EEreadLength = txStrLen[txAddrNow]-txPart;
    19a4:	ce 2f       	mov	r28, r30
    19a6:	c5 1b       	sub	r28, r21
    19a8:	c1 32       	cpi	r28, 0x21	; 33
    19aa:	08 f0       	brcs	.+2      	; 0x19ae <CheckSend+0x44>
    19ac:	c0 e2       	ldi	r28, 0x20	; 32
            if (EEreadLength>=TXLEN) EEreadLength = TXLEN-1;
            ExtEERead(txAddrList[txAddrNow]+txPart, EEreadLength, txTypeNow, &txBuffer[0]);
    19ae:	88 0f       	add	r24, r24
    19b0:	99 1f       	adc	r25, r25
    19b2:	fc 01       	movw	r30, r24
    19b4:	ec 5d       	subi	r30, 0xDC	; 220
    19b6:	f5 4c       	sbci	r31, 0xC5	; 197
    19b8:	80 81       	ld	r24, Z
    19ba:	91 81       	ldd	r25, Z+1	; 0x01
    19bc:	25 ee       	ldi	r18, 0xE5	; 229
    19be:	3a e3       	ldi	r19, 0x3A	; 58
    19c0:	40 91 1a 3a 	lds	r20, 0x3A1A	; 0x803a1a <txTypeNow>
    19c4:	6c 2f       	mov	r22, r28
    19c6:	85 0f       	add	r24, r21
    19c8:	91 1d       	adc	r25, r1
    19ca:	6e dd       	rcall	.-1316   	; 0x14a8 <ExtEERead>
            txPart += EEreadLength;
    19cc:	80 91 dc 38 	lds	r24, 0x38DC	; 0x8038dc <txPart.3935>
    19d0:	8c 0f       	add	r24, r28
    19d2:	80 93 dc 38 	sts	0x38DC, r24	; 0x8038dc <txPart.3935>
            txBuffer[EEreadLength] = 0; //Add string terminator after piece to send to plug memory leak
    19d6:	ec 2f       	mov	r30, r28
    19d8:	f0 e0       	ldi	r31, 0x00	; 0
    19da:	eb 51       	subi	r30, 0x1B	; 27
    19dc:	f5 4c       	sbci	r31, 0xC5	; 197
    19de:	10 82       	st	Z, r1
            if ((txBuffer[0] == 0) && (EEreadLength)) txBuffer[0] = 0xDB; //Block character when data wrong.
    19e0:	80 91 e5 3a 	lds	r24, 0x3AE5	; 0x803ae5 <txBuffer>
    19e4:	81 11       	cpse	r24, r1
    19e6:	03 c0       	rjmp	.+6      	; 0x19ee <CheckSend+0x84>
    19e8:	8b ed       	ldi	r24, 0xDB	; 219
    19ea:	80 93 e5 3a 	sts	0x3AE5, r24	; 0x803ae5 <txBuffer>
            SerSend(&txBuffer[0]);
    19ee:	85 ee       	ldi	r24, 0xE5	; 229
    19f0:	9a e3       	ldi	r25, 0x3A	; 58
    19f2:	43 da       	rcall	.-2938   	; 0xe7a <SerSend>
        } else {
            txPart = 0;
            ++txAddrNow;
        }
    } else if (serTxDone) return 0; //All is sent!
    return 1; //Still sending, do not change the data in the tx variables
    19f4:	81 e0       	ldi	r24, 0x01	; 1
    19f6:	0b c0       	rjmp	.+22     	; 0x1a0e <CheckSend+0xa4>
            txPart += EEreadLength;
            txBuffer[EEreadLength] = 0; //Add string terminator after piece to send to plug memory leak
            if ((txBuffer[0] == 0) && (EEreadLength)) txBuffer[0] = 0xDB; //Block character when data wrong.
            SerSend(&txBuffer[0]);
        } else {
            txPart = 0;
    19f8:	10 92 dc 38 	sts	0x38DC, r1	; 0x8038dc <txPart.3935>
            ++txAddrNow;
    19fc:	2f 5f       	subi	r18, 0xFF	; 255
    19fe:	20 93 1b 3a 	sts	0x3A1B, r18	; 0x803a1b <txAddrNow>
    1a02:	f8 cf       	rjmp	.-16     	; 0x19f4 <CheckSend+0x8a>
        }
    } else if (serTxDone) return 0; //All is sent!
    1a04:	90 91 08 38 	lds	r25, 0x3808	; 0x803808 <serTxDone>
    1a08:	81 e0       	ldi	r24, 0x01	; 1
    1a0a:	91 11       	cpse	r25, r1
    1a0c:	80 e0       	ldi	r24, 0x00	; 0
    return 1; //Still sending, do not change the data in the tx variables
}
    1a0e:	cf 91       	pop	r28
    1a10:	08 95       	ret

00001a12 <CheckResponse>:

//Send another part of the response and play the effect afterwards
uint8_t CheckResponse(){
    1a12:	cf 93       	push	r28
    1a14:	df 93       	push	r29
    static uint8_t number = 0;
    if (responseList){
    1a16:	c0 91 ee 38 	lds	r28, 0x38EE	; 0x8038ee <responseList>
    1a1a:	cc 23       	and	r28, r28
    1a1c:	e9 f1       	breq	.+122    	; 0x1a98 <CheckResponse+0x86>
        --responseList;
    1a1e:	c1 50       	subi	r28, 0x01	; 1
    1a20:	c0 93 ee 38 	sts	0x38EE, r28	; 0x8038ee <responseList>
        if (reactStr[0][number] == CURR_LOC) {
    1a24:	d0 91 db 38 	lds	r29, 0x38DB	; 0x8038db <number.3939>
    1a28:	2d 2f       	mov	r18, r29
    1a2a:	30 e0       	ldi	r19, 0x00	; 0
    1a2c:	f9 01       	movw	r30, r18
    1a2e:	ee 0f       	add	r30, r30
    1a30:	ff 1f       	adc	r31, r31
    1a32:	e1 51       	subi	r30, 0x11	; 17
    1a34:	f7 4c       	sbci	r31, 0xC7	; 199
    1a36:	80 81       	ld	r24, Z
    1a38:	91 81       	ldd	r25, Z+1	; 0x01
    1a3a:	80 3f       	cpi	r24, 0xF0	; 240
    1a3c:	4f ef       	ldi	r20, 0xFF	; 255
    1a3e:	94 07       	cpc	r25, r20
    1a40:	51 f4       	brne	.+20     	; 0x1a56 <CheckResponse+0x44>
            PrepareSending(currObj.addrStr[NAME], currObj.lenStr[NAME], GAME);
    1a42:	60 91 09 3a 	lds	r22, 0x3A09	; 0x803a09 <currObj+0x1a>
    1a46:	70 91 0a 3a 	lds	r23, 0x3A0A	; 0x803a0a <currObj+0x1b>
    1a4a:	40 e0       	ldi	r20, 0x00	; 0
    1a4c:	80 91 fb 39 	lds	r24, 0x39FB	; 0x8039fb <currObj+0xc>
    1a50:	90 91 fc 39 	lds	r25, 0x39FC	; 0x8039fc <currObj+0xd>
    1a54:	0d c0       	rjmp	.+26     	; 0x1a70 <CheckResponse+0x5e>
        } else {
            PrepareSending(reactStr[0][number], reactStr[1][number], reactStr[2][number]);
    1a56:	d9 01       	movw	r26, r18
    1a58:	aa 0f       	add	r26, r26
    1a5a:	bb 1f       	adc	r27, r27
    1a5c:	a1 59       	subi	r26, 0x91	; 145
    1a5e:	b6 4c       	sbci	r27, 0xC6	; 198
    1a60:	22 0f       	add	r18, r18
    1a62:	33 1f       	adc	r19, r19
    1a64:	f9 01       	movw	r30, r18
    1a66:	e1 5d       	subi	r30, 0xD1	; 209
    1a68:	f6 4c       	sbci	r31, 0xC6	; 198
    1a6a:	60 81       	ld	r22, Z
    1a6c:	71 81       	ldd	r23, Z+1	; 0x01
    1a6e:	4c 91       	ld	r20, X
    1a70:	72 dd       	rcall	.-1308   	; 0x1556 <PrepareSending>
        }
        ++number;
    1a72:	df 5f       	subi	r29, 0xFF	; 255
    1a74:	d0 93 db 38 	sts	0x38DB, r29	; 0x8038db <number.3939>

        if (responseList == 0) {
    1a78:	c1 11       	cpse	r28, r1
    1a7a:	0d c0       	rjmp	.+26     	; 0x1a96 <CheckResponse+0x84>
            effect = currObj.byteField[EFFECTS];
    1a7c:	80 91 f3 39 	lds	r24, 0x39F3	; 0x8039f3 <currObj+0x4>
    1a80:	90 e0       	ldi	r25, 0x00	; 0
    1a82:	80 93 2d 38 	sts	0x382D, r24	; 0x80382d <effect>
    1a86:	90 93 2e 38 	sts	0x382E, r25	; 0x80382e <effect+0x1>
            RXCNT = 0;
    1a8a:	1d ba       	out	0x1d, r1	; 29
            serRxDone = 0;
    1a8c:	10 92 37 38 	sts	0x3837, r1	; 0x803837 <serRxDone>
            number = 0;
    1a90:	10 92 db 38 	sts	0x38DB, r1	; 0x8038db <number.3939>
    1a94:	01 c0       	rjmp	.+2      	; 0x1a98 <CheckResponse+0x86>
            return 0;
        }
        return 1;
    1a96:	c1 e0       	ldi	r28, 0x01	; 1
    }
    return 0;
}
    1a98:	8c 2f       	mov	r24, r28
    1a9a:	df 91       	pop	r29
    1a9c:	cf 91       	pop	r28
    1a9e:	08 95       	ret

00001aa0 <CheckInput>:

//User input check (and validation)
uint8_t CheckInput(uint8_t *data){
    1aa0:	4f 92       	push	r4
    1aa2:	5f 92       	push	r5
    1aa4:	6f 92       	push	r6
    1aa6:	7f 92       	push	r7
    1aa8:	8f 92       	push	r8
    1aaa:	9f 92       	push	r9
    1aac:	af 92       	push	r10
    1aae:	bf 92       	push	r11
    1ab0:	cf 92       	push	r12
    1ab2:	df 92       	push	r13
    1ab4:	ef 92       	push	r14
    1ab6:	ff 92       	push	r15
    1ab8:	0f 93       	push	r16
    1aba:	1f 93       	push	r17
    1abc:	cf 93       	push	r28
    1abe:	df 93       	push	r29
    1ac0:	cd b7       	in	r28, 0x3d	; 61
    1ac2:	de b7       	in	r29, 0x3e	; 62
    1ac4:	a1 97       	sbiw	r28, 0x21	; 33
    1ac6:	cd bf       	out	0x3d, r28	; 61
    1ac8:	de bf       	out	0x3e, r29	; 62
    1aca:	8c 01       	movw	r16, r24
    
    //Load game data after reboot
    if (currDepth == 0xff) {
    1acc:	80 91 27 38 	lds	r24, 0x3827	; 0x803827 <currDepth>
    1ad0:	8f 3f       	cpi	r24, 0xFF	; 255
    1ad2:	09 f0       	breq	.+2      	; 0x1ad6 <CheckInput+0x36>
    1ad4:	57 c0       	rjmp	.+174    	; 0x1b84 <CheckInput+0xe4>
        //Load things from EEPROM
        EERead(0, &gameState[0], BOOTCHK);   //Load game status bits from EEPROM
    1ad6:	44 e1       	ldi	r20, 0x14	; 20
    1ad8:	65 e3       	ldi	r22, 0x35	; 53
    1ada:	7a e3       	ldi	r23, 0x3A	; 58
    1adc:	80 e0       	ldi	r24, 0x00	; 0
    1ade:	95 d9       	rcall	.-3286   	; 0xe0a <EERead>
    1ae0:	2e e6       	ldi	r18, 0x6E	; 110
    1ae2:	f2 2e       	mov	r15, r18

        uint8_t idSet = 0;
    1ae4:	e1 2c       	mov	r14, r1
        for (uint8_t x=0; x<4; ++x){
            idSet += ReadStatusBit(110+x);
    1ae6:	8f 2d       	mov	r24, r15
    1ae8:	2f db       	rcall	.-2466   	; 0x1148 <ReadStatusBit>
    1aea:	e8 0e       	add	r14, r24
    1aec:	f3 94       	inc	r15
    if (currDepth == 0xff) {
        //Load things from EEPROM
        EERead(0, &gameState[0], BOOTCHK);   //Load game status bits from EEPROM

        uint8_t idSet = 0;
        for (uint8_t x=0; x<4; ++x){
    1aee:	82 e7       	ldi	r24, 0x72	; 114
    1af0:	f8 12       	cpse	r15, r24
    1af2:	f9 cf       	rjmp	.-14     	; 0x1ae6 <CheckInput+0x46>
            idSet += ReadStatusBit(110+x);
        }

        //Check if badge is reset(0 = cheated!) or new(3) or error(2)
        if (idSet != 1) {
    1af4:	e1 e0       	ldi	r30, 0x01	; 1
    1af6:	ee 16       	cp	r14, r30
            Reset();
    1af8:	11 f0       	breq	.+4      	; 0x1afe <CheckInput+0x5e>
    1afa:	7c db       	rcall	.-2312   	; 0x11f4 <Reset>
        } else getID();
    1afc:	01 c0       	rjmp	.+2      	; 0x1b00 <CheckInput+0x60>
    1afe:	6c db       	rcall	.-2344   	; 0x11d8 <getID>

        inventory[0] = (gameState[INVADDR]<<8|gameState[INVADDR+1]);
    1b00:	80 91 45 3a 	lds	r24, 0x3A45	; 0x803a45 <gameState+0x10>
    1b04:	90 91 46 3a 	lds	r25, 0x3A46	; 0x803a46 <gameState+0x11>
    1b08:	98 27       	eor	r25, r24
    1b0a:	89 27       	eor	r24, r25
    1b0c:	98 27       	eor	r25, r24
    1b0e:	80 93 31 38 	sts	0x3831, r24	; 0x803831 <inventory>
    1b12:	90 93 32 38 	sts	0x3832, r25	; 0x803832 <inventory+0x1>
        inventory[1] = (gameState[INVADDR+2]<<8|gameState[INVADDR+3]);
    1b16:	80 91 47 3a 	lds	r24, 0x3A47	; 0x803a47 <gameState+0x12>
    1b1a:	90 91 48 3a 	lds	r25, 0x3A48	; 0x803a48 <gameState+0x13>
    1b1e:	98 27       	eor	r25, r24
    1b20:	89 27       	eor	r24, r25
    1b22:	98 27       	eor	r25, r24
    1b24:	80 93 33 38 	sts	0x3833, r24	; 0x803833 <inventory+0x2>
    1b28:	90 93 34 38 	sts	0x3834, r25	; 0x803834 <inventory+0x3>
        SaveGameState();
    1b2c:	9a da       	rcall	.-2764   	; 0x1062 <SaveGameState>

        //Start at first location
        PopulateObject(route[0], &currObj);
    1b2e:	6f ee       	ldi	r22, 0xEF	; 239
    1b30:	79 e3       	ldi	r23, 0x39	; 57
    1b32:	80 91 af 39 	lds	r24, 0x39AF	; 0x8039af <route>
    1b36:	90 91 b0 39 	lds	r25, 0x39B0	; 0x8039b0 <route+0x1>
    1b3a:	c1 dd       	rcall	.-1150   	; 0x16be <PopulateObject>
        currDepth = 0;
    1b3c:	10 92 27 38 	sts	0x3827, r1	; 0x803827 <currDepth>

        //Play an effect if configured
        if ((effect < 0x0100) && (effect ^ currObj.byteField[EFFECTS])){
    1b40:	80 91 2d 38 	lds	r24, 0x382D	; 0x80382d <effect>
    1b44:	90 91 2e 38 	lds	r25, 0x382E	; 0x80382e <effect+0x1>
    1b48:	8f 3f       	cpi	r24, 0xFF	; 255
    1b4a:	91 05       	cpc	r25, r1
    1b4c:	09 f0       	breq	.+2      	; 0x1b50 <CheckInput+0xb0>
    1b4e:	d0 f4       	brcc	.+52     	; 0x1b84 <CheckInput+0xe4>
    1b50:	80 91 f3 39 	lds	r24, 0x39F3	; 0x8039f3 <currObj+0x4>
    1b54:	90 e0       	ldi	r25, 0x00	; 0
    1b56:	20 91 2d 38 	lds	r18, 0x382D	; 0x80382d <effect>
    1b5a:	30 91 2e 38 	lds	r19, 0x382E	; 0x80382e <effect+0x1>
    1b5e:	82 17       	cp	r24, r18
    1b60:	93 07       	cpc	r25, r19
    1b62:	81 f0       	breq	.+32     	; 0x1b84 <CheckInput+0xe4>
            effect = currObj.byteField[EFFECTS];
    1b64:	80 93 2d 38 	sts	0x382D, r24	; 0x80382d <effect>
    1b68:	90 93 2e 38 	sts	0x382E, r25	; 0x80382e <effect+0x1>
            auStart = ((effect&0xE0)>0);
    1b6c:	80 91 2d 38 	lds	r24, 0x382D	; 0x80382d <effect>
    1b70:	90 91 2e 38 	lds	r25, 0x382E	; 0x80382e <effect+0x1>
    1b74:	80 7e       	andi	r24, 0xE0	; 224
    1b76:	99 27       	eor	r25, r25
    1b78:	21 e0       	ldi	r18, 0x01	; 1
    1b7a:	89 2b       	or	r24, r25
    1b7c:	09 f4       	brne	.+2      	; 0x1b80 <CheckInput+0xe0>
    1b7e:	20 e0       	ldi	r18, 0x00	; 0
    1b80:	20 93 2c 38 	sts	0x382C, r18	; 0x80382c <auStart>
        }
    }

    if (serRxDone){
    1b84:	80 91 37 38 	lds	r24, 0x3837	; 0x803837 <serRxDone>
    1b88:	88 23       	and	r24, r24
    1b8a:	09 f4       	brne	.+2      	; 0x1b8e <CheckInput+0xee>
    1b8c:	5f c2       	rjmp	.+1214   	; 0x204c <CheckInput+0x5ac>

        //Special input requested from user by game
        if (specialInput[0]){
    1b8e:	80 91 de 38 	lds	r24, 0x38DE	; 0x8038de <specialInput>
    1b92:	88 23       	and	r24, r24
    1b94:	09 f4       	brne	.+2      	; 0x1b98 <CheckInput+0xf8>
    1b96:	57 c0       	rjmp	.+174    	; 0x1c46 <CheckInput+0x1a6>
            specialPassed = 0;
    1b98:	10 92 dd 38 	sts	0x38DD, r1	; 0x8038dd <specialPassed>
            data[0] = 'a';
    1b9c:	81 e6       	ldi	r24, 0x61	; 97
    1b9e:	f8 01       	movw	r30, r16
            
            //Normal code challenge
            if (StartsWith((uint8_t *)&serRx[0], &specialInput[0])) {
    1ba0:	80 83       	st	Z, r24
    1ba2:	6e ed       	ldi	r22, 0xDE	; 222
    1ba4:	78 e3       	ldi	r23, 0x38	; 56
    1ba6:	89 e4       	ldi	r24, 0x49	; 73
    1ba8:	9a e3       	ldi	r25, 0x3A	; 58
    1baa:	bb dc       	rcall	.-1674   	; 0x1522 <StartsWith>
    1bac:	f8 2e       	mov	r15, r24
    1bae:	88 23       	and	r24, r24
    1bb0:	21 f0       	breq	.+8      	; 0x1bba <CheckInput+0x11a>
                specialPassed = 1;
    1bb2:	81 e0       	ldi	r24, 0x01	; 1
    1bb4:	80 93 dd 38 	sts	0x38DD, r24	; 0x8038dd <specialPassed>
    1bb8:	04 c0       	rjmp	.+8      	; 0x1bc2 <CheckInput+0x122>
                //specialInput[0] = 0;
                //data[1] = 0;

            //Special challenge 1
            } else if ((specialInput[0] == '1')&&(specialInput[2] == 0)) {
    1bba:	80 91 de 38 	lds	r24, 0x38DE	; 0x8038de <specialInput>
    1bbe:	81 33       	cpi	r24, 0x31	; 49
    1bc0:	11 f0       	breq	.+4      	; 0x1bc6 <CheckInput+0x126>
                responseList = 32;
                return 1;
            }
        } 
        //Data received, but not any of the commands above
        return 0;
    1bc2:	f1 2c       	mov	r15, r1
                specialPassed = 1;
                //specialInput[0] = 0;
                //data[1] = 0;

            //Special challenge 1
            } else if ((specialInput[0] == '1')&&(specialInput[2] == 0)) {
    1bc4:	45 c2       	rjmp	.+1162   	; 0x2050 <CheckInput+0x5b0>
    1bc6:	80 91 e0 38 	lds	r24, 0x38E0	; 0x8038e0 <specialInput+0x2>
    1bca:	81 11       	cpse	r24, r1
                uint8_t inputLen = CleanInput((uint8_t *)&serRx[0]);
    1bcc:	fa cf       	rjmp	.-12     	; 0x1bc2 <CheckInput+0x122>
    1bce:	89 e4       	ldi	r24, 0x49	; 73
    1bd0:	9a e3       	ldi	r25, 0x3A	; 58
    1bd2:	a8 de       	rcall	.-688    	; 0x1924 <CleanInput>
                specialPassed = 2;
    1bd4:	92 e0       	ldi	r25, 0x02	; 2
    1bd6:	90 93 dd 38 	sts	0x38DD, r25	; 0x8038dd <specialPassed>
                data[1] = 0;
    1bda:	f8 01       	movw	r30, r16
    1bdc:	11 82       	std	Z+1, r1	; 0x01

                if (inputLen >= 2) {
    1bde:	82 30       	cpi	r24, 0x02	; 2
    1be0:	80 f3       	brcs	.-32     	; 0x1bc2 <CheckInput+0x122>
                    if ((serRx[0] == '1')||(serRx[0] == '2')||(serRx[0] == '3')||(serRx[0] == '4')) {
    1be2:	80 91 49 3a 	lds	r24, 0x3A49	; 0x803a49 <serRx>
    1be6:	81 33       	cpi	r24, 0x31	; 49
    1be8:	61 f0       	breq	.+24     	; 0x1c02 <CheckInput+0x162>
    1bea:	80 91 49 3a 	lds	r24, 0x3A49	; 0x803a49 <serRx>
    1bee:	82 33       	cpi	r24, 0x32	; 50
    1bf0:	41 f0       	breq	.+16     	; 0x1c02 <CheckInput+0x162>
    1bf2:	80 91 49 3a 	lds	r24, 0x3A49	; 0x803a49 <serRx>
    1bf6:	83 33       	cpi	r24, 0x33	; 51
    1bf8:	21 f0       	breq	.+8      	; 0x1c02 <CheckInput+0x162>
    1bfa:	80 91 49 3a 	lds	r24, 0x3A49	; 0x803a49 <serRx>
    1bfe:	84 33       	cpi	r24, 0x34	; 52
    1c00:	01 f7       	brne	.-64     	; 0x1bc2 <CheckInput+0x122>
                        serRx[1] |= 0x20;
    1c02:	80 91 4a 3a 	lds	r24, 0x3A4A	; 0x803a4a <serRx+0x1>
    1c06:	80 62       	ori	r24, 0x20	; 32
    1c08:	80 93 4a 3a 	sts	0x3A4A, r24	; 0x803a4a <serRx+0x1>
                        if ((serRx[1] == 'a')||(serRx[1] == 'e')||(serRx[1] == 'f')||(serRx[1] == 'w')) {
    1c0c:	80 91 4a 3a 	lds	r24, 0x3A4A	; 0x803a4a <serRx+0x1>
    1c10:	81 36       	cpi	r24, 0x61	; 97
    1c12:	61 f0       	breq	.+24     	; 0x1c2c <CheckInput+0x18c>
    1c14:	80 91 4a 3a 	lds	r24, 0x3A4A	; 0x803a4a <serRx+0x1>
    1c18:	85 36       	cpi	r24, 0x65	; 101
    1c1a:	41 f0       	breq	.+16     	; 0x1c2c <CheckInput+0x18c>
    1c1c:	80 91 4a 3a 	lds	r24, 0x3A4A	; 0x803a4a <serRx+0x1>
    1c20:	86 36       	cpi	r24, 0x66	; 102
    1c22:	21 f0       	breq	.+8      	; 0x1c2c <CheckInput+0x18c>
    1c24:	80 91 4a 3a 	lds	r24, 0x3A4A	; 0x803a4a <serRx+0x1>
    1c28:	87 37       	cpi	r24, 0x77	; 119
    1c2a:	59 f6       	brne	.-106    	; 0x1bc2 <CheckInput+0x122>
                            data[1] = specialInput[1]+0x11;
    1c2c:	80 91 df 38 	lds	r24, 0x38DF	; 0x8038df <specialInput+0x1>
    1c30:	8f 5e       	subi	r24, 0xEF	; 239
    1c32:	f8 01       	movw	r30, r16
    1c34:	81 83       	std	Z+1, r24	; 0x01
                            data[2] = serRx[0];
    1c36:	80 91 49 3a 	lds	r24, 0x3A49	; 0x803a49 <serRx>
    1c3a:	82 83       	std	Z+2, r24	; 0x02
                            data[3] = serRx[1];
    1c3c:	80 91 4a 3a 	lds	r24, 0x3A4A	; 0x803a4a <serRx+0x1>
    1c40:	83 83       	std	Z+3, r24	; 0x03
                            data[4] = 0;
    1c42:	14 82       	std	Z+4, r1	; 0x04
    1c44:	05 c2       	rjmp	.+1034   	; 0x2050 <CheckInput+0x5b0>
        
        //Normal input
        } else {

            //Change status bit
            if ((serRx[0] == '#')&&(RXCNT == 6)){
    1c46:	80 91 49 3a 	lds	r24, 0x3A49	; 0x803a49 <serRx>
    1c4a:	83 32       	cpi	r24, 0x23	; 35
    1c4c:	81 f5       	brne	.+96     	; 0x1cae <CheckInput+0x20e>
    1c4e:	8d b3       	in	r24, 0x1d	; 29
    1c50:	86 30       	cpi	r24, 0x06	; 6
    1c52:	69 f5       	brne	.+90     	; 0x1cae <CheckInput+0x20e>
    1c54:	81 e0       	ldi	r24, 0x01	; 1
    1c56:	90 e0       	ldi	r25, 0x00	; 0
    1c58:	10 e0       	ldi	r17, 0x00	; 0
                uint8_t bitNr = 0;

                for (uint8_t x=1; x<4; ++x) {
                    serRx[x] -= '0';
    1c5a:	fc 01       	movw	r30, r24
    1c5c:	e7 5b       	subi	r30, 0xB7	; 183
    1c5e:	f5 4c       	sbci	r31, 0xC5	; 197
    1c60:	20 81       	ld	r18, Z
    1c62:	20 53       	subi	r18, 0x30	; 48
    1c64:	20 83       	st	Z, r18
                    bitNr *= 10;
    1c66:	11 0f       	add	r17, r17
    1c68:	21 2f       	mov	r18, r17
    1c6a:	22 0f       	add	r18, r18
    1c6c:	22 0f       	add	r18, r18
    1c6e:	12 0f       	add	r17, r18
                    if (serRx[1] > 2) break;
    1c70:	20 91 4a 3a 	lds	r18, 0x3A4A	; 0x803a4a <serRx+0x1>
    1c74:	23 30       	cpi	r18, 0x03	; 3
    1c76:	48 f4       	brcc	.+18     	; 0x1c8a <CheckInput+0x1ea>
                    if (serRx[x] < 10) {
    1c78:	20 81       	ld	r18, Z
    1c7a:	2a 30       	cpi	r18, 0x0A	; 10
    1c7c:	b0 f4       	brcc	.+44     	; 0x1caa <CheckInput+0x20a>
                        bitNr += serRx[x];
    1c7e:	20 81       	ld	r18, Z
    1c80:	12 0f       	add	r17, r18
    1c82:	01 96       	adiw	r24, 0x01	; 1

            //Change status bit
            if ((serRx[0] == '#')&&(RXCNT == 6)){
                uint8_t bitNr = 0;

                for (uint8_t x=1; x<4; ++x) {
    1c84:	84 30       	cpi	r24, 0x04	; 4
    1c86:	91 05       	cpc	r25, r1
    1c88:	41 f7       	brne	.-48     	; 0x1c5a <CheckInput+0x1ba>
                        continue;
                    }
                    bitNr = 0;
                    break;
                }
                if ((bitNr)&&(bitNr!=128)) {
    1c8a:	81 2f       	mov	r24, r17
    1c8c:	8f 77       	andi	r24, 0x7F	; 127
    1c8e:	69 f0       	breq	.+26     	; 0x1caa <CheckInput+0x20a>
                    if (Cheat(0xff-bitNr, serRx[4]<<8|serRx[5])) UpdateState(bitNr);
    1c90:	80 91 4d 3a 	lds	r24, 0x3A4D	; 0x803a4d <serRx+0x4>
    1c94:	60 91 4e 3a 	lds	r22, 0x3A4E	; 0x803a4e <serRx+0x5>
    1c98:	70 e0       	ldi	r23, 0x00	; 0
    1c9a:	78 2b       	or	r23, r24
    1c9c:	81 2f       	mov	r24, r17
    1c9e:	80 95       	com	r24
    1ca0:	a0 db       	rcall	.-2240   	; 0x13e2 <Cheat>
    1ca2:	88 23       	and	r24, r24
    1ca4:	11 f0       	breq	.+4      	; 0x1caa <CheckInput+0x20a>
    1ca6:	81 2f       	mov	r24, r17
    1ca8:	7d da       	rcall	.-2822   	; 0x11a4 <UpdateState>
                }
                responseList = SetStandardResponse(0);
    1caa:	80 e0       	ldi	r24, 0x00	; 0
    1cac:	50 c0       	rjmp	.+160    	; 0x1d4e <CheckInput+0x2ae>
    1cae:	d8 01       	movw	r26, r16
    1cb0:	80 e0       	ldi	r24, 0x00	; 0
    1cb2:	90 e0       	ldi	r25, 0x00	; 0
                return 1;            
            }
            
            //Read up to the \0 character and convert to lower case.
            for (uint8_t x=0; x<RXLEN; ++x){
                if ((serRx[x]<'A')||(serRx[x]>'Z')) data[x]=serRx[x]; else data[x]=serRx[x]|0x20;
    1cb4:	fc 01       	movw	r30, r24
    1cb6:	e7 5b       	subi	r30, 0xB7	; 183
    1cb8:	f5 4c       	sbci	r31, 0xC5	; 197
    1cba:	20 81       	ld	r18, Z
    1cbc:	21 34       	cpi	r18, 0x41	; 65
    1cbe:	18 f0       	brcs	.+6      	; 0x1cc6 <CheckInput+0x226>
    1cc0:	20 81       	ld	r18, Z
    1cc2:	2b 35       	cpi	r18, 0x5B	; 91
    1cc4:	10 f0       	brcs	.+4      	; 0x1cca <CheckInput+0x22a>
    1cc6:	20 81       	ld	r18, Z
    1cc8:	02 c0       	rjmp	.+4      	; 0x1cce <CheckInput+0x22e>
    1cca:	20 81       	ld	r18, Z
    1ccc:	20 62       	ori	r18, 0x20	; 32
    1cce:	2c 93       	st	X, r18
                if (serRx[x] == 0) {
    1cd0:	20 81       	ld	r18, Z
    1cd2:	21 11       	cpse	r18, r1
    1cd4:	05 c0       	rjmp	.+10     	; 0x1ce0 <CheckInput+0x240>
                    data[x] = 0;
    1cd6:	f8 01       	movw	r30, r16
    1cd8:	e8 0f       	add	r30, r24
    1cda:	f1 1d       	adc	r31, r1
    1cdc:	10 82       	st	Z, r1
                    break;
    1cde:	05 c0       	rjmp	.+10     	; 0x1cea <CheckInput+0x24a>
    1ce0:	01 96       	adiw	r24, 0x01	; 1
    1ce2:	11 96       	adiw	r26, 0x01	; 1
                responseList = SetStandardResponse(0);
                return 1;            
            }
            
            //Read up to the \0 character and convert to lower case.
            for (uint8_t x=0; x<RXLEN; ++x){
    1ce4:	81 34       	cpi	r24, 0x41	; 65
    1ce6:	91 05       	cpc	r25, r1
    1ce8:	29 f7       	brne	.-54     	; 0x1cb4 <CheckInput+0x214>
                    break;
                }
            }

            //No text
            if (serRx[0] == 0){
    1cea:	80 91 49 3a 	lds	r24, 0x3A49	; 0x803a49 <serRx>
                data[0] = 0;
    1cee:	f8 01       	movw	r30, r16
                    break;
                }
            }

            //No text
            if (serRx[0] == 0){
    1cf0:	81 11       	cpse	r24, r1
    1cf2:	05 c0       	rjmp	.+10     	; 0x1cfe <CheckInput+0x25e>
                data[0] = 0;
    1cf4:	10 82       	st	Z, r1
                RXCNT = 0;
    1cf6:	1d ba       	out	0x1d, r1	; 29
                serRxDone = 0;
    1cf8:	10 92 37 38 	sts	0x3837, r1	; 0x803837 <serRxDone>
    1cfc:	a7 c1       	rjmp	.+846    	; 0x204c <CheckInput+0x5ac>
                return 1;
            }

            //Help text
            if ((data[0] == '?')||(data[0] == 'h')){
    1cfe:	80 81       	ld	r24, Z
    1d00:	8f 33       	cpi	r24, 0x3F	; 63
    1d02:	11 f0       	breq	.+4      	; 0x1d08 <CheckInput+0x268>
    1d04:	88 36       	cpi	r24, 0x68	; 104
    1d06:	39 f5       	brne	.+78     	; 0x1d56 <CheckInput+0x2b6>
    return 0;
}

//
void SetResponse(uint8_t number, uint16_t address, uint16_t length, uint8_t type){
    reactStr[0][number]=address;
    1d08:	8b e5       	ldi	r24, 0x5B	; 91
    1d0a:	9a e7       	ldi	r25, 0x7A	; 122
    1d0c:	80 93 ef 38 	sts	0x38EF, r24	; 0x8038ef <reactStr>
    1d10:	90 93 f0 38 	sts	0x38F0, r25	; 0x8038f0 <reactStr+0x1>
    reactStr[1][number]=length;
    1d14:	84 e0       	ldi	r24, 0x04	; 4
    1d16:	90 e0       	ldi	r25, 0x00	; 0
    1d18:	80 93 2f 39 	sts	0x392F, r24	; 0x80392f <reactStr+0x40>
    1d1c:	90 93 30 39 	sts	0x3930, r25	; 0x803930 <reactStr+0x41>
    reactStr[2][number]=type;
    1d20:	81 e0       	ldi	r24, 0x01	; 1
    1d22:	90 e0       	ldi	r25, 0x00	; 0
    1d24:	80 93 6f 39 	sts	0x396F, r24	; 0x80396f <reactStr+0x80>
    1d28:	90 93 70 39 	sts	0x3970, r25	; 0x803970 <reactStr+0x81>
    return 0;
}

//
void SetResponse(uint8_t number, uint16_t address, uint16_t length, uint8_t type){
    reactStr[0][number]=address;
    1d2c:	23 e9       	ldi	r18, 0x93	; 147
    1d2e:	3b e7       	ldi	r19, 0x7B	; 123
    1d30:	20 93 f1 38 	sts	0x38F1, r18	; 0x8038f1 <reactStr+0x2>
    1d34:	30 93 f2 38 	sts	0x38F2, r19	; 0x8038f2 <reactStr+0x3>
    reactStr[1][number]=length;
    1d38:	2d e6       	ldi	r18, 0x6D	; 109
    1d3a:	34 e0       	ldi	r19, 0x04	; 4
    1d3c:	20 93 31 39 	sts	0x3931, r18	; 0x803931 <reactStr+0x42>
    1d40:	30 93 32 39 	sts	0x3932, r19	; 0x803932 <reactStr+0x43>
    reactStr[2][number]=type;
    1d44:	80 93 71 39 	sts	0x3971, r24	; 0x803971 <reactStr+0x82>
    1d48:	90 93 72 39 	sts	0x3972, r25	; 0x803972 <reactStr+0x83>

            //Help text
            if ((data[0] == '?')||(data[0] == 'h')){
                SetResponse(0, A_LF, 4, TEASER);
                SetResponse(1, A_HELP, L_HELP, TEASER);
                responseList = SetStandardResponse(2);
    1d4c:	82 e0       	ldi	r24, 0x02	; 2
    1d4e:	3b dc       	rcall	.-1930   	; 0x15c6 <SetStandardResponse>
    1d50:	80 93 ee 38 	sts	0x38EE, r24	; 0x8038ee <responseList>
    1d54:	7b c1       	rjmp	.+758    	; 0x204c <CheckInput+0x5ac>
                return 1;
            }        
        
            //Alphabet text
            if (data[0] == 'a'){
    1d56:	81 36       	cpi	r24, 0x61	; 97
    1d58:	d9 f4       	brne	.+54     	; 0x1d90 <CheckInput+0x2f0>
    return 0;
}

//
void SetResponse(uint8_t number, uint16_t address, uint16_t length, uint8_t type){
    reactStr[0][number]=address;
    1d5a:	8b e5       	ldi	r24, 0x5B	; 91
    1d5c:	9a e7       	ldi	r25, 0x7A	; 122
    1d5e:	80 93 ef 38 	sts	0x38EF, r24	; 0x8038ef <reactStr>
    1d62:	90 93 f0 38 	sts	0x38F0, r25	; 0x8038f0 <reactStr+0x1>
    reactStr[1][number]=length;
    1d66:	84 e0       	ldi	r24, 0x04	; 4
    1d68:	90 e0       	ldi	r25, 0x00	; 0
    1d6a:	80 93 2f 39 	sts	0x392F, r24	; 0x80392f <reactStr+0x40>
    1d6e:	90 93 30 39 	sts	0x3930, r25	; 0x803930 <reactStr+0x41>
    reactStr[2][number]=type;
    1d72:	81 e0       	ldi	r24, 0x01	; 1
    1d74:	90 e0       	ldi	r25, 0x00	; 0
    1d76:	80 93 6f 39 	sts	0x396F, r24	; 0x80396f <reactStr+0x80>
    1d7a:	90 93 70 39 	sts	0x3970, r25	; 0x803970 <reactStr+0x81>
    return 0;
}

//
void SetResponse(uint8_t number, uint16_t address, uint16_t length, uint8_t type){
    reactStr[0][number]=address;
    1d7e:	2e e6       	ldi	r18, 0x6E	; 110
    1d80:	3a e7       	ldi	r19, 0x7A	; 122
    1d82:	20 93 f1 38 	sts	0x38F1, r18	; 0x8038f1 <reactStr+0x2>
    1d86:	30 93 f2 38 	sts	0x38F2, r19	; 0x8038f2 <reactStr+0x3>
    reactStr[1][number]=length;
    1d8a:	25 e2       	ldi	r18, 0x25	; 37
    1d8c:	31 e0       	ldi	r19, 0x01	; 1
    1d8e:	d6 cf       	rjmp	.-84     	; 0x1d3c <CheckInput+0x29c>
                responseList = SetStandardResponse(2);
                return 1;
            }

            //Whoami text
            if (data[0] == 'w'){
    1d90:	87 37       	cpi	r24, 0x77	; 119
    1d92:	09 f0       	breq	.+2      	; 0x1d96 <CheckInput+0x2f6>
    1d94:	6e c0       	rjmp	.+220    	; 0x1e72 <CheckInput+0x3d2>
    return 0;
}

//
void SetResponse(uint8_t number, uint16_t address, uint16_t length, uint8_t type){
    reactStr[0][number]=address;
    1d96:	8b e5       	ldi	r24, 0x5B	; 91
    1d98:	9a e7       	ldi	r25, 0x7A	; 122
    1d9a:	80 93 ef 38 	sts	0x38EF, r24	; 0x8038ef <reactStr>
    1d9e:	90 93 f0 38 	sts	0x38F0, r25	; 0x8038f0 <reactStr+0x1>
    reactStr[1][number]=length;
    1da2:	84 e0       	ldi	r24, 0x04	; 4
    1da4:	90 e0       	ldi	r25, 0x00	; 0
    1da6:	80 93 2f 39 	sts	0x392F, r24	; 0x80392f <reactStr+0x40>
    1daa:	90 93 30 39 	sts	0x3930, r25	; 0x803930 <reactStr+0x41>
    reactStr[2][number]=type;
    1dae:	21 e0       	ldi	r18, 0x01	; 1
    1db0:	30 e0       	ldi	r19, 0x00	; 0
    1db2:	20 93 6f 39 	sts	0x396F, r18	; 0x80396f <reactStr+0x80>
    1db6:	30 93 70 39 	sts	0x3970, r19	; 0x803970 <reactStr+0x81>
    return 0;
}

//
void SetResponse(uint8_t number, uint16_t address, uint16_t length, uint8_t type){
    reactStr[0][number]=address;
    1dba:	8b ec       	ldi	r24, 0xCB	; 203
    1dbc:	96 e7       	ldi	r25, 0x76	; 118
    1dbe:	80 93 f1 38 	sts	0x38F1, r24	; 0x8038f1 <reactStr+0x2>
    1dc2:	90 93 f2 38 	sts	0x38F2, r25	; 0x8038f2 <reactStr+0x3>
    reactStr[1][number]=length;
    1dc6:	82 e1       	ldi	r24, 0x12	; 18
    1dc8:	90 e0       	ldi	r25, 0x00	; 0
    1dca:	80 93 31 39 	sts	0x3931, r24	; 0x803931 <reactStr+0x42>
    1dce:	90 93 32 39 	sts	0x3932, r25	; 0x803932 <reactStr+0x43>
    reactStr[2][number]=type;
    1dd2:	20 93 71 39 	sts	0x3971, r18	; 0x803971 <reactStr+0x82>
    1dd6:	30 93 72 39 	sts	0x3972, r19	; 0x803972 <reactStr+0x83>

            //Whoami text
            if (data[0] == 'w'){
                SetResponse(0, A_LF, 4, TEASER);
                SetResponse(1, A_HELLO, L_HELLO, TEASER);
                if (whoami == 1) {
    1dda:	80 91 30 38 	lds	r24, 0x3830	; 0x803830 <whoami>
    1dde:	81 30       	cpi	r24, 0x01	; 1
    1de0:	19 f4       	brne	.+6      	; 0x1de8 <CheckInput+0x348>
    return 0;
}

//
void SetResponse(uint8_t number, uint16_t address, uint16_t length, uint8_t type){
    reactStr[0][number]=address;
    1de2:	85 ec       	ldi	r24, 0xC5	; 197
    1de4:	96 e7       	ldi	r25, 0x76	; 118
    1de6:	0f c0       	rjmp	.+30     	; 0x1e06 <CheckInput+0x366>
            if (data[0] == 'w'){
                SetResponse(0, A_LF, 4, TEASER);
                SetResponse(1, A_HELLO, L_HELLO, TEASER);
                if (whoami == 1) {
                    SetResponse(2, A_ANUBIS, L_ANUBIS, TEASER);
                } else if (whoami == 2) {
    1de8:	82 30       	cpi	r24, 0x02	; 2
    1dea:	49 f4       	brne	.+18     	; 0x1dfe <CheckInput+0x35e>
    return 0;
}

//
void SetResponse(uint8_t number, uint16_t address, uint16_t length, uint8_t type){
    reactStr[0][number]=address;
    1dec:	82 ec       	ldi	r24, 0xC2	; 194
    1dee:	96 e7       	ldi	r25, 0x76	; 118
    1df0:	80 93 f3 38 	sts	0x38F3, r24	; 0x8038f3 <reactStr+0x4>
    1df4:	90 93 f4 38 	sts	0x38F4, r25	; 0x8038f4 <reactStr+0x5>
    reactStr[1][number]=length;
    1df8:	83 e0       	ldi	r24, 0x03	; 3
    1dfa:	90 e0       	ldi	r25, 0x00	; 0
    1dfc:	1e c0       	rjmp	.+60     	; 0x1e3a <CheckInput+0x39a>
                SetResponse(1, A_HELLO, L_HELLO, TEASER);
                if (whoami == 1) {
                    SetResponse(2, A_ANUBIS, L_ANUBIS, TEASER);
                } else if (whoami == 2) {
                    SetResponse(2, A_BES, L_BES, TEASER);
                } else if (whoami == 3) {
    1dfe:	83 30       	cpi	r24, 0x03	; 3
    1e00:	49 f4       	brne	.+18     	; 0x1e14 <CheckInput+0x374>
    return 0;
}

//
void SetResponse(uint8_t number, uint16_t address, uint16_t length, uint8_t type){
    reactStr[0][number]=address;
    1e02:	8c eb       	ldi	r24, 0xBC	; 188
    1e04:	96 e7       	ldi	r25, 0x76	; 118
    1e06:	80 93 f3 38 	sts	0x38F3, r24	; 0x8038f3 <reactStr+0x4>
    1e0a:	90 93 f4 38 	sts	0x38F4, r25	; 0x8038f4 <reactStr+0x5>
    reactStr[1][number]=length;
    1e0e:	86 e0       	ldi	r24, 0x06	; 6
    1e10:	90 e0       	ldi	r25, 0x00	; 0
    1e12:	13 c0       	rjmp	.+38     	; 0x1e3a <CheckInput+0x39a>
                    SetResponse(2, A_ANUBIS, L_ANUBIS, TEASER);
                } else if (whoami == 2) {
                    SetResponse(2, A_BES, L_BES, TEASER);
                } else if (whoami == 3) {
                    SetResponse(2, A_KHONSU, L_KHONSU, TEASER);
                } else if (whoami == 4) {
    1e14:	84 30       	cpi	r24, 0x04	; 4
    1e16:	49 f4       	brne	.+18     	; 0x1e2a <CheckInput+0x38a>
    return 0;
}

//
void SetResponse(uint8_t number, uint16_t address, uint16_t length, uint8_t type){
    reactStr[0][number]=address;
    1e18:	87 eb       	ldi	r24, 0xB7	; 183
    1e1a:	96 e7       	ldi	r25, 0x76	; 118
    1e1c:	80 93 f3 38 	sts	0x38F3, r24	; 0x8038f3 <reactStr+0x4>
    1e20:	90 93 f4 38 	sts	0x38F4, r25	; 0x8038f4 <reactStr+0x5>
    reactStr[1][number]=length;
    1e24:	85 e0       	ldi	r24, 0x05	; 5
    1e26:	90 e0       	ldi	r25, 0x00	; 0
    1e28:	08 c0       	rjmp	.+16     	; 0x1e3a <CheckInput+0x39a>
    return 0;
}

//
void SetResponse(uint8_t number, uint16_t address, uint16_t length, uint8_t type){
    reactStr[0][number]=address;
    1e2a:	80 e4       	ldi	r24, 0x40	; 64
    1e2c:	96 e7       	ldi	r25, 0x76	; 118
    1e2e:	80 93 f3 38 	sts	0x38F3, r24	; 0x8038f3 <reactStr+0x4>
    1e32:	90 93 f4 38 	sts	0x38F4, r25	; 0x8038f4 <reactStr+0x5>
    reactStr[1][number]=length;
    1e36:	82 e4       	ldi	r24, 0x42	; 66
    1e38:	90 e0       	ldi	r25, 0x00	; 0
    1e3a:	80 93 33 39 	sts	0x3933, r24	; 0x803933 <reactStr+0x44>
    1e3e:	90 93 34 39 	sts	0x3934, r25	; 0x803934 <reactStr+0x45>
    reactStr[2][number]=type;
    1e42:	20 93 73 39 	sts	0x3973, r18	; 0x803973 <reactStr+0x84>
    1e46:	30 93 74 39 	sts	0x3974, r19	; 0x803974 <reactStr+0x85>
    return 0;
}

//
void SetResponse(uint8_t number, uint16_t address, uint16_t length, uint8_t type){
    reactStr[0][number]=address;
    1e4a:	8d e9       	ldi	r24, 0x9D	; 157
    1e4c:	96 e7       	ldi	r25, 0x76	; 118
    1e4e:	80 93 f5 38 	sts	0x38F5, r24	; 0x8038f5 <reactStr+0x6>
    1e52:	90 93 f6 38 	sts	0x38F6, r25	; 0x8038f6 <reactStr+0x7>
    reactStr[1][number]=length;
    1e56:	8a e1       	ldi	r24, 0x1A	; 26
    1e58:	90 e0       	ldi	r25, 0x00	; 0
    1e5a:	80 93 35 39 	sts	0x3935, r24	; 0x803935 <reactStr+0x46>
    1e5e:	90 93 36 39 	sts	0x3936, r25	; 0x803936 <reactStr+0x47>
    reactStr[2][number]=type;
    1e62:	81 e0       	ldi	r24, 0x01	; 1
    1e64:	90 e0       	ldi	r25, 0x00	; 0
    1e66:	80 93 75 39 	sts	0x3975, r24	; 0x803975 <reactStr+0x86>
    1e6a:	90 93 76 39 	sts	0x3976, r25	; 0x803976 <reactStr+0x87>
                    SetResponse(2, A_THOTH, L_THOTH, TEASER);
                } else {
                    SetResponse(2, A_ERROR, L_ERROR, TEASER);
                }
                SetResponse(3, A_PLEASED, L_PLEASED, TEASER);
                responseList = SetStandardResponse(4);
    1e6e:	84 e0       	ldi	r24, 0x04	; 4
    1e70:	6e cf       	rjmp	.-292    	; 0x1d4e <CheckInput+0x2ae>
                return 1;
            }

            //Quit text
            if (data[0] == 'q'){
    1e72:	81 37       	cpi	r24, 0x71	; 113
    1e74:	d9 f4       	brne	.+54     	; 0x1eac <CheckInput+0x40c>
    return 0;
}

//
void SetResponse(uint8_t number, uint16_t address, uint16_t length, uint8_t type){
    reactStr[0][number]=address;
    1e76:	8b e5       	ldi	r24, 0x5B	; 91
    1e78:	9a e7       	ldi	r25, 0x7A	; 122
    1e7a:	80 93 ef 38 	sts	0x38EF, r24	; 0x8038ef <reactStr>
    1e7e:	90 93 f0 38 	sts	0x38F0, r25	; 0x8038f0 <reactStr+0x1>
    reactStr[1][number]=length;
    1e82:	84 e0       	ldi	r24, 0x04	; 4
    1e84:	90 e0       	ldi	r25, 0x00	; 0
    1e86:	80 93 2f 39 	sts	0x392F, r24	; 0x80392f <reactStr+0x40>
    1e8a:	90 93 30 39 	sts	0x3930, r25	; 0x803930 <reactStr+0x41>
    reactStr[2][number]=type;
    1e8e:	81 e0       	ldi	r24, 0x01	; 1
    1e90:	90 e0       	ldi	r25, 0x00	; 0
    1e92:	80 93 6f 39 	sts	0x396F, r24	; 0x80396f <reactStr+0x80>
    1e96:	90 93 70 39 	sts	0x3970, r25	; 0x803970 <reactStr+0x81>
    return 0;
}

//
void SetResponse(uint8_t number, uint16_t address, uint16_t length, uint8_t type){
    reactStr[0][number]=address;
    1e9a:	23 e0       	ldi	r18, 0x03	; 3
    1e9c:	3a e7       	ldi	r19, 0x7A	; 122
    1e9e:	20 93 f1 38 	sts	0x38F1, r18	; 0x8038f1 <reactStr+0x2>
    1ea2:	30 93 f2 38 	sts	0x38F2, r19	; 0x8038f2 <reactStr+0x3>
    reactStr[1][number]=length;
    1ea6:	24 e5       	ldi	r18, 0x54	; 84
                responseList = SetStandardResponse(2);
                return 1;
            }

            //Fake cheat = reset badge!
            if (StartsWith(&data[0], "iddqd")){
    1ea8:	30 e0       	ldi	r19, 0x00	; 0
    1eaa:	48 cf       	rjmp	.-368    	; 0x1d3c <CheckInput+0x29c>
    1eac:	6c e4       	ldi	r22, 0x4C	; 76
    1eae:	73 eb       	ldi	r23, 0xB3	; 179
    1eb0:	c8 01       	movw	r24, r16
    1eb2:	37 db       	rcall	.-2450   	; 0x1522 <StartsWith>
    1eb4:	88 23       	and	r24, r24
            
                //Reset game data by wiping the UUID bits
                for (uint8_t x=0; x<4; ++x){
                    WriteStatusBit(110+x, 0);
    1eb6:	e9 f0       	breq	.+58     	; 0x1ef2 <CheckInput+0x452>
    1eb8:	1e e6       	ldi	r17, 0x6E	; 110
    1eba:	60 e0       	ldi	r22, 0x00	; 0
    1ebc:	81 2f       	mov	r24, r17
    1ebe:	58 d9       	rcall	.-3408   	; 0x1170 <WriteStatusBit>

            //Fake cheat = reset badge!
            if (StartsWith(&data[0], "iddqd")){
            
                //Reset game data by wiping the UUID bits
                for (uint8_t x=0; x<4; ++x){
    1ec0:	1f 5f       	subi	r17, 0xFF	; 255
    1ec2:	12 37       	cpi	r17, 0x72	; 114
                    WriteStatusBit(110+x, 0);
                }
                SaveGameState();
    1ec4:	d1 f7       	brne	.-12     	; 0x1eba <CheckInput+0x41a>
    1ec6:	cd d8       	rcall	.-3686   	; 0x1062 <SaveGameState>

                uint8_t cheat[] = "Cheater! Contact badge team... ";
    1ec8:	80 e2       	ldi	r24, 0x20	; 32
    1eca:	ef e8       	ldi	r30, 0x8F	; 143
    1ecc:	f3 eb       	ldi	r31, 0xB3	; 179
    1ece:	de 01       	movw	r26, r28
    1ed0:	11 96       	adiw	r26, 0x01	; 1
    1ed2:	01 90       	ld	r0, Z+
    1ed4:	0d 92       	st	X+, r0
    1ed6:	8a 95       	dec	r24
    1ed8:	e1 f7       	brne	.-8      	; 0x1ed2 <CheckInput+0x432>
                SerSpeed(60);
    1eda:	8c e3       	ldi	r24, 0x3C	; 60
    1edc:	0e 94 4e 07 	call	0xe9c	; 0xe9c <SerSpeed>
                while(1){
                    if (serTxDone) SerSend(&cheat[0]);
    1ee0:	80 91 08 38 	lds	r24, 0x3808	; 0x803808 <serTxDone>
    1ee4:	88 23       	and	r24, r24
    1ee6:	e1 f3       	breq	.-8      	; 0x1ee0 <CheckInput+0x440>
    1ee8:	ce 01       	movw	r24, r28
    1eea:	01 96       	adiw	r24, 0x01	; 1
    1eec:	0e 94 3d 07 	call	0xe7a	; 0xe7a <SerSend>
                }
            }
            
            //Cheat reset (Quote from: Donald E. Westlake)
            if (StartsWith(&data[0], "the trouble with real life is, there's no reset button")){
    1ef0:	f7 cf       	rjmp	.-18     	; 0x1ee0 <CheckInput+0x440>
    1ef2:	62 e5       	ldi	r22, 0x52	; 82
    1ef4:	73 eb       	ldi	r23, 0xB3	; 179
    1ef6:	c8 01       	movw	r24, r16
    1ef8:	14 db       	rcall	.-2520   	; 0x1522 <StartsWith>
    1efa:	68 2e       	mov	r6, r24
    1efc:	88 23       	and	r24, r24
    1efe:	51 f1       	breq	.+84     	; 0x1f54 <CheckInput+0x4b4>
                
                //Reset cheat data by resetting the EEPROM bytes
                uint8_t empty=0xff;
    1f00:	8f ef       	ldi	r24, 0xFF	; 255
    1f02:	89 a3       	std	Y+33, r24	; 0x21
                for (uint8_t x=0; x<MAX_CHEATS; ++x){
                    EEWrite(CHEATS+x, &empty, 1);
    1f04:	18 e1       	ldi	r17, 0x18	; 24
    1f06:	41 e0       	ldi	r20, 0x01	; 1
    1f08:	be 01       	movw	r22, r28
    1f0a:	6f 5d       	subi	r22, 0xDF	; 223
    1f0c:	7f 4f       	sbci	r23, 0xFF	; 255
    1f0e:	81 2f       	mov	r24, r17
    1f10:	0e 94 15 07 	call	0xe2a	; 0xe2a <EEWrite>
            //Cheat reset (Quote from: Donald E. Westlake)
            if (StartsWith(&data[0], "the trouble with real life is, there's no reset button")){
                
                //Reset cheat data by resetting the EEPROM bytes
                uint8_t empty=0xff;
                for (uint8_t x=0; x<MAX_CHEATS; ++x){
    1f14:	1f 5f       	subi	r17, 0xFF	; 255
    1f16:	10 32       	cpi	r17, 0x20	; 32
                    EEWrite(CHEATS+x, &empty, 1);
                }
                //Reset game data by wiping the UUID bits
                for (uint8_t x=0; x<4; ++x){
                    WriteStatusBit(110+x, 0);
    1f18:	b1 f7       	brne	.-20     	; 0x1f06 <CheckInput+0x466>
    1f1a:	1e e6       	ldi	r17, 0x6E	; 110
    1f1c:	60 e0       	ldi	r22, 0x00	; 0
    1f1e:	81 2f       	mov	r24, r17
    1f20:	27 d9       	rcall	.-3506   	; 0x1170 <WriteStatusBit>
                uint8_t empty=0xff;
                for (uint8_t x=0; x<MAX_CHEATS; ++x){
                    EEWrite(CHEATS+x, &empty, 1);
                }
                //Reset game data by wiping the UUID bits
                for (uint8_t x=0; x<4; ++x){
    1f22:	1f 5f       	subi	r17, 0xFF	; 255
    1f24:	12 37       	cpi	r17, 0x72	; 114
                    WriteStatusBit(110+x, 0);
                }
                
                SaveGameState();
    1f26:	d1 f7       	brne	.-12     	; 0x1f1c <CheckInput+0x47c>
    1f28:	9c d8       	rcall	.-3784   	; 0x1062 <SaveGameState>

                uint8_t cheat[] = "Reset please! ";
    1f2a:	8f e0       	ldi	r24, 0x0F	; 15
    1f2c:	ef ea       	ldi	r30, 0xAF	; 175
    1f2e:	f3 eb       	ldi	r31, 0xB3	; 179
    1f30:	de 01       	movw	r26, r28
    1f32:	11 96       	adiw	r26, 0x01	; 1
    1f34:	01 90       	ld	r0, Z+
    1f36:	0d 92       	st	X+, r0
    1f38:	8a 95       	dec	r24
                SerSpeed(60);
    1f3a:	e1 f7       	brne	.-8      	; 0x1f34 <CheckInput+0x494>
    1f3c:	8c e3       	ldi	r24, 0x3C	; 60
    1f3e:	0e 94 4e 07 	call	0xe9c	; 0xe9c <SerSpeed>
                while(1){
                    if (serTxDone) SerSend(&cheat[0]);
    1f42:	80 91 08 38 	lds	r24, 0x3808	; 0x803808 <serTxDone>
    1f46:	88 23       	and	r24, r24
    1f48:	e1 f3       	breq	.-8      	; 0x1f42 <CheckInput+0x4a2>
    1f4a:	ce 01       	movw	r24, r28
    1f4c:	01 96       	adiw	r24, 0x01	; 1
    1f4e:	0e 94 3d 07 	call	0xe7a	; 0xe7a <SerSend>
                }
            }
            if (StartsWith(&data[0], "cheat")){
    1f52:	f7 cf       	rjmp	.-18     	; 0x1f42 <CheckInput+0x4a2>
    1f54:	69 e8       	ldi	r22, 0x89	; 137
    1f56:	73 eb       	ldi	r23, 0xB3	; 179
    1f58:	c8 01       	movw	r24, r16
    1f5a:	e3 da       	rcall	.-2618   	; 0x1522 <StartsWith>
    1f5c:	88 23       	and	r24, r24
    1f5e:	09 f4       	brne	.+2      	; 0x1f62 <CheckInput+0x4c2>
    1f60:	30 ce       	rjmp	.-928    	; 0x1bc2 <CheckInput+0x122>
    1f62:	0f ee       	ldi	r16, 0xEF	; 239
    1f64:	18 e3       	ldi	r17, 0x38	; 56
    1f66:	78 e1       	ldi	r23, 0x18	; 24
    1f68:	77 2e       	mov	r7, r23
                    
                    //Set up sending out number
                    EERead(CHEATS+x, &bit, 1);
                    bit = 0xff-bit;
                    for (n=2; n>=0; --n) {
                        digit[n] = bit % 10;
    1f6a:	ea e0       	ldi	r30, 0x0A	; 10
    1f6c:	5e 2e       	mov	r5, r30
                        bit /= 10;
    1f6e:	f4 e6       	ldi	r31, 0x64	; 100
    1f70:	4f 2e       	mov	r4, r31
}

//
void SetResponse(uint8_t number, uint16_t address, uint16_t length, uint8_t type){
    reactStr[0][number]=address;
    reactStr[1][number]=length;
    1f72:	ee 24       	eor	r14, r14
    1f74:	e3 94       	inc	r14
    1f76:	f1 2c       	mov	r15, r1
    1f78:	cc 24       	eor	r12, r12
    1f7a:	c3 94       	inc	r12
    1f7c:	d1 2c       	mov	r13, r1
    return 0;
}

//
void SetResponse(uint8_t number, uint16_t address, uint16_t length, uint8_t type){
    reactStr[0][number]=address;
    1f7e:	89 e5       	ldi	r24, 0x59	; 89
    1f80:	88 2e       	mov	r8, r24
    1f82:	8a e7       	ldi	r24, 0x7A	; 122
    1f84:	98 2e       	mov	r9, r24
    reactStr[1][number]=length;
    1f86:	92 e0       	ldi	r25, 0x02	; 2
    1f88:	a9 2e       	mov	r10, r25
    1f8a:	b1 2c       	mov	r11, r1
                uint8_t bit, digit[3];

                for (uint8_t x=0; x<MAX_CHEATS; ++x){
                    
                    //Set up sending out number
                    EERead(CHEATS+x, &bit, 1);
    1f8c:	41 e0       	ldi	r20, 0x01	; 1
    1f8e:	be 01       	movw	r22, r28
    1f90:	6f 5d       	subi	r22, 0xDF	; 223
    1f92:	7f 4f       	sbci	r23, 0xFF	; 255
    1f94:	87 2d       	mov	r24, r7
    1f96:	0e 94 05 07 	call	0xe0a	; 0xe0a <EERead>
                    bit = 0xff-bit;
    1f9a:	29 a1       	ldd	r18, Y+33	; 0x21
    1f9c:	20 95       	com	r18
                    for (n=2; n>=0; --n) {
                        digit[n] = bit % 10;
    1f9e:	82 2f       	mov	r24, r18
    1fa0:	65 2d       	mov	r22, r5
    1fa2:	0e 94 36 19 	call	0x326c	; 0x326c <__udivmodqi4>
    1fa6:	9b 83       	std	Y+3, r25	; 0x03
    1fa8:	0e 94 36 19 	call	0x326c	; 0x326c <__udivmodqi4>
    1fac:	9a 83       	std	Y+2, r25	; 0x02
                        bit /= 10;
    1fae:	82 2f       	mov	r24, r18
    1fb0:	64 2d       	mov	r22, r4
    1fb2:	0e 94 36 19 	call	0x326c	; 0x326c <__udivmodqi4>
                    
                    //Set up sending out number
                    EERead(CHEATS+x, &bit, 1);
                    bit = 0xff-bit;
                    for (n=2; n>=0; --n) {
                        digit[n] = bit % 10;
    1fb6:	89 83       	std	Y+1, r24	; 0x01
    1fb8:	19 a2       	std	Y+33, r1	; 0x21
    1fba:	de 01       	movw	r26, r28
    1fbc:	11 96       	adiw	r26, 0x01	; 1
    1fbe:	40 e0       	ldi	r20, 0x00	; 0
                        bit /= 10;
                    }

                    for (n=0; n<3; ++n) {
                        SetResponse(x*4+n, A_DIGITS+digit[n], 1, TEASER);
    1fc0:	2d 91       	ld	r18, X+
    return 0;
}

//
void SetResponse(uint8_t number, uint16_t address, uint16_t length, uint8_t type){
    reactStr[0][number]=address;
    1fc2:	86 2d       	mov	r24, r6
    1fc4:	84 0f       	add	r24, r20
    1fc6:	90 e0       	ldi	r25, 0x00	; 0
    1fc8:	fc 01       	movw	r30, r24
    1fca:	ee 0f       	add	r30, r30
    1fcc:	ff 1f       	adc	r31, r31
    1fce:	e1 51       	subi	r30, 0x11	; 17
    1fd0:	f7 4c       	sbci	r31, 0xC7	; 199
    1fd2:	30 e0       	ldi	r19, 0x00	; 0
    1fd4:	2d 52       	subi	r18, 0x2D	; 45
    1fd6:	3b 48       	sbci	r19, 0x8B	; 139
    1fd8:	20 83       	st	Z, r18
    1fda:	31 83       	std	Z+1, r19	; 0x01
    reactStr[1][number]=length;
    1fdc:	fc 01       	movw	r30, r24
    1fde:	ee 0f       	add	r30, r30
    1fe0:	ff 1f       	adc	r31, r31
    1fe2:	e1 5d       	subi	r30, 0xD1	; 209
    1fe4:	f6 4c       	sbci	r31, 0xC6	; 198
    1fe6:	e0 82       	st	Z, r14
    1fe8:	f1 82       	std	Z+1, r15	; 0x01
    reactStr[2][number]=type;
    1fea:	88 0f       	add	r24, r24
    1fec:	99 1f       	adc	r25, r25
    1fee:	fc 01       	movw	r30, r24
    1ff0:	e1 59       	subi	r30, 0x91	; 145
    1ff2:	f6 4c       	sbci	r31, 0xC6	; 198
    1ff4:	e0 82       	st	Z, r14
    1ff6:	f1 82       	std	Z+1, r15	; 0x01
    1ff8:	4f 5f       	subi	r20, 0xFF	; 255
                    for (n=2; n>=0; --n) {
                        digit[n] = bit % 10;
                        bit /= 10;
                    }

                    for (n=0; n<3; ++n) {
    1ffa:	43 30       	cpi	r20, 0x03	; 3
    1ffc:	09 f7       	brne	.-62     	; 0x1fc0 <CheckInput+0x520>
    return 0;
}

//
void SetResponse(uint8_t number, uint16_t address, uint16_t length, uint8_t type){
    reactStr[0][number]=address;
    1ffe:	f8 01       	movw	r30, r16
    2000:	86 82       	std	Z+6, r8	; 0x06
    2002:	97 82       	std	Z+7, r9	; 0x07
    reactStr[1][number]=length;
    2004:	ea 5b       	subi	r30, 0xBA	; 186
    2006:	ff 4f       	sbci	r31, 0xFF	; 255
    2008:	a0 82       	st	Z, r10
    200a:	b1 82       	std	Z+1, r11	; 0x01
    reactStr[2][number]=type;
    200c:	e0 5c       	subi	r30, 0xC0	; 192
    200e:	ff 4f       	sbci	r31, 0xFF	; 255
    2010:	c0 82       	st	Z, r12
    2012:	d1 82       	std	Z+1, r13	; 0x01
    2014:	73 94       	inc	r7
    2016:	08 5f       	subi	r16, 0xF8	; 248
    2018:	1f 4f       	sbci	r17, 0xFF	; 255
    201a:	f4 e0       	ldi	r31, 0x04	; 4
    201c:	6f 0e       	add	r6, r31
            }
            if (StartsWith(&data[0], "cheat")){
                int8_t n;
                uint8_t bit, digit[3];

                for (uint8_t x=0; x<MAX_CHEATS; ++x){
    201e:	80 e2       	ldi	r24, 0x20	; 32
    2020:	78 12       	cpse	r7, r24
    2022:	b4 cf       	rjmp	.-152    	; 0x1f8c <CheckInput+0x4ec>
    return 0;
}

//
void SetResponse(uint8_t number, uint16_t address, uint16_t length, uint8_t type){
    reactStr[0][number]=address;
    2024:	8b e5       	ldi	r24, 0x5B	; 91
    2026:	9a e7       	ldi	r25, 0x7A	; 122
    2028:	80 93 2d 39 	sts	0x392D, r24	; 0x80392d <reactStr+0x3e>
    202c:	90 93 2e 39 	sts	0x392E, r25	; 0x80392e <reactStr+0x3f>
    reactStr[1][number]=length;
    2030:	84 e0       	ldi	r24, 0x04	; 4
    2032:	90 e0       	ldi	r25, 0x00	; 0
    2034:	80 93 6d 39 	sts	0x396D, r24	; 0x80396d <reactStr+0x7e>
    2038:	90 93 6e 39 	sts	0x396E, r25	; 0x80396e <reactStr+0x7f>
    reactStr[2][number]=type;
    203c:	81 e0       	ldi	r24, 0x01	; 1
    203e:	90 e0       	ldi	r25, 0x00	; 0
    2040:	80 93 ad 39 	sts	0x39AD, r24	; 0x8039ad <reactStr+0xbe>
    2044:	90 93 ae 39 	sts	0x39AE, r25	; 0x8039ae <reactStr+0xbf>
                        SetResponse(x*4+n, A_DIGITS+digit[n], 1, TEASER);
                    }                
                    SetResponse(x*4+3, A_COMMA, L_COMMA, TEASER);
                }
                SetResponse((4*MAX_CHEATS)-1, A_LF, 4, TEASER);
                responseList = 32;
    2048:	70 92 ee 38 	sts	0x38EE, r7	; 0x8038ee <responseList>
        //Data received, but not any of the commands above
        return 0;
    }

    //Serial input not available yet
    return 1;
    204c:	ff 24       	eor	r15, r15
    204e:	f3 94       	inc	r15
}
    2050:	8f 2d       	mov	r24, r15
    2052:	a1 96       	adiw	r28, 0x21	; 33
    2054:	cd bf       	out	0x3d, r28	; 61
    2056:	de bf       	out	0x3e, r29	; 62
    2058:	df 91       	pop	r29
    205a:	cf 91       	pop	r28
    205c:	1f 91       	pop	r17
    205e:	0f 91       	pop	r16
    2060:	ff 90       	pop	r15
    2062:	ef 90       	pop	r14
    2064:	df 90       	pop	r13
    2066:	cf 90       	pop	r12
    2068:	bf 90       	pop	r11
    206a:	af 90       	pop	r10
    206c:	9f 90       	pop	r9
    206e:	8f 90       	pop	r8
    2070:	7f 90       	pop	r7
    2072:	6f 90       	pop	r6
    2074:	5f 90       	pop	r5
    2076:	4f 90       	pop	r4
    2078:	08 95       	ret

0000207a <ProcessInput>:

//The game logic!
uint8_t ProcessInput(uint8_t *data){
    207a:	4f 92       	push	r4
    207c:	5f 92       	push	r5
    207e:	6f 92       	push	r6
    2080:	7f 92       	push	r7
    2082:	8f 92       	push	r8
    2084:	9f 92       	push	r9
    2086:	af 92       	push	r10
    2088:	bf 92       	push	r11
    208a:	cf 92       	push	r12
    208c:	df 92       	push	r13
    208e:	ef 92       	push	r14
    2090:	ff 92       	push	r15
    2092:	0f 93       	push	r16
    2094:	1f 93       	push	r17
    2096:	cf 93       	push	r28
    2098:	df 93       	push	r29
    209a:	cd b7       	in	r28, 0x3d	; 61
    209c:	de b7       	in	r29, 0x3e	; 62
    209e:	2a 97       	sbiw	r28, 0x0a	; 10
    20a0:	cd bf       	out	0x3d, r28	; 61
    20a2:	de bf       	out	0x3e, r29	; 62
    20a4:	8c 01       	movw	r16, r24
    static object_model_t actObj1, actObj2;
    uint8_t elements = 1;

    CleanInput(&data[0]);
    20a6:	3e dc       	rcall	.-1924   	; 0x1924 <CleanInput>
    uint8_t inputLen = CleanInput(&data[0]);
    20a8:	c8 01       	movw	r24, r16
    20aa:	3c dc       	rcall	.-1928   	; 0x1924 <CleanInput>
    20ac:	f8 2e       	mov	r15, r24

    if (inputLen) {
    20ae:	88 23       	and	r24, r24
    20b0:	09 f4       	brne	.+2      	; 0x20b4 <ProcessInput+0x3a>
    20b2:	7d c7       	rjmp	.+3834   	; 0x2fae <ProcessInput+0xf34>

        //eXit to previous location
        if (data[0] == 'x'){
    20b4:	d8 01       	movw	r26, r16
    20b6:	8c 91       	ld	r24, X
    20b8:	88 37       	cpi	r24, 0x78	; 120
    20ba:	79 f5       	brne	.+94     	; 0x211a <ProcessInput+0xa0>

            //Standing in the Lobby?
            if ((route[currDepth] == 0)||(currDepth == 0)){
    20bc:	80 91 27 38 	lds	r24, 0x3827	; 0x803827 <currDepth>
    20c0:	e8 2f       	mov	r30, r24
    20c2:	f0 e0       	ldi	r31, 0x00	; 0
    20c4:	ee 0f       	add	r30, r30
    20c6:	ff 1f       	adc	r31, r31
    20c8:	e1 55       	subi	r30, 0x51	; 81
    20ca:	f6 4c       	sbci	r31, 0xC6	; 198
    20cc:	20 81       	ld	r18, Z
    20ce:	31 81       	ldd	r19, Z+1	; 0x01
    20d0:	23 2b       	or	r18, r19
    20d2:	11 f0       	breq	.+4      	; 0x20d8 <ProcessInput+0x5e>
    20d4:	81 11       	cpse	r24, r1
    20d6:	03 c0       	rjmp	.+6      	; 0x20de <ProcessInput+0x64>
    return 0;
}

//
void SetResponse(uint8_t number, uint16_t address, uint16_t length, uint8_t type){
    reactStr[0][number]=address;
    20d8:	82 e8       	ldi	r24, 0x82	; 130
    20da:	96 e7       	ldi	r25, 0x76	; 118
    20dc:	59 c5       	rjmp	.+2738   	; 0x2b90 <ProcessInput+0xb16>
            //Standing in the Lobby?
            if ((route[currDepth] == 0)||(currDepth == 0)){
                SetResponse(elements++, A_NOTPOSSIBLE, L_NOTPOSSIBLE, TEASER);
            
            //Is there a way to go back?
            } else if (CheckState(currObj.byteField[OPEN_ACL])){
    20de:	80 91 f5 39 	lds	r24, 0x39F5	; 0x8039f5 <currObj+0x6>
    20e2:	6a d8       	rcall	.-3884   	; 0x11b8 <CheckState>
    20e4:	88 23       	and	r24, r24
    20e6:	81 f0       	breq	.+32     	; 0x2108 <ProcessInput+0x8e>
                --currDepth;
    20e8:	e0 91 27 38 	lds	r30, 0x3827	; 0x803827 <currDepth>
    20ec:	e1 50       	subi	r30, 0x01	; 1
    20ee:	e0 93 27 38 	sts	0x3827, r30	; 0x803827 <currDepth>
                PopulateObject(route[currDepth], &currObj);
    20f2:	f0 e0       	ldi	r31, 0x00	; 0
    20f4:	ee 0f       	add	r30, r30
    20f6:	ff 1f       	adc	r31, r31
    20f8:	e1 55       	subi	r30, 0x51	; 81
    20fa:	f6 4c       	sbci	r31, 0xC6	; 198
    20fc:	6f ee       	ldi	r22, 0xEF	; 239
    20fe:	79 e3       	ldi	r23, 0x39	; 57
    2100:	80 81       	ld	r24, Z
    2102:	91 81       	ldd	r25, Z+1	; 0x01
    2104:	dc da       	rcall	.-2632   	; 0x16be <PopulateObject>
    2106:	0e c2       	rjmp	.+1052   	; 0x2524 <ProcessInput+0x4aa>
            
            //No way out, print denied message of location
            } else {
                SetResponse(elements++, currObj.addrStr[OPEN_ACL_MSG], currObj.lenStr[OPEN_ACL_MSG], GAME);               
    2108:	80 91 11 3a 	lds	r24, 0x3A11	; 0x803a11 <currObj+0x22>
    210c:	90 91 12 3a 	lds	r25, 0x3A12	; 0x803a12 <currObj+0x23>
    return 0;
}

//
void SetResponse(uint8_t number, uint16_t address, uint16_t length, uint8_t type){
    reactStr[0][number]=address;
    2110:	20 91 03 3a 	lds	r18, 0x3A03	; 0x803a03 <currObj+0x14>
    2114:	30 91 04 3a 	lds	r19, 0x3A04	; 0x803a04 <currObj+0x15>
    2118:	f3 c5       	rjmp	.+3046   	; 0x2d00 <ProcessInput+0xc86>
            } else {
                SetResponse(elements++, currObj.addrStr[OPEN_ACL_MSG], currObj.lenStr[OPEN_ACL_MSG], GAME);               
            }   
        
        //Enter locations or Open objects    
        } else if ((data[0] == 'e')||(data[0] == 'o')) {
    211a:	85 36       	cpi	r24, 0x65	; 101
    211c:	19 f0       	breq	.+6      	; 0x2124 <ProcessInput+0xaa>
    211e:	8f 36       	cpi	r24, 0x6F	; 111
    2120:	09 f0       	breq	.+2      	; 0x2124 <ProcessInput+0xaa>
    2122:	ca c0       	rjmp	.+404    	; 0x22b8 <ProcessInput+0x23e>
                
            //Not possible, too many/little characters
            if (inputLen != 2){
    2124:	b2 e0       	ldi	r27, 0x02	; 2
    2126:	fb 12       	cpse	r15, r27
    2128:	d7 cf       	rjmp	.-82     	; 0x20d8 <ProcessInput+0x5e>
                SetResponse(elements++, A_NOTPOSSIBLE, L_NOTPOSSIBLE, TEASER);
            } else {
                uint8_t canDo = 0;
                route[currDepth+1] = FindChild(route[currDepth], data[1], 0);
    212a:	e0 90 27 38 	lds	r14, 0x3827	; 0x803827 <currDepth>
    212e:	f1 2c       	mov	r15, r1
    2130:	f7 01       	movw	r30, r14
    2132:	ee 0f       	add	r30, r30
    2134:	ff 1f       	adc	r31, r31
    2136:	e1 55       	subi	r30, 0x51	; 81
    2138:	f6 4c       	sbci	r31, 0xC6	; 198
    213a:	40 e0       	ldi	r20, 0x00	; 0
    213c:	50 e0       	ldi	r21, 0x00	; 0
    213e:	d8 01       	movw	r26, r16
    2140:	11 96       	adiw	r26, 0x01	; 1
    2142:	6c 91       	ld	r22, X
    2144:	80 81       	ld	r24, Z
    2146:	91 81       	ldd	r25, Z+1	; 0x01
    2148:	85 db       	rcall	.-2294   	; 0x1854 <FindChild>
    214a:	f7 01       	movw	r30, r14
    214c:	ee 0f       	add	r30, r30
    214e:	ff 1f       	adc	r31, r31
    2150:	ef 54       	subi	r30, 0x4F	; 79
    2152:	f6 4c       	sbci	r31, 0xC6	; 198
    2154:	80 83       	st	Z, r24
    2156:	91 83       	std	Z+1, r25	; 0x01
                    
                //Child found?
                if (route[currDepth+1]) {
    2158:	90 91 27 38 	lds	r25, 0x3827	; 0x803827 <currDepth>
    215c:	29 2f       	mov	r18, r25
    215e:	30 e0       	ldi	r19, 0x00	; 0
    2160:	f9 01       	movw	r30, r18
    2162:	ee 0f       	add	r30, r30
    2164:	ff 1f       	adc	r31, r31
    2166:	ef 54       	subi	r30, 0x4F	; 79
    2168:	f6 4c       	sbci	r31, 0xC6	; 198
    216a:	40 81       	ld	r20, Z
    216c:	51 81       	ldd	r21, Z+1	; 0x01
    216e:	41 15       	cp	r20, r1
    2170:	51 05       	cpc	r21, r1
    2172:	21 f0       	breq	.+8      	; 0x217c <ProcessInput+0x102>
                    PopulateObject(route[currDepth+1], &actObj1);
    2174:	60 eb       	ldi	r22, 0xB0	; 176
    2176:	78 e3       	ldi	r23, 0x38	; 56
    2178:	ca 01       	movw	r24, r20
    217a:	1c c0       	rjmp	.+56     	; 0x21b4 <ProcessInput+0x13a>
                    canDo = 1;
                //No child, maybe a step back, letter ok?
                } else if (currDepth) {
    217c:	99 23       	and	r25, r25
    217e:	09 f4       	brne	.+2      	; 0x2182 <ProcessInput+0x108>
    2180:	32 c7       	rjmp	.+3684   	; 0x2fe6 <ProcessInput+0xf6c>
                    if (CheckLetter(route[currDepth-1], data[1])) {
    2182:	22 0f       	add	r18, r18
    2184:	33 1f       	adc	r19, r19
    2186:	f9 01       	movw	r30, r18
    2188:	e3 55       	subi	r30, 0x53	; 83
    218a:	f6 4c       	sbci	r31, 0xC6	; 198
    218c:	d8 01       	movw	r26, r16
    218e:	11 96       	adiw	r26, 0x01	; 1
    2190:	6c 91       	ld	r22, X
    2192:	80 81       	ld	r24, Z
    2194:	91 81       	ldd	r25, Z+1	; 0x01
    2196:	0a db       	rcall	.-2540   	; 0x17ac <CheckLetter>
    2198:	88 23       	and	r24, r24
    219a:	09 f4       	brne	.+2      	; 0x219e <ProcessInput+0x124>
    219c:	24 c7       	rjmp	.+3656   	; 0x2fe6 <ProcessInput+0xf6c>
                        PopulateObject(route[currDepth-1], &actObj1);
    219e:	e0 91 27 38 	lds	r30, 0x3827	; 0x803827 <currDepth>
    21a2:	f0 e0       	ldi	r31, 0x00	; 0
    21a4:	ee 0f       	add	r30, r30
    21a6:	ff 1f       	adc	r31, r31
    21a8:	e3 55       	subi	r30, 0x53	; 83
    21aa:	f6 4c       	sbci	r31, 0xC6	; 198
    21ac:	60 eb       	ldi	r22, 0xB0	; 176
    21ae:	78 e3       	ldi	r23, 0x38	; 56
    21b0:	80 81       	ld	r24, Z
    21b2:	91 81       	ldd	r25, Z+1	; 0x01
    21b4:	84 da       	rcall	.-2808   	; 0x16be <PopulateObject>
                    }
                }

                //The candidate is found! Let's check if the action is legit
                if (canDo) {
                    if ((data[0] == 'e') && ((actObj1.byteField[ACTION_MASK]&ENTER)==0)) {
    21b6:	d8 01       	movw	r26, r16
    21b8:	8c 91       	ld	r24, X
    21ba:	85 36       	cpi	r24, 0x65	; 101
    21bc:	c9 f4       	brne	.+50     	; 0x21f0 <ProcessInput+0x176>
    21be:	80 91 b8 38 	lds	r24, 0x38B8	; 0x8038b8 <actObj1.3992+0x8>
    21c2:	80 fd       	sbrc	r24, 0
    21c4:	1e c0       	rjmp	.+60     	; 0x2202 <ProcessInput+0x188>
    return 0;
}

//
void SetResponse(uint8_t number, uint16_t address, uint16_t length, uint8_t type){
    reactStr[0][number]=address;
    21c6:	80 ea       	ldi	r24, 0xA0	; 160
    21c8:	99 e7       	ldi	r25, 0x79	; 121
    21ca:	80 93 f1 38 	sts	0x38F1, r24	; 0x8038f1 <reactStr+0x2>
    21ce:	90 93 f2 38 	sts	0x38F2, r25	; 0x8038f2 <reactStr+0x3>
    reactStr[1][number]=length;
    21d2:	8e e1       	ldi	r24, 0x1E	; 30
    21d4:	90 e0       	ldi	r25, 0x00	; 0
    21d6:	80 93 31 39 	sts	0x3931, r24	; 0x803931 <reactStr+0x42>
    21da:	90 93 32 39 	sts	0x3932, r25	; 0x803932 <reactStr+0x43>
    reactStr[2][number]=type;
    21de:	81 e0       	ldi	r24, 0x01	; 1
    21e0:	90 e0       	ldi	r25, 0x00	; 0
    21e2:	80 93 71 39 	sts	0x3971, r24	; 0x803971 <reactStr+0x82>
    21e6:	90 93 72 39 	sts	0x3972, r25	; 0x803972 <reactStr+0x83>
                }

                //The candidate is found! Let's check if the action is legit
                if (canDo) {
                    if ((data[0] == 'e') && ((actObj1.byteField[ACTION_MASK]&ENTER)==0)) {
                        SetResponse(elements++, A_CANTENTER, L_CANTENTER, TEASER);
    21ea:	72 e0       	ldi	r23, 0x02	; 2
    21ec:	77 2e       	mov	r7, r23
    21ee:	bf c6       	rjmp	.+3454   	; 0x2f6e <ProcessInput+0xef4>
                    } else if ((data[0] == 'o') && ((actObj1.byteField[ACTION_MASK]&OPEN)==0)) {
    21f0:	8f 36       	cpi	r24, 0x6F	; 111
    21f2:	39 f4       	brne	.+14     	; 0x2202 <ProcessInput+0x188>
    21f4:	80 91 b8 38 	lds	r24, 0x38B8	; 0x8038b8 <actObj1.3992+0x8>
    21f8:	81 fd       	sbrc	r24, 1
    21fa:	03 c0       	rjmp	.+6      	; 0x2202 <ProcessInput+0x188>
    return 0;
}

//
void SetResponse(uint8_t number, uint16_t address, uint16_t length, uint8_t type){
    reactStr[0][number]=address;
    21fc:	85 e8       	ldi	r24, 0x85	; 133
    21fe:	99 e7       	ldi	r25, 0x79	; 121
    2200:	c7 c4       	rjmp	.+2446   	; 0x2b90 <ProcessInput+0xb16>
                        SetResponse(elements++, A_CANTENTER, L_CANTENTER, TEASER);
                    } else if ((data[0] == 'o') && ((actObj1.byteField[ACTION_MASK]&OPEN)==0)) {
                        SetResponse(elements++, A_CANTOPEN, L_CANTOPEN, TEASER);
                    
                    //Action legit, permission granted?
                    } else if (CheckState(actObj1.byteField[OPEN_ACL])) {
    2202:	80 91 b6 38 	lds	r24, 0x38B6	; 0x8038b6 <actObj1.3992+0x6>
    2206:	0e 94 dc 08 	call	0x11b8	; 0x11b8 <CheckState>
    220a:	e0 91 27 38 	lds	r30, 0x3827	; 0x803827 <currDepth>
    220e:	88 23       	and	r24, r24
    2210:	09 f4       	brne	.+2      	; 0x2214 <ProcessInput+0x19a>
    2212:	42 c0       	rjmp	.+132    	; 0x2298 <ProcessInput+0x21e>
                            
                        //Yes! Check if we must move forward or backwards.
                        if (route[currDepth+1]) ++currDepth; else --currDepth;
    2214:	ae 2f       	mov	r26, r30
    2216:	b0 e0       	ldi	r27, 0x00	; 0
    2218:	aa 0f       	add	r26, r26
    221a:	bb 1f       	adc	r27, r27
    221c:	af 54       	subi	r26, 0x4F	; 79
    221e:	b6 4c       	sbci	r27, 0xC6	; 198
    2220:	8d 91       	ld	r24, X+
    2222:	9c 91       	ld	r25, X
    2224:	89 2b       	or	r24, r25
    2226:	11 f0       	breq	.+4      	; 0x222c <ProcessInput+0x1b2>
    2228:	ef 5f       	subi	r30, 0xFF	; 255
    222a:	01 c0       	rjmp	.+2      	; 0x222e <ProcessInput+0x1b4>
    222c:	e1 50       	subi	r30, 0x01	; 1
    222e:	e0 93 27 38 	sts	0x3827, r30	; 0x803827 <currDepth>
                        PopulateObject(route[currDepth], &currObj);
    2232:	e0 91 27 38 	lds	r30, 0x3827	; 0x803827 <currDepth>
    2236:	f0 e0       	ldi	r31, 0x00	; 0
    2238:	ee 0f       	add	r30, r30
    223a:	ff 1f       	adc	r31, r31
    223c:	e1 55       	subi	r30, 0x51	; 81
    223e:	f6 4c       	sbci	r31, 0xC6	; 198
    2240:	6f ee       	ldi	r22, 0xEF	; 239
    2242:	79 e3       	ldi	r23, 0x39	; 57
    2244:	80 81       	ld	r24, Z
    2246:	91 81       	ldd	r25, Z+1	; 0x01
    2248:	3a da       	rcall	.-2956   	; 0x16be <PopulateObject>
                        SetResponse(elements++, currObj.addrStr[DESC], currObj.lenStr[DESC],GAME);
    224a:	80 91 0b 3a 	lds	r24, 0x3A0B	; 0x803a0b <currObj+0x1c>
    224e:	90 91 0c 3a 	lds	r25, 0x3A0C	; 0x803a0c <currObj+0x1d>
    return 0;
}

//
void SetResponse(uint8_t number, uint16_t address, uint16_t length, uint8_t type){
    reactStr[0][number]=address;
    2252:	20 91 fd 39 	lds	r18, 0x39FD	; 0x8039fd <currObj+0xe>
    2256:	30 91 fe 39 	lds	r19, 0x39FE	; 0x8039fe <currObj+0xf>
    225a:	20 93 f1 38 	sts	0x38F1, r18	; 0x8038f1 <reactStr+0x2>
    225e:	30 93 f2 38 	sts	0x38F2, r19	; 0x8038f2 <reactStr+0x3>
    reactStr[1][number]=length;
    2262:	80 93 31 39 	sts	0x3931, r24	; 0x803931 <reactStr+0x42>
    2266:	90 93 32 39 	sts	0x3932, r25	; 0x803932 <reactStr+0x43>
    reactStr[2][number]=type;
    226a:	10 92 71 39 	sts	0x3971, r1	; 0x803971 <reactStr+0x82>
    226e:	10 92 72 39 	sts	0x3972, r1	; 0x803972 <reactStr+0x83>
    return 0;
}

//
void SetResponse(uint8_t number, uint16_t address, uint16_t length, uint8_t type){
    reactStr[0][number]=address;
    2272:	8b e5       	ldi	r24, 0x5B	; 91
    2274:	9a e7       	ldi	r25, 0x7A	; 122
    2276:	80 93 f3 38 	sts	0x38F3, r24	; 0x8038f3 <reactStr+0x4>
    227a:	90 93 f4 38 	sts	0x38F4, r25	; 0x8038f4 <reactStr+0x5>
    reactStr[1][number]=length;
    227e:	82 e0       	ldi	r24, 0x02	; 2
    2280:	90 e0       	ldi	r25, 0x00	; 0
    2282:	80 93 33 39 	sts	0x3933, r24	; 0x803933 <reactStr+0x44>
    2286:	90 93 34 39 	sts	0x3934, r25	; 0x803934 <reactStr+0x45>
    reactStr[2][number]=type;
    228a:	81 e0       	ldi	r24, 0x01	; 1
    228c:	90 e0       	ldi	r25, 0x00	; 0
    228e:	80 93 73 39 	sts	0x3973, r24	; 0x803973 <reactStr+0x84>
    2292:	90 93 74 39 	sts	0x3974, r25	; 0x803974 <reactStr+0x85>
    2296:	68 c4       	rjmp	.+2256   	; 0x2b68 <ProcessInput+0xaee>
                        SetResponse(elements++, currObj.addrStr[DESC], currObj.lenStr[DESC],GAME);
                        SetResponse(elements++, A_LF, 2, TEASER);
                                                  
                    //Not granted!
                    } else {
                        route[currDepth+1] = 0;
    2298:	f0 e0       	ldi	r31, 0x00	; 0
    229a:	ee 0f       	add	r30, r30
    229c:	ff 1f       	adc	r31, r31
    229e:	ef 54       	subi	r30, 0x4F	; 79
    22a0:	f6 4c       	sbci	r31, 0xC6	; 198
    22a2:	10 82       	st	Z, r1
    22a4:	11 82       	std	Z+1, r1	; 0x01
                        SetResponse(elements++, actObj1.addrStr[OPEN_ACL_MSG], actObj1.lenStr[OPEN_ACL_MSG], GAME);                
    22a6:	80 91 d2 38 	lds	r24, 0x38D2	; 0x8038d2 <actObj1.3992+0x22>
    22aa:	90 91 d3 38 	lds	r25, 0x38D3	; 0x8038d3 <actObj1.3992+0x23>
    return 0;
}

//
void SetResponse(uint8_t number, uint16_t address, uint16_t length, uint8_t type){
    reactStr[0][number]=address;
    22ae:	20 91 c4 38 	lds	r18, 0x38C4	; 0x8038c4 <actObj1.3992+0x14>
    22b2:	30 91 c5 38 	lds	r19, 0x38C5	; 0x8038c5 <actObj1.3992+0x15>
    22b6:	24 c5       	rjmp	.+2632   	; 0x2d00 <ProcessInput+0xc86>
                    SetResponse(elements++, A_DONTSEE, L_DONTSEE, TEASER);                
                }
            }

        //Look around or at objects
        } else if (data[0] == 'l') {
    22b8:	8c 36       	cpi	r24, 0x6C	; 108
    22ba:	09 f0       	breq	.+2      	; 0x22be <ProcessInput+0x244>
    22bc:	4b c1       	rjmp	.+662    	; 0x2554 <ProcessInput+0x4da>
    22be:	e0 91 27 38 	lds	r30, 0x3827	; 0x803827 <currDepth>
            if (inputLen == 1) {
    22c2:	b1 e0       	ldi	r27, 0x01	; 1
    22c4:	fb 12       	cpse	r15, r27
    22c6:	f6 c0       	rjmp	.+492    	; 0x24b4 <ProcessInput+0x43a>

                //Show info about this area first
                SetResponse(elements++, currObj.addrStr[DESC], currObj.lenStr[DESC],GAME);
    22c8:	80 91 0b 3a 	lds	r24, 0x3A0B	; 0x803a0b <currObj+0x1c>
    22cc:	90 91 0c 3a 	lds	r25, 0x3A0C	; 0x803a0c <currObj+0x1d>
    return 0;
}

//
void SetResponse(uint8_t number, uint16_t address, uint16_t length, uint8_t type){
    reactStr[0][number]=address;
    22d0:	20 91 fd 39 	lds	r18, 0x39FD	; 0x8039fd <currObj+0xe>
    22d4:	30 91 fe 39 	lds	r19, 0x39FE	; 0x8039fe <currObj+0xf>
    22d8:	20 93 f1 38 	sts	0x38F1, r18	; 0x8038f1 <reactStr+0x2>
    22dc:	30 93 f2 38 	sts	0x38F2, r19	; 0x8038f2 <reactStr+0x3>
    reactStr[1][number]=length;
    22e0:	80 93 31 39 	sts	0x3931, r24	; 0x803931 <reactStr+0x42>
    22e4:	90 93 32 39 	sts	0x3932, r25	; 0x803932 <reactStr+0x43>
    reactStr[2][number]=type;
    22e8:	10 92 71 39 	sts	0x3971, r1	; 0x803971 <reactStr+0x82>
    22ec:	10 92 72 39 	sts	0x3972, r1	; 0x803972 <reactStr+0x83>
    return 0;
}

//
void SetResponse(uint8_t number, uint16_t address, uint16_t length, uint8_t type){
    reactStr[0][number]=address;
    22f0:	8b e5       	ldi	r24, 0x5B	; 91
    22f2:	9a e7       	ldi	r25, 0x7A	; 122
    22f4:	80 93 f3 38 	sts	0x38F3, r24	; 0x8038f3 <reactStr+0x4>
    22f8:	90 93 f4 38 	sts	0x38F4, r25	; 0x8038f4 <reactStr+0x5>
    reactStr[1][number]=length;
    22fc:	82 e0       	ldi	r24, 0x02	; 2
    22fe:	90 e0       	ldi	r25, 0x00	; 0
    2300:	80 93 33 39 	sts	0x3933, r24	; 0x803933 <reactStr+0x44>
    2304:	90 93 34 39 	sts	0x3934, r25	; 0x803934 <reactStr+0x45>
    reactStr[2][number]=type;
    2308:	81 e0       	ldi	r24, 0x01	; 1
    230a:	90 e0       	ldi	r25, 0x00	; 0
    230c:	80 93 73 39 	sts	0x3973, r24	; 0x803973 <reactStr+0x84>
    2310:	90 93 74 39 	sts	0x3974, r25	; 0x803974 <reactStr+0x85>
    return 0;
}

//
void SetResponse(uint8_t number, uint16_t address, uint16_t length, uint8_t type){
    reactStr[0][number]=address;
    2314:	2e ee       	ldi	r18, 0xEE	; 238
    2316:	39 e7       	ldi	r19, 0x79	; 121
    2318:	20 93 f5 38 	sts	0x38F5, r18	; 0x8038f5 <reactStr+0x6>
    231c:	30 93 f6 38 	sts	0x38F6, r19	; 0x8038f6 <reactStr+0x7>
    reactStr[1][number]=length;
    2320:	25 e1       	ldi	r18, 0x15	; 21
    2322:	30 e0       	ldi	r19, 0x00	; 0
    2324:	20 93 35 39 	sts	0x3935, r18	; 0x803935 <reactStr+0x46>
    2328:	30 93 36 39 	sts	0x3936, r19	; 0x803936 <reactStr+0x47>
    reactStr[2][number]=type;
    232c:	80 93 75 39 	sts	0x3975, r24	; 0x803975 <reactStr+0x86>
    2330:	90 93 76 39 	sts	0x3976, r25	; 0x803976 <reactStr+0x87>
                SetResponse(elements++, currObj.addrStr[DESC], currObj.lenStr[DESC],GAME);
                SetResponse(elements++, A_LF, 2, TEASER);
                SetResponse(elements++, A_LOOK, L_LOOK, TEASER);

                //Check the visible children first
                route[currDepth+1] = 0;
    2334:	f0 e0       	ldi	r31, 0x00	; 0
    2336:	ee 0f       	add	r30, r30
    2338:	ff 1f       	adc	r31, r31
    233a:	ef 54       	subi	r30, 0x4F	; 79
    233c:	f6 4c       	sbci	r31, 0xC6	; 198
    233e:	10 82       	st	Z, r1
    2340:	11 82       	std	Z+1, r1	; 0x01
            if (inputLen == 1) {

                //Show info about this area first
                SetResponse(elements++, currObj.addrStr[DESC], currObj.lenStr[DESC],GAME);
                SetResponse(elements++, A_LF, 2, TEASER);
                SetResponse(elements++, A_LOOK, L_LOOK, TEASER);
    2342:	84 e0       	ldi	r24, 0x04	; 4
    2344:	68 2e       	mov	r6, r24
    return 0;
}

//
void SetResponse(uint8_t number, uint16_t address, uint16_t length, uint8_t type){
    reactStr[0][number]=address;
    2346:	99 e5       	ldi	r25, 0x59	; 89
    2348:	c9 2e       	mov	r12, r25
    234a:	9a e7       	ldi	r25, 0x7A	; 122
    234c:	d9 2e       	mov	r13, r25
    reactStr[1][number]=length;
    234e:	22 e0       	ldi	r18, 0x02	; 2
    2350:	a2 2e       	mov	r10, r18
    2352:	b1 2c       	mov	r11, r1
    reactStr[2][number]=type;
    2354:	88 24       	eor	r8, r8
    2356:	83 94       	inc	r8
    2358:	91 2c       	mov	r9, r1
                SetResponse(elements++, A_LOOK, L_LOOK, TEASER);

                //Check the visible children first
                route[currDepth+1] = 0;
                do{
                    route[currDepth+1] = FindChild(route[currDepth], 0, route[currDepth+1]);
    235a:	80 91 27 38 	lds	r24, 0x3827	; 0x803827 <currDepth>
    235e:	90 e0       	ldi	r25, 0x00	; 0
    2360:	9c 01       	movw	r18, r24
    2362:	22 0f       	add	r18, r18
    2364:	33 1f       	adc	r19, r19
    2366:	f9 01       	movw	r30, r18
    2368:	ef 54       	subi	r30, 0x4F	; 79
    236a:	f6 4c       	sbci	r31, 0xC6	; 198
    236c:	7f 01       	movw	r14, r30
    236e:	40 81       	ld	r20, Z
    2370:	51 81       	ldd	r21, Z+1	; 0x01
    2372:	f9 01       	movw	r30, r18
    2374:	e1 55       	subi	r30, 0x51	; 81
    2376:	f6 4c       	sbci	r31, 0xC6	; 198
    2378:	60 e0       	ldi	r22, 0x00	; 0
    237a:	80 81       	ld	r24, Z
    237c:	91 81       	ldd	r25, Z+1	; 0x01
    237e:	6a da       	rcall	.-2860   	; 0x1854 <FindChild>
    2380:	d7 01       	movw	r26, r14
    2382:	8d 93       	st	X+, r24
    2384:	9c 93       	st	X, r25
                    if (route[currDepth+1]) {
    2386:	e0 91 27 38 	lds	r30, 0x3827	; 0x803827 <currDepth>
    238a:	f0 e0       	ldi	r31, 0x00	; 0
    238c:	ee 0f       	add	r30, r30
    238e:	ff 1f       	adc	r31, r31
    2390:	ef 54       	subi	r30, 0x4F	; 79
    2392:	f6 4c       	sbci	r31, 0xC6	; 198
    2394:	80 81       	ld	r24, Z
    2396:	91 81       	ldd	r25, Z+1	; 0x01
    2398:	00 97       	sbiw	r24, 0x00	; 0
    239a:	09 f4       	brne	.+2      	; 0x239e <ProcessInput+0x324>
    239c:	4a c0       	rjmp	.+148    	; 0x2432 <ProcessInput+0x3b8>
                        if ((route[currDepth+1] != inventory[0])&&(route[currDepth+1] != inventory[1])) {
    239e:	20 91 31 38 	lds	r18, 0x3831	; 0x803831 <inventory>
    23a2:	30 91 32 38 	lds	r19, 0x3832	; 0x803832 <inventory+0x1>
    23a6:	82 17       	cp	r24, r18
    23a8:	93 07       	cpc	r25, r19
    23aa:	09 f4       	brne	.+2      	; 0x23ae <ProcessInput+0x334>
    23ac:	42 c0       	rjmp	.+132    	; 0x2432 <ProcessInput+0x3b8>
    23ae:	20 91 33 38 	lds	r18, 0x3833	; 0x803833 <inventory+0x2>
    23b2:	30 91 34 38 	lds	r19, 0x3834	; 0x803834 <inventory+0x3>
    23b6:	82 17       	cp	r24, r18
    23b8:	93 07       	cpc	r25, r19
                            PopulateObject(route[currDepth+1], &actObj1);
    23ba:	d9 f1       	breq	.+118    	; 0x2432 <ProcessInput+0x3b8>
    23bc:	60 eb       	ldi	r22, 0xB0	; 176
    23be:	78 e3       	ldi	r23, 0x38	; 56
    23c0:	7e d9       	rcall	.-3332   	; 0x16be <PopulateObject>
                            SetResponse(elements++, actObj1.addrStr[NAME], actObj1.lenStr[NAME],GAME);
    23c2:	80 91 ca 38 	lds	r24, 0x38CA	; 0x8038ca <actObj1.3992+0x1a>
    23c6:	90 91 cb 38 	lds	r25, 0x38CB	; 0x8038cb <actObj1.3992+0x1b>
    return 0;
}

//
void SetResponse(uint8_t number, uint16_t address, uint16_t length, uint8_t type){
    reactStr[0][number]=address;
    23ca:	e6 2d       	mov	r30, r6
    23cc:	f0 e0       	ldi	r31, 0x00	; 0
    23ce:	df 01       	movw	r26, r30
    23d0:	aa 0f       	add	r26, r26
    23d2:	bb 1f       	adc	r27, r27
    23d4:	a1 51       	subi	r26, 0x11	; 17
    23d6:	b7 4c       	sbci	r27, 0xC7	; 199
    23d8:	20 91 bc 38 	lds	r18, 0x38BC	; 0x8038bc <actObj1.3992+0xc>
    23dc:	30 91 bd 38 	lds	r19, 0x38BD	; 0x8038bd <actObj1.3992+0xd>
    23e0:	2d 93       	st	X+, r18
    23e2:	3c 93       	st	X, r19
    reactStr[1][number]=length;
    23e4:	df 01       	movw	r26, r30
    23e6:	aa 0f       	add	r26, r26
    23e8:	bb 1f       	adc	r27, r27
    23ea:	a1 5d       	subi	r26, 0xD1	; 209
    23ec:	b6 4c       	sbci	r27, 0xC6	; 198
    23ee:	8d 93       	st	X+, r24
    23f0:	9c 93       	st	X, r25
    reactStr[2][number]=type;
    23f2:	ee 0f       	add	r30, r30
    23f4:	ff 1f       	adc	r31, r31
    23f6:	e1 59       	subi	r30, 0x91	; 145
    23f8:	f6 4c       	sbci	r31, 0xC6	; 198
    23fa:	10 82       	st	Z, r1
    23fc:	11 82       	std	Z+1, r1	; 0x01
    return 0;
}

//
void SetResponse(uint8_t number, uint16_t address, uint16_t length, uint8_t type){
    reactStr[0][number]=address;
    23fe:	81 e0       	ldi	r24, 0x01	; 1
    2400:	86 0d       	add	r24, r6
    2402:	90 e0       	ldi	r25, 0x00	; 0
    2404:	63 94       	inc	r6
    2406:	63 94       	inc	r6
    2408:	fc 01       	movw	r30, r24
    240a:	ee 0f       	add	r30, r30
    240c:	ff 1f       	adc	r31, r31
    240e:	e1 51       	subi	r30, 0x11	; 17
    2410:	f7 4c       	sbci	r31, 0xC7	; 199
    2412:	c0 82       	st	Z, r12
    2414:	d1 82       	std	Z+1, r13	; 0x01
    reactStr[1][number]=length;
    2416:	fc 01       	movw	r30, r24
    2418:	ee 0f       	add	r30, r30
    241a:	ff 1f       	adc	r31, r31
    241c:	e1 5d       	subi	r30, 0xD1	; 209
    241e:	f6 4c       	sbci	r31, 0xC6	; 198
    2420:	a0 82       	st	Z, r10
    2422:	b1 82       	std	Z+1, r11	; 0x01
    reactStr[2][number]=type;
    2424:	88 0f       	add	r24, r24
    2426:	99 1f       	adc	r25, r25
    2428:	fc 01       	movw	r30, r24
    242a:	e1 59       	subi	r30, 0x91	; 145
    242c:	f6 4c       	sbci	r31, 0xC6	; 198
    242e:	80 82       	st	Z, r8
    2430:	91 82       	std	Z+1, r9	; 0x01
                            PopulateObject(route[currDepth+1], &actObj1);
                            SetResponse(elements++, actObj1.addrStr[NAME], actObj1.lenStr[NAME],GAME);
                            SetResponse(elements++, A_COMMA, L_COMMA, TEASER);
                        }
                    }
                }while (route[currDepth+1]);
    2432:	20 91 27 38 	lds	r18, 0x3827	; 0x803827 <currDepth>
    2436:	82 2f       	mov	r24, r18
    2438:	90 e0       	ldi	r25, 0x00	; 0
    243a:	fc 01       	movw	r30, r24
    243c:	ee 0f       	add	r30, r30
    243e:	ff 1f       	adc	r31, r31
    2440:	ef 54       	subi	r30, 0x4F	; 79
    2442:	f6 4c       	sbci	r31, 0xC6	; 198
    2444:	40 81       	ld	r20, Z
    2446:	51 81       	ldd	r21, Z+1	; 0x01
    2448:	45 2b       	or	r20, r21
    244a:	09 f0       	breq	.+2      	; 0x244e <ProcessInput+0x3d4>
    244c:	86 cf       	rjmp	.-244    	; 0x235a <ProcessInput+0x2e0>

                //Look back if not on level 0
                if (currDepth) {
    244e:	22 23       	and	r18, r18
                    PopulateObject(route[currDepth-1], &actObj1);
    2450:	69 f1       	breq	.+90     	; 0x24ac <ProcessInput+0x432>
    2452:	88 0f       	add	r24, r24
    2454:	99 1f       	adc	r25, r25
    2456:	fc 01       	movw	r30, r24
    2458:	e3 55       	subi	r30, 0x53	; 83
    245a:	f6 4c       	sbci	r31, 0xC6	; 198
    245c:	60 eb       	ldi	r22, 0xB0	; 176
    245e:	78 e3       	ldi	r23, 0x38	; 56
    2460:	80 81       	ld	r24, Z
    2462:	91 81       	ldd	r25, Z+1	; 0x01
    2464:	2c d9       	rcall	.-3496   	; 0x16be <PopulateObject>
                    SetResponse(elements++, actObj1.addrStr[NAME], actObj1.lenStr[NAME],GAME);
    2466:	20 91 ca 38 	lds	r18, 0x38CA	; 0x8038ca <actObj1.3992+0x1a>
    246a:	30 91 cb 38 	lds	r19, 0x38CB	; 0x8038cb <actObj1.3992+0x1b>
    246e:	77 24       	eor	r7, r7
    2470:	73 94       	inc	r7
    2472:	76 0c       	add	r7, r6
    return 0;
}

//
void SetResponse(uint8_t number, uint16_t address, uint16_t length, uint8_t type){
    reactStr[0][number]=address;
    2474:	86 2d       	mov	r24, r6
    2476:	90 e0       	ldi	r25, 0x00	; 0
    2478:	fc 01       	movw	r30, r24
    247a:	ee 0f       	add	r30, r30
    247c:	ff 1f       	adc	r31, r31
    247e:	e1 51       	subi	r30, 0x11	; 17
    2480:	f7 4c       	sbci	r31, 0xC7	; 199
    2482:	40 91 bc 38 	lds	r20, 0x38BC	; 0x8038bc <actObj1.3992+0xc>
    2486:	50 91 bd 38 	lds	r21, 0x38BD	; 0x8038bd <actObj1.3992+0xd>
    248a:	40 83       	st	Z, r20
    248c:	51 83       	std	Z+1, r21	; 0x01
    reactStr[1][number]=length;
    248e:	fc 01       	movw	r30, r24
    2490:	ee 0f       	add	r30, r30
    2492:	ff 1f       	adc	r31, r31
    2494:	e1 5d       	subi	r30, 0xD1	; 209
    2496:	f6 4c       	sbci	r31, 0xC6	; 198
    2498:	20 83       	st	Z, r18
    249a:	31 83       	std	Z+1, r19	; 0x01
    reactStr[2][number]=type;
    249c:	88 0f       	add	r24, r24
    249e:	99 1f       	adc	r25, r25
    24a0:	fc 01       	movw	r30, r24
    24a2:	e1 59       	subi	r30, 0x91	; 145
    24a4:	f6 4c       	sbci	r31, 0xC6	; 198
    24a6:	10 82       	st	Z, r1
    24a8:	11 82       	std	Z+1, r1	; 0x01
    24aa:	61 c5       	rjmp	.+2754   	; 0x2f6e <ProcessInput+0xef4>

                //Look back if not on level 0
                if (currDepth) {
                    PopulateObject(route[currDepth-1], &actObj1);
                    SetResponse(elements++, actObj1.addrStr[NAME], actObj1.lenStr[NAME],GAME);
                } else elements-=1;
    24ac:	77 24       	eor	r7, r7
    24ae:	7a 94       	dec	r7
    24b0:	76 0c       	add	r7, r6
    24b2:	5d c5       	rjmp	.+2746   	; 0x2f6e <ProcessInput+0xef4>

            } else {
                route[currDepth+1] = FindChild(route[currDepth], data[1], 0);
    24b4:	ee 2e       	mov	r14, r30
    24b6:	f1 2c       	mov	r15, r1
    24b8:	f7 01       	movw	r30, r14
    24ba:	ee 0f       	add	r30, r30
    24bc:	ff 1f       	adc	r31, r31
    24be:	e1 55       	subi	r30, 0x51	; 81
    24c0:	f6 4c       	sbci	r31, 0xC6	; 198
    24c2:	40 e0       	ldi	r20, 0x00	; 0
    24c4:	50 e0       	ldi	r21, 0x00	; 0
    24c6:	d8 01       	movw	r26, r16
    24c8:	11 96       	adiw	r26, 0x01	; 1
    24ca:	6c 91       	ld	r22, X
    24cc:	80 81       	ld	r24, Z
    24ce:	91 81       	ldd	r25, Z+1	; 0x01
    24d0:	c1 d9       	rcall	.-3198   	; 0x1854 <FindChild>
    24d2:	f7 01       	movw	r30, r14
    24d4:	ee 0f       	add	r30, r30
    24d6:	ff 1f       	adc	r31, r31
    24d8:	ef 54       	subi	r30, 0x4F	; 79
    24da:	f6 4c       	sbci	r31, 0xC6	; 198
    24dc:	80 83       	st	Z, r24
    24de:	91 83       	std	Z+1, r25	; 0x01
                if (route[currDepth+1]) {
    24e0:	90 91 27 38 	lds	r25, 0x3827	; 0x803827 <currDepth>
    24e4:	29 2f       	mov	r18, r25
    24e6:	30 e0       	ldi	r19, 0x00	; 0
    24e8:	f9 01       	movw	r30, r18
    24ea:	ee 0f       	add	r30, r30
    24ec:	ff 1f       	adc	r31, r31
    24ee:	ef 54       	subi	r30, 0x4F	; 79
    24f0:	f6 4c       	sbci	r31, 0xC6	; 198
    24f2:	40 81       	ld	r20, Z
    24f4:	51 81       	ldd	r21, Z+1	; 0x01
    24f6:	41 15       	cp	r20, r1
    24f8:	51 05       	cpc	r21, r1
    24fa:	21 f0       	breq	.+8      	; 0x2504 <ProcessInput+0x48a>
                    PopulateObject(route[currDepth+1], &actObj1);
    24fc:	60 eb       	ldi	r22, 0xB0	; 176
    24fe:	78 e3       	ldi	r23, 0x38	; 56
    2500:	ca 01       	movw	r24, r20
    2502:	1e c0       	rjmp	.+60     	; 0x2540 <ProcessInput+0x4c6>
//TODO: CHECKSTATE -> A_CANTLOOK item
                    SetResponse(elements++, actObj1.addrStr[DESC], actObj1.lenStr[DESC],GAME);   
                } else if (currDepth) {
    2504:	99 23       	and	r25, r25
    2506:	09 f4       	brne	.+2      	; 0x250a <ProcessInput+0x490>
                    if (CheckLetter(route[currDepth-1], data[1])) {
    2508:	6e c5       	rjmp	.+2780   	; 0x2fe6 <ProcessInput+0xf6c>
    250a:	22 0f       	add	r18, r18
    250c:	33 1f       	adc	r19, r19
    250e:	f9 01       	movw	r30, r18
    2510:	e3 55       	subi	r30, 0x53	; 83
    2512:	f6 4c       	sbci	r31, 0xC6	; 198
    2514:	d8 01       	movw	r26, r16
    2516:	11 96       	adiw	r26, 0x01	; 1
    2518:	6c 91       	ld	r22, X
    251a:	80 81       	ld	r24, Z
    251c:	91 81       	ldd	r25, Z+1	; 0x01
    251e:	46 d9       	rcall	.-3444   	; 0x17ac <CheckLetter>
    2520:	81 11       	cpse	r24, r1
    2522:	03 c0       	rjmp	.+6      	; 0x252a <ProcessInput+0x4b0>
}

//The game logic!
uint8_t ProcessInput(uint8_t *data){
    static object_model_t actObj1, actObj2;
    uint8_t elements = 1;
    2524:	77 24       	eor	r7, r7
    2526:	73 94       	inc	r7
                    PopulateObject(route[currDepth+1], &actObj1);
//TODO: CHECKSTATE -> A_CANTLOOK item
                    SetResponse(elements++, actObj1.addrStr[DESC], actObj1.lenStr[DESC],GAME);   
                } else if (currDepth) {
                    if (CheckLetter(route[currDepth-1], data[1])) {
                        PopulateObject(route[currDepth-1], &actObj1);
    2528:	22 c5       	rjmp	.+2628   	; 0x2f6e <ProcessInput+0xef4>
    252a:	e0 91 27 38 	lds	r30, 0x3827	; 0x803827 <currDepth>
    252e:	f0 e0       	ldi	r31, 0x00	; 0
    2530:	ee 0f       	add	r30, r30
    2532:	ff 1f       	adc	r31, r31
    2534:	e3 55       	subi	r30, 0x53	; 83
    2536:	f6 4c       	sbci	r31, 0xC6	; 198
    2538:	60 eb       	ldi	r22, 0xB0	; 176
    253a:	78 e3       	ldi	r23, 0x38	; 56
    253c:	80 81       	ld	r24, Z
    253e:	91 81       	ldd	r25, Z+1	; 0x01
    2540:	be d8       	rcall	.-3716   	; 0x16be <PopulateObject>
                        SetResponse(elements++, actObj1.addrStr[DESC], actObj1.lenStr[DESC],GAME);
    2542:	80 91 cc 38 	lds	r24, 0x38CC	; 0x8038cc <actObj1.3992+0x1c>
    2546:	90 91 cd 38 	lds	r25, 0x38CD	; 0x8038cd <actObj1.3992+0x1d>
    return 0;
}

//
void SetResponse(uint8_t number, uint16_t address, uint16_t length, uint8_t type){
    reactStr[0][number]=address;
    254a:	20 91 be 38 	lds	r18, 0x38BE	; 0x8038be <actObj1.3992+0xe>
    254e:	30 91 bf 38 	lds	r19, 0x38BF	; 0x8038bf <actObj1.3992+0xf>
    2552:	d6 c3       	rjmp	.+1964   	; 0x2d00 <ProcessInput+0xc86>
                    SetResponse(elements++, A_DONTSEE, L_DONTSEE, TEASER);
                }
            }
        
        //Pick up an object
        } else if (data[0] == 'p') {
    2554:	80 37       	cpi	r24, 0x70	; 112
    2556:	09 f0       	breq	.+2      	; 0x255a <ProcessInput+0x4e0>
    2558:	96 c0       	rjmp	.+300    	; 0x2686 <ProcessInput+0x60c>
            if (inventory[0]&&inventory[1]) {
    255a:	80 91 31 38 	lds	r24, 0x3831	; 0x803831 <inventory>
    255e:	90 91 32 38 	lds	r25, 0x3832	; 0x803832 <inventory+0x1>
    2562:	89 2b       	or	r24, r25
    2564:	79 f0       	breq	.+30     	; 0x2584 <ProcessInput+0x50a>
    2566:	80 91 33 38 	lds	r24, 0x3833	; 0x803833 <inventory+0x2>
    256a:	90 91 34 38 	lds	r25, 0x3834	; 0x803834 <inventory+0x3>
    256e:	89 2b       	or	r24, r25
    2570:	49 f0       	breq	.+18     	; 0x2584 <ProcessInput+0x50a>
    return 0;
}

//
void SetResponse(uint8_t number, uint16_t address, uint16_t length, uint8_t type){
    reactStr[0][number]=address;
    2572:	85 e4       	ldi	r24, 0x45	; 69
    2574:	98 e7       	ldi	r25, 0x78	; 120
    2576:	80 93 f1 38 	sts	0x38F1, r24	; 0x8038f1 <reactStr+0x2>
    257a:	90 93 f2 38 	sts	0x38F2, r25	; 0x8038f2 <reactStr+0x3>
    reactStr[1][number]=length;
    257e:	89 e5       	ldi	r24, 0x59	; 89
    2580:	90 e0       	ldi	r25, 0x00	; 0
    2582:	29 ce       	rjmp	.-942    	; 0x21d6 <ProcessInput+0x15c>
        
        //Pick up an object
        } else if (data[0] == 'p') {
            if (inventory[0]&&inventory[1]) {
                SetResponse(elements++, A_CARRYTWO, L_CARRYTWO, TEASER);
            } else if (inputLen != 2) {
    2584:	b2 e0       	ldi	r27, 0x02	; 2
    2586:	fb 12       	cpse	r15, r27
    2588:	a7 cd       	rjmp	.-1202   	; 0x20d8 <ProcessInput+0x5e>
                SetResponse(elements++, A_NOTPOSSIBLE, L_NOTPOSSIBLE, TEASER);
            } else {
                route[currDepth+1] = FindChild(route[currDepth], data[1], 0);
    258a:	e0 90 27 38 	lds	r14, 0x3827	; 0x803827 <currDepth>
    258e:	f1 2c       	mov	r15, r1
    2590:	f7 01       	movw	r30, r14
    2592:	ee 0f       	add	r30, r30
    2594:	ff 1f       	adc	r31, r31
    2596:	e1 55       	subi	r30, 0x51	; 81
    2598:	f6 4c       	sbci	r31, 0xC6	; 198
    259a:	40 e0       	ldi	r20, 0x00	; 0
    259c:	50 e0       	ldi	r21, 0x00	; 0
    259e:	d8 01       	movw	r26, r16
    25a0:	11 96       	adiw	r26, 0x01	; 1
    25a2:	6c 91       	ld	r22, X
    25a4:	80 81       	ld	r24, Z
    25a6:	91 81       	ldd	r25, Z+1	; 0x01
    25a8:	55 d9       	rcall	.-3414   	; 0x1854 <FindChild>
    25aa:	f7 01       	movw	r30, r14
    25ac:	ee 0f       	add	r30, r30
    25ae:	ff 1f       	adc	r31, r31
    25b0:	ef 54       	subi	r30, 0x4F	; 79
    25b2:	f6 4c       	sbci	r31, 0xC6	; 198
    25b4:	80 83       	st	Z, r24
    25b6:	91 83       	std	Z+1, r25	; 0x01
                if (route[currDepth+1]) {
    25b8:	20 91 27 38 	lds	r18, 0x3827	; 0x803827 <currDepth>
    25bc:	30 e0       	ldi	r19, 0x00	; 0
    25be:	2f 5f       	subi	r18, 0xFF	; 255
    25c0:	3f 4f       	sbci	r19, 0xFF	; 255
    25c2:	22 0f       	add	r18, r18
    25c4:	33 1f       	adc	r19, r19
    25c6:	f9 01       	movw	r30, r18
    25c8:	e1 55       	subi	r30, 0x51	; 81
    25ca:	f6 4c       	sbci	r31, 0xC6	; 198
    25cc:	80 81       	ld	r24, Z
    25ce:	91 81       	ldd	r25, Z+1	; 0x01
    25d0:	00 97       	sbiw	r24, 0x00	; 0
    25d2:	09 f4       	brne	.+2      	; 0x25d6 <ProcessInput+0x55c>
    25d4:	ab c3       	rjmp	.+1878   	; 0x2d2c <ProcessInput+0xcb2>
                    if ((route[currDepth+1] == inventory[0])||(route[currDepth+1] == inventory[1])) {
    25d6:	40 91 31 38 	lds	r20, 0x3831	; 0x803831 <inventory>
    25da:	50 91 32 38 	lds	r21, 0x3832	; 0x803832 <inventory+0x1>
    25de:	84 17       	cp	r24, r20
    25e0:	95 07       	cpc	r25, r21
    25e2:	39 f0       	breq	.+14     	; 0x25f2 <ProcessInput+0x578>
    25e4:	40 91 33 38 	lds	r20, 0x3833	; 0x803833 <inventory+0x2>
    25e8:	50 91 34 38 	lds	r21, 0x3834	; 0x803834 <inventory+0x3>
    25ec:	84 17       	cp	r24, r20
    25ee:	95 07       	cpc	r25, r21
    25f0:	c1 f4       	brne	.+48     	; 0x2622 <ProcessInput+0x5a8>
    return 0;
}

//
void SetResponse(uint8_t number, uint16_t address, uint16_t length, uint8_t type){
    reactStr[0][number]=address;
    25f2:	80 e2       	ldi	r24, 0x20	; 32
    25f4:	98 e7       	ldi	r25, 0x78	; 120
    25f6:	80 93 f1 38 	sts	0x38F1, r24	; 0x8038f1 <reactStr+0x2>
    25fa:	90 93 f2 38 	sts	0x38F2, r25	; 0x8038f2 <reactStr+0x3>
    reactStr[1][number]=length;
    25fe:	85 e2       	ldi	r24, 0x25	; 37
    2600:	90 e0       	ldi	r25, 0x00	; 0
    2602:	80 93 31 39 	sts	0x3931, r24	; 0x803931 <reactStr+0x42>
    2606:	90 93 32 39 	sts	0x3932, r25	; 0x803932 <reactStr+0x43>
    reactStr[2][number]=type;
    260a:	81 e0       	ldi	r24, 0x01	; 1
    260c:	90 e0       	ldi	r25, 0x00	; 0
    260e:	80 93 71 39 	sts	0x3971, r24	; 0x803971 <reactStr+0x82>
    2612:	90 93 72 39 	sts	0x3972, r25	; 0x803972 <reactStr+0x83>
            } else {
                route[currDepth+1] = FindChild(route[currDepth], data[1], 0);
                if (route[currDepth+1]) {
                    if ((route[currDepth+1] == inventory[0])||(route[currDepth+1] == inventory[1])) {
                        SetResponse(elements++, A_ALREADYCARRYING, L_ALREADYCARRYING, TEASER);
                        route[currDepth+1] = 0;
    2616:	f9 01       	movw	r30, r18
    2618:	e1 55       	subi	r30, 0x51	; 81
    261a:	f6 4c       	sbci	r31, 0xC6	; 198
    261c:	10 82       	st	Z, r1
    261e:	11 82       	std	Z+1, r1	; 0x01
                    } else {
                        //Put item in the inventory if possible
                        PopulateObject(route[currDepth+1], &actObj1);  
    2620:	e4 cd       	rjmp	.-1080   	; 0x21ea <ProcessInput+0x170>
    2622:	60 eb       	ldi	r22, 0xB0	; 176
    2624:	78 e3       	ldi	r23, 0x38	; 56
    2626:	4b d8       	rcall	.-3946   	; 0x16be <PopulateObject>
                        if (CheckState(actObj1.byteField[ACTION_ACL])) {
    2628:	80 91 b7 38 	lds	r24, 0x38B7	; 0x8038b7 <actObj1.3992+0x7>
    262c:	0e 94 dc 08 	call	0x11b8	; 0x11b8 <CheckState>
    2630:	88 23       	and	r24, r24
    2632:	09 f4       	brne	.+2      	; 0x2636 <ProcessInput+0x5bc>
    2634:	5d c3       	rjmp	.+1722   	; 0x2cf0 <ProcessInput+0xc76>
                            if (actObj1.byteField[ITEM_NR]) {
    2636:	80 91 bb 38 	lds	r24, 0x38BB	; 0x8038bb <actObj1.3992+0xb>
    263a:	88 23       	and	r24, r24
    263c:	09 f4       	brne	.+2      	; 0x2640 <ProcessInput+0x5c6>
    263e:	4c cd       	rjmp	.-1384   	; 0x20d8 <ProcessInput+0x5e>
                                if (inventory[0]) {
    2640:	80 91 31 38 	lds	r24, 0x3831	; 0x803831 <inventory>
    2644:	90 91 32 38 	lds	r25, 0x3832	; 0x803832 <inventory+0x1>
    2648:	e0 91 27 38 	lds	r30, 0x3827	; 0x803827 <currDepth>
                                    inventory[1] = route[currDepth+1];
    264c:	f0 e0       	ldi	r31, 0x00	; 0
    264e:	ee 0f       	add	r30, r30
    2650:	ff 1f       	adc	r31, r31
    2652:	ef 54       	subi	r30, 0x4F	; 79
    2654:	f6 4c       	sbci	r31, 0xC6	; 198
                    } else {
                        //Put item in the inventory if possible
                        PopulateObject(route[currDepth+1], &actObj1);  
                        if (CheckState(actObj1.byteField[ACTION_ACL])) {
                            if (actObj1.byteField[ITEM_NR]) {
                                if (inventory[0]) {
    2656:	89 2b       	or	r24, r25
    2658:	39 f0       	breq	.+14     	; 0x2668 <ProcessInput+0x5ee>
                                    inventory[1] = route[currDepth+1];
    265a:	80 81       	ld	r24, Z
    265c:	91 81       	ldd	r25, Z+1	; 0x01
    265e:	80 93 33 38 	sts	0x3833, r24	; 0x803833 <inventory+0x2>
    2662:	90 93 34 38 	sts	0x3834, r25	; 0x803834 <inventory+0x3>
    2666:	06 c0       	rjmp	.+12     	; 0x2674 <ProcessInput+0x5fa>
                                } else {
                                    inventory[0] = route[currDepth+1];
    2668:	80 81       	ld	r24, Z
    266a:	91 81       	ldd	r25, Z+1	; 0x01
    266c:	80 93 31 38 	sts	0x3831, r24	; 0x803831 <inventory>
    2670:	90 93 32 38 	sts	0x3832, r25	; 0x803832 <inventory+0x1>
    return 0;
}

//
void SetResponse(uint8_t number, uint16_t address, uint16_t length, uint8_t type){
    reactStr[0][number]=address;
    2674:	8a e0       	ldi	r24, 0x0A	; 10
    2676:	98 e7       	ldi	r25, 0x78	; 120
    2678:	80 93 f1 38 	sts	0x38F1, r24	; 0x8038f1 <reactStr+0x2>
    267c:	90 93 f2 38 	sts	0x38F2, r25	; 0x8038f2 <reactStr+0x3>
    reactStr[1][number]=length;
    2680:	86 e1       	ldi	r24, 0x16	; 22
    2682:	90 e0       	ldi	r25, 0x00	; 0
    2684:	53 c2       	rjmp	.+1190   	; 0x2b2c <ProcessInput+0xab2>
                } else SetResponse(elements++, A_NOSUCHOBJECT, L_NOSUCHOBJECT, TEASER);
            }
        } else

        //Drop item if in inventory
        if (data[0] == 'd') {
    2686:	84 36       	cpi	r24, 0x64	; 100
    2688:	d9 f4       	brne	.+54     	; 0x26c0 <ProcessInput+0x646>
            if ((inventory[0] == 0)&&(inventory[1] == 0)){
    268a:	80 91 31 38 	lds	r24, 0x3831	; 0x803831 <inventory>
    268e:	90 91 32 38 	lds	r25, 0x3832	; 0x803832 <inventory+0x1>
    2692:	00 97       	sbiw	r24, 0x00	; 0
    2694:	09 f0       	breq	.+2      	; 0x2698 <ProcessInput+0x61e>
    2696:	b0 c4       	rjmp	.+2400   	; 0x2ff8 <ProcessInput+0xf7e>
    2698:	80 91 33 38 	lds	r24, 0x3833	; 0x803833 <inventory+0x2>
    269c:	90 91 34 38 	lds	r25, 0x3834	; 0x803834 <inventory+0x3>
    26a0:	89 2b       	or	r24, r25
    26a2:	49 f4       	brne	.+18     	; 0x26b6 <ProcessInput+0x63c>
    return 0;
}

//
void SetResponse(uint8_t number, uint16_t address, uint16_t length, uint8_t type){
    reactStr[0][number]=address;
    26a4:	84 ee       	ldi	r24, 0xE4	; 228
    26a6:	97 e7       	ldi	r25, 0x77	; 119
    26a8:	80 93 f1 38 	sts	0x38F1, r24	; 0x8038f1 <reactStr+0x2>
    26ac:	90 93 f2 38 	sts	0x38F2, r25	; 0x8038f2 <reactStr+0x3>
    reactStr[1][number]=length;
    26b0:	86 e2       	ldi	r24, 0x26	; 38
    26b2:	90 e0       	ldi	r25, 0x00	; 0
    26b4:	90 cd       	rjmp	.-1248   	; 0x21d6 <ProcessInput+0x15c>

        //Drop item if in inventory
        if (data[0] == 'd') {
            if ((inventory[0] == 0)&&(inventory[1] == 0)){
                SetResponse(elements++, A_EMPTYHANDS, L_EMPTYHANDS, TEASER);
            } else if (inputLen != 2) {
    26b6:	b2 e0       	ldi	r27, 0x02	; 2
    26b8:	fb 16       	cp	r15, r27
    26ba:	09 f4       	brne	.+2      	; 0x26be <ProcessInput+0x644>
    26bc:	02 c5       	rjmp	.+2564   	; 0x30c2 <ProcessInput+0x1048>
    26be:	0c cd       	rjmp	.-1512   	; 0x20d8 <ProcessInput+0x5e>
                    if (x) SetResponse(elements++, A_NOTCARRYING, L_NOTCARRYING, TEASER);
                }
            }

        //Inventory list
        } else if (data[0] == 'i') {
    26c0:	89 36       	cpi	r24, 0x69	; 105
    26c2:	09 f0       	breq	.+2      	; 0x26c6 <ProcessInput+0x64c>
    26c4:	7b c0       	rjmp	.+246    	; 0x27bc <ProcessInput+0x742>
            if ((inventory[0] == 0)&&(inventory[1] == 0)){
    26c6:	80 91 31 38 	lds	r24, 0x3831	; 0x803831 <inventory>
    26ca:	90 91 32 38 	lds	r25, 0x3832	; 0x803832 <inventory+0x1>
    26ce:	89 2b       	or	r24, r25
    26d0:	31 f4       	brne	.+12     	; 0x26de <ProcessInput+0x664>
    26d2:	80 91 33 38 	lds	r24, 0x3833	; 0x803833 <inventory+0x2>
    26d6:	90 91 34 38 	lds	r25, 0x3834	; 0x803834 <inventory+0x3>
    26da:	89 2b       	or	r24, r25
    26dc:	19 f3       	breq	.-58     	; 0x26a4 <ProcessInput+0x62a>
    return 0;
}

//
void SetResponse(uint8_t number, uint16_t address, uint16_t length, uint8_t type){
    reactStr[0][number]=address;
    26de:	8a e0       	ldi	r24, 0x0A	; 10
    26e0:	98 e7       	ldi	r25, 0x78	; 120
    26e2:	80 93 f1 38 	sts	0x38F1, r24	; 0x8038f1 <reactStr+0x2>
    26e6:	90 93 f2 38 	sts	0x38F2, r25	; 0x8038f2 <reactStr+0x3>
    reactStr[1][number]=length;
    26ea:	86 e1       	ldi	r24, 0x16	; 22
    26ec:	90 e0       	ldi	r25, 0x00	; 0
    26ee:	80 93 31 39 	sts	0x3931, r24	; 0x803931 <reactStr+0x42>
    26f2:	90 93 32 39 	sts	0x3932, r25	; 0x803932 <reactStr+0x43>
    reactStr[2][number]=type;
    26f6:	81 e0       	ldi	r24, 0x01	; 1
    26f8:	90 e0       	ldi	r25, 0x00	; 0
    26fa:	80 93 71 39 	sts	0x3971, r24	; 0x803971 <reactStr+0x82>
    26fe:	90 93 72 39 	sts	0x3972, r25	; 0x803972 <reactStr+0x83>
    2702:	21 e3       	ldi	r18, 0x31	; 49
    2704:	e2 2e       	mov	r14, r18
    2706:	28 e3       	ldi	r18, 0x38	; 56
    2708:	f2 2e       	mov	r15, r18
    270a:	35 e3       	ldi	r19, 0x35	; 53
    270c:	63 2e       	mov	r6, r19
    270e:	38 e3       	ldi	r19, 0x38	; 56
    2710:	73 2e       	mov	r7, r19
        //Inventory list
        } else if (data[0] == 'i') {
            if ((inventory[0] == 0)&&(inventory[1] == 0)){
                SetResponse(elements++, A_EMPTYHANDS, L_EMPTYHANDS, TEASER);
            } else {
                SetResponse(elements++, A_NOWCARRING, L_NOWCARRING, TEASER);
    2712:	42 e0       	ldi	r20, 0x02	; 2
    2714:	54 2e       	mov	r5, r20
    return 0;
}

//
void SetResponse(uint8_t number, uint16_t address, uint16_t length, uint8_t type){
    reactStr[0][number]=address;
    2716:	59 e5       	ldi	r21, 0x59	; 89
    2718:	c5 2e       	mov	r12, r21
    271a:	5a e7       	ldi	r21, 0x7A	; 122
    271c:	d5 2e       	mov	r13, r21
    reactStr[1][number]=length;
    271e:	62 e0       	ldi	r22, 0x02	; 2
    2720:	a6 2e       	mov	r10, r22
    2722:	b1 2c       	mov	r11, r1
    reactStr[2][number]=type;
    2724:	88 24       	eor	r8, r8
    2726:	83 94       	inc	r8
    2728:	91 2c       	mov	r9, r1
            } else {
                SetResponse(elements++, A_NOWCARRING, L_NOWCARRING, TEASER);
                //SetResponse(elements++, A_SPACE, L_SPACE, TEASER);
                
                for (uint8_t x=0; x<2; ++x) {
                    if (inventory[x]) {
    272a:	d7 01       	movw	r26, r14
    272c:	8d 91       	ld	r24, X+
    272e:	9d 91       	ld	r25, X+
    2730:	7d 01       	movw	r14, r26
    2732:	00 97       	sbiw	r24, 0x00	; 0
    2734:	d9 f1       	breq	.+118    	; 0x27ac <ProcessInput+0x732>
                        PopulateObject(inventory[x], &actObj1);
    2736:	60 eb       	ldi	r22, 0xB0	; 176
    2738:	78 e3       	ldi	r23, 0x38	; 56
    273a:	0e 94 5f 0b 	call	0x16be	; 0x16be <PopulateObject>
                        SetResponse(elements++, actObj1.addrStr[NAME], actObj1.lenStr[NAME], GAME);
    273e:	80 91 ca 38 	lds	r24, 0x38CA	; 0x8038ca <actObj1.3992+0x1a>
    2742:	90 91 cb 38 	lds	r25, 0x38CB	; 0x8038cb <actObj1.3992+0x1b>
    return 0;
}

//
void SetResponse(uint8_t number, uint16_t address, uint16_t length, uint8_t type){
    reactStr[0][number]=address;
    2746:	e5 2d       	mov	r30, r5
    2748:	f0 e0       	ldi	r31, 0x00	; 0
    274a:	df 01       	movw	r26, r30
    274c:	aa 0f       	add	r26, r26
    274e:	bb 1f       	adc	r27, r27
    2750:	a1 51       	subi	r26, 0x11	; 17
    2752:	b7 4c       	sbci	r27, 0xC7	; 199
    2754:	20 91 bc 38 	lds	r18, 0x38BC	; 0x8038bc <actObj1.3992+0xc>
    2758:	30 91 bd 38 	lds	r19, 0x38BD	; 0x8038bd <actObj1.3992+0xd>
    275c:	2d 93       	st	X+, r18
    275e:	3c 93       	st	X, r19
    reactStr[1][number]=length;
    2760:	df 01       	movw	r26, r30
    2762:	aa 0f       	add	r26, r26
    2764:	bb 1f       	adc	r27, r27
    2766:	a1 5d       	subi	r26, 0xD1	; 209
    2768:	b6 4c       	sbci	r27, 0xC6	; 198
    276a:	8d 93       	st	X+, r24
    276c:	9c 93       	st	X, r25
    reactStr[2][number]=type;
    276e:	ee 0f       	add	r30, r30
    2770:	ff 1f       	adc	r31, r31
    2772:	e1 59       	subi	r30, 0x91	; 145
    2774:	f6 4c       	sbci	r31, 0xC6	; 198
    2776:	10 82       	st	Z, r1
    2778:	11 82       	std	Z+1, r1	; 0x01
    return 0;
}

//
void SetResponse(uint8_t number, uint16_t address, uint16_t length, uint8_t type){
    reactStr[0][number]=address;
    277a:	e1 e0       	ldi	r30, 0x01	; 1
    277c:	e5 0d       	add	r30, r5
    277e:	f0 e0       	ldi	r31, 0x00	; 0
    2780:	53 94       	inc	r5
    2782:	53 94       	inc	r5
    2784:	df 01       	movw	r26, r30
    2786:	aa 0f       	add	r26, r26
    2788:	bb 1f       	adc	r27, r27
    278a:	a1 51       	subi	r26, 0x11	; 17
    278c:	b7 4c       	sbci	r27, 0xC7	; 199
    278e:	cd 92       	st	X+, r12
    2790:	dc 92       	st	X, r13
    reactStr[1][number]=length;
    2792:	df 01       	movw	r26, r30
    2794:	aa 0f       	add	r26, r26
    2796:	bb 1f       	adc	r27, r27
    2798:	a1 5d       	subi	r26, 0xD1	; 209
    279a:	b6 4c       	sbci	r27, 0xC6	; 198
    279c:	ad 92       	st	X+, r10
    279e:	bc 92       	st	X, r11
    reactStr[2][number]=type;
    27a0:	ee 0f       	add	r30, r30
    27a2:	ff 1f       	adc	r31, r31
    27a4:	e1 59       	subi	r30, 0x91	; 145
    27a6:	f6 4c       	sbci	r31, 0xC6	; 198
    27a8:	80 82       	st	Z, r8
    27aa:	91 82       	std	Z+1, r9	; 0x01
                SetResponse(elements++, A_EMPTYHANDS, L_EMPTYHANDS, TEASER);
            } else {
                SetResponse(elements++, A_NOWCARRING, L_NOWCARRING, TEASER);
                //SetResponse(elements++, A_SPACE, L_SPACE, TEASER);
                
                for (uint8_t x=0; x<2; ++x) {
    27ac:	6e 14       	cp	r6, r14
    27ae:	7f 04       	cpc	r7, r15
    27b0:	09 f0       	breq	.+2      	; 0x27b4 <ProcessInput+0x73a>
    27b2:	bb cf       	rjmp	.-138    	; 0x272a <ProcessInput+0x6b0>
                        SetResponse(elements++, actObj1.addrStr[NAME], actObj1.lenStr[NAME], GAME);
                        SetResponse(elements++, A_COMMA, L_COMMA, TEASER);
                        //SetResponse(elements++, A_SPACE, L_SPACE, TEASER);
                    }
                }
                elements -= 1;
    27b4:	77 24       	eor	r7, r7
    27b6:	7a 94       	dec	r7
    27b8:	75 0c       	add	r7, r5
    27ba:	d9 c3       	rjmp	.+1970   	; 0x2f6e <ProcessInput+0xef4>
            }            
        
        //Talk, use, give, read
        } else if ((data[0] == 't')||(data[0] == 'u')||(data[0] == 'g')||(data[0] == 'r')) {
    27bc:	9c e8       	ldi	r25, 0x8C	; 140
    27be:	98 0f       	add	r25, r24
    27c0:	92 30       	cpi	r25, 0x02	; 2
    27c2:	28 f0       	brcs	.+10     	; 0x27ce <ProcessInput+0x754>
    27c4:	87 36       	cpi	r24, 0x67	; 103
    27c6:	19 f0       	breq	.+6      	; 0x27ce <ProcessInput+0x754>
    27c8:	82 37       	cpi	r24, 0x72	; 114
    27ca:	09 f0       	breq	.+2      	; 0x27ce <ProcessInput+0x754>
    27cc:	b8 c2       	rjmp	.+1392   	; 0x2d3e <ProcessInput+0xcc4>
            if ((inputLen<2)||(inputLen>3)) {
    27ce:	8e ef       	ldi	r24, 0xFE	; 254
    27d0:	8f 0d       	add	r24, r15
    27d2:	82 30       	cpi	r24, 0x02	; 2
    27d4:	08 f0       	brcs	.+2      	; 0x27d8 <ProcessInput+0x75e>
    27d6:	80 cc       	rjmp	.-1792   	; 0x20d8 <ProcessInput+0x5e>
                SetResponse(elements++, A_NOTPOSSIBLE, L_NOTPOSSIBLE, TEASER);                
            
            //Check for visible person or object first
            } else {
                route[currDepth+1] = FindChild(route[currDepth], data[inputLen-1], 0);
    27d8:	e0 91 27 38 	lds	r30, 0x3827	; 0x803827 <currDepth>
    27dc:	ce 2e       	mov	r12, r30
    27de:	d1 2c       	mov	r13, r1
    27e0:	d8 01       	movw	r26, r16
    27e2:	af 0d       	add	r26, r15
    27e4:	b1 1d       	adc	r27, r1
    27e6:	11 97       	sbiw	r26, 0x01	; 1
    27e8:	f6 01       	movw	r30, r12
    27ea:	ee 0f       	add	r30, r30
    27ec:	ff 1f       	adc	r31, r31
    27ee:	e1 55       	subi	r30, 0x51	; 81
    27f0:	f6 4c       	sbci	r31, 0xC6	; 198
    27f2:	40 e0       	ldi	r20, 0x00	; 0
    27f4:	50 e0       	ldi	r21, 0x00	; 0
    27f6:	6c 91       	ld	r22, X
    27f8:	80 81       	ld	r24, Z
    27fa:	91 81       	ldd	r25, Z+1	; 0x01
    27fc:	2b d8       	rcall	.-4010   	; 0x1854 <FindChild>
    27fe:	f6 01       	movw	r30, r12
    2800:	ee 0f       	add	r30, r30
    2802:	ff 1f       	adc	r31, r31
    2804:	ef 54       	subi	r30, 0x4F	; 79
    2806:	f6 4c       	sbci	r31, 0xC6	; 198
    2808:	80 83       	st	Z, r24
    280a:	91 83       	std	Z+1, r25	; 0x01
                if (route[currDepth+1]) {
    280c:	e0 91 27 38 	lds	r30, 0x3827	; 0x803827 <currDepth>
    2810:	f0 e0       	ldi	r31, 0x00	; 0
    2812:	ee 0f       	add	r30, r30
    2814:	ff 1f       	adc	r31, r31
    2816:	ef 54       	subi	r30, 0x4F	; 79
    2818:	f6 4c       	sbci	r31, 0xC6	; 198
    281a:	80 81       	ld	r24, Z
    281c:	91 81       	ldd	r25, Z+1	; 0x01
    281e:	00 97       	sbiw	r24, 0x00	; 0
    2820:	09 f4       	brne	.+2      	; 0x2824 <ProcessInput+0x7aa>
    2822:	7b c2       	rjmp	.+1270   	; 0x2d1a <ProcessInput+0xca0>
                    
                    //Give item to person / use item on object 
                    if ((inputLen == 3)&&((data[0] == 'u')||(data[0] == 'g'))) {
    2824:	b3 e0       	ldi	r27, 0x03	; 3
    2826:	fb 12       	cpse	r15, r27
    2828:	6d c1       	rjmp	.+730    	; 0x2b04 <ProcessInput+0xa8a>
    282a:	f8 01       	movw	r30, r16
    282c:	20 81       	ld	r18, Z
    282e:	25 37       	cpi	r18, 0x75	; 117
    2830:	19 f0       	breq	.+6      	; 0x2838 <ProcessInput+0x7be>
    2832:	27 36       	cpi	r18, 0x67	; 103
    2834:	09 f0       	breq	.+2      	; 0x2838 <ProcessInput+0x7be>
    2836:	66 c1       	rjmp	.+716    	; 0x2b04 <ProcessInput+0xa8a>
    2838:	61 2c       	mov	r6, r1
    283a:	77 24       	eor	r7, r7
    283c:	73 94       	inc	r7
    return 0;
}

//
void SetResponse(uint8_t number, uint16_t address, uint16_t length, uint8_t type){
    reactStr[0][number]=address;
    283e:	54 e6       	ldi	r21, 0x64	; 100
    2840:	c5 2e       	mov	r12, r21
    2842:	59 e7       	ldi	r21, 0x79	; 121
    2844:	d5 2e       	mov	r13, r21
    reactStr[1][number]=length;
    2846:	61 e2       	ldi	r22, 0x21	; 33
    2848:	a6 2e       	mov	r10, r22
    284a:	b1 2c       	mov	r11, r1
    reactStr[2][number]=type;
    284c:	88 24       	eor	r8, r8
    284e:	83 94       	inc	r8
    2850:	91 2c       	mov	r9, r1
                if (route[currDepth+1]) {
                    
                    //Give item to person / use item on object 
                    if ((inputLen == 3)&&((data[0] == 'u')||(data[0] == 'g'))) {
                        for (uint8_t x=0; x<2; x++) {
                            if (inventory[x]) { 
    2852:	e6 2c       	mov	r14, r6
    2854:	f1 2c       	mov	r15, r1
    2856:	c7 01       	movw	r24, r14
    2858:	88 0f       	add	r24, r24
    285a:	99 1f       	adc	r25, r25
    285c:	9c 01       	movw	r18, r24
    285e:	2f 5c       	subi	r18, 0xCF	; 207
    2860:	37 4c       	sbci	r19, 0xC7	; 199
    2862:	79 01       	movw	r14, r18
    2864:	d9 01       	movw	r26, r18
    2866:	8d 91       	ld	r24, X+
    2868:	9c 91       	ld	r25, X
    286a:	00 97       	sbiw	r24, 0x00	; 0
    286c:	81 f0       	breq	.+32     	; 0x288e <ProcessInput+0x814>
                                if (CheckLetter(inventory[x], data[1])) {
    286e:	f8 01       	movw	r30, r16
    2870:	61 81       	ldd	r22, Z+1	; 0x01
    2872:	0e 94 d6 0b 	call	0x17ac	; 0x17ac <CheckLetter>
    2876:	88 23       	and	r24, r24
    2878:	51 f0       	breq	.+20     	; 0x288e <ProcessInput+0x814>
                                    PopulateObject(inventory[x], &actObj2);
    287a:	65 e8       	ldi	r22, 0x85	; 133
    287c:	78 e3       	ldi	r23, 0x38	; 56
    287e:	d7 01       	movw	r26, r14
    2880:	8d 91       	ld	r24, X+
    2882:	9c 91       	ld	r25, X
    2884:	0e 94 5f 0b 	call	0x16be	; 0x16be <PopulateObject>
                                    x = 2;
    2888:	32 e0       	ldi	r19, 0x02	; 2
    288a:	63 2e       	mov	r6, r19
    288c:	1e c0       	rjmp	.+60     	; 0x28ca <ProcessInput+0x850>
                                }
                            }
                            if (x == 1) { 
    288e:	b1 e0       	ldi	r27, 0x01	; 1
    2890:	6b 12       	cpse	r6, r27
    2892:	1a c0       	rjmp	.+52     	; 0x28c8 <ProcessInput+0x84e>
    return 0;
}

//
void SetResponse(uint8_t number, uint16_t address, uint16_t length, uint8_t type){
    reactStr[0][number]=address;
    2894:	e7 2d       	mov	r30, r7
    2896:	f0 e0       	ldi	r31, 0x00	; 0
    2898:	df 01       	movw	r26, r30
    289a:	aa 0f       	add	r26, r26
    289c:	bb 1f       	adc	r27, r27
    289e:	a1 51       	subi	r26, 0x11	; 17
    28a0:	b7 4c       	sbci	r27, 0xC7	; 199
    28a2:	cd 92       	st	X+, r12
    28a4:	dc 92       	st	X, r13
    reactStr[1][number]=length;
    28a6:	df 01       	movw	r26, r30
    28a8:	aa 0f       	add	r26, r26
    28aa:	bb 1f       	adc	r27, r27
    28ac:	a1 5d       	subi	r26, 0xD1	; 209
    28ae:	b6 4c       	sbci	r27, 0xC6	; 198
    28b0:	ad 92       	st	X+, r10
    28b2:	bc 92       	st	X, r11
    reactStr[2][number]=type;
    28b4:	ee 0f       	add	r30, r30
    28b6:	ff 1f       	adc	r31, r31
    28b8:	e1 59       	subi	r30, 0x91	; 145
    28ba:	f6 4c       	sbci	r31, 0xC6	; 198
    28bc:	80 82       	st	Z, r8
    28be:	91 82       	std	Z+1, r9	; 0x01
                                    x = 2;
                                }
                            }
                            if (x == 1) { 
                                SetResponse(elements++, A_NOTCARRYING, L_NOTCARRYING, TEASER);
                                data[0] = 0;
    28c0:	f8 01       	movw	r30, r16
    28c2:	10 82       	st	Z, r1
                                    PopulateObject(inventory[x], &actObj2);
                                    x = 2;
                                }
                            }
                            if (x == 1) { 
                                SetResponse(elements++, A_NOTCARRYING, L_NOTCARRYING, TEASER);
    28c4:	73 94       	inc	r7
    28c6:	01 c0       	rjmp	.+2      	; 0x28ca <ProcessInput+0x850>
    28c8:	61 2c       	mov	r6, r1
                route[currDepth+1] = FindChild(route[currDepth], data[inputLen-1], 0);
                if (route[currDepth+1]) {
                    
                    //Give item to person / use item on object 
                    if ((inputLen == 3)&&((data[0] == 'u')||(data[0] == 'g'))) {
                        for (uint8_t x=0; x<2; x++) {
    28ca:	63 94       	inc	r6
    28cc:	f1 e0       	ldi	r31, 0x01	; 1
    28ce:	6f 16       	cp	r6, r31
    28d0:	09 f4       	brne	.+2      	; 0x28d4 <ProcessInput+0x85a>
    28d2:	bf cf       	rjmp	.-130    	; 0x2852 <ProcessInput+0x7d8>
                                data[0] = 0;
                            }
                        }

                        //Both the item and person/object are found, check if action is legit
                        if (data[0]){
    28d4:	d8 01       	movw	r26, r16
    28d6:	8c 91       	ld	r24, X
    28d8:	88 23       	and	r24, r24
    28da:	09 f4       	brne	.+2      	; 0x28de <ProcessInput+0x864>
    28dc:	48 c3       	rjmp	.+1680   	; 0x2f6e <ProcessInput+0xef4>
                            PopulateObject(route[currDepth+1], &actObj1);
    28de:	e0 91 27 38 	lds	r30, 0x3827	; 0x803827 <currDepth>
    28e2:	f0 e0       	ldi	r31, 0x00	; 0
    28e4:	ee 0f       	add	r30, r30
    28e6:	ff 1f       	adc	r31, r31
    28e8:	ef 54       	subi	r30, 0x4F	; 79
    28ea:	f6 4c       	sbci	r31, 0xC6	; 198
    28ec:	60 eb       	ldi	r22, 0xB0	; 176
    28ee:	78 e3       	ldi	r23, 0x38	; 56
    28f0:	80 81       	ld	r24, Z
    28f2:	91 81       	ldd	r25, Z+1	; 0x01
    28f4:	0e 94 5f 0b 	call	0x16be	; 0x16be <PopulateObject>

                            //Special game
                            if (actObj1.lenStr[ACTION_STR1] == 1) {
    28f8:	e0 90 ce 38 	lds	r14, 0x38CE	; 0x8038ce <actObj1.3992+0x1e>
    28fc:	f0 90 cf 38 	lds	r15, 0x38CF	; 0x8038cf <actObj1.3992+0x1f>
    2900:	b1 e0       	ldi	r27, 0x01	; 1
    2902:	eb 16       	cp	r14, r27
    2904:	f1 04       	cpc	r15, r1
    2906:	09 f0       	breq	.+2      	; 0x290a <ProcessInput+0x890>
    2908:	9a c0       	rjmp	.+308    	; 0x2a3e <ProcessInput+0x9c4>
                                ExtEERead(actObj1.addrStr[ACTION_STR1], 1, GAME, &data[2]);
    290a:	98 01       	movw	r18, r16
    290c:	2e 5f       	subi	r18, 0xFE	; 254
    290e:	3f 4f       	sbci	r19, 0xFF	; 255
    2910:	40 e0       	ldi	r20, 0x00	; 0
    2912:	61 e0       	ldi	r22, 0x01	; 1
    2914:	80 91 c0 38 	lds	r24, 0x38C0	; 0x8038c0 <actObj1.3992+0x10>
    2918:	90 91 c1 38 	lds	r25, 0x38C1	; 0x8038c1 <actObj1.3992+0x11>
    291c:	0e 94 54 0a 	call	0x14a8	; 0x14a8 <ExtEERead>
                                if (data[2] == '1') {
    2920:	f8 01       	movw	r30, r16
    2922:	42 81       	ldd	r20, Z+2	; 0x02
    2924:	21 e0       	ldi	r18, 0x01	; 1
    2926:	27 0d       	add	r18, r7
    2928:	87 2d       	mov	r24, r7
    292a:	90 e0       	ldi	r25, 0x00	; 0
    292c:	41 33       	cpi	r20, 0x31	; 49
    292e:	09 f0       	breq	.+2      	; 0x2932 <ProcessInput+0x8b8>
    2930:	6b c0       	rjmp	.+214    	; 0x2a08 <ProcessInput+0x98e>
                                    uint8_t item = actObj2.byteField[ITEM_NR];
    2932:	30 91 90 38 	lds	r19, 0x3890	; 0x803890 <actObj2.3993+0xb>
                                    if ((item < 31)||(item > 34)) {
    2936:	51 ee       	ldi	r21, 0xE1	; 225
    2938:	53 0f       	add	r21, r19
    return 0;
}

//
void SetResponse(uint8_t number, uint16_t address, uint16_t length, uint8_t type){
    reactStr[0][number]=address;
    293a:	fc 01       	movw	r30, r24
    293c:	ee 0f       	add	r30, r30
    293e:	ff 1f       	adc	r31, r31
    2940:	e1 51       	subi	r30, 0x11	; 17
    2942:	f7 4c       	sbci	r31, 0xC7	; 199
                            //Special game
                            if (actObj1.lenStr[ACTION_STR1] == 1) {
                                ExtEERead(actObj1.addrStr[ACTION_STR1], 1, GAME, &data[2]);
                                if (data[2] == '1') {
                                    uint8_t item = actObj2.byteField[ITEM_NR];
                                    if ((item < 31)||(item > 34)) {
    2944:	54 30       	cpi	r21, 0x04	; 4
    2946:	60 f0       	brcs	.+24     	; 0x2960 <ProcessInput+0x8e6>
    return 0;
}

//
void SetResponse(uint8_t number, uint16_t address, uint16_t length, uint8_t type){
    reactStr[0][number]=address;
    2948:	44 e0       	ldi	r20, 0x04	; 4
    294a:	59 e7       	ldi	r21, 0x79	; 121
    294c:	40 83       	st	Z, r20
    294e:	51 83       	std	Z+1, r21	; 0x01
    reactStr[1][number]=length;
    2950:	fc 01       	movw	r30, r24
    2952:	ee 0f       	add	r30, r30
    2954:	ff 1f       	adc	r31, r31
    2956:	e1 5d       	subi	r30, 0xD1	; 209
    2958:	f6 4c       	sbci	r31, 0xC6	; 198
    295a:	4a e1       	ldi	r20, 0x1A	; 26
    295c:	50 e0       	ldi	r21, 0x00	; 0
    295e:	64 c0       	rjmp	.+200    	; 0x2a28 <ProcessInput+0x9ae>
    return 0;
}

//
void SetResponse(uint8_t number, uint16_t address, uint16_t length, uint8_t type){
    reactStr[0][number]=address;
    2960:	6e e8       	ldi	r22, 0x8E	; 142
    2962:	75 e7       	ldi	r23, 0x75	; 117
    2964:	60 83       	st	Z, r22
    2966:	71 83       	std	Z+1, r23	; 0x01
    reactStr[1][number]=length;
    2968:	fc 01       	movw	r30, r24
    296a:	ee 0f       	add	r30, r30
    296c:	ff 1f       	adc	r31, r31
    296e:	e1 5d       	subi	r30, 0xD1	; 209
    2970:	f6 4c       	sbci	r31, 0xC6	; 198
    2972:	62 eb       	ldi	r22, 0xB2	; 178
    2974:	70 e0       	ldi	r23, 0x00	; 0
    2976:	60 83       	st	Z, r22
    2978:	71 83       	std	Z+1, r23	; 0x01
    reactStr[2][number]=type;
    297a:	88 0f       	add	r24, r24
    297c:	99 1f       	adc	r25, r25
    297e:	fc 01       	movw	r30, r24
    2980:	e1 59       	subi	r30, 0x91	; 145
    2982:	f6 4c       	sbci	r31, 0xC6	; 198
    2984:	e0 82       	st	Z, r14
    2986:	f1 82       	std	Z+1, r15	; 0x01
    return 0;
}

//
void SetResponse(uint8_t number, uint16_t address, uint16_t length, uint8_t type){
    reactStr[0][number]=address;
    2988:	82 2f       	mov	r24, r18
    298a:	90 e0       	ldi	r25, 0x00	; 0
    298c:	fc 01       	movw	r30, r24
    298e:	ee 0f       	add	r30, r30
    2990:	ff 1f       	adc	r31, r31
    2992:	e1 51       	subi	r30, 0x11	; 17
    2994:	f7 4c       	sbci	r31, 0xC7	; 199
    2996:	6b e5       	ldi	r22, 0x5B	; 91
    2998:	7a e7       	ldi	r23, 0x7A	; 122
    299a:	60 83       	st	Z, r22
    299c:	71 83       	std	Z+1, r23	; 0x01
    reactStr[1][number]=length;
    299e:	fc 01       	movw	r30, r24
    29a0:	ee 0f       	add	r30, r30
    29a2:	ff 1f       	adc	r31, r31
    29a4:	e1 5d       	subi	r30, 0xD1	; 209
    29a6:	f6 4c       	sbci	r31, 0xC6	; 198
    29a8:	62 e0       	ldi	r22, 0x02	; 2
    29aa:	70 e0       	ldi	r23, 0x00	; 0
    29ac:	60 83       	st	Z, r22
    29ae:	71 83       	std	Z+1, r23	; 0x01
    reactStr[2][number]=type;
    29b0:	88 0f       	add	r24, r24
    29b2:	99 1f       	adc	r25, r25
    29b4:	fc 01       	movw	r30, r24
    29b6:	e1 59       	subi	r30, 0x91	; 145
    29b8:	f6 4c       	sbci	r31, 0xC6	; 198
    29ba:	e0 82       	st	Z, r14
    29bc:	f1 82       	std	Z+1, r15	; 0x01
    return 0;
}

//
void SetResponse(uint8_t number, uint16_t address, uint16_t length, uint8_t type){
    reactStr[0][number]=address;
    29be:	82 e0       	ldi	r24, 0x02	; 2
    29c0:	87 0d       	add	r24, r7
    29c2:	90 e0       	ldi	r25, 0x00	; 0
    29c4:	f3 e0       	ldi	r31, 0x03	; 3
    29c6:	7f 0e       	add	r7, r31
    29c8:	fc 01       	movw	r30, r24
    29ca:	ee 0f       	add	r30, r30
    29cc:	ff 1f       	adc	r31, r31
    29ce:	e1 51       	subi	r30, 0x11	; 17
    29d0:	f7 4c       	sbci	r31, 0xC7	; 199
    29d2:	60 eb       	ldi	r22, 0xB0	; 176
    29d4:	78 e7       	ldi	r23, 0x78	; 120
    29d6:	60 83       	st	Z, r22
    29d8:	71 83       	std	Z+1, r23	; 0x01
    reactStr[1][number]=length;
    29da:	fc 01       	movw	r30, r24
    29dc:	ee 0f       	add	r30, r30
    29de:	ff 1f       	adc	r31, r31
    29e0:	e1 5d       	subi	r30, 0xD1	; 209
    29e2:	f6 4c       	sbci	r31, 0xC6	; 198
    29e4:	62 e1       	ldi	r22, 0x12	; 18
    29e6:	70 e0       	ldi	r23, 0x00	; 0
    29e8:	60 83       	st	Z, r22
    29ea:	71 83       	std	Z+1, r23	; 0x01
    reactStr[2][number]=type;
    29ec:	88 0f       	add	r24, r24
    29ee:	99 1f       	adc	r25, r25
    29f0:	fc 01       	movw	r30, r24
    29f2:	e1 59       	subi	r30, 0x91	; 145
    29f4:	f6 4c       	sbci	r31, 0xC6	; 198
    29f6:	e0 82       	st	Z, r14
    29f8:	f1 82       	std	Z+1, r15	; 0x01
                                        SetResponse(elements++, A_CANTUSE, L_CANTUSE, TEASER);
                                    } else {
                                        SetResponse(elements++, A_PRIEST, L_PRIEST, TEASER);
                                        SetResponse(elements++, A_LF, 2, TEASER);
                                        SetResponse(elements++, A_RESPONSE, L_RESPONSE, TEASER);
                                        specialInput[0] = '1';
    29fa:	40 93 de 38 	sts	0x38DE, r20	; 0x8038de <specialInput>
                                        specialInput[1] = item;
    29fe:	30 93 df 38 	sts	0x38DF, r19	; 0x8038df <specialInput+0x1>
                                        specialInput[2] = 0;
    2a02:	10 92 e0 38 	sts	0x38E0, r1	; 0x8038e0 <specialInput+0x2>
    2a06:	b3 c2       	rjmp	.+1382   	; 0x2f6e <ProcessInput+0xef4>
    return 0;
}

//
void SetResponse(uint8_t number, uint16_t address, uint16_t length, uint8_t type){
    reactStr[0][number]=address;
    2a08:	fc 01       	movw	r30, r24
    2a0a:	ee 0f       	add	r30, r30
    2a0c:	ff 1f       	adc	r31, r31
    2a0e:	e1 51       	subi	r30, 0x11	; 17
    2a10:	f7 4c       	sbci	r31, 0xC7	; 199
    2a12:	40 e4       	ldi	r20, 0x40	; 64
    2a14:	56 e7       	ldi	r21, 0x76	; 118
    2a16:	40 83       	st	Z, r20
    2a18:	51 83       	std	Z+1, r21	; 0x01
    reactStr[1][number]=length;
    2a1a:	fc 01       	movw	r30, r24
    2a1c:	ee 0f       	add	r30, r30
    2a1e:	ff 1f       	adc	r31, r31
    2a20:	e1 5d       	subi	r30, 0xD1	; 209
    2a22:	f6 4c       	sbci	r31, 0xC6	; 198
    2a24:	42 e4       	ldi	r20, 0x42	; 66
    2a26:	50 e0       	ldi	r21, 0x00	; 0
    2a28:	40 83       	st	Z, r20
    2a2a:	51 83       	std	Z+1, r21	; 0x01
    reactStr[2][number]=type;
    2a2c:	88 0f       	add	r24, r24
    2a2e:	99 1f       	adc	r25, r25
    2a30:	fc 01       	movw	r30, r24
    2a32:	e1 59       	subi	r30, 0x91	; 145
    2a34:	f6 4c       	sbci	r31, 0xC6	; 198
    2a36:	e0 82       	st	Z, r14
    2a38:	f1 82       	std	Z+1, r15	; 0x01
                                        specialInput[2] = 0;
                                    }

                                //There should not be another special
                                } else {
                                    SetResponse(elements++, A_ERROR, L_ERROR, TEASER);
    2a3a:	72 2e       	mov	r7, r18
    2a3c:	98 c2       	rjmp	.+1328   	; 0x2f6e <ProcessInput+0xef4>
                                }

                            //Normal "use ... on ..." or "give ... to ..." action
                            } else if (actObj1.byteField[ACTION_ITEM] == actObj2.byteField[ITEM_NR]) {
    2a3e:	90 91 b9 38 	lds	r25, 0x38B9	; 0x8038b9 <actObj1.3992+0x9>
    2a42:	80 91 90 38 	lds	r24, 0x3890	; 0x803890 <actObj2.3993+0xb>
    2a46:	98 13       	cpse	r25, r24
    2a48:	24 c0       	rjmp	.+72     	; 0x2a92 <ProcessInput+0xa18>
                                UpdateState(actObj1.byteField[ACTION_STATE]);
    2a4a:	80 91 ba 38 	lds	r24, 0x38BA	; 0x8038ba <actObj1.3992+0xa>
    2a4e:	0e 94 d2 08 	call	0x11a4	; 0x11a4 <UpdateState>
                                SetResponse(elements++, actObj1.addrStr[ACTION_MSG], actObj1.lenStr[ACTION_MSG], GAME);
    2a52:	20 91 d6 38 	lds	r18, 0x38D6	; 0x8038d6 <actObj1.3992+0x26>
    2a56:	30 91 d7 38 	lds	r19, 0x38D7	; 0x8038d7 <actObj1.3992+0x27>
    return 0;
}

//
void SetResponse(uint8_t number, uint16_t address, uint16_t length, uint8_t type){
    reactStr[0][number]=address;
    2a5a:	87 2d       	mov	r24, r7
    2a5c:	90 e0       	ldi	r25, 0x00	; 0
    2a5e:	fc 01       	movw	r30, r24
    2a60:	ee 0f       	add	r30, r30
    2a62:	ff 1f       	adc	r31, r31
    2a64:	e1 51       	subi	r30, 0x11	; 17
    2a66:	f7 4c       	sbci	r31, 0xC7	; 199
    2a68:	40 91 c8 38 	lds	r20, 0x38C8	; 0x8038c8 <actObj1.3992+0x18>
    2a6c:	50 91 c9 38 	lds	r21, 0x38C9	; 0x8038c9 <actObj1.3992+0x19>
    2a70:	40 83       	st	Z, r20
    2a72:	51 83       	std	Z+1, r21	; 0x01
    reactStr[1][number]=length;
    2a74:	fc 01       	movw	r30, r24
    2a76:	ee 0f       	add	r30, r30
    2a78:	ff 1f       	adc	r31, r31
    2a7a:	e1 5d       	subi	r30, 0xD1	; 209
    2a7c:	f6 4c       	sbci	r31, 0xC6	; 198
    2a7e:	20 83       	st	Z, r18
    2a80:	31 83       	std	Z+1, r19	; 0x01
    reactStr[2][number]=type;
    2a82:	88 0f       	add	r24, r24
    2a84:	99 1f       	adc	r25, r25
    2a86:	fc 01       	movw	r30, r24
    2a88:	e1 59       	subi	r30, 0x91	; 145
    2a8a:	f6 4c       	sbci	r31, 0xC6	; 198
    2a8c:	10 82       	st	Z, r1
    2a8e:	11 82       	std	Z+1, r1	; 0x01
    2a90:	37 c0       	rjmp	.+110    	; 0x2b00 <ProcessInput+0xa86>
                            //Normal "use ... on ..." or "give ... to ..." action
                            } else if (actObj1.byteField[ACTION_ITEM] == actObj2.byteField[ITEM_NR]) {
                                UpdateState(actObj1.byteField[ACTION_STATE]);
                                SetResponse(elements++, actObj1.addrStr[ACTION_MSG], actObj1.lenStr[ACTION_MSG], GAME);
                            } else {
                                if (data[0] == 'u') {
    2a92:	d8 01       	movw	r26, r16
    2a94:	8c 91       	ld	r24, X
    2a96:	85 37       	cpi	r24, 0x75	; 117
    2a98:	99 f4       	brne	.+38     	; 0x2ac0 <ProcessInput+0xa46>
    return 0;
}

//
void SetResponse(uint8_t number, uint16_t address, uint16_t length, uint8_t type){
    reactStr[0][number]=address;
    2a9a:	87 2d       	mov	r24, r7
    2a9c:	90 e0       	ldi	r25, 0x00	; 0
    2a9e:	fc 01       	movw	r30, r24
    2aa0:	ee 0f       	add	r30, r30
    2aa2:	ff 1f       	adc	r31, r31
    2aa4:	e1 51       	subi	r30, 0x11	; 17
    2aa6:	f7 4c       	sbci	r31, 0xC7	; 199
    2aa8:	24 e0       	ldi	r18, 0x04	; 4
    2aaa:	39 e7       	ldi	r19, 0x79	; 121
    2aac:	20 83       	st	Z, r18
    2aae:	31 83       	std	Z+1, r19	; 0x01
    reactStr[1][number]=length;
    2ab0:	fc 01       	movw	r30, r24
    2ab2:	ee 0f       	add	r30, r30
    2ab4:	ff 1f       	adc	r31, r31
    2ab6:	e1 5d       	subi	r30, 0xD1	; 209
    2ab8:	f6 4c       	sbci	r31, 0xC6	; 198
    2aba:	2a e1       	ldi	r18, 0x1A	; 26
    2abc:	30 e0       	ldi	r19, 0x00	; 0
    2abe:	15 c0       	rjmp	.+42     	; 0x2aea <ProcessInput+0xa70>
                                UpdateState(actObj1.byteField[ACTION_STATE]);
                                SetResponse(elements++, actObj1.addrStr[ACTION_MSG], actObj1.lenStr[ACTION_MSG], GAME);
                            } else {
                                if (data[0] == 'u') {
                                    SetResponse(elements++, A_CANTUSE, L_CANTUSE, TEASER);
                                } else if (data[0] == 'g') {
    2ac0:	87 36       	cpi	r24, 0x67	; 103
    2ac2:	09 f0       	breq	.+2      	; 0x2ac6 <ProcessInput+0xa4c>
    2ac4:	54 c2       	rjmp	.+1192   	; 0x2f6e <ProcessInput+0xef4>
    return 0;
}

//
void SetResponse(uint8_t number, uint16_t address, uint16_t length, uint8_t type){
    reactStr[0][number]=address;
    2ac6:	87 2d       	mov	r24, r7
    2ac8:	90 e0       	ldi	r25, 0x00	; 0
    2aca:	fc 01       	movw	r30, r24
    2acc:	ee 0f       	add	r30, r30
    2ace:	ff 1f       	adc	r31, r31
    2ad0:	e1 51       	subi	r30, 0x11	; 17
    2ad2:	f7 4c       	sbci	r31, 0xC7	; 199
    2ad4:	2d ed       	ldi	r18, 0xDD	; 221
    2ad6:	36 e7       	ldi	r19, 0x76	; 118
    2ad8:	20 83       	st	Z, r18
    2ada:	31 83       	std	Z+1, r19	; 0x01
    reactStr[1][number]=length;
    2adc:	fc 01       	movw	r30, r24
    2ade:	ee 0f       	add	r30, r30
    2ae0:	ff 1f       	adc	r31, r31
    2ae2:	e1 5d       	subi	r30, 0xD1	; 209
    2ae4:	f6 4c       	sbci	r31, 0xC6	; 198
    2ae6:	28 e2       	ldi	r18, 0x28	; 40
    2ae8:	30 e0       	ldi	r19, 0x00	; 0
    2aea:	20 83       	st	Z, r18
    2aec:	31 83       	std	Z+1, r19	; 0x01
    reactStr[2][number]=type;
    2aee:	88 0f       	add	r24, r24
    2af0:	99 1f       	adc	r25, r25
    2af2:	fc 01       	movw	r30, r24
    2af4:	e1 59       	subi	r30, 0x91	; 145
    2af6:	f6 4c       	sbci	r31, 0xC6	; 198
    2af8:	81 e0       	ldi	r24, 0x01	; 1
    2afa:	90 e0       	ldi	r25, 0x00	; 0
    2afc:	80 83       	st	Z, r24
    2afe:	91 83       	std	Z+1, r25	; 0x01
                                SetResponse(elements++, actObj1.addrStr[ACTION_MSG], actObj1.lenStr[ACTION_MSG], GAME);
                            } else {
                                if (data[0] == 'u') {
                                    SetResponse(elements++, A_CANTUSE, L_CANTUSE, TEASER);
                                } else if (data[0] == 'g') {
                                    SetResponse(elements++, A_CANTGIVE, L_CANTGIVE, TEASER);                                    
    2b00:	73 94       	inc	r7
    2b02:	35 c2       	rjmp	.+1130   	; 0x2f6e <ProcessInput+0xef4>
                            }
                        }
                    
                    //Talk to person, read or use object (without item)                          
                    } else {
                        PopulateObject(route[currDepth+1], &actObj1);
    2b04:	60 eb       	ldi	r22, 0xB0	; 176
    2b06:	78 e3       	ldi	r23, 0x38	; 56
    2b08:	0e 94 5f 0b 	call	0x16be	; 0x16be <PopulateObject>
                        if ((data[0] == 't')&&((actObj1.byteField[ACTION_MASK]&TALK) == 0)) {
    2b0c:	f8 01       	movw	r30, r16
    2b0e:	80 81       	ld	r24, Z
    2b10:	84 37       	cpi	r24, 0x74	; 116
    2b12:	69 f5       	brne	.+90     	; 0x2b6e <ProcessInput+0xaf4>
    2b14:	80 91 b8 38 	lds	r24, 0x38B8	; 0x8038b8 <actObj1.3992+0x8>
    2b18:	83 fd       	sbrc	r24, 3
    2b1a:	44 c0       	rjmp	.+136    	; 0x2ba4 <ProcessInput+0xb2a>
    return 0;
}

//
void SetResponse(uint8_t number, uint16_t address, uint16_t length, uint8_t type){
    reactStr[0][number]=address;
    2b1c:	8e e1       	ldi	r24, 0x1E	; 30
    2b1e:	99 e7       	ldi	r25, 0x79	; 121
    2b20:	80 93 f1 38 	sts	0x38F1, r24	; 0x8038f1 <reactStr+0x2>
    2b24:	90 93 f2 38 	sts	0x38F2, r25	; 0x8038f2 <reactStr+0x3>
    reactStr[1][number]=length;
    2b28:	8e e1       	ldi	r24, 0x1E	; 30
    2b2a:	90 e0       	ldi	r25, 0x00	; 0
    2b2c:	80 93 31 39 	sts	0x3931, r24	; 0x803931 <reactStr+0x42>
    2b30:	90 93 32 39 	sts	0x3932, r25	; 0x803932 <reactStr+0x43>
    reactStr[2][number]=type;
    2b34:	81 e0       	ldi	r24, 0x01	; 1
    2b36:	90 e0       	ldi	r25, 0x00	; 0
    2b38:	80 93 71 39 	sts	0x3971, r24	; 0x803971 <reactStr+0x82>
    2b3c:	90 93 72 39 	sts	0x3972, r25	; 0x803972 <reactStr+0x83>
                    //Talk to person, read or use object (without item)                          
                    } else {
                        PopulateObject(route[currDepth+1], &actObj1);
                        if ((data[0] == 't')&&((actObj1.byteField[ACTION_MASK]&TALK) == 0)) {
                            SetResponse(elements++, A_WHYTALK, L_WHYTALK, TEASER);
                            SetResponse(elements++, actObj1.addrStr[NAME], actObj1.lenStr[NAME], GAME);
    2b40:	80 91 ca 38 	lds	r24, 0x38CA	; 0x8038ca <actObj1.3992+0x1a>
    2b44:	90 91 cb 38 	lds	r25, 0x38CB	; 0x8038cb <actObj1.3992+0x1b>
    return 0;
}

//
void SetResponse(uint8_t number, uint16_t address, uint16_t length, uint8_t type){
    reactStr[0][number]=address;
    2b48:	20 91 bc 38 	lds	r18, 0x38BC	; 0x8038bc <actObj1.3992+0xc>
    2b4c:	30 91 bd 38 	lds	r19, 0x38BD	; 0x8038bd <actObj1.3992+0xd>
    2b50:	20 93 f3 38 	sts	0x38F3, r18	; 0x8038f3 <reactStr+0x4>
    2b54:	30 93 f4 38 	sts	0x38F4, r19	; 0x8038f4 <reactStr+0x5>
    reactStr[1][number]=length;
    2b58:	80 93 33 39 	sts	0x3933, r24	; 0x803933 <reactStr+0x44>
    2b5c:	90 93 34 39 	sts	0x3934, r25	; 0x803934 <reactStr+0x45>
    reactStr[2][number]=type;
    2b60:	10 92 73 39 	sts	0x3973, r1	; 0x803973 <reactStr+0x84>
    2b64:	10 92 74 39 	sts	0x3974, r1	; 0x803974 <reactStr+0x85>
                    //Talk to person, read or use object (without item)                          
                    } else {
                        PopulateObject(route[currDepth+1], &actObj1);
                        if ((data[0] == 't')&&((actObj1.byteField[ACTION_MASK]&TALK) == 0)) {
                            SetResponse(elements++, A_WHYTALK, L_WHYTALK, TEASER);
                            SetResponse(elements++, actObj1.addrStr[NAME], actObj1.lenStr[NAME], GAME);
    2b68:	a3 e0       	ldi	r26, 0x03	; 3
    2b6a:	7a 2e       	mov	r7, r26
    2b6c:	00 c2       	rjmp	.+1024   	; 0x2f6e <ProcessInput+0xef4>
                        } else if ((data[0] == 'u')&&((actObj1.byteField[ACTION_MASK]&USE) == 0)) {
    2b6e:	85 37       	cpi	r24, 0x75	; 117
    2b70:	39 f4       	brne	.+14     	; 0x2b80 <ProcessInput+0xb06>
    2b72:	80 91 b8 38 	lds	r24, 0x38B8	; 0x8038b8 <actObj1.3992+0x8>
    2b76:	84 fd       	sbrc	r24, 4
    2b78:	15 c0       	rjmp	.+42     	; 0x2ba4 <ProcessInput+0xb2a>
    return 0;
}

//
void SetResponse(uint8_t number, uint16_t address, uint16_t length, uint8_t type){
    reactStr[0][number]=address;
    2b7a:	84 e0       	ldi	r24, 0x04	; 4
    2b7c:	99 e7       	ldi	r25, 0x79	; 121
    2b7e:	35 c2       	rjmp	.+1130   	; 0x2fea <ProcessInput+0xf70>
                        if ((data[0] == 't')&&((actObj1.byteField[ACTION_MASK]&TALK) == 0)) {
                            SetResponse(elements++, A_WHYTALK, L_WHYTALK, TEASER);
                            SetResponse(elements++, actObj1.addrStr[NAME], actObj1.lenStr[NAME], GAME);
                        } else if ((data[0] == 'u')&&((actObj1.byteField[ACTION_MASK]&USE) == 0)) {
                            SetResponse(elements++, A_CANTUSE, L_CANTUSE, TEASER);
                        } else if ((data[0] == 'r')&&((actObj1.byteField[ACTION_MASK]&READ) == 0)) {
    2b80:	82 37       	cpi	r24, 0x72	; 114
    2b82:	69 f4       	brne	.+26     	; 0x2b9e <ProcessInput+0xb24>
    2b84:	80 91 b8 38 	lds	r24, 0x38B8	; 0x8038b8 <actObj1.3992+0x8>
    2b88:	85 fd       	sbrc	r24, 5
    2b8a:	0c c0       	rjmp	.+24     	; 0x2ba4 <ProcessInput+0xb2a>
    return 0;
}

//
void SetResponse(uint8_t number, uint16_t address, uint16_t length, uint8_t type){
    reactStr[0][number]=address;
    2b8c:	89 ee       	ldi	r24, 0xE9	; 233
    2b8e:	98 e7       	ldi	r25, 0x78	; 120
    2b90:	80 93 f1 38 	sts	0x38F1, r24	; 0x8038f1 <reactStr+0x2>
    2b94:	90 93 f2 38 	sts	0x38F2, r25	; 0x8038f2 <reactStr+0x3>
    reactStr[1][number]=length;
    2b98:	8b e1       	ldi	r24, 0x1B	; 27
    2b9a:	90 e0       	ldi	r25, 0x00	; 0
    2b9c:	1c cb       	rjmp	.-2504   	; 0x21d6 <ProcessInput+0x15c>
                            SetResponse(elements++, actObj1.addrStr[NAME], actObj1.lenStr[NAME], GAME);
                        } else if ((data[0] == 'u')&&((actObj1.byteField[ACTION_MASK]&USE) == 0)) {
                            SetResponse(elements++, A_CANTUSE, L_CANTUSE, TEASER);
                        } else if ((data[0] == 'r')&&((actObj1.byteField[ACTION_MASK]&READ) == 0)) {
                            SetResponse(elements++, A_CANTREAD, L_CANTREAD, TEASER);
                        } else if (data[0] == 'g'){ 
    2b9e:	87 36       	cpi	r24, 0x67	; 103
    2ba0:	09 f4       	brne	.+2      	; 0x2ba4 <ProcessInput+0xb2a>
    2ba2:	9a ca       	rjmp	.-2764   	; 0x20d8 <ProcessInput+0x5e>
                            SetResponse(elements++, A_NOTPOSSIBLE, L_NOTPOSSIBLE, TEASER);  
                        } else {

                            //Special game, not enough characters
                            if (actObj1.lenStr[ACTION_STR1] == 1) {
    2ba4:	e0 90 ce 38 	lds	r14, 0x38CE	; 0x8038ce <actObj1.3992+0x1e>
    2ba8:	f0 90 cf 38 	lds	r15, 0x38CF	; 0x8038cf <actObj1.3992+0x1f>
    2bac:	f1 e0       	ldi	r31, 0x01	; 1
    2bae:	ef 16       	cp	r14, r31
    2bb0:	f1 04       	cpc	r15, r1
    2bb2:	11 f5       	brne	.+68     	; 0x2bf8 <ProcessInput+0xb7e>
                                ExtEERead(actObj1.addrStr[ACTION_STR1], 1, GAME, &data[2]);
    2bb4:	98 01       	movw	r18, r16
    2bb6:	2e 5f       	subi	r18, 0xFE	; 254
    2bb8:	3f 4f       	sbci	r19, 0xFF	; 255
    2bba:	40 e0       	ldi	r20, 0x00	; 0
    2bbc:	61 e0       	ldi	r22, 0x01	; 1
    2bbe:	80 91 c0 38 	lds	r24, 0x38C0	; 0x8038c0 <actObj1.3992+0x10>
    2bc2:	90 91 c1 38 	lds	r25, 0x38C1	; 0x8038c1 <actObj1.3992+0x11>
    2bc6:	0e 94 54 0a 	call	0x14a8	; 0x14a8 <ExtEERead>
                                if (data[2] == '1') {
    2bca:	d8 01       	movw	r26, r16
    2bcc:	12 96       	adiw	r26, 0x02	; 2
    2bce:	8c 91       	ld	r24, X
    2bd0:	81 33       	cpi	r24, 0x31	; 49
    2bd2:	09 f0       	breq	.+2      	; 0x2bd6 <ProcessInput+0xb5c>
    2bd4:	a7 cc       	rjmp	.-1714   	; 0x2524 <ProcessInput+0x4aa>
    return 0;
}

//
void SetResponse(uint8_t number, uint16_t address, uint16_t length, uint8_t type){
    reactStr[0][number]=address;
    2bd6:	83 e6       	ldi	r24, 0x63	; 99
    2bd8:	95 e7       	ldi	r25, 0x75	; 117
    2bda:	80 93 f1 38 	sts	0x38F1, r24	; 0x8038f1 <reactStr+0x2>
    2bde:	90 93 f2 38 	sts	0x38F2, r25	; 0x8038f2 <reactStr+0x3>
    reactStr[1][number]=length;
    2be2:	8b e2       	ldi	r24, 0x2B	; 43
    2be4:	90 e0       	ldi	r25, 0x00	; 0
    2be6:	80 93 31 39 	sts	0x3931, r24	; 0x803931 <reactStr+0x42>
    2bea:	90 93 32 39 	sts	0x3932, r25	; 0x803932 <reactStr+0x43>
    reactStr[2][number]=type;
    2bee:	e0 92 71 39 	sts	0x3971, r14	; 0x803971 <reactStr+0x82>
    2bf2:	f0 92 72 39 	sts	0x3972, r15	; 0x803972 <reactStr+0x83>
    2bf6:	f9 ca       	rjmp	.-2574   	; 0x21ea <ProcessInput+0x170>
                                if (data[2] == '1') {
                                    SetResponse(elements++, A_PLEASEOFFER, L_PLEASEOFFER, TEASER);
                                }

                            //General request
                            } else if (actObj1.lenStr[ACTION_STR1]) {
    2bf8:	e1 14       	cp	r14, r1
    2bfa:	f1 04       	cpc	r15, r1
    2bfc:	09 f4       	brne	.+2      	; 0x2c00 <ProcessInput+0xb86>
    2bfe:	59 c0       	rjmp	.+178    	; 0x2cb2 <ProcessInput+0xc38>
    return 0;
}

//
void SetResponse(uint8_t number, uint16_t address, uint16_t length, uint8_t type){
    reactStr[0][number]=address;
    2c00:	80 91 c0 38 	lds	r24, 0x38C0	; 0x8038c0 <actObj1.3992+0x10>
    2c04:	90 91 c1 38 	lds	r25, 0x38C1	; 0x8038c1 <actObj1.3992+0x11>
    2c08:	80 93 f1 38 	sts	0x38F1, r24	; 0x8038f1 <reactStr+0x2>
    2c0c:	90 93 f2 38 	sts	0x38F2, r25	; 0x8038f2 <reactStr+0x3>
    reactStr[1][number]=length;
    2c10:	e0 92 31 39 	sts	0x3931, r14	; 0x803931 <reactStr+0x42>
    2c14:	f0 92 32 39 	sts	0x3932, r15	; 0x803932 <reactStr+0x43>
    reactStr[2][number]=type;
    2c18:	10 92 71 39 	sts	0x3971, r1	; 0x803971 <reactStr+0x82>
    2c1c:	10 92 72 39 	sts	0x3972, r1	; 0x803972 <reactStr+0x83>
    return 0;
}

//
void SetResponse(uint8_t number, uint16_t address, uint16_t length, uint8_t type){
    reactStr[0][number]=address;
    2c20:	8b e5       	ldi	r24, 0x5B	; 91
    2c22:	9a e7       	ldi	r25, 0x7A	; 122
    2c24:	80 93 f3 38 	sts	0x38F3, r24	; 0x8038f3 <reactStr+0x4>
    2c28:	90 93 f4 38 	sts	0x38F4, r25	; 0x8038f4 <reactStr+0x5>
    reactStr[1][number]=length;
    2c2c:	82 e0       	ldi	r24, 0x02	; 2
    2c2e:	90 e0       	ldi	r25, 0x00	; 0
    2c30:	80 93 33 39 	sts	0x3933, r24	; 0x803933 <reactStr+0x44>
    2c34:	90 93 34 39 	sts	0x3934, r25	; 0x803934 <reactStr+0x45>
    reactStr[2][number]=type;
    2c38:	81 e0       	ldi	r24, 0x01	; 1
    2c3a:	90 e0       	ldi	r25, 0x00	; 0
    2c3c:	80 93 73 39 	sts	0x3973, r24	; 0x803973 <reactStr+0x84>
    2c40:	90 93 74 39 	sts	0x3974, r25	; 0x803974 <reactStr+0x85>
    return 0;
}

//
void SetResponse(uint8_t number, uint16_t address, uint16_t length, uint8_t type){
    reactStr[0][number]=address;
    2c44:	20 eb       	ldi	r18, 0xB0	; 176
    2c46:	38 e7       	ldi	r19, 0x78	; 120
    2c48:	20 93 f5 38 	sts	0x38F5, r18	; 0x8038f5 <reactStr+0x6>
    2c4c:	30 93 f6 38 	sts	0x38F6, r19	; 0x8038f6 <reactStr+0x7>
    reactStr[1][number]=length;
    2c50:	22 e1       	ldi	r18, 0x12	; 18
    2c52:	30 e0       	ldi	r19, 0x00	; 0
    2c54:	20 93 35 39 	sts	0x3935, r18	; 0x803935 <reactStr+0x46>
    2c58:	30 93 36 39 	sts	0x3936, r19	; 0x803936 <reactStr+0x47>
    reactStr[2][number]=type;
    2c5c:	80 93 75 39 	sts	0x3975, r24	; 0x803975 <reactStr+0x86>
    2c60:	90 93 76 39 	sts	0x3976, r25	; 0x803976 <reactStr+0x87>
                            //General request
                            } else if (actObj1.lenStr[ACTION_STR1]) {
                                SetResponse(elements++, actObj1.addrStr[ACTION_STR1], actObj1.lenStr[ACTION_STR1], GAME);
                                SetResponse(elements++, A_LF, 2, TEASER);
                                SetResponse(elements++, A_RESPONSE, L_RESPONSE, TEASER);
                                if (actObj1.lenStr[ACTION_STR2]>(INP_LENGTH-1)) actObj1.lenStr[ACTION_STR2] = (INP_LENGTH-1);
    2c64:	80 91 d0 38 	lds	r24, 0x38D0	; 0x8038d0 <actObj1.3992+0x20>
    2c68:	90 91 d1 38 	lds	r25, 0x38D1	; 0x8038d1 <actObj1.3992+0x21>
    2c6c:	40 97       	sbiw	r24, 0x10	; 16
    2c6e:	30 f0       	brcs	.+12     	; 0x2c7c <ProcessInput+0xc02>
    2c70:	8f e0       	ldi	r24, 0x0F	; 15
    2c72:	90 e0       	ldi	r25, 0x00	; 0
    2c74:	80 93 d0 38 	sts	0x38D0, r24	; 0x8038d0 <actObj1.3992+0x20>
    2c78:	90 93 d1 38 	sts	0x38D1, r25	; 0x8038d1 <actObj1.3992+0x21>
                                ExtEERead(actObj1.addrStr[ACTION_STR2], actObj1.lenStr[ACTION_STR2], GAME, (uint8_t *)&specialInput[0]);
    2c7c:	2e ed       	ldi	r18, 0xDE	; 222
    2c7e:	38 e3       	ldi	r19, 0x38	; 56
    2c80:	40 e0       	ldi	r20, 0x00	; 0
    2c82:	60 91 d0 38 	lds	r22, 0x38D0	; 0x8038d0 <actObj1.3992+0x20>
    2c86:	80 91 c2 38 	lds	r24, 0x38C2	; 0x8038c2 <actObj1.3992+0x12>
    2c8a:	90 91 c3 38 	lds	r25, 0x38C3	; 0x8038c3 <actObj1.3992+0x13>
    2c8e:	0e 94 54 0a 	call	0x14a8	; 0x14a8 <ExtEERead>
                                UnflipData(actObj1.lenStr[ACTION_STR2], (uint8_t *)&specialInput[0]);
    2c92:	6e ed       	ldi	r22, 0xDE	; 222
    2c94:	78 e3       	ldi	r23, 0x38	; 56
    2c96:	80 91 d0 38 	lds	r24, 0x38D0	; 0x8038d0 <actObj1.3992+0x20>
    2c9a:	0e 94 47 0a 	call	0x148e	; 0x148e <UnflipData>
                                specialInput[actObj1.lenStr[ACTION_STR2]] = 0;
    2c9e:	e0 91 d0 38 	lds	r30, 0x38D0	; 0x8038d0 <actObj1.3992+0x20>
    2ca2:	f0 91 d1 38 	lds	r31, 0x38D1	; 0x8038d1 <actObj1.3992+0x21>
    2ca6:	e2 52       	subi	r30, 0x22	; 34
    2ca8:	f7 4c       	sbci	r31, 0xC7	; 199
    2caa:	10 82       	st	Z, r1

                            //General request
                            } else if (actObj1.lenStr[ACTION_STR1]) {
                                SetResponse(elements++, actObj1.addrStr[ACTION_STR1], actObj1.lenStr[ACTION_STR1], GAME);
                                SetResponse(elements++, A_LF, 2, TEASER);
                                SetResponse(elements++, A_RESPONSE, L_RESPONSE, TEASER);
    2cac:	f4 e0       	ldi	r31, 0x04	; 4
    2cae:	7f 2e       	mov	r7, r31
    2cb0:	5e c1       	rjmp	.+700    	; 0x2f6e <ProcessInput+0xef4>
                                if (actObj1.lenStr[ACTION_STR2]>(INP_LENGTH-1)) actObj1.lenStr[ACTION_STR2] = (INP_LENGTH-1);
                                ExtEERead(actObj1.addrStr[ACTION_STR2], actObj1.lenStr[ACTION_STR2], GAME, (uint8_t *)&specialInput[0]);
                                UnflipData(actObj1.lenStr[ACTION_STR2], (uint8_t *)&specialInput[0]);
                                specialInput[actObj1.lenStr[ACTION_STR2]] = 0;
                                //specialPassed = 0;
                            } else if (CheckState(actObj1.byteField[ACTION_ACL])){
    2cb2:	80 91 b7 38 	lds	r24, 0x38B7	; 0x8038b7 <actObj1.3992+0x7>
    2cb6:	0e 94 dc 08 	call	0x11b8	; 0x11b8 <CheckState>
    2cba:	88 23       	and	r24, r24
    2cbc:	c9 f0       	breq	.+50     	; 0x2cf0 <ProcessInput+0xc76>
                                SetResponse(elements++, actObj1.addrStr[ACTION_MSG], actObj1.lenStr[ACTION_MSG], GAME);
    2cbe:	80 91 d6 38 	lds	r24, 0x38D6	; 0x8038d6 <actObj1.3992+0x26>
    2cc2:	90 91 d7 38 	lds	r25, 0x38D7	; 0x8038d7 <actObj1.3992+0x27>
    return 0;
}

//
void SetResponse(uint8_t number, uint16_t address, uint16_t length, uint8_t type){
    reactStr[0][number]=address;
    2cc6:	20 91 c8 38 	lds	r18, 0x38C8	; 0x8038c8 <actObj1.3992+0x18>
    2cca:	30 91 c9 38 	lds	r19, 0x38C9	; 0x8038c9 <actObj1.3992+0x19>
    2cce:	20 93 f1 38 	sts	0x38F1, r18	; 0x8038f1 <reactStr+0x2>
    2cd2:	30 93 f2 38 	sts	0x38F2, r19	; 0x8038f2 <reactStr+0x3>
    reactStr[1][number]=length;
    2cd6:	80 93 31 39 	sts	0x3931, r24	; 0x803931 <reactStr+0x42>
    2cda:	90 93 32 39 	sts	0x3932, r25	; 0x803932 <reactStr+0x43>
    reactStr[2][number]=type;
    2cde:	10 92 71 39 	sts	0x3971, r1	; 0x803971 <reactStr+0x82>
    2ce2:	10 92 72 39 	sts	0x3972, r1	; 0x803972 <reactStr+0x83>
                                UnflipData(actObj1.lenStr[ACTION_STR2], (uint8_t *)&specialInput[0]);
                                specialInput[actObj1.lenStr[ACTION_STR2]] = 0;
                                //specialPassed = 0;
                            } else if (CheckState(actObj1.byteField[ACTION_ACL])){
                                SetResponse(elements++, actObj1.addrStr[ACTION_MSG], actObj1.lenStr[ACTION_MSG], GAME);
                                UpdateState(actObj1.byteField[ACTION_STATE]);
    2ce6:	80 91 ba 38 	lds	r24, 0x38BA	; 0x8038ba <actObj1.3992+0xa>
    2cea:	0e 94 d2 08 	call	0x11a4	; 0x11a4 <UpdateState>
    2cee:	7d ca       	rjmp	.-2822   	; 0x21ea <ProcessInput+0x170>
                            } else {
                                SetResponse(elements++, actObj1.addrStr[ACTION_ACL_MSG], actObj1.lenStr[ACTION_ACL_MSG], GAME);
    2cf0:	80 91 d4 38 	lds	r24, 0x38D4	; 0x8038d4 <actObj1.3992+0x24>
    2cf4:	90 91 d5 38 	lds	r25, 0x38D5	; 0x8038d5 <actObj1.3992+0x25>
    return 0;
}

//
void SetResponse(uint8_t number, uint16_t address, uint16_t length, uint8_t type){
    reactStr[0][number]=address;
    2cf8:	20 91 c6 38 	lds	r18, 0x38C6	; 0x8038c6 <actObj1.3992+0x16>
    2cfc:	30 91 c7 38 	lds	r19, 0x38C7	; 0x8038c7 <actObj1.3992+0x17>
    2d00:	20 93 f1 38 	sts	0x38F1, r18	; 0x8038f1 <reactStr+0x2>
    2d04:	30 93 f2 38 	sts	0x38F2, r19	; 0x8038f2 <reactStr+0x3>
    reactStr[1][number]=length;
    2d08:	80 93 31 39 	sts	0x3931, r24	; 0x803931 <reactStr+0x42>
    2d0c:	90 93 32 39 	sts	0x3932, r25	; 0x803932 <reactStr+0x43>
    reactStr[2][number]=type;
    2d10:	10 92 71 39 	sts	0x3971, r1	; 0x803971 <reactStr+0x82>
    2d14:	10 92 72 39 	sts	0x3972, r1	; 0x803972 <reactStr+0x83>
    2d18:	68 ca       	rjmp	.-2864   	; 0x21ea <ProcessInput+0x170>
                        }
                    }

                //Person or object not found
                } else {
                    if ((data[0] == 't')||(data[0] == 'g')){
    2d1a:	f8 01       	movw	r30, r16
    2d1c:	80 81       	ld	r24, Z
    2d1e:	84 37       	cpi	r24, 0x74	; 116
    2d20:	11 f0       	breq	.+4      	; 0x2d26 <ProcessInput+0xcac>
    2d22:	87 36       	cpi	r24, 0x67	; 103
    2d24:	19 f4       	brne	.+6      	; 0x2d2c <ProcessInput+0xcb2>
    return 0;
}

//
void SetResponse(uint8_t number, uint16_t address, uint16_t length, uint8_t type){
    reactStr[0][number]=address;
    2d26:	8c e3       	ldi	r24, 0x3C	; 60
    2d28:	99 e7       	ldi	r25, 0x79	; 121
    2d2a:	02 c0       	rjmp	.+4      	; 0x2d30 <ProcessInput+0xcb6>
    2d2c:	80 e5       	ldi	r24, 0x50	; 80
    2d2e:	99 e7       	ldi	r25, 0x79	; 121
    2d30:	80 93 f1 38 	sts	0x38F1, r24	; 0x8038f1 <reactStr+0x2>
    2d34:	90 93 f2 38 	sts	0x38F2, r25	; 0x8038f2 <reactStr+0x3>
    reactStr[1][number]=length;
    2d38:	84 e1       	ldi	r24, 0x14	; 20
    2d3a:	90 e0       	ldi	r25, 0x00	; 0
    2d3c:	4c ca       	rjmp	.-2920   	; 0x21d6 <ProcessInput+0x15c>
                    }
                }
            }
        
        //Special answer given
        } else if (data[0] == 'a'){
    2d3e:	81 36       	cpi	r24, 0x61	; 97
    2d40:	09 f0       	breq	.+2      	; 0x2d44 <ProcessInput+0xcca>
    2d42:	f0 cb       	rjmp	.-2080   	; 0x2524 <ProcessInput+0x4aa>
            
            //Priest offerings
            if (specialPassed >= 2) {
    2d44:	80 91 dd 38 	lds	r24, 0x38DD	; 0x8038dd <specialPassed>
    2d48:	82 30       	cpi	r24, 0x02	; 2
    2d4a:	08 f4       	brcc	.+2      	; 0x2d4e <ProcessInput+0xcd4>
    2d4c:	b3 c0       	rjmp	.+358    	; 0x2eb4 <ProcessInput+0xe3a>
                if (data[1] > 0) {
    2d4e:	d8 01       	movw	r26, r16
    2d50:	11 96       	adiw	r26, 0x01	; 1
    2d52:	2c 91       	ld	r18, X
    2d54:	22 23       	and	r18, r18
    2d56:	09 f4       	brne	.+2      	; 0x2d5a <ProcessInput+0xce0>
    2d58:	a4 c0       	rjmp	.+328    	; 0x2ea2 <ProcessInput+0xe28>

                    uint8_t  digit[10] = {0, 0, 0, 0, 0, 0, 0, 0, 0, 0};
    2d5a:	fe 01       	movw	r30, r28
    2d5c:	31 96       	adiw	r30, 0x01	; 1
    2d5e:	7f 01       	movw	r14, r30
    2d60:	8a e0       	ldi	r24, 0x0A	; 10
    2d62:	df 01       	movw	r26, r30
    2d64:	1d 92       	st	X+, r1
    2d66:	8a 95       	dec	r24
    2d68:	e9 f7       	brne	.-6      	; 0x2d64 <ProcessInput+0xcea>
                        answer = ((offering  & 2) << 19) + ((offering  & 1) << 8) + \
                        ((element   & 2) << 15) + ((element   & 1) << 4) + \
                        ((kneelings & 2) << 11) + ((kneelings & 1))
                        answer = answer << (3-person)
                    */
                    data[1]-='1';
    2d6a:	21 53       	subi	r18, 0x31	; 49
    2d6c:	f8 01       	movw	r30, r16
    2d6e:	21 83       	std	Z+1, r18	; 0x01
                    data[2]-='1';
    2d70:	32 81       	ldd	r19, Z+2	; 0x02
    2d72:	31 53       	subi	r19, 0x31	; 49
    2d74:	32 83       	std	Z+2, r19	; 0x02
                    if (data[3] == 'a') data[3] = 1;
    2d76:	83 81       	ldd	r24, Z+3	; 0x03
    2d78:	81 36       	cpi	r24, 0x61	; 97
    2d7a:	11 f4       	brne	.+4      	; 0x2d80 <ProcessInput+0xd06>
    2d7c:	81 e0       	ldi	r24, 0x01	; 1
    2d7e:	08 c0       	rjmp	.+16     	; 0x2d90 <ProcessInput+0xd16>
                    else if (data[3] == 'e') data[3] = 0;
    2d80:	85 36       	cpi	r24, 0x65	; 101
    2d82:	11 f4       	brne	.+4      	; 0x2d88 <ProcessInput+0xd0e>
    2d84:	13 82       	std	Z+3, r1	; 0x03
    2d86:	08 c0       	rjmp	.+16     	; 0x2d98 <ProcessInput+0xd1e>
                    else if (data[3] == 'f') data[3] = 3;
    2d88:	86 36       	cpi	r24, 0x66	; 102
    2d8a:	21 f4       	brne	.+8      	; 0x2d94 <ProcessInput+0xd1a>
    2d8c:	83 e0       	ldi	r24, 0x03	; 3
    2d8e:	f8 01       	movw	r30, r16
    2d90:	83 83       	std	Z+3, r24	; 0x03
    2d92:	02 c0       	rjmp	.+4      	; 0x2d98 <ProcessInput+0xd1e>
                    else data[3] = 2;
    2d94:	82 e0       	ldi	r24, 0x02	; 2
    2d96:	83 83       	std	Z+3, r24	; 0x03

                    if (data[1] & 2) answer += (1UL << 20);
    2d98:	21 fd       	sbrc	r18, 1
    2d9a:	04 c0       	rjmp	.+8      	; 0x2da4 <ProcessInput+0xd2a>
            //Priest offerings
            if (specialPassed >= 2) {
                if (data[1] > 0) {

                    uint8_t  digit[10] = {0, 0, 0, 0, 0, 0, 0, 0, 0, 0};
                    uint32_t answer = 0;
    2d9c:	80 e0       	ldi	r24, 0x00	; 0
    2d9e:	90 e0       	ldi	r25, 0x00	; 0
    2da0:	dc 01       	movw	r26, r24
    2da2:	04 c0       	rjmp	.+8      	; 0x2dac <ProcessInput+0xd32>
                    if (data[3] == 'a') data[3] = 1;
                    else if (data[3] == 'e') data[3] = 0;
                    else if (data[3] == 'f') data[3] = 3;
                    else data[3] = 2;

                    if (data[1] & 2) answer += (1UL << 20);
    2da4:	80 e0       	ldi	r24, 0x00	; 0
    2da6:	90 e0       	ldi	r25, 0x00	; 0
    2da8:	a0 e1       	ldi	r26, 0x10	; 16
    2daa:	b0 e0       	ldi	r27, 0x00	; 0
                    if (data[1] & 1) answer += (1 << 8);
    2dac:	20 ff       	sbrs	r18, 0
    2dae:	03 c0       	rjmp	.+6      	; 0x2db6 <ProcessInput+0xd3c>
    2db0:	9f 5f       	subi	r25, 0xFF	; 255
    2db2:	af 4f       	sbci	r26, 0xFF	; 255
    2db4:	bf 4f       	sbci	r27, 0xFF	; 255
                    if (data[3] & 2) answer += (1UL << 16);
    2db6:	f8 01       	movw	r30, r16
    2db8:	23 81       	ldd	r18, Z+3	; 0x03
    2dba:	21 fd       	sbrc	r18, 1
    2dbc:	11 96       	adiw	r26, 0x01	; 1
                    if (data[3] & 1) answer += (1 << 4);
    2dbe:	20 ff       	sbrs	r18, 0
    2dc0:	03 c0       	rjmp	.+6      	; 0x2dc8 <ProcessInput+0xd4e>
    2dc2:	40 96       	adiw	r24, 0x10	; 16
    2dc4:	a1 1d       	adc	r26, r1
    2dc6:	b1 1d       	adc	r27, r1
                    if (data[2] & 2) answer += (1 << 12);
    2dc8:	31 ff       	sbrs	r19, 1
    2dca:	03 c0       	rjmp	.+6      	; 0x2dd2 <ProcessInput+0xd58>
    2dcc:	90 5f       	subi	r25, 0xF0	; 240
    2dce:	af 4f       	sbci	r26, 0xFF	; 255
    2dd0:	bf 4f       	sbci	r27, 0xFF	; 255
                    if (data[2] & 1) answer += 1;
    2dd2:	30 ff       	sbrs	r19, 0
    2dd4:	03 c0       	rjmp	.+6      	; 0x2ddc <ProcessInput+0xd62>
    2dd6:	01 96       	adiw	r24, 0x01	; 1
    2dd8:	a1 1d       	adc	r26, r1
    2dda:	b1 1d       	adc	r27, r1
                    answer <<= (4 - whoami);            
    2ddc:	40 91 30 38 	lds	r20, 0x3830	; 0x803830 <whoami>
    2de0:	24 e0       	ldi	r18, 0x04	; 4
    2de2:	30 e0       	ldi	r19, 0x00	; 0
    2de4:	24 1b       	sub	r18, r20
    2de6:	31 09       	sbc	r19, r1
    2de8:	bc 01       	movw	r22, r24
    2dea:	cd 01       	movw	r24, r26
    2dec:	04 c0       	rjmp	.+8      	; 0x2df6 <ProcessInput+0xd7c>
    2dee:	66 0f       	add	r22, r22
    2df0:	77 1f       	adc	r23, r23
    2df2:	88 1f       	adc	r24, r24
    2df4:	99 1f       	adc	r25, r25
    2df6:	2a 95       	dec	r18
    2df8:	d2 f7       	brpl	.-12     	; 0x2dee <ProcessInput+0xd74>
    return 0;
}

//
void SetResponse(uint8_t number, uint16_t address, uint16_t length, uint8_t type){
    reactStr[0][number]=address;
    2dfa:	26 e0       	ldi	r18, 0x06	; 6
    2dfc:	35 e7       	ldi	r19, 0x75	; 117
    2dfe:	20 93 f1 38 	sts	0x38F1, r18	; 0x8038f1 <reactStr+0x2>
    2e02:	30 93 f2 38 	sts	0x38F2, r19	; 0x8038f2 <reactStr+0x3>
    reactStr[1][number]=length;
    2e06:	20 e2       	ldi	r18, 0x20	; 32
    2e08:	30 e0       	ldi	r19, 0x00	; 0
    2e0a:	20 93 31 39 	sts	0x3931, r18	; 0x803931 <reactStr+0x42>
    2e0e:	30 93 32 39 	sts	0x3932, r19	; 0x803932 <reactStr+0x43>
    reactStr[2][number]=type;
    2e12:	21 e0       	ldi	r18, 0x01	; 1
    2e14:	30 e0       	ldi	r19, 0x00	; 0
    2e16:	20 93 71 39 	sts	0x3971, r18	; 0x803971 <reactStr+0x82>
    2e1a:	30 93 72 39 	sts	0x3972, r19	; 0x803972 <reactStr+0x83>
                    answer <<= (4 - whoami);            

                    SetResponse(elements++, A_YOURPART, L_YOURPART, TEASER);
                    
                    //Set up sending out number
                    for (n=9; n>=0; --n) {
    2e1e:	59 e0       	ldi	r21, 0x09	; 9
                        digit[n] = answer % 10;
    2e20:	b5 2e       	mov	r11, r21
    2e22:	ea e0       	ldi	r30, 0x0A	; 10
    2e24:	4e 2e       	mov	r4, r30
    2e26:	51 2c       	mov	r5, r1
    2e28:	61 2c       	mov	r6, r1
    2e2a:	71 2c       	mov	r7, r1
    2e2c:	67 01       	movw	r12, r14
    2e2e:	cb 0c       	add	r12, r11
    2e30:	d1 1c       	adc	r13, r1
    2e32:	a3 01       	movw	r20, r6
    2e34:	92 01       	movw	r18, r4
    2e36:	3a d2       	rcall	.+1140   	; 0x32ac <__udivmodsi4>
    2e38:	d6 01       	movw	r26, r12
    2e3a:	6c 93       	st	X, r22
                        answer /= 10;
    2e3c:	b9 01       	movw	r22, r18
    2e3e:	ca 01       	movw	r24, r20
                        if (answer == 0) break;
    2e40:	61 15       	cp	r22, r1
    2e42:	71 05       	cpc	r23, r1
    2e44:	81 05       	cpc	r24, r1
    2e46:	91 05       	cpc	r25, r1
    2e48:	51 f4       	brne	.+20     	; 0x2e5e <ProcessInput+0xde4>
    2e4a:	2f ee       	ldi	r18, 0xEF	; 239
    2e4c:	c2 2e       	mov	r12, r18
    2e4e:	28 e3       	ldi	r18, 0x38	; 56
    2e50:	d2 2e       	mov	r13, r18
    2e52:	32 e0       	ldi	r19, 0x02	; 2
    2e54:	73 2e       	mov	r7, r19
}

//
void SetResponse(uint8_t number, uint16_t address, uint16_t length, uint8_t type){
    reactStr[0][number]=address;
    reactStr[1][number]=length;
    2e56:	88 24       	eor	r8, r8
    2e58:	83 94       	inc	r8
    2e5a:	91 2c       	mov	r9, r1
    2e5c:	02 c0       	rjmp	.+4      	; 0x2e62 <ProcessInput+0xde8>
                    answer <<= (4 - whoami);            

                    SetResponse(elements++, A_YOURPART, L_YOURPART, TEASER);
                    
                    //Set up sending out number
                    for (n=9; n>=0; --n) {
    2e5e:	ba 94       	dec	r11
                        digit[n] = answer % 10;
                        answer /= 10;
                        if (answer == 0) break;
                    }
    2e60:	e5 cf       	rjmp	.-54     	; 0x2e2c <ProcessInput+0xdb2>
    2e62:	f2 e0       	ldi	r31, 0x02	; 2
    2e64:	cf 0e       	add	r12, r31
    2e66:	d1 1c       	adc	r13, r1
                    for (; n<10; ++n) {
    2e68:	29 e0       	ldi	r18, 0x09	; 9
    2e6a:	2b 15       	cp	r18, r11
    2e6c:	08 f4       	brcc	.+2      	; 0x2e70 <ProcessInput+0xdf6>
    2e6e:	7d c0       	rjmp	.+250    	; 0x2f6a <ProcessInput+0xef0>
                        SetResponse(elements++, A_DIGITS+digit[n], 1, TEASER);
    2e70:	73 94       	inc	r7
    2e72:	f7 01       	movw	r30, r14
    2e74:	eb 0d       	add	r30, r11
    2e76:	f1 1d       	adc	r31, r1
    return 0;
}

//
void SetResponse(uint8_t number, uint16_t address, uint16_t length, uint8_t type){
    reactStr[0][number]=address;
    2e78:	80 81       	ld	r24, Z
    2e7a:	90 e0       	ldi	r25, 0x00	; 0
    2e7c:	8d 52       	subi	r24, 0x2D	; 45
    2e7e:	9b 48       	sbci	r25, 0x8B	; 139
    2e80:	f6 01       	movw	r30, r12
    2e82:	82 83       	std	Z+2, r24	; 0x02
    2e84:	93 83       	std	Z+3, r25	; 0x03
    reactStr[1][number]=length;
    2e86:	ee 5b       	subi	r30, 0xBE	; 190
    2e88:	ff 4f       	sbci	r31, 0xFF	; 255
    2e8a:	80 82       	st	Z, r8
    2e8c:	91 82       	std	Z+1, r9	; 0x01
    reactStr[2][number]=type;
    2e8e:	e0 5c       	subi	r30, 0xC0	; 192
    2e90:	ff 4f       	sbci	r31, 0xFF	; 255
    2e92:	80 82       	st	Z, r8
    2e94:	91 82       	std	Z+1, r9	; 0x01
                        answer /= 10;
                        if (answer == 0) break;
                    }
                    for (; n<10; ++n) {
                        SetResponse(elements++, A_DIGITS+digit[n], 1, TEASER);
                        UpdateState(actObj1.byteField[ACTION_STATE]);
    2e96:	80 91 ba 38 	lds	r24, 0x38BA	; 0x8038ba <actObj1.3992+0xa>
    2e9a:	0e 94 d2 08 	call	0x11a4	; 0x11a4 <UpdateState>
                    for (n=9; n>=0; --n) {
                        digit[n] = answer % 10;
                        answer /= 10;
                        if (answer == 0) break;
                    }
                    for (; n<10; ++n) {
    2e9e:	b3 94       	inc	r11
    2ea0:	e0 cf       	rjmp	.-64     	; 0x2e62 <ProcessInput+0xde8>
    return 0;
}

//
void SetResponse(uint8_t number, uint16_t address, uint16_t length, uint8_t type){
    reactStr[0][number]=address;
    2ea2:	86 e2       	ldi	r24, 0x26	; 38
    2ea4:	95 e7       	ldi	r25, 0x75	; 117
    2ea6:	80 93 f1 38 	sts	0x38F1, r24	; 0x8038f1 <reactStr+0x2>
    2eaa:	90 93 f2 38 	sts	0x38F2, r25	; 0x8038f2 <reactStr+0x3>
    reactStr[1][number]=length;
    2eae:	8d e3       	ldi	r24, 0x3D	; 61
    2eb0:	90 e0       	ldi	r25, 0x00	; 0
    2eb2:	4f c0       	rjmp	.+158    	; 0x2f52 <ProcessInput+0xed8>
    2eb4:	e0 91 27 38 	lds	r30, 0x3827	; 0x803827 <currDepth>
                    SetResponse(elements++, A_BADOFFERING, L_BADOFFERING, TEASER);
                }
            
            //Other questions    
            } else if (specialPassed == 1) {
                PopulateObject(route[currDepth+1], &actObj1);
    2eb8:	f0 e0       	ldi	r31, 0x00	; 0
    2eba:	ee 0f       	add	r30, r30
    2ebc:	ff 1f       	adc	r31, r31
    2ebe:	ef 54       	subi	r30, 0x4F	; 79
    2ec0:	f6 4c       	sbci	r31, 0xC6	; 198
    2ec2:	60 eb       	ldi	r22, 0xB0	; 176
    2ec4:	78 e3       	ldi	r23, 0x38	; 56
                } else {
                    SetResponse(elements++, A_BADOFFERING, L_BADOFFERING, TEASER);
                }
            
            //Other questions    
            } else if (specialPassed == 1) {
    2ec6:	81 30       	cpi	r24, 0x01	; 1
    2ec8:	c1 f5       	brne	.+112    	; 0x2f3a <ProcessInput+0xec0>
                PopulateObject(route[currDepth+1], &actObj1);
    2eca:	80 81       	ld	r24, Z
    2ecc:	91 81       	ldd	r25, Z+1	; 0x01
    2ece:	0e 94 5f 0b 	call	0x16be	; 0x16be <PopulateObject>
                if (CheckState(actObj1.byteField[ACTION_ACL])){
    2ed2:	80 91 b7 38 	lds	r24, 0x38B7	; 0x8038b7 <actObj1.3992+0x7>
    2ed6:	0e 94 dc 08 	call	0x11b8	; 0x11b8 <CheckState>
    2eda:	88 23       	and	r24, r24
    2edc:	c9 f0       	breq	.+50     	; 0x2f10 <ProcessInput+0xe96>
                    SetResponse(elements++, actObj1.addrStr[ACTION_MSG], actObj1.lenStr[ACTION_MSG], GAME);
    2ede:	80 91 d6 38 	lds	r24, 0x38D6	; 0x8038d6 <actObj1.3992+0x26>
    2ee2:	90 91 d7 38 	lds	r25, 0x38D7	; 0x8038d7 <actObj1.3992+0x27>
    return 0;
}

//
void SetResponse(uint8_t number, uint16_t address, uint16_t length, uint8_t type){
    reactStr[0][number]=address;
    2ee6:	20 91 c8 38 	lds	r18, 0x38C8	; 0x8038c8 <actObj1.3992+0x18>
    2eea:	30 91 c9 38 	lds	r19, 0x38C9	; 0x8038c9 <actObj1.3992+0x19>
    2eee:	20 93 f1 38 	sts	0x38F1, r18	; 0x8038f1 <reactStr+0x2>
    2ef2:	30 93 f2 38 	sts	0x38F2, r19	; 0x8038f2 <reactStr+0x3>
    reactStr[1][number]=length;
    2ef6:	80 93 31 39 	sts	0x3931, r24	; 0x803931 <reactStr+0x42>
    2efa:	90 93 32 39 	sts	0x3932, r25	; 0x803932 <reactStr+0x43>
    reactStr[2][number]=type;
    2efe:	10 92 71 39 	sts	0x3971, r1	; 0x803971 <reactStr+0x82>
    2f02:	10 92 72 39 	sts	0x3972, r1	; 0x803972 <reactStr+0x83>
            //Other questions    
            } else if (specialPassed == 1) {
                PopulateObject(route[currDepth+1], &actObj1);
                if (CheckState(actObj1.byteField[ACTION_ACL])){
                    SetResponse(elements++, actObj1.addrStr[ACTION_MSG], actObj1.lenStr[ACTION_MSG], GAME);
                    UpdateState(actObj1.byteField[ACTION_STATE]);
    2f06:	80 91 ba 38 	lds	r24, 0x38BA	; 0x8038ba <actObj1.3992+0xa>
    2f0a:	0e 94 d2 08 	call	0x11a4	; 0x11a4 <UpdateState>
    2f0e:	2b c0       	rjmp	.+86     	; 0x2f66 <ProcessInput+0xeec>
                } else {
                    SetResponse(elements++, actObj1.addrStr[ACTION_ACL_MSG], actObj1.lenStr[ACTION_ACL_MSG], GAME);
    2f10:	80 91 d4 38 	lds	r24, 0x38D4	; 0x8038d4 <actObj1.3992+0x24>
    2f14:	90 91 d5 38 	lds	r25, 0x38D5	; 0x8038d5 <actObj1.3992+0x25>
    return 0;
}

//
void SetResponse(uint8_t number, uint16_t address, uint16_t length, uint8_t type){
    reactStr[0][number]=address;
    2f18:	20 91 c6 38 	lds	r18, 0x38C6	; 0x8038c6 <actObj1.3992+0x16>
    2f1c:	30 91 c7 38 	lds	r19, 0x38C7	; 0x8038c7 <actObj1.3992+0x17>
    2f20:	20 93 f1 38 	sts	0x38F1, r18	; 0x8038f1 <reactStr+0x2>
    2f24:	30 93 f2 38 	sts	0x38F2, r19	; 0x8038f2 <reactStr+0x3>
    reactStr[1][number]=length;
    2f28:	80 93 31 39 	sts	0x3931, r24	; 0x803931 <reactStr+0x42>
    2f2c:	90 93 32 39 	sts	0x3932, r25	; 0x803932 <reactStr+0x43>
    reactStr[2][number]=type;
    2f30:	10 92 71 39 	sts	0x3971, r1	; 0x803971 <reactStr+0x82>
    2f34:	10 92 72 39 	sts	0x3972, r1	; 0x803972 <reactStr+0x83>
    2f38:	16 c0       	rjmp	.+44     	; 0x2f66 <ProcessInput+0xeec>
                } else {
                    SetResponse(elements++, actObj1.addrStr[ACTION_ACL_MSG], actObj1.lenStr[ACTION_ACL_MSG], GAME);
                }

            } else {
                PopulateObject(route[currDepth+1], &actObj1);
    2f3a:	80 81       	ld	r24, Z
    2f3c:	91 81       	ldd	r25, Z+1	; 0x01
    2f3e:	0e 94 5f 0b 	call	0x16be	; 0x16be <PopulateObject>
    return 0;
}

//
void SetResponse(uint8_t number, uint16_t address, uint16_t length, uint8_t type){
    reactStr[0][number]=address;
    2f42:	8e e9       	ldi	r24, 0x9E	; 158
    2f44:	98 e7       	ldi	r25, 0x78	; 120
    2f46:	80 93 f1 38 	sts	0x38F1, r24	; 0x8038f1 <reactStr+0x2>
    2f4a:	90 93 f2 38 	sts	0x38F2, r25	; 0x8038f2 <reactStr+0x3>
    reactStr[1][number]=length;
    2f4e:	82 e1       	ldi	r24, 0x12	; 18
    2f50:	90 e0       	ldi	r25, 0x00	; 0
    2f52:	80 93 31 39 	sts	0x3931, r24	; 0x803931 <reactStr+0x42>
    2f56:	90 93 32 39 	sts	0x3932, r25	; 0x803932 <reactStr+0x43>
    reactStr[2][number]=type;
    2f5a:	81 e0       	ldi	r24, 0x01	; 1
    2f5c:	90 e0       	ldi	r25, 0x00	; 0
    2f5e:	80 93 71 39 	sts	0x3971, r24	; 0x803971 <reactStr+0x82>
    2f62:	90 93 72 39 	sts	0x3972, r25	; 0x803972 <reactStr+0x83>
                    SetResponse(elements++, actObj1.addrStr[ACTION_ACL_MSG], actObj1.lenStr[ACTION_ACL_MSG], GAME);
                }

            } else {
                PopulateObject(route[currDepth+1], &actObj1);
                SetResponse(elements++, A_INCORRECT, L_INCORRECT, TEASER);
    2f66:	82 e0       	ldi	r24, 0x02	; 2
    2f68:	78 2e       	mov	r7, r24
            }
            specialInput[0] = 0;
    2f6a:	10 92 de 38 	sts	0x38DE, r1	; 0x8038de <specialInput>
        } else {
               
        }
            
        //Input handled
        data[0] = 0;
    2f6e:	d8 01       	movw	r26, r16
    2f70:	1c 92       	st	X, r1
        serRxDone = 0;
    2f72:	10 92 37 38 	sts	0x3837, r1	; 0x803837 <serRxDone>
        RXCNT = 0;
    2f76:	1d ba       	out	0x1d, r1	; 29
    return 0;
}

//
void SetResponse(uint8_t number, uint16_t address, uint16_t length, uint8_t type){
    reactStr[0][number]=address;
    2f78:	8b e5       	ldi	r24, 0x5B	; 91
    2f7a:	9a e7       	ldi	r25, 0x7A	; 122
    2f7c:	80 93 ef 38 	sts	0x38EF, r24	; 0x8038ef <reactStr>
    2f80:	90 93 f0 38 	sts	0x38F0, r25	; 0x8038f0 <reactStr+0x1>
    reactStr[1][number]=length;
    2f84:	82 e0       	ldi	r24, 0x02	; 2
    2f86:	90 e0       	ldi	r25, 0x00	; 0
    2f88:	80 93 2f 39 	sts	0x392F, r24	; 0x80392f <reactStr+0x40>
    2f8c:	90 93 30 39 	sts	0x3930, r25	; 0x803930 <reactStr+0x41>
    reactStr[2][number]=type;
    2f90:	81 e0       	ldi	r24, 0x01	; 1
    2f92:	90 e0       	ldi	r25, 0x00	; 0
    2f94:	80 93 6f 39 	sts	0x396F, r24	; 0x80396f <reactStr+0x80>
    2f98:	90 93 70 39 	sts	0x3970, r25	; 0x803970 <reactStr+0x81>
        //Input handled
        data[0] = 0;
        serRxDone = 0;
        RXCNT = 0;
        SetResponse(0, A_LF, 2, TEASER);
        if (specialInput[0]) responseList = elements; else responseList = SetStandardResponse(elements);
    2f9c:	80 91 de 38 	lds	r24, 0x38DE	; 0x8038de <specialInput>
    2fa0:	88 23       	and	r24, r24
    2fa2:	19 f0       	breq	.+6      	; 0x2faa <ProcessInput+0xf30>
    2fa4:	70 92 ee 38 	sts	0x38EE, r7	; 0x8038ee <responseList>
    2fa8:	a4 c0       	rjmp	.+328    	; 0x30f2 <ProcessInput+0x1078>
    2faa:	87 2d       	mov	r24, r7
    2fac:	17 c0       	rjmp	.+46     	; 0x2fdc <ProcessInput+0xf62>

    } else {
        data[0] = 0;
    2fae:	f8 01       	movw	r30, r16
    2fb0:	10 82       	st	Z, r1
        serRxDone = 0;
    2fb2:	10 92 37 38 	sts	0x3837, r1	; 0x803837 <serRxDone>
        RXCNT = 0;
    2fb6:	1d ba       	out	0x1d, r1	; 29
    return 0;
}

//
void SetResponse(uint8_t number, uint16_t address, uint16_t length, uint8_t type){
    reactStr[0][number]=address;
    2fb8:	8b e5       	ldi	r24, 0x5B	; 91
    2fba:	9a e7       	ldi	r25, 0x7A	; 122
    2fbc:	80 93 ef 38 	sts	0x38EF, r24	; 0x8038ef <reactStr>
    2fc0:	90 93 f0 38 	sts	0x38F0, r25	; 0x8038f0 <reactStr+0x1>
    reactStr[1][number]=length;
    2fc4:	82 e0       	ldi	r24, 0x02	; 2
    2fc6:	90 e0       	ldi	r25, 0x00	; 0
    2fc8:	80 93 2f 39 	sts	0x392F, r24	; 0x80392f <reactStr+0x40>
    2fcc:	90 93 30 39 	sts	0x3930, r25	; 0x803930 <reactStr+0x41>
    reactStr[2][number]=type;
    2fd0:	81 e0       	ldi	r24, 0x01	; 1
    2fd2:	90 e0       	ldi	r25, 0x00	; 0
    2fd4:	80 93 6f 39 	sts	0x396F, r24	; 0x80396f <reactStr+0x80>
    2fd8:	90 93 70 39 	sts	0x3970, r25	; 0x803970 <reactStr+0x81>
    } else {
        data[0] = 0;
        serRxDone = 0;
        RXCNT = 0;
        SetResponse(0, A_LF, 2, TEASER);
        responseList = SetStandardResponse(1);
    2fdc:	0e 94 e3 0a 	call	0x15c6	; 0x15c6 <SetStandardResponse>
    2fe0:	80 93 ee 38 	sts	0x38EE, r24	; 0x8038ee <responseList>
    }
    
    return 0;
    2fe4:	86 c0       	rjmp	.+268    	; 0x30f2 <ProcessInput+0x1078>
    return 0;
}

//
void SetResponse(uint8_t number, uint16_t address, uint16_t length, uint8_t type){
    reactStr[0][number]=address;
    2fe6:	84 ed       	ldi	r24, 0xD4	; 212
    2fe8:	99 e7       	ldi	r25, 0x79	; 121
    2fea:	80 93 f1 38 	sts	0x38F1, r24	; 0x8038f1 <reactStr+0x2>
    2fee:	90 93 f2 38 	sts	0x38F2, r25	; 0x8038f2 <reactStr+0x3>
    reactStr[1][number]=length;
    2ff2:	8a e1       	ldi	r24, 0x1A	; 26
    2ff4:	90 e0       	ldi	r25, 0x00	; 0
    2ff6:	ef c8       	rjmp	.-3618   	; 0x21d6 <ProcessInput+0x15c>

        //Drop item if in inventory
        if (data[0] == 'd') {
            if ((inventory[0] == 0)&&(inventory[1] == 0)){
                SetResponse(elements++, A_EMPTYHANDS, L_EMPTYHANDS, TEASER);
            } else if (inputLen != 2) {
    2ff8:	f2 e0       	ldi	r31, 0x02	; 2
    2ffa:	ff 12       	cpse	r15, r31
    2ffc:	6d c8       	rjmp	.-3878   	; 0x20d8 <ProcessInput+0x5e>
                SetResponse(elements++, A_NOTPOSSIBLE, L_NOTPOSSIBLE, TEASER);
            } else {
                for (uint8_t x=0; x<2; ++x) {
                    if (inventory[x]) {
                        if (CheckLetter(inventory[x], data[1])) {
    2ffe:	f8 01       	movw	r30, r16
    3000:	61 81       	ldd	r22, Z+1	; 0x01
    3002:	0e 94 d6 0b 	call	0x17ac	; 0x17ac <CheckLetter>
    3006:	88 23       	and	r24, r24
    3008:	09 f4       	brne	.+2      	; 0x300c <ProcessInput+0xf92>
    300a:	5b c0       	rjmp	.+182    	; 0x30c2 <ProcessInput+0x1048>
                SetResponse(elements++, A_EMPTYHANDS, L_EMPTYHANDS, TEASER);
            } else if (inputLen != 2) {
                SetResponse(elements++, A_NOTPOSSIBLE, L_NOTPOSSIBLE, TEASER);
            } else {
                for (uint8_t x=0; x<2; ++x) {
                    if (inventory[x]) {
    300c:	80 e0       	ldi	r24, 0x00	; 0
    300e:	90 e0       	ldi	r25, 0x00	; 0
                        if (CheckLetter(inventory[x], data[1])) {
                            PopulateObject(inventory[x], &actObj1);
    3010:	88 0f       	add	r24, r24
    3012:	99 1f       	adc	r25, r25
    3014:	9c 01       	movw	r18, r24
    3016:	2f 5c       	subi	r18, 0xCF	; 207
    3018:	37 4c       	sbci	r19, 0xC7	; 199
    301a:	79 01       	movw	r14, r18
    301c:	60 eb       	ldi	r22, 0xB0	; 176
    301e:	78 e3       	ldi	r23, 0x38	; 56
    3020:	d9 01       	movw	r26, r18
    3022:	8d 91       	ld	r24, X+
    3024:	9c 91       	ld	r25, X
    3026:	0e 94 5f 0b 	call	0x16be	; 0x16be <PopulateObject>
    return 0;
}

//
void SetResponse(uint8_t number, uint16_t address, uint16_t length, uint8_t type){
    reactStr[0][number]=address;
    302a:	84 ed       	ldi	r24, 0xD4	; 212
    302c:	97 e7       	ldi	r25, 0x77	; 119
    302e:	80 93 f1 38 	sts	0x38F1, r24	; 0x8038f1 <reactStr+0x2>
    3032:	90 93 f2 38 	sts	0x38F2, r25	; 0x8038f2 <reactStr+0x3>
    reactStr[1][number]=length;
    3036:	80 e1       	ldi	r24, 0x10	; 16
    3038:	90 e0       	ldi	r25, 0x00	; 0
    303a:	80 93 31 39 	sts	0x3931, r24	; 0x803931 <reactStr+0x42>
    303e:	90 93 32 39 	sts	0x3932, r25	; 0x803932 <reactStr+0x43>
    reactStr[2][number]=type;
    3042:	81 e0       	ldi	r24, 0x01	; 1
    3044:	90 e0       	ldi	r25, 0x00	; 0
    3046:	80 93 71 39 	sts	0x3971, r24	; 0x803971 <reactStr+0x82>
    304a:	90 93 72 39 	sts	0x3972, r25	; 0x803972 <reactStr+0x83>
                for (uint8_t x=0; x<2; ++x) {
                    if (inventory[x]) {
                        if (CheckLetter(inventory[x], data[1])) {
                            PopulateObject(inventory[x], &actObj1);
                            SetResponse(elements++, A_DROPPING, L_DROPPING, TEASER);
                            SetResponse(elements++, actObj1.addrStr[NAME], actObj1.lenStr[NAME], GAME);
    304e:	20 91 ca 38 	lds	r18, 0x38CA	; 0x8038ca <actObj1.3992+0x1a>
    3052:	30 91 cb 38 	lds	r19, 0x38CB	; 0x8038cb <actObj1.3992+0x1b>
    return 0;
}

//
void SetResponse(uint8_t number, uint16_t address, uint16_t length, uint8_t type){
    reactStr[0][number]=address;
    3056:	40 91 bc 38 	lds	r20, 0x38BC	; 0x8038bc <actObj1.3992+0xc>
    305a:	50 91 bd 38 	lds	r21, 0x38BD	; 0x8038bd <actObj1.3992+0xd>
    305e:	40 93 f3 38 	sts	0x38F3, r20	; 0x8038f3 <reactStr+0x4>
    3062:	50 93 f4 38 	sts	0x38F4, r21	; 0x8038f4 <reactStr+0x5>
    reactStr[1][number]=length;
    3066:	20 93 33 39 	sts	0x3933, r18	; 0x803933 <reactStr+0x44>
    306a:	30 93 34 39 	sts	0x3934, r19	; 0x803934 <reactStr+0x45>
    reactStr[2][number]=type;
    306e:	10 92 73 39 	sts	0x3973, r1	; 0x803973 <reactStr+0x84>
    3072:	10 92 74 39 	sts	0x3974, r1	; 0x803974 <reactStr+0x85>
    return 0;
}

//
void SetResponse(uint8_t number, uint16_t address, uint16_t length, uint8_t type){
    reactStr[0][number]=address;
    3076:	2b e5       	ldi	r18, 0x5B	; 91
    3078:	3a e7       	ldi	r19, 0x7A	; 122
    307a:	20 93 f5 38 	sts	0x38F5, r18	; 0x8038f5 <reactStr+0x6>
    307e:	30 93 f6 38 	sts	0x38F6, r19	; 0x8038f6 <reactStr+0x7>
    reactStr[1][number]=length;
    3082:	22 e0       	ldi	r18, 0x02	; 2
    3084:	30 e0       	ldi	r19, 0x00	; 0
    3086:	20 93 35 39 	sts	0x3935, r18	; 0x803935 <reactStr+0x46>
    308a:	30 93 36 39 	sts	0x3936, r19	; 0x803936 <reactStr+0x47>
    reactStr[2][number]=type;
    308e:	80 93 75 39 	sts	0x3975, r24	; 0x803975 <reactStr+0x86>
    3092:	90 93 76 39 	sts	0x3976, r25	; 0x803976 <reactStr+0x87>
    return 0;
}

//
void SetResponse(uint8_t number, uint16_t address, uint16_t length, uint8_t type){
    reactStr[0][number]=address;
    3096:	27 e9       	ldi	r18, 0x97	; 151
    3098:	37 e7       	ldi	r19, 0x77	; 119
    309a:	20 93 f7 38 	sts	0x38F7, r18	; 0x8038f7 <reactStr+0x8>
    309e:	30 93 f8 38 	sts	0x38F8, r19	; 0x8038f8 <reactStr+0x9>
    reactStr[1][number]=length;
    30a2:	2d e3       	ldi	r18, 0x3D	; 61
    30a4:	30 e0       	ldi	r19, 0x00	; 0
    30a6:	20 93 37 39 	sts	0x3937, r18	; 0x803937 <reactStr+0x48>
    30aa:	30 93 38 39 	sts	0x3938, r19	; 0x803938 <reactStr+0x49>
    reactStr[2][number]=type;
    30ae:	80 93 77 39 	sts	0x3977, r24	; 0x803977 <reactStr+0x88>
    30b2:	90 93 78 39 	sts	0x3978, r25	; 0x803978 <reactStr+0x89>
                            PopulateObject(inventory[x], &actObj1);
                            SetResponse(elements++, A_DROPPING, L_DROPPING, TEASER);
                            SetResponse(elements++, actObj1.addrStr[NAME], actObj1.lenStr[NAME], GAME);
                            SetResponse(elements++, A_LF, 2, TEASER);
                            SetResponse(elements++, A_RETURNING, L_RETURNING, TEASER);
                            inventory[x] = 0;
    30b6:	f7 01       	movw	r30, r14
    30b8:	10 82       	st	Z, r1
    30ba:	11 82       	std	Z+1, r1	; 0x01
                        if (CheckLetter(inventory[x], data[1])) {
                            PopulateObject(inventory[x], &actObj1);
                            SetResponse(elements++, A_DROPPING, L_DROPPING, TEASER);
                            SetResponse(elements++, actObj1.addrStr[NAME], actObj1.lenStr[NAME], GAME);
                            SetResponse(elements++, A_LF, 2, TEASER);
                            SetResponse(elements++, A_RETURNING, L_RETURNING, TEASER);
    30bc:	f5 e0       	ldi	r31, 0x05	; 5
    30be:	7f 2e       	mov	r7, r31
                            inventory[x] = 0;
                            break;
    30c0:	56 cf       	rjmp	.-340    	; 0x2f6e <ProcessInput+0xef4>
                SetResponse(elements++, A_EMPTYHANDS, L_EMPTYHANDS, TEASER);
            } else if (inputLen != 2) {
                SetResponse(elements++, A_NOTPOSSIBLE, L_NOTPOSSIBLE, TEASER);
            } else {
                for (uint8_t x=0; x<2; ++x) {
                    if (inventory[x]) {
    30c2:	80 91 33 38 	lds	r24, 0x3833	; 0x803833 <inventory+0x2>
    30c6:	90 91 34 38 	lds	r25, 0x3834	; 0x803834 <inventory+0x3>
    30ca:	00 97       	sbiw	r24, 0x00	; 0
    30cc:	49 f0       	breq	.+18     	; 0x30e0 <ProcessInput+0x1066>
                        if (CheckLetter(inventory[x], data[1])) {
    30ce:	f8 01       	movw	r30, r16
    30d0:	61 81       	ldd	r22, Z+1	; 0x01
    30d2:	0e 94 d6 0b 	call	0x17ac	; 0x17ac <CheckLetter>
    30d6:	88 23       	and	r24, r24
    30d8:	19 f0       	breq	.+6      	; 0x30e0 <ProcessInput+0x1066>
                SetResponse(elements++, A_EMPTYHANDS, L_EMPTYHANDS, TEASER);
            } else if (inputLen != 2) {
                SetResponse(elements++, A_NOTPOSSIBLE, L_NOTPOSSIBLE, TEASER);
            } else {
                for (uint8_t x=0; x<2; ++x) {
                    if (inventory[x]) {
    30da:	81 e0       	ldi	r24, 0x01	; 1
    30dc:	90 e0       	ldi	r25, 0x00	; 0
    30de:	98 cf       	rjmp	.-208    	; 0x3010 <ProcessInput+0xf96>
    return 0;
}

//
void SetResponse(uint8_t number, uint16_t address, uint16_t length, uint8_t type){
    reactStr[0][number]=address;
    30e0:	84 e6       	ldi	r24, 0x64	; 100
    30e2:	99 e7       	ldi	r25, 0x79	; 121
    30e4:	80 93 f1 38 	sts	0x38F1, r24	; 0x8038f1 <reactStr+0x2>
    30e8:	90 93 f2 38 	sts	0x38F2, r25	; 0x8038f2 <reactStr+0x3>
    reactStr[1][number]=length;
    30ec:	81 e2       	ldi	r24, 0x21	; 33
    30ee:	90 e0       	ldi	r25, 0x00	; 0
    30f0:	72 c8       	rjmp	.-3868   	; 0x21d6 <ProcessInput+0x15c>
        SetResponse(0, A_LF, 2, TEASER);
        responseList = SetStandardResponse(1);
    }
    
    return 0;
}
    30f2:	80 e0       	ldi	r24, 0x00	; 0
    30f4:	2a 96       	adiw	r28, 0x0a	; 10
    30f6:	cd bf       	out	0x3d, r28	; 61
    30f8:	de bf       	out	0x3e, r29	; 62
    30fa:	df 91       	pop	r29
    30fc:	cf 91       	pop	r28
    30fe:	1f 91       	pop	r17
    3100:	0f 91       	pop	r16
    3102:	ff 90       	pop	r15
    3104:	ef 90       	pop	r14
    3106:	df 90       	pop	r13
    3108:	cf 90       	pop	r12
    310a:	bf 90       	pop	r11
    310c:	af 90       	pop	r10
    310e:	9f 90       	pop	r9
    3110:	8f 90       	pop	r8
    3112:	7f 90       	pop	r7
    3114:	6f 90       	pop	r6
    3116:	5f 90       	pop	r5
    3118:	4f 90       	pop	r4
    311a:	08 95       	ret

0000311c <TextAdventure>:


//MAIN GAME STRUCTURE
uint8_t TextAdventure(){
    311c:	cf 93       	push	r28
    static uint8_t serInput[RXLEN];
    
    //Still sending data to serial?
    if (CheckSend()) return 1;
    311e:	0e 94 b5 0c 	call	0x196a	; 0x196a <CheckSend>
    3122:	88 23       	and	r24, r24
    3124:	11 f0       	breq	.+4      	; 0x312a <TextAdventure+0xe>
    3126:	c1 e0       	ldi	r28, 0x01	; 1
    3128:	13 c0       	rjmp	.+38     	; 0x3150 <TextAdventure+0x34>

    //Not sending? Process next response part to send, if any.
    if (CheckResponse()) return 1;        
    312a:	0e 94 09 0d 	call	0x1a12	; 0x1a12 <CheckResponse>
    312e:	81 11       	cpse	r24, r1
    3130:	fa cf       	rjmp	.-12     	; 0x3126 <TextAdventure+0xa>

    //No responses to send, check if there is user input.
    if (CheckInput(&serInput[0])) return 2; 
    3132:	84 e4       	ldi	r24, 0x44	; 68
    3134:	98 e3       	ldi	r25, 0x38	; 56
    3136:	0e 94 50 0d 	call	0x1aa0	; 0x1aa0 <CheckInput>
    313a:	c8 2f       	mov	r28, r24
    313c:	81 11       	cpse	r24, r1
    313e:	07 c0       	rjmp	.+14     	; 0x314e <TextAdventure+0x32>

    //Input found, process and save (changes only)
    ProcessInput(&serInput[0]);
    3140:	84 e4       	ldi	r24, 0x44	; 68
    3142:	98 e3       	ldi	r25, 0x38	; 56
    3144:	0e 94 3d 10 	call	0x207a	; 0x207a <ProcessInput>
    SaveGameState();
    3148:	0e 94 31 08 	call	0x1062	; 0x1062 <SaveGameState>

    return 0;
    314c:	01 c0       	rjmp	.+2      	; 0x3150 <TextAdventure+0x34>

    //Not sending? Process next response part to send, if any.
    if (CheckResponse()) return 1;        

    //No responses to send, check if there is user input.
    if (CheckInput(&serInput[0])) return 2; 
    314e:	c2 e0       	ldi	r28, 0x02	; 2
    //Input found, process and save (changes only)
    ProcessInput(&serInput[0]);
    SaveGameState();

    return 0;
    3150:	8c 2f       	mov	r24, r28
    3152:	cf 91       	pop	r28
    3154:	08 95       	ret

00003156 <main>:


//This is where it begins, inits first and main program in while(1) loop.
int main(void)
{
    Setup();
    3156:	0e 94 e1 03 	call	0x7c2	; 0x7c2 <Setup>

    SerSpeed(0xff);
    315a:	8f ef       	ldi	r24, 0xFF	; 255
    315c:	0e 94 4e 07 	call	0xe9c	; 0xe9c <SerSpeed>
    3160:	ae e2       	ldi	r26, 0x2E	; 46
    3162:	b3 eb       	ldi	r27, 0xB3	; 179
    ////Turn on LEDs on low setting to check for interrupt glitches

    //"Hacker"
    for (uint8_t n=0; n<6; n++){
        iLED[HCKR[R][n]] = 1;
    3164:	81 e0       	ldi	r24, 0x01	; 1
    3166:	ed 91       	ld	r30, X+
    3168:	f0 e0       	ldi	r31, 0x00	; 0
    316a:	ea 54       	subi	r30, 0x4A	; 74
    316c:	f5 4c       	sbci	r31, 0xC5	; 197
    316e:	80 83       	st	Z, r24
        iLED[HCKR[G][n]] = 1;
    3170:	15 96       	adiw	r26, 0x05	; 5
    3172:	ec 91       	ld	r30, X
    3174:	15 97       	sbiw	r26, 0x05	; 5
    3176:	f0 e0       	ldi	r31, 0x00	; 0
    3178:	ea 54       	subi	r30, 0x4A	; 74
    317a:	f5 4c       	sbci	r31, 0xC5	; 197
    317c:	80 83       	st	Z, r24

    SerSpeed(0xff);
    ////Turn on LEDs on low setting to check for interrupt glitches

    //"Hacker"
    for (uint8_t n=0; n<6; n++){
    317e:	23 eb       	ldi	r18, 0xB3	; 179
    3180:	a4 33       	cpi	r26, 0x34	; 52
    3182:	b2 07       	cpc	r27, r18
    3184:	81 f7       	brne	.-32     	; 0x3166 <main+0x10>
    3186:	e0 e2       	ldi	r30, 0x20	; 32
    3188:	f3 eb       	ldi	r31, 0xB3	; 179
        iLED[HCKR[G][n]] = 1;
    }

    //"Wings"
    for (uint8_t n=0; n<5; n++){
        iLED[WING[L][n]] = 1;
    318a:	91 e0       	ldi	r25, 0x01	; 1
    318c:	ef 01       	movw	r28, r30
    318e:	a5 81       	ldd	r26, Z+5	; 0x05
    3190:	b0 e0       	ldi	r27, 0x00	; 0
    3192:	aa 54       	subi	r26, 0x4A	; 74
    3194:	b5 4c       	sbci	r27, 0xC5	; 197
    3196:	81 e0       	ldi	r24, 0x01	; 1
    3198:	9c 93       	st	X, r25
    319a:	31 96       	adiw	r30, 0x01	; 1
        iLED[WING[R][n]] = 1;
    319c:	a8 81       	ld	r26, Y
    319e:	b0 e0       	ldi	r27, 0x00	; 0
    31a0:	aa 54       	subi	r26, 0x4A	; 74
    31a2:	b5 4c       	sbci	r27, 0xC5	; 197
    31a4:	9c 93       	st	X, r25
        iLED[HCKR[R][n]] = 1;
        iLED[HCKR[G][n]] = 1;
    }

    //"Wings"
    for (uint8_t n=0; n<5; n++){
    31a6:	23 eb       	ldi	r18, 0xB3	; 179
    31a8:	e5 32       	cpi	r30, 0x25	; 37
    31aa:	f2 07       	cpc	r31, r18
    31ac:	79 f7       	brne	.-34     	; 0x318c <main+0x36>
        iLED[WING[L][n]] = 1;
        iLED[WING[R][n]] = 1;
    }    

    //"Others"
    iLED[EYE[G][R]] = 1;
    31ae:	e0 91 2c b3 	lds	r30, 0xB32C	; 0x80b32c <__bss_end+0x7826>
    31b2:	f0 e0       	ldi	r31, 0x00	; 0
    31b4:	ea 54       	subi	r30, 0x4A	; 74
    31b6:	f5 4c       	sbci	r31, 0xC5	; 197
    31b8:	80 83       	st	Z, r24
    iLED[EYE[G][L]] = 1;
    31ba:	e0 91 2d b3 	lds	r30, 0xB32D	; 0x80b32d <__bss_end+0x7827>
    31be:	f0 e0       	ldi	r31, 0x00	; 0
    31c0:	ea 54       	subi	r30, 0x4A	; 74
    31c2:	f5 4c       	sbci	r31, 0xC5	; 197
    31c4:	80 83       	st	Z, r24
    iLED[EYE[R][R]] = 1;
    31c6:	e0 91 2a b3 	lds	r30, 0xB32A	; 0x80b32a <__bss_end+0x7824>
    31ca:	f0 e0       	ldi	r31, 0x00	; 0
    31cc:	ea 54       	subi	r30, 0x4A	; 74
    31ce:	f5 4c       	sbci	r31, 0xC5	; 197
    31d0:	80 83       	st	Z, r24
    iLED[EYE[R][L]] = 1;
    31d2:	e0 91 2b b3 	lds	r30, 0xB32B	; 0x80b32b <__bss_end+0x7825>
    31d6:	f0 e0       	ldi	r31, 0x00	; 0
    31d8:	ea 54       	subi	r30, 0x4A	; 74
    31da:	f5 4c       	sbci	r31, 0xC5	; 197
    31dc:	80 83       	st	Z, r24
    iLED[SCARAB[R]] = 1;
    31de:	e0 91 1e b3 	lds	r30, 0xB31E	; 0x80b31e <__bss_end+0x7818>
    31e2:	f0 e0       	ldi	r31, 0x00	; 0
    31e4:	ea 54       	subi	r30, 0x4A	; 74
    31e6:	f5 4c       	sbci	r31, 0xC5	; 197
    31e8:	80 83       	st	Z, r24
    iLED[SCARAB[G]] = 1;
    31ea:	e0 91 1f b3 	lds	r30, 0xB31F	; 0x80b31f <__bss_end+0x7819>
    31ee:	f0 e0       	ldi	r31, 0x00	; 0
    31f0:	ea 54       	subi	r30, 0x4A	; 74
    31f2:	f5 4c       	sbci	r31, 0xC5	; 197
    31f4:	80 83       	st	Z, r24
    iLED[BADGER] = 1;
    31f6:	e0 91 1d b3 	lds	r30, 0xB31D	; 0x80b31d <__bss_end+0x7817>
    31fa:	f0 e0       	ldi	r31, 0x00	; 0
    31fc:	ea 54       	subi	r30, 0x4A	; 74
    31fe:	f5 4c       	sbci	r31, 0xC5	; 197
    3200:	80 83       	st	Z, r24
    iLED[CAT] = 1;
    3202:	e0 91 1c b3 	lds	r30, 0xB31C	; 0x80b31c <__bss_end+0x7816>
    3206:	f0 e0       	ldi	r31, 0x00	; 0
    3208:	ea 54       	subi	r30, 0x4A	; 74
    320a:	f5 4c       	sbci	r31, 0xC5	; 197
    320c:	80 83       	st	Z, r24

    while (1)
    {
        GenerateAudio();
    320e:	0e 94 51 09 	call	0x12a2	; 0x12a2 <GenerateAudio>


        if (buttonMark){
    3212:	80 91 35 38 	lds	r24, 0x3835	; 0x803835 <buttonMark>
    3216:	88 23       	and	r24, r24
    3218:	d1 f3       	breq	.-12     	; 0x320e <main+0xb8>
            buttonState = CheckButtons(buttonState);
    321a:	80 91 07 38 	lds	r24, 0x3807	; 0x803807 <buttonState>
    321e:	0e 94 5f 07 	call	0xebe	; 0xebe <CheckButtons>
    3222:	80 93 07 38 	sts	0x3807, r24	; 0x803807 <buttonState>
            buttonMark = 0;
    3226:	10 92 35 38 	sts	0x3835, r1	; 0x803835 <buttonMark>
            
            //GenerateBlinks();           
            
            //Main game, to complete: Finish sub-game MagnetMaze and MakeFriends too.
            TextAdventure();
    322a:	78 df       	rcall	.-272    	; 0x311c <TextAdventure>
          
            //Other games & user interaction checks
            MagnetMaze();
    322c:	0e 94 99 02 	call	0x532	; 0x532 <MagnetMaze>
            BastetDictates();
    3230:	0e 94 ef 09 	call	0x13de	; 0x13de <BastetDictates>
            LanyardCode();
    3234:	0e 94 a1 01 	call	0x342	; 0x342 <LanyardCode>
            MakeFriends();
    3238:	0e 94 5c 00 	call	0xb8	; 0xb8 <MakeFriends>
             
            //Check light sensor status (added hysteresis to preserve writing cycles to internal EEPROM)
            if (adcPhot < 10) WriteStatusBit(116, 1);
    323c:	80 91 91 3a 	lds	r24, 0x3A91	; 0x803a91 <adcPhot>
    3240:	90 91 92 3a 	lds	r25, 0x3A92	; 0x803a92 <adcPhot+0x1>
    3244:	0a 97       	sbiw	r24, 0x0a	; 10
    3246:	20 f4       	brcc	.+8      	; 0x3250 <main+0xfa>
    3248:	61 e0       	ldi	r22, 0x01	; 1
    324a:	84 e7       	ldi	r24, 0x74	; 116
    324c:	0e 94 b8 08 	call	0x1170	; 0x1170 <WriteStatusBit>
            if (adcPhot > 100) WriteStatusBit(116, 0);
    3250:	80 91 91 3a 	lds	r24, 0x3A91	; 0x803a91 <adcPhot>
    3254:	90 91 92 3a 	lds	r25, 0x3A92	; 0x803a92 <adcPhot+0x1>
    3258:	85 36       	cpi	r24, 0x65	; 101
    325a:	91 05       	cpc	r25, r1
    325c:	20 f0       	brcs	.+8      	; 0x3266 <main+0x110>
    325e:	60 e0       	ldi	r22, 0x00	; 0
    3260:	84 e7       	ldi	r24, 0x74	; 116
    3262:	0e 94 b8 08 	call	0x1170	; 0x1170 <WriteStatusBit>

            //Check temperature 
            HotSummer();
    3266:	0e 94 23 09 	call	0x1246	; 0x1246 <HotSummer>
    326a:	d1 cf       	rjmp	.-94     	; 0x320e <main+0xb8>

0000326c <__udivmodqi4>:
    326c:	99 1b       	sub	r25, r25
    326e:	79 e0       	ldi	r23, 0x09	; 9
    3270:	04 c0       	rjmp	.+8      	; 0x327a <__udivmodqi4_ep>

00003272 <__udivmodqi4_loop>:
    3272:	99 1f       	adc	r25, r25
    3274:	96 17       	cp	r25, r22
    3276:	08 f0       	brcs	.+2      	; 0x327a <__udivmodqi4_ep>
    3278:	96 1b       	sub	r25, r22

0000327a <__udivmodqi4_ep>:
    327a:	88 1f       	adc	r24, r24
    327c:	7a 95       	dec	r23
    327e:	c9 f7       	brne	.-14     	; 0x3272 <__udivmodqi4_loop>
    3280:	80 95       	com	r24
    3282:	08 95       	ret

00003284 <__udivmodhi4>:
    3284:	aa 1b       	sub	r26, r26
    3286:	bb 1b       	sub	r27, r27
    3288:	51 e1       	ldi	r21, 0x11	; 17
    328a:	07 c0       	rjmp	.+14     	; 0x329a <__udivmodhi4_ep>

0000328c <__udivmodhi4_loop>:
    328c:	aa 1f       	adc	r26, r26
    328e:	bb 1f       	adc	r27, r27
    3290:	a6 17       	cp	r26, r22
    3292:	b7 07       	cpc	r27, r23
    3294:	10 f0       	brcs	.+4      	; 0x329a <__udivmodhi4_ep>
    3296:	a6 1b       	sub	r26, r22
    3298:	b7 0b       	sbc	r27, r23

0000329a <__udivmodhi4_ep>:
    329a:	88 1f       	adc	r24, r24
    329c:	99 1f       	adc	r25, r25
    329e:	5a 95       	dec	r21
    32a0:	a9 f7       	brne	.-22     	; 0x328c <__udivmodhi4_loop>
    32a2:	80 95       	com	r24
    32a4:	90 95       	com	r25
    32a6:	bc 01       	movw	r22, r24
    32a8:	cd 01       	movw	r24, r26
    32aa:	08 95       	ret

000032ac <__udivmodsi4>:
    32ac:	a1 e2       	ldi	r26, 0x21	; 33
    32ae:	1a 2e       	mov	r1, r26
    32b0:	aa 1b       	sub	r26, r26
    32b2:	bb 1b       	sub	r27, r27
    32b4:	fd 01       	movw	r30, r26
    32b6:	0d c0       	rjmp	.+26     	; 0x32d2 <__udivmodsi4_ep>

000032b8 <__udivmodsi4_loop>:
    32b8:	aa 1f       	adc	r26, r26
    32ba:	bb 1f       	adc	r27, r27
    32bc:	ee 1f       	adc	r30, r30
    32be:	ff 1f       	adc	r31, r31
    32c0:	a2 17       	cp	r26, r18
    32c2:	b3 07       	cpc	r27, r19
    32c4:	e4 07       	cpc	r30, r20
    32c6:	f5 07       	cpc	r31, r21
    32c8:	20 f0       	brcs	.+8      	; 0x32d2 <__udivmodsi4_ep>
    32ca:	a2 1b       	sub	r26, r18
    32cc:	b3 0b       	sbc	r27, r19
    32ce:	e4 0b       	sbc	r30, r20
    32d0:	f5 0b       	sbc	r31, r21

000032d2 <__udivmodsi4_ep>:
    32d2:	66 1f       	adc	r22, r22
    32d4:	77 1f       	adc	r23, r23
    32d6:	88 1f       	adc	r24, r24
    32d8:	99 1f       	adc	r25, r25
    32da:	1a 94       	dec	r1
    32dc:	69 f7       	brne	.-38     	; 0x32b8 <__udivmodsi4_loop>
    32de:	60 95       	com	r22
    32e0:	70 95       	com	r23
    32e2:	80 95       	com	r24
    32e4:	90 95       	com	r25
    32e6:	9b 01       	movw	r18, r22
    32e8:	ac 01       	movw	r20, r24
    32ea:	bd 01       	movw	r22, r26
    32ec:	cf 01       	movw	r24, r30
    32ee:	08 95       	ret

000032f0 <_exit>:
    32f0:	f8 94       	cli

000032f2 <__stop_program>:
    32f2:	ff cf       	rjmp	.-2      	; 0x32f2 <__stop_program>
