
ISR_IO.elf:     file format elf32-avr

Sections:
Idx Name          Size      VMA       LMA       File off  Algn
  0 .data         0000002e  00803800  000040cc  00004180  2**0
                  CONTENTS, ALLOC, LOAD, DATA
  1 .text         00003fca  00000000  00000000  000000b4  2**1
                  CONTENTS, ALLOC, LOAD, READONLY, CODE
  2 .rodata       00000102  0000bfca  00003fca  0000407e  2**0
                  CONTENTS, ALLOC, LOAD, READONLY, DATA
  3 .bss          000002ec  0080382e  0080382e  000041ae  2**0
                  ALLOC
  4 .comment      00000030  00000000  00000000  000041ae  2**0
                  CONTENTS, READONLY
  5 .note.gnu.avr.deviceinfo 00000040  00000000  00000000  000041e0  2**2
                  CONTENTS, READONLY
  6 .debug_aranges 00000328  00000000  00000000  00004220  2**0
                  CONTENTS, READONLY, DEBUGGING
  7 .debug_info   00006e9b  00000000  00000000  00004548  2**0
                  CONTENTS, READONLY, DEBUGGING
  8 .debug_abbrev 00002915  00000000  00000000  0000b3e3  2**0
                  CONTENTS, READONLY, DEBUGGING
  9 .debug_line   00003e16  00000000  00000000  0000dcf8  2**0
                  CONTENTS, READONLY, DEBUGGING
 10 .debug_frame  0000098c  00000000  00000000  00011b10  2**2
                  CONTENTS, READONLY, DEBUGGING
 11 .debug_str    00001a73  00000000  00000000  0001249c  2**0
                  CONTENTS, READONLY, DEBUGGING
 12 .debug_loc    000045b1  00000000  00000000  00013f0f  2**0
                  CONTENTS, READONLY, DEBUGGING
 13 .debug_ranges 000003b0  00000000  00000000  000184c0  2**0
                  CONTENTS, READONLY, DEBUGGING

Disassembly of section .text:

00000000 <__vectors>:
       0:	3d c0       	rjmp	.+122    	; 0x7c <__ctors_end>
       2:	00 00       	nop
       4:	58 c0       	rjmp	.+176    	; 0xb6 <__bad_interrupt>
       6:	00 00       	nop
       8:	56 c0       	rjmp	.+172    	; 0xb6 <__bad_interrupt>
       a:	00 00       	nop
       c:	54 c0       	rjmp	.+168    	; 0xb6 <__bad_interrupt>
       e:	00 00       	nop
      10:	52 c0       	rjmp	.+164    	; 0xb6 <__bad_interrupt>
      12:	00 00       	nop
      14:	50 c0       	rjmp	.+160    	; 0xb6 <__bad_interrupt>
      16:	00 00       	nop
      18:	0c 94 68 08 	jmp	0x10d0	; 0x10d0 <__vector_6>
      1c:	0c 94 bf 08 	jmp	0x117e	; 0x117e <__vector_7>
      20:	8a c6       	rjmp	.+3348   	; 0xd36 <__vector_8>
      22:	00 00       	nop
      24:	48 c0       	rjmp	.+144    	; 0xb6 <__bad_interrupt>
      26:	00 00       	nop
      28:	46 c0       	rjmp	.+140    	; 0xb6 <__bad_interrupt>
      2a:	00 00       	nop
      2c:	44 c0       	rjmp	.+136    	; 0xb6 <__bad_interrupt>
      2e:	00 00       	nop
      30:	42 c0       	rjmp	.+132    	; 0xb6 <__bad_interrupt>
      32:	00 00       	nop
      34:	d1 c6       	rjmp	.+3490   	; 0xdd8 <__vector_13>
      36:	00 00       	nop
      38:	02 c7       	rjmp	.+3588   	; 0xe3e <__vector_14>
      3a:	00 00       	nop
      3c:	3c c0       	rjmp	.+120    	; 0xb6 <__bad_interrupt>
      3e:	00 00       	nop
      40:	3a c0       	rjmp	.+116    	; 0xb6 <__bad_interrupt>
      42:	00 00       	nop
      44:	38 c0       	rjmp	.+112    	; 0xb6 <__bad_interrupt>
      46:	00 00       	nop
      48:	36 c0       	rjmp	.+108    	; 0xb6 <__bad_interrupt>
      4a:	00 00       	nop
      4c:	34 c0       	rjmp	.+104    	; 0xb6 <__bad_interrupt>
      4e:	00 00       	nop
      50:	c0 c7       	rjmp	.+3968   	; 0xfd2 <__vector_20>
      52:	00 00       	nop
      54:	30 c0       	rjmp	.+96     	; 0xb6 <__bad_interrupt>
      56:	00 00       	nop
      58:	f3 c7       	rjmp	.+4070   	; 0x1040 <__vector_22>
      5a:	00 00       	nop
      5c:	2c c0       	rjmp	.+88     	; 0xb6 <__bad_interrupt>
      5e:	00 00       	nop
      60:	2a c0       	rjmp	.+84     	; 0xb6 <__bad_interrupt>
      62:	00 00       	nop
      64:	28 c0       	rjmp	.+80     	; 0xb6 <__bad_interrupt>
      66:	00 00       	nop
      68:	26 c0       	rjmp	.+76     	; 0xb6 <__bad_interrupt>
      6a:	00 00       	nop
      6c:	3b c7       	rjmp	.+3702   	; 0xee4 <__vector_27>
      6e:	00 00       	nop
      70:	94 c7       	rjmp	.+3880   	; 0xf9a <__vector_28>
      72:	00 00       	nop
      74:	20 c0       	rjmp	.+64     	; 0xb6 <__bad_interrupt>
      76:	00 00       	nop
      78:	1e c0       	rjmp	.+60     	; 0xb6 <__bad_interrupt>
	...

0000007c <__ctors_end>:
      7c:	11 24       	eor	r1, r1
      7e:	1f be       	out	0x3f, r1	; 63
      80:	cf ef       	ldi	r28, 0xFF	; 255
      82:	cd bf       	out	0x3d, r28	; 61
      84:	df e3       	ldi	r29, 0x3F	; 63
      86:	de bf       	out	0x3e, r29	; 62

00000088 <__do_copy_data>:
      88:	18 e3       	ldi	r17, 0x38	; 56
      8a:	a0 e0       	ldi	r26, 0x00	; 0
      8c:	b8 e3       	ldi	r27, 0x38	; 56
      8e:	ec ec       	ldi	r30, 0xCC	; 204
      90:	f0 e4       	ldi	r31, 0x40	; 64
      92:	02 c0       	rjmp	.+4      	; 0x98 <__do_copy_data+0x10>
      94:	05 90       	lpm	r0, Z+
      96:	0d 92       	st	X+, r0
      98:	ae 32       	cpi	r26, 0x2E	; 46
      9a:	b1 07       	cpc	r27, r17
      9c:	d9 f7       	brne	.-10     	; 0x94 <__do_copy_data+0xc>

0000009e <__do_clear_bss>:
      9e:	2b e3       	ldi	r18, 0x3B	; 59
      a0:	ae e2       	ldi	r26, 0x2E	; 46
      a2:	b8 e3       	ldi	r27, 0x38	; 56
      a4:	01 c0       	rjmp	.+2      	; 0xa8 <.do_clear_bss_start>

000000a6 <.do_clear_bss_loop>:
      a6:	1d 92       	st	X+, r1

000000a8 <.do_clear_bss_start>:
      a8:	aa 31       	cpi	r26, 0x1A	; 26
      aa:	b2 07       	cpc	r27, r18
      ac:	e1 f7       	brne	.-8      	; 0xa6 <.do_clear_bss_loop>
      ae:	0e 94 31 1f 	call	0x3e62	; 0x3e62 <main>
      b2:	0c 94 e3 1f 	jmp	0x3fc6	; 0x3fc6 <_exit>

000000b6 <__bad_interrupt>:
      b6:	a4 cf       	rjmp	.-184    	; 0x0 <__vectors>

000000b8 <chkVolt250>:
#include <main_def.h>
#include <resources.h>
#include <I2C.h>

//Returns measured voltage * 4 (2V returns 8) if it is in the expected range (DELTA)
uint8_t chkVolt250(){
      b8:	20 91 32 38 	lds	r18, 0x3832	; 0x803832 <avgVolt.3776>
      bc:	85 e1       	ldi	r24, 0x15	; 21
      be:	90 e0       	ldi	r25, 0x00	; 0
    static uint8_t avgVolt = 0;
        
    for (uint8_t x=25; x<226; x+=25) {
        if ((auIn[0] > (x-DELTA)) && (auIn[0] < (x+DELTA))) {
      c0:	40 91 c2 3a 	lds	r20, 0x3AC2	; 0x803ac2 <auIn>
      c4:	50 e0       	ldi	r21, 0x00	; 0
      c6:	48 17       	cp	r20, r24
      c8:	59 07       	cpc	r21, r25
      ca:	74 f0       	brlt	.+28     	; 0xe8 <chkVolt250+0x30>
      cc:	40 91 c2 3a 	lds	r20, 0x3AC2	; 0x803ac2 <auIn>
      d0:	50 e0       	ldi	r21, 0x00	; 0
      d2:	bc 01       	movw	r22, r24
      d4:	68 5f       	subi	r22, 0xF8	; 248
      d6:	7f 4f       	sbci	r23, 0xFF	; 255
      d8:	64 17       	cp	r22, r20
      da:	75 07       	cpc	r23, r21
      dc:	2c f0       	brlt	.+10     	; 0xe8 <chkVolt250+0x30>
      de:	20 93 32 38 	sts	0x3832, r18	; 0x803832 <avgVolt.3776>
            break;
        }
        ++avgVolt;
    }
    return avgVolt;
      e2:	80 91 32 38 	lds	r24, 0x3832	; 0x803832 <avgVolt.3776>
      e6:	08 95       	ret
        
    for (uint8_t x=25; x<226; x+=25) {
        if ((auIn[0] > (x-DELTA)) && (auIn[0] < (x+DELTA))) {
            break;
        }
        ++avgVolt;
      e8:	2f 5f       	subi	r18, 0xFF	; 255
      ea:	49 96       	adiw	r24, 0x19	; 25

//Returns measured voltage * 4 (2V returns 8) if it is in the expected range (DELTA)
uint8_t chkVolt250(){
    static uint8_t avgVolt = 0;
        
    for (uint8_t x=25; x<226; x+=25) {
      ec:	86 3f       	cpi	r24, 0xF6	; 246
      ee:	91 05       	cpc	r25, r1
      f0:	39 f7       	brne	.-50     	; 0xc0 <chkVolt250+0x8>
      f2:	f5 cf       	rjmp	.-22     	; 0xde <chkVolt250+0x26>

000000f4 <MakeFriends>:
    }
    return avgVolt;
}

// Main game loop
uint8_t MakeFriends(){
      f4:	ef 92       	push	r14
      f6:	ff 92       	push	r15
      f8:	0f 93       	push	r16
      fa:	1f 93       	push	r17
      fc:	cf 93       	push	r28
      fe:	df 93       	push	r29
     100:	c4 e6       	ldi	r28, 0x64	; 100
    static uint8_t chkTmr = 0;
    static uint8_t jackIn = 0;
    static uint8_t candidate = 0;

    //Check if badge has found 3 friends
    uint8_t foundAll = 1;
     102:	d1 e0       	ldi	r29, 0x01	; 1
    for (uint8_t x=0; x<4; x++){
        if (CheckState(100+x) == 0) foundAll = 0;
     104:	8c 2f       	mov	r24, r28
     106:	0e 94 d2 0a 	call	0x15a4	; 0x15a4 <CheckState>
     10a:	81 11       	cpse	r24, r1
     10c:	01 c0       	rjmp	.+2      	; 0x110 <MakeFriends+0x1c>
     10e:	d0 e0       	ldi	r29, 0x00	; 0
     110:	cf 5f       	subi	r28, 0xFF	; 255
    static uint8_t jackIn = 0;
    static uint8_t candidate = 0;

    //Check if badge has found 3 friends
    uint8_t foundAll = 1;
    for (uint8_t x=0; x<4; x++){
     112:	c8 36       	cpi	r28, 0x68	; 104
     114:	b9 f7       	brne	.-18     	; 0x104 <MakeFriends+0x10>
        if (CheckState(100+x) == 0) foundAll = 0;
    }
    if (foundAll) UpdateState(124);
     116:	dd 23       	and	r29, r29
     118:	19 f0       	breq	.+6      	; 0x120 <MakeFriends+0x2c>
     11a:	8c e7       	ldi	r24, 0x7C	; 124
     11c:	0e 94 c8 0a 	call	0x1590	; 0x1590 <UpdateState>


    //Checking for headphones
    if (detHdPh) return 0;
     120:	80 91 bf 3a 	lds	r24, 0x3ABF	; 0x803abf <detHdPh>
     124:	81 11       	cpse	r24, r1
     126:	1e c1       	rjmp	.+572    	; 0x364 <MakeFriends+0x270>

    //Audio off, set voltage level (setDAC[0]*10mV)
    if (progress == NO_OTHER) {
     128:	80 91 31 38 	lds	r24, 0x3831	; 0x803831 <progress.3783>
     12c:	81 11       	cpse	r24, r1
     12e:	11 c0       	rjmp	.+34     	; 0x152 <MakeFriends+0x5e>
        setDAC[0] = whoami * 50;
     130:	90 91 3d 38 	lds	r25, 0x383D	; 0x80383d <whoami>
     134:	22 e3       	ldi	r18, 0x32	; 50
     136:	92 9f       	mul	r25, r18
     138:	90 2d       	mov	r25, r0
     13a:	11 24       	eor	r1, r1
     13c:	90 93 00 38 	sts	0x3800, r25	; 0x803800 <__data_start>
        auRepAddr = &setDAC[0];
     140:	20 e0       	ldi	r18, 0x00	; 0
     142:	38 e3       	ldi	r19, 0x38	; 56
     144:	20 93 05 38 	sts	0x3805, r18	; 0x803805 <auRepAddr>
     148:	30 93 06 38 	sts	0x3806, r19	; 0x803806 <auRepAddr+0x1>
        auVolume = 255;
     14c:	9f ef       	ldi	r25, 0xFF	; 255
     14e:	90 93 b6 3a 	sts	0x3AB6, r25	; 0x803ab6 <auVolume>
    }

    //Check for other badges
    if ((auIn[0] < (setDAC[0] - DELTA)) || (auIn[0] > (setDAC[0] + DELTA)) ||((progress > FIRST_CONTACT))) {
     152:	40 91 c2 3a 	lds	r20, 0x3AC2	; 0x803ac2 <auIn>
     156:	20 91 00 38 	lds	r18, 0x3800	; 0x803800 <__data_start>
     15a:	30 e0       	ldi	r19, 0x00	; 0
     15c:	50 e0       	ldi	r21, 0x00	; 0
     15e:	b9 01       	movw	r22, r18
     160:	65 50       	subi	r22, 0x05	; 5
     162:	71 09       	sbc	r23, r1
     164:	46 17       	cp	r20, r22
     166:	57 07       	cpc	r21, r23
     168:	64 f0       	brlt	.+24     	; 0x182 <MakeFriends+0x8e>
     16a:	40 91 c2 3a 	lds	r20, 0x3AC2	; 0x803ac2 <auIn>
     16e:	50 e0       	ldi	r21, 0x00	; 0
     170:	2b 5f       	subi	r18, 0xFB	; 251
     172:	3f 4f       	sbci	r19, 0xFF	; 255
     174:	24 17       	cp	r18, r20
     176:	35 07       	cpc	r19, r21
     178:	24 f0       	brlt	.+8      	; 0x182 <MakeFriends+0x8e>
     17a:	82 30       	cpi	r24, 0x02	; 2
     17c:	08 f0       	brcs	.+2      	; 0x180 <MakeFriends+0x8c>
     17e:	40 c0       	rjmp	.+128    	; 0x200 <MakeFriends+0x10c>
     180:	ef c0       	rjmp	.+478    	; 0x360 <MakeFriends+0x26c>
        if (progress == NO_OTHER) {
     182:	81 11       	cpse	r24, r1
     184:	0a c0       	rjmp	.+20     	; 0x19a <MakeFriends+0xa6>
            ++chkTmr;
     186:	80 91 30 38 	lds	r24, 0x3830	; 0x803830 <chkTmr.3785>
     18a:	8f 5f       	subi	r24, 0xFF	; 255
     18c:	80 93 30 38 	sts	0x3830, r24	; 0x803830 <chkTmr.3785>
            if (chkTmr >= 8) {
     190:	88 30       	cpi	r24, 0x08	; 8
     192:	08 f4       	brcc	.+2      	; 0x196 <MakeFriends+0xa2>
     194:	e7 c0       	rjmp	.+462    	; 0x364 <MakeFriends+0x270>
                progress = FIRST_CONTACT;
     196:	81 e0       	ldi	r24, 0x01	; 1
     198:	81 c0       	rjmp	.+258    	; 0x29c <MakeFriends+0x1a8>
                chkTmr = 0;
            }
        }

        //Candidate found, check ranges
        else if (progress == FIRST_CONTACT) {
     19a:	81 30       	cpi	r24, 0x01	; 1
     19c:	89 f5       	brne	.+98     	; 0x200 <MakeFriends+0x10c>
            jackIn = chkVolt250();
     19e:	8c df       	rcall	.-232    	; 0xb8 <chkVolt250>
     1a0:	80 93 2f 38 	sts	0x382F, r24	; 0x80382f <jackIn.3786>
            if (jackIn) {
     1a4:	88 23       	and	r24, r24
     1a6:	49 f1       	breq	.+82     	; 0x1fa <MakeFriends+0x106>
                ++chkTmr;
     1a8:	90 91 30 38 	lds	r25, 0x3830	; 0x803830 <chkTmr.3785>
     1ac:	9f 5f       	subi	r25, 0xFF	; 255
     1ae:	90 93 30 38 	sts	0x3830, r25	; 0x803830 <chkTmr.3785>
                if (chkTmr >= SHORT_WAIT){
     1b2:	98 30       	cpi	r25, 0x08	; 8
     1b4:	08 f4       	brcc	.+2      	; 0x1b8 <MakeFriends+0xc4>
     1b6:	d6 c0       	rjmp	.+428    	; 0x364 <MakeFriends+0x270>
                    if ((whoami == 1)&&((jackIn == 3)||(jackIn == 4)||(jackIn == 5))) {
     1b8:	90 91 3d 38 	lds	r25, 0x383D	; 0x80383d <whoami>
     1bc:	91 30       	cpi	r25, 0x01	; 1
     1be:	29 f4       	brne	.+10     	; 0x1ca <MakeFriends+0xd6>
     1c0:	83 50       	subi	r24, 0x03	; 3
     1c2:	83 30       	cpi	r24, 0x03	; 3
     1c4:	b8 f4       	brcc	.+46     	; 0x1f4 <MakeFriends+0x100>
                        progress = SECOND_LOVE; 
     1c6:	82 e0       	ldi	r24, 0x02	; 2
     1c8:	69 c0       	rjmp	.+210    	; 0x29c <MakeFriends+0x1a8>
                    } else if ((whoami == 2)&&((jackIn == 3)||(jackIn == 5)||(jackIn == 6))) {
     1ca:	92 30       	cpi	r25, 0x02	; 2
     1cc:	31 f4       	brne	.+12     	; 0x1da <MakeFriends+0xe6>
     1ce:	83 30       	cpi	r24, 0x03	; 3
     1d0:	d1 f3       	breq	.-12     	; 0x1c6 <MakeFriends+0xd2>
     1d2:	85 50       	subi	r24, 0x05	; 5
     1d4:	82 30       	cpi	r24, 0x02	; 2
     1d6:	70 f4       	brcc	.+28     	; 0x1f4 <MakeFriends+0x100>
     1d8:	f6 cf       	rjmp	.-20     	; 0x1c6 <MakeFriends+0xd2>
                        progress = SECOND_LOVE;
                    } else  if ((whoami == 3)&&((jackIn == 4)||(jackIn == 5)||(jackIn == 7))) {
     1da:	93 30       	cpi	r25, 0x03	; 3
     1dc:	39 f4       	brne	.+14     	; 0x1ec <MakeFriends+0xf8>
     1de:	9c ef       	ldi	r25, 0xFC	; 252
     1e0:	98 0f       	add	r25, r24
     1e2:	92 30       	cpi	r25, 0x02	; 2
     1e4:	80 f3       	brcs	.-32     	; 0x1c6 <MakeFriends+0xd2>
     1e6:	87 30       	cpi	r24, 0x07	; 7
     1e8:	29 f4       	brne	.+10     	; 0x1f4 <MakeFriends+0x100>
     1ea:	ed cf       	rjmp	.-38     	; 0x1c6 <MakeFriends+0xd2>
                        progress = SECOND_LOVE;
                    } else if ((whoami == 4)&&((jackIn == 5)||(jackIn == 6)||(jackIn == 7))) {
     1ec:	94 30       	cpi	r25, 0x04	; 4
     1ee:	11 f4       	brne	.+4      	; 0x1f4 <MakeFriends+0x100>
     1f0:	85 50       	subi	r24, 0x05	; 5
     1f2:	e7 cf       	rjmp	.-50     	; 0x1c2 <MakeFriends+0xce>
                        progress = SECOND_LOVE;
                    } else progress = NO_OTHER;
     1f4:	10 92 31 38 	sts	0x3831, r1	; 0x803831 <progress.3783>
     1f8:	53 c0       	rjmp	.+166    	; 0x2a0 <MakeFriends+0x1ac>
                    chkTmr = 0;
                }
            } else {
                chkTmr = 0;
     1fa:	10 92 30 38 	sts	0x3830, r1	; 0x803830 <chkTmr.3785>
     1fe:	b0 c0       	rjmp	.+352    	; 0x360 <MakeFriends+0x26c>
                progress = NO_OTHER;
            }
        }

        //Wait for the other badge (and a bit longer)
        else if (progress == SECOND_LOVE){
     200:	82 30       	cpi	r24, 0x02	; 2
     202:	09 f0       	breq	.+2      	; 0x206 <MakeFriends+0x112>
     204:	50 c0       	rjmp	.+160    	; 0x2a6 <MakeFriends+0x1b2>
            ++chkTmr;
     206:	80 91 30 38 	lds	r24, 0x3830	; 0x803830 <chkTmr.3785>
     20a:	8f 5f       	subi	r24, 0xFF	; 255
     20c:	80 93 30 38 	sts	0x3830, r24	; 0x803830 <chkTmr.3785>
     210:	c6 ef       	ldi	r28, 0xF6	; 246
     212:	df eb       	ldi	r29, 0xBF	; 191
     214:	7e 01       	movw	r14, r28
            for (uint8_t x=0; x<5; ++x){
                iLED[WING[L][x]] = (lfsr() > 127)?dimValue:0;
     216:	0d 81       	ldd	r16, Y+5	; 0x05
     218:	10 e0       	ldi	r17, 0x00	; 0
     21a:	0e 94 a4 09 	call	0x1348	; 0x1348 <lfsr>
     21e:	87 ff       	sbrs	r24, 7
     220:	03 c0       	rjmp	.+6      	; 0x228 <MakeFriends+0x134>
     222:	80 91 0b 38 	lds	r24, 0x380B	; 0x80380b <dimValue>
     226:	01 c0       	rjmp	.+2      	; 0x22a <MakeFriends+0x136>
     228:	80 e0       	ldi	r24, 0x00	; 0
     22a:	f8 01       	movw	r30, r16
     22c:	e6 53       	subi	r30, 0x36	; 54
     22e:	f5 4c       	sbci	r31, 0xC5	; 197
     230:	80 83       	st	Z, r24
     232:	21 96       	adiw	r28, 0x01	; 1
                iLED[WING[R][x]] = (lfsr() > 127)?dimValue:0;
     234:	f7 01       	movw	r30, r14
     236:	00 81       	ld	r16, Z
     238:	10 e0       	ldi	r17, 0x00	; 0
     23a:	0e 94 a4 09 	call	0x1348	; 0x1348 <lfsr>
     23e:	87 ff       	sbrs	r24, 7
     240:	03 c0       	rjmp	.+6      	; 0x248 <MakeFriends+0x154>
     242:	80 91 0b 38 	lds	r24, 0x380B	; 0x80380b <dimValue>
     246:	01 c0       	rjmp	.+2      	; 0x24a <MakeFriends+0x156>
     248:	80 e0       	ldi	r24, 0x00	; 0
     24a:	f8 01       	movw	r30, r16
     24c:	e6 53       	subi	r30, 0x36	; 54
     24e:	f5 4c       	sbci	r31, 0xC5	; 197
     250:	80 83       	st	Z, r24
        }

        //Wait for the other badge (and a bit longer)
        else if (progress == SECOND_LOVE){
            ++chkTmr;
            for (uint8_t x=0; x<5; ++x){
     252:	ff eb       	ldi	r31, 0xBF	; 191
     254:	cb 3f       	cpi	r28, 0xFB	; 251
     256:	df 07       	cpc	r29, r31
     258:	e9 f6       	brne	.-70     	; 0x214 <MakeFriends+0x120>
                iLED[WING[L][x]] = (lfsr() > 127)?dimValue:0;
                iLED[WING[R][x]] = (lfsr() > 127)?dimValue:0;
            }
            if (chkTmr >= SHORT_WAIT) {
     25a:	80 91 30 38 	lds	r24, 0x3830	; 0x803830 <chkTmr.3785>
     25e:	88 30       	cpi	r24, 0x08	; 8
     260:	40 f0       	brcs	.+16     	; 0x272 <MakeFriends+0x17e>
                setDAC[0] = floatAround(0x80, 8, 100, 255); 
     262:	2f ef       	ldi	r18, 0xFF	; 255
     264:	44 e6       	ldi	r20, 0x64	; 100
     266:	68 e0       	ldi	r22, 0x08	; 8
     268:	80 e8       	ldi	r24, 0x80	; 128
     26a:	0e 94 f5 09 	call	0x13ea	; 0x13ea <floatAround>
     26e:	80 93 00 38 	sts	0x3800, r24	; 0x803800 <__data_start>
            }
            //The badge with the lowest voltage will now go to 2.5V (impedance check, for people tricking the things with a power supply)
            if (chkTmr >= LONG_WAIT){
     272:	80 91 30 38 	lds	r24, 0x3830	; 0x803830 <chkTmr.3785>
     276:	8a 3f       	cpi	r24, 0xFA	; 250
     278:	08 f4       	brcc	.+2      	; 0x27c <MakeFriends+0x188>
     27a:	74 c0       	rjmp	.+232    	; 0x364 <MakeFriends+0x270>
                candidate = jackIn-whoami;
     27c:	90 91 3d 38 	lds	r25, 0x383D	; 0x80383d <whoami>
     280:	80 91 2f 38 	lds	r24, 0x382F	; 0x80382f <jackIn.3786>
     284:	89 1b       	sub	r24, r25
     286:	80 93 2e 38 	sts	0x382E, r24	; 0x80382e <__data_end>
                if (candidate > whoami) setDAC[0] = 250; else setDAC[0] = 0;
     28a:	98 17       	cp	r25, r24
     28c:	20 f4       	brcc	.+8      	; 0x296 <MakeFriends+0x1a2>
     28e:	8a ef       	ldi	r24, 0xFA	; 250
     290:	80 93 00 38 	sts	0x3800, r24	; 0x803800 <__data_start>
     294:	02 c0       	rjmp	.+4      	; 0x29a <MakeFriends+0x1a6>
     296:	10 92 00 38 	sts	0x3800, r1	; 0x803800 <__data_start>
                progress = THIRD_KISS;
     29a:	83 e0       	ldi	r24, 0x03	; 3
     29c:	80 93 31 38 	sts	0x3831, r24	; 0x803831 <progress.3783>
                chkTmr = 0;
     2a0:	10 92 30 38 	sts	0x3830, r1	; 0x803830 <chkTmr.3785>
     2a4:	5f c0       	rjmp	.+190    	; 0x364 <MakeFriends+0x270>
            }
        } 
        
        //Wait a bit, check Voltage again, if ok show who you connected with and your own number, save, exit
        else if (progress == THIRD_KISS) {
     2a6:	83 30       	cpi	r24, 0x03	; 3
     2a8:	e1 f5       	brne	.+120    	; 0x322 <MakeFriends+0x22e>
            chkTmr++;
     2aa:	80 91 30 38 	lds	r24, 0x3830	; 0x803830 <chkTmr.3785>
     2ae:	8f 5f       	subi	r24, 0xFF	; 255
     2b0:	80 93 30 38 	sts	0x3830, r24	; 0x803830 <chkTmr.3785>
            if (chkTmr >= SHORT_WAIT) {
     2b4:	88 30       	cpi	r24, 0x08	; 8
     2b6:	08 f4       	brcc	.+2      	; 0x2ba <MakeFriends+0x1c6>
                if (chkVolt250() == 5) {
     2b8:	55 c0       	rjmp	.+170    	; 0x364 <MakeFriends+0x270>
     2ba:	fe de       	rcall	.-516    	; 0xb8 <chkVolt250>
     2bc:	85 30       	cpi	r24, 0x05	; 5
     2be:	09 f0       	breq	.+2      	; 0x2c2 <MakeFriends+0x1ce>
     2c0:	99 cf       	rjmp	.-206    	; 0x1f4 <MakeFriends+0x100>
                    UpdateState(99+candidate);
     2c2:	80 91 2e 38 	lds	r24, 0x382E	; 0x80382e <__data_end>
     2c6:	8d 59       	subi	r24, 0x9D	; 157
     2c8:	0e 94 c8 0a 	call	0x1590	; 0x1590 <UpdateState>
                    UpdateState(99+whoami);
     2cc:	80 91 3d 38 	lds	r24, 0x383D	; 0x80383d <whoami>
     2d0:	8d 59       	subi	r24, 0x9D	; 157
     2d2:	0e 94 c8 0a 	call	0x1590	; 0x1590 <UpdateState>
                    for (uint8_t x=0; x<5; ++x){
                        iLED[WING[L][x]] = (x<candidate)?dimValue:0;
     2d6:	20 91 2e 38 	lds	r18, 0x382E	; 0x80382e <__data_end>
                        iLED[WING[R][x]] = (x<whoami)?dimValue:00;
     2da:	30 91 3d 38 	lds	r19, 0x383D	; 0x80383d <whoami>
     2de:	a6 ef       	ldi	r26, 0xF6	; 246
     2e0:	bf eb       	ldi	r27, 0xBF	; 191
            chkTmr++;
            if (chkTmr >= SHORT_WAIT) {
                if (chkVolt250() == 5) {
                    UpdateState(99+candidate);
                    UpdateState(99+whoami);
                    for (uint8_t x=0; x<5; ++x){
     2e2:	80 e0       	ldi	r24, 0x00	; 0
     2e4:	ed 01       	movw	r28, r26
                        iLED[WING[L][x]] = (x<candidate)?dimValue:0;
     2e6:	15 96       	adiw	r26, 0x05	; 5
     2e8:	ec 91       	ld	r30, X
     2ea:	15 97       	sbiw	r26, 0x05	; 5
     2ec:	f0 e0       	ldi	r31, 0x00	; 0
     2ee:	82 17       	cp	r24, r18
     2f0:	18 f4       	brcc	.+6      	; 0x2f8 <MakeFriends+0x204>
     2f2:	90 91 0b 38 	lds	r25, 0x380B	; 0x80380b <dimValue>
     2f6:	01 c0       	rjmp	.+2      	; 0x2fa <MakeFriends+0x206>
     2f8:	90 e0       	ldi	r25, 0x00	; 0
     2fa:	e6 53       	subi	r30, 0x36	; 54
     2fc:	f5 4c       	sbci	r31, 0xC5	; 197
     2fe:	90 83       	st	Z, r25
     300:	11 96       	adiw	r26, 0x01	; 1
                        iLED[WING[R][x]] = (x<whoami)?dimValue:00;
     302:	e8 81       	ld	r30, Y
     304:	f0 e0       	ldi	r31, 0x00	; 0
     306:	83 17       	cp	r24, r19
     308:	18 f4       	brcc	.+6      	; 0x310 <MakeFriends+0x21c>
     30a:	90 91 0b 38 	lds	r25, 0x380B	; 0x80380b <dimValue>
     30e:	01 c0       	rjmp	.+2      	; 0x312 <MakeFriends+0x21e>
     310:	90 e0       	ldi	r25, 0x00	; 0
     312:	e6 53       	subi	r30, 0x36	; 54
     314:	f5 4c       	sbci	r31, 0xC5	; 197
     316:	90 83       	st	Z, r25
            chkTmr++;
            if (chkTmr >= SHORT_WAIT) {
                if (chkVolt250() == 5) {
                    UpdateState(99+candidate);
                    UpdateState(99+whoami);
                    for (uint8_t x=0; x<5; ++x){
     318:	8f 5f       	subi	r24, 0xFF	; 255
     31a:	85 30       	cpi	r24, 0x05	; 5
     31c:	19 f7       	brne	.-58     	; 0x2e4 <MakeFriends+0x1f0>
                        iLED[WING[L][x]] = (x<candidate)?dimValue:0;
                        iLED[WING[R][x]] = (x<whoami)?dimValue:00;
                    }   
                    progress = FOURTH_BASE;
     31e:	84 e0       	ldi	r24, 0x04	; 4
     320:	bd cf       	rjmp	.-134    	; 0x29c <MakeFriends+0x1a8>
                } else progress = NO_OTHER;                
                chkTmr = 0;
            }

        //Wait for divorce of force quit
        } else if (progress == FOURTH_BASE) {
     322:	84 30       	cpi	r24, 0x04	; 4
            if (chkVolt250() == 5) {
     324:	f9 f4       	brne	.+62     	; 0x364 <MakeFriends+0x270>
     326:	c8 de       	rcall	.-624    	; 0xb8 <chkVolt250>
     328:	85 30       	cpi	r24, 0x05	; 5
     32a:	e1 f4       	brne	.+56     	; 0x364 <MakeFriends+0x270>
                chkTmr++;
     32c:	80 91 30 38 	lds	r24, 0x3830	; 0x803830 <chkTmr.3785>
     330:	8f 5f       	subi	r24, 0xFF	; 255
     332:	80 93 30 38 	sts	0x3830, r24	; 0x803830 <chkTmr.3785>
                if (chkTmr >= LONG_WAIT) {
     336:	8a 3f       	cpi	r24, 0xFA	; 250
     338:	a8 f0       	brcs	.+42     	; 0x364 <MakeFriends+0x270>
     33a:	e6 ef       	ldi	r30, 0xF6	; 246
     33c:	ff eb       	ldi	r31, 0xBF	; 191
     33e:	8b ef       	ldi	r24, 0xFB	; 251
     340:	9f eb       	ldi	r25, 0xBF	; 191
     342:	ef 01       	movw	r28, r30
                    for (uint8_t x=0; x<5; ++x){
                        iLED[WING[L][x]] = 0;
     344:	a5 81       	ldd	r26, Z+5	; 0x05
     346:	b0 e0       	ldi	r27, 0x00	; 0
     348:	a6 53       	subi	r26, 0x36	; 54
     34a:	b5 4c       	sbci	r27, 0xC5	; 197
     34c:	1c 92       	st	X, r1
     34e:	31 96       	adiw	r30, 0x01	; 1
                        iLED[WING[R][x]] = 0;
     350:	a8 81       	ld	r26, Y
     352:	b0 e0       	ldi	r27, 0x00	; 0
     354:	a6 53       	subi	r26, 0x36	; 54
     356:	b5 4c       	sbci	r27, 0xC5	; 197
     358:	1c 92       	st	X, r1
        //Wait for divorce of force quit
        } else if (progress == FOURTH_BASE) {
            if (chkVolt250() == 5) {
                chkTmr++;
                if (chkTmr >= LONG_WAIT) {
                    for (uint8_t x=0; x<5; ++x){
     35a:	8e 17       	cp	r24, r30
     35c:	9f 07       	cpc	r25, r31
     35e:	89 f7       	brne	.-30     	; 0x342 <MakeFriends+0x24e>
                    }                    
                }
            }
        }

    } else progress = NO_OTHER;
     360:	10 92 31 38 	sts	0x3831, r1	; 0x803831 <progress.3783>
      
    return 0;
}
     364:	80 e0       	ldi	r24, 0x00	; 0
     366:	df 91       	pop	r29
     368:	cf 91       	pop	r28
     36a:	1f 91       	pop	r17
     36c:	0f 91       	pop	r16
     36e:	ff 90       	pop	r15
     370:	ef 90       	pop	r14
     372:	08 95       	ret

00000374 <I2C_init>:
// the Atmel device documentation mentions a special command for repeated start TWI_MCMD_REPSTART_gc,
// but this is not used in Atmel's demo code, so we don't use it either

void I2C_rep_start(uint8_t shifted_addr)						    // send repeated start, device_addr + LSB set if READ
{
	TWI0.MADDR = shifted_addr;	
     374:	81 e0       	ldi	r24, 0x01	; 1
     376:	80 93 22 04 	sts	0x0422, r24	; 0x800422 <__TEXT_REGION_LENGTH__+0x700422>
     37a:	e6 e2       	ldi	r30, 0x26	; 38
     37c:	f4 e0       	ldi	r31, 0x04	; 4
     37e:	80 83       	st	Z, r24
     380:	10 92 30 04 	sts	0x0430, r1	; 0x800430 <__TEXT_REGION_LENGTH__+0x700430>
     384:	a1 e2       	ldi	r26, 0x21	; 33
     386:	b4 e0       	ldi	r27, 0x04	; 4
     388:	92 e0       	ldi	r25, 0x02	; 2
     38a:	9c 93       	st	X, r25
     38c:	90 83       	st	Z, r25
     38e:	10 92 31 04 	sts	0x0431, r1	; 0x800431 <__TEXT_REGION_LENGTH__+0x700431>
     392:	e0 e1       	ldi	r30, 0x10	; 16
     394:	f8 e0       	ldi	r31, 0x08	; 8
     396:	97 e0       	ldi	r25, 0x07	; 7
     398:	96 83       	std	Z+6, r25	; 0x06
     39a:	98 e0       	ldi	r25, 0x08	; 8
     39c:	94 83       	std	Z+4, r25	; 0x04
     39e:	83 83       	std	Z+3, r24	; 0x03
     3a0:	8c 93       	st	X, r24
     3a2:	85 81       	ldd	r24, Z+5	; 0x05
     3a4:	81 60       	ori	r24, 0x01	; 1
     3a6:	85 83       	std	Z+5, r24	; 0x05
     3a8:	85 81       	ldd	r24, Z+5	; 0x05
     3aa:	84 6c       	ori	r24, 0xC4	; 196
     3ac:	85 83       	std	Z+5, r24	; 0x05
     3ae:	08 95       	ret

000003b0 <I2C_recover>:
     3b0:	80 91 14 08 	lds	r24, 0x0814	; 0x800814 <__TEXT_REGION_LENGTH__+0x700814>
     3b4:	88 60       	ori	r24, 0x08	; 8
     3b6:	80 93 14 08 	sts	0x0814, r24	; 0x800814 <__TEXT_REGION_LENGTH__+0x700814>
     3ba:	10 92 13 08 	sts	0x0813, r1	; 0x800813 <__TEXT_REGION_LENGTH__+0x700813>
     3be:	82 e0       	ldi	r24, 0x02	; 2
     3c0:	80 93 22 04 	sts	0x0422, r24	; 0x800422 <__TEXT_REGION_LENGTH__+0x700422>
     3c4:	99 e0       	ldi	r25, 0x09	; 9
     3c6:	21 e0       	ldi	r18, 0x01	; 1
     3c8:	81 e0       	ldi	r24, 0x01	; 1
     3ca:	20 93 21 04 	sts	0x0421, r18	; 0x800421 <__TEXT_REGION_LENGTH__+0x700421>
     3ce:	30 e1       	ldi	r19, 0x10	; 16
     3d0:	3a 95       	dec	r19
     3d2:	f1 f7       	brne	.-4      	; 0x3d0 <I2C_recover+0x20>
     3d4:	00 c0       	rjmp	.+0      	; 0x3d6 <I2C_recover+0x26>
     3d6:	20 93 22 04 	sts	0x0422, r18	; 0x800422 <__TEXT_REGION_LENGTH__+0x700422>
     3da:	30 e1       	ldi	r19, 0x10	; 16
     3dc:	3a 95       	dec	r19
     3de:	f1 f7       	brne	.-4      	; 0x3dc <I2C_recover+0x2c>
     3e0:	00 c0       	rjmp	.+0      	; 0x3e2 <I2C_recover+0x32>
     3e2:	91 50       	subi	r25, 0x01	; 1
     3e4:	89 f7       	brne	.-30     	; 0x3c8 <I2C_recover+0x18>
     3e6:	28 e0       	ldi	r18, 0x08	; 8
     3e8:	20 93 14 08 	sts	0x0814, r18	; 0x800814 <__TEXT_REGION_LENGTH__+0x700814>
     3ec:	80 93 13 08 	sts	0x0813, r24	; 0x800813 <__TEXT_REGION_LENGTH__+0x700813>
     3f0:	92 e0       	ldi	r25, 0x02	; 2
     3f2:	90 93 21 04 	sts	0x0421, r25	; 0x800421 <__TEXT_REGION_LENGTH__+0x700421>
     3f6:	90 91 15 08 	lds	r25, 0x0815	; 0x800815 <__TEXT_REGION_LENGTH__+0x700815>
     3fa:	91 60       	ori	r25, 0x01	; 1
     3fc:	90 93 15 08 	sts	0x0815, r25	; 0x800815 <__TEXT_REGION_LENGTH__+0x700815>
     400:	90 91 15 08 	lds	r25, 0x0815	; 0x800815 <__TEXT_REGION_LENGTH__+0x700815>
     404:	94 6c       	ori	r25, 0xC4	; 196
     406:	90 93 15 08 	sts	0x0815, r25	; 0x800815 <__TEXT_REGION_LENGTH__+0x700815>
     40a:	20 93 14 08 	sts	0x0814, r18	; 0x800814 <__TEXT_REGION_LENGTH__+0x700814>
     40e:	80 93 13 08 	sts	0x0813, r24	; 0x800813 <__TEXT_REGION_LENGTH__+0x700813>
     412:	80 93 21 04 	sts	0x0421, r24	; 0x800421 <__TEXT_REGION_LENGTH__+0x700421>
     416:	80 91 15 08 	lds	r24, 0x0815	; 0x800815 <__TEXT_REGION_LENGTH__+0x700815>
     41a:	81 60       	ori	r24, 0x01	; 1
     41c:	80 93 15 08 	sts	0x0815, r24	; 0x800815 <__TEXT_REGION_LENGTH__+0x700815>
     420:	80 91 15 08 	lds	r24, 0x0815	; 0x800815 <__TEXT_REGION_LENGTH__+0x700815>
     424:	84 6c       	ori	r24, 0xC4	; 196
     426:	80 93 15 08 	sts	0x0815, r24	; 0x800815 <__TEXT_REGION_LENGTH__+0x700815>
     42a:	08 95       	ret

0000042c <I2C_start>:
     42c:	28 2f       	mov	r18, r24
     42e:	90 91 15 08 	lds	r25, 0x0815	; 0x800815 <__TEXT_REGION_LENGTH__+0x700815>
     432:	90 6c       	ori	r25, 0xC0	; 192
     434:	90 93 15 08 	sts	0x0815, r25	; 0x800815 <__TEXT_REGION_LENGTH__+0x700815>
     438:	90 91 15 08 	lds	r25, 0x0815	; 0x800815 <__TEXT_REGION_LENGTH__+0x700815>
     43c:	89 2f       	mov	r24, r25
     43e:	84 70       	andi	r24, 0x04	; 4
     440:	92 fd       	sbrc	r25, 2
     442:	03 c0       	rjmp	.+6      	; 0x44a <I2C_start+0x1e>
     444:	20 93 17 08 	sts	0x0817, r18	; 0x800817 <__TEXT_REGION_LENGTH__+0x700817>
     448:	08 95       	ret
     44a:	84 e0       	ldi	r24, 0x04	; 4
     44c:	08 95       	ret

0000044e <I2C_wait_ACK>:
     44e:	8c e0       	ldi	r24, 0x0C	; 12
     450:	80 93 60 3a 	sts	0x3A60, r24	; 0x803a60 <timeout_I2C>
     454:	80 91 15 08 	lds	r24, 0x0815	; 0x800815 <__TEXT_REGION_LENGTH__+0x700815>
     458:	87 fd       	sbrc	r24, 7
     45a:	0a c0       	rjmp	.+20     	; 0x470 <I2C_wait_ACK+0x22>
     45c:	80 91 15 08 	lds	r24, 0x0815	; 0x800815 <__TEXT_REGION_LENGTH__+0x700815>
     460:	86 fd       	sbrc	r24, 6
     462:	06 c0       	rjmp	.+12     	; 0x470 <I2C_wait_ACK+0x22>
     464:	80 91 60 3a 	lds	r24, 0x3A60	; 0x803a60 <timeout_I2C>
     468:	81 11       	cpse	r24, r1
     46a:	f4 cf       	rjmp	.-24     	; 0x454 <I2C_wait_ACK+0x6>
     46c:	8f ef       	ldi	r24, 0xFF	; 255
     46e:	08 95       	ret
     470:	80 91 15 08 	lds	r24, 0x0815	; 0x800815 <__TEXT_REGION_LENGTH__+0x700815>
     474:	80 6c       	ori	r24, 0xC0	; 192
     476:	80 93 15 08 	sts	0x0815, r24	; 0x800815 <__TEXT_REGION_LENGTH__+0x700815>
     47a:	80 91 15 08 	lds	r24, 0x0815	; 0x800815 <__TEXT_REGION_LENGTH__+0x700815>
     47e:	82 fd       	sbrc	r24, 2
     480:	09 c0       	rjmp	.+18     	; 0x494 <I2C_wait_ACK+0x46>
     482:	80 91 15 08 	lds	r24, 0x0815	; 0x800815 <__TEXT_REGION_LENGTH__+0x700815>
     486:	83 fd       	sbrc	r24, 3
     488:	07 c0       	rjmp	.+14     	; 0x498 <I2C_wait_ACK+0x4a>
     48a:	80 91 15 08 	lds	r24, 0x0815	; 0x800815 <__TEXT_REGION_LENGTH__+0x700815>
     48e:	82 95       	swap	r24
     490:	81 70       	andi	r24, 0x01	; 1
     492:	08 95       	ret
     494:	84 e0       	ldi	r24, 0x04	; 4
     496:	08 95       	ret
     498:	82 e0       	ldi	r24, 0x02	; 2
     49a:	08 95       	ret

0000049c <I2C_read>:
}

uint8_t	I2C_read(uint8_t *data, uint8_t ack_flag)					// read data, ack_flag 0: send ACK, 1: send NACK, returns status
{
     49c:	fc 01       	movw	r30, r24
	timeout_I2C = READ_TIMEOUT;										// reset timeout counter, will be decremented by LED matrix interrupt
     49e:	8c e0       	ldi	r24, 0x0C	; 12
     4a0:	80 93 60 3a 	sts	0x3A60, r24	; 0x803a60 <timeout_I2C>
	if ((TWI0.MSTATUS & TWI_BUSSTATE_gm) == TWI_BUSSTATE_OWNER_gc)	// if master controls bus
     4a4:	90 91 15 08 	lds	r25, 0x0815	; 0x800815 <__TEXT_REGION_LENGTH__+0x700815>
     4a8:	89 2f       	mov	r24, r25
     4aa:	83 70       	andi	r24, 0x03	; 3
     4ac:	82 30       	cpi	r24, 0x02	; 2
     4ae:	11 f0       	breq	.+4      	; 0x4b4 <I2C_read+0x18>
		else		TWI0.MCTRLB |= TWI_ACKACT_NACK_gc;				// setup NACK (last byte read)
		*data = TWI0.MDATA;
		if (ack_flag == 0) TWI0.MCTRLB |= TWI_MCMD_RECVTRANS_gc;	// send ACK, more bytes to follow					
		return 0;
	}
	else return 8;													// master does not control bus
     4b0:	88 e0       	ldi	r24, 0x08	; 8
     4b2:	08 95       	ret
uint8_t	I2C_read(uint8_t *data, uint8_t ack_flag)					// read data, ack_flag 0: send ACK, 1: send NACK, returns status
{
	timeout_I2C = READ_TIMEOUT;										// reset timeout counter, will be decremented by LED matrix interrupt
	if ((TWI0.MSTATUS & TWI_BUSSTATE_gm) == TWI_BUSSTATE_OWNER_gc)	// if master controls bus
	{		
		while (!(TWI0.MSTATUS & TWI_RIF_bm))						// wait for RIF set (data byte received)
     4b4:	90 91 15 08 	lds	r25, 0x0815	; 0x800815 <__TEXT_REGION_LENGTH__+0x700815>
     4b8:	97 fd       	sbrc	r25, 7
     4ba:	06 c0       	rjmp	.+12     	; 0x4c8 <I2C_read+0x2c>
		{
			if (!(timeout_I2C)) return 0xff;			            // return timeout error
     4bc:	90 91 60 3a 	lds	r25, 0x3A60	; 0x803a60 <timeout_I2C>
     4c0:	91 11       	cpse	r25, r1
     4c2:	f8 cf       	rjmp	.-16     	; 0x4b4 <I2C_read+0x18>
     4c4:	8f ef       	ldi	r24, 0xFF	; 255
     4c6:	08 95       	ret
		}
		TWI0.MSTATUS |= (TWI_RIF_bm | TWI_WIF_bm);					// clear Read and Write interrupt flags	
     4c8:	90 91 15 08 	lds	r25, 0x0815	; 0x800815 <__TEXT_REGION_LENGTH__+0x700815>
     4cc:	90 6c       	ori	r25, 0xC0	; 192
     4ce:	90 93 15 08 	sts	0x0815, r25	; 0x800815 <__TEXT_REGION_LENGTH__+0x700815>
		if (TWI0.MSTATUS & TWI_BUSERR_bm) return 4;					// Bus Error, abort
     4d2:	90 91 15 08 	lds	r25, 0x0815	; 0x800815 <__TEXT_REGION_LENGTH__+0x700815>
     4d6:	92 fd       	sbrc	r25, 2
     4d8:	1e c0       	rjmp	.+60     	; 0x516 <I2C_read+0x7a>
		if (TWI0.MSTATUS & TWI_ARBLOST_bm) return 2;				// Arbitration Lost, abort
     4da:	90 91 15 08 	lds	r25, 0x0815	; 0x800815 <__TEXT_REGION_LENGTH__+0x700815>
     4de:	93 fd       	sbrc	r25, 3
     4e0:	1d c0       	rjmp	.+58     	; 0x51c <I2C_read+0x80>
		if (TWI0.MSTATUS & TWI_RXACK_bm) return 1;					// Slave replied with NACK, abort				
     4e2:	90 91 15 08 	lds	r25, 0x0815	; 0x800815 <__TEXT_REGION_LENGTH__+0x700815>
     4e6:	89 2f       	mov	r24, r25
     4e8:	80 71       	andi	r24, 0x10	; 16
     4ea:	94 fd       	sbrc	r25, 4
     4ec:	16 c0       	rjmp	.+44     	; 0x51a <I2C_read+0x7e>
		if (ack_flag == 0) TWI0.MCTRLB &= ~(1 << TWI_ACKACT_bp);	// setup ACK
     4ee:	90 91 14 08 	lds	r25, 0x0814	; 0x800814 <__TEXT_REGION_LENGTH__+0x700814>
     4f2:	61 11       	cpse	r22, r1
     4f4:	02 c0       	rjmp	.+4      	; 0x4fa <I2C_read+0x5e>
     4f6:	9b 7f       	andi	r25, 0xFB	; 251
     4f8:	01 c0       	rjmp	.+2      	; 0x4fc <I2C_read+0x60>
		else		TWI0.MCTRLB |= TWI_ACKACT_NACK_gc;				// setup NACK (last byte read)
     4fa:	94 60       	ori	r25, 0x04	; 4
     4fc:	90 93 14 08 	sts	0x0814, r25	; 0x800814 <__TEXT_REGION_LENGTH__+0x700814>
		*data = TWI0.MDATA;
     500:	90 91 18 08 	lds	r25, 0x0818	; 0x800818 <__TEXT_REGION_LENGTH__+0x700818>
     504:	90 83       	st	Z, r25
		if (ack_flag == 0) TWI0.MCTRLB |= TWI_MCMD_RECVTRANS_gc;	// send ACK, more bytes to follow					
     506:	61 11       	cpse	r22, r1
     508:	09 c0       	rjmp	.+18     	; 0x51c <I2C_read+0x80>
     50a:	90 91 14 08 	lds	r25, 0x0814	; 0x800814 <__TEXT_REGION_LENGTH__+0x700814>
     50e:	92 60       	ori	r25, 0x02	; 2
     510:	90 93 14 08 	sts	0x0814, r25	; 0x800814 <__TEXT_REGION_LENGTH__+0x700814>
     514:	08 95       	ret
		while (!(TWI0.MSTATUS & TWI_RIF_bm))						// wait for RIF set (data byte received)
		{
			if (!(timeout_I2C)) return 0xff;			            // return timeout error
		}
		TWI0.MSTATUS |= (TWI_RIF_bm | TWI_WIF_bm);					// clear Read and Write interrupt flags	
		if (TWI0.MSTATUS & TWI_BUSERR_bm) return 4;					// Bus Error, abort
     516:	84 e0       	ldi	r24, 0x04	; 4
     518:	08 95       	ret
		if (TWI0.MSTATUS & TWI_ARBLOST_bm) return 2;				// Arbitration Lost, abort
		if (TWI0.MSTATUS & TWI_RXACK_bm) return 1;					// Slave replied with NACK, abort				
     51a:	81 e0       	ldi	r24, 0x01	; 1
		*data = TWI0.MDATA;
		if (ack_flag == 0) TWI0.MCTRLB |= TWI_MCMD_RECVTRANS_gc;	// send ACK, more bytes to follow					
		return 0;
	}
	else return 8;													// master does not control bus
}
     51c:	08 95       	ret

0000051e <I2C_write>:

uint8_t I2C_write(uint8_t *data)									// write data, return status
{
     51e:	fc 01       	movw	r30, r24
	timeout_I2C = WRITE_TIMEOUT;									// reset timeout counter, will be decremented by LED matrix interrupt
     520:	8c e0       	ldi	r24, 0x0C	; 12
     522:	80 93 60 3a 	sts	0x3A60, r24	; 0x803a60 <timeout_I2C>
	if ((TWI0.MSTATUS & TWI_BUSSTATE_gm) == TWI_BUSSTATE_OWNER_gc)	// if master controls bus
     526:	90 91 15 08 	lds	r25, 0x0815	; 0x800815 <__TEXT_REGION_LENGTH__+0x700815>
     52a:	93 70       	andi	r25, 0x03	; 3
     52c:	92 30       	cpi	r25, 0x02	; 2
     52e:	b1 f4       	brne	.+44     	; 0x55c <I2C_write+0x3e>
	{
		TWI0.MDATA = *data;		
     530:	80 81       	ld	r24, Z
     532:	80 93 18 08 	sts	0x0818, r24	; 0x800818 <__TEXT_REGION_LENGTH__+0x700818>
		while (!(TWI0.MSTATUS & TWI_WIF_bm))						// wait until WIF set, status register contains ACK/NACK bit
     536:	80 91 15 08 	lds	r24, 0x0815	; 0x800815 <__TEXT_REGION_LENGTH__+0x700815>
     53a:	86 fd       	sbrc	r24, 6
     53c:	06 c0       	rjmp	.+12     	; 0x54a <I2C_write+0x2c>
		{
			if (!(timeout_I2C)) return 0xff;			            // return timeout error
     53e:	80 91 60 3a 	lds	r24, 0x3A60	; 0x803a60 <timeout_I2C>
     542:	81 11       	cpse	r24, r1
     544:	f8 cf       	rjmp	.-16     	; 0x536 <I2C_write+0x18>
     546:	8f ef       	ldi	r24, 0xFF	; 255
     548:	08 95       	ret
		}
		if (TWI0.MSTATUS & TWI_BUSERR_bm) return 4;					// Bus Error, abort
     54a:	80 91 15 08 	lds	r24, 0x0815	; 0x800815 <__TEXT_REGION_LENGTH__+0x700815>
     54e:	82 fd       	sbrc	r24, 2
     550:	07 c0       	rjmp	.+14     	; 0x560 <I2C_write+0x42>
		if (TWI0.MSTATUS & TWI_RXACK_bm) return 1;					// Slave replied with NACK, abort
     552:	80 91 15 08 	lds	r24, 0x0815	; 0x800815 <__TEXT_REGION_LENGTH__+0x700815>
	if ((TWI0.MSTATUS & TWI_BUSSTATE_gm) == TWI_BUSSTATE_OWNER_gc)	// if master controls bus
	{
		TWI0.MDATA = *data;		
		while (!(TWI0.MSTATUS & TWI_WIF_bm))						// wait until WIF set, status register contains ACK/NACK bit
		{
			if (!(timeout_I2C)) return 0xff;			            // return timeout error
     556:	82 95       	swap	r24
     558:	81 70       	andi	r24, 0x01	; 1
     55a:	08 95       	ret
		}
		if (TWI0.MSTATUS & TWI_BUSERR_bm) return 4;					// Bus Error, abort
		if (TWI0.MSTATUS & TWI_RXACK_bm) return 1;					// Slave replied with NACK, abort
		return 0;													// no error	
	}
	else return 8;													// master does not control bus
     55c:	88 e0       	ldi	r24, 0x08	; 8
     55e:	08 95       	ret
		TWI0.MDATA = *data;		
		while (!(TWI0.MSTATUS & TWI_WIF_bm))						// wait until WIF set, status register contains ACK/NACK bit
		{
			if (!(timeout_I2C)) return 0xff;			            // return timeout error
		}
		if (TWI0.MSTATUS & TWI_BUSERR_bm) return 4;					// Bus Error, abort
     560:	84 e0       	ldi	r24, 0x04	; 4
		if (TWI0.MSTATUS & TWI_RXACK_bm) return 1;					// Slave replied with NACK, abort
		return 0;													// no error	
	}
	else return 8;													// master does not control bus
}
     562:	08 95       	ret

00000564 <I2C_stop>:

void I2C_stop()
{
	TWI0.MCTRLB |= TWI_MCMD_STOP_gc;
     564:	e0 e1       	ldi	r30, 0x10	; 16
     566:	f8 e0       	ldi	r31, 0x08	; 8
     568:	84 81       	ldd	r24, Z+4	; 0x04
     56a:	83 60       	ori	r24, 0x03	; 3
     56c:	84 83       	std	Z+4, r24	; 0x04
     56e:	08 95       	ret

00000570 <I2C_read_bytes>:
// addr_ptr		address of first array element to transfer
// slave reg	starting slave register
// num_bytes	number of bytes to transfer

uint8_t	I2C_read_bytes(uint8_t slave_addr, uint8_t *reg_ptr, uint8_t reg_len, uint8_t *dat_ptr, uint8_t dat_len)
{
     570:	cf 92       	push	r12
     572:	df 92       	push	r13
     574:	ff 92       	push	r15
     576:	0f 93       	push	r16
     578:	1f 93       	push	r17
     57a:	cf 93       	push	r28
     57c:	df 93       	push	r29
     57e:	6b 01       	movw	r12, r22
     580:	f4 2e       	mov	r15, r20
     582:	e9 01       	movw	r28, r18
	uint8_t status;
	if (dat_len > MAX_LEN) dat_len = MAX_LEN;
	status = I2C_start(slave_addr << 1);							// slave write address, LSB 0
     584:	18 2f       	mov	r17, r24
     586:	11 0f       	add	r17, r17
     588:	81 2f       	mov	r24, r17
     58a:	50 df       	rcall	.-352    	; 0x42c <I2C_start>
	if (status != 0) goto error;
     58c:	81 11       	cpse	r24, r1
	status = I2C_wait_ACK();										// wait for slave ACK
     58e:	2b c0       	rjmp	.+86     	; 0x5e6 <I2C_read_bytes+0x76>
     590:	5e df       	rcall	.-324    	; 0x44e <I2C_wait_ACK>
	if (status == 1) {
     592:	81 30       	cpi	r24, 0x01	; 1
		I2C_stop();													// NACK, abort
     594:	19 f4       	brne	.+6      	; 0x59c <I2C_read_bytes+0x2c>
     596:	e6 df       	rcall	.-52     	; 0x564 <I2C_stop>
		return 1;
     598:	81 e0       	ldi	r24, 0x01	; 1
     59a:	27 c0       	rjmp	.+78     	; 0x5ea <I2C_read_bytes+0x7a>
	}
	if (status != 0) goto error;
     59c:	81 11       	cpse	r24, r1
     59e:	23 c0       	rjmp	.+70     	; 0x5e6 <I2C_read_bytes+0x76>
    while(reg_len > 0){
     5a0:	ff 20       	and	r15, r15
	    status = I2C_write(reg_ptr);    							// send slave start register
     5a2:	49 f0       	breq	.+18     	; 0x5b6 <I2C_read_bytes+0x46>
     5a4:	c6 01       	movw	r24, r12
     5a6:	bb df       	rcall	.-138    	; 0x51e <I2C_write>
	    if (status != 0) goto error;
     5a8:	81 11       	cpse	r24, r1
     5aa:	1d c0       	rjmp	.+58     	; 0x5e6 <I2C_read_bytes+0x76>
        ++reg_ptr;
     5ac:	8f ef       	ldi	r24, 0xFF	; 255
     5ae:	c8 1a       	sub	r12, r24
     5b0:	d8 0a       	sbc	r13, r24
        --reg_len;
     5b2:	fa 94       	dec	r15
     5b4:	f5 cf       	rjmp	.-22     	; 0x5a0 <I2C_read_bytes+0x30>
     5b6:	01 34       	cpi	r16, 0x41	; 65
     5b8:	08 f0       	brcs	.+2      	; 0x5bc <I2C_read_bytes+0x4c>
     5ba:	00 e4       	ldi	r16, 0x40	; 64
    }
	I2C_rep_start((slave_addr << 1) + 1);							// slave read address, LSB 1
     5bc:	1f 5f       	subi	r17, 0xFF	; 255
// the Atmel device documentation mentions a special command for repeated start TWI_MCMD_REPSTART_gc,
// but this is not used in Atmel's demo code, so we don't use it either

void I2C_rep_start(uint8_t shifted_addr)						    // send repeated start, device_addr + LSB set if READ
{
	TWI0.MADDR = shifted_addr;	
     5be:	10 93 17 08 	sts	0x0817, r17	; 0x800817 <__TEXT_REGION_LENGTH__+0x700817>
	    if (status != 0) goto error;
        ++reg_ptr;
        --reg_len;
    }
	I2C_rep_start((slave_addr << 1) + 1);							// slave read address, LSB 1
	while (dat_len > 1) {
     5c2:	02 30       	cpi	r16, 0x02	; 2
		status = I2C_read(dat_ptr, 0);								// first bytes, send ACK
     5c4:	40 f0       	brcs	.+16     	; 0x5d6 <I2C_read_bytes+0x66>
     5c6:	60 e0       	ldi	r22, 0x00	; 0
     5c8:	ce 01       	movw	r24, r28
     5ca:	68 df       	rcall	.-304    	; 0x49c <I2C_read>
		if (status != 0) goto error;
     5cc:	81 11       	cpse	r24, r1
     5ce:	0b c0       	rjmp	.+22     	; 0x5e6 <I2C_read_bytes+0x76>
		++dat_ptr;
		--dat_len;
     5d0:	21 96       	adiw	r28, 0x01	; 1
     5d2:	01 50       	subi	r16, 0x01	; 1
	}
	status = I2C_read(dat_ptr, 1);									// single or last byte, send NACK
     5d4:	f6 cf       	rjmp	.-20     	; 0x5c2 <I2C_read_bytes+0x52>
     5d6:	61 e0       	ldi	r22, 0x01	; 1
     5d8:	ce 01       	movw	r24, r28
	if (status != 0) goto error;
     5da:	60 df       	rcall	.-320    	; 0x49c <I2C_read>
     5dc:	81 11       	cpse	r24, r1
	I2C_stop();
     5de:	03 c0       	rjmp	.+6      	; 0x5e6 <I2C_read_bytes+0x76>
     5e0:	c1 df       	rcall	.-126    	; 0x564 <I2C_stop>
	return 0;
     5e2:	80 e0       	ldi	r24, 0x00	; 0
     5e4:	02 c0       	rjmp	.+4      	; 0x5ea <I2C_read_bytes+0x7a>
	
error:
	I2C_recover();													// clock out possibly stuck slave, reset master
     5e6:	e4 de       	rcall	.-568    	; 0x3b0 <I2C_recover>
     5e8:	8f ef       	ldi	r24, 0xFF	; 255
	return 0xff;													// flag error
     5ea:	df 91       	pop	r29
}
     5ec:	cf 91       	pop	r28
     5ee:	1f 91       	pop	r17
     5f0:	0f 91       	pop	r16
     5f2:	ff 90       	pop	r15
     5f4:	df 90       	pop	r13
     5f6:	cf 90       	pop	r12
     5f8:	08 95       	ret

000005fa <initLanyard>:
uint8_t         lastButtonState = 0xff;
uint8_t         digit = 0xff;
uint16_t        lanyardLastActive = 0;

void initLanyard() {
    lanyardPos      = 0;
     5fa:	10 92 36 38 	sts	0x3836, r1	; 0x803836 <lanyardPos>
    lanyardCnt      = 0;
     5fe:	10 92 35 38 	sts	0x3835, r1	; 0x803835 <lanyardCnt>
    lanyardState    = TRUE;
     602:	81 e0       	ldi	r24, 0x01	; 1
     604:	80 93 04 38 	sts	0x3804, r24	; 0x803804 <lanyardState>
    lastButtonState = 0xff;
     608:	8f ef       	ldi	r24, 0xFF	; 255
     60a:	80 93 03 38 	sts	0x3803, r24	; 0x803803 <lastButtonState>
    iLED[CAT]       = 0;
     60e:	e0 91 f2 bf 	lds	r30, 0xBFF2	; 0x80bff2 <__bss_end+0x84d8>
     612:	f0 e0       	ldi	r31, 0x00	; 0
     614:	e6 53       	subi	r30, 0x36	; 54
     616:	f5 4c       	sbci	r31, 0xC5	; 197
     618:	10 82       	st	Z, r1
    iLED[EYE[G][L]] = 0;
     61a:	e0 91 03 c0 	lds	r30, 0xC003	; 0x80c003 <__bss_end+0x84e9>
     61e:	f0 e0       	ldi	r31, 0x00	; 0
     620:	e6 53       	subi	r30, 0x36	; 54
     622:	f5 4c       	sbci	r31, 0xC5	; 197
     624:	10 82       	st	Z, r1
    iLED[EYE[G][R]] = 0;
     626:	e0 91 02 c0 	lds	r30, 0xC002	; 0x80c002 <__bss_end+0x84e8>
     62a:	f0 e0       	ldi	r31, 0x00	; 0
     62c:	e6 53       	subi	r30, 0x36	; 54
     62e:	f5 4c       	sbci	r31, 0xC5	; 197
     630:	10 82       	st	Z, r1
    iLED[EYE[R][L]] = 0;
     632:	e0 91 01 c0 	lds	r30, 0xC001	; 0x80c001 <__bss_end+0x84e7>
     636:	f0 e0       	ldi	r31, 0x00	; 0
     638:	e6 53       	subi	r30, 0x36	; 54
     63a:	f5 4c       	sbci	r31, 0xC5	; 197
     63c:	10 82       	st	Z, r1
    iLED[EYE[R][R]] = 0;
     63e:	e0 91 00 c0 	lds	r30, 0xC000	; 0x80c000 <__bss_end+0x84e6>
     642:	f0 e0       	ldi	r31, 0x00	; 0
     644:	e6 53       	subi	r30, 0x36	; 54
     646:	f5 4c       	sbci	r31, 0xC5	; 197
     648:	10 82       	st	Z, r1
     64a:	aa e0       	ldi	r26, 0x0A	; 10
     64c:	b0 ec       	ldi	r27, 0xC0	; 192
    for (int i=0; i<6; i++ )
        iLED[HCKR[G][i]] = 0;
     64e:	ed 91       	ld	r30, X+
     650:	f0 e0       	ldi	r31, 0x00	; 0
     652:	e6 53       	subi	r30, 0x36	; 54
     654:	f5 4c       	sbci	r31, 0xC5	; 197
     656:	10 82       	st	Z, r1
    iLED[CAT]       = 0;
    iLED[EYE[G][L]] = 0;
    iLED[EYE[G][R]] = 0;
    iLED[EYE[R][L]] = 0;
    iLED[EYE[R][R]] = 0;
    for (int i=0; i<6; i++ )
     658:	80 ec       	ldi	r24, 0xC0	; 192
     65a:	a0 31       	cpi	r26, 0x10	; 16
     65c:	b8 07       	cpc	r27, r24
     65e:	b9 f7       	brne	.-18     	; 0x64e <initLanyard+0x54>
        iLED[HCKR[G][i]] = 0;
}
     660:	08 95       	ret

00000662 <LanyardCode>:

// Main game loop
uint8_t LanyardCode(){
     662:	cf 93       	push	r28
    if (gameNow == LANYARD && idleTimeout(lanyardLastActive,LANYARD_MAX_IDLE)) {
     664:	80 91 3c 38 	lds	r24, 0x383C	; 0x80383c <gameNow>
     668:	83 30       	cpi	r24, 0x03	; 3
     66a:	91 f4       	brne	.+36     	; 0x690 <LanyardCode+0x2e>
     66c:	6a e0       	ldi	r22, 0x0A	; 10
     66e:	70 e0       	ldi	r23, 0x00	; 0
     670:	80 91 33 38 	lds	r24, 0x3833	; 0x803833 <lanyardLastActive>
     674:	90 91 34 38 	lds	r25, 0x3834	; 0x803834 <lanyardLastActive+0x1>
     678:	0e 94 e8 0d 	call	0x1bd0	; 0x1bd0 <idleTimeout>
     67c:	88 23       	and	r24, r24
     67e:	41 f0       	breq	.+16     	; 0x690 <LanyardCode+0x2e>
        /* clean up maze game and go back to text game */
        initLanyard();
     680:	bc df       	rcall	.-136    	; 0x5fa <initLanyard>
        gameNow = TEXT;
     682:	10 92 3c 38 	sts	0x383C, r1	; 0x80383c <gameNow>
        effect = 0;
     686:	10 92 3a 38 	sts	0x383A, r1	; 0x80383a <effect>
     68a:	10 92 3b 38 	sts	0x383B, r1	; 0x80383b <effect+0x1>
        return 0;
     68e:	c6 c0       	rjmp	.+396    	; 0x81c <LanyardCode+0x1ba>
    }

    if (CheckState(LANYARD_COMPLETED))
     690:	8b e7       	ldi	r24, 0x7B	; 123
     692:	88 d7       	rcall	.+3856   	; 0x15a4 <CheckState>
     694:	81 11       	cpse	r24, r1
     696:	c2 c0       	rjmp	.+388    	; 0x81c <LanyardCode+0x1ba>
        return 0;

    if ( gameNow != TEXT && gameNow != LANYARD )
     698:	80 91 3c 38 	lds	r24, 0x383C	; 0x80383c <gameNow>
     69c:	88 23       	and	r24, r24
     69e:	19 f0       	breq	.+6      	; 0x6a6 <LanyardCode+0x44>
     6a0:	83 30       	cpi	r24, 0x03	; 3
     6a2:	09 f0       	breq	.+2      	; 0x6a6 <LanyardCode+0x44>
     6a4:	bb c0       	rjmp	.+374    	; 0x81c <LanyardCode+0x1ba>
        return 0;

    if ( (buttonState & 0xf0) == 0)
     6a6:	90 91 09 38 	lds	r25, 0x3809	; 0x803809 <buttonState>
     6aa:	89 2f       	mov	r24, r25
     6ac:	80 7f       	andi	r24, 0xF0	; 240
     6ae:	09 f4       	brne	.+2      	; 0x6b2 <LanyardCode+0x50>
     6b0:	b5 c0       	rjmp	.+362    	; 0x81c <LanyardCode+0x1ba>
        return 0;

    /* activate led for buttonstate */
    iLED[CAT] = (buttonState==0xff ? 0 : dimValue);
     6b2:	c0 91 f2 bf 	lds	r28, 0xBFF2	; 0x80bff2 <__bss_end+0x84d8>
     6b6:	ec 2f       	mov	r30, r28
     6b8:	f0 e0       	ldi	r31, 0x00	; 0
     6ba:	9f 3f       	cpi	r25, 0xFF	; 255
     6bc:	19 f0       	breq	.+6      	; 0x6c4 <LanyardCode+0x62>
     6be:	80 91 0b 38 	lds	r24, 0x380B	; 0x80380b <dimValue>
     6c2:	01 c0       	rjmp	.+2      	; 0x6c6 <LanyardCode+0x64>
     6c4:	80 e0       	ldi	r24, 0x00	; 0
     6c6:	e6 53       	subi	r30, 0x36	; 54
     6c8:	f5 4c       	sbci	r31, 0xC5	; 197
     6ca:	80 83       	st	Z, r24

    if ((buttonState&0x0f) == (lastButtonState&0x0f))
     6cc:	80 91 03 38 	lds	r24, 0x3803	; 0x803803 <lastButtonState>
     6d0:	89 27       	eor	r24, r25
     6d2:	8f 70       	andi	r24, 0x0F	; 15
     6d4:	09 f4       	brne	.+2      	; 0x6d8 <LanyardCode+0x76>
     6d6:	a2 c0       	rjmp	.+324    	; 0x81c <LanyardCode+0x1ba>
        return 0;

    lanyardLastActive = getClock();
     6d8:	0e 94 d9 0d 	call	0x1bb2	; 0x1bb2 <getClock>
     6dc:	80 93 33 38 	sts	0x3833, r24	; 0x803833 <lanyardLastActive>
     6e0:	90 93 34 38 	sts	0x3834, r25	; 0x803834 <lanyardLastActive+0x1>

    if (lastButtonState == 0xff){
     6e4:	80 91 03 38 	lds	r24, 0x3803	; 0x803803 <lastButtonState>
     6e8:	8f 3f       	cpi	r24, 0xFF	; 255
     6ea:	09 f0       	breq	.+2      	; 0x6ee <LanyardCode+0x8c>
     6ec:	93 c0       	rjmp	.+294    	; 0x814 <LanyardCode+0x1b2>
        switch (buttonState & 0x0f) {
     6ee:	80 91 09 38 	lds	r24, 0x3809	; 0x803809 <buttonState>
     6f2:	8f 70       	andi	r24, 0x0F	; 15
     6f4:	82 30       	cpi	r24, 0x02	; 2
     6f6:	c1 f0       	breq	.+48     	; 0x728 <LanyardCode+0xc6>
     6f8:	58 f4       	brcc	.+22     	; 0x710 <LanyardCode+0xae>
     6fa:	81 30       	cpi	r24, 0x01	; 1
     6fc:	29 f5       	brne	.+74     	; 0x748 <LanyardCode+0xe6>
            case 0b0001:
                effect = 0x19f;
     6fe:	8f e9       	ldi	r24, 0x9F	; 159
     700:	91 e0       	ldi	r25, 0x01	; 1
     702:	80 93 3a 38 	sts	0x383A, r24	; 0x80383a <effect>
     706:	90 93 3b 38 	sts	0x383B, r25	; 0x80383b <effect+0x1>
                digit = 0;
     70a:	10 92 02 38 	sts	0x3802, r1	; 0x803802 <digit>
                break;
     70e:	1f c0       	rjmp	.+62     	; 0x74e <LanyardCode+0xec>
        return 0;

    lanyardLastActive = getClock();

    if (lastButtonState == 0xff){
        switch (buttonState & 0x0f) {
     710:	84 30       	cpi	r24, 0x04	; 4
     712:	91 f0       	breq	.+36     	; 0x738 <LanyardCode+0xd6>
     714:	88 30       	cpi	r24, 0x08	; 8
     716:	c1 f4       	brne	.+48     	; 0x748 <LanyardCode+0xe6>
                effect = 0x13f;
                digit = 3;
                break;

            case 0b1000:
                effect = 0x15f;
     718:	8f e5       	ldi	r24, 0x5F	; 95
     71a:	91 e0       	ldi	r25, 0x01	; 1
     71c:	80 93 3a 38 	sts	0x383A, r24	; 0x80383a <effect>
     720:	90 93 3b 38 	sts	0x383B, r25	; 0x80383b <effect+0x1>
                digit = 2;
     724:	82 e0       	ldi	r24, 0x02	; 2
     726:	11 c0       	rjmp	.+34     	; 0x74a <LanyardCode+0xe8>
                effect = 0x19f;
                digit = 0;
                break;

            case 0b0010:
                effect = 0x17f;
     728:	8f e7       	ldi	r24, 0x7F	; 127
     72a:	91 e0       	ldi	r25, 0x01	; 1
     72c:	80 93 3a 38 	sts	0x383A, r24	; 0x80383a <effect>
     730:	90 93 3b 38 	sts	0x383B, r25	; 0x80383b <effect+0x1>
                digit = 1;
     734:	81 e0       	ldi	r24, 0x01	; 1
     736:	09 c0       	rjmp	.+18     	; 0x74a <LanyardCode+0xe8>
                break;

            case 0b0100:
                effect = 0x13f;
     738:	8f e3       	ldi	r24, 0x3F	; 63
     73a:	91 e0       	ldi	r25, 0x01	; 1
     73c:	80 93 3a 38 	sts	0x383A, r24	; 0x80383a <effect>
     740:	90 93 3b 38 	sts	0x383B, r25	; 0x80383b <effect+0x1>
                digit = 3;
     744:	83 e0       	ldi	r24, 0x03	; 3
     746:	01 c0       	rjmp	.+2      	; 0x74a <LanyardCode+0xe8>
                effect = 0x15f;
                digit = 2;
                break;

            default:
                digit = 0xff;
     748:	8f ef       	ldi	r24, 0xFF	; 255
     74a:	80 93 02 38 	sts	0x3802, r24	; 0x803802 <digit>
                break;
        }
        gameNow = LANYARD;
     74e:	83 e0       	ldi	r24, 0x03	; 3
     750:	80 93 3c 38 	sts	0x383C, r24	; 0x80383c <gameNow>
        /* TODO play tone for button */

        if (digit == lanyardCode[lanyardPos]) {
     754:	80 91 36 38 	lds	r24, 0x3836	; 0x803836 <lanyardPos>
     758:	e8 2f       	mov	r30, r24
     75a:	f0 e0       	ldi	r31, 0x00	; 0
     75c:	e6 52       	subi	r30, 0x26	; 38
     75e:	f0 44       	sbci	r31, 0x40	; 64
     760:	20 81       	ld	r18, Z
     762:	90 91 02 38 	lds	r25, 0x3802	; 0x803802 <digit>
     766:	29 13       	cpse	r18, r25
     768:	12 c0       	rjmp	.+36     	; 0x78e <LanyardCode+0x12c>
            lanyardState &= TRUE;
     76a:	90 91 04 38 	lds	r25, 0x3804	; 0x803804 <lanyardState>
     76e:	91 70       	andi	r25, 0x01	; 1
     770:	90 93 04 38 	sts	0x3804, r25	; 0x803804 <lanyardState>
            iLED[EYE[R][L]] = 0;
     774:	e0 91 01 c0 	lds	r30, 0xC001	; 0x80c001 <__bss_end+0x84e7>
     778:	f0 e0       	ldi	r31, 0x00	; 0
     77a:	e6 53       	subi	r30, 0x36	; 54
     77c:	f5 4c       	sbci	r31, 0xC5	; 197
     77e:	10 82       	st	Z, r1
            iLED[EYE[R][R]] = 0;
     780:	e0 91 00 c0 	lds	r30, 0xC000	; 0x80c000 <__bss_end+0x84e6>
     784:	f0 e0       	ldi	r31, 0x00	; 0
     786:	e6 53       	subi	r30, 0x36	; 54
     788:	f5 4c       	sbci	r31, 0xC5	; 197
     78a:	10 82       	st	Z, r1
     78c:	09 c0       	rjmp	.+18     	; 0x7a0 <LanyardCode+0x13e>
        } else {
            lanyardState = FALSE;
     78e:	10 92 04 38 	sts	0x3804, r1	; 0x803804 <lanyardState>
            if (lanyardPos < 4 ) {
     792:	84 30       	cpi	r24, 0x04	; 4
                initLanyard();
     794:	28 f4       	brcc	.+10     	; 0x7a0 <LanyardCode+0x13e>
     796:	31 df       	rcall	.-414    	; 0x5fa <initLanyard>
                gameNow         = BASTET;
     798:	82 e0       	ldi	r24, 0x02	; 2
     79a:	80 93 3c 38 	sts	0x383C, r24	; 0x80383c <gameNow>
                return 0;
     79e:	3e c0       	rjmp	.+124    	; 0x81c <LanyardCode+0x1ba>
            }
        }
        lanyardPos++;
     7a0:	8f 5f       	subi	r24, 0xFF	; 255
     7a2:	80 93 36 38 	sts	0x3836, r24	; 0x803836 <lanyardPos>
        lanyardCnt++;            
     7a6:	90 91 35 38 	lds	r25, 0x3835	; 0x803835 <lanyardCnt>
     7aa:	9f 5f       	subi	r25, 0xFF	; 255
        if (lanyardCnt >= 4) {
     7ac:	94 30       	cpi	r25, 0x04	; 4
     7ae:	18 f4       	brcc	.+6      	; 0x7b6 <LanyardCode+0x154>
                gameNow         = BASTET;
                return 0;
            }
        }
        lanyardPos++;
        lanyardCnt++;            
     7b0:	90 93 35 38 	sts	0x3835, r25	; 0x803835 <lanyardCnt>
     7b4:	2f c0       	rjmp	.+94     	; 0x814 <LanyardCode+0x1b2>
        if (lanyardCnt >= 4) {
            lanyardCnt = 0;
     7b6:	10 92 35 38 	sts	0x3835, r1	; 0x803835 <lanyardCnt>
            if (lanyardState == TRUE) {
     7ba:	90 91 04 38 	lds	r25, 0x3804	; 0x803804 <lanyardState>
     7be:	91 30       	cpi	r25, 0x01	; 1
     7c0:	11 f5       	brne	.+68     	; 0x806 <LanyardCode+0x1a4>
                if ((lanyardPos % 4) == 0) {
     7c2:	98 2f       	mov	r25, r24
     7c4:	93 70       	andi	r25, 0x03	; 3
     7c6:	99 f4       	brne	.+38     	; 0x7ee <LanyardCode+0x18c>
                    iLED[HCKR[G][(lanyardPos>>2)-1]] = dimValue;
     7c8:	e8 2f       	mov	r30, r24
     7ca:	e6 95       	lsr	r30
     7cc:	e6 95       	lsr	r30
     7ce:	f0 e0       	ldi	r31, 0x00	; 0
     7d0:	ec 5f       	subi	r30, 0xFC	; 252
     7d2:	ff 43       	sbci	r31, 0x3F	; 63
     7d4:	e5 81       	ldd	r30, Z+5	; 0x05
     7d6:	f0 e0       	ldi	r31, 0x00	; 0
     7d8:	90 91 0b 38 	lds	r25, 0x380B	; 0x80380b <dimValue>
     7dc:	e6 53       	subi	r30, 0x36	; 54
     7de:	f5 4c       	sbci	r31, 0xC5	; 197
     7e0:	90 83       	st	Z, r25
                    effect = 0x5f;
     7e2:	2f e5       	ldi	r18, 0x5F	; 95
     7e4:	30 e0       	ldi	r19, 0x00	; 0
     7e6:	20 93 3a 38 	sts	0x383A, r18	; 0x80383a <effect>
     7ea:	30 93 3b 38 	sts	0x383B, r19	; 0x80383b <effect+0x1>
                }
                if (lanyardPos == sizeof(lanyardCode)) {
     7ee:	88 31       	cpi	r24, 0x18	; 24
                    UpdateState(LANYARD_COMPLETED);
     7f0:	89 f4       	brne	.+34     	; 0x814 <LanyardCode+0x1b2>
     7f2:	8b e7       	ldi	r24, 0x7B	; 123
     7f4:	cd d6       	rcall	.+3482   	; 0x1590 <UpdateState>
                    iLED[CAT]       = 0;
     7f6:	ec 2f       	mov	r30, r28
     7f8:	f0 e0       	ldi	r31, 0x00	; 0
     7fa:	e6 53       	subi	r30, 0x36	; 54
     7fc:	f5 4c       	sbci	r31, 0xC5	; 197
                    effect = 0x42;
     7fe:	10 82       	st	Z, r1
     800:	82 e4       	ldi	r24, 0x42	; 66
     802:	90 e0       	ldi	r25, 0x00	; 0
                    /*TODO state = STATE_MUSIC;*/
                }
            } else {
                initLanyard();
     804:	03 c0       	rjmp	.+6      	; 0x80c <LanyardCode+0x1aa>
     806:	f9 de       	rcall	.-526    	; 0x5fa <initLanyard>
                effect = 0x21;
     808:	81 e2       	ldi	r24, 0x21	; 33
     80a:	90 e0       	ldi	r25, 0x00	; 0
     80c:	80 93 3a 38 	sts	0x383A, r24	; 0x80383a <effect>
     810:	90 93 3b 38 	sts	0x383B, r25	; 0x80383b <effect+0x1>
            }
        }
    }

    lastButtonState = buttonState;
     814:	80 91 09 38 	lds	r24, 0x3809	; 0x803809 <buttonState>
     818:	80 93 03 38 	sts	0x3803, r24	; 0x803803 <lastButtonState>
    return 0;
}
     81c:	80 e0       	ldi	r24, 0x00	; 0
     81e:	cf 91       	pop	r28
     820:	08 95       	ret

00000822 <initMaze>:
uint8_t         mazeState = TRUE;
uint8_t         inverted  = FALSE;
uint16_t        mazeLastActive = 0;

void initMaze() {
    mazeHckrPos = 0;
     822:	10 92 49 38 	sts	0x3849, r1	; 0x803849 <mazeHckrPos>
    mazePos = 0;
     826:	10 92 4a 38 	sts	0x384A, r1	; 0x80384a <mazePos>
    mazeCnt = 0;
     82a:	10 92 48 38 	sts	0x3848, r1	; 0x803848 <mazeCnt>
    mazeState = TRUE;
     82e:	81 e0       	ldi	r24, 0x01	; 1
     830:	80 93 0c 38 	sts	0x380C, r24	; 0x80380c <mazeState>
    inverted  = FALSE;
     834:	10 92 47 38 	sts	0x3847, r1	; 0x803847 <inverted>
    iLED[CAT]       = 0;
     838:	e0 91 f2 bf 	lds	r30, 0xBFF2	; 0x80bff2 <__bss_end+0x84d8>
     83c:	f0 e0       	ldi	r31, 0x00	; 0
     83e:	e6 53       	subi	r30, 0x36	; 54
     840:	f5 4c       	sbci	r31, 0xC5	; 197
     842:	10 82       	st	Z, r1
    iLED[EYE[G][L]] = 0;
     844:	e0 91 03 c0 	lds	r30, 0xC003	; 0x80c003 <__bss_end+0x84e9>
     848:	f0 e0       	ldi	r31, 0x00	; 0
     84a:	e6 53       	subi	r30, 0x36	; 54
     84c:	f5 4c       	sbci	r31, 0xC5	; 197
     84e:	10 82       	st	Z, r1
    iLED[EYE[G][R]] = 0;
     850:	e0 91 02 c0 	lds	r30, 0xC002	; 0x80c002 <__bss_end+0x84e8>
     854:	f0 e0       	ldi	r31, 0x00	; 0
     856:	e6 53       	subi	r30, 0x36	; 54
     858:	f5 4c       	sbci	r31, 0xC5	; 197
     85a:	10 82       	st	Z, r1
    iLED[EYE[R][L]] = 0;
     85c:	e0 91 01 c0 	lds	r30, 0xC001	; 0x80c001 <__bss_end+0x84e7>
     860:	f0 e0       	ldi	r31, 0x00	; 0
     862:	e6 53       	subi	r30, 0x36	; 54
     864:	f5 4c       	sbci	r31, 0xC5	; 197
     866:	10 82       	st	Z, r1
    iLED[EYE[R][R]] = 0;
     868:	e0 91 00 c0 	lds	r30, 0xC000	; 0x80c000 <__bss_end+0x84e6>
     86c:	f0 e0       	ldi	r31, 0x00	; 0
     86e:	e6 53       	subi	r30, 0x36	; 54
     870:	f5 4c       	sbci	r31, 0xC5	; 197
     872:	10 82       	st	Z, r1
     874:	aa e0       	ldi	r26, 0x0A	; 10
     876:	b0 ec       	ldi	r27, 0xC0	; 192
    for (int i=0; i<6; i++ )
        iLED[HCKR[G][i]] = 0;
     878:	ed 91       	ld	r30, X+
     87a:	f0 e0       	ldi	r31, 0x00	; 0
     87c:	e6 53       	subi	r30, 0x36	; 54
     87e:	f5 4c       	sbci	r31, 0xC5	; 197
     880:	10 82       	st	Z, r1
    iLED[CAT]       = 0;
    iLED[EYE[G][L]] = 0;
    iLED[EYE[G][R]] = 0;
    iLED[EYE[R][L]] = 0;
    iLED[EYE[R][R]] = 0;
    for (int i=0; i<6; i++ )
     882:	80 ec       	ldi	r24, 0xC0	; 192
     884:	a0 31       	cpi	r26, 0x10	; 16
     886:	b8 07       	cpc	r27, r24
     888:	b9 f7       	brne	.-18     	; 0x878 <initMaze+0x56>
        iLED[HCKR[G][i]] = 0;
}
     88a:	08 95       	ret

0000088c <showFieldStrength>:

void showFieldStrength(int16_t val) {
    int16_t tmp;

    tmp = abs(val);
     88c:	97 ff       	sbrs	r25, 7
     88e:	03 c0       	rjmp	.+6      	; 0x896 <showFieldStrength+0xa>
     890:	91 95       	neg	r25
     892:	81 95       	neg	r24
     894:	91 09       	sbc	r25, r1

    if ( tmp*2 > HALL_LOW )
     896:	9c 01       	movw	r18, r24
     898:	22 0f       	add	r18, r18
     89a:	33 1f       	adc	r19, r19
     89c:	29 37       	cpi	r18, 0x79	; 121
     89e:	31 05       	cpc	r19, r1
     8a0:	1c f0       	brlt	.+6      	; 0x8a8 <showFieldStrength+0x1c>
        gameNow = MAZE;
     8a2:	41 e0       	ldi	r20, 0x01	; 1
     8a4:	40 93 3c 38 	sts	0x383C, r20	; 0x80383c <gameNow>

    if (gameNow == MAZE) {
     8a8:	40 91 3c 38 	lds	r20, 0x383C	; 0x80383c <gameNow>
     8ac:	41 30       	cpi	r20, 0x01	; 1
     8ae:	21 f5       	brne	.+72     	; 0x8f8 <showFieldStrength+0x6c>
        if ( tmp*2 < HALL_LOW )
     8b0:	28 37       	cpi	r18, 0x78	; 120
     8b2:	31 05       	cpc	r19, r1
     8b4:	1c f4       	brge	.+6      	; 0x8bc <showFieldStrength+0x30>
            WingBar(0,0);
     8b6:	60 e0       	ldi	r22, 0x00	; 0
     8b8:	80 e0       	ldi	r24, 0x00	; 0
     8ba:	1d c0       	rjmp	.+58     	; 0x8f6 <showFieldStrength+0x6a>
        else if ( tmp   < HALL_LOW )
     8bc:	88 37       	cpi	r24, 0x78	; 120
     8be:	91 05       	cpc	r25, r1
     8c0:	1c f4       	brge	.+6      	; 0x8c8 <showFieldStrength+0x3c>
            WingBar(1,1);
     8c2:	61 e0       	ldi	r22, 0x01	; 1
     8c4:	81 e0       	ldi	r24, 0x01	; 1
     8c6:	17 c0       	rjmp	.+46     	; 0x8f6 <showFieldStrength+0x6a>
        else if ( tmp*2 < HALL_HIGH )
     8c8:	2c 32       	cpi	r18, 0x2C	; 44
     8ca:	41 e0       	ldi	r20, 0x01	; 1
     8cc:	34 07       	cpc	r19, r20
     8ce:	1c f4       	brge	.+6      	; 0x8d6 <showFieldStrength+0x4a>
            WingBar(2,2);
     8d0:	62 e0       	ldi	r22, 0x02	; 2
     8d2:	82 e0       	ldi	r24, 0x02	; 2
     8d4:	10 c0       	rjmp	.+32     	; 0x8f6 <showFieldStrength+0x6a>
        else if ( tmp*3 < HALL_HIGH*2 )
     8d6:	28 0f       	add	r18, r24
     8d8:	39 1f       	adc	r19, r25
     8da:	28 35       	cpi	r18, 0x58	; 88
     8dc:	32 40       	sbci	r19, 0x02	; 2
     8de:	1c f4       	brge	.+6      	; 0x8e6 <showFieldStrength+0x5a>
            WingBar(3,3);
     8e0:	63 e0       	ldi	r22, 0x03	; 3
     8e2:	83 e0       	ldi	r24, 0x03	; 3
     8e4:	08 c0       	rjmp	.+16     	; 0x8f6 <showFieldStrength+0x6a>
        else if ( tmp   < HALL_HIGH )
     8e6:	8c 32       	cpi	r24, 0x2C	; 44
     8e8:	91 40       	sbci	r25, 0x01	; 1
     8ea:	1c f4       	brge	.+6      	; 0x8f2 <showFieldStrength+0x66>
            WingBar(4,4);
     8ec:	64 e0       	ldi	r22, 0x04	; 4
     8ee:	84 e0       	ldi	r24, 0x04	; 4
     8f0:	02 c0       	rjmp	.+4      	; 0x8f6 <showFieldStrength+0x6a>
        else
            WingBar(5,5);
     8f2:	65 e0       	ldi	r22, 0x05	; 5
     8f4:	85 e0       	ldi	r24, 0x05	; 5
     8f6:	2f c7       	rjmp	.+3678   	; 0x1756 <WingBar>
     8f8:	08 95       	ret

000008fa <MagnetMaze>:
    }
}

// Main game loop
uint8_t MagnetMaze(){
     8fa:	cf 93       	push	r28
     8fc:	df 93       	push	r29
    if (gameNow == MAZE && idleTimeout(mazeLastActive,MAZE_MAX_IDLE)) {
     8fe:	80 91 3c 38 	lds	r24, 0x383C	; 0x80383c <gameNow>
     902:	81 30       	cpi	r24, 0x01	; 1
     904:	71 f4       	brne	.+28     	; 0x922 <MagnetMaze+0x28>
     906:	6a e0       	ldi	r22, 0x0A	; 10
     908:	70 e0       	ldi	r23, 0x00	; 0
     90a:	80 91 45 38 	lds	r24, 0x3845	; 0x803845 <mazeLastActive>
     90e:	90 91 46 38 	lds	r25, 0x3846	; 0x803846 <mazeLastActive+0x1>
     912:	0e 94 e8 0d 	call	0x1bd0	; 0x1bd0 <idleTimeout>
     916:	88 23       	and	r24, r24
     918:	21 f0       	breq	.+8      	; 0x922 <MagnetMaze+0x28>
        /* clean up maze game and go back to text game */
        initMaze();
     91a:	83 df       	rcall	.-250    	; 0x822 <initMaze>
        gameNow = TEXT;
     91c:	10 92 3c 38 	sts	0x383C, r1	; 0x80383c <gameNow>
        return 0;
     920:	f4 c0       	rjmp	.+488    	; 0xb0a <MagnetMaze+0x210>
    }
        
    if (CheckState(MAZE_INACTIVE))
     922:	87 ef       	ldi	r24, 0xF7	; 247
     924:	3f d6       	rcall	.+3198   	; 0x15a4 <CheckState>
     926:	81 11       	cpse	r24, r1
     928:	f0 c0       	rjmp	.+480    	; 0xb0a <MagnetMaze+0x210>
        return 0;

    if (CheckState(MAZE_COMPLETED))
     92a:	8d e7       	ldi	r24, 0x7D	; 125
     92c:	3b d6       	rcall	.+3190   	; 0x15a4 <CheckState>
     92e:	81 11       	cpse	r24, r1
     930:	ec c0       	rjmp	.+472    	; 0xb0a <MagnetMaze+0x210>
     932:	80 91 3c 38 	lds	r24, 0x383C	; 0x80383c <gameNow>
        return 0;

    if ( (gameNow != TEXT) && (gameNow != MAZE) )
     936:	82 30       	cpi	r24, 0x02	; 2
     938:	08 f0       	brcs	.+2      	; 0x93c <MagnetMaze+0x42>
     93a:	e7 c0       	rjmp	.+462    	; 0xb0a <MagnetMaze+0x210>
     93c:	80 91 f3 3a 	lds	r24, 0x3AF3	; 0x803af3 <calHall>
        return 0;

    if (calHall == 0)
     940:	90 91 f4 3a 	lds	r25, 0x3AF4	; 0x803af4 <calHall+0x1>
     944:	89 2b       	or	r24, r25
     946:	41 f4       	brne	.+16     	; 0x958 <MagnetMaze+0x5e>
     948:	80 91 bb 3a 	lds	r24, 0x3ABB	; 0x803abb <adcHall>
        calHall = adcHall;
     94c:	90 91 bc 3a 	lds	r25, 0x3ABC	; 0x803abc <adcHall+0x1>
     950:	80 93 f3 3a 	sts	0x3AF3, r24	; 0x803af3 <calHall>
     954:	90 93 f4 3a 	sts	0x3AF4, r25	; 0x803af4 <calHall+0x1>
     958:	c0 91 bb 3a 	lds	r28, 0x3ABB	; 0x803abb <adcHall>

    int16_t valHall = adcHall - calHall;
     95c:	d0 91 bc 3a 	lds	r29, 0x3ABC	; 0x803abc <adcHall+0x1>
     960:	80 91 f3 3a 	lds	r24, 0x3AF3	; 0x803af3 <calHall>
     964:	90 91 f4 3a 	lds	r25, 0x3AF4	; 0x803af4 <calHall+0x1>
     968:	c8 1b       	sub	r28, r24
     96a:	d9 0b       	sbc	r29, r25
    showFieldStrength(valHall);
     96c:	ce 01       	movw	r24, r28
     96e:	8e df       	rcall	.-228    	; 0x88c <showFieldStrength>
     970:	80 91 4c 38 	lds	r24, 0x384C	; 0x80384c <curHallState>

    switch (curHallState) {
     974:	81 30       	cpi	r24, 0x01	; 1
     976:	89 f0       	breq	.+34     	; 0x99a <MagnetMaze+0xa0>
     978:	18 f0       	brcs	.+6      	; 0x980 <MagnetMaze+0x86>
     97a:	82 30       	cpi	r24, 0x02	; 2
     97c:	c1 f0       	breq	.+48     	; 0x9ae <MagnetMaze+0xb4>
     97e:	1f c0       	rjmp	.+62     	; 0x9be <MagnetMaze+0xc4>
     980:	c4 3d       	cpi	r28, 0xD4	; 212
        case 0:
            if ( valHall + HALL_HIGH < 0 ) {
     982:	9e ef       	ldi	r25, 0xFE	; 254
     984:	d9 07       	cpc	r29, r25
     986:	14 f4       	brge	.+4      	; 0x98c <MagnetMaze+0x92>
     988:	91 e0       	ldi	r25, 0x01	; 1
                newHallState = 1;
     98a:	04 c0       	rjmp	.+8      	; 0x994 <MagnetMaze+0x9a>
     98c:	cd 32       	cpi	r28, 0x2D	; 45
            } else if ( valHall - HALL_HIGH > 0 ) {
     98e:	d1 40       	sbci	r29, 0x01	; 1
     990:	5c f0       	brlt	.+22     	; 0x9a8 <MagnetMaze+0xae>
     992:	92 e0       	ldi	r25, 0x02	; 2
                newHallState = 2;
     994:	90 93 4b 38 	sts	0x384B, r25	; 0x80384b <newHallState>
     998:	12 c0       	rjmp	.+36     	; 0x9be <MagnetMaze+0xc4>
     99a:	cd 32       	cpi	r28, 0x2D	; 45
                newHallState = 0;
            }
            break;
        
        case 1:
            if ( valHall - HALL_HIGH > 0 ) {
     99c:	91 e0       	ldi	r25, 0x01	; 1
     99e:	d9 07       	cpc	r29, r25
     9a0:	c4 f7       	brge	.-16     	; 0x992 <MagnetMaze+0x98>
     9a2:	c9 38       	cpi	r28, 0x89	; 137
                newHallState = 2;
            } else if ( valHall + HALL_LOW > 0 ) {
     9a4:	df 4f       	sbci	r29, 0xFF	; 255
     9a6:	84 f3       	brlt	.-32     	; 0x988 <MagnetMaze+0x8e>
     9a8:	10 92 4b 38 	sts	0x384B, r1	; 0x80384b <newHallState>
            if ( valHall + HALL_HIGH < 0 ) {
                newHallState = 1;
            } else if ( valHall - HALL_HIGH > 0 ) {
                newHallState = 2;
            } else {
                newHallState = 0;
     9ac:	08 c0       	rjmp	.+16     	; 0x9be <MagnetMaze+0xc4>
     9ae:	c4 3d       	cpi	r28, 0xD4	; 212
                newHallState = 1;
            }
            break;
        
        case 2:
            if ( valHall + HALL_HIGH < 0 ) {
     9b0:	9e ef       	ldi	r25, 0xFE	; 254
     9b2:	d9 07       	cpc	r29, r25
     9b4:	4c f3       	brlt	.-46     	; 0x988 <MagnetMaze+0x8e>
     9b6:	c8 37       	cpi	r28, 0x78	; 120
                newHallState = 1;
            } else if ( valHall - HALL_LOW < 0 ) {
     9b8:	d1 05       	cpc	r29, r1
     9ba:	b4 f3       	brlt	.-20     	; 0x9a8 <MagnetMaze+0xae>
     9bc:	ea cf       	rjmp	.-44     	; 0x992 <MagnetMaze+0x98>
     9be:	c0 91 f2 bf 	lds	r28, 0xBFF2	; 0x80bff2 <__bss_end+0x84d8>
            }
            break;
    }

    /* Indicate that the magnet was read succesfully */
    iLED[CAT] = (newHallState ? dimValue : 0);
     9c2:	ec 2f       	mov	r30, r28
     9c4:	f0 e0       	ldi	r31, 0x00	; 0
     9c6:	90 91 4b 38 	lds	r25, 0x384B	; 0x80384b <newHallState>
     9ca:	99 23       	and	r25, r25
     9cc:	19 f0       	breq	.+6      	; 0x9d4 <MagnetMaze+0xda>
     9ce:	20 91 0b 38 	lds	r18, 0x380B	; 0x80380b <dimValue>
     9d2:	01 c0       	rjmp	.+2      	; 0x9d6 <MagnetMaze+0xdc>
     9d4:	20 e0       	ldi	r18, 0x00	; 0
     9d6:	e6 53       	subi	r30, 0x36	; 54
     9d8:	f5 4c       	sbci	r31, 0xC5	; 197
     9da:	20 83       	st	Z, r18
     9dc:	89 17       	cp	r24, r25

    if (newHallState != curHallState) {
     9de:	09 f4       	brne	.+2      	; 0x9e2 <MagnetMaze+0xe8>
     9e0:	94 c0       	rjmp	.+296    	; 0xb0a <MagnetMaze+0x210>
     9e2:	0e 94 d9 0d 	call	0x1bb2	; 0x1bb2 <getClock>
        /* keep track of time to enable an idle timeout to exit the game */
        mazeLastActive = getClock();
     9e6:	80 93 45 38 	sts	0x3845, r24	; 0x803845 <mazeLastActive>
     9ea:	90 93 46 38 	sts	0x3846, r25	; 0x803846 <mazeLastActive+0x1>
     9ee:	20 91 4a 38 	lds	r18, 0x384A	; 0x80384a <mazePos>

        /* Make the maze work regardless of badge orientation */
        if ((mazePos == 0) && (newHallState != 0))
     9f2:	80 91 4b 38 	lds	r24, 0x384B	; 0x80384b <newHallState>
     9f6:	21 11       	cpse	r18, r1
     9f8:	08 c0       	rjmp	.+16     	; 0xa0a <MagnetMaze+0x110>
     9fa:	88 23       	and	r24, r24
     9fc:	31 f0       	breq	.+12     	; 0xa0a <MagnetMaze+0x110>
     9fe:	91 e0       	ldi	r25, 0x01	; 1
            inverted = (newHallState != mazeCode[0]) ? TRUE : FALSE;
     a00:	81 30       	cpi	r24, 0x01	; 1
     a02:	09 f4       	brne	.+2      	; 0xa06 <MagnetMaze+0x10c>
     a04:	90 e0       	ldi	r25, 0x00	; 0
     a06:	90 93 47 38 	sts	0x3847, r25	; 0x803847 <inverted>
     a0a:	80 93 4c 38 	sts	0x384C, r24	; 0x80384c <curHallState>

        curHallState = newHallState;
     a0e:	88 23       	and	r24, r24
        
        if (curHallState != 0) {
     a10:	09 f4       	brne	.+2      	; 0xa14 <MagnetMaze+0x11a>
     a12:	7b c0       	rjmp	.+246    	; 0xb0a <MagnetMaze+0x210>
     a14:	91 e0       	ldi	r25, 0x01	; 1
            gameNow = MAZE;
     a16:	90 93 3c 38 	sts	0x383C, r25	; 0x80383c <gameNow>
     a1a:	90 91 47 38 	lds	r25, 0x3847	; 0x803847 <inverted>
            if ( (inverted ? curHallState^3 : curHallState) == mazeCode[mazePos]) {
     a1e:	99 23       	and	r25, r25
     a20:	11 f0       	breq	.+4      	; 0xa26 <MagnetMaze+0x12c>
     a22:	93 e0       	ldi	r25, 0x03	; 3
     a24:	89 27       	eor	r24, r25
     a26:	90 e0       	ldi	r25, 0x00	; 0
     a28:	e2 2f       	mov	r30, r18
     a2a:	f0 e0       	ldi	r31, 0x00	; 0
     a2c:	e0 5d       	subi	r30, 0xD0	; 208
     a2e:	ff 43       	sbci	r31, 0x3F	; 63
     a30:	40 81       	ld	r20, Z
     a32:	50 e0       	ldi	r21, 0x00	; 0
     a34:	84 17       	cp	r24, r20
     a36:	95 07       	cpc	r25, r21
     a38:	91 f4       	brne	.+36     	; 0xa5e <MagnetMaze+0x164>
     a3a:	80 91 0c 38 	lds	r24, 0x380C	; 0x80380c <mazeState>
                mazeState &= TRUE;
     a3e:	81 70       	andi	r24, 0x01	; 1
     a40:	80 93 0c 38 	sts	0x380C, r24	; 0x80380c <mazeState>
     a44:	e0 91 01 c0 	lds	r30, 0xC001	; 0x80c001 <__bss_end+0x84e7>
                iLED[EYE[R][L]] = 0;
     a48:	f0 e0       	ldi	r31, 0x00	; 0
     a4a:	e6 53       	subi	r30, 0x36	; 54
     a4c:	f5 4c       	sbci	r31, 0xC5	; 197
     a4e:	10 82       	st	Z, r1
     a50:	e0 91 00 c0 	lds	r30, 0xC000	; 0x80c000 <__bss_end+0x84e6>
                iLED[EYE[R][R]] = 0;
     a54:	f0 e0       	ldi	r31, 0x00	; 0
     a56:	e6 53       	subi	r30, 0x36	; 54
     a58:	f5 4c       	sbci	r31, 0xC5	; 197
     a5a:	10 82       	st	Z, r1
     a5c:	02 c0       	rjmp	.+4      	; 0xa62 <MagnetMaze+0x168>
     a5e:	10 92 0c 38 	sts	0x380C, r1	; 0x80380c <mazeState>
            } else {
                mazeState = FALSE;
     a62:	2f 5f       	subi	r18, 0xFF	; 255
                /* TODO play tone BAD */
            }
            mazePos++;
     a64:	20 93 4a 38 	sts	0x384A, r18	; 0x80384a <mazePos>
     a68:	80 91 48 38 	lds	r24, 0x3848	; 0x803848 <mazeCnt>
            mazeCnt++;            
     a6c:	8f 5f       	subi	r24, 0xFF	; 255
     a6e:	83 30       	cpi	r24, 0x03	; 3
            if (mazeCnt >= 3) {
     a70:	18 f4       	brcc	.+6      	; 0xa78 <MagnetMaze+0x17e>
     a72:	80 93 48 38 	sts	0x3848, r24	; 0x803848 <mazeCnt>
            } else {
                mazeState = FALSE;
                /* TODO play tone BAD */
            }
            mazePos++;
            mazeCnt++;            
     a76:	49 c0       	rjmp	.+146    	; 0xb0a <MagnetMaze+0x210>
     a78:	10 92 48 38 	sts	0x3848, r1	; 0x803848 <mazeCnt>
            if (mazeCnt >= 3) {
                mazeCnt = 0;
     a7c:	80 91 0c 38 	lds	r24, 0x380C	; 0x80380c <mazeState>
                if (mazeState == TRUE) {
     a80:	81 30       	cpi	r24, 0x01	; 1
     a82:	81 f5       	brne	.+96     	; 0xae4 <MagnetMaze+0x1ea>
     a84:	80 91 49 38 	lds	r24, 0x3849	; 0x803849 <mazeHckrPos>
                    /* TODO play tone GOOD */
                    iLED[HCKR[G][mazeHckrPos]] = dimValue;
     a88:	e8 2f       	mov	r30, r24
     a8a:	f0 e0       	ldi	r31, 0x00	; 0
     a8c:	ec 5f       	subi	r30, 0xFC	; 252
     a8e:	ff 43       	sbci	r31, 0x3F	; 63
     a90:	e6 81       	ldd	r30, Z+6	; 0x06
     a92:	f0 e0       	ldi	r31, 0x00	; 0
     a94:	90 91 0b 38 	lds	r25, 0x380B	; 0x80380b <dimValue>
     a98:	e6 53       	subi	r30, 0x36	; 54
     a9a:	f5 4c       	sbci	r31, 0xC5	; 197
     a9c:	90 83       	st	Z, r25
     a9e:	8f 5f       	subi	r24, 0xFF	; 255
                    mazeHckrPos++;
     aa0:	80 93 49 38 	sts	0x3849, r24	; 0x803849 <mazeHckrPos>
                    if (mazePos == sizeof(mazeCode)) {
     aa4:	22 31       	cpi	r18, 0x12	; 18
     aa6:	89 f5       	brne	.+98     	; 0xb0a <MagnetMaze+0x210>
                        UpdateState(MAZE_COMPLETED);
     aa8:	8d e7       	ldi	r24, 0x7D	; 125
     aaa:	72 d5       	rcall	.+2788   	; 0x1590 <UpdateState>
     aac:	ec 2f       	mov	r30, r28
                        iLED[CAT]       = 0;
     aae:	f0 e0       	ldi	r31, 0x00	; 0
     ab0:	e6 53       	subi	r30, 0x36	; 54
     ab2:	f5 4c       	sbci	r31, 0xC5	; 197
     ab4:	10 82       	st	Z, r1
     ab6:	e0 91 01 c0 	lds	r30, 0xC001	; 0x80c001 <__bss_end+0x84e7>
                        iLED[EYE[R][L]] = 0;
     aba:	f0 e0       	ldi	r31, 0x00	; 0
     abc:	e6 53       	subi	r30, 0x36	; 54
     abe:	f5 4c       	sbci	r31, 0xC5	; 197
     ac0:	10 82       	st	Z, r1
     ac2:	e0 91 00 c0 	lds	r30, 0xC000	; 0x80c000 <__bss_end+0x84e6>
                        iLED[EYE[R][R]] = 0;
     ac6:	f0 e0       	ldi	r31, 0x00	; 0
     ac8:	e6 53       	subi	r30, 0x36	; 54
     aca:	f5 4c       	sbci	r31, 0xC5	; 197
     acc:	10 82       	st	Z, r1
     ace:	e0 91 03 c0 	lds	r30, 0xC003	; 0x80c003 <__bss_end+0x84e9>
                        iLED[EYE[G][L]] = dimValue;
     ad2:	f0 e0       	ldi	r31, 0x00	; 0
     ad4:	80 91 0b 38 	lds	r24, 0x380B	; 0x80380b <dimValue>
     ad8:	e6 53       	subi	r30, 0x36	; 54
     ada:	f5 4c       	sbci	r31, 0xC5	; 197
     adc:	80 83       	st	Z, r24
                        iLED[EYE[G][R]] = dimValue;
     ade:	e0 91 02 c0 	lds	r30, 0xC002	; 0x80c002 <__bss_end+0x84e8>
     ae2:	0d c0       	rjmp	.+26     	; 0xafe <MagnetMaze+0x204>
                        /*state = STATE_MUSIC;*/
                    }
                } else {
                    initMaze();
     ae4:	9e de       	rcall	.-708    	; 0x822 <initMaze>
     ae6:	10 92 3c 38 	sts	0x383C, r1	; 0x80383c <gameNow>
                    gameNow   = TEXT;
     aea:	e0 91 01 c0 	lds	r30, 0xC001	; 0x80c001 <__bss_end+0x84e7>
                    iLED[EYE[R][L]] = dimValue;
     aee:	f0 e0       	ldi	r31, 0x00	; 0
     af0:	80 91 0b 38 	lds	r24, 0x380B	; 0x80380b <dimValue>
     af4:	e6 53       	subi	r30, 0x36	; 54
     af6:	f5 4c       	sbci	r31, 0xC5	; 197
     af8:	80 83       	st	Z, r24
     afa:	e0 91 00 c0 	lds	r30, 0xC000	; 0x80c000 <__bss_end+0x84e6>
                    iLED[EYE[R][R]] = dimValue;
     afe:	f0 e0       	ldi	r31, 0x00	; 0
     b00:	80 91 0b 38 	lds	r24, 0x380B	; 0x80380b <dimValue>
     b04:	e6 53       	subi	r30, 0x36	; 54
     b06:	f5 4c       	sbci	r31, 0xC5	; 197
     b08:	80 83       	st	Z, r24
     b0a:	80 e0       	ldi	r24, 0x00	; 0
                }
            }
        }
    }
    return 0;
}
     b0c:	df 91       	pop	r29
     b0e:	cf 91       	pop	r28
     b10:	08 95       	ret

00000b12 <Setup>:
     b12:	cf 93       	push	r28
volatile uint16_t tmp16bit;    
volatile uint8_t mask[8] = {0x01, 0x03, 0x07, 0x0f, 0x1f, 0x3f, 0x7f, 0xff};
uint8_t HeartCount = 0;
uint8_t LedCount = 0;

void Setup(){
     b14:	df 93       	push	r29
    cli();
     b16:	f8 94       	cli

    //Set up clock at 10MHz
    CCP = CCP_IOREG_gc;
     b18:	88 ed       	ldi	r24, 0xD8	; 216
     b1a:	84 bf       	out	0x34, r24	; 52
    CLKCTRL_MCLKCTRLB = 0x01;
     b1c:	c1 e0       	ldi	r28, 0x01	; 1
     b1e:	c0 93 61 00 	sts	0x0061, r28	; 0x800061 <__TEXT_REGION_LENGTH__+0x700061>

    //Set I/O direction registers
    PORTA_DIR = 0b01001010;
     b22:	8a e4       	ldi	r24, 0x4A	; 74
     b24:	80 93 00 04 	sts	0x0400, r24	; 0x800400 <__TEXT_REGION_LENGTH__+0x700400>
    PORTB_DIR = 0b01111100;
     b28:	8c e7       	ldi	r24, 0x7C	; 124
     b2a:	80 93 20 04 	sts	0x0420, r24	; 0x800420 <__TEXT_REGION_LENGTH__+0x700420>
    PORTC_DIR = 0b00111111;
     b2e:	9f e3       	ldi	r25, 0x3F	; 63
     b30:	90 93 40 04 	sts	0x0440, r25	; 0x800440 <__TEXT_REGION_LENGTH__+0x700440>

    //Invert some pins for correcting LED reversal error
    PORTC_PIN3CTRL |= 0x80;
     b34:	80 91 53 04 	lds	r24, 0x0453	; 0x800453 <__TEXT_REGION_LENGTH__+0x700453>
     b38:	80 68       	ori	r24, 0x80	; 128
     b3a:	80 93 53 04 	sts	0x0453, r24	; 0x800453 <__TEXT_REGION_LENGTH__+0x700453>
    PORTC_PIN4CTRL |= 0x80;
     b3e:	80 91 54 04 	lds	r24, 0x0454	; 0x800454 <__TEXT_REGION_LENGTH__+0x700454>
     b42:	80 68       	ori	r24, 0x80	; 128
     b44:	80 93 54 04 	sts	0x0454, r24	; 0x800454 <__TEXT_REGION_LENGTH__+0x700454>
    PORTC_PIN5CTRL |= 0x80;
     b48:	80 91 55 04 	lds	r24, 0x0455	; 0x800455 <__TEXT_REGION_LENGTH__+0x700455>
     b4c:	80 68       	ori	r24, 0x80	; 128
     b4e:	80 93 55 04 	sts	0x0455, r24	; 0x800455 <__TEXT_REGION_LENGTH__+0x700455>
    PORTB_PIN3CTRL |= 0x80;
     b52:	80 91 33 04 	lds	r24, 0x0433	; 0x800433 <__TEXT_REGION_LENGTH__+0x700433>
     b56:	80 68       	ori	r24, 0x80	; 128
     b58:	80 93 33 04 	sts	0x0433, r24	; 0x800433 <__TEXT_REGION_LENGTH__+0x700433>
    PORTB_PIN4CTRL |= 0x80;
     b5c:	80 91 34 04 	lds	r24, 0x0434	; 0x800434 <__TEXT_REGION_LENGTH__+0x700434>
     b60:	80 68       	ori	r24, 0x80	; 128
     b62:	80 93 34 04 	sts	0x0434, r24	; 0x800434 <__TEXT_REGION_LENGTH__+0x700434>
    PORTB_PIN5CTRL |= 0x80;
     b66:	80 91 35 04 	lds	r24, 0x0435	; 0x800435 <__TEXT_REGION_LENGTH__+0x700435>
     b6a:	80 68       	ori	r24, 0x80	; 128
     b6c:	80 93 35 04 	sts	0x0435, r24	; 0x800435 <__TEXT_REGION_LENGTH__+0x700435>
    PORTB_PIN2CTRL |= 0x80;
    PORTB_PIN6CTRL |= 0x80;
    */

    //UART (Alternative pins PA1=TxD, PA2=RxD, baudrate 9600, 8n1, RX and Buffer empty interrupts on)
    PORTMUX_CTRLB = 0x01;
     b70:	c0 93 01 02 	sts	0x0201, r28	; 0x800201 <__TEXT_REGION_LENGTH__+0x700201>
    PORTA_OUTSET = 0x02;
     b74:	d2 e0       	ldi	r29, 0x02	; 2
     b76:	d0 93 05 04 	sts	0x0405, r29	; 0x800405 <__TEXT_REGION_LENGTH__+0x700405>
    USART0_BAUD = (uint16_t)USART0_BAUD_RATE(115200);
     b7a:	2b e5       	ldi	r18, 0x5B	; 91
     b7c:	31 e0       	ldi	r19, 0x01	; 1
     b7e:	20 93 08 08 	sts	0x0808, r18	; 0x800808 <__TEXT_REGION_LENGTH__+0x700808>
     b82:	30 93 09 08 	sts	0x0809, r19	; 0x800809 <__TEXT_REGION_LENGTH__+0x700809>
    USART0_CTRLA = 0xA0; //Interrupts on
     b86:	80 ea       	ldi	r24, 0xA0	; 160
     b88:	80 93 05 08 	sts	0x0805, r24	; 0x800805 <__TEXT_REGION_LENGTH__+0x700805>
    USART0_CTRLB = 0xC0; //RX and TX on
     b8c:	80 ec       	ldi	r24, 0xC0	; 192
     b8e:	80 93 06 08 	sts	0x0806, r24	; 0x800806 <__TEXT_REGION_LENGTH__+0x700806>
    USART0_CTRLC = 0x03; //8 bits data, no parity, 1 stop bit
     b92:	83 e0       	ldi	r24, 0x03	; 3
     b94:	80 93 07 08 	sts	0x0807, r24	; 0x800807 <__TEXT_REGION_LENGTH__+0x700807>
     
    //GPIO registers 0..3 can be used for global variables used in ISR routines (ASM capability: IN, OUT, SBI, CBI, SBIS, SBIC)
    L_COL = 0;     //Used in LED array to hold currently driven column value
     b98:	1c ba       	out	0x1c, r1	; 28
    RXCNT = 0;     //Used as UART receive counter
     b9a:	1d ba       	out	0x1d, r1	; 29
    AUPOS = 0;     //Used as audio input/output buffer counter
     b9c:	1e ba       	out	0x1e, r1	; 30
    GPIOR3 = 0;    //
     b9e:	1f ba       	out	0x1f, r1	; 31

    //Init TCA (split mode, f_CLK/16, PWM on 6 alternative pins, underflow int enabled, synced and started)
    TCA0_SPLIT_CTRLD = 1;
     ba0:	c0 93 03 0a 	sts	0x0A03, r28	; 0x800a03 <__TEXT_REGION_LENGTH__+0x700a03>
    TCA0_SPLIT_CTRLA = (0x4)<<1;
     ba4:	88 e0       	ldi	r24, 0x08	; 8
     ba6:	80 93 00 0a 	sts	0x0A00, r24	; 0x800a00 <__TEXT_REGION_LENGTH__+0x700a00>
    PORTMUX_CTRLC = 0x3F;
     baa:	90 93 02 02 	sts	0x0202, r25	; 0x800202 <__TEXT_REGION_LENGTH__+0x700202>
    TCA0_SPLIT_CTRLB = 0x77;
     bae:	87 e7       	ldi	r24, 0x77	; 119
     bb0:	80 93 01 0a 	sts	0x0A01, r24	; 0x800a01 <__TEXT_REGION_LENGTH__+0x700a01>
    TCA0_SPLIT_INTCTRL = 0x1;
     bb4:	c0 93 0a 0a 	sts	0x0A0A, r28	; 0x800a0a <__TEXT_REGION_LENGTH__+0x700a0a>
    TCA0_SPLIT_CTRLESET = ((0x2)<<2)|0x3;
     bb8:	8b e0       	ldi	r24, 0x0B	; 11
     bba:	80 93 05 0a 	sts	0x0A05, r24	; 0x800a05 <__TEXT_REGION_LENGTH__+0x700a05>
    TCA0_SPLIT_CTRLA |= 1;
     bbe:	80 91 00 0a 	lds	r24, 0x0A00	; 0x800a00 <__TEXT_REGION_LENGTH__+0x700a00>
     bc2:	81 60       	ori	r24, 0x01	; 1
     bc4:	80 93 00 0a 	sts	0x0A00, r24	; 0x800a00 <__TEXT_REGION_LENGTH__+0x700a00>
     
    //Init TCB0 (compare value sets serial Tx pause between characters, uses TCA0 prescaler, enabled, interrupt disabled)
    TCB0_CTRLA = ((0x02)<<1)|0x01;
     bc8:	85 e0       	ldi	r24, 0x05	; 5
     bca:	80 93 40 0a 	sts	0x0A40, r24	; 0x800a40 <__TEXT_REGION_LENGTH__+0x700a40>
    TCB0_CTRLB = 0;
     bce:	10 92 41 0a 	sts	0x0A41, r1	; 0x800a41 <__TEXT_REGION_LENGTH__+0x700a41>
    TCB0_CCMP = 0x01FF;
     bd2:	8f ef       	ldi	r24, 0xFF	; 255
     bd4:	91 e0       	ldi	r25, 0x01	; 1
     bd6:	80 93 4c 0a 	sts	0x0A4C, r24	; 0x800a4c <__TEXT_REGION_LENGTH__+0x700a4c>
     bda:	90 93 4d 0a 	sts	0x0A4D, r25	; 0x800a4d <__TEXT_REGION_LENGTH__+0x700a4d>
    TCB0_INTCTRL = 0x00;     
     bde:	10 92 45 0a 	sts	0x0A45, r1	; 0x800a45 <__TEXT_REGION_LENGTH__+0x700a45>
     
    //Init TCB1 (compare value sets audio sample rate (0x038B = 11025sps), enabled, interrupt enabled)
    TCB1_CTRLA = 0x01;
     be2:	c0 93 50 0a 	sts	0x0A50, r28	; 0x800a50 <__TEXT_REGION_LENGTH__+0x700a50>
    TCB1_CTRLB = 0;
     be6:	10 92 51 0a 	sts	0x0A51, r1	; 0x800a51 <__TEXT_REGION_LENGTH__+0x700a51>
    TCB1_CCMP = 0x038B;
     bea:	8b e8       	ldi	r24, 0x8B	; 139
     bec:	93 e0       	ldi	r25, 0x03	; 3
     bee:	80 93 5c 0a 	sts	0x0A5C, r24	; 0x800a5c <__TEXT_REGION_LENGTH__+0x700a5c>
     bf2:	90 93 5d 0a 	sts	0x0A5D, r25	; 0x800a5d <__TEXT_REGION_LENGTH__+0x700a5d>
    TCB1_INTCTRL = 0x01;
     bf6:	c0 93 55 0a 	sts	0x0A55, r28	; 0x800a55 <__TEXT_REGION_LENGTH__+0x700a55>

    //Init I2C (100kHz)
    I2C_init();
     bfa:	bc db       	rcall	.-2184   	; 0x374 <I2C_init>

    //VREF (DAC, ADC's)
    VREF_CTRLA   = 0x12;    //0x22 for audio in/out (2.5V), 0x12 for temperature in, audio out (1.1V/2.5V)
     bfc:	82 e1       	ldi	r24, 0x12	; 18
     bfe:	80 93 a0 00 	sts	0x00A0, r24	; 0x8000a0 <__TEXT_REGION_LENGTH__+0x7000a0>
    VREF_CTRLC   = 0x20;    //ADC1 reference at 2.5V
     c02:	80 e2       	ldi	r24, 0x20	; 32
     c04:	80 93 a2 00 	sts	0x00A2, r24	; 0x8000a2 <__TEXT_REGION_LENGTH__+0x7000a2>
    VREF_CTRLB   = 0x01;    //DAC0 ref forced enabled
     c08:	c0 93 a1 00 	sts	0x00A1, r28	; 0x8000a1 <__TEXT_REGION_LENGTH__+0x7000a1>

    //Init ADC0 (audio in, also controls DAC output rate, internal temperature?)
    ADC0_CTRLA   = 0x02;    //10 bit resolution, free running
     c0c:	d0 93 00 06 	sts	0x0600, r29	; 0x800600 <__TEXT_REGION_LENGTH__+0x700600>
    ADC0_CTRLC   = 0x44;    //Reduced sample capacitor, internal reference, clock/32 => 24038sps
     c10:	84 e4       	ldi	r24, 0x44	; 68
     c12:	80 93 02 06 	sts	0x0602, r24	; 0x800602 <__TEXT_REGION_LENGTH__+0x700602>
    ADC0_MUXPOS  = 0x1E;    //Audio in: AIN7 at (0x07), Temperature: Internal sensor at (0x1E)
     c16:	8e e1       	ldi	r24, 0x1E	; 30
     c18:	80 93 06 06 	sts	0x0606, r24	; 0x800606 <__TEXT_REGION_LENGTH__+0x700606>
    ADC0_INTCTRL = 0x01;    //Result ready interrupt enabled
     c1c:	c0 93 0a 06 	sts	0x060A, r28	; 0x80060a <__TEXT_REGION_LENGTH__+0x70060a>
    ADC0_CTRLA  |= 0x01;    //ADC0 enabled
     c20:	80 91 00 06 	lds	r24, 0x0600	; 0x800600 <__TEXT_REGION_LENGTH__+0x700600>
     c24:	81 60       	ori	r24, 0x01	; 1
     c26:	80 93 00 06 	sts	0x0600, r24	; 0x800600 <__TEXT_REGION_LENGTH__+0x700600>
    ADC0_COMMAND = 0x01;    //Start first conversion, after that it will run periodically.
     c2a:	c0 93 08 06 	sts	0x0608, r28	; 0x800608 <__TEXT_REGION_LENGTH__+0x700608>

    //Init ADC1 (buttons and sensors: CH0=Photo transistor, CH1=Hall, CH4=Buttons)
    ADC1_CTRLA   = 0;
     c2e:	10 92 40 06 	sts	0x0640, r1	; 0x800640 <__TEXT_REGION_LENGTH__+0x700640>
    ADC1_CTRLB   = 0x02;    //4 results automatically accumulated
     c32:	d0 93 41 06 	sts	0x0641, r29	; 0x800641 <__TEXT_REGION_LENGTH__+0x700641>
    ADC1_CTRLC   = 0x52;    //Reduced sample capacitor, VDD as reference, clock/8
     c36:	82 e5       	ldi	r24, 0x52	; 82
     c38:	80 93 42 06 	sts	0x0642, r24	; 0x800642 <__TEXT_REGION_LENGTH__+0x700642>
    ADC1_SAMPCTRL= 0x04;    //Extend sampling time with 4 cycles (6 total)
     c3c:	84 e0       	ldi	r24, 0x04	; 4
     c3e:	80 93 45 06 	sts	0x0645, r24	; 0x800645 <__TEXT_REGION_LENGTH__+0x700645>
    ADC1_MUXPOS  = 0x04;    //Start with Buttons, for sensors, activate sensor power first.
     c42:	80 93 46 06 	sts	0x0646, r24	; 0x800646 <__TEXT_REGION_LENGTH__+0x700646>
    ADC1_INTCTRL = 0x01;    //Result ready interrupt enabled
     c46:	c0 93 4a 06 	sts	0x064A, r28	; 0x80064a <__TEXT_REGION_LENGTH__+0x70064a>
    ADC1_CTRLA  |= 0x01;    //ADC0 enabled
     c4a:	80 91 40 06 	lds	r24, 0x0640	; 0x800640 <__TEXT_REGION_LENGTH__+0x700640>
     c4e:	81 60       	ori	r24, 0x01	; 1
     c50:	80 93 40 06 	sts	0x0640, r24	; 0x800640 <__TEXT_REGION_LENGTH__+0x700640>
    ADC1_COMMAND = 0x01;    //Start single conversion
     c54:	c0 93 48 06 	sts	0x0648, r28	; 0x800648 <__TEXT_REGION_LENGTH__+0x700648>

    //Init DAC0
    DAC0_CTRLA = 0x40;     //Enable output buffer (connect to pin)
     c58:	80 e4       	ldi	r24, 0x40	; 64
     c5a:	80 93 a0 06 	sts	0x06A0, r24	; 0x8006a0 <__TEXT_REGION_LENGTH__+0x7006a0>
    DAC0_DATA = 0x80;      //Data value at half point (about 1.25V)
     c5e:	80 e8       	ldi	r24, 0x80	; 128
     c60:	80 93 a1 06 	sts	0x06A1, r24	; 0x8006a1 <__TEXT_REGION_LENGTH__+0x7006a1>
    DAC0_CTRLA |= 0x01;    //Enable DAC
     c64:	80 91 a0 06 	lds	r24, 0x06A0	; 0x8006a0 <__TEXT_REGION_LENGTH__+0x7006a0>
     c68:	81 60       	ori	r24, 0x01	; 1
     c6a:	80 93 a0 06 	sts	0x06A0, r24	; 0x8006a0 <__TEXT_REGION_LENGTH__+0x7006a0>
     
    //PIT and RTC interrupts
    while(RTC_STATUS & RTC_CTRLABUSY_bm);
     c6e:	80 91 41 01 	lds	r24, 0x0141	; 0x800141 <__TEXT_REGION_LENGTH__+0x700141>
     c72:	80 fd       	sbrc	r24, 0
     c74:	fc cf       	rjmp	.-8      	; 0xc6e <Setup+0x15c>
    RTC_CTRLA          = (0x6)<<3;                         //Prescaler: /64
     c76:	80 e3       	ldi	r24, 0x30	; 48
     c78:	80 93 40 01 	sts	0x0140, r24	; 0x800140 <__TEXT_REGION_LENGTH__+0x700140>
    RTC_CLKSEL         = 0;                                //Clock source: internal 32768Hz clock
     c7c:	10 92 47 01 	sts	0x0147, r1	; 0x800147 <__TEXT_REGION_LENGTH__+0x700147>
    while(RTC_STATUS & RTC_PERBUSY_bm);
     c80:	80 91 41 01 	lds	r24, 0x0141	; 0x800141 <__TEXT_REGION_LENGTH__+0x700141>
     c84:	82 fd       	sbrc	r24, 2
     c86:	fc cf       	rjmp	.-8      	; 0xc80 <Setup+0x16e>
    RTC_PER            = 512*60;                           //60 second period (for clocking how long the device has been running?)
     c88:	80 e0       	ldi	r24, 0x00	; 0
     c8a:	98 e7       	ldi	r25, 0x78	; 120
     c8c:	80 93 4a 01 	sts	0x014A, r24	; 0x80014a <__TEXT_REGION_LENGTH__+0x70014a>
     c90:	90 93 4b 01 	sts	0x014B, r25	; 0x80014b <__TEXT_REGION_LENGTH__+0x70014b>
    tmp16bit = (RTC_CNT + BTN_TMR);
     c94:	80 91 48 01 	lds	r24, 0x0148	; 0x800148 <__TEXT_REGION_LENGTH__+0x700148>
     c98:	90 91 49 01 	lds	r25, 0x0149	; 0x800149 <__TEXT_REGION_LENGTH__+0x700149>
     c9c:	82 96       	adiw	r24, 0x22	; 34
     c9e:	80 93 f7 3a 	sts	0x3AF7, r24	; 0x803af7 <tmp16bit>
     ca2:	90 93 f8 3a 	sts	0x3AF8, r25	; 0x803af8 <tmp16bit+0x1>
    if (tmp16bit > RTC_PER) tmp16bit -= RTC_PER;
     ca6:	20 91 4a 01 	lds	r18, 0x014A	; 0x80014a <__TEXT_REGION_LENGTH__+0x70014a>
     caa:	30 91 4b 01 	lds	r19, 0x014B	; 0x80014b <__TEXT_REGION_LENGTH__+0x70014b>
     cae:	80 91 f7 3a 	lds	r24, 0x3AF7	; 0x803af7 <tmp16bit>
     cb2:	90 91 f8 3a 	lds	r25, 0x3AF8	; 0x803af8 <tmp16bit+0x1>
     cb6:	28 17       	cp	r18, r24
     cb8:	39 07       	cpc	r19, r25
     cba:	70 f4       	brcc	.+28     	; 0xcd8 <Setup+0x1c6>
     cbc:	20 91 4a 01 	lds	r18, 0x014A	; 0x80014a <__TEXT_REGION_LENGTH__+0x70014a>
     cc0:	30 91 4b 01 	lds	r19, 0x014B	; 0x80014b <__TEXT_REGION_LENGTH__+0x70014b>
     cc4:	80 91 f7 3a 	lds	r24, 0x3AF7	; 0x803af7 <tmp16bit>
     cc8:	90 91 f8 3a 	lds	r25, 0x3AF8	; 0x803af8 <tmp16bit+0x1>
     ccc:	82 1b       	sub	r24, r18
     cce:	93 0b       	sbc	r25, r19
     cd0:	80 93 f7 3a 	sts	0x3AF7, r24	; 0x803af7 <tmp16bit>
     cd4:	90 93 f8 3a 	sts	0x3AF8, r25	; 0x803af8 <tmp16bit+0x1>
    while(RTC_STATUS & RTC_CMPBUSY_bm);
     cd8:	80 91 41 01 	lds	r24, 0x0141	; 0x800141 <__TEXT_REGION_LENGTH__+0x700141>
     cdc:	83 fd       	sbrc	r24, 3
     cde:	fc cf       	rjmp	.-8      	; 0xcd8 <Setup+0x1c6>
    RTC_CMP            = tmp16bit;                         //Button timing
     ce0:	80 91 f7 3a 	lds	r24, 0x3AF7	; 0x803af7 <tmp16bit>
     ce4:	90 91 f8 3a 	lds	r25, 0x3AF8	; 0x803af8 <tmp16bit+0x1>
     ce8:	80 93 4c 01 	sts	0x014C, r24	; 0x80014c <__TEXT_REGION_LENGTH__+0x70014c>
     cec:	90 93 4d 01 	sts	0x014D, r25	; 0x80014d <__TEXT_REGION_LENGTH__+0x70014d>
    RTC_INTCTRL        = 0x03;                             //RTC overflow interrupt enabled
     cf0:	83 e0       	ldi	r24, 0x03	; 3
     cf2:	80 93 42 01 	sts	0x0142, r24	; 0x800142 <__TEXT_REGION_LENGTH__+0x700142>
    RTC_PITINTCTRL     = 0x01;                             //PIT interrupt enabled
     cf6:	81 e0       	ldi	r24, 0x01	; 1
     cf8:	80 93 52 01 	sts	0x0152, r24	; 0x800152 <__TEXT_REGION_LENGTH__+0x700152>
    RTC_PITCTRLA       = (0x1)<<3;                         //Interrupt fires after 4 RTC clock cycles Rate=(RTCCLK/(PRESC*PERIOD)) 32768/256=128Hz
     cfc:	88 e0       	ldi	r24, 0x08	; 8
     cfe:	80 93 50 01 	sts	0x0150, r24	; 0x800150 <__TEXT_REGION_LENGTH__+0x700150>
    while(RTC_STATUS & RTC_CTRLABUSY_bm);      
     d02:	80 91 41 01 	lds	r24, 0x0141	; 0x800141 <__TEXT_REGION_LENGTH__+0x700141>
     d06:	80 fd       	sbrc	r24, 0
     d08:	fc cf       	rjmp	.-8      	; 0xd02 <Setup+0x1f0>
    RTC_CTRLA          |= 0x01;                            //Enable RTC
     d0a:	80 91 40 01 	lds	r24, 0x0140	; 0x800140 <__TEXT_REGION_LENGTH__+0x700140>
     d0e:	81 60       	ori	r24, 0x01	; 1
     d10:	80 93 40 01 	sts	0x0140, r24	; 0x800140 <__TEXT_REGION_LENGTH__+0x700140>
    RTC_PITCTRLA       |= 0x01;                            //Enable PIT
     d14:	80 91 50 01 	lds	r24, 0x0150	; 0x800150 <__TEXT_REGION_LENGTH__+0x700150>
     d18:	81 60       	ori	r24, 0x01	; 1
     d1a:	80 93 50 01 	sts	0x0150, r24	; 0x800150 <__TEXT_REGION_LENGTH__+0x700150>
     
    //Other inits
    serRx[0] = 0;           // Empty Rx buffer (first char is enough)
     d1e:	10 92 75 3a 	sts	0x3A75, r1	; 0x803a75 <serRx>
    serTxAddr = &serRx[0];  // Point to first address of the Rx buffer
     d22:	85 e7       	ldi	r24, 0x75	; 117
     d24:	9a e3       	ldi	r25, 0x3A	; 58
     d26:	80 93 b9 3a 	sts	0x3AB9, r24	; 0x803ab9 <serTxAddr>
     d2a:	90 93 ba 3a 	sts	0x3ABA, r25	; 0x803aba <serTxAddr+0x1>

    sei();
     d2e:	78 94       	sei
}
     d30:	df 91       	pop	r29
     d32:	cf 91       	pop	r28
     d34:	08 95       	ret

00000d36 <__vector_8>:

// TCA0 is used for driving the LED matrix at 488Hz (* 5 columns = 2440Hz). The lower 8 bit underflow interrupt is used to load new values and shift between columns.
ISR(TCA0_LUNF_vect){
     d36:	1f 92       	push	r1
     d38:	0f 92       	push	r0
     d3a:	0f b6       	in	r0, 0x3f	; 63
     d3c:	0f 92       	push	r0
     d3e:	11 24       	eor	r1, r1
     d40:	8f 93       	push	r24
     d42:	9f 93       	push	r25
     d44:	af 93       	push	r26
     d46:	bf 93       	push	r27
     d48:	ef 93       	push	r30
     d4a:	ff 93       	push	r31
    //Turn off all columns
    PORTC_OUTCLR = 0x07;
     d4c:	87 e0       	ldi	r24, 0x07	; 7
     d4e:	80 93 46 04 	sts	0x0446, r24	; 0x800446 <__TEXT_REGION_LENGTH__+0x700446>
    PORTB_OUTCLR = 0x44;
     d52:	84 e4       	ldi	r24, 0x44	; 68
     d54:	80 93 26 04 	sts	0x0426, r24	; 0x800426 <__TEXT_REGION_LENGTH__+0x700426>
    "ldi r25, 6        \n"
    "ld r24, %a[arr]+  \n"
    "st %a[wo]+, r24   \n"
    "dec r25           \n"
    "brne .-8          \n"
    :: [wo] "e" (&TCA0_SPLIT_LCMP0), [arr] "e" (&iLED[(L_COL<<3)]) : "r25", "r24", "cc", "memory");
     d58:	ec b3       	in	r30, 0x1c	; 28
     d5a:	88 e0       	ldi	r24, 0x08	; 8
     d5c:	e8 9f       	mul	r30, r24
     d5e:	f0 01       	movw	r30, r0
     d60:	11 24       	eor	r1, r1
     d62:	e6 53       	subi	r30, 0x36	; 54
     d64:	f5 4c       	sbci	r31, 0xC5	; 197
    //Turn off all columns
    PORTC_OUTCLR = 0x07;
    PORTB_OUTCLR = 0x44;

    //Write all of the compare registers of TCA0 with PWM values in array (rows)
    asm(
     d66:	a8 e2       	ldi	r26, 0x28	; 40
     d68:	ba e0       	ldi	r27, 0x0A	; 10
     d6a:	96 e0       	ldi	r25, 0x06	; 6
     d6c:	81 91       	ld	r24, Z+
     d6e:	8d 93       	st	X+, r24
     d70:	9a 95       	dec	r25
     d72:	e1 f7       	brne	.-8      	; 0xd6c <__vector_8+0x36>
    "st %a[wo]+, r24   \n"
    "dec r25           \n"
    "brne .-8          \n"
    :: [wo] "e" (&TCA0_SPLIT_LCMP0), [arr] "e" (&iLED[(L_COL<<3)]) : "r25", "r24", "cc", "memory");

    TCA0_SPLIT_CTRLESET = ((0x2)<<2)|0x3; //Sync timers: Moved this below the PWM value loading to fix the data shifting in asm above.
     d74:	8b e0       	ldi	r24, 0x0B	; 11
     d76:	80 93 05 0a 	sts	0x0A05, r24	; 0x800a05 <__TEXT_REGION_LENGTH__+0x700a05>

    //Turn on the right column
    if (L_COL<3) {
     d7a:	8c b3       	in	r24, 0x1c	; 28
     d7c:	83 30       	cpi	r24, 0x03	; 3
     d7e:	58 f4       	brcc	.+22     	; 0xd96 <__vector_8+0x60>
        asm(
     d80:	8c b3       	in	r24, 0x1c	; 28
     d82:	91 e0       	ldi	r25, 0x01	; 1
     d84:	01 c0       	rjmp	.+2      	; 0xd88 <__vector_8+0x52>
     d86:	99 0f       	add	r25, r25
     d88:	8a 95       	dec	r24
     d8a:	ea f7       	brpl	.-6      	; 0xd86 <__vector_8+0x50>
     d8c:	99 b9       	out	0x09, r25	; 9
     d8e:	8c b3       	in	r24, 0x1c	; 28
     d90:	83 95       	inc	r24
     d92:	8c bb       	out	0x1c, r24	; 28
     d94:	0a c0       	rjmp	.+20     	; 0xdaa <__vector_8+0x74>
        "in r24, %[io0]  \n"
        "inc r24         \n"
        "out %[io0], r24 \n"
        :: [io0] "I" (&L_COL), [vpc] "I" (&VPORTC_OUT) : "r24", "r25", "cc");
        } else {
        asm(
     d96:	8c b3       	in	r24, 0x1c	; 28
     d98:	83 30       	cpi	r24, 0x03	; 3
     d9a:	21 f4       	brne	.+8      	; 0xda4 <__vector_8+0x6e>
     d9c:	2a 9a       	sbi	0x05, 2	; 5
     d9e:	83 95       	inc	r24
     da0:	8c bb       	out	0x1c, r24	; 28
     da2:	03 c0       	rjmp	.+6      	; 0xdaa <__vector_8+0x74>
     da4:	2e 9a       	sbi	0x05, 6	; 5
     da6:	88 27       	eor	r24, r24
     da8:	8c bb       	out	0x1c, r24	; 28
        "clr r24         \n"
        "out %[io0], r24 \n"
        :: [io0] "I" (&L_COL), [vpb] "I" (&VPORTB_OUT) : "r24", "cc");
    }
    
    if(timeout_I2C) --timeout_I2C;
     daa:	80 91 60 3a 	lds	r24, 0x3A60	; 0x803a60 <timeout_I2C>
     dae:	88 23       	and	r24, r24
     db0:	29 f0       	breq	.+10     	; 0xdbc <__vector_8+0x86>
     db2:	80 91 60 3a 	lds	r24, 0x3A60	; 0x803a60 <timeout_I2C>
     db6:	81 50       	subi	r24, 0x01	; 1
     db8:	80 93 60 3a 	sts	0x3A60, r24	; 0x803a60 <timeout_I2C>
    TCA0_SPLIT_INTFLAGS = 0xFF;
     dbc:	8f ef       	ldi	r24, 0xFF	; 255
     dbe:	80 93 0b 0a 	sts	0x0A0B, r24	; 0x800a0b <__TEXT_REGION_LENGTH__+0x700a0b>
}
     dc2:	ff 91       	pop	r31
     dc4:	ef 91       	pop	r30
     dc6:	bf 91       	pop	r27
     dc8:	af 91       	pop	r26
     dca:	9f 91       	pop	r25
     dcc:	8f 91       	pop	r24
     dce:	0f 90       	pop	r0
     dd0:	0f be       	out	0x3f, r0	; 63
     dd2:	0f 90       	pop	r0
     dd4:	1f 90       	pop	r1
     dd6:	18 95       	reti

00000dd8 <__vector_13>:

// TCB0 is used for (slowly) sending serial characters. A 0x00 character code is needed to terminate sending or it will leak memory to serial. It's a feature, honest! 
ISR(TCB0_INT_vect){
     dd8:	1f 92       	push	r1
     dda:	0f 92       	push	r0
     ddc:	0f b6       	in	r0, 0x3f	; 63
     dde:	0f 92       	push	r0
     de0:	11 24       	eor	r1, r1
     de2:	8f 93       	push	r24
     de4:	9f 93       	push	r25
     de6:	ef 93       	push	r30
     de8:	ff 93       	push	r31
    if (*serTxAddr) {
     dea:	e0 91 b9 3a 	lds	r30, 0x3AB9	; 0x803ab9 <serTxAddr>
     dee:	f0 91 ba 3a 	lds	r31, 0x3ABA	; 0x803aba <serTxAddr+0x1>
     df2:	80 81       	ld	r24, Z
     df4:	88 23       	and	r24, r24
     df6:	91 f0       	breq	.+36     	; 0xe1c <__vector_13+0x44>
        USART0_TXDATAL = *serTxAddr;
     df8:	80 81       	ld	r24, Z
     dfa:	80 93 02 08 	sts	0x0802, r24	; 0x800802 <__TEXT_REGION_LENGTH__+0x700802>
        serTxAddr++;
     dfe:	80 91 b9 3a 	lds	r24, 0x3AB9	; 0x803ab9 <serTxAddr>
     e02:	90 91 ba 3a 	lds	r25, 0x3ABA	; 0x803aba <serTxAddr+0x1>
     e06:	01 96       	adiw	r24, 0x01	; 1
     e08:	80 93 b9 3a 	sts	0x3AB9, r24	; 0x803ab9 <serTxAddr>
     e0c:	90 93 ba 3a 	sts	0x3ABA, r25	; 0x803aba <serTxAddr+0x1>
        USART0_CTRLA |= USART_DREIE_bm;
     e10:	80 91 05 08 	lds	r24, 0x0805	; 0x800805 <__TEXT_REGION_LENGTH__+0x700805>
     e14:	80 62       	ori	r24, 0x20	; 32
     e16:	80 93 05 08 	sts	0x0805, r24	; 0x800805 <__TEXT_REGION_LENGTH__+0x700805>
     e1a:	05 c0       	rjmp	.+10     	; 0xe26 <__vector_13+0x4e>
    } else {
        serTxDone = 1;
     e1c:	81 e0       	ldi	r24, 0x01	; 1
     e1e:	80 93 0a 38 	sts	0x380A, r24	; 0x80380a <serTxDone>
        TCB0_INTCTRL = 0x00;
     e22:	10 92 45 0a 	sts	0x0A45, r1	; 0x800a45 <__TEXT_REGION_LENGTH__+0x700a45>
    }
    TCB0_INTFLAGS = TCB_CAPT_bm;
     e26:	81 e0       	ldi	r24, 0x01	; 1
     e28:	80 93 46 0a 	sts	0x0A46, r24	; 0x800a46 <__TEXT_REGION_LENGTH__+0x700a46>
}
     e2c:	ff 91       	pop	r31
     e2e:	ef 91       	pop	r30
     e30:	9f 91       	pop	r25
     e32:	8f 91       	pop	r24
     e34:	0f 90       	pop	r0
     e36:	0f be       	out	0x3f, r0	; 63
     e38:	0f 90       	pop	r0
     e3a:	1f 90       	pop	r1
     e3c:	18 95       	reti

00000e3e <__vector_14>:

// TCB1 is used for audio generation. Keeps playing "data" until 0 is reached. Audio sample data can contain 0x01 to 0xFF, centered around 0x80
ISR(TCB1_INT_vect){
     e3e:	1f 92       	push	r1
     e40:	0f 92       	push	r0
     e42:	0f b6       	in	r0, 0x3f	; 63
     e44:	0f 92       	push	r0
     e46:	11 24       	eor	r1, r1
     e48:	2f 93       	push	r18
     e4a:	3f 93       	push	r19
     e4c:	4f 93       	push	r20
     e4e:	8f 93       	push	r24
     e50:	9f 93       	push	r25
     e52:	ef 93       	push	r30
     e54:	ff 93       	push	r31
    int16_t volCtrl;
    if (*auSmpAddr == 0) auSmpAddr = auRepAddr;
     e56:	e0 91 07 38 	lds	r30, 0x3807	; 0x803807 <auSmpAddr>
     e5a:	f0 91 08 38 	lds	r31, 0x3808	; 0x803808 <auSmpAddr+0x1>
     e5e:	80 81       	ld	r24, Z
     e60:	81 11       	cpse	r24, r1
     e62:	08 c0       	rjmp	.+16     	; 0xe74 <__vector_14+0x36>
     e64:	80 91 05 38 	lds	r24, 0x3805	; 0x803805 <auRepAddr>
     e68:	90 91 06 38 	lds	r25, 0x3806	; 0x803806 <auRepAddr+0x1>
     e6c:	80 93 07 38 	sts	0x3807, r24	; 0x803807 <auSmpAddr>
     e70:	90 93 08 38 	sts	0x3808, r25	; 0x803808 <auSmpAddr+0x1>
    if (*auSmpAddr) {
     e74:	e0 91 07 38 	lds	r30, 0x3807	; 0x803807 <auSmpAddr>
     e78:	f0 91 08 38 	lds	r31, 0x3808	; 0x803808 <auSmpAddr+0x1>
     e7c:	80 81       	ld	r24, Z
     e7e:	88 23       	and	r24, r24
     e80:	e1 f0       	breq	.+56     	; 0xeba <__vector_14+0x7c>
        volCtrl = ((((int16_t)(*auSmpAddr) - 0x7f) * auVolume) >> 8) + 0x80;
     e82:	20 81       	ld	r18, Z
     e84:	40 91 b6 3a 	lds	r20, 0x3AB6	; 0x803ab6 <auVolume>
        DAC0_DATA = (uint8_t)(volCtrl);
     e88:	30 e0       	ldi	r19, 0x00	; 0
     e8a:	2f 57       	subi	r18, 0x7F	; 127
     e8c:	31 09       	sbc	r19, r1
     e8e:	42 9f       	mul	r20, r18
     e90:	c0 01       	movw	r24, r0
     e92:	43 9f       	mul	r20, r19
     e94:	90 0d       	add	r25, r0
     e96:	11 24       	eor	r1, r1
     e98:	89 2f       	mov	r24, r25
     e9a:	99 0f       	add	r25, r25
     e9c:	99 0b       	sbc	r25, r25
     e9e:	80 58       	subi	r24, 0x80	; 128
     ea0:	9f 4f       	sbci	r25, 0xFF	; 255
     ea2:	80 93 a1 06 	sts	0x06A1, r24	; 0x8006a1 <__TEXT_REGION_LENGTH__+0x7006a1>
        ++auSmpAddr;
     ea6:	80 91 07 38 	lds	r24, 0x3807	; 0x803807 <auSmpAddr>
     eaa:	90 91 08 38 	lds	r25, 0x3808	; 0x803808 <auSmpAddr+0x1>
     eae:	01 96       	adiw	r24, 0x01	; 1
     eb0:	80 93 07 38 	sts	0x3807, r24	; 0x803807 <auSmpAddr>
     eb4:	90 93 08 38 	sts	0x3808, r25	; 0x803808 <auSmpAddr+0x1>
     eb8:	06 c0       	rjmp	.+12     	; 0xec6 <__vector_14+0x88>
    } else {
        DAC0_DATA = 0x80;
     eba:	80 e8       	ldi	r24, 0x80	; 128
     ebc:	80 93 a1 06 	sts	0x06A1, r24	; 0x8006a1 <__TEXT_REGION_LENGTH__+0x7006a1>
        auPlayDone = 1;
     ec0:	81 e0       	ldi	r24, 0x01	; 1
     ec2:	80 93 f2 3a 	sts	0x3AF2, r24	; 0x803af2 <auPlayDone>
    }
    TCB1_INTFLAGS = TCB_CAPT_bm;
     ec6:	81 e0       	ldi	r24, 0x01	; 1
     ec8:	80 93 56 0a 	sts	0x0A56, r24	; 0x800a56 <__TEXT_REGION_LENGTH__+0x700a56>
}
     ecc:	ff 91       	pop	r31
     ece:	ef 91       	pop	r30
     ed0:	9f 91       	pop	r25
     ed2:	8f 91       	pop	r24
     ed4:	4f 91       	pop	r20
     ed6:	3f 91       	pop	r19
     ed8:	2f 91       	pop	r18
     eda:	0f 90       	pop	r0
     edc:	0f be       	out	0x3f, r0	; 63
     ede:	0f 90       	pop	r0
     ee0:	1f 90       	pop	r1
     ee2:	18 95       	reti

00000ee4 <__vector_27>:

// Reads up to RXLEN characters until LF is found, LF sets the serRxDone flag and writes 0 instead of LF.
ISR(USART0_RXC_vect){
     ee4:	1f 92       	push	r1
     ee6:	0f 92       	push	r0
     ee8:	0f b6       	in	r0, 0x3f	; 63
     eea:	0f 92       	push	r0
     eec:	11 24       	eor	r1, r1
     eee:	8f 93       	push	r24
     ef0:	ef 93       	push	r30
     ef2:	ff 93       	push	r31
    if (serRxDone == 0){
     ef4:	80 91 44 38 	lds	r24, 0x3844	; 0x803844 <serRxDone>
     ef8:	81 11       	cpse	r24, r1
     efa:	44 c0       	rjmp	.+136    	; 0xf84 <__vector_27+0xa0>
        serRx[RXCNT] = USART0.RXDATAL;
     efc:	ed b3       	in	r30, 0x1d	; 29
     efe:	f0 e0       	ldi	r31, 0x00	; 0
     f00:	80 91 00 08 	lds	r24, 0x0800	; 0x800800 <__TEXT_REGION_LENGTH__+0x700800>
     f04:	eb 58       	subi	r30, 0x8B	; 139
     f06:	f5 4c       	sbci	r31, 0xC5	; 197
     f08:	80 83       	st	Z, r24
        USART0_TXDATAL = serRx[RXCNT];
     f0a:	ed b3       	in	r30, 0x1d	; 29
     f0c:	f0 e0       	ldi	r31, 0x00	; 0
     f0e:	eb 58       	subi	r30, 0x8B	; 139
     f10:	f5 4c       	sbci	r31, 0xC5	; 197
     f12:	80 81       	ld	r24, Z
     f14:	80 93 02 08 	sts	0x0802, r24	; 0x800802 <__TEXT_REGION_LENGTH__+0x700802>
        if ((serRx[RXCNT] == 0x0A)||(serRx[RXCNT] == 0x0D)){
     f18:	ed b3       	in	r30, 0x1d	; 29
     f1a:	f0 e0       	ldi	r31, 0x00	; 0
     f1c:	eb 58       	subi	r30, 0x8B	; 139
     f1e:	f5 4c       	sbci	r31, 0xC5	; 197
     f20:	80 81       	ld	r24, Z
     f22:	8a 30       	cpi	r24, 0x0A	; 10
     f24:	39 f0       	breq	.+14     	; 0xf34 <__vector_27+0x50>
     f26:	ed b3       	in	r30, 0x1d	; 29
     f28:	f0 e0       	ldi	r31, 0x00	; 0
     f2a:	eb 58       	subi	r30, 0x8B	; 139
     f2c:	f5 4c       	sbci	r31, 0xC5	; 197
     f2e:	80 81       	ld	r24, Z
     f30:	8d 30       	cpi	r24, 0x0D	; 13
     f32:	49 f4       	brne	.+18     	; 0xf46 <__vector_27+0x62>
            serRx[RXCNT] = 0;
     f34:	ed b3       	in	r30, 0x1d	; 29
     f36:	f0 e0       	ldi	r31, 0x00	; 0
     f38:	eb 58       	subi	r30, 0x8B	; 139
     f3a:	f5 4c       	sbci	r31, 0xC5	; 197
     f3c:	10 82       	st	Z, r1
            serRxDone = 1;
     f3e:	81 e0       	ldi	r24, 0x01	; 1
     f40:	80 93 44 38 	sts	0x3844, r24	; 0x803844 <serRxDone>
     f44:	1f c0       	rjmp	.+62     	; 0xf84 <__vector_27+0xa0>
        } else if (((serRx[RXCNT] == 0x08)||(serRx[RXCNT] == 0x7F))&&(RXCNT > 0)) {
     f46:	ed b3       	in	r30, 0x1d	; 29
     f48:	f0 e0       	ldi	r31, 0x00	; 0
     f4a:	eb 58       	subi	r30, 0x8B	; 139
     f4c:	f5 4c       	sbci	r31, 0xC5	; 197
     f4e:	80 81       	ld	r24, Z
     f50:	88 30       	cpi	r24, 0x08	; 8
     f52:	39 f0       	breq	.+14     	; 0xf62 <__vector_27+0x7e>
     f54:	ed b3       	in	r30, 0x1d	; 29
     f56:	f0 e0       	ldi	r31, 0x00	; 0
     f58:	eb 58       	subi	r30, 0x8B	; 139
     f5a:	f5 4c       	sbci	r31, 0xC5	; 197
     f5c:	80 81       	ld	r24, Z
     f5e:	8f 37       	cpi	r24, 0x7F	; 127
     f60:	59 f4       	brne	.+22     	; 0xf78 <__vector_27+0x94>
     f62:	8d b3       	in	r24, 0x1d	; 29
     f64:	88 23       	and	r24, r24
     f66:	41 f0       	breq	.+16     	; 0xf78 <__vector_27+0x94>
            serRx[RXCNT] = 0;
     f68:	ed b3       	in	r30, 0x1d	; 29
     f6a:	f0 e0       	ldi	r31, 0x00	; 0
     f6c:	eb 58       	subi	r30, 0x8B	; 139
     f6e:	f5 4c       	sbci	r31, 0xC5	; 197
     f70:	10 82       	st	Z, r1
            --RXCNT;
     f72:	8d b3       	in	r24, 0x1d	; 29
     f74:	81 50       	subi	r24, 0x01	; 1
     f76:	05 c0       	rjmp	.+10     	; 0xf82 <__vector_27+0x9e>
        } else if (RXCNT < (RXLEN-1)) ++RXCNT;
     f78:	8d b3       	in	r24, 0x1d	; 29
     f7a:	80 34       	cpi	r24, 0x40	; 64
     f7c:	18 f4       	brcc	.+6      	; 0xf84 <__vector_27+0xa0>
     f7e:	8d b3       	in	r24, 0x1d	; 29
     f80:	8f 5f       	subi	r24, 0xFF	; 255
     f82:	8d bb       	out	0x1d, r24	; 29
    }
    USART0_STATUS = USART_RXCIF_bm;
     f84:	80 e8       	ldi	r24, 0x80	; 128
     f86:	80 93 04 08 	sts	0x0804, r24	; 0x800804 <__TEXT_REGION_LENGTH__+0x700804>
};
     f8a:	ff 91       	pop	r31
     f8c:	ef 91       	pop	r30
     f8e:	8f 91       	pop	r24
     f90:	0f 90       	pop	r0
     f92:	0f be       	out	0x3f, r0	; 63
     f94:	0f 90       	pop	r0
     f96:	1f 90       	pop	r1
     f98:	18 95       	reti

00000f9a <__vector_28>:

// Trigger new data write and turn off DRE interrupt.
ISR(USART0_DRE_vect){
     f9a:	1f 92       	push	r1
     f9c:	0f 92       	push	r0
     f9e:	0f b6       	in	r0, 0x3f	; 63
     fa0:	0f 92       	push	r0
     fa2:	11 24       	eor	r1, r1
     fa4:	8f 93       	push	r24
     fa6:	ef 93       	push	r30
     fa8:	ff 93       	push	r31
    TCB0_CNT = 0;
     faa:	10 92 4a 0a 	sts	0x0A4A, r1	; 0x800a4a <__TEXT_REGION_LENGTH__+0x700a4a>
     fae:	10 92 4b 0a 	sts	0x0A4B, r1	; 0x800a4b <__TEXT_REGION_LENGTH__+0x700a4b>
    TCB0_INTCTRL = 0x01;
     fb2:	81 e0       	ldi	r24, 0x01	; 1
     fb4:	80 93 45 0a 	sts	0x0A45, r24	; 0x800a45 <__TEXT_REGION_LENGTH__+0x700a45>
    USART0_CTRLA &= ~(USART_DREIE_bm);
     fb8:	e5 e0       	ldi	r30, 0x05	; 5
     fba:	f8 e0       	ldi	r31, 0x08	; 8
     fbc:	80 81       	ld	r24, Z
     fbe:	8f 7d       	andi	r24, 0xDF	; 223
     fc0:	80 83       	st	Z, r24
};
     fc2:	ff 91       	pop	r31
     fc4:	ef 91       	pop	r30
     fc6:	8f 91       	pop	r24
     fc8:	0f 90       	pop	r0
     fca:	0f be       	out	0x3f, r0	; 63
     fcc:	0f 90       	pop	r0
     fce:	1f 90       	pop	r1
     fd0:	18 95       	reti

00000fd2 <__vector_20>:

// ADC used for audio input and temperature sensor.
ISR(ADC0_RESRDY_vect){
     fd2:	1f 92       	push	r1
     fd4:	0f 92       	push	r0
     fd6:	0f b6       	in	r0, 0x3f	; 63
     fd8:	0f 92       	push	r0
     fda:	11 24       	eor	r1, r1
     fdc:	8f 93       	push	r24
     fde:	9f 93       	push	r25
     fe0:	ef 93       	push	r30
     fe2:	ff 93       	push	r31
    //If just switched reference, discard first few samples
    if (adc0Chg == 0){
     fe4:	80 91 37 38 	lds	r24, 0x3837	; 0x803837 <adc0Chg>
     fe8:	81 11       	cpse	r24, r1
     fea:	19 c0       	rjmp	.+50     	; 0x101e <__vector_20+0x4c>
        AUPOS = (AUPOS+1)&(AULEN-1);
     fec:	8e b3       	in	r24, 0x1e	; 30
     fee:	8f 5f       	subi	r24, 0xFF	; 255
     ff0:	87 70       	andi	r24, 0x07	; 7
     ff2:	8e bb       	out	0x1e, r24	; 30
        if (ADC0_MUXPOS == 0x1E) adcTemp = ADC0_RES; else auIn[AUPOS]=ADC0_RESL;
     ff4:	80 91 06 06 	lds	r24, 0x0606	; 0x800606 <__TEXT_REGION_LENGTH__+0x700606>
     ff8:	8e 31       	cpi	r24, 0x1E	; 30
     ffa:	49 f4       	brne	.+18     	; 0x100e <__vector_20+0x3c>
     ffc:	80 91 10 06 	lds	r24, 0x0610	; 0x800610 <__TEXT_REGION_LENGTH__+0x700610>
    1000:	90 91 11 06 	lds	r25, 0x0611	; 0x800611 <__TEXT_REGION_LENGTH__+0x700611>
    1004:	80 93 f5 3a 	sts	0x3AF5, r24	; 0x803af5 <adcTemp>
    1008:	90 93 f6 3a 	sts	0x3AF6, r25	; 0x803af6 <adcTemp+0x1>
    100c:	0d c0       	rjmp	.+26     	; 0x1028 <__vector_20+0x56>
    100e:	ee b3       	in	r30, 0x1e	; 30
    1010:	f0 e0       	ldi	r31, 0x00	; 0
    1012:	80 91 10 06 	lds	r24, 0x0610	; 0x800610 <__TEXT_REGION_LENGTH__+0x700610>
    1016:	ee 53       	subi	r30, 0x3E	; 62
    1018:	f5 4c       	sbci	r31, 0xC5	; 197
    101a:	80 83       	st	Z, r24
    101c:	05 c0       	rjmp	.+10     	; 0x1028 <__vector_20+0x56>
    } else --adc0Chg;
    101e:	80 91 37 38 	lds	r24, 0x3837	; 0x803837 <adc0Chg>
    1022:	81 50       	subi	r24, 0x01	; 1
    1024:	80 93 37 38 	sts	0x3837, r24	; 0x803837 <adc0Chg>
    ADC0_INTFLAGS = ADC_RESRDY_bm;
    1028:	81 e0       	ldi	r24, 0x01	; 1
    102a:	80 93 0b 06 	sts	0x060B, r24	; 0x80060b <__TEXT_REGION_LENGTH__+0x70060b>
}
    102e:	ff 91       	pop	r31
    1030:	ef 91       	pop	r30
    1032:	9f 91       	pop	r25
    1034:	8f 91       	pop	r24
    1036:	0f 90       	pop	r0
    1038:	0f be       	out	0x3f, r0	; 63
    103a:	0f 90       	pop	r0
    103c:	1f 90       	pop	r1
    103e:	18 95       	reti

00001040 <__vector_22>:

// Reads out sensors at 8Hz and buttons at 42Hz (timed by PIT), power for the sensors is on 1/8th of the time to save power.
ISR(ADC1_RESRDY_vect){
    1040:	1f 92       	push	r1
    1042:	0f 92       	push	r0
    1044:	0f b6       	in	r0, 0x3f	; 63
    1046:	0f 92       	push	r0
    1048:	11 24       	eor	r1, r1
    104a:	8f 93       	push	r24
    104c:	9f 93       	push	r25
    if (ADC1_MUXPOS == 0) {
    104e:	80 91 46 06 	lds	r24, 0x0646	; 0x800646 <__TEXT_REGION_LENGTH__+0x700646>
    1052:	81 11       	cpse	r24, r1
    1054:	0a c0       	rjmp	.+20     	; 0x106a <__vector_22+0x2a>
        adcPhot = ADC1_RES;
    1056:	80 91 50 06 	lds	r24, 0x0650	; 0x800650 <__TEXT_REGION_LENGTH__+0x700650>
    105a:	90 91 51 06 	lds	r25, 0x0651	; 0x800651 <__TEXT_REGION_LENGTH__+0x700651>
    105e:	80 93 bd 3a 	sts	0x3ABD, r24	; 0x803abd <adcPhot>
    1062:	90 93 be 3a 	sts	0x3ABE, r25	; 0x803abe <adcPhot+0x1>
        ADC1_MUXPOS = 0x01;             //Select Hall sensor
    1066:	81 e0       	ldi	r24, 0x01	; 1
    1068:	10 c0       	rjmp	.+32     	; 0x108a <__vector_22+0x4a>
    } else if (ADC1_MUXPOS == 1){
    106a:	80 91 46 06 	lds	r24, 0x0646	; 0x800646 <__TEXT_REGION_LENGTH__+0x700646>
    106e:	81 30       	cpi	r24, 0x01	; 1
    1070:	79 f4       	brne	.+30     	; 0x1090 <__vector_22+0x50>
        PORTA_OUTCLR = 0b00001000;      //Turn off sensor power
    1072:	88 e0       	ldi	r24, 0x08	; 8
    1074:	80 93 06 04 	sts	0x0406, r24	; 0x800406 <__TEXT_REGION_LENGTH__+0x700406>
        adcHall = ADC1_RES;
    1078:	80 91 50 06 	lds	r24, 0x0650	; 0x800650 <__TEXT_REGION_LENGTH__+0x700650>
    107c:	90 91 51 06 	lds	r25, 0x0651	; 0x800651 <__TEXT_REGION_LENGTH__+0x700651>
    1080:	80 93 bb 3a 	sts	0x3ABB, r24	; 0x803abb <adcHall>
    1084:	90 93 bc 3a 	sts	0x3ABC, r25	; 0x803abc <adcHall+0x1>
        ADC1_MUXPOS = 0x04;             //select buttons
    1088:	84 e0       	ldi	r24, 0x04	; 4
    108a:	80 93 46 06 	sts	0x0646, r24	; 0x800646 <__TEXT_REGION_LENGTH__+0x700646>
    108e:	10 c0       	rjmp	.+32     	; 0x10b0 <__vector_22+0x70>
    } else {
        adcBtns = ADC1_RES;
    1090:	80 91 50 06 	lds	r24, 0x0650	; 0x800650 <__TEXT_REGION_LENGTH__+0x700650>
    1094:	90 91 51 06 	lds	r25, 0x0651	; 0x800651 <__TEXT_REGION_LENGTH__+0x700651>
    1098:	80 93 b7 3a 	sts	0x3AB7, r24	; 0x803ab7 <adcBtns>
    109c:	90 93 b8 3a 	sts	0x3AB8, r25	; 0x803ab8 <adcBtns+0x1>
        if (A1CNT == 15){
    10a0:	8f b3       	in	r24, 0x1f	; 31
    10a2:	8f 30       	cpi	r24, 0x0F	; 15
    10a4:	29 f4       	brne	.+10     	; 0x10b0 <__vector_22+0x70>
            ADC1_MUXPOS = 0x00;         //Select photo transistor
    10a6:	10 92 46 06 	sts	0x0646, r1	; 0x800646 <__TEXT_REGION_LENGTH__+0x700646>
            PORTA_OUTSET = 0b00001000;  //Turn on sensor power
    10aa:	88 e0       	ldi	r24, 0x08	; 8
    10ac:	80 93 05 04 	sts	0x0405, r24	; 0x800405 <__TEXT_REGION_LENGTH__+0x700405>
        }
    }

    A1CNT=(A1CNT+1)%16;        
    10b0:	8f b3       	in	r24, 0x1f	; 31
    10b2:	90 e0       	ldi	r25, 0x00	; 0
    10b4:	01 96       	adiw	r24, 0x01	; 1
    10b6:	8f 70       	andi	r24, 0x0F	; 15
    10b8:	99 27       	eor	r25, r25
    10ba:	8f bb       	out	0x1f, r24	; 31
    ADC1_INTFLAGS = ADC_RESRDY_bm;
    10bc:	81 e0       	ldi	r24, 0x01	; 1
    10be:	80 93 4b 06 	sts	0x064B, r24	; 0x80064b <__TEXT_REGION_LENGTH__+0x70064b>
}
    10c2:	9f 91       	pop	r25
    10c4:	8f 91       	pop	r24
    10c6:	0f 90       	pop	r0
    10c8:	0f be       	out	0x3f, r0	; 63
    10ca:	0f 90       	pop	r0
    10cc:	1f 90       	pop	r1
    10ce:	18 95       	reti

000010d0 <__vector_6>:

// RTC compare interrupt, triggers at 512/BTN_TMR rate, also RTC overflow interrupt, triggers once a minute
ISR(RTC_CNT_vect) {
    10d0:	1f 92       	push	r1
    10d2:	0f 92       	push	r0
    10d4:	0f b6       	in	r0, 0x3f	; 63
    10d6:	0f 92       	push	r0
    10d8:	11 24       	eor	r1, r1
    10da:	2f 93       	push	r18
    10dc:	3f 93       	push	r19
    10de:	8f 93       	push	r24
    10e0:	9f 93       	push	r25
    if (RTC_INTFLAGS & RTC_CMP_bm){
    10e2:	80 91 43 01 	lds	r24, 0x0143	; 0x800143 <__TEXT_REGION_LENGTH__+0x700143>
    10e6:	81 ff       	sbrs	r24, 1
    10e8:	39 c0       	rjmp	.+114    	; 0x115c <__vector_6+0x8c>
        if (buttonMark<0xff) buttonMark++;   // For button timing purposes
    10ea:	80 91 42 38 	lds	r24, 0x3842	; 0x803842 <buttonMark>
    10ee:	8f 3f       	cpi	r24, 0xFF	; 255
    10f0:	29 f0       	breq	.+10     	; 0x10fc <__vector_6+0x2c>
    10f2:	80 91 42 38 	lds	r24, 0x3842	; 0x803842 <buttonMark>
    10f6:	8f 5f       	subi	r24, 0xFF	; 255
    10f8:	80 93 42 38 	sts	0x3842, r24	; 0x803842 <buttonMark>
        //tmp16bit = (RTC_CNT + BTN_TMR)%RTC_PER;
        tmp16bit = (RTC_CNT + BTN_TMR);
    10fc:	80 91 48 01 	lds	r24, 0x0148	; 0x800148 <__TEXT_REGION_LENGTH__+0x700148>
    1100:	90 91 49 01 	lds	r25, 0x0149	; 0x800149 <__TEXT_REGION_LENGTH__+0x700149>
    1104:	82 96       	adiw	r24, 0x22	; 34
    1106:	80 93 f7 3a 	sts	0x3AF7, r24	; 0x803af7 <tmp16bit>
    110a:	90 93 f8 3a 	sts	0x3AF8, r25	; 0x803af8 <tmp16bit+0x1>
        if (tmp16bit > RTC_PER) tmp16bit -= RTC_PER;
    110e:	20 91 4a 01 	lds	r18, 0x014A	; 0x80014a <__TEXT_REGION_LENGTH__+0x70014a>
    1112:	30 91 4b 01 	lds	r19, 0x014B	; 0x80014b <__TEXT_REGION_LENGTH__+0x70014b>
    1116:	80 91 f7 3a 	lds	r24, 0x3AF7	; 0x803af7 <tmp16bit>
    111a:	90 91 f8 3a 	lds	r25, 0x3AF8	; 0x803af8 <tmp16bit+0x1>
    111e:	28 17       	cp	r18, r24
    1120:	39 07       	cpc	r19, r25
    1122:	70 f4       	brcc	.+28     	; 0x1140 <__vector_6+0x70>
    1124:	20 91 4a 01 	lds	r18, 0x014A	; 0x80014a <__TEXT_REGION_LENGTH__+0x70014a>
    1128:	30 91 4b 01 	lds	r19, 0x014B	; 0x80014b <__TEXT_REGION_LENGTH__+0x70014b>
    112c:	80 91 f7 3a 	lds	r24, 0x3AF7	; 0x803af7 <tmp16bit>
    1130:	90 91 f8 3a 	lds	r25, 0x3AF8	; 0x803af8 <tmp16bit+0x1>
    1134:	82 1b       	sub	r24, r18
    1136:	93 0b       	sbc	r25, r19
    1138:	80 93 f7 3a 	sts	0x3AF7, r24	; 0x803af7 <tmp16bit>
    113c:	90 93 f8 3a 	sts	0x3AF8, r25	; 0x803af8 <tmp16bit+0x1>
        while(RTC_STATUS & RTC_CMPBUSY_bm);
    1140:	80 91 41 01 	lds	r24, 0x0141	; 0x800141 <__TEXT_REGION_LENGTH__+0x700141>
    1144:	83 fd       	sbrc	r24, 3
    1146:	fc cf       	rjmp	.-8      	; 0x1140 <__vector_6+0x70>
        RTC_CMP = tmp16bit;                 // Button timing: next interrupt set
    1148:	80 91 f7 3a 	lds	r24, 0x3AF7	; 0x803af7 <tmp16bit>
    114c:	90 91 f8 3a 	lds	r25, 0x3AF8	; 0x803af8 <tmp16bit+0x1>
    1150:	80 93 4c 01 	sts	0x014C, r24	; 0x80014c <__TEXT_REGION_LENGTH__+0x70014c>
    1154:	90 93 4d 01 	sts	0x014D, r25	; 0x80014d <__TEXT_REGION_LENGTH__+0x70014d>
        RTC_INTFLAGS = RTC_CMP_bm;		    // clear interrupt flag
    1158:	82 e0       	ldi	r24, 0x02	; 2
    115a:	06 c0       	rjmp	.+12     	; 0x1168 <__vector_6+0x98>
    } else {
        minuteMark++;                       // For very slow timing purposes, overflows to 0
    115c:	80 91 43 38 	lds	r24, 0x3843	; 0x803843 <minuteMark>
    1160:	8f 5f       	subi	r24, 0xFF	; 255
    1162:	80 93 43 38 	sts	0x3843, r24	; 0x803843 <minuteMark>
        RTC_INTFLAGS = RTC_OVF_bm;		    // clear interrupt flag
    1166:	81 e0       	ldi	r24, 0x01	; 1
    1168:	80 93 43 01 	sts	0x0143, r24	; 0x800143 <__TEXT_REGION_LENGTH__+0x700143>
    }
}
    116c:	9f 91       	pop	r25
    116e:	8f 91       	pop	r24
    1170:	3f 91       	pop	r19
    1172:	2f 91       	pop	r18
    1174:	0f 90       	pop	r0
    1176:	0f be       	out	0x3f, r0	; 63
    1178:	0f 90       	pop	r0
    117a:	1f 90       	pop	r1
    117c:	18 95       	reti

0000117e <__vector_7>:

// PIT interrupt (timing of ADC1: sensor values)
ISR(RTC_PIT_vect) {						// PIT interrupt handling code
    117e:	1f 92       	push	r1
    1180:	0f 92       	push	r0
    1182:	0f b6       	in	r0, 0x3f	; 63
    1184:	0f 92       	push	r0
    1186:	11 24       	eor	r1, r1
    1188:	8f 93       	push	r24
    ADC1_COMMAND = 0x01;
    118a:	81 e0       	ldi	r24, 0x01	; 1
    118c:	80 93 48 06 	sts	0x0648, r24	; 0x800648 <__TEXT_REGION_LENGTH__+0x700648>
    RTC_PITINTFLAGS = RTC_PI_bm;		// clear interrupt flag
    1190:	80 93 53 01 	sts	0x0153, r24	; 0x800153 <__TEXT_REGION_LENGTH__+0x700153>
}
    1194:	8f 91       	pop	r24
    1196:	0f 90       	pop	r0
    1198:	0f be       	out	0x3f, r0	; 63
    119a:	0f 90       	pop	r0
    119c:	1f 90       	pop	r1
    119e:	18 95       	reti

000011a0 <EERead>:

// Read bytes from EEPROM
void EERead(uint8_t eeAddr, uint8_t *eeValues, uint8_t size)
{
    while(NVMCTRL_STATUS & NVMCTRL_EEBUSY_bm);              // Wait until any write operation has finished
    11a0:	90 91 02 10 	lds	r25, 0x1002	; 0x801002 <__TEXT_REGION_LENGTH__+0x701002>
    11a4:	91 fd       	sbrc	r25, 1
    11a6:	fc cf       	rjmp	.-8      	; 0x11a0 <EERead>
    11a8:	fb 01       	movw	r30, r22
    11aa:	48 0f       	add	r20, r24

    while(size){
    11ac:	84 17       	cp	r24, r20
    11ae:	39 f0       	breq	.+14     	; 0x11be <EERead+0x1e>
        *eeValues++ = *(uint8_t *)(EEPROM_START+eeAddr++);  // Read data from buffer
    11b0:	a8 2f       	mov	r26, r24
    11b2:	b0 e0       	ldi	r27, 0x00	; 0
    11b4:	bc 5e       	subi	r27, 0xEC	; 236
    11b6:	9c 91       	ld	r25, X
    11b8:	91 93       	st	Z+, r25
    11ba:	8f 5f       	subi	r24, 0xFF	; 255
    11bc:	f7 cf       	rjmp	.-18     	; 0x11ac <EERead+0xc>
        --size;
    }
}
    11be:	08 95       	ret

000011c0 <EEWrite>:
{
    uint8_t lastByteOfPage;
    while(size){
        lastByteOfPage = 0;
        while(NVMCTRL_STATUS & NVMCTRL_EEBUSY_bm);              // Wait until any write operation has finished
        CCP = CCP_SPM_gc;                                       // Gain access to NVMCTRL_CTRLA
    11c0:	9d e9       	ldi	r25, 0x9D	; 157
        NVMCTRL_CTRLA = NVMCTRL_CMD_PAGEBUFCLR_gc;              // Clear page buffer
    11c2:	24 e0       	ldi	r18, 0x04	; 4
            if ((eeAddr % EEPROM_PAGE_SIZE) == (EEPROM_PAGE_SIZE-1)) lastByteOfPage = 1;
            *(uint8_t *)(EEPROM_START+eeAddr++) = *eeValues++;  // Write data to buffer
            --size;
        }
        CCP = CCP_SPM_gc;
        NVMCTRL_CTRLA = NVMCTRL_CMD_PAGEERASEWRITE_gc;          // Erase old data and write new data to EEPROM
    11c4:	33 e0       	ldi	r19, 0x03	; 3

// Write bytes to the EEPROM, if address exceeds EEPROM space data wraps around
uint8_t EEWrite(uint8_t eeAddr, uint8_t *eeValues, uint8_t size)
{
    uint8_t lastByteOfPage;
    while(size){
    11c6:	44 23       	and	r20, r20
    11c8:	09 f1       	breq	.+66     	; 0x120c <EEWrite+0x4c>
        lastByteOfPage = 0;
        while(NVMCTRL_STATUS & NVMCTRL_EEBUSY_bm);              // Wait until any write operation has finished
    11ca:	50 91 02 10 	lds	r21, 0x1002	; 0x801002 <__TEXT_REGION_LENGTH__+0x701002>
    11ce:	51 fd       	sbrc	r21, 1
    11d0:	fc cf       	rjmp	.-8      	; 0x11ca <EEWrite+0xa>
        CCP = CCP_SPM_gc;                                       // Gain access to NVMCTRL_CTRLA
    11d2:	94 bf       	out	0x34, r25	; 52
        NVMCTRL_CTRLA = NVMCTRL_CMD_PAGEBUFCLR_gc;              // Clear page buffer
    11d4:	20 93 00 10 	sts	0x1000, r18	; 0x801000 <__TEXT_REGION_LENGTH__+0x701000>
    11d8:	e8 2f       	mov	r30, r24
        while((size) && (lastByteOfPage == 0)){
            if ((eeAddr % EEPROM_PAGE_SIZE) == (EEPROM_PAGE_SIZE-1)) lastByteOfPage = 1;
    11da:	58 2f       	mov	r21, r24
    11dc:	5f 71       	andi	r21, 0x1F	; 31
            *(uint8_t *)(EEPROM_START+eeAddr++) = *eeValues++;  // Write data to buffer
    11de:	8f 5f       	subi	r24, 0xFF	; 255
    11e0:	6f 5f       	subi	r22, 0xFF	; 255
    11e2:	7f 4f       	sbci	r23, 0xFF	; 255
    11e4:	db 01       	movw	r26, r22
    11e6:	11 97       	sbiw	r26, 0x01	; 1
    11e8:	ac 91       	ld	r26, X
    11ea:	f0 e0       	ldi	r31, 0x00	; 0
    11ec:	fc 5e       	subi	r31, 0xEC	; 236
    11ee:	a0 83       	st	Z, r26
            --size;
    11f0:	41 50       	subi	r20, 0x01	; 1
    while(size){
        lastByteOfPage = 0;
        while(NVMCTRL_STATUS & NVMCTRL_EEBUSY_bm);              // Wait until any write operation has finished
        CCP = CCP_SPM_gc;                                       // Gain access to NVMCTRL_CTRLA
        NVMCTRL_CTRLA = NVMCTRL_CMD_PAGEBUFCLR_gc;              // Clear page buffer
        while((size) && (lastByteOfPage == 0)){
    11f2:	19 f0       	breq	.+6      	; 0x11fa <EEWrite+0x3a>
            if ((eeAddr % EEPROM_PAGE_SIZE) == (EEPROM_PAGE_SIZE-1)) lastByteOfPage = 1;
            *(uint8_t *)(EEPROM_START+eeAddr++) = *eeValues++;  // Write data to buffer
    11f4:	e8 2f       	mov	r30, r24
    while(size){
        lastByteOfPage = 0;
        while(NVMCTRL_STATUS & NVMCTRL_EEBUSY_bm);              // Wait until any write operation has finished
        CCP = CCP_SPM_gc;                                       // Gain access to NVMCTRL_CTRLA
        NVMCTRL_CTRLA = NVMCTRL_CMD_PAGEBUFCLR_gc;              // Clear page buffer
        while((size) && (lastByteOfPage == 0)){
    11f6:	5f 31       	cpi	r21, 0x1F	; 31
    11f8:	81 f7       	brne	.-32     	; 0x11da <EEWrite+0x1a>
            if ((eeAddr % EEPROM_PAGE_SIZE) == (EEPROM_PAGE_SIZE-1)) lastByteOfPage = 1;
            *(uint8_t *)(EEPROM_START+eeAddr++) = *eeValues++;  // Write data to buffer
            --size;
        }
        CCP = CCP_SPM_gc;
    11fa:	94 bf       	out	0x34, r25	; 52
        NVMCTRL_CTRLA = NVMCTRL_CMD_PAGEERASEWRITE_gc;          // Erase old data and write new data to EEPROM
    11fc:	30 93 00 10 	sts	0x1000, r19	; 0x801000 <__TEXT_REGION_LENGTH__+0x701000>
        if (NVMCTRL_STATUS & NVMCTRL_WRERROR_bm) return 1;
    1200:	50 91 02 10 	lds	r21, 0x1002	; 0x801002 <__TEXT_REGION_LENGTH__+0x701002>
    1204:	52 ff       	sbrs	r21, 2
    1206:	df cf       	rjmp	.-66     	; 0x11c6 <EEWrite+0x6>
    1208:	81 e0       	ldi	r24, 0x01	; 1
    }
    return 0;
}
    120a:	08 95       	ret
        }
        CCP = CCP_SPM_gc;
        NVMCTRL_CTRLA = NVMCTRL_CMD_PAGEERASEWRITE_gc;          // Erase old data and write new data to EEPROM
        if (NVMCTRL_STATUS & NVMCTRL_WRERROR_bm) return 1;
    }
    return 0;
    120c:	80 e0       	ldi	r24, 0x00	; 0
    120e:	08 95       	ret

00001210 <SerSend>:
}

// Sends a set of characters to the serial port, stops only when character value 0 is reached.
uint8_t SerSend(unsigned char *addr){
    if (serTxDone){
    1210:	20 91 0a 38 	lds	r18, 0x380A	; 0x80380a <serTxDone>
    1214:	22 23       	and	r18, r18
    1216:	59 f0       	breq	.+22     	; 0x122e <SerSend+0x1e>
        serTxAddr = addr;
    1218:	80 93 b9 3a 	sts	0x3AB9, r24	; 0x803ab9 <serTxAddr>
    121c:	90 93 ba 3a 	sts	0x3ABA, r25	; 0x803aba <serTxAddr+0x1>
        serTxDone = 0;
    1220:	10 92 0a 38 	sts	0x380A, r1	; 0x80380a <serTxDone>
        TCB0_INTCTRL = 0x01;
    1224:	81 e0       	ldi	r24, 0x01	; 1
    1226:	80 93 45 0a 	sts	0x0A45, r24	; 0x800a45 <__TEXT_REGION_LENGTH__+0x700a45>
        return 0;
    122a:	80 e0       	ldi	r24, 0x00	; 0
    122c:	08 95       	ret
    } else return 1;    //Error: Still sending data
    122e:	81 e0       	ldi	r24, 0x01	; 1
};
    1230:	08 95       	ret

00001232 <SerSpeed>:

// Set serial character output speed, 255-0 (0.8 to 100ms delay between characters)
void SerSpeed(uint8_t serSpd){
    1232:	28 2f       	mov	r18, r24
    if (serSpd<1) serSpd = 1;
    1234:	81 11       	cpse	r24, r1
    1236:	01 c0       	rjmp	.+2      	; 0x123a <SerSpeed+0x8>
    1238:	21 e0       	ldi	r18, 0x01	; 1
    TCB0_CCMP = ((uint16_t)(0xFF-serSpd)<<8) + 0xFF;
    123a:	8f ef       	ldi	r24, 0xFF	; 255
    123c:	90 e0       	ldi	r25, 0x00	; 0
    123e:	82 1b       	sub	r24, r18
    1240:	91 09       	sbc	r25, r1
    1242:	98 2f       	mov	r25, r24
    1244:	88 27       	eor	r24, r24
    1246:	81 50       	subi	r24, 0x01	; 1
    1248:	9f 4f       	sbci	r25, 0xFF	; 255
    124a:	80 93 4c 0a 	sts	0x0A4C, r24	; 0x800a4c <__TEXT_REGION_LENGTH__+0x700a4c>
    124e:	90 93 4d 0a 	sts	0x0A4D, r25	; 0x800a4d <__TEXT_REGION_LENGTH__+0x700a4d>
    1252:	08 95       	ret

00001254 <SelectTSens>:
};

// Select temperature sensor
void SelectTSens(){
     VREF_CTRLA   = 0x12;    //0x22 for audio in/out (2.5V), 0x12 for temperature in, audio out (1.1V/2.5V)
    1254:	82 e1       	ldi	r24, 0x12	; 18
    1256:	80 93 a0 00 	sts	0x00A0, r24	; 0x8000a0 <__TEXT_REGION_LENGTH__+0x7000a0>
     ADC0_CTRLA   &= ~(ADC_RESSEL_bm);
    125a:	e0 e0       	ldi	r30, 0x00	; 0
    125c:	f6 e0       	ldi	r31, 0x06	; 6
    125e:	80 81       	ld	r24, Z
    1260:	8b 7f       	andi	r24, 0xFB	; 251
    1262:	80 83       	st	Z, r24
     ADC0_MUXPOS  = 0x1E;    //Audio in: AIN7 at (0x07), Temperature: Internal sensor at (0x1E)
    1264:	8e e1       	ldi	r24, 0x1E	; 30
    1266:	80 93 06 06 	sts	0x0606, r24	; 0x800606 <__TEXT_REGION_LENGTH__+0x700606>
     adc0Chg = 3;
    126a:	83 e0       	ldi	r24, 0x03	; 3
    126c:	80 93 37 38 	sts	0x3837, r24	; 0x803837 <adc0Chg>
    1270:	08 95       	ret

00001272 <SelectAuIn>:
};

// Select "audio" input (0-2.5V)
void SelectAuIn(){
     VREF_CTRLA   = 0x22;    //0x22 for audio in/out (2.5V), 0x12 for temperature in, audio out (1.1V/2.5V)
    1272:	82 e2       	ldi	r24, 0x22	; 34
    1274:	80 93 a0 00 	sts	0x00A0, r24	; 0x8000a0 <__TEXT_REGION_LENGTH__+0x7000a0>
     ADC0_CTRLA   |= ADC_RESSEL_bm;
    1278:	e0 e0       	ldi	r30, 0x00	; 0
    127a:	f6 e0       	ldi	r31, 0x06	; 6
    127c:	80 81       	ld	r24, Z
    127e:	84 60       	ori	r24, 0x04	; 4
    1280:	80 83       	st	Z, r24
     ADC0_MUXPOS  = 0x07;    //Audio in: AIN7 at (0x07), Temperature: Internal sensor at (0x1E)
    1282:	87 e0       	ldi	r24, 0x07	; 7
    1284:	80 93 06 06 	sts	0x0606, r24	; 0x800606 <__TEXT_REGION_LENGTH__+0x700606>
     adc0Chg = 3;
    1288:	83 e0       	ldi	r24, 0x03	; 3
    128a:	80 93 37 38 	sts	0x3837, r24	; 0x803837 <adc0Chg>
    128e:	08 95       	ret

00001290 <CheckButtons>:
};

// Returns button combination (4LSB) and number of consecutive times this combination is detected. First read should always be ignored! 
uint8_t CheckButtons(uint8_t previousValue){
    uint8_t bADC = (uint8_t)(adcBtns>>4);
    1290:	20 91 b7 3a 	lds	r18, 0x3AB7	; 0x803ab7 <adcBtns>
    1294:	30 91 b8 3a 	lds	r19, 0x3AB8	; 0x803ab8 <adcBtns+0x1>
    uint8_t bNibble = 0x0F;     //MSB to LSB: Bottom left, top left, top right, bottom right, 0F is error
    
    switch(bADC){
    1298:	94 e0       	ldi	r25, 0x04	; 4
    129a:	36 95       	lsr	r19
    129c:	27 95       	ror	r18
    129e:	9a 95       	dec	r25
    12a0:	e1 f7       	brne	.-8      	; 0x129a <CheckButtons+0xa>
    12a2:	33 27       	eor	r19, r19
    12a4:	2c 35       	cpi	r18, 0x5C	; 92
    12a6:	31 05       	cpc	r19, r1
    12a8:	d0 f4       	brcc	.+52     	; 0x12de <CheckButtons+0x4e>
    12aa:	23 35       	cpi	r18, 0x53	; 83
    12ac:	31 05       	cpc	r19, r1
    12ae:	a8 f5       	brcc	.+106    	; 0x131a <CheckButtons+0x8a>
    12b0:	22 33       	cpi	r18, 0x32	; 50
    12b2:	31 05       	cpc	r19, r1
    12b4:	50 f4       	brcc	.+20     	; 0x12ca <CheckButtons+0x3a>
    12b6:	2d 32       	cpi	r18, 0x2D	; 45
    12b8:	31 05       	cpc	r19, r1
    12ba:	58 f5       	brcc	.+86     	; 0x1312 <CheckButtons+0x82>
    12bc:	23 52       	subi	r18, 0x23	; 35
    12be:	31 09       	sbc	r19, r1
    12c0:	25 30       	cpi	r18, 0x05	; 5
    12c2:	31 05       	cpc	r19, r1
    12c4:	80 f5       	brcc	.+96     	; 0x1326 <CheckButtons+0x96>

        case 35 ... 39:          //37: Both left
        bNibble = 0b1100;
    12c6:	9c e0       	ldi	r25, 0x0C	; 12
    12c8:	2f c0       	rjmp	.+94     	; 0x1328 <CheckButtons+0x98>
// Returns button combination (4LSB) and number of consecutive times this combination is detected. First read should always be ignored! 
uint8_t CheckButtons(uint8_t previousValue){
    uint8_t bADC = (uint8_t)(adcBtns>>4);
    uint8_t bNibble = 0x0F;     //MSB to LSB: Bottom left, top left, top right, bottom right, 0F is error
    
    switch(bADC){
    12ca:	27 33       	cpi	r18, 0x37	; 55
    12cc:	31 05       	cpc	r19, r1
    12ce:	18 f1       	brcs	.+70     	; 0x1316 <CheckButtons+0x86>
    12d0:	2e 53       	subi	r18, 0x3E	; 62
    12d2:	31 09       	sbc	r19, r1
    12d4:	27 30       	cpi	r18, 0x07	; 7
    12d6:	31 05       	cpc	r19, r1
    12d8:	30 f5       	brcc	.+76     	; 0x1326 <CheckButtons+0x96>
        case 50 ... 54:          //52: Bottom left
        bNibble = 0b1000;
        break;

        case 62 ... 68:          //65: Both top
        bNibble = 0b0110;
    12da:	96 e0       	ldi	r25, 0x06	; 6
        break;
    12dc:	25 c0       	rjmp	.+74     	; 0x1328 <CheckButtons+0x98>
// Returns button combination (4LSB) and number of consecutive times this combination is detected. First read should always be ignored! 
uint8_t CheckButtons(uint8_t previousValue){
    uint8_t bADC = (uint8_t)(adcBtns>>4);
    uint8_t bNibble = 0x0F;     //MSB to LSB: Bottom left, top left, top right, bottom right, 0F is error
    
    switch(bADC){
    12de:	2a 38       	cpi	r18, 0x8A	; 138
    12e0:	31 05       	cpc	r19, r1
    12e2:	50 f4       	brcc	.+20     	; 0x12f8 <CheckButtons+0x68>
    12e4:	29 37       	cpi	r18, 0x79	; 121
    12e6:	31 05       	cpc	r19, r1
    12e8:	d0 f4       	brcc	.+52     	; 0x131e <CheckButtons+0x8e>
    12ea:	23 56       	subi	r18, 0x63	; 99
    12ec:	31 09       	sbc	r19, r1
    12ee:	2b 30       	cpi	r18, 0x0B	; 11
    12f0:	31 05       	cpc	r19, r1
    12f2:	c8 f4       	brcc	.+50     	; 0x1326 <CheckButtons+0x96>
        case 83 ... 91:          //87: Top left
        bNibble = 0b0100;
        break;

        case 99 ... 109:         //104: Both right
        bNibble = 0b0011;
    12f4:	93 e0       	ldi	r25, 0x03	; 3
        break;
    12f6:	18 c0       	rjmp	.+48     	; 0x1328 <CheckButtons+0x98>
// Returns button combination (4LSB) and number of consecutive times this combination is detected. First read should always be ignored! 
uint8_t CheckButtons(uint8_t previousValue){
    uint8_t bADC = (uint8_t)(adcBtns>>4);
    uint8_t bNibble = 0x0F;     //MSB to LSB: Bottom left, top left, top right, bottom right, 0F is error
    
    switch(bADC){
    12f8:	22 3a       	cpi	r18, 0xA2	; 162
    12fa:	31 05       	cpc	r19, r1
    12fc:	a0 f0       	brcs	.+40     	; 0x1326 <CheckButtons+0x96>
    12fe:	2b 3b       	cpi	r18, 0xBB	; 187
    1300:	31 05       	cpc	r19, r1
    1302:	78 f0       	brcs	.+30     	; 0x1322 <CheckButtons+0x92>
    1304:	20 5f       	subi	r18, 0xF0	; 240
    1306:	31 09       	sbc	r19, r1
    1308:	20 31       	cpi	r18, 0x10	; 16
    130a:	31 05       	cpc	r19, r1
    130c:	60 f4       	brcc	.+24     	; 0x1326 <CheckButtons+0x96>
        case 162 ... 186:        //174: Bottom right
        bNibble = 0b0001;
        break;

        case 240 ... 255:        //255: No button pressed
        bNibble = 0b0000;
    130e:	90 e0       	ldi	r25, 0x00	; 0
        break;
    1310:	0b c0       	rjmp	.+22     	; 0x1328 <CheckButtons+0x98>
        case 35 ... 39:          //37: Both left
        bNibble = 0b1100;
        break;

        case 45 ... 49:          //47: Both bottom
        bNibble = 0b1001;
    1312:	99 e0       	ldi	r25, 0x09	; 9
        break;
    1314:	09 c0       	rjmp	.+18     	; 0x1328 <CheckButtons+0x98>

        case 50 ... 54:          //52: Bottom left
        bNibble = 0b1000;
    1316:	98 e0       	ldi	r25, 0x08	; 8
        break;
    1318:	07 c0       	rjmp	.+14     	; 0x1328 <CheckButtons+0x98>
        case 62 ... 68:          //65: Both top
        bNibble = 0b0110;
        break;

        case 83 ... 91:          //87: Top left
        bNibble = 0b0100;
    131a:	94 e0       	ldi	r25, 0x04	; 4
        break;
    131c:	05 c0       	rjmp	.+10     	; 0x1328 <CheckButtons+0x98>
        case 99 ... 109:         //104: Both right
        bNibble = 0b0011;
        break;

        case 121 ... 137:        //129: Top right
        bNibble = 0b0010;
    131e:	92 e0       	ldi	r25, 0x02	; 2
        break;
    1320:	03 c0       	rjmp	.+6      	; 0x1328 <CheckButtons+0x98>

        case 162 ... 186:        //174: Bottom right
        bNibble = 0b0001;
    1322:	91 e0       	ldi	r25, 0x01	; 1
        break;
    1324:	01 c0       	rjmp	.+2      	; 0x1328 <CheckButtons+0x98>
};

// Returns button combination (4LSB) and number of consecutive times this combination is detected. First read should always be ignored! 
uint8_t CheckButtons(uint8_t previousValue){
    uint8_t bADC = (uint8_t)(adcBtns>>4);
    uint8_t bNibble = 0x0F;     //MSB to LSB: Bottom left, top left, top right, bottom right, 0F is error
    1326:	9f e0       	ldi	r25, 0x0F	; 15
        case 240 ... 255:        //255: No button pressed
        bNibble = 0b0000;
        break;
    }

    if ((previousValue&0x0F)==bNibble){
    1328:	28 2f       	mov	r18, r24
    132a:	2f 70       	andi	r18, 0x0F	; 15
    132c:	92 13       	cpse	r25, r18
    132e:	06 c0       	rjmp	.+12     	; 0x133c <CheckButtons+0xac>
        if ((previousValue&0xF0) < 0xF0) previousValue += 0x10; //Same value? Increase time nibble
    1330:	98 2f       	mov	r25, r24
    1332:	90 7f       	andi	r25, 0xF0	; 240
    1334:	90 3f       	cpi	r25, 0xF0	; 240
    1336:	39 f0       	breq	.+14     	; 0x1346 <CheckButtons+0xb6>
    1338:	80 5f       	subi	r24, 0xF0	; 240
    133a:	08 95       	ret
        return previousValue;       
    } else if (bNibble == 0) return 0xFF; //Buttons released, 0xFF triggers readout, previousValue holds last button value.
    133c:	99 23       	and	r25, r25
    133e:	11 f0       	breq	.+4      	; 0x1344 <CheckButtons+0xb4>
    1340:	89 2f       	mov	r24, r25
    1342:	08 95       	ret
    1344:	8f ef       	ldi	r24, 0xFF	; 255
              else return bNibble;  //New value  
}
    1346:	08 95       	ret

00001348 <lfsr>:

uint8_t lfsr(){
    static uint16_t state = 0xd401;
    state ^= (state << 13);
    1348:	80 91 21 38 	lds	r24, 0x3821	; 0x803821 <state.3893>
    134c:	90 91 22 38 	lds	r25, 0x3822	; 0x803822 <state.3893+0x1>
    1350:	9c 01       	movw	r18, r24
    1352:	32 2f       	mov	r19, r18
    1354:	22 27       	eor	r18, r18
    1356:	32 95       	swap	r19
    1358:	33 0f       	add	r19, r19
    135a:	30 7e       	andi	r19, 0xE0	; 224
    135c:	82 27       	eor	r24, r18
    135e:	93 27       	eor	r25, r19
    state ^= (state >> 9);
    1360:	9c 01       	movw	r18, r24
    1362:	23 2f       	mov	r18, r19
    1364:	33 27       	eor	r19, r19
    1366:	26 95       	lsr	r18
    1368:	82 27       	eor	r24, r18
    136a:	93 27       	eor	r25, r19
    state ^= (state << 7);
    136c:	9c 01       	movw	r18, r24
    136e:	36 95       	lsr	r19
    1370:	32 2f       	mov	r19, r18
    1372:	22 27       	eor	r18, r18
    1374:	37 95       	ror	r19
    1376:	27 95       	ror	r18
    1378:	82 27       	eor	r24, r18
    137a:	93 27       	eor	r25, r19
    137c:	80 93 21 38 	sts	0x3821, r24	; 0x803821 <state.3893>
    1380:	90 93 22 38 	sts	0x3822, r25	; 0x803822 <state.3893+0x1>
    return (state & 0xff);
}
    1384:	08 95       	ret

00001386 <floatSpeed>:

void floatSpeed(uint8_t bits, uint16_t min, uint16_t max){
    1386:	df 92       	push	r13
    1388:	ef 92       	push	r14
    138a:	ff 92       	push	r15
    138c:	0f 93       	push	r16
    138e:	1f 93       	push	r17
    1390:	cf 93       	push	r28
    1392:	df 93       	push	r29
    1394:	7b 01       	movw	r14, r22
    1396:	8a 01       	movw	r16, r20
    uint16_t val = TCB1_CCMP;
    1398:	c0 91 5c 0a 	lds	r28, 0x0A5C	; 0x800a5c <__TEXT_REGION_LENGTH__+0x700a5c>
    139c:	d0 91 5d 0a 	lds	r29, 0x0A5D	; 0x800a5d <__TEXT_REGION_LENGTH__+0x700a5d>
    bits = mask[(bits-1)&0x07];
    13a0:	e8 2f       	mov	r30, r24
    13a2:	f0 e0       	ldi	r31, 0x00	; 0
    13a4:	31 97       	sbiw	r30, 0x01	; 1
    13a6:	e7 70       	andi	r30, 0x07	; 7
    13a8:	ff 27       	eor	r31, r31
    13aa:	ed 5d       	subi	r30, 0xDD	; 221
    13ac:	f7 4c       	sbci	r31, 0xC7	; 199
    13ae:	d0 80       	ld	r13, Z
    val += (lfsr()&bits);
    13b0:	cb df       	rcall	.-106    	; 0x1348 <lfsr>
    13b2:	8d 21       	and	r24, r13
    13b4:	c8 0f       	add	r28, r24
    13b6:	d1 1d       	adc	r29, r1
    val -= (lfsr()&bits);
    13b8:	c7 df       	rcall	.-114    	; 0x1348 <lfsr>
    13ba:	8d 21       	and	r24, r13
    13bc:	c8 1b       	sub	r28, r24
    13be:	d1 09       	sbc	r29, r1
    13c0:	0c 17       	cp	r16, r28
    13c2:	1d 07       	cpc	r17, r29
    13c4:	08 f4       	brcc	.+2      	; 0x13c8 <floatSpeed+0x42>
    13c6:	e8 01       	movw	r28, r16
    13c8:	c7 01       	movw	r24, r14
    13ca:	ec 16       	cp	r14, r28
    13cc:	fd 06       	cpc	r15, r29
    13ce:	08 f4       	brcc	.+2      	; 0x13d2 <floatSpeed+0x4c>
    13d0:	ce 01       	movw	r24, r28
    13d2:	80 93 5c 0a 	sts	0x0A5C, r24	; 0x800a5c <__TEXT_REGION_LENGTH__+0x700a5c>
    if (val > max) val = max;    
    if (val < min) val = min;  
    TCB1_CCMP = val;
    13d6:	90 93 5d 0a 	sts	0x0A5D, r25	; 0x800a5d <__TEXT_REGION_LENGTH__+0x700a5d>
    13da:	df 91       	pop	r29
}
    13dc:	cf 91       	pop	r28
    13de:	1f 91       	pop	r17
    13e0:	0f 91       	pop	r16
    13e2:	ff 90       	pop	r15
    13e4:	ef 90       	pop	r14
    13e6:	df 90       	pop	r13
    13e8:	08 95       	ret

000013ea <floatAround>:
    13ea:	0f 93       	push	r16

uint8_t floatAround(uint8_t sample, uint8_t bits, uint8_t min, uint8_t max){
    13ec:	1f 93       	push	r17
    13ee:	cf 93       	push	r28
    13f0:	df 93       	push	r29
    13f2:	c8 2f       	mov	r28, r24
    13f4:	d4 2f       	mov	r29, r20
    13f6:	02 2f       	mov	r16, r18
    bits = mask[(bits-1)&0x07];
    13f8:	e6 2f       	mov	r30, r22
    13fa:	f0 e0       	ldi	r31, 0x00	; 0
    13fc:	31 97       	sbiw	r30, 0x01	; 1
    13fe:	e7 70       	andi	r30, 0x07	; 7
    1400:	ff 27       	eor	r31, r31
    1402:	ed 5d       	subi	r30, 0xDD	; 221
    1404:	f7 4c       	sbci	r31, 0xC7	; 199
    1406:	10 81       	ld	r17, Z
    sample += lfsr()&bits;
    1408:	9f df       	rcall	.-194    	; 0x1348 <lfsr>
    140a:	81 23       	and	r24, r17
    140c:	c8 0f       	add	r28, r24
    sample -= lfsr()&bits;
    140e:	9c df       	rcall	.-200    	; 0x1348 <lfsr>
    1410:	81 23       	and	r24, r17
    1412:	c8 1b       	sub	r28, r24
    1414:	8c 2f       	mov	r24, r28
    1416:	00 23       	and	r16, r16
    if (max){
    1418:	41 f0       	breq	.+16     	; 0x142a <floatAround+0x40>
    141a:	9c 2f       	mov	r25, r28
    141c:	0c 17       	cp	r16, r28
    141e:	08 f4       	brcc	.+2      	; 0x1422 <floatAround+0x38>
    1420:	90 2f       	mov	r25, r16
    1422:	8d 2f       	mov	r24, r29
    1424:	d9 17       	cp	r29, r25
    1426:	08 f4       	brcc	.+2      	; 0x142a <floatAround+0x40>
    1428:	89 2f       	mov	r24, r25
    142a:	41 e0       	ldi	r20, 0x01	; 1
        if (sample > max) sample = max;
        if (sample < min) sample = min;
    }
    if (min & (sample < min)) sample = min;
    142c:	50 e0       	ldi	r21, 0x00	; 0
    142e:	8d 17       	cp	r24, r29
    1430:	10 f0       	brcs	.+4      	; 0x1436 <floatAround+0x4c>
    1432:	40 e0       	ldi	r20, 0x00	; 0
    1434:	50 e0       	ldi	r21, 0x00	; 0
    1436:	2d 2f       	mov	r18, r29
    1438:	30 e0       	ldi	r19, 0x00	; 0
    143a:	24 23       	and	r18, r20
    143c:	35 23       	and	r19, r21
    143e:	23 2b       	or	r18, r19
    1440:	09 f0       	breq	.+2      	; 0x1444 <floatAround+0x5a>
    1442:	8d 2f       	mov	r24, r29
    1444:	df 91       	pop	r29

    return sample;
}
    1446:	cf 91       	pop	r28
    1448:	1f 91       	pop	r17
    144a:	0f 91       	pop	r16
    144c:	08 95       	ret

0000144e <SaveGameState>:
    144e:	cf 92       	push	r12
    inventory[0] = (gameState[INVADDR]<<8|gameState[INVADDR+1]);
    inventory[1] = (gameState[INVADDR+2]<<8|gameState[INVADDR+3]);
}

//Save changed data to EEPROM
uint8_t SaveGameState(){
    1450:	df 92       	push	r13
    1452:	ff 92       	push	r15
    1454:	0f 93       	push	r16
    1456:	1f 93       	push	r17
    1458:	cf 93       	push	r28
    145a:	df 93       	push	r29
    145c:	cd b7       	in	r28, 0x3d	; 61
    145e:	de b7       	in	r29, 0x3e	; 62
    1460:	64 97       	sbiw	r28, 0x14	; 20
    1462:	cd bf       	out	0x3d, r28	; 61
    1464:	de bf       	out	0x3e, r29	; 62
    uint8_t gameCheck[BOOTCHK];

    //Read all data up to the boot/check result address from EEPROM
    EERead(0, &gameCheck[0], BOOTCHK);
    1466:	44 e1       	ldi	r20, 0x14	; 20
    1468:	be 01       	movw	r22, r28
    146a:	6f 5f       	subi	r22, 0xFF	; 255
    146c:	7f 4f       	sbci	r23, 0xFF	; 255
    146e:	80 e0       	ldi	r24, 0x00	; 0
    1470:	97 de       	rcall	.-722    	; 0x11a0 <EERead>
    1472:	81 e6       	ldi	r24, 0x61	; 97
    1474:	c8 2e       	mov	r12, r24
    1476:	8a e3       	ldi	r24, 0x3A	; 58
    1478:	d8 2e       	mov	r13, r24
    147a:	8e 01       	movw	r16, r28
    147c:	0f 5f       	subi	r16, 0xFF	; 255
    147e:	1f 4f       	sbci	r17, 0xFF	; 255

    //Check game status bits
    for (uint8_t x=0; x<STATLEN; ++x){
    1480:	f1 2c       	mov	r15, r1
        if (gameState[x] != gameCheck[x]){
    1482:	f8 01       	movw	r30, r16
    1484:	81 91       	ld	r24, Z+
    1486:	8f 01       	movw	r16, r30
    1488:	f6 01       	movw	r30, r12
    148a:	90 81       	ld	r25, Z
    148c:	98 13       	cpse	r25, r24
    148e:	08 c0       	rjmp	.+16     	; 0x14a0 <SaveGameState+0x52>

    //Read all data up to the boot/check result address from EEPROM
    EERead(0, &gameCheck[0], BOOTCHK);

    //Check game status bits
    for (uint8_t x=0; x<STATLEN; ++x){
    1490:	f3 94       	inc	r15
    1492:	ff ef       	ldi	r31, 0xFF	; 255
    1494:	cf 1a       	sub	r12, r31
    1496:	df 0a       	sbc	r13, r31
    1498:	80 e1       	ldi	r24, 0x10	; 16
    149a:	f8 12       	cpse	r15, r24
    149c:	f2 cf       	rjmp	.-28     	; 0x1482 <SaveGameState+0x34>
    149e:	08 c0       	rjmp	.+16     	; 0x14b0 <SaveGameState+0x62>
        if (gameState[x] != gameCheck[x]){
            if (EEWrite(x, &gameState[x], 1)) return 1;
    14a0:	41 e0       	ldi	r20, 0x01	; 1
    14a2:	b6 01       	movw	r22, r12
    14a4:	8f 2d       	mov	r24, r15
    14a6:	8c de       	rcall	.-744    	; 0x11c0 <EEWrite>
    14a8:	88 23       	and	r24, r24
    14aa:	91 f3       	breq	.-28     	; 0x1490 <SaveGameState+0x42>
    14ac:	91 e0       	ldi	r25, 0x01	; 1
    14ae:	36 c0       	rjmp	.+108    	; 0x151c <SaveGameState+0xce>
        }
    }

    //Check the inventory too
    gameState[INVADDR] = (uint8_t)(inventory[0]>>8);
    14b0:	20 91 3e 38 	lds	r18, 0x383E	; 0x80383e <inventory>
    14b4:	30 91 3f 38 	lds	r19, 0x383F	; 0x80383f <inventory+0x1>
    14b8:	30 93 71 3a 	sts	0x3A71, r19	; 0x803a71 <gameState+0x10>
    gameState[INVADDR+1] = (uint8_t)(inventory[0]&0xff);
    14bc:	20 93 72 3a 	sts	0x3A72, r18	; 0x803a72 <gameState+0x11>
    gameState[INVADDR+2] = (uint8_t)(inventory[1]>>8);
    14c0:	80 91 40 38 	lds	r24, 0x3840	; 0x803840 <inventory+0x2>
    14c4:	90 91 41 38 	lds	r25, 0x3841	; 0x803841 <inventory+0x3>
    14c8:	90 93 73 3a 	sts	0x3A73, r25	; 0x803a73 <gameState+0x12>
    gameState[INVADDR+3] = (uint8_t)(inventory[1]&0xff);
    14cc:	80 93 74 3a 	sts	0x3A74, r24	; 0x803a74 <gameState+0x13>
    if (inventory[0] != (gameCheck[INVADDR]<<8|gameCheck[INVADDR+1])) {
    14d0:	89 89       	ldd	r24, Y+17	; 0x11
    14d2:	9a 89       	ldd	r25, Y+18	; 0x12
    14d4:	98 27       	eor	r25, r24
    14d6:	89 27       	eor	r24, r25
    14d8:	98 27       	eor	r25, r24
    14da:	28 17       	cp	r18, r24
    14dc:	39 07       	cpc	r19, r25
    14de:	69 f4       	brne	.+26     	; 0x14fa <SaveGameState+0xac>
        if (EEWrite(INVADDR, &gameState[INVADDR], 2)) return 1;
    }
    if (inventory[1] != (gameCheck[INVADDR+2]<<8|gameCheck[INVADDR+3])) {
    14e0:	8b 89       	ldd	r24, Y+19	; 0x13
    14e2:	9c 89       	ldd	r25, Y+20	; 0x14
    14e4:	98 27       	eor	r25, r24
    14e6:	89 27       	eor	r24, r25
    14e8:	98 27       	eor	r25, r24
    14ea:	20 91 40 38 	lds	r18, 0x3840	; 0x803840 <inventory+0x2>
    14ee:	30 91 41 38 	lds	r19, 0x3841	; 0x803841 <inventory+0x3>
    14f2:	28 17       	cp	r18, r24
    14f4:	39 07       	cpc	r19, r25
    14f6:	49 f4       	brne	.+18     	; 0x150a <SaveGameState+0xbc>
    14f8:	10 c0       	rjmp	.+32     	; 0x151a <SaveGameState+0xcc>
    gameState[INVADDR] = (uint8_t)(inventory[0]>>8);
    gameState[INVADDR+1] = (uint8_t)(inventory[0]&0xff);
    gameState[INVADDR+2] = (uint8_t)(inventory[1]>>8);
    gameState[INVADDR+3] = (uint8_t)(inventory[1]&0xff);
    if (inventory[0] != (gameCheck[INVADDR]<<8|gameCheck[INVADDR+1])) {
        if (EEWrite(INVADDR, &gameState[INVADDR], 2)) return 1;
    14fa:	42 e0       	ldi	r20, 0x02	; 2
    14fc:	61 e7       	ldi	r22, 0x71	; 113
    14fe:	7a e3       	ldi	r23, 0x3A	; 58
    1500:	80 e1       	ldi	r24, 0x10	; 16
    1502:	5e de       	rcall	.-836    	; 0x11c0 <EEWrite>
    1504:	88 23       	and	r24, r24
    1506:	61 f3       	breq	.-40     	; 0x14e0 <SaveGameState+0x92>
    1508:	d1 cf       	rjmp	.-94     	; 0x14ac <SaveGameState+0x5e>
    }
    if (inventory[1] != (gameCheck[INVADDR+2]<<8|gameCheck[INVADDR+3])) {
        if (EEWrite(INVADDR+2, &gameState[INVADDR+2], 2)) return 1;
    150a:	42 e0       	ldi	r20, 0x02	; 2
    150c:	63 e7       	ldi	r22, 0x73	; 115
    150e:	7a e3       	ldi	r23, 0x3A	; 58
    1510:	82 e1       	ldi	r24, 0x12	; 18
    1512:	56 de       	rcall	.-852    	; 0x11c0 <EEWrite>
    EERead(0, &gameCheck[0], BOOTCHK);

    //Check game status bits
    for (uint8_t x=0; x<STATLEN; ++x){
        if (gameState[x] != gameCheck[x]){
            if (EEWrite(x, &gameState[x], 1)) return 1;
    1514:	91 e0       	ldi	r25, 0x01	; 1
    1516:	81 11       	cpse	r24, r1
    1518:	01 c0       	rjmp	.+2      	; 0x151c <SaveGameState+0xce>
    151a:	90 e0       	ldi	r25, 0x00	; 0
    if (inventory[1] != (gameCheck[INVADDR+2]<<8|gameCheck[INVADDR+3])) {
        if (EEWrite(INVADDR+2, &gameState[INVADDR+2], 2)) return 1;
    }

    return 0;
}
    151c:	89 2f       	mov	r24, r25
    151e:	64 96       	adiw	r28, 0x14	; 20
    1520:	cd bf       	out	0x3d, r28	; 61
    1522:	de bf       	out	0x3e, r29	; 62
    1524:	df 91       	pop	r29
    1526:	cf 91       	pop	r28
    1528:	1f 91       	pop	r17
    152a:	0f 91       	pop	r16
    152c:	ff 90       	pop	r15
    152e:	df 90       	pop	r13
    1530:	cf 90       	pop	r12
    1532:	08 95       	ret

00001534 <ReadStatusBit>:

uint8_t ReadStatusBit(uint8_t number){
    number &= 0x7f;
    if (gameState[number>>3] & (1<<(number&7))) return 1; else return 0;
    1534:	e8 2f       	mov	r30, r24
    1536:	ef 77       	andi	r30, 0x7F	; 127
    1538:	e6 95       	lsr	r30
    153a:	e6 95       	lsr	r30
    153c:	e6 95       	lsr	r30
    153e:	f0 e0       	ldi	r31, 0x00	; 0
    1540:	ef 59       	subi	r30, 0x9F	; 159
    1542:	f5 4c       	sbci	r31, 0xC5	; 197
    1544:	20 81       	ld	r18, Z
    1546:	30 e0       	ldi	r19, 0x00	; 0
    1548:	87 70       	andi	r24, 0x07	; 7
    154a:	a9 01       	movw	r20, r18
    154c:	02 c0       	rjmp	.+4      	; 0x1552 <ReadStatusBit+0x1e>
    154e:	55 95       	asr	r21
    1550:	47 95       	ror	r20
    1552:	8a 95       	dec	r24
    1554:	e2 f7       	brpl	.-8      	; 0x154e <ReadStatusBit+0x1a>
    1556:	ca 01       	movw	r24, r20
}
    1558:	81 70       	andi	r24, 0x01	; 1
    155a:	08 95       	ret

0000155c <WriteStatusBit>:

void WriteStatusBit(uint8_t number, uint8_t state){
    number &= 0x7f;
    155c:	e8 2f       	mov	r30, r24
    155e:	ef 77       	andi	r30, 0x7F	; 127
    1560:	e6 95       	lsr	r30
    1562:	e6 95       	lsr	r30
    1564:	e6 95       	lsr	r30
    1566:	28 2f       	mov	r18, r24
    1568:	27 70       	andi	r18, 0x07	; 7
    if (state) gameState[number>>3] |= 1<<(number&7);
    156a:	f0 e0       	ldi	r31, 0x00	; 0
    156c:	ef 59       	subi	r30, 0x9F	; 159
    156e:	f5 4c       	sbci	r31, 0xC5	; 197
    1570:	81 e0       	ldi	r24, 0x01	; 1
    1572:	90 e0       	ldi	r25, 0x00	; 0
    1574:	01 c0       	rjmp	.+2      	; 0x1578 <WriteStatusBit+0x1c>
    1576:	88 0f       	add	r24, r24
    1578:	2a 95       	dec	r18
    157a:	ea f7       	brpl	.-6      	; 0x1576 <WriteStatusBit+0x1a>
    157c:	66 23       	and	r22, r22
    157e:	19 f0       	breq	.+6      	; 0x1586 <WriteStatusBit+0x2a>
    1580:	90 81       	ld	r25, Z
    1582:	89 2b       	or	r24, r25
    1584:	03 c0       	rjmp	.+6      	; 0x158c <WriteStatusBit+0x30>
    else gameState[number>>3] &= ~(1<<(number&7));
    1586:	80 95       	com	r24
    1588:	90 81       	ld	r25, Z
    158a:	89 23       	and	r24, r25
    158c:	80 83       	st	Z, r24
    158e:	08 95       	ret

00001590 <UpdateState>:
}

//Update game state: num -> vBBBBbbb v=value(0 is set!), BBBB=Byte number, bbb=bit number
void UpdateState(uint8_t num){
    1590:	98 2f       	mov	r25, r24
    uint8_t clearBit = num & 0x80;
    num &= 0x7f;
    1592:	8f 77       	andi	r24, 0x7F	; 127
    if (num) {
    1594:	31 f0       	breq	.+12     	; 0x15a2 <UpdateState+0x12>
        if (clearBit) {
    1596:	97 ff       	sbrs	r25, 7
    1598:	02 c0       	rjmp	.+4      	; 0x159e <UpdateState+0xe>
            WriteStatusBit(num, 0);
    159a:	60 e0       	ldi	r22, 0x00	; 0
    159c:	01 c0       	rjmp	.+2      	; 0x15a0 <UpdateState+0x10>
        } else {
            WriteStatusBit(num, 1);
    159e:	61 e0       	ldi	r22, 0x01	; 1
    15a0:	dd cf       	rjmp	.-70     	; 0x155c <WriteStatusBit>
    15a2:	08 95       	ret

000015a4 <CheckState>:
        }
    }
}

//Checks if state of bit BBBBbbb matches with v (inverted) bit
uint8_t CheckState(uint8_t num){
    15a4:	cf 93       	push	r28
    15a6:	c8 2f       	mov	r28, r24
    uint8_t bitSet = 0;
    if (ReadStatusBit(num & 0x7f)){
    15a8:	8f 77       	andi	r24, 0x7F	; 127
    15aa:	c4 df       	rcall	.-120    	; 0x1534 <ReadStatusBit>
    15ac:	2c 2f       	mov	r18, r28
    15ae:	22 1f       	adc	r18, r18
    15b0:	22 27       	eor	r18, r18
    15b2:	22 1f       	adc	r18, r18
    15b4:	91 e0       	ldi	r25, 0x01	; 1
    15b6:	81 11       	cpse	r24, r1
    15b8:	01 c0       	rjmp	.+2      	; 0x15bc <CheckState+0x18>
    15ba:	90 e0       	ldi	r25, 0x00	; 0
    }
    if (((num & 0x80)>0)^(bitSet>0)){
        return 1;
    }
    return 0;
}
    15bc:	82 2f       	mov	r24, r18
    15be:	89 27       	eor	r24, r25
    15c0:	cf 91       	pop	r28
    15c2:	08 95       	ret

000015c4 <getID>:

//Give out a number 0..3, calculated using serial number fields
uint8_t getID(){
    uint8_t id = 0;
    uint8_t *serNum;
    serNum = (uint8_t*)&SIGROW_SERNUM0;
    15c4:	e3 e0       	ldi	r30, 0x03	; 3
    15c6:	f1 e1       	ldi	r31, 0x11	; 17
    return 0;
}

//Give out a number 0..3, calculated using serial number fields
uint8_t getID(){
    uint8_t id = 0;
    15c8:	80 e0       	ldi	r24, 0x00	; 0
    uint8_t *serNum;
    serNum = (uint8_t*)&SIGROW_SERNUM0;

    for (uint8_t x=0; x<10; ++x){
        id += *serNum;
    15ca:	91 91       	ld	r25, Z+
    15cc:	89 0f       	add	r24, r25
uint8_t getID(){
    uint8_t id = 0;
    uint8_t *serNum;
    serNum = (uint8_t*)&SIGROW_SERNUM0;

    for (uint8_t x=0; x<10; ++x){
    15ce:	ed 30       	cpi	r30, 0x0D	; 13
    15d0:	91 e1       	ldi	r25, 0x11	; 17
    15d2:	f9 07       	cpc	r31, r25
    15d4:	d1 f7       	brne	.-12     	; 0x15ca <getID+0x6>
        id += *serNum;
        ++serNum;
    }
    id %= 4;
    whoami = id+1;
    15d6:	83 70       	andi	r24, 0x03	; 3
    15d8:	8f 5f       	subi	r24, 0xFF	; 255
    15da:	80 93 3d 38 	sts	0x383D, r24	; 0x80383d <whoami>
    return whoami;
}
    15de:	08 95       	ret

000015e0 <Reset>:

void Reset(){
    15e0:	e1 e6       	ldi	r30, 0x61	; 97
    15e2:	fa e3       	ldi	r31, 0x3A	; 58
    //# 110   set to 1 by FW if badge UUID mod 4 == 0
    //# 111   set to 1 by FW if badge UUID mod 4 == 1
    //# 112   set to 1 by FW if badge UUID mod 4 == 2
    //# 113   set to 1 by FW if badge UUID mod 4 == 3
    for (uint8_t x=0; x<sizeof(gameState); ++x){
        gameState[x] = 0;
    15e4:	11 92       	st	Z+, r1
    //Reset game progress (all zeroes) and load some bits:
    //# 110   set to 1 by FW if badge UUID mod 4 == 0
    //# 111   set to 1 by FW if badge UUID mod 4 == 1
    //# 112   set to 1 by FW if badge UUID mod 4 == 2
    //# 113   set to 1 by FW if badge UUID mod 4 == 3
    for (uint8_t x=0; x<sizeof(gameState); ++x){
    15e6:	8a e3       	ldi	r24, 0x3A	; 58
    15e8:	e5 37       	cpi	r30, 0x75	; 117
    15ea:	f8 07       	cpc	r31, r24
    15ec:	d9 f7       	brne	.-10     	; 0x15e4 <Reset+0x4>
        gameState[x] = 0;
    }

    uint8_t id = getID();
    15ee:	ea df       	rcall	.-44     	; 0x15c4 <getID>

    //Write bit in gameState location 110..113
    if (id == 0) WriteStatusBit(110, 1);
    15f0:	81 11       	cpse	r24, r1
    15f2:	04 c0       	rjmp	.+8      	; 0x15fc <Reset+0x1c>
    if (gameState[number>>3] & (1<<(number&7))) return 1; else return 0;
}

void WriteStatusBit(uint8_t number, uint8_t state){
    number &= 0x7f;
    if (state) gameState[number>>3] |= 1<<(number&7);
    15f4:	80 91 6e 3a 	lds	r24, 0x3A6E	; 0x803a6e <gameState+0xd>
    15f8:	80 64       	ori	r24, 0x40	; 64
    15fa:	05 c0       	rjmp	.+10     	; 0x1606 <Reset+0x26>

    uint8_t id = getID();

    //Write bit in gameState location 110..113
    if (id == 0) WriteStatusBit(110, 1);
    else if (id == 1) WriteStatusBit(111, 1);
    15fc:	81 30       	cpi	r24, 0x01	; 1
    15fe:	31 f4       	brne	.+12     	; 0x160c <Reset+0x2c>
    if (gameState[number>>3] & (1<<(number&7))) return 1; else return 0;
}

void WriteStatusBit(uint8_t number, uint8_t state){
    number &= 0x7f;
    if (state) gameState[number>>3] |= 1<<(number&7);
    1600:	80 91 6e 3a 	lds	r24, 0x3A6E	; 0x803a6e <gameState+0xd>
    1604:	80 68       	ori	r24, 0x80	; 128
    1606:	80 93 6e 3a 	sts	0x3A6E, r24	; 0x803a6e <gameState+0xd>
    160a:	0d c0       	rjmp	.+26     	; 0x1626 <Reset+0x46>
    uint8_t id = getID();

    //Write bit in gameState location 110..113
    if (id == 0) WriteStatusBit(110, 1);
    else if (id == 1) WriteStatusBit(111, 1);
    else if (id == 2) WriteStatusBit(112, 1);
    160c:	82 30       	cpi	r24, 0x02	; 2
    160e:	21 f4       	brne	.+8      	; 0x1618 <Reset+0x38>
    if (gameState[number>>3] & (1<<(number&7))) return 1; else return 0;
}

void WriteStatusBit(uint8_t number, uint8_t state){
    number &= 0x7f;
    if (state) gameState[number>>3] |= 1<<(number&7);
    1610:	80 91 6f 3a 	lds	r24, 0x3A6F	; 0x803a6f <gameState+0xe>
    1614:	81 60       	ori	r24, 0x01	; 1
    1616:	05 c0       	rjmp	.+10     	; 0x1622 <Reset+0x42>

    //Write bit in gameState location 110..113
    if (id == 0) WriteStatusBit(110, 1);
    else if (id == 1) WriteStatusBit(111, 1);
    else if (id == 2) WriteStatusBit(112, 1);
    else if (id == 3) WriteStatusBit(113, 1);
    1618:	83 30       	cpi	r24, 0x03	; 3
    161a:	29 f4       	brne	.+10     	; 0x1626 <Reset+0x46>
    if (gameState[number>>3] & (1<<(number&7))) return 1; else return 0;
}

void WriteStatusBit(uint8_t number, uint8_t state){
    number &= 0x7f;
    if (state) gameState[number>>3] |= 1<<(number&7);
    161c:	80 91 6f 3a 	lds	r24, 0x3A6F	; 0x803a6f <gameState+0xe>
    1620:	82 60       	ori	r24, 0x02	; 2
    1622:	80 93 6f 3a 	sts	0x3A6F, r24	; 0x803a6f <gameState+0xe>
    1626:	80 91 61 3a 	lds	r24, 0x3A61	; 0x803a61 <gameState>
    162a:	81 60       	ori	r24, 0x01	; 1
    162c:	80 93 61 3a 	sts	0x3A61, r24	; 0x803a61 <gameState>
    1630:	08 95       	ret

00001632 <LoadGameState>:

    return sample;
}

//Load game status
void LoadGameState(){
    1632:	cf 93       	push	r28
    1634:	df 93       	push	r29
    EERead(0, &gameState[0], BOOTCHK);   //Load game status bits from EEPROM
    1636:	44 e1       	ldi	r20, 0x14	; 20
    1638:	61 e6       	ldi	r22, 0x61	; 97
    163a:	7a e3       	ldi	r23, 0x3A	; 58
    163c:	80 e0       	ldi	r24, 0x00	; 0
    163e:	b0 dd       	rcall	.-1184   	; 0x11a0 <EERead>
    1640:	ce e6       	ldi	r28, 0x6E	; 110

    uint8_t idSet = 0;
    1642:	d0 e0       	ldi	r29, 0x00	; 0
    for (uint8_t x=0; x<4; ++x){
        idSet += ReadStatusBit(110+x);
    1644:	8c 2f       	mov	r24, r28
    1646:	76 df       	rcall	.-276    	; 0x1534 <ReadStatusBit>
    1648:	d8 0f       	add	r29, r24
    164a:	cf 5f       	subi	r28, 0xFF	; 255
//Load game status
void LoadGameState(){
    EERead(0, &gameState[0], BOOTCHK);   //Load game status bits from EEPROM

    uint8_t idSet = 0;
    for (uint8_t x=0; x<4; ++x){
    164c:	c2 37       	cpi	r28, 0x72	; 114
    164e:	d1 f7       	brne	.-12     	; 0x1644 <LoadGameState+0x12>
        idSet += ReadStatusBit(110+x);
    }

    //Check if badge is reset(0 = cheated!) or new(3) or error(2)
    if (idSet != 1) {
    1650:	d1 30       	cpi	r29, 0x01	; 1
        Reset();
    1652:	11 f0       	breq	.+4      	; 0x1658 <LoadGameState+0x26>
    1654:	c5 df       	rcall	.-118    	; 0x15e0 <Reset>
    } else getID();
    1656:	01 c0       	rjmp	.+2      	; 0x165a <LoadGameState+0x28>
    1658:	b5 df       	rcall	.-150    	; 0x15c4 <getID>

    inventory[0] = (gameState[INVADDR]<<8|gameState[INVADDR+1]);
    165a:	80 91 71 3a 	lds	r24, 0x3A71	; 0x803a71 <gameState+0x10>
    165e:	90 91 72 3a 	lds	r25, 0x3A72	; 0x803a72 <gameState+0x11>
    1662:	98 27       	eor	r25, r24
    1664:	89 27       	eor	r24, r25
    1666:	98 27       	eor	r25, r24
    1668:	80 93 3e 38 	sts	0x383E, r24	; 0x80383e <inventory>
    166c:	90 93 3f 38 	sts	0x383F, r25	; 0x80383f <inventory+0x1>
    inventory[1] = (gameState[INVADDR+2]<<8|gameState[INVADDR+3]);
    1670:	80 91 73 3a 	lds	r24, 0x3A73	; 0x803a73 <gameState+0x12>
    1674:	90 91 74 3a 	lds	r25, 0x3A74	; 0x803a74 <gameState+0x13>
    1678:	98 27       	eor	r25, r24
    167a:	89 27       	eor	r24, r25
    167c:	98 27       	eor	r25, r24
    167e:	80 93 40 38 	sts	0x3840, r24	; 0x803840 <inventory+0x2>
    1682:	90 93 41 38 	sts	0x3841, r25	; 0x803841 <inventory+0x3>
}
    1686:	df 91       	pop	r29
    1688:	cf 91       	pop	r28
    168a:	08 95       	ret

0000168c <HotSummer>:
    //Write bit 0, must always be 1!
    WriteStatusBit(0, 1);
}

//Sets specific game bits after the badge is heated for one and two times.
uint8_t HotSummer(){
    168c:	cf 93       	push	r28
    static uint8_t cooledDown = 0;

    if (CheckState(SUMMERS_COMPLETED)){
    168e:	86 e7       	ldi	r24, 0x76	; 118
    1690:	89 df       	rcall	.-238    	; 0x15a4 <CheckState>
    1692:	c8 2f       	mov	r28, r24
    1694:	88 23       	and	r24, r24
    1696:	81 f0       	breq	.+32     	; 0x16b8 <HotSummer+0x2c>
        iLED[SCARAB[G]] = 0;
    1698:	e0 91 f5 bf 	lds	r30, 0xBFF5	; 0x80bff5 <__bss_end+0x84db>
    169c:	f0 e0       	ldi	r31, 0x00	; 0
    169e:	e6 53       	subi	r30, 0x36	; 54
    16a0:	f5 4c       	sbci	r31, 0xC5	; 197
    16a2:	10 82       	st	Z, r1
        iLED[SCARAB[R]] = dimValue;
    16a4:	e0 91 f4 bf 	lds	r30, 0xBFF4	; 0x80bff4 <__bss_end+0x84da>
    16a8:	f0 e0       	ldi	r31, 0x00	; 0
    16aa:	80 91 0b 38 	lds	r24, 0x380B	; 0x80380b <dimValue>
    16ae:	e6 53       	subi	r30, 0x36	; 54
    16b0:	f5 4c       	sbci	r31, 0xC5	; 197
    16b2:	80 83       	st	Z, r24
        return 1;
    16b4:	c1 e0       	ldi	r28, 0x01	; 1
    16b6:	4c c0       	rjmp	.+152    	; 0x1750 <HotSummer+0xc4>
    }

    if (CheckState(FIRST_SUMMER)) {
    16b8:	85 e7       	ldi	r24, 0x75	; 117
    16ba:	74 df       	rcall	.-280    	; 0x15a4 <CheckState>
    16bc:	88 23       	and	r24, r24
    16be:	59 f1       	breq	.+86     	; 0x1716 <HotSummer+0x8a>
        iLED[SCARAB[G]] = dimValue;
    16c0:	e0 91 f5 bf 	lds	r30, 0xBFF5	; 0x80bff5 <__bss_end+0x84db>
    16c4:	f0 e0       	ldi	r31, 0x00	; 0
    16c6:	80 91 0b 38 	lds	r24, 0x380B	; 0x80380b <dimValue>
    16ca:	e6 53       	subi	r30, 0x36	; 54
    16cc:	f5 4c       	sbci	r31, 0xC5	; 197
    16ce:	80 83       	st	Z, r24
        if ((cooledDown) && (adcTemp >= (calTemp + 32))) {
    16d0:	80 91 59 38 	lds	r24, 0x3859	; 0x803859 <cooledDown.3952>
    16d4:	88 23       	and	r24, r24
    16d6:	79 f0       	breq	.+30     	; 0x16f6 <HotSummer+0x6a>
    16d8:	80 91 c0 3a 	lds	r24, 0x3AC0	; 0x803ac0 <calTemp>
    16dc:	90 91 c1 3a 	lds	r25, 0x3AC1	; 0x803ac1 <calTemp+0x1>
    16e0:	20 91 f5 3a 	lds	r18, 0x3AF5	; 0x803af5 <adcTemp>
    16e4:	30 91 f6 3a 	lds	r19, 0x3AF6	; 0x803af6 <adcTemp+0x1>
    16e8:	80 96       	adiw	r24, 0x20	; 32
    16ea:	28 17       	cp	r18, r24
    16ec:	39 07       	cpc	r19, r25
            UpdateState(SUMMERS_COMPLETED);
    16ee:	18 f0       	brcs	.+6      	; 0x16f6 <HotSummer+0x6a>
    16f0:	86 e7       	ldi	r24, 0x76	; 118
    16f2:	4e df       	rcall	.-356    	; 0x1590 <UpdateState>
            return 0;
    16f4:	2d c0       	rjmp	.+90     	; 0x1750 <HotSummer+0xc4>
        }
        if (adcTemp <= (calTemp + 8)) cooledDown = 1;
    16f6:	80 91 c0 3a 	lds	r24, 0x3AC0	; 0x803ac0 <calTemp>
    16fa:	90 91 c1 3a 	lds	r25, 0x3AC1	; 0x803ac1 <calTemp+0x1>
    16fe:	20 91 f5 3a 	lds	r18, 0x3AF5	; 0x803af5 <adcTemp>
    1702:	30 91 f6 3a 	lds	r19, 0x3AF6	; 0x803af6 <adcTemp+0x1>
    1706:	08 96       	adiw	r24, 0x08	; 8
    1708:	82 17       	cp	r24, r18
    170a:	93 07       	cpc	r25, r19
    170c:	08 f1       	brcs	.+66     	; 0x1750 <HotSummer+0xc4>
    170e:	81 e0       	ldi	r24, 0x01	; 1
    1710:	80 93 59 38 	sts	0x3859, r24	; 0x803859 <cooledDown.3952>
    1714:	1d c0       	rjmp	.+58     	; 0x1750 <HotSummer+0xc4>
                   
    } else {
        if (calTemp == 0) calTemp = adcTemp;
    1716:	80 91 c0 3a 	lds	r24, 0x3AC0	; 0x803ac0 <calTemp>
    171a:	90 91 c1 3a 	lds	r25, 0x3AC1	; 0x803ac1 <calTemp+0x1>
    171e:	89 2b       	or	r24, r25
    1720:	41 f4       	brne	.+16     	; 0x1732 <HotSummer+0xa6>
    1722:	80 91 f5 3a 	lds	r24, 0x3AF5	; 0x803af5 <adcTemp>
    1726:	90 91 f6 3a 	lds	r25, 0x3AF6	; 0x803af6 <adcTemp+0x1>
    172a:	80 93 c0 3a 	sts	0x3AC0, r24	; 0x803ac0 <calTemp>
    172e:	90 93 c1 3a 	sts	0x3AC1, r25	; 0x803ac1 <calTemp+0x1>
        if (adcTemp >= (calTemp + 32)) {
    1732:	80 91 c0 3a 	lds	r24, 0x3AC0	; 0x803ac0 <calTemp>
    1736:	90 91 c1 3a 	lds	r25, 0x3AC1	; 0x803ac1 <calTemp+0x1>
    173a:	20 91 f5 3a 	lds	r18, 0x3AF5	; 0x803af5 <adcTemp>
    173e:	30 91 f6 3a 	lds	r19, 0x3AF6	; 0x803af6 <adcTemp+0x1>
    1742:	80 96       	adiw	r24, 0x20	; 32
    1744:	28 17       	cp	r18, r24
    1746:	39 07       	cpc	r19, r25
            UpdateState(FIRST_SUMMER);
    1748:	18 f0       	brcs	.+6      	; 0x1750 <HotSummer+0xc4>
    174a:	85 e7       	ldi	r24, 0x75	; 117
    174c:	21 df       	rcall	.-446    	; 0x1590 <UpdateState>
        }
    }
    return 0;
    174e:	c0 e0       	ldi	r28, 0x00	; 0
}
    1750:	8c 2f       	mov	r24, r28
    1752:	cf 91       	pop	r28
    1754:	08 95       	ret

00001756 <WingBar>:

void WingBar(int8_t l, int8_t r) {
    1756:	e6 ef       	ldi	r30, 0xF6	; 246
    1758:	ff eb       	ldi	r31, 0xBF	; 191
    for (int8_t i=0; i<5; i++) {
    175a:	90 e0       	ldi	r25, 0x00	; 0
        if (i<l)
            iLED[WING[L][i]] = dimValue;
    175c:	a5 81       	ldd	r26, Z+5	; 0x05
    175e:	b0 e0       	ldi	r27, 0x00	; 0
    return 0;
}

void WingBar(int8_t l, int8_t r) {
    for (int8_t i=0; i<5; i++) {
        if (i<l)
    1760:	98 17       	cp	r25, r24
    1762:	34 f4       	brge	.+12     	; 0x1770 <WingBar+0x1a>
            iLED[WING[L][i]] = dimValue;
    1764:	20 91 0b 38 	lds	r18, 0x380B	; 0x80380b <dimValue>
    1768:	a6 53       	subi	r26, 0x36	; 54
    176a:	b5 4c       	sbci	r27, 0xC5	; 197
    176c:	2c 93       	st	X, r18
    176e:	03 c0       	rjmp	.+6      	; 0x1776 <WingBar+0x20>
        else
            iLED[WING[L][i]] = 0;
    1770:	a6 53       	subi	r26, 0x36	; 54
    1772:	b5 4c       	sbci	r27, 0xC5	; 197
    1774:	1c 92       	st	X, r1
        if (i<r)
            iLED[WING[R][i]] = dimValue;
    1776:	a0 81       	ld	r26, Z
    1778:	b0 e0       	ldi	r27, 0x00	; 0
    for (int8_t i=0; i<5; i++) {
        if (i<l)
            iLED[WING[L][i]] = dimValue;
        else
            iLED[WING[L][i]] = 0;
        if (i<r)
    177a:	96 17       	cp	r25, r22
    177c:	34 f4       	brge	.+12     	; 0x178a <WingBar+0x34>
            iLED[WING[R][i]] = dimValue;
    177e:	20 91 0b 38 	lds	r18, 0x380B	; 0x80380b <dimValue>
    1782:	a6 53       	subi	r26, 0x36	; 54
    1784:	b5 4c       	sbci	r27, 0xC5	; 197
    1786:	2c 93       	st	X, r18
    1788:	03 c0       	rjmp	.+6      	; 0x1790 <WingBar+0x3a>
        else
            iLED[WING[R][i]] = 0;
    178a:	a6 53       	subi	r26, 0x36	; 54
    178c:	b5 4c       	sbci	r27, 0xC5	; 197
    178e:	1c 92       	st	X, r1
    1790:	9f 5f       	subi	r25, 0xFF	; 255
    1792:	31 96       	adiw	r30, 0x01	; 1
    }
    return 0;
}

void WingBar(int8_t l, int8_t r) {
    for (int8_t i=0; i<5; i++) {
    1794:	95 30       	cpi	r25, 0x05	; 5
    1796:	11 f7       	brne	.-60     	; 0x175c <WingBar+0x6>
        if (i<r)
            iLED[WING[R][i]] = dimValue;
        else
            iLED[WING[R][i]] = 0;
    }
}
    1798:	08 95       	ret

0000179a <SetBothEyes>:

void SetBothEyes(uint8_t r, uint8_t g) {
    for (uint8_t i=0; i<2; i++) {
        iLED[EYE[R][i]] = r;
    179a:	a0 e0       	ldi	r26, 0x00	; 0
    179c:	b0 ec       	ldi	r27, 0xC0	; 192
    179e:	ec 91       	ld	r30, X
    17a0:	f0 e0       	ldi	r31, 0x00	; 0
    17a2:	e6 53       	subi	r30, 0x36	; 54
    17a4:	f5 4c       	sbci	r31, 0xC5	; 197
    17a6:	80 83       	st	Z, r24
        iLED[EYE[G][i]] = g;
    17a8:	12 96       	adiw	r26, 0x02	; 2
    17aa:	ec 91       	ld	r30, X
    17ac:	12 97       	sbiw	r26, 0x02	; 2
    17ae:	f0 e0       	ldi	r31, 0x00	; 0
    17b0:	e6 53       	subi	r30, 0x36	; 54
    17b2:	f5 4c       	sbci	r31, 0xC5	; 197
    17b4:	60 83       	st	Z, r22
    }
}

void SetBothEyes(uint8_t r, uint8_t g) {
    for (uint8_t i=0; i<2; i++) {
        iLED[EYE[R][i]] = r;
    17b6:	11 96       	adiw	r26, 0x01	; 1
    17b8:	ec 91       	ld	r30, X
    17ba:	11 97       	sbiw	r26, 0x01	; 1
    17bc:	f0 e0       	ldi	r31, 0x00	; 0
    17be:	e6 53       	subi	r30, 0x36	; 54
    17c0:	f5 4c       	sbci	r31, 0xC5	; 197
    17c2:	80 83       	st	Z, r24
        iLED[EYE[G][i]] = g;
    17c4:	13 96       	adiw	r26, 0x03	; 3
    17c6:	ec 91       	ld	r30, X
    17c8:	f0 e0       	ldi	r31, 0x00	; 0
    17ca:	e6 53       	subi	r30, 0x36	; 54
    17cc:	f5 4c       	sbci	r31, 0xC5	; 197
    17ce:	60 83       	st	Z, r22
    17d0:	08 95       	ret

000017d2 <GenerateBlinks>:
    }
}

void GenerateBlinks(){
    17d2:	1f 93       	push	r17
    17d4:	cf 93       	push	r28
    17d6:	df 93       	push	r29
    used by the games, the other LEDs can be used by setting 
    effect (or be set directly)
    */

    //Activate HCKR & BADGER leds based on the state-bits
    if (gameNow == TEXT) {
    17d8:	80 91 3c 38 	lds	r24, 0x383C	; 0x80383c <gameNow>
    17dc:	88 23       	and	r24, r24
    17de:	29 f0       	breq	.+10     	; 0x17ea <GenerateBlinks+0x18>
                iLED[HCKR[R][i]] = dimValue;
            }
        }
    }

    if (CheckState(GEM_STATE)) {
    17e0:	80 e4       	ldi	r24, 0x40	; 64
    17e2:	e0 de       	rcall	.-576    	; 0x15a4 <CheckState>
    17e4:	81 11       	cpse	r24, r1
    17e6:	24 c0       	rjmp	.+72     	; 0x1830 <GenerateBlinks+0x5e>
    17e8:	50 c0       	rjmp	.+160    	; 0x188a <GenerateBlinks+0xb8>
    17ea:	c4 e0       	ldi	r28, 0x04	; 4
    17ec:	d0 ec       	ldi	r29, 0xC0	; 192
    used by the games, the other LEDs can be used by setting 
    effect (or be set directly)
    */

    //Activate HCKR & BADGER leds based on the state-bits
    if (gameNow == TEXT) {
    17ee:	1a e7       	ldi	r17, 0x7A	; 122
        for (uint8_t i=0;i<6;i++) {
            if(CheckState(HACKER_STATES + i)) {
    17f0:	81 2f       	mov	r24, r17
    17f2:	d8 de       	rcall	.-592    	; 0x15a4 <CheckState>
                iLED[HCKR[G][i]] = dimValue;
    17f4:	ee 81       	ldd	r30, Y+6	; 0x06
    17f6:	f0 e0       	ldi	r31, 0x00	; 0
    */

    //Activate HCKR & BADGER leds based on the state-bits
    if (gameNow == TEXT) {
        for (uint8_t i=0;i<6;i++) {
            if(CheckState(HACKER_STATES + i)) {
    17f8:	88 23       	and	r24, r24
    17fa:	59 f0       	breq	.+22     	; 0x1812 <GenerateBlinks+0x40>
                iLED[HCKR[G][i]] = dimValue;
    17fc:	80 91 0b 38 	lds	r24, 0x380B	; 0x80380b <dimValue>
    1800:	e6 53       	subi	r30, 0x36	; 54
    1802:	f5 4c       	sbci	r31, 0xC5	; 197
    1804:	80 83       	st	Z, r24
                iLED[HCKR[R][i]] = 0;
    1806:	e8 81       	ld	r30, Y
    1808:	f0 e0       	ldi	r31, 0x00	; 0
    180a:	e6 53       	subi	r30, 0x36	; 54
    180c:	f5 4c       	sbci	r31, 0xC5	; 197
    180e:	10 82       	st	Z, r1
    1810:	0a c0       	rjmp	.+20     	; 0x1826 <GenerateBlinks+0x54>
            } else {
                iLED[HCKR[G][i]] = 0;
    1812:	e6 53       	subi	r30, 0x36	; 54
    1814:	f5 4c       	sbci	r31, 0xC5	; 197
    1816:	10 82       	st	Z, r1
                iLED[HCKR[R][i]] = dimValue;
    1818:	e8 81       	ld	r30, Y
    181a:	f0 e0       	ldi	r31, 0x00	; 0
    181c:	80 91 0b 38 	lds	r24, 0x380B	; 0x80380b <dimValue>
    1820:	e6 53       	subi	r30, 0x36	; 54
    1822:	f5 4c       	sbci	r31, 0xC5	; 197
    1824:	80 83       	st	Z, r24
    1826:	1f 5f       	subi	r17, 0xFF	; 255
    1828:	21 96       	adiw	r28, 0x01	; 1
    effect (or be set directly)
    */

    //Activate HCKR & BADGER leds based on the state-bits
    if (gameNow == TEXT) {
        for (uint8_t i=0;i<6;i++) {
    182a:	10 38       	cpi	r17, 0x80	; 128
    182c:	09 f7       	brne	.-62     	; 0x17f0 <GenerateBlinks+0x1e>
    182e:	d8 cf       	rjmp	.-80     	; 0x17e0 <GenerateBlinks+0xe>
            }
        }
    }

    if (CheckState(GEM_STATE)) {
        if ( HeartCount == 1 || HeartCount == 3 || HeartCount == 5 )
    1830:	80 91 5b 38 	lds	r24, 0x385B	; 0x80385b <HeartCount>
    1834:	98 2f       	mov	r25, r24
    1836:	9d 7f       	andi	r25, 0xFD	; 253
    1838:	e0 91 f3 bf 	lds	r30, 0xBFF3	; 0x80bff3 <__bss_end+0x84d9>
            iLED[BADGER] = dimValue>>1 ;
    183c:	f0 e0       	ldi	r31, 0x00	; 0
            }
        }
    }

    if (CheckState(GEM_STATE)) {
        if ( HeartCount == 1 || HeartCount == 3 || HeartCount == 5 )
    183e:	91 30       	cpi	r25, 0x01	; 1
    1840:	11 f0       	breq	.+4      	; 0x1846 <GenerateBlinks+0x74>
    1842:	85 30       	cpi	r24, 0x05	; 5
    1844:	21 f4       	brne	.+8      	; 0x184e <GenerateBlinks+0x7c>
            iLED[BADGER] = dimValue>>1 ;
    1846:	90 91 0b 38 	lds	r25, 0x380B	; 0x80380b <dimValue>
    184a:	96 95       	lsr	r25
    184c:	06 c0       	rjmp	.+12     	; 0x185a <GenerateBlinks+0x88>
        else if ( HeartCount == 2 || HeartCount == 4 )
    184e:	82 30       	cpi	r24, 0x02	; 2
    1850:	11 f0       	breq	.+4      	; 0x1856 <GenerateBlinks+0x84>
    1852:	84 30       	cpi	r24, 0x04	; 4
    1854:	31 f4       	brne	.+12     	; 0x1862 <GenerateBlinks+0x90>
            iLED[BADGER] = dimValue;
    1856:	90 91 0b 38 	lds	r25, 0x380B	; 0x80380b <dimValue>
    185a:	e6 53       	subi	r30, 0x36	; 54
    185c:	f5 4c       	sbci	r31, 0xC5	; 197
    185e:	90 83       	st	Z, r25
    1860:	0c c0       	rjmp	.+24     	; 0x187a <GenerateBlinks+0xa8>
        else if ( HeartCount == 0 || HeartCount == 6 )
    1862:	88 23       	and	r24, r24
    1864:	11 f0       	breq	.+4      	; 0x186a <GenerateBlinks+0x98>
    1866:	86 30       	cpi	r24, 0x06	; 6
    1868:	29 f4       	brne	.+10     	; 0x1874 <GenerateBlinks+0xa2>
            iLED[BADGER] = dimValue>>2;
    186a:	90 91 0b 38 	lds	r25, 0x380B	; 0x80380b <dimValue>
    186e:	96 95       	lsr	r25
    1870:	96 95       	lsr	r25
    1872:	f3 cf       	rjmp	.-26     	; 0x185a <GenerateBlinks+0x88>
        else
            iLED[BADGER] = 0;
    1874:	e6 53       	subi	r30, 0x36	; 54
    1876:	f5 4c       	sbci	r31, 0xC5	; 197
    1878:	10 82       	st	Z, r1
        if (HeartCount<32)
    187a:	80 32       	cpi	r24, 0x20	; 32
    187c:	20 f4       	brcc	.+8      	; 0x1886 <GenerateBlinks+0xb4>
            HeartCount++;
    187e:	8f 5f       	subi	r24, 0xFF	; 255
    1880:	80 93 5b 38 	sts	0x385B, r24	; 0x80385b <HeartCount>
    1884:	02 c0       	rjmp	.+4      	; 0x188a <GenerateBlinks+0xb8>
        else
            HeartCount = 0;
    1886:	10 92 5b 38 	sts	0x385B, r1	; 0x80385b <HeartCount>
    }

    //LEDs effects for all games
    // Keep a counter for dynamic effects
    LedCount++;
    188a:	90 91 5a 38 	lds	r25, 0x385A	; 0x80385a <LedCount>
    188e:	9f 5f       	subi	r25, 0xFF	; 255
    1890:	90 93 5a 38 	sts	0x385A, r25	; 0x80385a <LedCount>

    switch (effect&0x1f) {
    1894:	20 91 3a 38 	lds	r18, 0x383A	; 0x80383a <effect>
    1898:	30 91 3b 38 	lds	r19, 0x383B	; 0x80383b <effect+0x1>
    189c:	2f 71       	andi	r18, 0x1F	; 31
    189e:	33 27       	eor	r19, r19
    18a0:	21 30       	cpi	r18, 0x01	; 1
    18a2:	31 05       	cpc	r19, r1
    18a4:	99 f1       	breq	.+102    	; 0x190c <GenerateBlinks+0x13a>
    18a6:	20 f0       	brcs	.+8      	; 0x18b0 <GenerateBlinks+0xde>
    18a8:	22 30       	cpi	r18, 0x02	; 2
    18aa:	31 05       	cpc	r19, r1
    18ac:	b1 f1       	breq	.+108    	; 0x191a <GenerateBlinks+0x148>
    18ae:	46 c0       	rjmp	.+140    	; 0x193c <GenerateBlinks+0x16a>
        // All LEDs off
        case 0:
            WingBar(0,0);
    18b0:	60 e0       	ldi	r22, 0x00	; 0
    18b2:	80 e0       	ldi	r24, 0x00	; 0
    18b4:	50 df       	rcall	.-352    	; 0x1756 <WingBar>
            for (uint8_t i=0; i<2; i++) {
                iLED[EYE[R][i]] = 0;
    18b6:	e0 91 00 c0 	lds	r30, 0xC000	; 0x80c000 <__bss_end+0x84e6>
    18ba:	f0 e0       	ldi	r31, 0x00	; 0
    18bc:	e6 53       	subi	r30, 0x36	; 54
    18be:	f5 4c       	sbci	r31, 0xC5	; 197
    18c0:	10 82       	st	Z, r1
                iLED[EYE[G][i]] = 0;
    18c2:	e0 91 02 c0 	lds	r30, 0xC002	; 0x80c002 <__bss_end+0x84e8>
    18c6:	f0 e0       	ldi	r31, 0x00	; 0
    18c8:	e6 53       	subi	r30, 0x36	; 54
    18ca:	f5 4c       	sbci	r31, 0xC5	; 197
    18cc:	10 82       	st	Z, r1
                iLED[SCARAB[i]] = 0;
    18ce:	e0 91 f4 bf 	lds	r30, 0xBFF4	; 0x80bff4 <__bss_end+0x84da>
    18d2:	f0 e0       	ldi	r31, 0x00	; 0
    18d4:	e6 53       	subi	r30, 0x36	; 54
    18d6:	f5 4c       	sbci	r31, 0xC5	; 197
    18d8:	10 82       	st	Z, r1
    switch (effect&0x1f) {
        // All LEDs off
        case 0:
            WingBar(0,0);
            for (uint8_t i=0; i<2; i++) {
                iLED[EYE[R][i]] = 0;
    18da:	e0 91 01 c0 	lds	r30, 0xC001	; 0x80c001 <__bss_end+0x84e7>
    18de:	f0 e0       	ldi	r31, 0x00	; 0
    18e0:	e6 53       	subi	r30, 0x36	; 54
    18e2:	f5 4c       	sbci	r31, 0xC5	; 197
    18e4:	10 82       	st	Z, r1
                iLED[EYE[G][i]] = 0;
    18e6:	e0 91 03 c0 	lds	r30, 0xC003	; 0x80c003 <__bss_end+0x84e9>
    18ea:	f0 e0       	ldi	r31, 0x00	; 0
    18ec:	e6 53       	subi	r30, 0x36	; 54
    18ee:	f5 4c       	sbci	r31, 0xC5	; 197
    18f0:	10 82       	st	Z, r1
                iLED[SCARAB[i]] = 0;
    18f2:	e0 91 f5 bf 	lds	r30, 0xBFF5	; 0x80bff5 <__bss_end+0x84db>
    18f6:	f0 e0       	ldi	r31, 0x00	; 0
    18f8:	e6 53       	subi	r30, 0x36	; 54
    18fa:	f5 4c       	sbci	r31, 0xC5	; 197
    18fc:	10 82       	st	Z, r1
            }
            iLED[CAT] = 0;
    18fe:	e0 91 f2 bf 	lds	r30, 0xBFF2	; 0x80bff2 <__bss_end+0x84d8>
    1902:	f0 e0       	ldi	r31, 0x00	; 0
    1904:	e6 53       	subi	r30, 0x36	; 54
    1906:	f5 4c       	sbci	r31, 0xC5	; 197
    1908:	10 82       	st	Z, r1
            break;
    190a:	18 c0       	rjmp	.+48     	; 0x193c <GenerateBlinks+0x16a>

        //'flashing red eyes',       # 1 can be used when a bad answer is given
        case 1:
            SetBothEyes((LedCount & 1 ? dimValue : 0),0);
    190c:	89 2f       	mov	r24, r25
    190e:	81 70       	andi	r24, 0x01	; 1
    1910:	90 fd       	sbrc	r25, 0
    1912:	80 91 0b 38 	lds	r24, 0x380B	; 0x80380b <dimValue>
    1916:	60 e0       	ldi	r22, 0x00	; 0
    1918:	0d c0       	rjmp	.+26     	; 0x1934 <GenerateBlinks+0x162>
    191a:	69 2f       	mov	r22, r25
    191c:	70 e0       	ldi	r23, 0x00	; 0
            break;

        //'flashing green eyes',     # 2 can be used when a good answer is given
        case 2:
            SetBothEyes(0, 0x1f + (((LedCount & 0x08) ? ((LedCount&0x07)^0x07) : (LedCount&0x07))<<5));
    191e:	93 ff       	sbrs	r25, 3
    1920:	02 c0       	rjmp	.+4      	; 0x1926 <GenerateBlinks+0x154>
    1922:	60 95       	com	r22
    1924:	70 95       	com	r23
    1926:	85 e0       	ldi	r24, 0x05	; 5
    1928:	66 0f       	add	r22, r22
    192a:	77 1f       	adc	r23, r23
    192c:	8a 95       	dec	r24
    192e:	e1 f7       	brne	.-8      	; 0x1928 <GenerateBlinks+0x156>
    1930:	61 5e       	subi	r22, 0xE1	; 225
    1932:	80 e0       	ldi	r24, 0x00	; 0
        // No LED action, game will do it's own LED magic
        case 31:
        default:
            break;
    }
}
    1934:	df 91       	pop	r29
    1936:	cf 91       	pop	r28
            SetBothEyes((LedCount & 1 ? dimValue : 0),0);
            break;

        //'flashing green eyes',     # 2 can be used when a good answer is given
        case 2:
            SetBothEyes(0, 0x1f + (((LedCount & 0x08) ? ((LedCount&0x07)^0x07) : (LedCount&0x07))<<5));
    1938:	1f 91       	pop	r17
    193a:	2f cf       	rjmp	.-418    	; 0x179a <SetBothEyes>
        // No LED action, game will do it's own LED magic
        case 31:
        default:
            break;
    }
}
    193c:	df 91       	pop	r29
    193e:	cf 91       	pop	r28
    1940:	1f 91       	pop	r17
    1942:	08 95       	ret

00001944 <GenerateAudio>:


uint8_t GenerateAudio(){
    1944:	0f 93       	push	r16
    1946:	1f 93       	push	r17
    1948:	cf 93       	push	r28

    if (auIn[AULEN>>1] < HPLVL) {
    194a:	80 91 c6 3a 	lds	r24, 0x3AC6	; 0x803ac6 <auIn+0x4>
    194e:	89 31       	cpi	r24, 0x19	; 25
    1950:	08 f0       	brcs	.+2      	; 0x1954 <GenerateAudio+0x10>
    1952:	27 c1       	rjmp	.+590    	; 0x1ba2 <GenerateAudio+0x25e>

        detHdPh = 1;
    1954:	c1 e0       	ldi	r28, 0x01	; 1
    1956:	c0 93 bf 3a 	sts	0x3ABF, r28	; 0x803abf <detHdPh>

        //Audio for text adventure
        if ((effect&0xff00)==0) {
    195a:	80 91 3a 38 	lds	r24, 0x383A	; 0x80383a <effect>
    195e:	90 91 3b 38 	lds	r25, 0x383B	; 0x80383b <effect+0x1>
    1962:	88 27       	eor	r24, r24
    1964:	89 2b       	or	r24, r25
    1966:	09 f0       	breq	.+2      	; 0x196a <GenerateAudio+0x26>
    1968:	bf c0       	rjmp	.+382    	; 0x1ae8 <GenerateAudio+0x1a4>

            //Silence
            if ((effect&0xE0)==0){
    196a:	80 91 3a 38 	lds	r24, 0x383A	; 0x80383a <effect>
    196e:	90 91 3b 38 	lds	r25, 0x383B	; 0x80383b <effect+0x1>
    1972:	80 7e       	andi	r24, 0xE0	; 224
    1974:	99 27       	eor	r25, r25
    1976:	89 2b       	or	r24, r25
    1978:	31 f4       	brne	.+12     	; 0x1986 <GenerateAudio+0x42>
                auRepAddr = &zero;
    197a:	88 e3       	ldi	r24, 0x38	; 56
    197c:	98 e3       	ldi	r25, 0x38	; 56
    197e:	80 93 05 38 	sts	0x3805, r24	; 0x803805 <auRepAddr>
    1982:	90 93 06 38 	sts	0x3806, r25	; 0x803806 <auRepAddr+0x1>
            }

            //Bad (buzzer)
            if ((effect&0xE0)==32){
    1986:	80 91 3a 38 	lds	r24, 0x383A	; 0x80383a <effect>
    198a:	90 91 3b 38 	lds	r25, 0x383B	; 0x80383b <effect+0x1>
    198e:	80 7e       	andi	r24, 0xE0	; 224
    1990:	99 27       	eor	r25, r25
    1992:	80 97       	sbiw	r24, 0x20	; 32
    1994:	09 f0       	breq	.+2      	; 0x1998 <GenerateAudio+0x54>
    1996:	59 c0       	rjmp	.+178    	; 0x1a4a <GenerateAudio+0x106>
                static uint8_t auBuffer[17] = {1, 255, 128, 128, 192, 255, 64, 255, 192, 128, 64, 1, 192, 1, 64, 128, 0}; 
                static uint8_t loudness, duration, start;
                floatSpeed(1, 0x2000, 0x2200);
    1998:	40 e0       	ldi	r20, 0x00	; 0
    199a:	52 e2       	ldi	r21, 0x22	; 34
    199c:	60 e0       	ldi	r22, 0x00	; 0
    199e:	70 e2       	ldi	r23, 0x20	; 32
    19a0:	81 e0       	ldi	r24, 0x01	; 1
    19a2:	f1 dc       	rcall	.-1566   	; 0x1386 <floatSpeed>
                auBuffer[2] = floatAround(0x80, 5, 0x01, 0x00);
    19a4:	20 e0       	ldi	r18, 0x00	; 0
    19a6:	41 e0       	ldi	r20, 0x01	; 1
    19a8:	65 e0       	ldi	r22, 0x05	; 5
    19aa:	80 e8       	ldi	r24, 0x80	; 128
    19ac:	1e dd       	rcall	.-1476   	; 0x13ea <floatAround>
    19ae:	80 93 12 38 	sts	0x3812, r24	; 0x803812 <auBuffer.3987+0x2>

                if (buttonMark) {
    19b2:	80 91 42 38 	lds	r24, 0x3842	; 0x803842 <buttonMark>
    19b6:	88 23       	and	r24, r24
    19b8:	09 f4       	brne	.+2      	; 0x19bc <GenerateAudio+0x78>
    19ba:	47 c0       	rjmp	.+142    	; 0x1a4a <GenerateAudio+0x106>
                    if (start == 0) {
    19bc:	80 91 58 38 	lds	r24, 0x3858	; 0x803858 <start.3990>
    19c0:	81 11       	cpse	r24, r1
    19c2:	15 c0       	rjmp	.+42     	; 0x19ee <GenerateAudio+0xaa>
                        duration = 4;
    19c4:	84 e0       	ldi	r24, 0x04	; 4
    19c6:	80 93 57 38 	sts	0x3857, r24	; 0x803857 <duration.3989>
                        loudness = 0xff;
    19ca:	8f ef       	ldi	r24, 0xFF	; 255
    19cc:	80 93 56 38 	sts	0x3856, r24	; 0x803856 <loudness.3988>
                        TCB1_CCMP = 0x2000;
    19d0:	80 e0       	ldi	r24, 0x00	; 0
    19d2:	90 e2       	ldi	r25, 0x20	; 32
    19d4:	80 93 5c 0a 	sts	0x0A5C, r24	; 0x800a5c <__TEXT_REGION_LENGTH__+0x700a5c>
    19d8:	90 93 5d 0a 	sts	0x0A5D, r25	; 0x800a5d <__TEXT_REGION_LENGTH__+0x700a5d>
                        auRepAddr = &auBuffer[0];
    19dc:	80 e1       	ldi	r24, 0x10	; 16
    19de:	98 e3       	ldi	r25, 0x38	; 56
    19e0:	80 93 05 38 	sts	0x3805, r24	; 0x803805 <auRepAddr>
    19e4:	90 93 06 38 	sts	0x3806, r25	; 0x803806 <auRepAddr+0x1>
                        start = 1;
    19e8:	81 e0       	ldi	r24, 0x01	; 1
    19ea:	80 93 58 38 	sts	0x3858, r24	; 0x803858 <start.3990>
                    }

                    if (loudness) {
    19ee:	80 91 56 38 	lds	r24, 0x3856	; 0x803856 <loudness.3988>
    19f2:	88 23       	and	r24, r24
    19f4:	69 f0       	breq	.+26     	; 0x1a10 <GenerateAudio+0xcc>
                        auVolume = loudness;
    19f6:	80 93 b6 3a 	sts	0x3AB6, r24	; 0x803ab6 <auVolume>
                        if (duration) duration--; else loudness >>= 1;
    19fa:	90 91 57 38 	lds	r25, 0x3857	; 0x803857 <duration.3989>
    19fe:	99 23       	and	r25, r25
    1a00:	21 f0       	breq	.+8      	; 0x1a0a <GenerateAudio+0xc6>
    1a02:	91 50       	subi	r25, 0x01	; 1
    1a04:	90 93 57 38 	sts	0x3857, r25	; 0x803857 <duration.3989>
    1a08:	03 c0       	rjmp	.+6      	; 0x1a10 <GenerateAudio+0xcc>
    1a0a:	86 95       	lsr	r24
    1a0c:	80 93 56 38 	sts	0x3856, r24	; 0x803856 <loudness.3988>
                    } 

                    if (loudness == 0) {
    1a10:	80 91 56 38 	lds	r24, 0x3856	; 0x803856 <loudness.3988>
    1a14:	81 11       	cpse	r24, r1
    1a16:	19 c0       	rjmp	.+50     	; 0x1a4a <GenerateAudio+0x106>
                        effect &= 0x1f;
    1a18:	80 91 3a 38 	lds	r24, 0x383A	; 0x80383a <effect>
    1a1c:	90 91 3b 38 	lds	r25, 0x383B	; 0x80383b <effect+0x1>
    1a20:	8f 71       	andi	r24, 0x1F	; 31
    1a22:	99 27       	eor	r25, r25
    1a24:	80 93 3a 38 	sts	0x383A, r24	; 0x80383a <effect>
    1a28:	90 93 3b 38 	sts	0x383B, r25	; 0x80383b <effect+0x1>
                        auRepAddr = &zero;
    1a2c:	88 e3       	ldi	r24, 0x38	; 56
    1a2e:	98 e3       	ldi	r25, 0x38	; 56
    1a30:	80 93 05 38 	sts	0x3805, r24	; 0x803805 <auRepAddr>
    1a34:	90 93 06 38 	sts	0x3806, r25	; 0x803806 <auRepAddr+0x1>
                        auSmpAddr = &zero;
    1a38:	80 93 07 38 	sts	0x3807, r24	; 0x803807 <auSmpAddr>
    1a3c:	90 93 08 38 	sts	0x3808, r25	; 0x803808 <auSmpAddr+0x1>
                        auVolume = 0xff;
    1a40:	8f ef       	ldi	r24, 0xFF	; 255
    1a42:	80 93 b6 3a 	sts	0x3AB6, r24	; 0x803ab6 <auVolume>
                        start = 0;
    1a46:	10 92 58 38 	sts	0x3858, r1	; 0x803858 <start.3990>
                    }
                }
            }

            //Good (bell)
            if ((effect&0xE0)==64){
    1a4a:	80 91 3a 38 	lds	r24, 0x383A	; 0x80383a <effect>
    1a4e:	90 91 3b 38 	lds	r25, 0x383B	; 0x80383b <effect+0x1>
                //auBuffer = 
            }

            //Rain storm with whistling wind
            if ((effect&0xE0)==96){
    1a52:	80 91 3a 38 	lds	r24, 0x383A	; 0x80383a <effect>
    1a56:	90 91 3b 38 	lds	r25, 0x383B	; 0x80383b <effect+0x1>
    1a5a:	80 7e       	andi	r24, 0xE0	; 224
    1a5c:	99 27       	eor	r25, r25
    1a5e:	80 36       	cpi	r24, 0x60	; 96
    1a60:	91 05       	cpc	r25, r1
    1a62:	a9 f5       	brne	.+106    	; 0x1ace <GenerateAudio+0x18a>
                static uint8_t auBuffer[7];
                auBuffer[6]= 0;        
    1a64:	10 92 55 38 	sts	0x3855, r1	; 0x803855 <auBuffer.3991+0x6>
                auRepAddr = &auBuffer[0];
    1a68:	8f e4       	ldi	r24, 0x4F	; 79
    1a6a:	98 e3       	ldi	r25, 0x38	; 56
    1a6c:	80 93 05 38 	sts	0x3805, r24	; 0x803805 <auRepAddr>
    1a70:	90 93 06 38 	sts	0x3806, r25	; 0x803806 <auRepAddr+0x1>
    1a74:	8c 01       	movw	r16, r24

                //Noise is to be generated fast, outside of buttonMark loop
                for (uint8_t x=1; x<6; ++x){
    1a76:	c1 e0       	ldi	r28, 0x01	; 1
                    if ((x>0) && (x!=3)) auBuffer[x] = floatAround(0x80, 5, 0x01, 0x00);
    1a78:	c3 30       	cpi	r28, 0x03	; 3
    1a7a:	39 f0       	breq	.+14     	; 0x1a8a <GenerateAudio+0x146>
    1a7c:	20 e0       	ldi	r18, 0x00	; 0
    1a7e:	41 e0       	ldi	r20, 0x01	; 1
    1a80:	65 e0       	ldi	r22, 0x05	; 5
    1a82:	80 e8       	ldi	r24, 0x80	; 128
    1a84:	b2 dc       	rcall	.-1692   	; 0x13ea <floatAround>
    1a86:	f8 01       	movw	r30, r16
    1a88:	81 83       	std	Z+1, r24	; 0x01
                static uint8_t auBuffer[7];
                auBuffer[6]= 0;        
                auRepAddr = &auBuffer[0];

                //Noise is to be generated fast, outside of buttonMark loop
                for (uint8_t x=1; x<6; ++x){
    1a8a:	cf 5f       	subi	r28, 0xFF	; 255
    1a8c:	0f 5f       	subi	r16, 0xFF	; 255
    1a8e:	1f 4f       	sbci	r17, 0xFF	; 255
    1a90:	c6 30       	cpi	r28, 0x06	; 6
    1a92:	91 f7       	brne	.-28     	; 0x1a78 <GenerateAudio+0x134>
                    if ((x>0) && (x!=3)) auBuffer[x] = floatAround(0x80, 5, 0x01, 0x00);
                }

                if (buttonMark){
    1a94:	80 91 42 38 	lds	r24, 0x3842	; 0x803842 <buttonMark>
    1a98:	88 23       	and	r24, r24
    1a9a:	c9 f0       	breq	.+50     	; 0x1ace <GenerateAudio+0x18a>
                    //"Floating" speed for howl (and noise, but that's hardly audible)
                    floatSpeed(5, 0x0280, 0x0400);
    1a9c:	40 e0       	ldi	r20, 0x00	; 0
    1a9e:	54 e0       	ldi	r21, 0x04	; 4
    1aa0:	60 e8       	ldi	r22, 0x80	; 128
    1aa2:	72 e0       	ldi	r23, 0x02	; 2
    1aa4:	85 e0       	ldi	r24, 0x05	; 5
    1aa6:	6f dc       	rcall	.-1826   	; 0x1386 <floatSpeed>
            
                    //"Floating" volume and wind howl during 8 bit rainstorm needs some randomness
                    auVolume = floatAround(auVolume, 2, 0x10, 0xA0);
    1aa8:	80 91 b6 3a 	lds	r24, 0x3AB6	; 0x803ab6 <auVolume>
    1aac:	20 ea       	ldi	r18, 0xA0	; 160
    1aae:	40 e1       	ldi	r20, 0x10	; 16
    1ab0:	62 e0       	ldi	r22, 0x02	; 2
    1ab2:	9b dc       	rcall	.-1738   	; 0x13ea <floatAround>
    1ab4:	80 93 b6 3a 	sts	0x3AB6, r24	; 0x803ab6 <auVolume>
                    auBuffer[0] = floatAround(auBuffer[0], 2, 0x70, 0x90);
    1ab8:	20 e9       	ldi	r18, 0x90	; 144
    1aba:	40 e7       	ldi	r20, 0x70	; 112
    1abc:	62 e0       	ldi	r22, 0x02	; 2
    1abe:	80 91 4f 38 	lds	r24, 0x384F	; 0x80384f <auBuffer.3991>
    1ac2:	93 dc       	rcall	.-1754   	; 0x13ea <floatAround>
    1ac4:	80 93 4f 38 	sts	0x384F, r24	; 0x80384f <auBuffer.3991>
                    auBuffer[3] = 0xFF-auBuffer[0];  //Inverse value of wind[0] produces a whistle
    1ac8:	80 95       	com	r24
    1aca:	80 93 52 38 	sts	0x3852, r24	; 0x803852 <auBuffer.3991+0x3>
                }
            }

            //Footsteps
            if ((effect&0xE0)==128){
    1ace:	80 91 3a 38 	lds	r24, 0x383A	; 0x80383a <effect>
    1ad2:	90 91 3b 38 	lds	r25, 0x383B	; 0x80383b <effect+0x1>

            }

            //
            if ((effect&0xE0)==160){
    1ad6:	80 91 3a 38 	lds	r24, 0x383A	; 0x80383a <effect>
    1ada:	90 91 3b 38 	lds	r25, 0x383B	; 0x80383b <effect+0x1>

            }

            //
            if ((effect&0xE0)==192){
    1ade:	80 91 3a 38 	lds	r24, 0x383A	; 0x80383a <effect>
    1ae2:	90 91 3b 38 	lds	r25, 0x383B	; 0x80383b <effect+0x1>
    1ae6:	5f c0       	rjmp	.+190    	; 0x1ba6 <GenerateAudio+0x262>
            }

            //
            else {
            }
        } else if ((effect&0xff00)==0x0100) {
    1ae8:	80 91 3a 38 	lds	r24, 0x383A	; 0x80383a <effect>
    1aec:	90 91 3b 38 	lds	r25, 0x383B	; 0x80383b <effect+0x1>
    1af0:	88 27       	eor	r24, r24
    1af2:	81 15       	cp	r24, r1
    1af4:	91 40       	sbci	r25, 0x01	; 1
    1af6:	09 f0       	breq	.+2      	; 0x1afa <GenerateAudio+0x1b6>
    1af8:	56 c0       	rjmp	.+172    	; 0x1ba6 <GenerateAudio+0x262>
            if ((effect&0xE0) <= 0x90) {
    1afa:	80 91 3a 38 	lds	r24, 0x383A	; 0x80383a <effect>
    1afe:	90 91 3b 38 	lds	r25, 0x383B	; 0x80383b <effect+0x1>
    1b02:	80 7e       	andi	r24, 0xE0	; 224
    1b04:	99 27       	eor	r25, r25
    1b06:	81 39       	cpi	r24, 0x91	; 145
    1b08:	91 05       	cpc	r25, r1
    1b0a:	08 f0       	brcs	.+2      	; 0x1b0e <GenerateAudio+0x1ca>
    1b0c:	4c c0       	rjmp	.+152    	; 0x1ba6 <GenerateAudio+0x262>
                
                static uint8_t auBuffer[3] = {255, 1, 0};
                static uint8_t duration, start;
                uint16_t freq = ((effect&0xE0)+1)<<6;
    1b0e:	60 91 3a 38 	lds	r22, 0x383A	; 0x80383a <effect>
    1b12:	70 91 3b 38 	lds	r23, 0x383B	; 0x80383b <effect+0x1>
    1b16:	60 7e       	andi	r22, 0xE0	; 224
    1b18:	77 27       	eor	r23, r23
    1b1a:	6f 5f       	subi	r22, 0xFF	; 255
    1b1c:	7f 4f       	sbci	r23, 0xFF	; 255
    1b1e:	86 e0       	ldi	r24, 0x06	; 6
    1b20:	66 0f       	add	r22, r22
    1b22:	77 1f       	adc	r23, r23
    1b24:	8a 95       	dec	r24
                floatSpeed(1, freq+0x0200, freq+0x0300);
    1b26:	e1 f7       	brne	.-8      	; 0x1b20 <GenerateAudio+0x1dc>
    1b28:	ab 01       	movw	r20, r22
    1b2a:	5d 5f       	subi	r21, 0xFD	; 253
    1b2c:	7e 5f       	subi	r23, 0xFE	; 254
    1b2e:	81 e0       	ldi	r24, 0x01	; 1
    1b30:	2a dc       	rcall	.-1964   	; 0x1386 <floatSpeed>
                //auBuffer[] = floatAround(0x80, 5, 0x01, 0x00);

                if (buttonMark) {
    1b32:	80 91 42 38 	lds	r24, 0x3842	; 0x803842 <buttonMark>
    1b36:	88 23       	and	r24, r24
    1b38:	b1 f1       	breq	.+108    	; 0x1ba6 <GenerateAudio+0x262>
                    if (start == 0) {
    1b3a:	80 91 4e 38 	lds	r24, 0x384E	; 0x80384e <start.3998>
    1b3e:	81 11       	cpse	r24, r1
    1b40:	0e c0       	rjmp	.+28     	; 0x1b5e <GenerateAudio+0x21a>
                        duration = 3;
    1b42:	83 e0       	ldi	r24, 0x03	; 3
    1b44:	80 93 4d 38 	sts	0x384D, r24	; 0x80384d <duration.3997>
                        auRepAddr = &auBuffer[0];
    1b48:	8d e0       	ldi	r24, 0x0D	; 13
    1b4a:	98 e3       	ldi	r25, 0x38	; 56
    1b4c:	80 93 05 38 	sts	0x3805, r24	; 0x803805 <auRepAddr>
    1b50:	90 93 06 38 	sts	0x3806, r25	; 0x803806 <auRepAddr+0x1>
                        auVolume = 255;
    1b54:	8f ef       	ldi	r24, 0xFF	; 255
    1b56:	80 93 b6 3a 	sts	0x3AB6, r24	; 0x803ab6 <auVolume>
                        start = 1;
    1b5a:	c0 93 4e 38 	sts	0x384E, r28	; 0x80384e <start.3998>
                    }   if (duration == 0) {
    1b5e:	80 91 4d 38 	lds	r24, 0x384D	; 0x80384d <duration.3997>
    1b62:	81 11       	cpse	r24, r1
    1b64:	1a c0       	rjmp	.+52     	; 0x1b9a <GenerateAudio+0x256>
                        effect &= 0x1f;
    1b66:	80 91 3a 38 	lds	r24, 0x383A	; 0x80383a <effect>
    1b6a:	90 91 3b 38 	lds	r25, 0x383B	; 0x80383b <effect+0x1>
    1b6e:	8f 71       	andi	r24, 0x1F	; 31
    1b70:	99 27       	eor	r25, r25
    1b72:	80 93 3a 38 	sts	0x383A, r24	; 0x80383a <effect>
    1b76:	90 93 3b 38 	sts	0x383B, r25	; 0x80383b <effect+0x1>
                        auRepAddr = &zero;
    1b7a:	88 e3       	ldi	r24, 0x38	; 56
    1b7c:	98 e3       	ldi	r25, 0x38	; 56
    1b7e:	80 93 05 38 	sts	0x3805, r24	; 0x803805 <auRepAddr>
    1b82:	90 93 06 38 	sts	0x3806, r25	; 0x803806 <auRepAddr+0x1>
                        auSmpAddr = &zero;
    1b86:	80 93 07 38 	sts	0x3807, r24	; 0x803807 <auSmpAddr>
    1b8a:	90 93 08 38 	sts	0x3808, r25	; 0x803808 <auSmpAddr+0x1>
                        auVolume = 0xff;
    1b8e:	8f ef       	ldi	r24, 0xFF	; 255
    1b90:	80 93 b6 3a 	sts	0x3AB6, r24	; 0x803ab6 <auVolume>
                        start = 0;
    1b94:	10 92 4e 38 	sts	0x384E, r1	; 0x80384e <start.3998>
    1b98:	06 c0       	rjmp	.+12     	; 0x1ba6 <GenerateAudio+0x262>
                    } else duration--;
    1b9a:	81 50       	subi	r24, 0x01	; 1
    1b9c:	80 93 4d 38 	sts	0x384D, r24	; 0x80384d <duration.3997>
    1ba0:	02 c0       	rjmp	.+4      	; 0x1ba6 <GenerateAudio+0x262>
                }
            }
        }
    } else {
        detHdPh = 0;
    1ba2:	10 92 bf 3a 	sts	0x3ABF, r1	; 0x803abf <detHdPh>
    }
    return buttonMark;
    1ba6:	80 91 42 38 	lds	r24, 0x3842	; 0x803842 <buttonMark>
}
    1baa:	cf 91       	pop	r28
    1bac:	1f 91       	pop	r17
    1bae:	0f 91       	pop	r16
    1bb0:	08 95       	ret

00001bb2 <getClock>:

uint16_t getClock() {
    return 60 * minuteMark + (RTC_CNT>>9);
    1bb2:	20 91 43 38 	lds	r18, 0x3843	; 0x803843 <minuteMark>
    1bb6:	80 91 48 01 	lds	r24, 0x0148	; 0x800148 <__TEXT_REGION_LENGTH__+0x700148>
    1bba:	90 91 49 01 	lds	r25, 0x0149	; 0x800149 <__TEXT_REGION_LENGTH__+0x700149>
    1bbe:	89 2f       	mov	r24, r25
    1bc0:	99 27       	eor	r25, r25
    1bc2:	86 95       	lsr	r24
}
    1bc4:	3c e3       	ldi	r19, 0x3C	; 60
    1bc6:	23 9f       	mul	r18, r19
    1bc8:	80 0d       	add	r24, r0
    1bca:	91 1d       	adc	r25, r1
    1bcc:	11 24       	eor	r1, r1
    1bce:	08 95       	ret

00001bd0 <idleTimeout>:

uint8_t idleTimeout(uint16_t lastActive, uint16_t maxIdle) {
    1bd0:	0f 93       	push	r16
    1bd2:	1f 93       	push	r17
    1bd4:	cf 93       	push	r28
    1bd6:	df 93       	push	r29
    1bd8:	8c 01       	movw	r16, r24
    1bda:	eb 01       	movw	r28, r22
    uint16_t curClock;

    curClock = getClock();
    1bdc:	ea df       	rcall	.-44     	; 0x1bb2 <getClock>
    1bde:	9c 01       	movw	r18, r24
    if (curClock < lastActive)
    1be0:	80 17       	cp	r24, r16
    1be2:	91 07       	cpc	r25, r17
    1be4:	08 f4       	brcc	.+2      	; 0x1be8 <idleTimeout+0x18>
        curClock += 256 * 60;
    1be6:	34 5c       	subi	r19, 0xC4	; 196

    return (curClock > (lastActive + maxIdle));
    1be8:	c0 0f       	add	r28, r16
    1bea:	d1 1f       	adc	r29, r17
    1bec:	81 e0       	ldi	r24, 0x01	; 1
    1bee:	c2 17       	cp	r28, r18
    1bf0:	d3 07       	cpc	r29, r19
    1bf2:	08 f0       	brcs	.+2      	; 0x1bf6 <idleTimeout+0x26>
    1bf4:	80 e0       	ldi	r24, 0x00	; 0
}
    1bf6:	df 91       	pop	r29
    1bf8:	cf 91       	pop	r28
    1bfa:	1f 91       	pop	r17
    1bfc:	0f 91       	pop	r16
    1bfe:	08 95       	ret

00001c00 <simonLed>:

/**
 * Set the wing LED blocks to selected option
 * @param val
 */
void simonLed(uint8_t val) {
    1c00:	cf 93       	push	r28
    1c02:	df 93       	push	r29
    1c04:	e6 ef       	ldi	r30, 0xF6	; 246
    1c06:	ff eb       	ldi	r31, 0xBF	; 191
    1c08:	ef 01       	movw	r28, r30
    for (uint8_t n = 0; n < 5; n++) {
        iLED[WING[L][n]] = 0;
    1c0a:	a5 81       	ldd	r26, Z+5	; 0x05
    1c0c:	b0 e0       	ldi	r27, 0x00	; 0
    1c0e:	a6 53       	subi	r26, 0x36	; 54
    1c10:	b5 4c       	sbci	r27, 0xC5	; 197
    1c12:	1c 92       	st	X, r1
    1c14:	31 96       	adiw	r30, 0x01	; 1
        iLED[WING[R][n]] = 0;
    1c16:	a8 81       	ld	r26, Y
    1c18:	b0 e0       	ldi	r27, 0x00	; 0
    1c1a:	a6 53       	subi	r26, 0x36	; 54
    1c1c:	b5 4c       	sbci	r27, 0xC5	; 197
    1c1e:	1c 92       	st	X, r1
/**
 * Set the wing LED blocks to selected option
 * @param val
 */
void simonLed(uint8_t val) {
    for (uint8_t n = 0; n < 5; n++) {
    1c20:	9f eb       	ldi	r25, 0xBF	; 191
    1c22:	eb 3f       	cpi	r30, 0xFB	; 251
    1c24:	f9 07       	cpc	r31, r25
    1c26:	81 f7       	brne	.-32     	; 0x1c08 <simonLed+0x8>
        iLED[WING[L][n]] = 0;
        iLED[WING[R][n]] = 0;
    }
    if (val == 1) {
    1c28:	81 30       	cpi	r24, 0x01	; 1
    1c2a:	d9 f4       	brne	.+54     	; 0x1c62 <simonLed+0x62>
        iLED[WING[L][0]] = dimValue;
    1c2c:	e0 91 fb bf 	lds	r30, 0xBFFB	; 0x80bffb <__bss_end+0x84e1>
    1c30:	f0 e0       	ldi	r31, 0x00	; 0
    1c32:	80 91 0b 38 	lds	r24, 0x380B	; 0x80380b <dimValue>
    1c36:	e6 53       	subi	r30, 0x36	; 54
    1c38:	f5 4c       	sbci	r31, 0xC5	; 197
    1c3a:	80 83       	st	Z, r24
        iLED[WING[L][1]] = dimValue;
    1c3c:	e0 91 fc bf 	lds	r30, 0xBFFC	; 0x80bffc <__bss_end+0x84e2>
    1c40:	f0 e0       	ldi	r31, 0x00	; 0
    1c42:	80 91 0b 38 	lds	r24, 0x380B	; 0x80380b <dimValue>
    1c46:	e6 53       	subi	r30, 0x36	; 54
    1c48:	f5 4c       	sbci	r31, 0xC5	; 197
    1c4a:	80 83       	st	Z, r24
        iLED[WING[L][2]] = dimValue;
    1c4c:	e0 91 fd bf 	lds	r30, 0xBFFD	; 0x80bffd <__bss_end+0x84e3>
    1c50:	f0 e0       	ldi	r31, 0x00	; 0
    1c52:	80 91 0b 38 	lds	r24, 0x380B	; 0x80380b <dimValue>
    1c56:	e6 53       	subi	r30, 0x36	; 54
    1c58:	f5 4c       	sbci	r31, 0xC5	; 197
    1c5a:	80 83       	st	Z, r24
        effect = 0x013f;
    1c5c:	8f e3       	ldi	r24, 0x3F	; 63
    1c5e:	91 e0       	ldi	r25, 0x01	; 1
    1c60:	46 c0       	rjmp	.+140    	; 0x1cee <simonLed+0xee>
    } else if (val == 2) {
    1c62:	82 30       	cpi	r24, 0x02	; 2
    1c64:	99 f4       	brne	.+38     	; 0x1c8c <simonLed+0x8c>
        iLED[WING[L][3]] = dimValue;
    1c66:	e0 91 fe bf 	lds	r30, 0xBFFE	; 0x80bffe <__bss_end+0x84e4>
    1c6a:	f0 e0       	ldi	r31, 0x00	; 0
    1c6c:	80 91 0b 38 	lds	r24, 0x380B	; 0x80380b <dimValue>
    1c70:	e6 53       	subi	r30, 0x36	; 54
    1c72:	f5 4c       	sbci	r31, 0xC5	; 197
    1c74:	80 83       	st	Z, r24
        iLED[WING[L][4]] = dimValue;
    1c76:	e0 91 ff bf 	lds	r30, 0xBFFF	; 0x80bfff <__bss_end+0x84e5>
    1c7a:	f0 e0       	ldi	r31, 0x00	; 0
    1c7c:	80 91 0b 38 	lds	r24, 0x380B	; 0x80380b <dimValue>
    1c80:	e6 53       	subi	r30, 0x36	; 54
    1c82:	f5 4c       	sbci	r31, 0xC5	; 197
    1c84:	80 83       	st	Z, r24
        effect = 0x015f;
    1c86:	8f e5       	ldi	r24, 0x5F	; 95
    1c88:	91 e0       	ldi	r25, 0x01	; 1
    1c8a:	31 c0       	rjmp	.+98     	; 0x1cee <simonLed+0xee>
    } else if (val == 3) {
    1c8c:	83 30       	cpi	r24, 0x03	; 3
    1c8e:	d9 f4       	brne	.+54     	; 0x1cc6 <simonLed+0xc6>
        iLED[WING[R][0]] = dimValue;
    1c90:	e0 91 f6 bf 	lds	r30, 0xBFF6	; 0x80bff6 <__bss_end+0x84dc>
    1c94:	f0 e0       	ldi	r31, 0x00	; 0
    1c96:	80 91 0b 38 	lds	r24, 0x380B	; 0x80380b <dimValue>
    1c9a:	e6 53       	subi	r30, 0x36	; 54
    1c9c:	f5 4c       	sbci	r31, 0xC5	; 197
    1c9e:	80 83       	st	Z, r24
        iLED[WING[R][1]] = dimValue;
    1ca0:	e0 91 f7 bf 	lds	r30, 0xBFF7	; 0x80bff7 <__bss_end+0x84dd>
    1ca4:	f0 e0       	ldi	r31, 0x00	; 0
    1ca6:	80 91 0b 38 	lds	r24, 0x380B	; 0x80380b <dimValue>
    1caa:	e6 53       	subi	r30, 0x36	; 54
    1cac:	f5 4c       	sbci	r31, 0xC5	; 197
    1cae:	80 83       	st	Z, r24
        iLED[WING[R][2]] = dimValue;
    1cb0:	e0 91 f8 bf 	lds	r30, 0xBFF8	; 0x80bff8 <__bss_end+0x84de>
    1cb4:	f0 e0       	ldi	r31, 0x00	; 0
    1cb6:	80 91 0b 38 	lds	r24, 0x380B	; 0x80380b <dimValue>
    1cba:	e6 53       	subi	r30, 0x36	; 54
    1cbc:	f5 4c       	sbci	r31, 0xC5	; 197
    1cbe:	80 83       	st	Z, r24
        effect = 0x017f;
    1cc0:	8f e7       	ldi	r24, 0x7F	; 127
    1cc2:	91 e0       	ldi	r25, 0x01	; 1
    1cc4:	14 c0       	rjmp	.+40     	; 0x1cee <simonLed+0xee>
    } else if (val == 4) {
    1cc6:	84 30       	cpi	r24, 0x04	; 4
    1cc8:	b1 f4       	brne	.+44     	; 0x1cf6 <simonLed+0xf6>
        iLED[WING[R][3]] = dimValue;
    1cca:	e0 91 f9 bf 	lds	r30, 0xBFF9	; 0x80bff9 <__bss_end+0x84df>
    1cce:	f0 e0       	ldi	r31, 0x00	; 0
    1cd0:	80 91 0b 38 	lds	r24, 0x380B	; 0x80380b <dimValue>
    1cd4:	e6 53       	subi	r30, 0x36	; 54
    1cd6:	f5 4c       	sbci	r31, 0xC5	; 197
    1cd8:	80 83       	st	Z, r24
        iLED[WING[R][4]] = dimValue;
    1cda:	e0 91 fa bf 	lds	r30, 0xBFFA	; 0x80bffa <__bss_end+0x84e0>
    1cde:	f0 e0       	ldi	r31, 0x00	; 0
    1ce0:	80 91 0b 38 	lds	r24, 0x380B	; 0x80380b <dimValue>
    1ce4:	e6 53       	subi	r30, 0x36	; 54
    1ce6:	f5 4c       	sbci	r31, 0xC5	; 197
    1ce8:	80 83       	st	Z, r24
        effect = 0x019f;
    1cea:	8f e9       	ldi	r24, 0x9F	; 159
    1cec:	91 e0       	ldi	r25, 0x01	; 1
    1cee:	80 93 3a 38 	sts	0x383A, r24	; 0x80383a <effect>
    1cf2:	90 93 3b 38 	sts	0x383B, r25	; 0x80383b <effect+0x1>
    }
}
    1cf6:	df 91       	pop	r29
    1cf8:	cf 91       	pop	r28
    1cfa:	08 95       	ret

00001cfc <BastetDictates>:

/**
 * Main game loop
 * @return 0
 */
uint8_t BastetDictates() {
    1cfc:	0f 93       	push	r16
    1cfe:	1f 93       	push	r17
    1d00:	cf 93       	push	r28
    1d02:	df 93       	push	r29
    if (CheckState(BASTET_COMPLETED))
    1d04:	8a e7       	ldi	r24, 0x7A	; 122
    1d06:	4e dc       	rcall	.-1892   	; 0x15a4 <CheckState>
    1d08:	81 11       	cpse	r24, r1
    1d0a:	65 c1       	rjmp	.+714    	; 0x1fd6 <BastetDictates+0x2da>
        return 0;

    if ((TEXT != gameNow) && (BASTET != gameNow))
    1d0c:	80 91 3c 38 	lds	r24, 0x383C	; 0x80383c <gameNow>
    1d10:	8d 7f       	andi	r24, 0xFD	; 253
    1d12:	09 f0       	breq	.+2      	; 0x1d16 <BastetDictates+0x1a>
    1d14:	60 c1       	rjmp	.+704    	; 0x1fd6 <BastetDictates+0x2da>
        return 0;

    if (BASTET_BOOT == simonGameState) {
    1d16:	80 91 5c 38 	lds	r24, 0x385C	; 0x80385c <simonGameState>
    1d1a:	81 11       	cpse	r24, r1
    1d1c:	21 c0       	rjmp	.+66     	; 0x1d60 <BastetDictates+0x64>
        simonPos = ((adcPhot+adcTemp)&0x3f);
    1d1e:	20 91 bd 3a 	lds	r18, 0x3ABD	; 0x803abd <adcPhot>
    1d22:	30 91 be 3a 	lds	r19, 0x3ABE	; 0x803abe <adcPhot+0x1>
    1d26:	80 91 f5 3a 	lds	r24, 0x3AF5	; 0x803af5 <adcTemp>
    1d2a:	90 91 f6 3a 	lds	r25, 0x3AF6	; 0x803af6 <adcTemp+0x1>
    1d2e:	82 0f       	add	r24, r18
    1d30:	8f 73       	andi	r24, 0x3F	; 63
    1d32:	80 93 61 38 	sts	0x3861, r24	; 0x803861 <simonPos>
        for(uint8_t x=0; x<simonPos; ++x) lfsr();
    1d36:	c0 e0       	ldi	r28, 0x00	; 0
    1d38:	80 91 61 38 	lds	r24, 0x3861	; 0x803861 <simonPos>
    1d3c:	c8 17       	cp	r28, r24
    1d3e:	18 f4       	brcc	.+6      	; 0x1d46 <BastetDictates+0x4a>
    1d40:	03 db       	rcall	.-2554   	; 0x1348 <lfsr>
    1d42:	cf 5f       	subi	r28, 0xFF	; 255
    1d44:	f9 cf       	rjmp	.-14     	; 0x1d38 <BastetDictates+0x3c>
    1d46:	c2 e6       	ldi	r28, 0x62	; 98
    1d48:	d8 e3       	ldi	r29, 0x38	; 56
    1d4a:	0e e6       	ldi	r16, 0x6E	; 110

        for (uint8_t i = 0; i < BASTET_LENGTH; i++) {
            simonState[i] = (lfsr() % 4);
    1d4c:	18 e3       	ldi	r17, 0x38	; 56
    1d4e:	fc da       	rcall	.-2568   	; 0x1348 <lfsr>
    1d50:	83 70       	andi	r24, 0x03	; 3
    1d52:	89 93       	st	Y+, r24

    if (BASTET_BOOT == simonGameState) {
        simonPos = ((adcPhot+adcTemp)&0x3f);
        for(uint8_t x=0; x<simonPos; ++x) lfsr();

        for (uint8_t i = 0; i < BASTET_LENGTH; i++) {
    1d54:	0c 17       	cp	r16, r28
    1d56:	1d 07       	cpc	r17, r29
    1d58:	d1 f7       	brne	.-12     	; 0x1d4e <BastetDictates+0x52>
            simonState[i] = (lfsr() % 4);
        }
        simonGameState = BASTET_GAME_START;
    1d5a:	81 e0       	ldi	r24, 0x01	; 1
    1d5c:	80 93 5c 38 	sts	0x385C, r24	; 0x80385c <simonGameState>
    }

    if (BASTET_GAME_START == simonGameState && BASTET == gameNow) {
    1d60:	80 91 5c 38 	lds	r24, 0x385C	; 0x80385c <simonGameState>
    1d64:	81 30       	cpi	r24, 0x01	; 1
    1d66:	71 f4       	brne	.+28     	; 0x1d84 <BastetDictates+0x88>
    1d68:	80 91 3c 38 	lds	r24, 0x383C	; 0x80383c <gameNow>
    1d6c:	82 30       	cpi	r24, 0x02	; 2
    1d6e:	51 f4       	brne	.+20     	; 0x1d84 <BastetDictates+0x88>
        gameNow = BASTET;
        simonGameState = BASTET_GAME_INTRO;
    1d70:	80 93 5c 38 	sts	0x385C, r24	; 0x80385c <simonGameState>
        simonPos = 0;
    1d74:	10 92 61 38 	sts	0x3861, r1	; 0x803861 <simonPos>
        simonInputPos = 0;
    1d78:	10 92 60 38 	sts	0x3860, r1	; 0x803860 <simonInputPos>
        simonTimer = 0;
    1d7c:	10 92 5f 38 	sts	0x385F, r1	; 0x80385f <simonTimer>
        simonCounter = 0;
    1d80:	10 92 5d 38 	sts	0x385D, r1	; 0x80385d <simonCounter>
    }

    if (BASTET_GAME_INTRO == simonGameState) {
    1d84:	80 91 5c 38 	lds	r24, 0x385C	; 0x80385c <simonGameState>
    1d88:	82 30       	cpi	r24, 0x02	; 2
    1d8a:	11 f5       	brne	.+68     	; 0x1dd0 <BastetDictates+0xd4>
        if (simonTimer > 5) {   // .33 seconds
    1d8c:	80 91 5f 38 	lds	r24, 0x385F	; 0x80385f <simonTimer>
    1d90:	86 30       	cpi	r24, 0x06	; 6
    1d92:	38 f0       	brcs	.+14     	; 0x1da2 <BastetDictates+0xa6>
            simonCounter++;
    1d94:	80 91 5d 38 	lds	r24, 0x385D	; 0x80385d <simonCounter>
    1d98:	8f 5f       	subi	r24, 0xFF	; 255
    1d9a:	80 93 5d 38 	sts	0x385D, r24	; 0x80385d <simonCounter>
            simonTimer = 0;
    1d9e:	10 92 5f 38 	sts	0x385F, r1	; 0x80385f <simonTimer>
        }
        if (simonCounter > 6) {
    1da2:	e0 91 5d 38 	lds	r30, 0x385D	; 0x80385d <simonCounter>
    1da6:	e7 30       	cpi	r30, 0x07	; 7
    1da8:	40 f0       	brcs	.+16     	; 0x1dba <BastetDictates+0xbe>
            simonGameState = BASTET_GAME_SHOW_PATTERN;
    1daa:	83 e0       	ldi	r24, 0x03	; 3
    1dac:	80 93 5c 38 	sts	0x385C, r24	; 0x80385c <simonGameState>
//            for (uint8_t n=0; n<6; n++){
//                iLED[HCKR[R][n]] = 1;
//            }
            simonTimer = 0;
    1db0:	10 92 5f 38 	sts	0x385F, r1	; 0x80385f <simonTimer>
            simonCounter = 0;
    1db4:	10 92 5d 38 	sts	0x385D, r1	; 0x80385d <simonCounter>
            return 0;
    1db8:	0e c1       	rjmp	.+540    	; 0x1fd6 <BastetDictates+0x2da>
        }
        iLED[HCKR[R][simonCounter]] = dimValue;
    1dba:	f0 e0       	ldi	r31, 0x00	; 0
    1dbc:	ec 5f       	subi	r30, 0xFC	; 252
    1dbe:	ff 43       	sbci	r31, 0x3F	; 63
    1dc0:	e0 81       	ld	r30, Z
    1dc2:	f0 e0       	ldi	r31, 0x00	; 0
    1dc4:	80 91 0b 38 	lds	r24, 0x380B	; 0x80380b <dimValue>
    1dc8:	e6 53       	subi	r30, 0x36	; 54
    1dca:	f5 4c       	sbci	r31, 0xC5	; 197
    1dcc:	80 83       	st	Z, r24
    1dce:	20 c0       	rjmp	.+64     	; 0x1e10 <BastetDictates+0x114>
    }

    if (BASTET_GAME_SHOW_PATTERN == simonGameState) {
    1dd0:	83 30       	cpi	r24, 0x03	; 3
    1dd2:	f1 f4       	brne	.+60     	; 0x1e10 <BastetDictates+0x114>
        if (simonTimer > 15) {   //  ! second
    1dd4:	80 91 5f 38 	lds	r24, 0x385F	; 0x80385f <simonTimer>
    1dd8:	80 31       	cpi	r24, 0x10	; 16
    1dda:	38 f0       	brcs	.+14     	; 0x1dea <BastetDictates+0xee>
            simonCounter++;
    1ddc:	80 91 5d 38 	lds	r24, 0x385D	; 0x80385d <simonCounter>
    1de0:	8f 5f       	subi	r24, 0xFF	; 255
    1de2:	80 93 5d 38 	sts	0x385D, r24	; 0x80385d <simonCounter>
            simonTimer = 0;
    1de6:	10 92 5f 38 	sts	0x385F, r1	; 0x80385f <simonTimer>
        }
        if (simonCounter > simonPos) {
    1dea:	e0 91 5d 38 	lds	r30, 0x385D	; 0x80385d <simonCounter>
    1dee:	80 91 61 38 	lds	r24, 0x3861	; 0x803861 <simonPos>
    1df2:	8e 17       	cp	r24, r30
    1df4:	40 f4       	brcc	.+16     	; 0x1e06 <BastetDictates+0x10a>
            simonGameState = BASTET_GAME_INPUT;
    1df6:	85 e0       	ldi	r24, 0x05	; 5
    1df8:	80 93 5c 38 	sts	0x385C, r24	; 0x80385c <simonGameState>
            simonLed(0);
    1dfc:	80 e0       	ldi	r24, 0x00	; 0
    1dfe:	00 df       	rcall	.-512    	; 0x1c00 <simonLed>
            simonTimer = 0;
    1e00:	10 92 5f 38 	sts	0x385F, r1	; 0x80385f <simonTimer>
            return 0;
    1e04:	e8 c0       	rjmp	.+464    	; 0x1fd6 <BastetDictates+0x2da>
        }
        simonLed(simonState[simonCounter]);
    1e06:	f0 e0       	ldi	r31, 0x00	; 0
    1e08:	ee 59       	subi	r30, 0x9E	; 158
    1e0a:	f7 4c       	sbci	r31, 0xC7	; 199
    1e0c:	80 81       	ld	r24, Z
    1e0e:	f8 de       	rcall	.-528    	; 0x1c00 <simonLed>
    }

    if (BASTET_GAME_INPUT == simonGameState) {
    1e10:	d0 91 5c 38 	lds	r29, 0x385C	; 0x80385c <simonGameState>
    1e14:	d5 30       	cpi	r29, 0x05	; 5
    1e16:	09 f0       	breq	.+2      	; 0x1e1a <BastetDictates+0x11e>
    1e18:	7f c0       	rjmp	.+254    	; 0x1f18 <BastetDictates+0x21c>
        uint8_t choice = 0;
        if ((buttonState & 0xf0)&&(buttonState < 0xff)) {
    1e1a:	e0 91 09 38 	lds	r30, 0x3809	; 0x803809 <buttonState>
    1e1e:	8e 2f       	mov	r24, r30
    1e20:	80 7f       	andi	r24, 0xF0	; 240
    1e22:	09 f4       	brne	.+2      	; 0x1e26 <BastetDictates+0x12a>
    1e24:	77 c0       	rjmp	.+238    	; 0x1f14 <BastetDictates+0x218>
    1e26:	ef 3f       	cpi	r30, 0xFF	; 255
    1e28:	09 f4       	brne	.+2      	; 0x1e2c <BastetDictates+0x130>
    1e2a:	74 c0       	rjmp	.+232    	; 0x1f14 <BastetDictates+0x218>
    1e2c:	ef 70       	andi	r30, 0x0F	; 15
    1e2e:	e1 50       	subi	r30, 0x01	; 1
    1e30:	e8 30       	cpi	r30, 0x08	; 8
    1e32:	08 f0       	brcs	.+2      	; 0x1e36 <BastetDictates+0x13a>
    1e34:	6f c0       	rjmp	.+222    	; 0x1f14 <BastetDictates+0x218>
    1e36:	f0 e0       	ldi	r31, 0x00	; 0
    1e38:	ee 5b       	subi	r30, 0xBE	; 190
    1e3a:	ff 43       	sbci	r31, 0x3F	; 63
    1e3c:	c0 81       	ld	r28, Z
                    break;
            }
        }

        //Button pressed
        if (choice > 0) {
    1e3e:	cc 23       	and	r28, r28
    1e40:	09 f4       	brne	.+2      	; 0x1e44 <BastetDictates+0x148>
    1e42:	68 c0       	rjmp	.+208    	; 0x1f14 <BastetDictates+0x218>
            if (simonWait == 0) {
    1e44:	80 91 5e 38 	lds	r24, 0x385E	; 0x80385e <simonWait>
    1e48:	81 11       	cpse	r24, r1
    1e4a:	7a c0       	rjmp	.+244    	; 0x1f40 <BastetDictates+0x244>
                simonWait = 1;
    1e4c:	81 e0       	ldi	r24, 0x01	; 1
    1e4e:	80 93 5e 38 	sts	0x385E, r24	; 0x80385e <simonWait>
                simonTimer = 0;
    1e52:	10 92 5f 38 	sts	0x385F, r1	; 0x80385f <simonTimer>
                simonLed(choice);
    1e56:	8c 2f       	mov	r24, r28
    1e58:	d3 de       	rcall	.-602    	; 0x1c00 <simonLed>
                simonGameState = BASTET_GAME_WAIT_LEDS;
    1e5a:	84 e0       	ldi	r24, 0x04	; 4
    1e5c:	80 93 5c 38 	sts	0x385C, r24	; 0x80385c <simonGameState>
                simonNextGameState = BASTET_GAME_INPUT;
    1e60:	d0 93 2b 38 	sts	0x382B, r29	; 0x80382b <simonNextGameState>

                // is the below check correct .. do I have off by one ?
                if (simonState[simonInputPos] == choice) {
    1e64:	80 91 60 38 	lds	r24, 0x3860	; 0x803860 <simonInputPos>
    1e68:	e8 2f       	mov	r30, r24
    1e6a:	f0 e0       	ldi	r31, 0x00	; 0
    1e6c:	ee 59       	subi	r30, 0x9E	; 158
    1e6e:	f7 4c       	sbci	r31, 0xC7	; 199
    1e70:	90 81       	ld	r25, Z
    1e72:	c9 13       	cpse	r28, r25
    1e74:	18 c0       	rjmp	.+48     	; 0x1ea6 <BastetDictates+0x1aa>
                    simonInputPos++;
    1e76:	8f 5f       	subi	r24, 0xFF	; 255
    1e78:	80 93 60 38 	sts	0x3860, r24	; 0x803860 <simonInputPos>
                    if (simonInputPos >= simonPos) {
    1e7c:	90 91 61 38 	lds	r25, 0x3861	; 0x803861 <simonPos>
    1e80:	89 17       	cp	r24, r25
    1e82:	80 f1       	brcs	.+96     	; 0x1ee4 <BastetDictates+0x1e8>
                        effect = 0x42;
    1e84:	22 e4       	ldi	r18, 0x42	; 66
    1e86:	30 e0       	ldi	r19, 0x00	; 0
    1e88:	20 93 3a 38 	sts	0x383A, r18	; 0x80383a <effect>
    1e8c:	30 93 3b 38 	sts	0x383B, r19	; 0x80383b <effect+0x1>
                        simonPos++;
    1e90:	9f 5f       	subi	r25, 0xFF	; 255
    1e92:	90 93 61 38 	sts	0x3861, r25	; 0x803861 <simonPos>
                        simonInputPos = 0;
    1e96:	10 92 60 38 	sts	0x3860, r1	; 0x803860 <simonInputPos>
                        simonTimer = 0;
    1e9a:	10 92 5f 38 	sts	0x385F, r1	; 0x80385f <simonTimer>
                        simonCounter = 0;
    1e9e:	10 92 5d 38 	sts	0x385D, r1	; 0x80385d <simonCounter>
                        simonNextGameState = BASTET_GAME_SHOW_PATTERN;
    1ea2:	83 e0       	ldi	r24, 0x03	; 3
    1ea4:	1d c0       	rjmp	.+58     	; 0x1ee0 <BastetDictates+0x1e4>
                    }
                } else {
                    effect = 0x0105;    // TODO fail sound
    1ea6:	85 e0       	ldi	r24, 0x05	; 5
    1ea8:	91 e0       	ldi	r25, 0x01	; 1
    1eaa:	80 93 3a 38 	sts	0x383A, r24	; 0x80383a <effect>
    1eae:	90 93 3b 38 	sts	0x383B, r25	; 0x80383b <effect+0x1>
    1eb2:	a4 e0       	ldi	r26, 0x04	; 4
    1eb4:	b0 ec       	ldi	r27, 0xC0	; 192
    1eb6:	8a e0       	ldi	r24, 0x0A	; 10
    1eb8:	90 ec       	ldi	r25, 0xC0	; 192
                    for (uint8_t n=0; n<6; n++){
                        iLED[HCKR[R][n]] = dimValue;
    1eba:	ed 91       	ld	r30, X+
    1ebc:	f0 e0       	ldi	r31, 0x00	; 0
    1ebe:	20 91 0b 38 	lds	r18, 0x380B	; 0x80380b <dimValue>
    1ec2:	e6 53       	subi	r30, 0x36	; 54
    1ec4:	f5 4c       	sbci	r31, 0xC5	; 197
    1ec6:	20 83       	st	Z, r18
                        simonCounter = 0;
                        simonNextGameState = BASTET_GAME_SHOW_PATTERN;
                    }
                } else {
                    effect = 0x0105;    // TODO fail sound
                    for (uint8_t n=0; n<6; n++){
    1ec8:	8a 17       	cp	r24, r26
    1eca:	9b 07       	cpc	r25, r27
    1ecc:	b1 f7       	brne	.-20     	; 0x1eba <BastetDictates+0x1be>
                        iLED[HCKR[R][n]] = dimValue;
                    }
                    simonInputPos = 0;
    1ece:	10 92 60 38 	sts	0x3860, r1	; 0x803860 <simonInputPos>
                    simonPos = 0;
    1ed2:	10 92 61 38 	sts	0x3861, r1	; 0x803861 <simonPos>
                    simonTimer = 0;
    1ed6:	10 92 5f 38 	sts	0x385F, r1	; 0x80385f <simonTimer>
                    simonCounter = 0;
    1eda:	10 92 5d 38 	sts	0x385D, r1	; 0x80385d <simonCounter>
                    simonNextGameState = BASTET_GAME_OUTRO;
    1ede:	86 e0       	ldi	r24, 0x06	; 6
    1ee0:	80 93 2b 38 	sts	0x382B, r24	; 0x80382b <simonNextGameState>
                }

                if (simonInputPos >= BASTET_LENGTH || simonPos >= BASTET_LENGTH) { // beetje dubbel
    1ee4:	80 91 60 38 	lds	r24, 0x3860	; 0x803860 <simonInputPos>
    1ee8:	8c 30       	cpi	r24, 0x0C	; 12
    1eea:	20 f4       	brcc	.+8      	; 0x1ef4 <BastetDictates+0x1f8>
    1eec:	80 91 61 38 	lds	r24, 0x3861	; 0x803861 <simonPos>
    1ef0:	8c 30       	cpi	r24, 0x0C	; 12
    1ef2:	90 f0       	brcs	.+36     	; 0x1f18 <BastetDictates+0x21c>
                    // TODO win animu !!
                    effect = 0x0106;    // TODO win sound ?!
    1ef4:	86 e0       	ldi	r24, 0x06	; 6
    1ef6:	91 e0       	ldi	r25, 0x01	; 1
    1ef8:	80 93 3a 38 	sts	0x383A, r24	; 0x80383a <effect>
    1efc:	90 93 3b 38 	sts	0x383B, r25	; 0x80383b <effect+0x1>
                    UpdateState(BASTET_COMPLETED);
    1f00:	8a e7       	ldi	r24, 0x7A	; 122
    1f02:	46 db       	rcall	.-2420   	; 0x1590 <UpdateState>
                    simonTimer = 0;
    1f04:	10 92 5f 38 	sts	0x385F, r1	; 0x80385f <simonTimer>
                    simonCounter = 0;
    1f08:	10 92 5d 38 	sts	0x385D, r1	; 0x80385d <simonCounter>
                    simonNextGameState = BASTET_GAME_OVER;
    1f0c:	87 e0       	ldi	r24, 0x07	; 7
    1f0e:	80 93 2b 38 	sts	0x382B, r24	; 0x80382b <simonNextGameState>
    1f12:	02 c0       	rjmp	.+4      	; 0x1f18 <BastetDictates+0x21c>
                }
            }
        
        //Button released, next or reset!
        } else {
            simonWait = 0;
    1f14:	10 92 5e 38 	sts	0x385E, r1	; 0x80385e <simonWait>
        }
    }

    if (BASTET_GAME_WAIT_LEDS == simonGameState) {
    1f18:	80 91 5c 38 	lds	r24, 0x385C	; 0x80385c <simonGameState>
    1f1c:	84 30       	cpi	r24, 0x04	; 4
        if (simonTimer >= 7) {
    1f1e:	81 f4       	brne	.+32     	; 0x1f40 <BastetDictates+0x244>
    1f20:	80 91 5f 38 	lds	r24, 0x385F	; 0x80385f <simonTimer>
    1f24:	87 30       	cpi	r24, 0x07	; 7
            // on to next state after .5 second
            simonLed(0);  // LEDs off
    1f26:	60 f0       	brcs	.+24     	; 0x1f40 <BastetDictates+0x244>
    1f28:	80 e0       	ldi	r24, 0x00	; 0
    1f2a:	6a de       	rcall	.-812    	; 0x1c00 <simonLed>
            simonWait = 0;
    1f2c:	10 92 5e 38 	sts	0x385E, r1	; 0x80385e <simonWait>
            simonTimer = 0;
    1f30:	10 92 5f 38 	sts	0x385F, r1	; 0x80385f <simonTimer>
            simonCounter = 0;
    1f34:	10 92 5d 38 	sts	0x385D, r1	; 0x80385d <simonCounter>
            simonGameState = simonNextGameState;
    1f38:	80 91 2b 38 	lds	r24, 0x382B	; 0x80382b <simonNextGameState>
    1f3c:	80 93 5c 38 	sts	0x385C, r24	; 0x80385c <simonGameState>
        }
    }

    if (BASTET_GAME_OUTRO == simonGameState) {
    1f40:	80 91 5c 38 	lds	r24, 0x385C	; 0x80385c <simonGameState>
    1f44:	86 30       	cpi	r24, 0x06	; 6
    1f46:	21 f5       	brne	.+72     	; 0x1f90 <BastetDictates+0x294>
        if (simonTimer > 5) {   // .33 second
    1f48:	80 91 5f 38 	lds	r24, 0x385F	; 0x80385f <simonTimer>
    1f4c:	86 30       	cpi	r24, 0x06	; 6
    1f4e:	38 f0       	brcs	.+14     	; 0x1f5e <BastetDictates+0x262>
            simonCounter++;
    1f50:	80 91 5d 38 	lds	r24, 0x385D	; 0x80385d <simonCounter>
    1f54:	8f 5f       	subi	r24, 0xFF	; 255
    1f56:	80 93 5d 38 	sts	0x385D, r24	; 0x80385d <simonCounter>
            simonTimer = 0;
    1f5a:	10 92 5f 38 	sts	0x385F, r1	; 0x80385f <simonTimer>
        }
        if (simonCounter > 6) {
    1f5e:	80 91 5d 38 	lds	r24, 0x385D	; 0x80385d <simonCounter>
    1f62:	87 30       	cpi	r24, 0x07	; 7
    1f64:	40 f0       	brcs	.+16     	; 0x1f76 <BastetDictates+0x27a>
            simonTimer = 0;
    1f66:	10 92 5f 38 	sts	0x385F, r1	; 0x80385f <simonTimer>
            simonCounter = 0;
    1f6a:	10 92 5d 38 	sts	0x385D, r1	; 0x80385d <simonCounter>
            simonGameState = BASTET_GAME_OVER;
    1f6e:	87 e0       	ldi	r24, 0x07	; 7
    1f70:	80 93 5c 38 	sts	0x385C, r24	; 0x80385c <simonGameState>
            return 0;
    1f74:	30 c0       	rjmp	.+96     	; 0x1fd6 <BastetDictates+0x2da>
        }
        iLED[HCKR[R][5-simonCounter]] = 1;
    1f76:	e5 e0       	ldi	r30, 0x05	; 5
    1f78:	f0 e0       	ldi	r31, 0x00	; 0
    1f7a:	e8 1b       	sub	r30, r24
    1f7c:	f1 09       	sbc	r31, r1
    1f7e:	ec 5f       	subi	r30, 0xFC	; 252
    1f80:	ff 43       	sbci	r31, 0x3F	; 63
    1f82:	e0 81       	ld	r30, Z
    1f84:	f0 e0       	ldi	r31, 0x00	; 0
    1f86:	e6 53       	subi	r30, 0x36	; 54
    1f88:	f5 4c       	sbci	r31, 0xC5	; 197
    1f8a:	81 e0       	ldi	r24, 0x01	; 1
    1f8c:	80 83       	st	Z, r24
    1f8e:	1e c0       	rjmp	.+60     	; 0x1fcc <BastetDictates+0x2d0>
    }

    if (BASTET_GAME_OVER == simonGameState) {
    1f90:	87 30       	cpi	r24, 0x07	; 7
    1f92:	e1 f4       	brne	.+56     	; 0x1fcc <BastetDictates+0x2d0>
        simonInputPos = 0;
    1f94:	10 92 60 38 	sts	0x3860, r1	; 0x803860 <simonInputPos>
        simonPos = 0;
    1f98:	10 92 61 38 	sts	0x3861, r1	; 0x803861 <simonPos>
        simonGameState = BASTET_GAME_START; // BASTET_BOOT for fresh "field" ??
    1f9c:	81 e0       	ldi	r24, 0x01	; 1
    1f9e:	80 93 5c 38 	sts	0x385C, r24	; 0x80385c <simonGameState>
        gameNow = TEXT;
    1fa2:	10 92 3c 38 	sts	0x383C, r1	; 0x80383c <gameNow>
    1fa6:	e6 ef       	ldi	r30, 0xF6	; 246
    1fa8:	ff eb       	ldi	r31, 0xBF	; 191
    1faa:	2b ef       	ldi	r18, 0xFB	; 251
    1fac:	3f eb       	ldi	r19, 0xBF	; 191
    1fae:	ef 01       	movw	r28, r30
        for (uint8_t n=0; n<5; n++){
            iLED[WING[L][n]] = 1;
    1fb0:	a5 81       	ldd	r26, Z+5	; 0x05
    1fb2:	b0 e0       	ldi	r27, 0x00	; 0
    1fb4:	a6 53       	subi	r26, 0x36	; 54
    1fb6:	b5 4c       	sbci	r27, 0xC5	; 197
    1fb8:	8c 93       	st	X, r24
    1fba:	31 96       	adiw	r30, 0x01	; 1
            iLED[WING[R][n]] = 1;
    1fbc:	a8 81       	ld	r26, Y
    1fbe:	b0 e0       	ldi	r27, 0x00	; 0
    1fc0:	a6 53       	subi	r26, 0x36	; 54
    1fc2:	b5 4c       	sbci	r27, 0xC5	; 197
    1fc4:	8c 93       	st	X, r24
    if (BASTET_GAME_OVER == simonGameState) {
        simonInputPos = 0;
        simonPos = 0;
        simonGameState = BASTET_GAME_START; // BASTET_BOOT for fresh "field" ??
        gameNow = TEXT;
        for (uint8_t n=0; n<5; n++){
    1fc6:	2e 17       	cp	r18, r30
    1fc8:	3f 07       	cpc	r19, r31
    1fca:	89 f7       	brne	.-30     	; 0x1fae <BastetDictates+0x2b2>
            iLED[WING[L][n]] = 1;
            iLED[WING[R][n]] = 1;
        }
    }

    ++simonTimer;
    1fcc:	80 91 5f 38 	lds	r24, 0x385F	; 0x80385f <simonTimer>
    1fd0:	8f 5f       	subi	r24, 0xFF	; 255
    1fd2:	80 93 5f 38 	sts	0x385F, r24	; 0x80385f <simonTimer>
    return 0;
}
    1fd6:	80 e0       	ldi	r24, 0x00	; 0
    1fd8:	df 91       	pop	r29
    1fda:	cf 91       	pop	r28
    1fdc:	1f 91       	pop	r17
    1fde:	0f 91       	pop	r16
    1fe0:	08 95       	ret

00001fe2 <Cheat>:

//
void SetResponse(uint8_t number, uint16_t address, uint16_t length, uint8_t type){
    reactStr[0][number]=address;
    reactStr[1][number]=length;
    reactStr[2][number]=type;
    1fe2:	1f 93       	push	r17
    1fe4:	cf 93       	push	r28
    1fe6:	df 93       	push	r29
    1fe8:	cd b7       	in	r28, 0x3d	; 61
    1fea:	de b7       	in	r29, 0x3e	; 62
    1fec:	62 97       	sbiw	r28, 0x12	; 18
    1fee:	cd bf       	out	0x3d, r28	; 61
    1ff0:	de bf       	out	0x3e, r29	; 62
    1ff2:	8a 8b       	std	Y+18, r24	; 0x12
    1ff4:	80 e1       	ldi	r24, 0x10	; 16
    1ff6:	ea ec       	ldi	r30, 0xCA	; 202
    1ff8:	ff eb       	ldi	r31, 0xBF	; 191
    1ffa:	de 01       	movw	r26, r28
    1ffc:	11 96       	adiw	r26, 0x01	; 1
    1ffe:	01 90       	ld	r0, Z+
    2000:	0d 92       	st	X+, r0
    2002:	8a 95       	dec	r24
    2004:	e1 f7       	brne	.-8      	; 0x1ffe <Cheat+0x1c>
    2006:	fe 01       	movw	r30, r28
    2008:	31 96       	adiw	r30, 0x01	; 1
    200a:	90 e0       	ldi	r25, 0x00	; 0
    200c:	8f ef       	ldi	r24, 0xFF	; 255
    200e:	21 91       	ld	r18, Z+
    2010:	31 91       	ld	r19, Z+
    2012:	26 17       	cp	r18, r22
    2014:	37 07       	cpc	r19, r23
    2016:	09 f4       	brne	.+2      	; 0x201a <Cheat+0x38>
    2018:	89 2f       	mov	r24, r25
    201a:	9f 5f       	subi	r25, 0xFF	; 255
    201c:	98 30       	cpi	r25, 0x08	; 8
    201e:	b9 f7       	brne	.-18     	; 0x200e <Cheat+0x2c>
    2020:	88 30       	cpi	r24, 0x08	; 8
    2022:	10 f0       	brcs	.+4      	; 0x2028 <Cheat+0x46>
    2024:	80 e0       	ldi	r24, 0x00	; 0
    2026:	12 c0       	rjmp	.+36     	; 0x204c <Cheat+0x6a>
    2028:	18 e1       	ldi	r17, 0x18	; 24
    202a:	18 0f       	add	r17, r24
    202c:	41 e0       	ldi	r20, 0x01	; 1
    202e:	be 01       	movw	r22, r28
    2030:	6f 5e       	subi	r22, 0xEF	; 239
    2032:	7f 4f       	sbci	r23, 0xFF	; 255
    2034:	81 2f       	mov	r24, r17
    2036:	b4 d8       	rcall	.-3736   	; 0x11a0 <EERead>
    2038:	89 89       	ldd	r24, Y+17	; 0x11
    203a:	8f 3f       	cpi	r24, 0xFF	; 255
    203c:	99 f7       	brne	.-26     	; 0x2024 <Cheat+0x42>
    203e:	41 e0       	ldi	r20, 0x01	; 1
    2040:	be 01       	movw	r22, r28
    2042:	6e 5e       	subi	r22, 0xEE	; 238
    2044:	7f 4f       	sbci	r23, 0xFF	; 255
    2046:	81 2f       	mov	r24, r17
    2048:	bb d8       	rcall	.-3722   	; 0x11c0 <EEWrite>
    204a:	81 e0       	ldi	r24, 0x01	; 1
    204c:	62 96       	adiw	r28, 0x12	; 18
    204e:	cd bf       	out	0x3d, r28	; 61
    2050:	de bf       	out	0x3e, r29	; 62
    2052:	df 91       	pop	r29
    2054:	cf 91       	pop	r28
    2056:	1f 91       	pop	r17
    2058:	08 95       	ret

0000205a <DecryptData>:
    205a:	f9 01       	movw	r30, r18
    205c:	9c 01       	movw	r18, r24
    205e:	2e 1b       	sub	r18, r30
    2060:	3f 0b       	sbc	r19, r31
    2062:	88 e0       	ldi	r24, 0x08	; 8
    2064:	48 9f       	mul	r20, r24
    2066:	a0 01       	movw	r20, r0
    2068:	11 24       	eor	r1, r1
    206a:	44 54       	subi	r20, 0x44	; 68
    206c:	5f 43       	sbci	r21, 0x3F	; 63
    206e:	66 23       	and	r22, r22
    2070:	69 f0       	breq	.+26     	; 0x208c <DecryptData+0x32>
    2072:	df 01       	movw	r26, r30
    2074:	a2 0f       	add	r26, r18
    2076:	b3 1f       	adc	r27, r19
    2078:	a7 70       	andi	r26, 0x07	; 7
    207a:	bb 27       	eor	r27, r27
    207c:	a4 0f       	add	r26, r20
    207e:	b5 1f       	adc	r27, r21
    2080:	80 81       	ld	r24, Z
    2082:	9c 91       	ld	r25, X
    2084:	98 27       	eor	r25, r24
    2086:	91 93       	st	Z+, r25
    2088:	61 50       	subi	r22, 0x01	; 1
    208a:	f1 cf       	rjmp	.-30     	; 0x206e <DecryptData+0x14>
    208c:	08 95       	ret

0000208e <UnflipData>:
    208e:	26 2f       	mov	r18, r22
    2090:	fb 01       	movw	r30, r22
    2092:	35 e5       	ldi	r19, 0x55	; 85
    2094:	9e 2f       	mov	r25, r30
    2096:	92 1b       	sub	r25, r18
    2098:	98 17       	cp	r25, r24
    209a:	28 f4       	brcc	.+10     	; 0x20a6 <UnflipData+0x18>
    209c:	90 81       	ld	r25, Z
    209e:	92 95       	swap	r25
    20a0:	93 27       	eor	r25, r19
    20a2:	91 93       	st	Z+, r25
    20a4:	f7 cf       	rjmp	.-18     	; 0x2094 <UnflipData+0x6>
    20a6:	08 95       	ret

000020a8 <ExtEERead>:
    20a8:	af 92       	push	r10
    20aa:	bf 92       	push	r11
    20ac:	cf 92       	push	r12
    20ae:	df 92       	push	r13
    20b0:	ef 92       	push	r14
    20b2:	ff 92       	push	r15
    20b4:	0f 93       	push	r16
    20b6:	1f 93       	push	r17
    20b8:	cf 93       	push	r28
    20ba:	df 93       	push	r29
    20bc:	00 d0       	rcall	.+0      	; 0x20be <ExtEERead+0x16>
    20be:	cd b7       	in	r28, 0x3d	; 61
    20c0:	de b7       	in	r29, 0x3e	; 62
    20c2:	d6 2e       	mov	r13, r22
    20c4:	c4 2e       	mov	r12, r20
    20c6:	59 01       	movw	r10, r18
    20c8:	7c 01       	movw	r14, r24
    20ca:	e8 94       	clt
    20cc:	f7 f8       	bld	r15, 7
    20ce:	f9 82       	std	Y+1, r15	; 0x01
    20d0:	ea 82       	std	Y+2, r14	; 0x02
    20d2:	06 2f       	mov	r16, r22
    20d4:	42 e0       	ldi	r20, 0x02	; 2
    20d6:	be 01       	movw	r22, r28
    20d8:	6f 5f       	subi	r22, 0xFF	; 255
    20da:	7f 4f       	sbci	r23, 0xFF	; 255
    20dc:	80 e5       	ldi	r24, 0x50	; 80
    20de:	0e 94 b8 02 	call	0x570	; 0x570 <I2C_read_bytes>
    20e2:	18 2f       	mov	r17, r24
    20e4:	81 11       	cpse	r24, r1
    20e6:	05 c0       	rjmp	.+10     	; 0x20f2 <ExtEERead+0x4a>
    20e8:	95 01       	movw	r18, r10
    20ea:	4c 2d       	mov	r20, r12
    20ec:	6d 2d       	mov	r22, r13
    20ee:	c7 01       	movw	r24, r14
    20f0:	b4 df       	rcall	.-152    	; 0x205a <DecryptData>
    20f2:	81 2f       	mov	r24, r17
    20f4:	0f 90       	pop	r0
    20f6:	0f 90       	pop	r0
    20f8:	df 91       	pop	r29
    20fa:	cf 91       	pop	r28
    20fc:	1f 91       	pop	r17
    20fe:	0f 91       	pop	r16
    2100:	ff 90       	pop	r15
    2102:	ef 90       	pop	r14
    2104:	df 90       	pop	r13
    2106:	cf 90       	pop	r12
    2108:	bf 90       	pop	r11
    210a:	af 90       	pop	r10
    210c:	08 95       	ret

0000210e <ClearTxAfter>:
    210e:	8f 5f       	subi	r24, 0xFF	; 255
    2110:	88 30       	cpi	r24, 0x08	; 8
    2112:	30 f4       	brcc	.+12     	; 0x2120 <ClearTxAfter+0x12>
    2114:	e8 2f       	mov	r30, r24
    2116:	f0 e0       	ldi	r31, 0x00	; 0
    2118:	e8 5b       	subi	r30, 0xB8	; 184
    211a:	f5 4c       	sbci	r31, 0xC5	; 197
    211c:	10 82       	st	Z, r1
    211e:	f7 cf       	rjmp	.-18     	; 0x210e <ClearTxAfter>
    2120:	08 95       	ret

00002122 <StartsWith>:
    2122:	ac 01       	movw	r20, r24
    2124:	90 e0       	ldi	r25, 0x00	; 0
    2126:	e9 2f       	mov	r30, r25
    2128:	f0 e0       	ldi	r31, 0x00	; 0
    212a:	da 01       	movw	r26, r20
    212c:	ae 0f       	add	r26, r30
    212e:	bf 1f       	adc	r27, r31
    2130:	3c 91       	ld	r19, X
    2132:	e6 0f       	add	r30, r22
    2134:	f7 1f       	adc	r31, r23
    2136:	31 11       	cpse	r19, r1
    2138:	05 c0       	rjmp	.+10     	; 0x2144 <StartsWith+0x22>
    213a:	81 e0       	ldi	r24, 0x01	; 1
    213c:	90 81       	ld	r25, Z
    213e:	99 23       	and	r25, r25
    2140:	49 f0       	breq	.+18     	; 0x2154 <StartsWith+0x32>
    2142:	07 c0       	rjmp	.+14     	; 0x2152 <StartsWith+0x30>
    2144:	20 81       	ld	r18, Z
    2146:	22 23       	and	r18, r18
    2148:	c1 f3       	breq	.-16     	; 0x213a <StartsWith+0x18>
    214a:	32 13       	cpse	r19, r18
    214c:	02 c0       	rjmp	.+4      	; 0x2152 <StartsWith+0x30>
    214e:	9f 5f       	subi	r25, 0xFF	; 255
    2150:	ea cf       	rjmp	.-44     	; 0x2126 <StartsWith+0x4>
    2152:	80 e0       	ldi	r24, 0x00	; 0
    2154:	08 95       	ret

00002156 <PrepareSending>:
    2156:	cf 93       	push	r28
    2158:	df 93       	push	r29
    215a:	fc 01       	movw	r30, r24
    215c:	61 15       	cp	r22, r1
    215e:	71 05       	cpc	r23, r1
    2160:	59 f1       	breq	.+86     	; 0x21b8 <PrepareSending+0x62>
    2162:	a0 e5       	ldi	r26, 0x50	; 80
    2164:	ba e3       	ldi	r27, 0x3A	; 58
    2166:	c8 e4       	ldi	r28, 0x48	; 72
    2168:	da e3       	ldi	r29, 0x3A	; 58
    216a:	80 e0       	ldi	r24, 0x00	; 0
    216c:	9f ef       	ldi	r25, 0xFF	; 255
    216e:	6f 3f       	cpi	r22, 0xFF	; 255
    2170:	71 05       	cpc	r23, r1
    2172:	69 f0       	breq	.+26     	; 0x218e <PrepareSending+0x38>
    2174:	60 f0       	brcs	.+24     	; 0x218e <PrepareSending+0x38>
    2176:	ed 93       	st	X+, r30
    2178:	fd 93       	st	X+, r31
    217a:	99 93       	st	Y+, r25
    217c:	e1 50       	subi	r30, 0x01	; 1
    217e:	ff 4f       	sbci	r31, 0xFF	; 255
    2180:	6f 5f       	subi	r22, 0xFF	; 255
    2182:	71 09       	sbc	r23, r1
    2184:	8f 5f       	subi	r24, 0xFF	; 255
    2186:	87 30       	cpi	r24, 0x07	; 7
    2188:	91 f7       	brne	.-28     	; 0x216e <PrepareSending+0x18>
    218a:	81 e0       	ldi	r24, 0x01	; 1
    218c:	1e c0       	rjmp	.+60     	; 0x21ca <PrepareSending+0x74>
    218e:	28 2f       	mov	r18, r24
    2190:	30 e0       	ldi	r19, 0x00	; 0
    2192:	d9 01       	movw	r26, r18
    2194:	aa 0f       	add	r26, r26
    2196:	bb 1f       	adc	r27, r27
    2198:	a0 5b       	subi	r26, 0xB0	; 176
    219a:	b5 4c       	sbci	r27, 0xC5	; 197
    219c:	ed 93       	st	X+, r30
    219e:	fc 93       	st	X, r31
    21a0:	6f 3f       	cpi	r22, 0xFF	; 255
    21a2:	71 05       	cpc	r23, r1
    21a4:	11 f4       	brne	.+4      	; 0x21aa <PrepareSending+0x54>
    21a6:	6e ef       	ldi	r22, 0xFE	; 254
    21a8:	70 e0       	ldi	r23, 0x00	; 0
    21aa:	f9 01       	movw	r30, r18
    21ac:	e8 5b       	subi	r30, 0xB8	; 184
    21ae:	f5 4c       	sbci	r31, 0xC5	; 197
    21b0:	60 83       	st	Z, r22
    21b2:	40 93 46 3a 	sts	0x3A46, r20	; 0x803a46 <txTypeNow>
    21b6:	05 c0       	rjmp	.+10     	; 0x21c2 <PrepareSending+0x6c>
    21b8:	10 92 50 3a 	sts	0x3A50, r1	; 0x803a50 <txAddrList>
    21bc:	10 92 51 3a 	sts	0x3A51, r1	; 0x803a51 <txAddrList+0x1>
    21c0:	80 e0       	ldi	r24, 0x00	; 0
    21c2:	a5 df       	rcall	.-182    	; 0x210e <ClearTxAfter>
    21c4:	10 92 47 3a 	sts	0x3A47, r1	; 0x803a47 <txAddrNow>
    21c8:	80 e0       	ldi	r24, 0x00	; 0
    21ca:	df 91       	pop	r29
    21cc:	cf 91       	pop	r28
    21ce:	08 95       	ret

000021d0 <SetStandardResponse>:
}

//
uint8_t SetStandardResponse(uint8_t custStrEnd){
    21d0:	cf 93       	push	r28
    21d2:	df 93       	push	r29
    return 0;
}

//
void SetResponse(uint8_t number, uint16_t address, uint16_t length, uint8_t type){
    reactStr[0][number]=address;
    21d4:	28 2f       	mov	r18, r24
    21d6:	30 e0       	ldi	r19, 0x00	; 0
    21d8:	f9 01       	movw	r30, r18
    21da:	ee 0f       	add	r30, r30
    21dc:	ff 1f       	adc	r31, r31
    21de:	e5 5e       	subi	r30, 0xE5	; 229
    21e0:	f6 4c       	sbci	r31, 0xC6	; 198
    21e2:	ab e5       	ldi	r26, 0x5B	; 91
    21e4:	ba e7       	ldi	r27, 0x7A	; 122
    21e6:	a0 83       	st	Z, r26
    21e8:	b1 83       	std	Z+1, r27	; 0x01
    reactStr[1][number]=length;
    21ea:	f9 01       	movw	r30, r18
    21ec:	ee 0f       	add	r30, r30
    21ee:	ff 1f       	adc	r31, r31
    21f0:	e5 5a       	subi	r30, 0xA5	; 165
    21f2:	f6 4c       	sbci	r31, 0xC6	; 198
    21f4:	62 e0       	ldi	r22, 0x02	; 2
    21f6:	70 e0       	ldi	r23, 0x00	; 0
    21f8:	60 83       	st	Z, r22
    21fa:	71 83       	std	Z+1, r23	; 0x01
    reactStr[2][number]=type;
    21fc:	22 0f       	add	r18, r18
    21fe:	33 1f       	adc	r19, r19
    2200:	f9 01       	movw	r30, r18
    2202:	e5 56       	subi	r30, 0x65	; 101
    2204:	f6 4c       	sbci	r31, 0xC6	; 198
    2206:	41 e0       	ldi	r20, 0x01	; 1
    2208:	50 e0       	ldi	r21, 0x00	; 0
    220a:	40 83       	st	Z, r20
    220c:	51 83       	std	Z+1, r21	; 0x01
    return 0;
}

//
void SetResponse(uint8_t number, uint16_t address, uint16_t length, uint8_t type){
    reactStr[0][number]=address;
    220e:	21 e0       	ldi	r18, 0x01	; 1
    2210:	28 0f       	add	r18, r24
    2212:	30 e0       	ldi	r19, 0x00	; 0
    2214:	f9 01       	movw	r30, r18
    2216:	ee 0f       	add	r30, r30
    2218:	ff 1f       	adc	r31, r31
    221a:	e5 5e       	subi	r30, 0xE5	; 229
    221c:	f6 4c       	sbci	r31, 0xC6	; 198
    221e:	c4 e6       	ldi	r28, 0x64	; 100
    2220:	da e7       	ldi	r29, 0x7A	; 122
    2222:	c0 83       	st	Z, r28
    2224:	d1 83       	std	Z+1, r29	; 0x01
    reactStr[1][number]=length;
    2226:	f9 01       	movw	r30, r18
    2228:	ee 0f       	add	r30, r30
    222a:	ff 1f       	adc	r31, r31
    222c:	e5 5a       	subi	r30, 0xA5	; 165
    222e:	f6 4c       	sbci	r31, 0xC6	; 198
    2230:	ca e0       	ldi	r28, 0x0A	; 10
    2232:	d0 e0       	ldi	r29, 0x00	; 0
    2234:	c0 83       	st	Z, r28
    2236:	d1 83       	std	Z+1, r29	; 0x01
    reactStr[2][number]=type;
    2238:	22 0f       	add	r18, r18
    223a:	33 1f       	adc	r19, r19
    223c:	f9 01       	movw	r30, r18
    223e:	e5 56       	subi	r30, 0x65	; 101
    2240:	f6 4c       	sbci	r31, 0xC6	; 198
    2242:	40 83       	st	Z, r20
    2244:	51 83       	std	Z+1, r21	; 0x01
uint8_t SetStandardResponse(uint8_t custStrEnd){

    SetResponse(custStrEnd++, A_LF, 2, TEASER);
    SetResponse(custStrEnd++, A_LOCATION, L_LOCATION, TEASER);
    //SetResponse(custStrEnd++, A_SPACE, L_SPACE, TEASER);
    reactStr[0][custStrEnd++] = CURR_LOC;
    2246:	e2 e0       	ldi	r30, 0x02	; 2
    2248:	e8 0f       	add	r30, r24
    224a:	f0 e0       	ldi	r31, 0x00	; 0
    224c:	ee 0f       	add	r30, r30
    224e:	ff 1f       	adc	r31, r31
    2250:	e5 5e       	subi	r30, 0xE5	; 229
    2252:	f6 4c       	sbci	r31, 0xC6	; 198
    2254:	20 ef       	ldi	r18, 0xF0	; 240
    2256:	3f ef       	ldi	r19, 0xFF	; 255
    2258:	20 83       	st	Z, r18
    225a:	31 83       	std	Z+1, r19	; 0x01
    return 0;
}

//
void SetResponse(uint8_t number, uint16_t address, uint16_t length, uint8_t type){
    reactStr[0][number]=address;
    225c:	23 e0       	ldi	r18, 0x03	; 3
    225e:	28 0f       	add	r18, r24
    2260:	30 e0       	ldi	r19, 0x00	; 0
    2262:	f9 01       	movw	r30, r18
    2264:	ee 0f       	add	r30, r30
    2266:	ff 1f       	adc	r31, r31
    2268:	e5 5e       	subi	r30, 0xE5	; 229
    226a:	f6 4c       	sbci	r31, 0xC6	; 198
    226c:	a0 83       	st	Z, r26
    226e:	b1 83       	std	Z+1, r27	; 0x01
    reactStr[1][number]=length;
    2270:	f9 01       	movw	r30, r18
    2272:	ee 0f       	add	r30, r30
    2274:	ff 1f       	adc	r31, r31
    2276:	e5 5a       	subi	r30, 0xA5	; 165
    2278:	f6 4c       	sbci	r31, 0xC6	; 198
    227a:	60 83       	st	Z, r22
    227c:	71 83       	std	Z+1, r23	; 0x01
    reactStr[2][number]=type;
    227e:	22 0f       	add	r18, r18
    2280:	33 1f       	adc	r19, r19
    2282:	f9 01       	movw	r30, r18
    2284:	e5 56       	subi	r30, 0x65	; 101
    2286:	f6 4c       	sbci	r31, 0xC6	; 198
    2288:	40 83       	st	Z, r20
    228a:	51 83       	std	Z+1, r21	; 0x01
    return 0;
}

//
void SetResponse(uint8_t number, uint16_t address, uint16_t length, uint8_t type){
    reactStr[0][number]=address;
    228c:	24 e0       	ldi	r18, 0x04	; 4
    228e:	28 0f       	add	r18, r24
    2290:	30 e0       	ldi	r19, 0x00	; 0
    2292:	f9 01       	movw	r30, r18
    2294:	ee 0f       	add	r30, r30
    2296:	ff 1f       	adc	r31, r31
    2298:	e5 5e       	subi	r30, 0xE5	; 229
    229a:	f6 4c       	sbci	r31, 0xC6	; 198
    229c:	a7 e5       	ldi	r26, 0x57	; 87
    229e:	ba e7       	ldi	r27, 0x7A	; 122
    22a0:	a0 83       	st	Z, r26
    22a2:	b1 83       	std	Z+1, r27	; 0x01
    reactStr[1][number]=length;
    22a4:	f9 01       	movw	r30, r18
    22a6:	ee 0f       	add	r30, r30
    22a8:	ff 1f       	adc	r31, r31
    22aa:	e5 5a       	subi	r30, 0xA5	; 165
    22ac:	f6 4c       	sbci	r31, 0xC6	; 198
    22ae:	60 83       	st	Z, r22
    22b0:	71 83       	std	Z+1, r23	; 0x01
    reactStr[2][number]=type;
    22b2:	22 0f       	add	r18, r18
    22b4:	33 1f       	adc	r19, r19
    22b6:	f9 01       	movw	r30, r18
    22b8:	e5 56       	subi	r30, 0x65	; 101
    22ba:	f6 4c       	sbci	r31, 0xC6	; 198
    22bc:	40 83       	st	Z, r20
    22be:	51 83       	std	Z+1, r21	; 0x01
    SetResponse(custStrEnd++, A_LF, 2, TEASER);
    SetResponse(custStrEnd++, A_PROMPT, L_PROMPT, TEASER);
    //SetResponse(custStrEnd++, A_SPACE, L_SPACE, TEASER);

    return custStrEnd;
}
    22c0:	8b 5f       	subi	r24, 0xFB	; 251
    22c2:	df 91       	pop	r29
    22c4:	cf 91       	pop	r28
    22c6:	08 95       	ret

000022c8 <PopulateObject>:

//Get all the relevant data and string addresses of an object
void PopulateObject(uint16_t offset, object_model_t *object){
    22c8:	af 92       	push	r10
    22ca:	bf 92       	push	r11
    22cc:	df 92       	push	r13
    22ce:	ef 92       	push	r14
    22d0:	ff 92       	push	r15
    22d2:	0f 93       	push	r16
    22d4:	1f 93       	push	r17
    22d6:	cf 93       	push	r28
    22d8:	df 93       	push	r29
    22da:	cd b7       	in	r28, 0x3d	; 61
    22dc:	de b7       	in	r29, 0x3e	; 62
    22de:	2c 97       	sbiw	r28, 0x0c	; 12
    22e0:	cd bf       	out	0x3d, r28	; 61
    22e2:	de bf       	out	0x3e, r29	; 62
    22e4:	7c 01       	movw	r14, r24
    22e6:	8b 01       	movw	r16, r22
    uint16_t parStr;
    offset += L_BOILER;

    //Fill things with fixed distance to offset
    uint8_t data[OFF_STRINGFLDS];
    ExtEERead(offset, OFF_STRINGFLDS, GAME, &data[0]);
    22e8:	9e 01       	movw	r18, r28
    22ea:	2f 5f       	subi	r18, 0xFF	; 255
    22ec:	3f 4f       	sbci	r19, 0xFF	; 255
    22ee:	40 e0       	ldi	r20, 0x00	; 0
    22f0:	6c e0       	ldi	r22, 0x0C	; 12
    22f2:	80 96       	adiw	r24, 0x20	; 32
    22f4:	d9 de       	rcall	.-590    	; 0x20a8 <ExtEERead>
    object->addrNextObj = (data[OFF_NEXTOBJ]<<8|data[OFF_NEXTOBJ+1])+L_BOILER;
    22f6:	89 81       	ldd	r24, Y+1	; 0x01
    22f8:	9a 81       	ldd	r25, Y+2	; 0x02
    22fa:	98 27       	eor	r25, r24
    22fc:	89 27       	eor	r24, r25
    22fe:	98 27       	eor	r25, r24
    2300:	80 96       	adiw	r24, 0x20	; 32
    2302:	f8 01       	movw	r30, r16
    2304:	80 83       	st	Z, r24
    2306:	91 83       	std	Z+1, r25	; 0x01
    object->addrNextLvl = (data[OFF_NEXTLVL]<<8|data[OFF_NEXTLVL+1])+L_BOILER;
    2308:	8b 81       	ldd	r24, Y+3	; 0x03
    230a:	9c 81       	ldd	r25, Y+4	; 0x04
    230c:	98 27       	eor	r25, r24
    230e:	89 27       	eor	r24, r25
    2310:	98 27       	eor	r25, r24
    2312:	80 96       	adiw	r24, 0x20	; 32
    2314:	82 83       	std	Z+2, r24	; 0x02
    2316:	93 83       	std	Z+3, r25	; 0x03
    2318:	de 01       	movw	r26, r28
    231a:	15 96       	adiw	r26, 0x05	; 5
    231c:	34 96       	adiw	r30, 0x04	; 4
    231e:	c8 01       	movw	r24, r16
    2320:	0c 96       	adiw	r24, 0x0c	; 12
    for (uint8_t x=0; x<BYTE_FIELDS_LEN; ++x){
        object->byteField[x]=data[x+OFF_BYTEFLDS];
    2322:	2d 91       	ld	r18, X+
    2324:	21 93       	st	Z+, r18
    //Fill things with fixed distance to offset
    uint8_t data[OFF_STRINGFLDS];
    ExtEERead(offset, OFF_STRINGFLDS, GAME, &data[0]);
    object->addrNextObj = (data[OFF_NEXTOBJ]<<8|data[OFF_NEXTOBJ+1])+L_BOILER;
    object->addrNextLvl = (data[OFF_NEXTLVL]<<8|data[OFF_NEXTLVL+1])+L_BOILER;
    for (uint8_t x=0; x<BYTE_FIELDS_LEN; ++x){
    2326:	e8 17       	cp	r30, r24
    2328:	f9 07       	cpc	r31, r25
    232a:	d9 f7       	brne	.-10     	; 0x2322 <PopulateObject+0x5a>
        object->byteField[x]=data[x+OFF_BYTEFLDS];
    }

    //Find out where all of the strings begin and how long they are
    offset += OFF_STRINGFLDS;
    232c:	fc e2       	ldi	r31, 0x2C	; 44
    232e:	ef 0e       	add	r14, r31
    2330:	f1 1c       	adc	r15, r1
    2332:	58 01       	movw	r10, r16
    for(uint8_t x=0; x<STRING_FIELDS_LEN; ++x){
    2334:	d1 2c       	mov	r13, r1
        
        //Determine length
        ExtEERead(offset, 3, GAME, &data[0]);
    2336:	9e 01       	movw	r18, r28
    2338:	2f 5f       	subi	r18, 0xFF	; 255
    233a:	3f 4f       	sbci	r19, 0xFF	; 255
    233c:	40 e0       	ldi	r20, 0x00	; 0
    233e:	63 e0       	ldi	r22, 0x03	; 3
    2340:	c7 01       	movw	r24, r14
    2342:	b2 de       	rcall	.-668    	; 0x20a8 <ExtEERead>
    2344:	89 81       	ldd	r24, Y+1	; 0x01
    2346:	9a 81       	ldd	r25, Y+2	; 0x02
    2348:	98 27       	eor	r25, r24
    234a:	89 27       	eor	r24, r25
    234c:	98 27       	eor	r25, r24
        parStr = (data[0]<<8|data[1]);
        offset += 2;
    234e:	97 01       	movw	r18, r14
    2350:	2e 5f       	subi	r18, 0xFE	; 254
    2352:	3f 4f       	sbci	r19, 0xFF	; 255
        if (x >= OPEN_ACL_MSG){
    2354:	43 e0       	ldi	r20, 0x03	; 3
    2356:	4d 15       	cp	r20, r13
    2358:	80 f4       	brcc	.+32     	; 0x237a <PopulateObject+0xb2>
            object->lenStr[x]= parStr-1;
    235a:	ac 01       	movw	r20, r24
    235c:	41 50       	subi	r20, 0x01	; 1
    235e:	51 09       	sbc	r21, r1
    2360:	f8 01       	movw	r30, r16
    2362:	42 8f       	std	Z+26, r20	; 0x1a
    2364:	53 8f       	std	Z+27, r21	; 0x1b
            object->addrStr[x]=offset+1;
    2366:	f3 e0       	ldi	r31, 0x03	; 3
    2368:	ef 0e       	add	r14, r31
    236a:	f1 1c       	adc	r15, r1
    236c:	f8 01       	movw	r30, r16
    236e:	e4 86       	std	Z+12, r14	; 0x0c
    2370:	f5 86       	std	Z+13, r15	; 0x0d
            object->effect[x-OPEN_ACL_MSG] = data[2];
    2372:	4b 81       	ldd	r20, Y+3	; 0x03
    2374:	f5 01       	movw	r30, r10
    2376:	44 a3       	std	Z+36, r20	; 0x24
    2378:	05 c0       	rjmp	.+10     	; 0x2384 <PopulateObject+0xbc>
        } else {
            object->lenStr[x]= parStr;
    237a:	f8 01       	movw	r30, r16
    237c:	82 8f       	std	Z+26, r24	; 0x1a
    237e:	93 8f       	std	Z+27, r25	; 0x1b
            object->addrStr[x]=offset;
    2380:	24 87       	std	Z+12, r18	; 0x0c
    2382:	35 87       	std	Z+13, r19	; 0x0d
        }
        
        //Determine string start location for next field
        offset += parStr;
    2384:	7c 01       	movw	r14, r24
    2386:	e2 0e       	add	r14, r18
    2388:	f3 1e       	adc	r15, r19
        object->byteField[x]=data[x+OFF_BYTEFLDS];
    }

    //Find out where all of the strings begin and how long they are
    offset += OFF_STRINGFLDS;
    for(uint8_t x=0; x<STRING_FIELDS_LEN; ++x){
    238a:	d3 94       	inc	r13
    238c:	0e 5f       	subi	r16, 0xFE	; 254
    238e:	1f 4f       	sbci	r17, 0xFF	; 255
    2390:	ff ef       	ldi	r31, 0xFF	; 255
    2392:	af 1a       	sub	r10, r31
    2394:	bf 0a       	sbc	r11, r31
    2396:	47 e0       	ldi	r20, 0x07	; 7
    2398:	d4 12       	cpse	r13, r20
    239a:	cd cf       	rjmp	.-102    	; 0x2336 <PopulateObject+0x6e>
        }
        
        //Determine string start location for next field
        offset += parStr;
    }    
}
    239c:	2c 96       	adiw	r28, 0x0c	; 12
    239e:	cd bf       	out	0x3d, r28	; 61
    23a0:	de bf       	out	0x3e, r29	; 62
    23a2:	df 91       	pop	r29
    23a4:	cf 91       	pop	r28
    23a6:	1f 91       	pop	r17
    23a8:	0f 91       	pop	r16
    23aa:	ff 90       	pop	r15
    23ac:	ef 90       	pop	r14
    23ae:	df 90       	pop	r13
    23b0:	bf 90       	pop	r11
    23b2:	af 90       	pop	r10
    23b4:	08 95       	ret

000023b6 <CheckLetter>:

//Check if the entered letter corresponds with a name
uint8_t CheckLetter(uint16_t object, uint8_t letter){
    23b6:	cf 92       	push	r12
    23b8:	df 92       	push	r13
    23ba:	ef 92       	push	r14
    23bc:	ff 92       	push	r15
    23be:	0f 93       	push	r16
    23c0:	1f 93       	push	r17
    23c2:	cf 93       	push	r28
    23c4:	df 93       	push	r29
    23c6:	cd b7       	in	r28, 0x3d	; 61
    23c8:	de b7       	in	r29, 0x3e	; 62
    23ca:	a0 97       	sbiw	r28, 0x20	; 32
    23cc:	cd bf       	out	0x3d, r28	; 61
    23ce:	de bf       	out	0x3e, r29	; 62
    23d0:	c6 2e       	mov	r12, r22
    
    uint8_t found = 0;
    uint8_t data[32];

    object += L_BOILER;
    23d2:	7c 01       	movw	r14, r24
    23d4:	20 e2       	ldi	r18, 0x20	; 32
    23d6:	e2 0e       	add	r14, r18
    23d8:	f1 1c       	adc	r15, r1
    ExtEERead(object+OFF_STRINGFLDS, 2, GAME, &data[0]);
    23da:	9e 01       	movw	r18, r28
    23dc:	2f 5f       	subi	r18, 0xFF	; 255
    23de:	3f 4f       	sbci	r19, 0xFF	; 255
    23e0:	40 e0       	ldi	r20, 0x00	; 0
    23e2:	62 e0       	ldi	r22, 0x02	; 2
    23e4:	8c 96       	adiw	r24, 0x2c	; 44
    23e6:	60 de       	rcall	.-832    	; 0x20a8 <ExtEERead>
    uint8_t x = data[1]; //Assuming a name is not longer than 255 characters.
    23e8:	1a 81       	ldd	r17, Y+2	; 0x02
}

//Check if the entered letter corresponds with a name
uint8_t CheckLetter(uint16_t object, uint8_t letter){
    
    uint8_t found = 0;
    23ea:	d1 2c       	mov	r13, r1

    object += L_BOILER;
    ExtEERead(object+OFF_STRINGFLDS, 2, GAME, &data[0]);
    uint8_t x = data[1]; //Assuming a name is not longer than 255 characters.

    while (x){
    23ec:	11 23       	and	r17, r17
    23ee:	51 f1       	breq	.+84     	; 0x2444 <CheckLetter+0x8e>
    23f0:	01 2f       	mov	r16, r17
    23f2:	11 32       	cpi	r17, 0x21	; 33
    23f4:	08 f0       	brcs	.+2      	; 0x23f8 <CheckLetter+0x42>
    23f6:	00 e2       	ldi	r16, 0x20	; 32
        uint8_t max;
        if (x>32) max = 32; else max = x;
        ExtEERead(object+OFF_STRINGFLDS+2, max, GAME, &data[0]);
    23f8:	9e 01       	movw	r18, r28
    23fa:	2f 5f       	subi	r18, 0xFF	; 255
    23fc:	3f 4f       	sbci	r19, 0xFF	; 255
    23fe:	40 e0       	ldi	r20, 0x00	; 0
    2400:	60 2f       	mov	r22, r16
    2402:	c7 01       	movw	r24, r14
    2404:	0e 96       	adiw	r24, 0x0e	; 14
    2406:	50 de       	rcall	.-864    	; 0x20a8 <ExtEERead>
    2408:	fe 01       	movw	r30, r28
    240a:	31 96       	adiw	r30, 0x01	; 1
        for (uint8_t y=0; y<max; ++y){
    240c:	80 e0       	ldi	r24, 0x00	; 0
            if (found){
    240e:	dd 20       	and	r13, r13
    2410:	61 f0       	breq	.+24     	; 0x242a <CheckLetter+0x74>
                if ((data[y]|0x20) == letter) return 1; else return 0;
    2412:	e1 e0       	ldi	r30, 0x01	; 1
    2414:	f0 e0       	ldi	r31, 0x00	; 0
    2416:	ec 0f       	add	r30, r28
    2418:	fd 1f       	adc	r31, r29
    241a:	e8 0f       	add	r30, r24
    241c:	f1 1d       	adc	r31, r1
    241e:	90 81       	ld	r25, Z
    2420:	90 62       	ori	r25, 0x20	; 32
    2422:	81 e0       	ldi	r24, 0x01	; 1
    2424:	9c 11       	cpse	r25, r12
    2426:	0e c0       	rjmp	.+28     	; 0x2444 <CheckLetter+0x8e>
    2428:	0e c0       	rjmp	.+28     	; 0x2446 <CheckLetter+0x90>
            }
            if (data[y] == '[') found = 1;
    242a:	91 91       	ld	r25, Z+
    242c:	dd 24       	eor	r13, r13
    242e:	d3 94       	inc	r13
    2430:	9b 35       	cpi	r25, 0x5B	; 91
    2432:	09 f0       	breq	.+2      	; 0x2436 <CheckLetter+0x80>
    2434:	d1 2c       	mov	r13, r1

    while (x){
        uint8_t max;
        if (x>32) max = 32; else max = x;
        ExtEERead(object+OFF_STRINGFLDS+2, max, GAME, &data[0]);
        for (uint8_t y=0; y<max; ++y){
    2436:	8f 5f       	subi	r24, 0xFF	; 255
    2438:	80 17       	cp	r24, r16
    243a:	48 f3       	brcs	.-46     	; 0x240e <CheckLetter+0x58>
            if (found){
                if ((data[y]|0x20) == letter) return 1; else return 0;
            }
            if (data[y] == '[') found = 1;
        }
        object += max;
    243c:	e0 0e       	add	r14, r16
    243e:	f1 1c       	adc	r15, r1
        x -= max;
    2440:	10 1b       	sub	r17, r16
    2442:	d4 cf       	rjmp	.-88     	; 0x23ec <CheckLetter+0x36>
    }
    return 0;
    2444:	80 e0       	ldi	r24, 0x00	; 0
}
    2446:	a0 96       	adiw	r28, 0x20	; 32
    2448:	cd bf       	out	0x3d, r28	; 61
    244a:	de bf       	out	0x3e, r29	; 62
    244c:	df 91       	pop	r29
    244e:	cf 91       	pop	r28
    2450:	1f 91       	pop	r17
    2452:	0f 91       	pop	r16
    2454:	ff 90       	pop	r15
    2456:	ef 90       	pop	r14
    2458:	df 90       	pop	r13
    245a:	cf 90       	pop	r12
    245c:	08 95       	ret

0000245e <FindChild>:

//Returns the child's address if the child is visible and the search letter matches
uint16_t FindChild(uint16_t parent, uint8_t letter, uint16_t start){
    245e:	af 92       	push	r10
    2460:	bf 92       	push	r11
    2462:	df 92       	push	r13
    2464:	ef 92       	push	r14
    2466:	ff 92       	push	r15
    2468:	0f 93       	push	r16
    246a:	1f 93       	push	r17
    246c:	cf 93       	push	r28
    246e:	df 93       	push	r29
    2470:	00 d0       	rcall	.+0      	; 0x2472 <FindChild+0x14>
    2472:	00 d0       	rcall	.+0      	; 0x2474 <FindChild+0x16>
    2474:	cd b7       	in	r28, 0x3d	; 61
    2476:	de b7       	in	r29, 0x3e	; 62
    2478:	d6 2e       	mov	r13, r22
    247a:	5a 01       	movw	r10, r20
    
    uint16_t child = parent;
    uint8_t data[4];

    ExtEERead(child+L_BOILER, 4, GAME, &data[0]);
    247c:	9e 01       	movw	r18, r28
    247e:	2f 5f       	subi	r18, 0xFF	; 255
    2480:	3f 4f       	sbci	r19, 0xFF	; 255
    2482:	40 e0       	ldi	r20, 0x00	; 0
    2484:	64 e0       	ldi	r22, 0x04	; 4
    2486:	80 96       	adiw	r24, 0x20	; 32
    2488:	0f de       	rcall	.-994    	; 0x20a8 <ExtEERead>
    248a:	e9 80       	ldd	r14, Y+1	; 0x01
    248c:	fa 80       	ldd	r15, Y+2	; 0x02
    248e:	fe 24       	eor	r15, r14
    2490:	ef 24       	eor	r14, r15
    2492:	fe 24       	eor	r15, r14
    2494:	0b 81       	ldd	r16, Y+3	; 0x03
    2496:	1c 81       	ldd	r17, Y+4	; 0x04
    2498:	10 27       	eor	r17, r16
    249a:	01 27       	eor	r16, r17
    249c:	10 27       	eor	r17, r16
    parent = (data[0]<<8|data[1]);    //Next object on parent level
    child =  (data[2]<<8|data[3]);    //First object on child level

    //As long as the child is within the parent's range
    while (parent>child){
    249e:	0e 15       	cp	r16, r14
    24a0:	1f 05       	cpc	r17, r15
    24a2:	30 f5       	brcc	.+76     	; 0x24f0 <FindChild+0x92>

        //If child's address is higher than the start address, perform search for letter
        if (child>start){
    24a4:	a0 16       	cp	r10, r16
    24a6:	b1 06       	cpc	r11, r17
    24a8:	58 f0       	brcs	.+22     	; 0x24c0 <FindChild+0x62>
                if ((letter == 0)||(CheckLetter(child, letter))) return child;
            }
        }

        //Not visible or name not right
        ExtEERead(child+L_BOILER, 2, GAME, &data[0]);
    24aa:	9e 01       	movw	r18, r28
    24ac:	2f 5f       	subi	r18, 0xFF	; 255
    24ae:	3f 4f       	sbci	r19, 0xFF	; 255
    24b0:	40 e0       	ldi	r20, 0x00	; 0
    24b2:	62 e0       	ldi	r22, 0x02	; 2
    24b4:	c8 01       	movw	r24, r16
    24b6:	80 96       	adiw	r24, 0x20	; 32
    24b8:	f7 dd       	rcall	.-1042   	; 0x20a8 <ExtEERead>
    24ba:	09 81       	ldd	r16, Y+1	; 0x01
    24bc:	1a 81       	ldd	r17, Y+2	; 0x02
    24be:	ec cf       	rjmp	.-40     	; 0x2498 <FindChild+0x3a>
    //As long as the child is within the parent's range
    while (parent>child){

        //If child's address is higher than the start address, perform search for letter
        if (child>start){
            ExtEERead(child+OFF_BYTEFLDS+VISIBLE_ACL+L_BOILER, 1, GAME, &data[0]);
    24c0:	9e 01       	movw	r18, r28
    24c2:	2f 5f       	subi	r18, 0xFF	; 255
    24c4:	3f 4f       	sbci	r19, 0xFF	; 255
    24c6:	40 e0       	ldi	r20, 0x00	; 0
    24c8:	61 e0       	ldi	r22, 0x01	; 1
    24ca:	c8 01       	movw	r24, r16
    24cc:	85 96       	adiw	r24, 0x25	; 37
    24ce:	ec dd       	rcall	.-1064   	; 0x20a8 <ExtEERead>
            if ((data[0] == 0)||(CheckState(data[0]))) {
    24d0:	89 81       	ldd	r24, Y+1	; 0x01
    24d2:	81 11       	cpse	r24, r1
    24d4:	03 c0       	rjmp	.+6      	; 0x24dc <FindChild+0x7e>
                if ((letter == 0)||(CheckLetter(child, letter))) return child;
    24d6:	d1 10       	cpse	r13, r1
    24d8:	05 c0       	rjmp	.+10     	; 0x24e4 <FindChild+0x86>
    while (parent>child){

        //If child's address is higher than the start address, perform search for letter
        if (child>start){
            ExtEERead(child+OFF_BYTEFLDS+VISIBLE_ACL+L_BOILER, 1, GAME, &data[0]);
            if ((data[0] == 0)||(CheckState(data[0]))) {
    24da:	0d c0       	rjmp	.+26     	; 0x24f6 <FindChild+0x98>
    24dc:	63 d8       	rcall	.-3898   	; 0x15a4 <CheckState>
    24de:	81 11       	cpse	r24, r1
    24e0:	fa cf       	rjmp	.-12     	; 0x24d6 <FindChild+0x78>
                if ((letter == 0)||(CheckLetter(child, letter))) return child;
    24e2:	e3 cf       	rjmp	.-58     	; 0x24aa <FindChild+0x4c>
    24e4:	6d 2d       	mov	r22, r13
    24e6:	c8 01       	movw	r24, r16
    24e8:	66 df       	rcall	.-308    	; 0x23b6 <CheckLetter>
    24ea:	88 23       	and	r24, r24
    24ec:	f1 f2       	breq	.-68     	; 0x24aa <FindChild+0x4c>
    24ee:	03 c0       	rjmp	.+6      	; 0x24f6 <FindChild+0x98>

        //Not visible or name not right
        ExtEERead(child+L_BOILER, 2, GAME, &data[0]);
        child = (data[0]<<8|data[1]);    //Next object on child level
        
    } return 0;
    24f0:	80 e0       	ldi	r24, 0x00	; 0
    24f2:	90 e0       	ldi	r25, 0x00	; 0
    24f4:	01 c0       	rjmp	.+2      	; 0x24f8 <FindChild+0x9a>
    24f6:	c8 01       	movw	r24, r16
}
    24f8:	24 96       	adiw	r28, 0x04	; 4
    24fa:	cd bf       	out	0x3d, r28	; 61
    24fc:	de bf       	out	0x3e, r29	; 62
    24fe:	df 91       	pop	r29
    2500:	cf 91       	pop	r28
    2502:	1f 91       	pop	r17
    2504:	0f 91       	pop	r16
    2506:	ff 90       	pop	r15
    2508:	ef 90       	pop	r14
    250a:	df 90       	pop	r13
    250c:	bf 90       	pop	r11
    250e:	af 90       	pop	r10
    2510:	08 95       	ret

00002512 <InpOkChk>:

//Allow only a(A) to z(Z) and 0 to 9 as input
uint8_t InpOkChk(uint8_t test){
    test |= 0x20;
    2512:	80 62       	ori	r24, 0x20	; 32
    if ((test>='a')&&(test<='z')) return 1;
    2514:	9f e9       	ldi	r25, 0x9F	; 159
    2516:	98 0f       	add	r25, r24
    2518:	9a 31       	cpi	r25, 0x1A	; 26
    251a:	38 f0       	brcs	.+14     	; 0x252a <InpOkChk+0x18>
    251c:	90 ed       	ldi	r25, 0xD0	; 208
    251e:	98 0f       	add	r25, r24
    2520:	81 e0       	ldi	r24, 0x01	; 1
    2522:	9a 30       	cpi	r25, 0x0A	; 10
    2524:	18 f0       	brcs	.+6      	; 0x252c <InpOkChk+0x1a>
    2526:	80 e0       	ldi	r24, 0x00	; 0
    2528:	08 95       	ret
    252a:	81 e0       	ldi	r24, 0x01	; 1
    if ((test>='0')&&(test<='9')) return 1;
    return 0;
}
    252c:	08 95       	ret

0000252e <CleanInput>:

//Cleans input of garbage and returns length of cleaned input "o->d2  !\0" becomes "od2\0"
uint8_t CleanInput(uint8_t *data){
    252e:	0f 93       	push	r16
    2530:	1f 93       	push	r17
    2532:	cf 93       	push	r28
    2534:	df 93       	push	r29
    2536:	8c 01       	movw	r16, r24
    uint8_t cnt = 0;
    for (uint8_t x=0; data[x]!=0; ++x){
    2538:	d0 e0       	ldi	r29, 0x00	; 0
    return 0;
}

//Cleans input of garbage and returns length of cleaned input "o->d2  !\0" becomes "od2\0"
uint8_t CleanInput(uint8_t *data){
    uint8_t cnt = 0;
    253a:	c0 e0       	ldi	r28, 0x00	; 0
    for (uint8_t x=0; data[x]!=0; ++x){
    253c:	f8 01       	movw	r30, r16
    253e:	ed 0f       	add	r30, r29
    2540:	f1 1d       	adc	r31, r1
    2542:	20 81       	ld	r18, Z
    2544:	8c 2f       	mov	r24, r28
    2546:	90 e0       	ldi	r25, 0x00	; 0
    2548:	22 23       	and	r18, r18
    254a:	51 f0       	breq	.+20     	; 0x2560 <CleanInput+0x32>
        data[cnt] = data[x];
    254c:	d8 01       	movw	r26, r16
    254e:	a8 0f       	add	r26, r24
    2550:	b9 1f       	adc	r27, r25
    2552:	2c 93       	st	X, r18
        if (InpOkChk(data[x])) ++cnt;
    2554:	80 81       	ld	r24, Z
    2556:	dd df       	rcall	.-70     	; 0x2512 <InpOkChk>
    2558:	81 11       	cpse	r24, r1
    255a:	cf 5f       	subi	r28, 0xFF	; 255
}

//Cleans input of garbage and returns length of cleaned input "o->d2  !\0" becomes "od2\0"
uint8_t CleanInput(uint8_t *data){
    uint8_t cnt = 0;
    for (uint8_t x=0; data[x]!=0; ++x){
    255c:	df 5f       	subi	r29, 0xFF	; 255
    255e:	ee cf       	rjmp	.-36     	; 0x253c <CleanInput+0xe>
        data[cnt] = data[x];
        if (InpOkChk(data[x])) ++cnt;
    }
    data[cnt] = 0;
    2560:	f8 01       	movw	r30, r16
    2562:	e8 0f       	add	r30, r24
    2564:	f9 1f       	adc	r31, r25
    2566:	10 82       	st	Z, r1
    return cnt;
}
    2568:	8c 2f       	mov	r24, r28
    256a:	df 91       	pop	r29
    256c:	cf 91       	pop	r28
    256e:	1f 91       	pop	r17
    2570:	0f 91       	pop	r16
    2572:	08 95       	ret

00002574 <CheckSend>:

//Send routine, optimized for low memory usage
uint8_t CheckSend(){
    2574:	cf 93       	push	r28
    static uint8_t txPart;
    uint8_t EEreadLength=0;

    //Play effects if available and not already playing
    if (effect == 0){
    2576:	80 91 3a 38 	lds	r24, 0x383A	; 0x80383a <effect>
    257a:	90 91 3b 38 	lds	r25, 0x383B	; 0x80383b <effect+0x1>
    257e:	89 2b       	or	r24, r25
    2580:	99 f4       	brne	.+38     	; 0x25a8 <CheckSend+0x34>
        effect = currObj.byteField[EFFECTS];
    2582:	80 91 1f 3a 	lds	r24, 0x3A1F	; 0x803a1f <currObj+0x4>
    2586:	90 e0       	ldi	r25, 0x00	; 0
    2588:	80 93 3a 38 	sts	0x383A, r24	; 0x80383a <effect>
    258c:	90 93 3b 38 	sts	0x383B, r25	; 0x80383b <effect+0x1>
        auStart = ((effect&0xE0)>0);
    2590:	80 91 3a 38 	lds	r24, 0x383A	; 0x80383a <effect>
    2594:	90 91 3b 38 	lds	r25, 0x383B	; 0x80383b <effect+0x1>
    2598:	80 7e       	andi	r24, 0xE0	; 224
    259a:	99 27       	eor	r25, r25
    259c:	21 e0       	ldi	r18, 0x01	; 1
    259e:	89 2b       	or	r24, r25
    25a0:	09 f4       	brne	.+2      	; 0x25a4 <CheckSend+0x30>
    25a2:	20 e0       	ldi	r18, 0x00	; 0
    25a4:	20 93 39 38 	sts	0x3839, r18	; 0x803839 <auStart>
    }

    //Check if more string(part)s have to be sent to the serial output if previous send operation is completed
    if ((txAddrNow < TXLISTLEN) && serTxDone){
    25a8:	20 91 47 3a 	lds	r18, 0x3A47	; 0x803a47 <txAddrNow>
    25ac:	28 30       	cpi	r18, 0x08	; 8
    25ae:	08 f0       	brcs	.+2      	; 0x25b2 <CheckSend+0x3e>
    25b0:	48 c0       	rjmp	.+144    	; 0x2642 <CheckSend+0xce>
    25b2:	80 91 0a 38 	lds	r24, 0x380A	; 0x80380a <serTxDone>
    25b6:	88 23       	and	r24, r24
    25b8:	09 f4       	brne	.+2      	; 0x25bc <CheckSend+0x48>
    25ba:	43 c0       	rjmp	.+134    	; 0x2642 <CheckSend+0xce>
        if (txStrLen[txAddrNow] == 0){
    25bc:	82 2f       	mov	r24, r18
    25be:	90 e0       	ldi	r25, 0x00	; 0
    25c0:	fc 01       	movw	r30, r24
    25c2:	e8 5b       	subi	r30, 0xB8	; 184
    25c4:	f5 4c       	sbci	r31, 0xC5	; 197
    25c6:	e0 81       	ld	r30, Z
    25c8:	e1 11       	cpse	r30, r1
    25ca:	06 c0       	rjmp	.+12     	; 0x25d8 <CheckSend+0x64>
            txPart = 0;
    25cc:	10 92 06 39 	sts	0x3906, r1	; 0x803906 <txPart.3950>
            txAddrNow = TXLISTLEN;
    25d0:	88 e0       	ldi	r24, 0x08	; 8
    25d2:	80 93 47 3a 	sts	0x3A47, r24	; 0x803a47 <txAddrNow>
    25d6:	2d c0       	rjmp	.+90     	; 0x2632 <CheckSend+0xbe>
        } else if (txPart < txStrLen[txAddrNow]){
    25d8:	50 91 06 39 	lds	r21, 0x3906	; 0x803906 <txPart.3950>
    25dc:	5e 17       	cp	r21, r30
    25de:	58 f5       	brcc	.+86     	; 0x2636 <CheckSend+0xc2>
            EEreadLength = txStrLen[txAddrNow]-txPart;
    25e0:	ce 2f       	mov	r28, r30
    25e2:	c5 1b       	sub	r28, r21
    25e4:	c1 32       	cpi	r28, 0x21	; 33
    25e6:	08 f0       	brcs	.+2      	; 0x25ea <CheckSend+0x76>
    25e8:	c0 e2       	ldi	r28, 0x20	; 32
            if (EEreadLength>=TXLEN) EEreadLength = TXLEN-1;
            ExtEERead(txAddrList[txAddrNow]+txPart, EEreadLength, txTypeNow, &txBuffer[0]);
    25ea:	88 0f       	add	r24, r24
    25ec:	99 1f       	adc	r25, r25
    25ee:	fc 01       	movw	r30, r24
    25f0:	e0 5b       	subi	r30, 0xB0	; 176
    25f2:	f5 4c       	sbci	r31, 0xC5	; 197
    25f4:	80 81       	ld	r24, Z
    25f6:	91 81       	ldd	r25, Z+1	; 0x01
    25f8:	29 ef       	ldi	r18, 0xF9	; 249
    25fa:	3a e3       	ldi	r19, 0x3A	; 58
    25fc:	40 91 46 3a 	lds	r20, 0x3A46	; 0x803a46 <txTypeNow>
    2600:	6c 2f       	mov	r22, r28
    2602:	85 0f       	add	r24, r21
    2604:	91 1d       	adc	r25, r1
    2606:	50 dd       	rcall	.-1376   	; 0x20a8 <ExtEERead>
            txPart += EEreadLength;
    2608:	80 91 06 39 	lds	r24, 0x3906	; 0x803906 <txPart.3950>
    260c:	8c 0f       	add	r24, r28
    260e:	80 93 06 39 	sts	0x3906, r24	; 0x803906 <txPart.3950>
            txBuffer[EEreadLength] = 0; //Add string terminator after piece to send to plug memory leak
    2612:	ec 2f       	mov	r30, r28
    2614:	f0 e0       	ldi	r31, 0x00	; 0
    2616:	e7 50       	subi	r30, 0x07	; 7
    2618:	f5 4c       	sbci	r31, 0xC5	; 197
    261a:	10 82       	st	Z, r1
            if ((txBuffer[0] == 0) && (EEreadLength)) txBuffer[0] = 0xDB; //Block character when data wrong.
    261c:	80 91 f9 3a 	lds	r24, 0x3AF9	; 0x803af9 <txBuffer>
    2620:	81 11       	cpse	r24, r1
    2622:	03 c0       	rjmp	.+6      	; 0x262a <CheckSend+0xb6>
    2624:	8b ed       	ldi	r24, 0xDB	; 219
    2626:	80 93 f9 3a 	sts	0x3AF9, r24	; 0x803af9 <txBuffer>
            SerSend(&txBuffer[0]);
    262a:	89 ef       	ldi	r24, 0xF9	; 249
    262c:	9a e3       	ldi	r25, 0x3A	; 58
    262e:	0e 94 08 09 	call	0x1210	; 0x1210 <SerSend>
        } else {
            txPart = 0;
            ++txAddrNow;
        }
    } else if (serTxDone) return 0; //All is sent!
    return 1; //Still sending, do not change the data in the tx variables
    2632:	81 e0       	ldi	r24, 0x01	; 1
    2634:	0b c0       	rjmp	.+22     	; 0x264c <CheckSend+0xd8>
            txPart += EEreadLength;
            txBuffer[EEreadLength] = 0; //Add string terminator after piece to send to plug memory leak
            if ((txBuffer[0] == 0) && (EEreadLength)) txBuffer[0] = 0xDB; //Block character when data wrong.
            SerSend(&txBuffer[0]);
        } else {
            txPart = 0;
    2636:	10 92 06 39 	sts	0x3906, r1	; 0x803906 <txPart.3950>
            ++txAddrNow;
    263a:	2f 5f       	subi	r18, 0xFF	; 255
    263c:	20 93 47 3a 	sts	0x3A47, r18	; 0x803a47 <txAddrNow>
    2640:	f8 cf       	rjmp	.-16     	; 0x2632 <CheckSend+0xbe>
        }
    } else if (serTxDone) return 0; //All is sent!
    2642:	90 91 0a 38 	lds	r25, 0x380A	; 0x80380a <serTxDone>
    2646:	81 e0       	ldi	r24, 0x01	; 1
    2648:	91 11       	cpse	r25, r1
    264a:	80 e0       	ldi	r24, 0x00	; 0
    return 1; //Still sending, do not change the data in the tx variables
}
    264c:	cf 91       	pop	r28
    264e:	08 95       	ret

00002650 <CheckResponse>:

//Send another part of the response and play the effect afterwards
uint8_t CheckResponse(){
    2650:	cf 93       	push	r28
    2652:	df 93       	push	r29
    static uint8_t number = 0;
    if (responseList){
    2654:	c0 91 1a 39 	lds	r28, 0x391A	; 0x80391a <responseList>
    2658:	cc 23       	and	r28, r28
    265a:	e9 f1       	breq	.+122    	; 0x26d6 <CheckResponse+0x86>
        --responseList;
    265c:	c1 50       	subi	r28, 0x01	; 1
    265e:	c0 93 1a 39 	sts	0x391A, r28	; 0x80391a <responseList>
        if (reactStr[0][number] == CURR_LOC) {
    2662:	d0 91 05 39 	lds	r29, 0x3905	; 0x803905 <number.3954>
    2666:	2d 2f       	mov	r18, r29
    2668:	30 e0       	ldi	r19, 0x00	; 0
    266a:	f9 01       	movw	r30, r18
    266c:	ee 0f       	add	r30, r30
    266e:	ff 1f       	adc	r31, r31
    2670:	e5 5e       	subi	r30, 0xE5	; 229
    2672:	f6 4c       	sbci	r31, 0xC6	; 198
    2674:	80 81       	ld	r24, Z
    2676:	91 81       	ldd	r25, Z+1	; 0x01
    2678:	80 3f       	cpi	r24, 0xF0	; 240
    267a:	4f ef       	ldi	r20, 0xFF	; 255
    267c:	94 07       	cpc	r25, r20
    267e:	51 f4       	brne	.+20     	; 0x2694 <CheckResponse+0x44>
            PrepareSending(currObj.addrStr[NAME], currObj.lenStr[NAME], GAME);
    2680:	60 91 35 3a 	lds	r22, 0x3A35	; 0x803a35 <currObj+0x1a>
    2684:	70 91 36 3a 	lds	r23, 0x3A36	; 0x803a36 <currObj+0x1b>
    2688:	40 e0       	ldi	r20, 0x00	; 0
    268a:	80 91 27 3a 	lds	r24, 0x3A27	; 0x803a27 <currObj+0xc>
    268e:	90 91 28 3a 	lds	r25, 0x3A28	; 0x803a28 <currObj+0xd>
    2692:	0d c0       	rjmp	.+26     	; 0x26ae <CheckResponse+0x5e>
        } else {
            PrepareSending(reactStr[0][number], reactStr[1][number], reactStr[2][number]);
    2694:	d9 01       	movw	r26, r18
    2696:	aa 0f       	add	r26, r26
    2698:	bb 1f       	adc	r27, r27
    269a:	a5 56       	subi	r26, 0x65	; 101
    269c:	b6 4c       	sbci	r27, 0xC6	; 198
    269e:	22 0f       	add	r18, r18
    26a0:	33 1f       	adc	r19, r19
    26a2:	f9 01       	movw	r30, r18
    26a4:	e5 5a       	subi	r30, 0xA5	; 165
    26a6:	f6 4c       	sbci	r31, 0xC6	; 198
    26a8:	60 81       	ld	r22, Z
    26aa:	71 81       	ldd	r23, Z+1	; 0x01
    26ac:	4c 91       	ld	r20, X
    26ae:	53 dd       	rcall	.-1370   	; 0x2156 <PrepareSending>
        }
        ++number;
    26b0:	df 5f       	subi	r29, 0xFF	; 255
    26b2:	d0 93 05 39 	sts	0x3905, r29	; 0x803905 <number.3954>

        if (responseList == 0) {
    26b6:	c1 11       	cpse	r28, r1
    26b8:	0d c0       	rjmp	.+26     	; 0x26d4 <CheckResponse+0x84>
            effect = currObj.byteField[EFFECTS];
    26ba:	80 91 1f 3a 	lds	r24, 0x3A1F	; 0x803a1f <currObj+0x4>
    26be:	90 e0       	ldi	r25, 0x00	; 0
    26c0:	80 93 3a 38 	sts	0x383A, r24	; 0x80383a <effect>
    26c4:	90 93 3b 38 	sts	0x383B, r25	; 0x80383b <effect+0x1>
            RXCNT = 0;
    26c8:	1d ba       	out	0x1d, r1	; 29
            serRxDone = 0;
    26ca:	10 92 44 38 	sts	0x3844, r1	; 0x803844 <serRxDone>
            number = 0;
    26ce:	10 92 05 39 	sts	0x3905, r1	; 0x803905 <number.3954>
    26d2:	01 c0       	rjmp	.+2      	; 0x26d6 <CheckResponse+0x86>
            return 0;
        }
        return 1;
    26d4:	c1 e0       	ldi	r28, 0x01	; 1
    }
    return 0;
}
    26d6:	8c 2f       	mov	r24, r28
    26d8:	df 91       	pop	r29
    26da:	cf 91       	pop	r28
    26dc:	08 95       	ret

000026de <CheckInput>:

//User input check (and validation)
uint8_t CheckInput(uint8_t *data){
    26de:	3f 92       	push	r3
    26e0:	4f 92       	push	r4
    26e2:	5f 92       	push	r5
    26e4:	6f 92       	push	r6
    26e6:	7f 92       	push	r7
    26e8:	8f 92       	push	r8
    26ea:	9f 92       	push	r9
    26ec:	af 92       	push	r10
    26ee:	bf 92       	push	r11
    26f0:	cf 92       	push	r12
    26f2:	df 92       	push	r13
    26f4:	ef 92       	push	r14
    26f6:	ff 92       	push	r15
    26f8:	0f 93       	push	r16
    26fa:	1f 93       	push	r17
    26fc:	cf 93       	push	r28
    26fe:	df 93       	push	r29
    2700:	cd b7       	in	r28, 0x3d	; 61
    2702:	de b7       	in	r29, 0x3e	; 62
    2704:	a1 97       	sbiw	r28, 0x21	; 33
    2706:	cd bf       	out	0x3d, r28	; 61
    2708:	de bf       	out	0x3e, r29	; 62
    270a:	8c 01       	movw	r16, r24
    
    //Load game data after reboot
    if (currDepth == 0xff) {
    270c:	80 91 2c 38 	lds	r24, 0x382C	; 0x80382c <currDepth>
    2710:	8f 3f       	cpi	r24, 0xFF	; 255
    2712:	49 f4       	brne	.+18     	; 0x2726 <CheckInput+0x48>
        //Start at first location
        PopulateObject(route[0], &currObj);
    2714:	6b e1       	ldi	r22, 0x1B	; 27
    2716:	7a e3       	ldi	r23, 0x3A	; 58
    2718:	80 91 db 39 	lds	r24, 0x39DB	; 0x8039db <route>
    271c:	90 91 dc 39 	lds	r25, 0x39DC	; 0x8039dc <route+0x1>
    2720:	d3 dd       	rcall	.-1114   	; 0x22c8 <PopulateObject>
        currDepth = 0;
    2722:	10 92 2c 38 	sts	0x382C, r1	; 0x80382c <currDepth>
    }

    if (serRxDone){
    2726:	80 91 44 38 	lds	r24, 0x3844	; 0x803844 <serRxDone>
    272a:	88 23       	and	r24, r24
    272c:	09 f4       	brne	.+2      	; 0x2730 <CheckInput+0x52>
    272e:	6e c2       	rjmp	.+1244   	; 0x2c0c <CheckInput+0x52e>

        //Special input requested from user by game
        if (specialInput[0]){
    2730:	80 91 0a 39 	lds	r24, 0x390A	; 0x80390a <specialInput>
    2734:	88 23       	and	r24, r24
    2736:	09 f4       	brne	.+2      	; 0x273a <CheckInput+0x5c>
    2738:	57 c0       	rjmp	.+174    	; 0x27e8 <CheckInput+0x10a>
            specialPassed = 0;
    273a:	10 92 09 39 	sts	0x3909, r1	; 0x803909 <specialPassed>
            data[0] = 'a';
    273e:	81 e6       	ldi	r24, 0x61	; 97
    2740:	f8 01       	movw	r30, r16
    2742:	80 83       	st	Z, r24
            
            //Normal code challenge
            if (StartsWith((uint8_t *)&serRx[0], &specialInput[0])) {
    2744:	6a e0       	ldi	r22, 0x0A	; 10
    2746:	79 e3       	ldi	r23, 0x39	; 57
    2748:	85 e7       	ldi	r24, 0x75	; 117
    274a:	9a e3       	ldi	r25, 0x3A	; 58
    274c:	ea dc       	rcall	.-1580   	; 0x2122 <StartsWith>
    274e:	f8 2e       	mov	r15, r24
    2750:	88 23       	and	r24, r24
    2752:	21 f0       	breq	.+8      	; 0x275c <CheckInput+0x7e>
                specialPassed = 1;
    2754:	81 e0       	ldi	r24, 0x01	; 1
    2756:	80 93 09 39 	sts	0x3909, r24	; 0x803909 <specialPassed>
    275a:	04 c0       	rjmp	.+8      	; 0x2764 <CheckInput+0x86>
                //specialInput[0] = 0;
                //data[1] = 0;

            //Special challenge 1
            } else if ((specialInput[0] == '1')&&(specialInput[2] == 0)) {
    275c:	80 91 0a 39 	lds	r24, 0x390A	; 0x80390a <specialInput>
    2760:	81 33       	cpi	r24, 0x31	; 49
    2762:	11 f0       	breq	.+4      	; 0x2768 <CheckInput+0x8a>
                responseList = 32;
                return 1;
            }
        } 
        //Data received, but not any of the commands above
        return 0;
    2764:	f1 2c       	mov	r15, r1
    2766:	54 c2       	rjmp	.+1192   	; 0x2c10 <CheckInput+0x532>
                specialPassed = 1;
                //specialInput[0] = 0;
                //data[1] = 0;

            //Special challenge 1
            } else if ((specialInput[0] == '1')&&(specialInput[2] == 0)) {
    2768:	80 91 0c 39 	lds	r24, 0x390C	; 0x80390c <specialInput+0x2>
    276c:	81 11       	cpse	r24, r1
    276e:	fa cf       	rjmp	.-12     	; 0x2764 <CheckInput+0x86>
                uint8_t inputLen = CleanInput((uint8_t *)&serRx[0]);
    2770:	85 e7       	ldi	r24, 0x75	; 117
    2772:	9a e3       	ldi	r25, 0x3A	; 58
    2774:	dc de       	rcall	.-584    	; 0x252e <CleanInput>
                specialPassed = 2;
    2776:	92 e0       	ldi	r25, 0x02	; 2
    2778:	90 93 09 39 	sts	0x3909, r25	; 0x803909 <specialPassed>
                data[1] = 0;
    277c:	f8 01       	movw	r30, r16
    277e:	11 82       	std	Z+1, r1	; 0x01

                if (inputLen >= 2) {
    2780:	82 30       	cpi	r24, 0x02	; 2
    2782:	80 f3       	brcs	.-32     	; 0x2764 <CheckInput+0x86>
                    if ((serRx[0] == '1')||(serRx[0] == '2')||(serRx[0] == '3')||(serRx[0] == '4')) {
    2784:	80 91 75 3a 	lds	r24, 0x3A75	; 0x803a75 <serRx>
    2788:	81 33       	cpi	r24, 0x31	; 49
    278a:	61 f0       	breq	.+24     	; 0x27a4 <CheckInput+0xc6>
    278c:	80 91 75 3a 	lds	r24, 0x3A75	; 0x803a75 <serRx>
    2790:	82 33       	cpi	r24, 0x32	; 50
    2792:	41 f0       	breq	.+16     	; 0x27a4 <CheckInput+0xc6>
    2794:	80 91 75 3a 	lds	r24, 0x3A75	; 0x803a75 <serRx>
    2798:	83 33       	cpi	r24, 0x33	; 51
    279a:	21 f0       	breq	.+8      	; 0x27a4 <CheckInput+0xc6>
    279c:	80 91 75 3a 	lds	r24, 0x3A75	; 0x803a75 <serRx>
    27a0:	84 33       	cpi	r24, 0x34	; 52
    27a2:	01 f7       	brne	.-64     	; 0x2764 <CheckInput+0x86>
                        serRx[1] |= 0x20;
    27a4:	80 91 76 3a 	lds	r24, 0x3A76	; 0x803a76 <serRx+0x1>
    27a8:	80 62       	ori	r24, 0x20	; 32
    27aa:	80 93 76 3a 	sts	0x3A76, r24	; 0x803a76 <serRx+0x1>
                        if ((serRx[1] == 'a')||(serRx[1] == 'e')||(serRx[1] == 'f')||(serRx[1] == 'w')) {
    27ae:	80 91 76 3a 	lds	r24, 0x3A76	; 0x803a76 <serRx+0x1>
    27b2:	81 36       	cpi	r24, 0x61	; 97
    27b4:	61 f0       	breq	.+24     	; 0x27ce <CheckInput+0xf0>
    27b6:	80 91 76 3a 	lds	r24, 0x3A76	; 0x803a76 <serRx+0x1>
    27ba:	85 36       	cpi	r24, 0x65	; 101
    27bc:	41 f0       	breq	.+16     	; 0x27ce <CheckInput+0xf0>
    27be:	80 91 76 3a 	lds	r24, 0x3A76	; 0x803a76 <serRx+0x1>
    27c2:	86 36       	cpi	r24, 0x66	; 102
    27c4:	21 f0       	breq	.+8      	; 0x27ce <CheckInput+0xf0>
    27c6:	80 91 76 3a 	lds	r24, 0x3A76	; 0x803a76 <serRx+0x1>
    27ca:	87 37       	cpi	r24, 0x77	; 119
    27cc:	59 f6       	brne	.-106    	; 0x2764 <CheckInput+0x86>
                            data[1] = specialInput[1]+0x11;
    27ce:	80 91 0b 39 	lds	r24, 0x390B	; 0x80390b <specialInput+0x1>
    27d2:	8f 5e       	subi	r24, 0xEF	; 239
    27d4:	f8 01       	movw	r30, r16
    27d6:	81 83       	std	Z+1, r24	; 0x01
                            data[2] = serRx[0];
    27d8:	80 91 75 3a 	lds	r24, 0x3A75	; 0x803a75 <serRx>
    27dc:	82 83       	std	Z+2, r24	; 0x02
                            data[3] = serRx[1];
    27de:	80 91 76 3a 	lds	r24, 0x3A76	; 0x803a76 <serRx+0x1>
    27e2:	83 83       	std	Z+3, r24	; 0x03
                            data[4] = 0;
    27e4:	14 82       	std	Z+4, r1	; 0x04
    27e6:	14 c2       	rjmp	.+1064   	; 0x2c10 <CheckInput+0x532>
        
        //Normal input
        } else {

            //Change status bit
            if ((serRx[0] == '#')&&(RXCNT == 6)){
    27e8:	80 91 75 3a 	lds	r24, 0x3A75	; 0x803a75 <serRx>
    27ec:	83 32       	cpi	r24, 0x23	; 35
    27ee:	89 f5       	brne	.+98     	; 0x2852 <CheckInput+0x174>
    27f0:	8d b3       	in	r24, 0x1d	; 29
    27f2:	86 30       	cpi	r24, 0x06	; 6
    27f4:	71 f5       	brne	.+92     	; 0x2852 <CheckInput+0x174>
    27f6:	81 e0       	ldi	r24, 0x01	; 1
    27f8:	90 e0       	ldi	r25, 0x00	; 0
    27fa:	10 e0       	ldi	r17, 0x00	; 0
                uint8_t bitNr = 0;

                for (uint8_t x=1; x<4; ++x) {
                    serRx[x] -= '0';
    27fc:	fc 01       	movw	r30, r24
    27fe:	eb 58       	subi	r30, 0x8B	; 139
    2800:	f5 4c       	sbci	r31, 0xC5	; 197
    2802:	20 81       	ld	r18, Z
    2804:	20 53       	subi	r18, 0x30	; 48
    2806:	20 83       	st	Z, r18
                    bitNr *= 10;
    2808:	11 0f       	add	r17, r17
    280a:	21 2f       	mov	r18, r17
    280c:	22 0f       	add	r18, r18
    280e:	22 0f       	add	r18, r18
    2810:	12 0f       	add	r17, r18
                    if (serRx[1] > 2) break;
    2812:	20 91 76 3a 	lds	r18, 0x3A76	; 0x803a76 <serRx+0x1>
    2816:	23 30       	cpi	r18, 0x03	; 3
    2818:	48 f4       	brcc	.+18     	; 0x282c <CheckInput+0x14e>
                    if (serRx[x] < 10) {
    281a:	20 81       	ld	r18, Z
    281c:	2a 30       	cpi	r18, 0x0A	; 10
    281e:	b8 f4       	brcc	.+46     	; 0x284e <CheckInput+0x170>
                        bitNr += serRx[x];
    2820:	20 81       	ld	r18, Z
    2822:	12 0f       	add	r17, r18
    2824:	01 96       	adiw	r24, 0x01	; 1

            //Change status bit
            if ((serRx[0] == '#')&&(RXCNT == 6)){
                uint8_t bitNr = 0;

                for (uint8_t x=1; x<4; ++x) {
    2826:	84 30       	cpi	r24, 0x04	; 4
    2828:	91 05       	cpc	r25, r1
    282a:	41 f7       	brne	.-48     	; 0x27fc <CheckInput+0x11e>
                        continue;
                    }
                    bitNr = 0;
                    break;
                }
                if ((bitNr)&&(bitNr!=128)) {
    282c:	81 2f       	mov	r24, r17
    282e:	8f 77       	andi	r24, 0x7F	; 127
    2830:	71 f0       	breq	.+28     	; 0x284e <CheckInput+0x170>
                    if (Cheat(0xff-bitNr, serRx[4]<<8|serRx[5])) UpdateState(bitNr);
    2832:	80 91 79 3a 	lds	r24, 0x3A79	; 0x803a79 <serRx+0x4>
    2836:	60 91 7a 3a 	lds	r22, 0x3A7A	; 0x803a7a <serRx+0x5>
    283a:	70 e0       	ldi	r23, 0x00	; 0
    283c:	78 2b       	or	r23, r24
    283e:	81 2f       	mov	r24, r17
    2840:	80 95       	com	r24
    2842:	cf db       	rcall	.-2146   	; 0x1fe2 <Cheat>
    2844:	88 23       	and	r24, r24
    2846:	19 f0       	breq	.+6      	; 0x284e <CheckInput+0x170>
    2848:	81 2f       	mov	r24, r17
    284a:	0e 94 c8 0a 	call	0x1590	; 0x1590 <UpdateState>
                }
                responseList = SetStandardResponse(0);
    284e:	80 e0       	ldi	r24, 0x00	; 0
    2850:	50 c0       	rjmp	.+160    	; 0x28f2 <CheckInput+0x214>
    2852:	d8 01       	movw	r26, r16
    2854:	80 e0       	ldi	r24, 0x00	; 0
    2856:	90 e0       	ldi	r25, 0x00	; 0
                return 1;            
            }
            
            //Read up to the \0 character and convert to lower case.
            for (uint8_t x=0; x<RXLEN; ++x){
                if ((serRx[x]<'A')||(serRx[x]>'Z')) data[x]=serRx[x]; else data[x]=serRx[x]|0x20;
    2858:	fc 01       	movw	r30, r24
    285a:	eb 58       	subi	r30, 0x8B	; 139
    285c:	f5 4c       	sbci	r31, 0xC5	; 197
    285e:	20 81       	ld	r18, Z
    2860:	21 34       	cpi	r18, 0x41	; 65
    2862:	18 f0       	brcs	.+6      	; 0x286a <CheckInput+0x18c>
    2864:	20 81       	ld	r18, Z
    2866:	2b 35       	cpi	r18, 0x5B	; 91
    2868:	10 f0       	brcs	.+4      	; 0x286e <CheckInput+0x190>
    286a:	20 81       	ld	r18, Z
    286c:	02 c0       	rjmp	.+4      	; 0x2872 <CheckInput+0x194>
    286e:	20 81       	ld	r18, Z
    2870:	20 62       	ori	r18, 0x20	; 32
    2872:	2c 93       	st	X, r18
                if (serRx[x] == 0) {
    2874:	20 81       	ld	r18, Z
    2876:	21 11       	cpse	r18, r1
    2878:	05 c0       	rjmp	.+10     	; 0x2884 <CheckInput+0x1a6>
                    data[x] = 0;
    287a:	f8 01       	movw	r30, r16
    287c:	e8 0f       	add	r30, r24
    287e:	f1 1d       	adc	r31, r1
    2880:	10 82       	st	Z, r1
                    break;
    2882:	05 c0       	rjmp	.+10     	; 0x288e <CheckInput+0x1b0>
    2884:	01 96       	adiw	r24, 0x01	; 1
    2886:	11 96       	adiw	r26, 0x01	; 1
                responseList = SetStandardResponse(0);
                return 1;            
            }
            
            //Read up to the \0 character and convert to lower case.
            for (uint8_t x=0; x<RXLEN; ++x){
    2888:	81 34       	cpi	r24, 0x41	; 65
    288a:	91 05       	cpc	r25, r1
    288c:	29 f7       	brne	.-54     	; 0x2858 <CheckInput+0x17a>
                    break;
                }
            }

            //No text
            if (serRx[0] == 0){
    288e:	80 91 75 3a 	lds	r24, 0x3A75	; 0x803a75 <serRx>
                data[0] = 0;
    2892:	f8 01       	movw	r30, r16
                    break;
                }
            }

            //No text
            if (serRx[0] == 0){
    2894:	81 11       	cpse	r24, r1
    2896:	05 c0       	rjmp	.+10     	; 0x28a2 <CheckInput+0x1c4>
                data[0] = 0;
    2898:	10 82       	st	Z, r1
                RXCNT = 0;
    289a:	1d ba       	out	0x1d, r1	; 29
                serRxDone = 0;
    289c:	10 92 44 38 	sts	0x3844, r1	; 0x803844 <serRxDone>
    28a0:	b5 c1       	rjmp	.+874    	; 0x2c0c <CheckInput+0x52e>
                return 1;
            }

            //Help text
            if ((data[0] == '?')||(data[0] == 'h')){
    28a2:	80 81       	ld	r24, Z
    28a4:	8f 33       	cpi	r24, 0x3F	; 63
    28a6:	11 f0       	breq	.+4      	; 0x28ac <CheckInput+0x1ce>
    28a8:	88 36       	cpi	r24, 0x68	; 104
    28aa:	39 f5       	brne	.+78     	; 0x28fa <CheckInput+0x21c>
    return 0;
}

//
void SetResponse(uint8_t number, uint16_t address, uint16_t length, uint8_t type){
    reactStr[0][number]=address;
    28ac:	8b e5       	ldi	r24, 0x5B	; 91
    28ae:	9a e7       	ldi	r25, 0x7A	; 122
    28b0:	80 93 1b 39 	sts	0x391B, r24	; 0x80391b <reactStr>
    28b4:	90 93 1c 39 	sts	0x391C, r25	; 0x80391c <reactStr+0x1>
    reactStr[1][number]=length;
    28b8:	84 e0       	ldi	r24, 0x04	; 4
    28ba:	90 e0       	ldi	r25, 0x00	; 0
    28bc:	80 93 5b 39 	sts	0x395B, r24	; 0x80395b <reactStr+0x40>
    28c0:	90 93 5c 39 	sts	0x395C, r25	; 0x80395c <reactStr+0x41>
    reactStr[2][number]=type;
    28c4:	81 e0       	ldi	r24, 0x01	; 1
    28c6:	90 e0       	ldi	r25, 0x00	; 0
    28c8:	80 93 9b 39 	sts	0x399B, r24	; 0x80399b <reactStr+0x80>
    28cc:	90 93 9c 39 	sts	0x399C, r25	; 0x80399c <reactStr+0x81>
    return 0;
}

//
void SetResponse(uint8_t number, uint16_t address, uint16_t length, uint8_t type){
    reactStr[0][number]=address;
    28d0:	23 e9       	ldi	r18, 0x93	; 147
    28d2:	3b e7       	ldi	r19, 0x7B	; 123
    28d4:	20 93 1d 39 	sts	0x391D, r18	; 0x80391d <reactStr+0x2>
    28d8:	30 93 1e 39 	sts	0x391E, r19	; 0x80391e <reactStr+0x3>
    reactStr[1][number]=length;
    28dc:	2d e6       	ldi	r18, 0x6D	; 109
    28de:	34 e0       	ldi	r19, 0x04	; 4
    28e0:	20 93 5d 39 	sts	0x395D, r18	; 0x80395d <reactStr+0x42>
    28e4:	30 93 5e 39 	sts	0x395E, r19	; 0x80395e <reactStr+0x43>
    reactStr[2][number]=type;
    28e8:	80 93 9d 39 	sts	0x399D, r24	; 0x80399d <reactStr+0x82>
    28ec:	90 93 9e 39 	sts	0x399E, r25	; 0x80399e <reactStr+0x83>

            //Help text
            if ((data[0] == '?')||(data[0] == 'h')){
                SetResponse(0, A_LF, 4, TEASER);
                SetResponse(1, A_HELP, L_HELP, TEASER);
                responseList = SetStandardResponse(2);
    28f0:	82 e0       	ldi	r24, 0x02	; 2
    28f2:	6e dc       	rcall	.-1828   	; 0x21d0 <SetStandardResponse>
    28f4:	80 93 1a 39 	sts	0x391A, r24	; 0x80391a <responseList>
    28f8:	89 c1       	rjmp	.+786    	; 0x2c0c <CheckInput+0x52e>
                return 1;
            }        
        
            //Alphabet text
            if (data[0] == 'a'){
    28fa:	81 36       	cpi	r24, 0x61	; 97
    28fc:	d9 f4       	brne	.+54     	; 0x2934 <CheckInput+0x256>
    return 0;
}

//
void SetResponse(uint8_t number, uint16_t address, uint16_t length, uint8_t type){
    reactStr[0][number]=address;
    28fe:	8b e5       	ldi	r24, 0x5B	; 91
    2900:	9a e7       	ldi	r25, 0x7A	; 122
    2902:	80 93 1b 39 	sts	0x391B, r24	; 0x80391b <reactStr>
    2906:	90 93 1c 39 	sts	0x391C, r25	; 0x80391c <reactStr+0x1>
    reactStr[1][number]=length;
    290a:	84 e0       	ldi	r24, 0x04	; 4
    290c:	90 e0       	ldi	r25, 0x00	; 0
    290e:	80 93 5b 39 	sts	0x395B, r24	; 0x80395b <reactStr+0x40>
    2912:	90 93 5c 39 	sts	0x395C, r25	; 0x80395c <reactStr+0x41>
    reactStr[2][number]=type;
    2916:	81 e0       	ldi	r24, 0x01	; 1
    2918:	90 e0       	ldi	r25, 0x00	; 0
    291a:	80 93 9b 39 	sts	0x399B, r24	; 0x80399b <reactStr+0x80>
    291e:	90 93 9c 39 	sts	0x399C, r25	; 0x80399c <reactStr+0x81>
    return 0;
}

//
void SetResponse(uint8_t number, uint16_t address, uint16_t length, uint8_t type){
    reactStr[0][number]=address;
    2922:	2e e6       	ldi	r18, 0x6E	; 110
    2924:	3a e7       	ldi	r19, 0x7A	; 122
    2926:	20 93 1d 39 	sts	0x391D, r18	; 0x80391d <reactStr+0x2>
    292a:	30 93 1e 39 	sts	0x391E, r19	; 0x80391e <reactStr+0x3>
    reactStr[1][number]=length;
    292e:	25 e2       	ldi	r18, 0x25	; 37
    2930:	31 e0       	ldi	r19, 0x01	; 1
    2932:	d6 cf       	rjmp	.-84     	; 0x28e0 <CheckInput+0x202>
                responseList = SetStandardResponse(2);
                return 1;
            }

            //Whoami text
            if (data[0] == 'w'){
    2934:	87 37       	cpi	r24, 0x77	; 119
    2936:	09 f0       	breq	.+2      	; 0x293a <CheckInput+0x25c>
    2938:	6e c0       	rjmp	.+220    	; 0x2a16 <CheckInput+0x338>
    return 0;
}

//
void SetResponse(uint8_t number, uint16_t address, uint16_t length, uint8_t type){
    reactStr[0][number]=address;
    293a:	8b e5       	ldi	r24, 0x5B	; 91
    293c:	9a e7       	ldi	r25, 0x7A	; 122
    293e:	80 93 1b 39 	sts	0x391B, r24	; 0x80391b <reactStr>
    2942:	90 93 1c 39 	sts	0x391C, r25	; 0x80391c <reactStr+0x1>
    reactStr[1][number]=length;
    2946:	84 e0       	ldi	r24, 0x04	; 4
    2948:	90 e0       	ldi	r25, 0x00	; 0
    294a:	80 93 5b 39 	sts	0x395B, r24	; 0x80395b <reactStr+0x40>
    294e:	90 93 5c 39 	sts	0x395C, r25	; 0x80395c <reactStr+0x41>
    reactStr[2][number]=type;
    2952:	21 e0       	ldi	r18, 0x01	; 1
    2954:	30 e0       	ldi	r19, 0x00	; 0
    2956:	20 93 9b 39 	sts	0x399B, r18	; 0x80399b <reactStr+0x80>
    295a:	30 93 9c 39 	sts	0x399C, r19	; 0x80399c <reactStr+0x81>
    return 0;
}

//
void SetResponse(uint8_t number, uint16_t address, uint16_t length, uint8_t type){
    reactStr[0][number]=address;
    295e:	8a ec       	ldi	r24, 0xCA	; 202
    2960:	96 e7       	ldi	r25, 0x76	; 118
    2962:	80 93 1d 39 	sts	0x391D, r24	; 0x80391d <reactStr+0x2>
    2966:	90 93 1e 39 	sts	0x391E, r25	; 0x80391e <reactStr+0x3>
    reactStr[1][number]=length;
    296a:	82 e1       	ldi	r24, 0x12	; 18
    296c:	90 e0       	ldi	r25, 0x00	; 0
    296e:	80 93 5d 39 	sts	0x395D, r24	; 0x80395d <reactStr+0x42>
    2972:	90 93 5e 39 	sts	0x395E, r25	; 0x80395e <reactStr+0x43>
    reactStr[2][number]=type;
    2976:	20 93 9d 39 	sts	0x399D, r18	; 0x80399d <reactStr+0x82>
    297a:	30 93 9e 39 	sts	0x399E, r19	; 0x80399e <reactStr+0x83>

            //Whoami text
            if (data[0] == 'w'){
                SetResponse(0, A_LF, 4, TEASER);
                SetResponse(1, A_HELLO, L_HELLO, TEASER);
                if (whoami == 1) {
    297e:	80 91 3d 38 	lds	r24, 0x383D	; 0x80383d <whoami>
    2982:	81 30       	cpi	r24, 0x01	; 1
    2984:	19 f4       	brne	.+6      	; 0x298c <CheckInput+0x2ae>
    return 0;
}

//
void SetResponse(uint8_t number, uint16_t address, uint16_t length, uint8_t type){
    reactStr[0][number]=address;
    2986:	84 ec       	ldi	r24, 0xC4	; 196
    2988:	96 e7       	ldi	r25, 0x76	; 118
    298a:	0f c0       	rjmp	.+30     	; 0x29aa <CheckInput+0x2cc>
            if (data[0] == 'w'){
                SetResponse(0, A_LF, 4, TEASER);
                SetResponse(1, A_HELLO, L_HELLO, TEASER);
                if (whoami == 1) {
                    SetResponse(2, A_ANUBIS, L_ANUBIS, TEASER);
                } else if (whoami == 2) {
    298c:	82 30       	cpi	r24, 0x02	; 2
    298e:	49 f4       	brne	.+18     	; 0x29a2 <CheckInput+0x2c4>
    return 0;
}

//
void SetResponse(uint8_t number, uint16_t address, uint16_t length, uint8_t type){
    reactStr[0][number]=address;
    2990:	81 ec       	ldi	r24, 0xC1	; 193
    2992:	96 e7       	ldi	r25, 0x76	; 118
    2994:	80 93 1f 39 	sts	0x391F, r24	; 0x80391f <reactStr+0x4>
    2998:	90 93 20 39 	sts	0x3920, r25	; 0x803920 <reactStr+0x5>
    reactStr[1][number]=length;
    299c:	83 e0       	ldi	r24, 0x03	; 3
    299e:	90 e0       	ldi	r25, 0x00	; 0
    29a0:	1e c0       	rjmp	.+60     	; 0x29de <CheckInput+0x300>
                SetResponse(1, A_HELLO, L_HELLO, TEASER);
                if (whoami == 1) {
                    SetResponse(2, A_ANUBIS, L_ANUBIS, TEASER);
                } else if (whoami == 2) {
                    SetResponse(2, A_BES, L_BES, TEASER);
                } else if (whoami == 3) {
    29a2:	83 30       	cpi	r24, 0x03	; 3
    29a4:	49 f4       	brne	.+18     	; 0x29b8 <CheckInput+0x2da>
    return 0;
}

//
void SetResponse(uint8_t number, uint16_t address, uint16_t length, uint8_t type){
    reactStr[0][number]=address;
    29a6:	8b eb       	ldi	r24, 0xBB	; 187
    29a8:	96 e7       	ldi	r25, 0x76	; 118
    29aa:	80 93 1f 39 	sts	0x391F, r24	; 0x80391f <reactStr+0x4>
    29ae:	90 93 20 39 	sts	0x3920, r25	; 0x803920 <reactStr+0x5>
    reactStr[1][number]=length;
    29b2:	86 e0       	ldi	r24, 0x06	; 6
    29b4:	90 e0       	ldi	r25, 0x00	; 0
    29b6:	13 c0       	rjmp	.+38     	; 0x29de <CheckInput+0x300>
                    SetResponse(2, A_ANUBIS, L_ANUBIS, TEASER);
                } else if (whoami == 2) {
                    SetResponse(2, A_BES, L_BES, TEASER);
                } else if (whoami == 3) {
                    SetResponse(2, A_KHONSU, L_KHONSU, TEASER);
                } else if (whoami == 4) {
    29b8:	84 30       	cpi	r24, 0x04	; 4
    29ba:	49 f4       	brne	.+18     	; 0x29ce <CheckInput+0x2f0>
    return 0;
}

//
void SetResponse(uint8_t number, uint16_t address, uint16_t length, uint8_t type){
    reactStr[0][number]=address;
    29bc:	86 eb       	ldi	r24, 0xB6	; 182
    29be:	96 e7       	ldi	r25, 0x76	; 118
    29c0:	80 93 1f 39 	sts	0x391F, r24	; 0x80391f <reactStr+0x4>
    29c4:	90 93 20 39 	sts	0x3920, r25	; 0x803920 <reactStr+0x5>
    reactStr[1][number]=length;
    29c8:	85 e0       	ldi	r24, 0x05	; 5
    29ca:	90 e0       	ldi	r25, 0x00	; 0
    29cc:	08 c0       	rjmp	.+16     	; 0x29de <CheckInput+0x300>
    return 0;
}

//
void SetResponse(uint8_t number, uint16_t address, uint16_t length, uint8_t type){
    reactStr[0][number]=address;
    29ce:	8f e3       	ldi	r24, 0x3F	; 63
    29d0:	96 e7       	ldi	r25, 0x76	; 118
    29d2:	80 93 1f 39 	sts	0x391F, r24	; 0x80391f <reactStr+0x4>
    29d6:	90 93 20 39 	sts	0x3920, r25	; 0x803920 <reactStr+0x5>
    reactStr[1][number]=length;
    29da:	82 e4       	ldi	r24, 0x42	; 66
    29dc:	90 e0       	ldi	r25, 0x00	; 0
    29de:	80 93 5f 39 	sts	0x395F, r24	; 0x80395f <reactStr+0x44>
    29e2:	90 93 60 39 	sts	0x3960, r25	; 0x803960 <reactStr+0x45>
    reactStr[2][number]=type;
    29e6:	20 93 9f 39 	sts	0x399F, r18	; 0x80399f <reactStr+0x84>
    29ea:	30 93 a0 39 	sts	0x39A0, r19	; 0x8039a0 <reactStr+0x85>
    return 0;
}

//
void SetResponse(uint8_t number, uint16_t address, uint16_t length, uint8_t type){
    reactStr[0][number]=address;
    29ee:	8c e9       	ldi	r24, 0x9C	; 156
    29f0:	96 e7       	ldi	r25, 0x76	; 118
    29f2:	80 93 21 39 	sts	0x3921, r24	; 0x803921 <reactStr+0x6>
    29f6:	90 93 22 39 	sts	0x3922, r25	; 0x803922 <reactStr+0x7>
    reactStr[1][number]=length;
    29fa:	8a e1       	ldi	r24, 0x1A	; 26
    29fc:	90 e0       	ldi	r25, 0x00	; 0
    29fe:	80 93 61 39 	sts	0x3961, r24	; 0x803961 <reactStr+0x46>
    2a02:	90 93 62 39 	sts	0x3962, r25	; 0x803962 <reactStr+0x47>
    reactStr[2][number]=type;
    2a06:	81 e0       	ldi	r24, 0x01	; 1
    2a08:	90 e0       	ldi	r25, 0x00	; 0
    2a0a:	80 93 a1 39 	sts	0x39A1, r24	; 0x8039a1 <reactStr+0x86>
    2a0e:	90 93 a2 39 	sts	0x39A2, r25	; 0x8039a2 <reactStr+0x87>
                    SetResponse(2, A_THOTH, L_THOTH, TEASER);
                } else {
                    SetResponse(2, A_ERROR, L_ERROR, TEASER);
                }
                SetResponse(3, A_PLEASED, L_PLEASED, TEASER);
                responseList = SetStandardResponse(4);
    2a12:	84 e0       	ldi	r24, 0x04	; 4
    2a14:	6e cf       	rjmp	.-292    	; 0x28f2 <CheckInput+0x214>
                return 1;
            }

            //Quit text
            if (data[0] == 'q'){
    2a16:	81 37       	cpi	r24, 0x71	; 113
    2a18:	d9 f4       	brne	.+54     	; 0x2a50 <CheckInput+0x372>
    return 0;
}

//
void SetResponse(uint8_t number, uint16_t address, uint16_t length, uint8_t type){
    reactStr[0][number]=address;
    2a1a:	8b e5       	ldi	r24, 0x5B	; 91
    2a1c:	9a e7       	ldi	r25, 0x7A	; 122
    2a1e:	80 93 1b 39 	sts	0x391B, r24	; 0x80391b <reactStr>
    2a22:	90 93 1c 39 	sts	0x391C, r25	; 0x80391c <reactStr+0x1>
    reactStr[1][number]=length;
    2a26:	84 e0       	ldi	r24, 0x04	; 4
    2a28:	90 e0       	ldi	r25, 0x00	; 0
    2a2a:	80 93 5b 39 	sts	0x395B, r24	; 0x80395b <reactStr+0x40>
    2a2e:	90 93 5c 39 	sts	0x395C, r25	; 0x80395c <reactStr+0x41>
    reactStr[2][number]=type;
    2a32:	81 e0       	ldi	r24, 0x01	; 1
    2a34:	90 e0       	ldi	r25, 0x00	; 0
    2a36:	80 93 9b 39 	sts	0x399B, r24	; 0x80399b <reactStr+0x80>
    2a3a:	90 93 9c 39 	sts	0x399C, r25	; 0x80399c <reactStr+0x81>
    return 0;
}

//
void SetResponse(uint8_t number, uint16_t address, uint16_t length, uint8_t type){
    reactStr[0][number]=address;
    2a3e:	22 e0       	ldi	r18, 0x02	; 2
    2a40:	3a e7       	ldi	r19, 0x7A	; 122
    2a42:	20 93 1d 39 	sts	0x391D, r18	; 0x80391d <reactStr+0x2>
    2a46:	30 93 1e 39 	sts	0x391E, r19	; 0x80391e <reactStr+0x3>
    reactStr[1][number]=length;
    2a4a:	25 e5       	ldi	r18, 0x55	; 85
    2a4c:	30 e0       	ldi	r19, 0x00	; 0
                responseList = SetStandardResponse(2);
                return 1;
            }

            //Fake cheat = reset badge!
            if (StartsWith(&data[0], "iddqd")){
    2a4e:	48 cf       	rjmp	.-368    	; 0x28e0 <CheckInput+0x202>
    2a50:	6a e4       	ldi	r22, 0x4A	; 74
    2a52:	70 ec       	ldi	r23, 0xC0	; 192
    2a54:	c8 01       	movw	r24, r16
    2a56:	65 db       	rcall	.-2358   	; 0x2122 <StartsWith>
    2a58:	88 23       	and	r24, r24
    2a5a:	f9 f0       	breq	.+62     	; 0x2a9a <CheckInput+0x3bc>
    2a5c:	1e e6       	ldi	r17, 0x6E	; 110
            
                //Reset game data by wiping the UUID bits
                for (uint8_t x=0; x<4; ++x){
                    WriteStatusBit(110+x, 0);
    2a5e:	60 e0       	ldi	r22, 0x00	; 0
    2a60:	81 2f       	mov	r24, r17
    2a62:	0e 94 ae 0a 	call	0x155c	; 0x155c <WriteStatusBit>
    2a66:	1f 5f       	subi	r17, 0xFF	; 255

            //Fake cheat = reset badge!
            if (StartsWith(&data[0], "iddqd")){
            
                //Reset game data by wiping the UUID bits
                for (uint8_t x=0; x<4; ++x){
    2a68:	12 37       	cpi	r17, 0x72	; 114
    2a6a:	c9 f7       	brne	.-14     	; 0x2a5e <CheckInput+0x380>
                    WriteStatusBit(110+x, 0);
                }
                SaveGameState();
    2a6c:	0e 94 27 0a 	call	0x144e	; 0x144e <SaveGameState>

                uint8_t cheat[] = "Cheater! Contact badge team... ";
    2a70:	80 e2       	ldi	r24, 0x20	; 32
    2a72:	ed e8       	ldi	r30, 0x8D	; 141
    2a74:	f0 ec       	ldi	r31, 0xC0	; 192
    2a76:	de 01       	movw	r26, r28
    2a78:	11 96       	adiw	r26, 0x01	; 1
    2a7a:	01 90       	ld	r0, Z+
    2a7c:	0d 92       	st	X+, r0
    2a7e:	8a 95       	dec	r24
    2a80:	e1 f7       	brne	.-8      	; 0x2a7a <CheckInput+0x39c>
                SerSpeed(60);
    2a82:	8c e3       	ldi	r24, 0x3C	; 60
    2a84:	0e 94 19 09 	call	0x1232	; 0x1232 <SerSpeed>
                while(1){
                    if (serTxDone) SerSend(&cheat[0]);
    2a88:	80 91 0a 38 	lds	r24, 0x380A	; 0x80380a <serTxDone>
    2a8c:	88 23       	and	r24, r24
    2a8e:	e1 f3       	breq	.-8      	; 0x2a88 <CheckInput+0x3aa>
    2a90:	ce 01       	movw	r24, r28
    2a92:	01 96       	adiw	r24, 0x01	; 1
    2a94:	0e 94 08 09 	call	0x1210	; 0x1210 <SerSend>
                }
            }
            
            //Cheat reset (Quote from: Donald E. Westlake)
            if (StartsWith(&data[0], "the trouble with real life is, there's no reset button")){
    2a98:	f7 cf       	rjmp	.-18     	; 0x2a88 <CheckInput+0x3aa>
    2a9a:	60 e5       	ldi	r22, 0x50	; 80
    2a9c:	70 ec       	ldi	r23, 0xC0	; 192
    2a9e:	c8 01       	movw	r24, r16
    2aa0:	40 db       	rcall	.-2432   	; 0x2122 <StartsWith>
    2aa2:	88 23       	and	r24, r24
    2aa4:	61 f1       	breq	.+88     	; 0x2afe <CheckInput+0x420>
                
                //Reset cheat data by resetting the EEPROM bytes
                uint8_t empty=0xff;
    2aa6:	8f ef       	ldi	r24, 0xFF	; 255
    2aa8:	89 a3       	std	Y+33, r24	; 0x21
    2aaa:	18 e1       	ldi	r17, 0x18	; 24
                for (uint8_t x=0; x<MAX_CHEATS; ++x){
                    EEWrite(CHEATS+x, &empty, 1);
    2aac:	41 e0       	ldi	r20, 0x01	; 1
    2aae:	be 01       	movw	r22, r28
    2ab0:	6f 5d       	subi	r22, 0xDF	; 223
    2ab2:	7f 4f       	sbci	r23, 0xFF	; 255
    2ab4:	81 2f       	mov	r24, r17
    2ab6:	0e 94 e0 08 	call	0x11c0	; 0x11c0 <EEWrite>
    2aba:	1f 5f       	subi	r17, 0xFF	; 255
            //Cheat reset (Quote from: Donald E. Westlake)
            if (StartsWith(&data[0], "the trouble with real life is, there's no reset button")){
                
                //Reset cheat data by resetting the EEPROM bytes
                uint8_t empty=0xff;
                for (uint8_t x=0; x<MAX_CHEATS; ++x){
    2abc:	10 32       	cpi	r17, 0x20	; 32
    2abe:	b1 f7       	brne	.-20     	; 0x2aac <CheckInput+0x3ce>
    2ac0:	1e e6       	ldi	r17, 0x6E	; 110
                    EEWrite(CHEATS+x, &empty, 1);
                }
                //Reset game data by wiping the UUID bits
                for (uint8_t x=0; x<4; ++x){
                    WriteStatusBit(110+x, 0);
    2ac2:	60 e0       	ldi	r22, 0x00	; 0
    2ac4:	81 2f       	mov	r24, r17
    2ac6:	0e 94 ae 0a 	call	0x155c	; 0x155c <WriteStatusBit>
    2aca:	1f 5f       	subi	r17, 0xFF	; 255
                uint8_t empty=0xff;
                for (uint8_t x=0; x<MAX_CHEATS; ++x){
                    EEWrite(CHEATS+x, &empty, 1);
                }
                //Reset game data by wiping the UUID bits
                for (uint8_t x=0; x<4; ++x){
    2acc:	12 37       	cpi	r17, 0x72	; 114
    2ace:	c9 f7       	brne	.-14     	; 0x2ac2 <CheckInput+0x3e4>
                    WriteStatusBit(110+x, 0);
                }
                
                SaveGameState();
    2ad0:	0e 94 27 0a 	call	0x144e	; 0x144e <SaveGameState>

                uint8_t cheat[] = "Reset please! ";
    2ad4:	8f e0       	ldi	r24, 0x0F	; 15
    2ad6:	ed ea       	ldi	r30, 0xAD	; 173
    2ad8:	f0 ec       	ldi	r31, 0xC0	; 192
    2ada:	de 01       	movw	r26, r28
    2adc:	11 96       	adiw	r26, 0x01	; 1
    2ade:	01 90       	ld	r0, Z+
    2ae0:	0d 92       	st	X+, r0
    2ae2:	8a 95       	dec	r24
    2ae4:	e1 f7       	brne	.-8      	; 0x2ade <CheckInput+0x400>
                SerSpeed(60);
    2ae6:	8c e3       	ldi	r24, 0x3C	; 60
    2ae8:	0e 94 19 09 	call	0x1232	; 0x1232 <SerSpeed>
                while(1){
                    if (serTxDone) SerSend(&cheat[0]);
    2aec:	80 91 0a 38 	lds	r24, 0x380A	; 0x80380a <serTxDone>
    2af0:	88 23       	and	r24, r24
    2af2:	e1 f3       	breq	.-8      	; 0x2aec <CheckInput+0x40e>
    2af4:	ce 01       	movw	r24, r28
    2af6:	01 96       	adiw	r24, 0x01	; 1
    2af8:	0e 94 08 09 	call	0x1210	; 0x1210 <SerSend>
                }
            }
            if (StartsWith(&data[0], "cheat")){
    2afc:	f7 cf       	rjmp	.-18     	; 0x2aec <CheckInput+0x40e>
    2afe:	67 e8       	ldi	r22, 0x87	; 135
    2b00:	70 ec       	ldi	r23, 0xC0	; 192
    2b02:	c8 01       	movw	r24, r16
    2b04:	0e db       	rcall	.-2532   	; 0x2122 <StartsWith>
    2b06:	88 23       	and	r24, r24
    2b08:	09 f4       	brne	.+2      	; 0x2b0c <CheckInput+0x42e>
    2b0a:	2c ce       	rjmp	.-936    	; 0x2764 <CheckInput+0x86>
    2b0c:	8b e1       	ldi	r24, 0x1B	; 27
    2b0e:	c8 2e       	mov	r12, r24
    2b10:	89 e3       	ldi	r24, 0x39	; 57
    2b12:	d8 2e       	mov	r13, r24
    2b14:	9b e5       	ldi	r25, 0x5B	; 91
    2b16:	e9 2e       	mov	r14, r25
    2b18:	99 e3       	ldi	r25, 0x39	; 57
    2b1a:	f9 2e       	mov	r15, r25
    2b1c:	0b e9       	ldi	r16, 0x9B	; 155
    2b1e:	19 e3       	ldi	r17, 0x39	; 57
    2b20:	28 e1       	ldi	r18, 0x18	; 24
    2b22:	32 2e       	mov	r3, r18
    return 0;
}

//
void SetResponse(uint8_t number, uint16_t address, uint16_t length, uint8_t type){
    reactStr[0][number]=address;
    2b24:	3a ed       	ldi	r19, 0xDA	; 218
    2b26:	63 2e       	mov	r6, r19
    2b28:	34 e7       	ldi	r19, 0x74	; 116
    2b2a:	73 2e       	mov	r7, r19
    reactStr[1][number]=length;
    2b2c:	42 e0       	ldi	r20, 0x02	; 2
    2b2e:	84 2e       	mov	r8, r20
    2b30:	91 2c       	mov	r9, r1
    reactStr[2][number]=type;
    2b32:	aa 24       	eor	r10, r10
    2b34:	a3 94       	inc	r10
    2b36:	b1 2c       	mov	r11, r1
    return 0;
}

//
void SetResponse(uint8_t number, uint16_t address, uint16_t length, uint8_t type){
    reactStr[0][number]=address;
    2b38:	69 e5       	ldi	r22, 0x59	; 89
    2b3a:	46 2e       	mov	r4, r22
    2b3c:	6a e7       	ldi	r22, 0x7A	; 122
    2b3e:	56 2e       	mov	r5, r22
                uint8_t bit, digit[3];

                for (uint8_t x=0; x<MAX_CHEATS; ++x){
                    
                    //Set up sending out number
                    EERead(CHEATS+x, &bit, 1);
    2b40:	41 e0       	ldi	r20, 0x01	; 1
    2b42:	be 01       	movw	r22, r28
    2b44:	6f 5d       	subi	r22, 0xDF	; 223
    2b46:	7f 4f       	sbci	r23, 0xFF	; 255
    2b48:	83 2d       	mov	r24, r3
    2b4a:	0e 94 d0 08 	call	0x11a0	; 0x11a0 <EERead>
                    bit = 0xff-bit;
    2b4e:	89 a1       	ldd	r24, Y+33	; 0x21
    2b50:	80 95       	com	r24
    2b52:	89 a3       	std	Y+33, r24	; 0x21
    return 0;
}

//
void SetResponse(uint8_t number, uint16_t address, uint16_t length, uint8_t type){
    reactStr[0][number]=address;
    2b54:	f6 01       	movw	r30, r12
    2b56:	60 82       	st	Z, r6
    2b58:	71 82       	std	Z+1, r7	; 0x01
    reactStr[1][number]=length;
    2b5a:	f7 01       	movw	r30, r14
    2b5c:	80 82       	st	Z, r8
    2b5e:	91 82       	std	Z+1, r9	; 0x01
    reactStr[2][number]=type;
    2b60:	f8 01       	movw	r30, r16
    2b62:	a0 82       	st	Z, r10
    2b64:	b1 82       	std	Z+1, r11	; 0x01
                    for (n=0; n<3; ++n) {
                        SetResponse(x*4+n, A_DIGITS+digit[n], 1, TEASER);
                    } 
                    */
                    SetResponse(x*4, A_HEXPREFIX, L_HEXPREFIX, TEASER);
                    SetResponse(x*4+1, A_DIGITS+digit[bit>>4], 1, TEASER);               
    2b66:	98 2f       	mov	r25, r24
    2b68:	92 95       	swap	r25
    2b6a:	9f 70       	andi	r25, 0x0F	; 15
    2b6c:	e1 e0       	ldi	r30, 0x01	; 1
    2b6e:	f0 e0       	ldi	r31, 0x00	; 0
    2b70:	ec 0f       	add	r30, r28
    2b72:	fd 1f       	adc	r31, r29
    2b74:	e9 0f       	add	r30, r25
    2b76:	f1 1d       	adc	r31, r1
    return 0;
}

//
void SetResponse(uint8_t number, uint16_t address, uint16_t length, uint8_t type){
    reactStr[0][number]=address;
    2b78:	20 81       	ld	r18, Z
    2b7a:	30 e0       	ldi	r19, 0x00	; 0
    2b7c:	26 53       	subi	r18, 0x36	; 54
    2b7e:	3b 48       	sbci	r19, 0x8B	; 139
    2b80:	f6 01       	movw	r30, r12
    2b82:	22 83       	std	Z+2, r18	; 0x02
    2b84:	33 83       	std	Z+3, r19	; 0x03
    reactStr[1][number]=length;
    2b86:	f7 01       	movw	r30, r14
    2b88:	a2 82       	std	Z+2, r10	; 0x02
    2b8a:	b3 82       	std	Z+3, r11	; 0x03
    reactStr[2][number]=type;
    2b8c:	f8 01       	movw	r30, r16
    2b8e:	a2 82       	std	Z+2, r10	; 0x02
    2b90:	b3 82       	std	Z+3, r11	; 0x03
                        SetResponse(x*4+n, A_DIGITS+digit[n], 1, TEASER);
                    } 
                    */
                    SetResponse(x*4, A_HEXPREFIX, L_HEXPREFIX, TEASER);
                    SetResponse(x*4+1, A_DIGITS+digit[bit>>4], 1, TEASER);               
                    SetResponse(x*4+2, A_DIGITS+digit[bit%16], 1, TEASER);
    2b92:	8f 70       	andi	r24, 0x0F	; 15
    2b94:	e1 e0       	ldi	r30, 0x01	; 1
    2b96:	f0 e0       	ldi	r31, 0x00	; 0
    2b98:	ec 0f       	add	r30, r28
    2b9a:	fd 1f       	adc	r31, r29
    2b9c:	e8 0f       	add	r30, r24
    2b9e:	f1 1d       	adc	r31, r1
    return 0;
}

//
void SetResponse(uint8_t number, uint16_t address, uint16_t length, uint8_t type){
    reactStr[0][number]=address;
    2ba0:	80 81       	ld	r24, Z
    2ba2:	90 e0       	ldi	r25, 0x00	; 0
    2ba4:	86 53       	subi	r24, 0x36	; 54
    2ba6:	9b 48       	sbci	r25, 0x8B	; 139
    2ba8:	f6 01       	movw	r30, r12
    2baa:	84 83       	std	Z+4, r24	; 0x04
    2bac:	95 83       	std	Z+5, r25	; 0x05
    reactStr[1][number]=length;
    2bae:	f7 01       	movw	r30, r14
    2bb0:	a4 82       	std	Z+4, r10	; 0x04
    2bb2:	b5 82       	std	Z+5, r11	; 0x05
    reactStr[2][number]=type;
    2bb4:	f8 01       	movw	r30, r16
    2bb6:	a4 82       	std	Z+4, r10	; 0x04
    2bb8:	b5 82       	std	Z+5, r11	; 0x05
    return 0;
}

//
void SetResponse(uint8_t number, uint16_t address, uint16_t length, uint8_t type){
    reactStr[0][number]=address;
    2bba:	f6 01       	movw	r30, r12
    2bbc:	46 82       	std	Z+6, r4	; 0x06
    2bbe:	57 82       	std	Z+7, r5	; 0x07
    reactStr[1][number]=length;
    2bc0:	f7 01       	movw	r30, r14
    2bc2:	86 82       	std	Z+6, r8	; 0x06
    2bc4:	97 82       	std	Z+7, r9	; 0x07
    reactStr[2][number]=type;
    2bc6:	f8 01       	movw	r30, r16
    2bc8:	a6 82       	std	Z+6, r10	; 0x06
    2bca:	b7 82       	std	Z+7, r11	; 0x07
    2bcc:	33 94       	inc	r3
    2bce:	f8 e0       	ldi	r31, 0x08	; 8
    2bd0:	cf 0e       	add	r12, r31
    2bd2:	d1 1c       	adc	r13, r1
    2bd4:	88 e0       	ldi	r24, 0x08	; 8
    2bd6:	e8 0e       	add	r14, r24
    2bd8:	f1 1c       	adc	r15, r1
    2bda:	08 5f       	subi	r16, 0xF8	; 248
    2bdc:	1f 4f       	sbci	r17, 0xFF	; 255
            }
            if (StartsWith(&data[0], "cheat")){
                //int8_t n;
                uint8_t bit, digit[3];

                for (uint8_t x=0; x<MAX_CHEATS; ++x){
    2bde:	e0 e2       	ldi	r30, 0x20	; 32
    2be0:	3e 12       	cpse	r3, r30
    2be2:	ae cf       	rjmp	.-164    	; 0x2b40 <CheckInput+0x462>
    return 0;
}

//
void SetResponse(uint8_t number, uint16_t address, uint16_t length, uint8_t type){
    reactStr[0][number]=address;
    2be4:	8b e5       	ldi	r24, 0x5B	; 91
    2be6:	9a e7       	ldi	r25, 0x7A	; 122
    2be8:	80 93 59 39 	sts	0x3959, r24	; 0x803959 <reactStr+0x3e>
    2bec:	90 93 5a 39 	sts	0x395A, r25	; 0x80395a <reactStr+0x3f>
    reactStr[1][number]=length;
    2bf0:	84 e0       	ldi	r24, 0x04	; 4
    2bf2:	90 e0       	ldi	r25, 0x00	; 0
    2bf4:	80 93 99 39 	sts	0x3999, r24	; 0x803999 <reactStr+0x7e>
    2bf8:	90 93 9a 39 	sts	0x399A, r25	; 0x80399a <reactStr+0x7f>
    reactStr[2][number]=type;
    2bfc:	81 e0       	ldi	r24, 0x01	; 1
    2bfe:	90 e0       	ldi	r25, 0x00	; 0
    2c00:	80 93 d9 39 	sts	0x39D9, r24	; 0x8039d9 <reactStr+0xbe>
    2c04:	90 93 da 39 	sts	0x39DA, r25	; 0x8039da <reactStr+0xbf>
                    SetResponse(x*4+1, A_DIGITS+digit[bit>>4], 1, TEASER);               
                    SetResponse(x*4+2, A_DIGITS+digit[bit%16], 1, TEASER);
                    SetResponse(x*4+3, A_COMMA, L_COMMA, TEASER);
                }
                SetResponse((4*MAX_CHEATS)-1, A_LF, 4, TEASER);
                responseList = 32;
    2c08:	30 92 1a 39 	sts	0x391A, r3	; 0x80391a <responseList>
        //Data received, but not any of the commands above
        return 0;
    }

    //Serial input not available yet
    return 1;
    2c0c:	ff 24       	eor	r15, r15
    2c0e:	f3 94       	inc	r15
}
    2c10:	8f 2d       	mov	r24, r15
    2c12:	a1 96       	adiw	r28, 0x21	; 33
    2c14:	cd bf       	out	0x3d, r28	; 61
    2c16:	de bf       	out	0x3e, r29	; 62
    2c18:	df 91       	pop	r29
    2c1a:	cf 91       	pop	r28
    2c1c:	1f 91       	pop	r17
    2c1e:	0f 91       	pop	r16
    2c20:	ff 90       	pop	r15
    2c22:	ef 90       	pop	r14
    2c24:	df 90       	pop	r13
    2c26:	cf 90       	pop	r12
    2c28:	bf 90       	pop	r11
    2c2a:	af 90       	pop	r10
    2c2c:	9f 90       	pop	r9
    2c2e:	8f 90       	pop	r8
    2c30:	7f 90       	pop	r7
    2c32:	6f 90       	pop	r6
    2c34:	5f 90       	pop	r5
    2c36:	4f 90       	pop	r4
    2c38:	3f 90       	pop	r3
    2c3a:	08 95       	ret

00002c3c <ProcessInput>:

//The game logic!
uint8_t ProcessInput(uint8_t *data){
    2c3c:	5f 92       	push	r5
    2c3e:	6f 92       	push	r6
    2c40:	7f 92       	push	r7
    2c42:	8f 92       	push	r8
    2c44:	9f 92       	push	r9
    2c46:	af 92       	push	r10
    2c48:	bf 92       	push	r11
    2c4a:	cf 92       	push	r12
    2c4c:	df 92       	push	r13
    2c4e:	ef 92       	push	r14
    2c50:	ff 92       	push	r15
    2c52:	0f 93       	push	r16
    2c54:	1f 93       	push	r17
    2c56:	cf 93       	push	r28
    2c58:	df 93       	push	r29
    2c5a:	cd b7       	in	r28, 0x3d	; 61
    2c5c:	de b7       	in	r29, 0x3e	; 62
    2c5e:	28 97       	sbiw	r28, 0x08	; 8
    2c60:	cd bf       	out	0x3d, r28	; 61
    2c62:	de bf       	out	0x3e, r29	; 62
    2c64:	8c 01       	movw	r16, r24
    static object_model_t actObj1, actObj2;
    uint8_t elements = 1;

    CleanInput(&data[0]);
    2c66:	63 dc       	rcall	.-1850   	; 0x252e <CleanInput>
    uint8_t inputLen = CleanInput(&data[0]);
    2c68:	c8 01       	movw	r24, r16
    2c6a:	61 dc       	rcall	.-1854   	; 0x252e <CleanInput>
    2c6c:	f8 2e       	mov	r15, r24

    if (inputLen) {
    2c6e:	88 23       	and	r24, r24
    2c70:	09 f4       	brne	.+2      	; 0x2c74 <ProcessInput+0x38>
    2c72:	fc c7       	rjmp	.+4088   	; 0x3c6c <ProcessInput+0x1030>

        //eXit to previous location
        if (data[0] == 'x'){
    2c74:	d8 01       	movw	r26, r16
    2c76:	8c 91       	ld	r24, X
    2c78:	88 37       	cpi	r24, 0x78	; 120
    2c7a:	09 f0       	breq	.+2      	; 0x2c7e <ProcessInput+0x42>
    2c7c:	45 c0       	rjmp	.+138    	; 0x2d08 <ProcessInput+0xcc>

            //Standing in the Lobby?
            if ((route[currDepth] == 0)||(currDepth == 0)){
    2c7e:	80 91 2c 38 	lds	r24, 0x382C	; 0x80382c <currDepth>
    2c82:	e8 2f       	mov	r30, r24
    2c84:	f0 e0       	ldi	r31, 0x00	; 0
    2c86:	ee 0f       	add	r30, r30
    2c88:	ff 1f       	adc	r31, r31
    2c8a:	e5 52       	subi	r30, 0x25	; 37
    2c8c:	f6 4c       	sbci	r31, 0xC6	; 198
    2c8e:	20 81       	ld	r18, Z
    2c90:	31 81       	ldd	r19, Z+1	; 0x01
    2c92:	23 2b       	or	r18, r19
    2c94:	11 f0       	breq	.+4      	; 0x2c9a <ProcessInput+0x5e>
    2c96:	81 11       	cpse	r24, r1
    2c98:	03 c0       	rjmp	.+6      	; 0x2ca0 <ProcessInput+0x64>
    return 0;
}

//
void SetResponse(uint8_t number, uint16_t address, uint16_t length, uint8_t type){
    reactStr[0][number]=address;
    2c9a:	81 e8       	ldi	r24, 0x81	; 129
    2c9c:	96 e7       	ldi	r25, 0x76	; 118
    2c9e:	a1 c5       	rjmp	.+2882   	; 0x37e2 <ProcessInput+0xba6>
            //Standing in the Lobby?
            if ((route[currDepth] == 0)||(currDepth == 0)){
                SetResponse(elements++, A_NOTPOSSIBLE, L_NOTPOSSIBLE, TEASER);
            
            //Is there a way to go back?
            } else if (CheckState(currObj.byteField[OPEN_ACL])){
    2ca0:	80 91 21 3a 	lds	r24, 0x3A21	; 0x803a21 <currObj+0x6>
    2ca4:	0e 94 d2 0a 	call	0x15a4	; 0x15a4 <CheckState>
    2ca8:	88 23       	and	r24, r24
    2caa:	b9 f0       	breq	.+46     	; 0x2cda <ProcessInput+0x9e>
                --currDepth;
    2cac:	e0 91 2c 38 	lds	r30, 0x382C	; 0x80382c <currDepth>
    2cb0:	e1 50       	subi	r30, 0x01	; 1
    2cb2:	e0 93 2c 38 	sts	0x382C, r30	; 0x80382c <currDepth>
                PopulateObject(route[currDepth], &currObj);
    2cb6:	f0 e0       	ldi	r31, 0x00	; 0
    2cb8:	ee 0f       	add	r30, r30
    2cba:	ff 1f       	adc	r31, r31
    2cbc:	e5 52       	subi	r30, 0x25	; 37
    2cbe:	f6 4c       	sbci	r31, 0xC6	; 198
    2cc0:	6b e1       	ldi	r22, 0x1B	; 27
    2cc2:	7a e3       	ldi	r23, 0x3A	; 58
    2cc4:	80 81       	ld	r24, Z
    2cc6:	91 81       	ldd	r25, Z+1	; 0x01
    2cc8:	ff da       	rcall	.-2562   	; 0x22c8 <PopulateObject>
                effect = currObj.byteField[EFFECTS];
    2cca:	80 91 1f 3a 	lds	r24, 0x3A1F	; 0x803a1f <currObj+0x4>
    2cce:	90 e0       	ldi	r25, 0x00	; 0
    2cd0:	80 93 3a 38 	sts	0x383A, r24	; 0x80383a <effect>
    2cd4:	90 93 3b 38 	sts	0x383B, r25	; 0x80383b <effect+0x1>
    2cd8:	31 c2       	rjmp	.+1122   	; 0x313c <ProcessInput+0x500>
            
            //No way out, print denied message of location
            } else {
                SetResponse(elements++, currObj.addrStr[OPEN_ACL_MSG], currObj.lenStr[OPEN_ACL_MSG], GAME);
    2cda:	80 91 3d 3a 	lds	r24, 0x3A3D	; 0x803a3d <currObj+0x22>
    2cde:	90 91 3e 3a 	lds	r25, 0x3A3E	; 0x803a3e <currObj+0x23>
    return 0;
}

//
void SetResponse(uint8_t number, uint16_t address, uint16_t length, uint8_t type){
    reactStr[0][number]=address;
    2ce2:	20 91 2f 3a 	lds	r18, 0x3A2F	; 0x803a2f <currObj+0x14>
    2ce6:	30 91 30 3a 	lds	r19, 0x3A30	; 0x803a30 <currObj+0x15>
    2cea:	20 93 1d 39 	sts	0x391D, r18	; 0x80391d <reactStr+0x2>
    2cee:	30 93 1e 39 	sts	0x391E, r19	; 0x80391e <reactStr+0x3>
    reactStr[1][number]=length;
    2cf2:	80 93 5d 39 	sts	0x395D, r24	; 0x80395d <reactStr+0x42>
    2cf6:	90 93 5e 39 	sts	0x395E, r25	; 0x80395e <reactStr+0x43>
    reactStr[2][number]=type;
    2cfa:	10 92 9d 39 	sts	0x399D, r1	; 0x80399d <reactStr+0x82>
    2cfe:	10 92 9e 39 	sts	0x399E, r1	; 0x80399e <reactStr+0x83>
                effect = currObj.byteField[EFFECTS];
            
            //No way out, print denied message of location
            } else {
                SetResponse(elements++, currObj.addrStr[OPEN_ACL_MSG], currObj.lenStr[OPEN_ACL_MSG], GAME);
                effect = currObj.effect[0];               
    2d02:	80 91 43 3a 	lds	r24, 0x3A43	; 0x803a43 <currObj+0x28>
    2d06:	3a c6       	rjmp	.+3188   	; 0x397c <ProcessInput+0xd40>
            }   
        
        //Enter locations or Open objects    
        } else if ((data[0] == 'e')||(data[0] == 'o')) {
    2d08:	85 36       	cpi	r24, 0x65	; 101
    2d0a:	19 f0       	breq	.+6      	; 0x2d12 <ProcessInput+0xd6>
    2d0c:	8f 36       	cpi	r24, 0x6F	; 111
    2d0e:	09 f0       	breq	.+2      	; 0x2d12 <ProcessInput+0xd6>
    2d10:	df c0       	rjmp	.+446    	; 0x2ed0 <ProcessInput+0x294>
                
            //Not possible, too many/little characters
            if (inputLen != 2){
    2d12:	b2 e0       	ldi	r27, 0x02	; 2
    2d14:	fb 12       	cpse	r15, r27
    2d16:	c1 cf       	rjmp	.-126    	; 0x2c9a <ProcessInput+0x5e>
                SetResponse(elements++, A_NOTPOSSIBLE, L_NOTPOSSIBLE, TEASER);
            } else {
                uint8_t canDo = 0;
                route[currDepth+1] = FindChild(route[currDepth], data[1], 0);
    2d18:	e0 90 2c 38 	lds	r14, 0x382C	; 0x80382c <currDepth>
    2d1c:	f1 2c       	mov	r15, r1
    2d1e:	f7 01       	movw	r30, r14
    2d20:	ee 0f       	add	r30, r30
    2d22:	ff 1f       	adc	r31, r31
    2d24:	e5 52       	subi	r30, 0x25	; 37
    2d26:	f6 4c       	sbci	r31, 0xC6	; 198
    2d28:	40 e0       	ldi	r20, 0x00	; 0
    2d2a:	50 e0       	ldi	r21, 0x00	; 0
    2d2c:	d8 01       	movw	r26, r16
    2d2e:	11 96       	adiw	r26, 0x01	; 1
    2d30:	6c 91       	ld	r22, X
    2d32:	80 81       	ld	r24, Z
    2d34:	91 81       	ldd	r25, Z+1	; 0x01
    2d36:	93 db       	rcall	.-2266   	; 0x245e <FindChild>
    2d38:	f7 01       	movw	r30, r14
    2d3a:	ee 0f       	add	r30, r30
    2d3c:	ff 1f       	adc	r31, r31
    2d3e:	e3 52       	subi	r30, 0x23	; 35
    2d40:	f6 4c       	sbci	r31, 0xC6	; 198
    2d42:	80 83       	st	Z, r24
    2d44:	91 83       	std	Z+1, r25	; 0x01
                    
                //Child found?
                if (route[currDepth+1]) {
    2d46:	90 91 2c 38 	lds	r25, 0x382C	; 0x80382c <currDepth>
    2d4a:	29 2f       	mov	r18, r25
    2d4c:	30 e0       	ldi	r19, 0x00	; 0
    2d4e:	f9 01       	movw	r30, r18
    2d50:	ee 0f       	add	r30, r30
    2d52:	ff 1f       	adc	r31, r31
    2d54:	e3 52       	subi	r30, 0x23	; 35
    2d56:	f6 4c       	sbci	r31, 0xC6	; 198
    2d58:	40 81       	ld	r20, Z
    2d5a:	51 81       	ldd	r21, Z+1	; 0x01
    2d5c:	41 15       	cp	r20, r1
    2d5e:	51 05       	cpc	r21, r1
    2d60:	21 f0       	breq	.+8      	; 0x2d6a <ProcessInput+0x12e>
                    PopulateObject(route[currDepth+1], &actObj1);
    2d62:	6a ed       	ldi	r22, 0xDA	; 218
    2d64:	78 e3       	ldi	r23, 0x38	; 56
    2d66:	ca 01       	movw	r24, r20
    2d68:	1c c0       	rjmp	.+56     	; 0x2da2 <ProcessInput+0x166>
                    canDo = 1;
                //No child, maybe a step back, letter ok?
                } else if (currDepth) {
    2d6a:	99 23       	and	r25, r25
    2d6c:	09 f4       	brne	.+2      	; 0x2d70 <ProcessInput+0x134>
    2d6e:	95 c7       	rjmp	.+3882   	; 0x3c9a <ProcessInput+0x105e>
                    if (CheckLetter(route[currDepth-1], data[1])) {
    2d70:	22 0f       	add	r18, r18
    2d72:	33 1f       	adc	r19, r19
    2d74:	f9 01       	movw	r30, r18
    2d76:	e7 52       	subi	r30, 0x27	; 39
    2d78:	f6 4c       	sbci	r31, 0xC6	; 198
    2d7a:	d8 01       	movw	r26, r16
    2d7c:	11 96       	adiw	r26, 0x01	; 1
    2d7e:	6c 91       	ld	r22, X
    2d80:	80 81       	ld	r24, Z
    2d82:	91 81       	ldd	r25, Z+1	; 0x01
    2d84:	18 db       	rcall	.-2512   	; 0x23b6 <CheckLetter>
    2d86:	88 23       	and	r24, r24
    2d88:	09 f4       	brne	.+2      	; 0x2d8c <ProcessInput+0x150>
    2d8a:	87 c7       	rjmp	.+3854   	; 0x3c9a <ProcessInput+0x105e>
                        PopulateObject(route[currDepth-1], &actObj1);
    2d8c:	e0 91 2c 38 	lds	r30, 0x382C	; 0x80382c <currDepth>
    2d90:	f0 e0       	ldi	r31, 0x00	; 0
    2d92:	ee 0f       	add	r30, r30
    2d94:	ff 1f       	adc	r31, r31
    2d96:	e7 52       	subi	r30, 0x27	; 39
    2d98:	f6 4c       	sbci	r31, 0xC6	; 198
    2d9a:	6a ed       	ldi	r22, 0xDA	; 218
    2d9c:	78 e3       	ldi	r23, 0x38	; 56
    2d9e:	80 81       	ld	r24, Z
    2da0:	91 81       	ldd	r25, Z+1	; 0x01
    2da2:	92 da       	rcall	.-2780   	; 0x22c8 <PopulateObject>
                    }
                }

                //The candidate is found! Let's check if the action is legit
                if (canDo) {
                    if ((data[0] == 'e') && ((actObj1.byteField[ACTION_MASK]&ENTER)==0)) {
    2da4:	f8 01       	movw	r30, r16
    2da6:	80 81       	ld	r24, Z
    2da8:	85 36       	cpi	r24, 0x65	; 101
    2daa:	c9 f4       	brne	.+50     	; 0x2dde <ProcessInput+0x1a2>
    2dac:	80 91 e2 38 	lds	r24, 0x38E2	; 0x8038e2 <actObj1.3995+0x8>
    2db0:	80 fd       	sbrc	r24, 0
    2db2:	1e c0       	rjmp	.+60     	; 0x2df0 <ProcessInput+0x1b4>
    return 0;
}

//
void SetResponse(uint8_t number, uint16_t address, uint16_t length, uint8_t type){
    reactStr[0][number]=address;
    2db4:	8f e9       	ldi	r24, 0x9F	; 159
    2db6:	99 e7       	ldi	r25, 0x79	; 121
    2db8:	80 93 1d 39 	sts	0x391D, r24	; 0x80391d <reactStr+0x2>
    2dbc:	90 93 1e 39 	sts	0x391E, r25	; 0x80391e <reactStr+0x3>
    reactStr[1][number]=length;
    2dc0:	8e e1       	ldi	r24, 0x1E	; 30
    2dc2:	90 e0       	ldi	r25, 0x00	; 0
    2dc4:	80 93 5d 39 	sts	0x395D, r24	; 0x80395d <reactStr+0x42>
    2dc8:	90 93 5e 39 	sts	0x395E, r25	; 0x80395e <reactStr+0x43>
    reactStr[2][number]=type;
    2dcc:	81 e0       	ldi	r24, 0x01	; 1
    2dce:	90 e0       	ldi	r25, 0x00	; 0
    2dd0:	80 93 9d 39 	sts	0x399D, r24	; 0x80399d <reactStr+0x82>
    2dd4:	90 93 9e 39 	sts	0x399E, r25	; 0x80399e <reactStr+0x83>
                }

                //The candidate is found! Let's check if the action is legit
                if (canDo) {
                    if ((data[0] == 'e') && ((actObj1.byteField[ACTION_MASK]&ENTER)==0)) {
                        SetResponse(elements++, A_CANTENTER, L_CANTENTER, TEASER);
    2dd8:	72 e0       	ldi	r23, 0x02	; 2
    2dda:	77 2e       	mov	r7, r23
    2ddc:	2c c7       	rjmp	.+3672   	; 0x3c36 <ProcessInput+0xffa>
                    } else if ((data[0] == 'o') && ((actObj1.byteField[ACTION_MASK]&OPEN)==0)) {
    2dde:	8f 36       	cpi	r24, 0x6F	; 111
    2de0:	39 f4       	brne	.+14     	; 0x2df0 <ProcessInput+0x1b4>
    2de2:	80 91 e2 38 	lds	r24, 0x38E2	; 0x8038e2 <actObj1.3995+0x8>
    2de6:	81 fd       	sbrc	r24, 1
    2de8:	03 c0       	rjmp	.+6      	; 0x2df0 <ProcessInput+0x1b4>
    return 0;
}

//
void SetResponse(uint8_t number, uint16_t address, uint16_t length, uint8_t type){
    reactStr[0][number]=address;
    2dea:	84 e8       	ldi	r24, 0x84	; 132
    2dec:	99 e7       	ldi	r25, 0x79	; 121
    2dee:	f9 c4       	rjmp	.+2546   	; 0x37e2 <ProcessInput+0xba6>
                        SetResponse(elements++, A_CANTENTER, L_CANTENTER, TEASER);
                    } else if ((data[0] == 'o') && ((actObj1.byteField[ACTION_MASK]&OPEN)==0)) {
                        SetResponse(elements++, A_CANTOPEN, L_CANTOPEN, TEASER);
                    
                    //Action legit, permission granted?
                    } else if (CheckState(actObj1.byteField[OPEN_ACL])) {
    2df0:	80 91 e0 38 	lds	r24, 0x38E0	; 0x8038e0 <actObj1.3995+0x6>
    2df4:	0e 94 d2 0a 	call	0x15a4	; 0x15a4 <CheckState>
    2df8:	e0 91 2c 38 	lds	r30, 0x382C	; 0x80382c <currDepth>
    2dfc:	88 23       	and	r24, r24
    2dfe:	09 f4       	brne	.+2      	; 0x2e02 <ProcessInput+0x1c6>
    2e00:	49 c0       	rjmp	.+146    	; 0x2e94 <ProcessInput+0x258>
                            
                        //Yes! Check if we must move forward or backwards.
                        if (route[currDepth+1]) ++currDepth; else --currDepth;
    2e02:	ae 2f       	mov	r26, r30
    2e04:	b0 e0       	ldi	r27, 0x00	; 0
    2e06:	aa 0f       	add	r26, r26
    2e08:	bb 1f       	adc	r27, r27
    2e0a:	a3 52       	subi	r26, 0x23	; 35
    2e0c:	b6 4c       	sbci	r27, 0xC6	; 198
    2e0e:	8d 91       	ld	r24, X+
    2e10:	9c 91       	ld	r25, X
    2e12:	89 2b       	or	r24, r25
    2e14:	11 f0       	breq	.+4      	; 0x2e1a <ProcessInput+0x1de>
    2e16:	ef 5f       	subi	r30, 0xFF	; 255
    2e18:	01 c0       	rjmp	.+2      	; 0x2e1c <ProcessInput+0x1e0>
    2e1a:	e1 50       	subi	r30, 0x01	; 1
    2e1c:	e0 93 2c 38 	sts	0x382C, r30	; 0x80382c <currDepth>
                        PopulateObject(route[currDepth], &currObj);
    2e20:	e0 91 2c 38 	lds	r30, 0x382C	; 0x80382c <currDepth>
    2e24:	f0 e0       	ldi	r31, 0x00	; 0
    2e26:	ee 0f       	add	r30, r30
    2e28:	ff 1f       	adc	r31, r31
    2e2a:	e5 52       	subi	r30, 0x25	; 37
    2e2c:	f6 4c       	sbci	r31, 0xC6	; 198
    2e2e:	6b e1       	ldi	r22, 0x1B	; 27
    2e30:	7a e3       	ldi	r23, 0x3A	; 58
    2e32:	80 81       	ld	r24, Z
    2e34:	91 81       	ldd	r25, Z+1	; 0x01
    2e36:	48 da       	rcall	.-2928   	; 0x22c8 <PopulateObject>
                        SetResponse(elements++, currObj.addrStr[DESC], currObj.lenStr[DESC],GAME);
    2e38:	80 91 37 3a 	lds	r24, 0x3A37	; 0x803a37 <currObj+0x1c>
    2e3c:	90 91 38 3a 	lds	r25, 0x3A38	; 0x803a38 <currObj+0x1d>
    return 0;
}

//
void SetResponse(uint8_t number, uint16_t address, uint16_t length, uint8_t type){
    reactStr[0][number]=address;
    2e40:	20 91 29 3a 	lds	r18, 0x3A29	; 0x803a29 <currObj+0xe>
    2e44:	30 91 2a 3a 	lds	r19, 0x3A2A	; 0x803a2a <currObj+0xf>
    2e48:	20 93 1d 39 	sts	0x391D, r18	; 0x80391d <reactStr+0x2>
    2e4c:	30 93 1e 39 	sts	0x391E, r19	; 0x80391e <reactStr+0x3>
    reactStr[1][number]=length;
    2e50:	80 93 5d 39 	sts	0x395D, r24	; 0x80395d <reactStr+0x42>
    2e54:	90 93 5e 39 	sts	0x395E, r25	; 0x80395e <reactStr+0x43>
    reactStr[2][number]=type;
    2e58:	10 92 9d 39 	sts	0x399D, r1	; 0x80399d <reactStr+0x82>
    2e5c:	10 92 9e 39 	sts	0x399E, r1	; 0x80399e <reactStr+0x83>
    return 0;
}

//
void SetResponse(uint8_t number, uint16_t address, uint16_t length, uint8_t type){
    reactStr[0][number]=address;
    2e60:	8b e5       	ldi	r24, 0x5B	; 91
    2e62:	9a e7       	ldi	r25, 0x7A	; 122
    2e64:	80 93 1f 39 	sts	0x391F, r24	; 0x80391f <reactStr+0x4>
    2e68:	90 93 20 39 	sts	0x3920, r25	; 0x803920 <reactStr+0x5>
    reactStr[1][number]=length;
    2e6c:	82 e0       	ldi	r24, 0x02	; 2
    2e6e:	90 e0       	ldi	r25, 0x00	; 0
    2e70:	80 93 5f 39 	sts	0x395F, r24	; 0x80395f <reactStr+0x44>
    2e74:	90 93 60 39 	sts	0x3960, r25	; 0x803960 <reactStr+0x45>
    reactStr[2][number]=type;
    2e78:	81 e0       	ldi	r24, 0x01	; 1
    2e7a:	90 e0       	ldi	r25, 0x00	; 0
    2e7c:	80 93 9f 39 	sts	0x399F, r24	; 0x80399f <reactStr+0x84>
    2e80:	90 93 a0 39 	sts	0x39A0, r25	; 0x8039a0 <reactStr+0x85>
                        //Yes! Check if we must move forward or backwards.
                        if (route[currDepth+1]) ++currDepth; else --currDepth;
                        PopulateObject(route[currDepth], &currObj);
                        SetResponse(elements++, currObj.addrStr[DESC], currObj.lenStr[DESC],GAME);
                        SetResponse(elements++, A_LF, 2, TEASER);
                        effect = currObj.byteField[EFFECTS];
    2e84:	80 91 1f 3a 	lds	r24, 0x3A1F	; 0x803a1f <currObj+0x4>
    2e88:	90 e0       	ldi	r25, 0x00	; 0
    2e8a:	80 93 3a 38 	sts	0x383A, r24	; 0x80383a <effect>
    2e8e:	90 93 3b 38 	sts	0x383B, r25	; 0x80383b <effect+0x1>
    2e92:	8d c4       	rjmp	.+2330   	; 0x37ae <ProcessInput+0xb72>
                                                  
                    //Not granted!
                    } else {
                        route[currDepth+1] = 0;
    2e94:	f0 e0       	ldi	r31, 0x00	; 0
    2e96:	ee 0f       	add	r30, r30
    2e98:	ff 1f       	adc	r31, r31
    2e9a:	e3 52       	subi	r30, 0x23	; 35
    2e9c:	f6 4c       	sbci	r31, 0xC6	; 198
    2e9e:	10 82       	st	Z, r1
    2ea0:	11 82       	std	Z+1, r1	; 0x01
                        SetResponse(elements++, actObj1.addrStr[OPEN_ACL_MSG], actObj1.lenStr[OPEN_ACL_MSG], GAME);
    2ea2:	80 91 fc 38 	lds	r24, 0x38FC	; 0x8038fc <actObj1.3995+0x22>
    2ea6:	90 91 fd 38 	lds	r25, 0x38FD	; 0x8038fd <actObj1.3995+0x23>
    return 0;
}

//
void SetResponse(uint8_t number, uint16_t address, uint16_t length, uint8_t type){
    reactStr[0][number]=address;
    2eaa:	20 91 ee 38 	lds	r18, 0x38EE	; 0x8038ee <actObj1.3995+0x14>
    2eae:	30 91 ef 38 	lds	r19, 0x38EF	; 0x8038ef <actObj1.3995+0x15>
    2eb2:	20 93 1d 39 	sts	0x391D, r18	; 0x80391d <reactStr+0x2>
    2eb6:	30 93 1e 39 	sts	0x391E, r19	; 0x80391e <reactStr+0x3>
    reactStr[1][number]=length;
    2eba:	80 93 5d 39 	sts	0x395D, r24	; 0x80395d <reactStr+0x42>
    2ebe:	90 93 5e 39 	sts	0x395E, r25	; 0x80395e <reactStr+0x43>
    reactStr[2][number]=type;
    2ec2:	10 92 9d 39 	sts	0x399D, r1	; 0x80399d <reactStr+0x82>
    2ec6:	10 92 9e 39 	sts	0x399E, r1	; 0x80399e <reactStr+0x83>
                                                  
                    //Not granted!
                    } else {
                        route[currDepth+1] = 0;
                        SetResponse(elements++, actObj1.addrStr[OPEN_ACL_MSG], actObj1.lenStr[OPEN_ACL_MSG], GAME);
                        effect = actObj1.effect[0];              
    2eca:	80 91 02 39 	lds	r24, 0x3902	; 0x803902 <actObj1.3995+0x28>
    2ece:	56 c5       	rjmp	.+2732   	; 0x397c <ProcessInput+0xd40>
                    SetResponse(elements++, A_DONTSEE, L_DONTSEE, TEASER);                
                }
            }

        //Look around or at objects
        } else if (data[0] == 'l') {
    2ed0:	8c 36       	cpi	r24, 0x6C	; 108
    2ed2:	09 f0       	breq	.+2      	; 0x2ed6 <ProcessInput+0x29a>
    2ed4:	57 c1       	rjmp	.+686    	; 0x3184 <ProcessInput+0x548>
    2ed6:	e0 91 2c 38 	lds	r30, 0x382C	; 0x80382c <currDepth>
            if (inputLen == 1) {
    2eda:	b1 e0       	ldi	r27, 0x01	; 1
    2edc:	fb 12       	cpse	r15, r27
    2ede:	f6 c0       	rjmp	.+492    	; 0x30cc <ProcessInput+0x490>

                //Show info about this area first
                SetResponse(elements++, currObj.addrStr[DESC], currObj.lenStr[DESC],GAME);
    2ee0:	80 91 37 3a 	lds	r24, 0x3A37	; 0x803a37 <currObj+0x1c>
    2ee4:	90 91 38 3a 	lds	r25, 0x3A38	; 0x803a38 <currObj+0x1d>
    return 0;
}

//
void SetResponse(uint8_t number, uint16_t address, uint16_t length, uint8_t type){
    reactStr[0][number]=address;
    2ee8:	20 91 29 3a 	lds	r18, 0x3A29	; 0x803a29 <currObj+0xe>
    2eec:	30 91 2a 3a 	lds	r19, 0x3A2A	; 0x803a2a <currObj+0xf>
    2ef0:	20 93 1d 39 	sts	0x391D, r18	; 0x80391d <reactStr+0x2>
    2ef4:	30 93 1e 39 	sts	0x391E, r19	; 0x80391e <reactStr+0x3>
    reactStr[1][number]=length;
    2ef8:	80 93 5d 39 	sts	0x395D, r24	; 0x80395d <reactStr+0x42>
    2efc:	90 93 5e 39 	sts	0x395E, r25	; 0x80395e <reactStr+0x43>
    reactStr[2][number]=type;
    2f00:	10 92 9d 39 	sts	0x399D, r1	; 0x80399d <reactStr+0x82>
    2f04:	10 92 9e 39 	sts	0x399E, r1	; 0x80399e <reactStr+0x83>
    return 0;
}

//
void SetResponse(uint8_t number, uint16_t address, uint16_t length, uint8_t type){
    reactStr[0][number]=address;
    2f08:	8b e5       	ldi	r24, 0x5B	; 91
    2f0a:	9a e7       	ldi	r25, 0x7A	; 122
    2f0c:	80 93 1f 39 	sts	0x391F, r24	; 0x80391f <reactStr+0x4>
    2f10:	90 93 20 39 	sts	0x3920, r25	; 0x803920 <reactStr+0x5>
    reactStr[1][number]=length;
    2f14:	82 e0       	ldi	r24, 0x02	; 2
    2f16:	90 e0       	ldi	r25, 0x00	; 0
    2f18:	80 93 5f 39 	sts	0x395F, r24	; 0x80395f <reactStr+0x44>
    2f1c:	90 93 60 39 	sts	0x3960, r25	; 0x803960 <reactStr+0x45>
    reactStr[2][number]=type;
    2f20:	81 e0       	ldi	r24, 0x01	; 1
    2f22:	90 e0       	ldi	r25, 0x00	; 0
    2f24:	80 93 9f 39 	sts	0x399F, r24	; 0x80399f <reactStr+0x84>
    2f28:	90 93 a0 39 	sts	0x39A0, r25	; 0x8039a0 <reactStr+0x85>
    return 0;
}

//
void SetResponse(uint8_t number, uint16_t address, uint16_t length, uint8_t type){
    reactStr[0][number]=address;
    2f2c:	2d ee       	ldi	r18, 0xED	; 237
    2f2e:	39 e7       	ldi	r19, 0x79	; 121
    2f30:	20 93 21 39 	sts	0x3921, r18	; 0x803921 <reactStr+0x6>
    2f34:	30 93 22 39 	sts	0x3922, r19	; 0x803922 <reactStr+0x7>
    reactStr[1][number]=length;
    2f38:	25 e1       	ldi	r18, 0x15	; 21
    2f3a:	30 e0       	ldi	r19, 0x00	; 0
    2f3c:	20 93 61 39 	sts	0x3961, r18	; 0x803961 <reactStr+0x46>
    2f40:	30 93 62 39 	sts	0x3962, r19	; 0x803962 <reactStr+0x47>
    reactStr[2][number]=type;
    2f44:	80 93 a1 39 	sts	0x39A1, r24	; 0x8039a1 <reactStr+0x86>
    2f48:	90 93 a2 39 	sts	0x39A2, r25	; 0x8039a2 <reactStr+0x87>
                SetResponse(elements++, currObj.addrStr[DESC], currObj.lenStr[DESC],GAME);
                SetResponse(elements++, A_LF, 2, TEASER);
                SetResponse(elements++, A_LOOK, L_LOOK, TEASER);

                //Check the visible children first
                route[currDepth+1] = 0;
    2f4c:	f0 e0       	ldi	r31, 0x00	; 0
    2f4e:	ee 0f       	add	r30, r30
    2f50:	ff 1f       	adc	r31, r31
    2f52:	e3 52       	subi	r30, 0x23	; 35
    2f54:	f6 4c       	sbci	r31, 0xC6	; 198
    2f56:	10 82       	st	Z, r1
    2f58:	11 82       	std	Z+1, r1	; 0x01
            if (inputLen == 1) {

                //Show info about this area first
                SetResponse(elements++, currObj.addrStr[DESC], currObj.lenStr[DESC],GAME);
                SetResponse(elements++, A_LF, 2, TEASER);
                SetResponse(elements++, A_LOOK, L_LOOK, TEASER);
    2f5a:	84 e0       	ldi	r24, 0x04	; 4
    2f5c:	68 2e       	mov	r6, r24
    return 0;
}

//
void SetResponse(uint8_t number, uint16_t address, uint16_t length, uint8_t type){
    reactStr[0][number]=address;
    2f5e:	99 e5       	ldi	r25, 0x59	; 89
    2f60:	c9 2e       	mov	r12, r25
    2f62:	9a e7       	ldi	r25, 0x7A	; 122
    2f64:	d9 2e       	mov	r13, r25
    reactStr[1][number]=length;
    2f66:	22 e0       	ldi	r18, 0x02	; 2
    2f68:	a2 2e       	mov	r10, r18
    2f6a:	b1 2c       	mov	r11, r1
    reactStr[2][number]=type;
    2f6c:	88 24       	eor	r8, r8
    2f6e:	83 94       	inc	r8
    2f70:	91 2c       	mov	r9, r1
                SetResponse(elements++, A_LOOK, L_LOOK, TEASER);

                //Check the visible children first
                route[currDepth+1] = 0;
                do{
                    route[currDepth+1] = FindChild(route[currDepth], 0, route[currDepth+1]);
    2f72:	80 91 2c 38 	lds	r24, 0x382C	; 0x80382c <currDepth>
    2f76:	90 e0       	ldi	r25, 0x00	; 0
    2f78:	9c 01       	movw	r18, r24
    2f7a:	22 0f       	add	r18, r18
    2f7c:	33 1f       	adc	r19, r19
    2f7e:	f9 01       	movw	r30, r18
    2f80:	e3 52       	subi	r30, 0x23	; 35
    2f82:	f6 4c       	sbci	r31, 0xC6	; 198
    2f84:	7f 01       	movw	r14, r30
    2f86:	40 81       	ld	r20, Z
    2f88:	51 81       	ldd	r21, Z+1	; 0x01
    2f8a:	f9 01       	movw	r30, r18
    2f8c:	e5 52       	subi	r30, 0x25	; 37
    2f8e:	f6 4c       	sbci	r31, 0xC6	; 198
    2f90:	60 e0       	ldi	r22, 0x00	; 0
    2f92:	80 81       	ld	r24, Z
    2f94:	91 81       	ldd	r25, Z+1	; 0x01
    2f96:	63 da       	rcall	.-2874   	; 0x245e <FindChild>
    2f98:	d7 01       	movw	r26, r14
    2f9a:	8d 93       	st	X+, r24
    2f9c:	9c 93       	st	X, r25
                    if (route[currDepth+1]) {
    2f9e:	e0 91 2c 38 	lds	r30, 0x382C	; 0x80382c <currDepth>
    2fa2:	f0 e0       	ldi	r31, 0x00	; 0
    2fa4:	ee 0f       	add	r30, r30
    2fa6:	ff 1f       	adc	r31, r31
    2fa8:	e3 52       	subi	r30, 0x23	; 35
    2faa:	f6 4c       	sbci	r31, 0xC6	; 198
    2fac:	80 81       	ld	r24, Z
    2fae:	91 81       	ldd	r25, Z+1	; 0x01
    2fb0:	00 97       	sbiw	r24, 0x00	; 0
    2fb2:	09 f4       	brne	.+2      	; 0x2fb6 <ProcessInput+0x37a>
    2fb4:	4a c0       	rjmp	.+148    	; 0x304a <ProcessInput+0x40e>
                        if ((route[currDepth+1] != inventory[0])&&(route[currDepth+1] != inventory[1])) {
    2fb6:	20 91 3e 38 	lds	r18, 0x383E	; 0x80383e <inventory>
    2fba:	30 91 3f 38 	lds	r19, 0x383F	; 0x80383f <inventory+0x1>
    2fbe:	82 17       	cp	r24, r18
    2fc0:	93 07       	cpc	r25, r19
    2fc2:	09 f4       	brne	.+2      	; 0x2fc6 <ProcessInput+0x38a>
    2fc4:	42 c0       	rjmp	.+132    	; 0x304a <ProcessInput+0x40e>
    2fc6:	20 91 40 38 	lds	r18, 0x3840	; 0x803840 <inventory+0x2>
    2fca:	30 91 41 38 	lds	r19, 0x3841	; 0x803841 <inventory+0x3>
    2fce:	82 17       	cp	r24, r18
    2fd0:	93 07       	cpc	r25, r19
                            PopulateObject(route[currDepth+1], &actObj1);
    2fd2:	d9 f1       	breq	.+118    	; 0x304a <ProcessInput+0x40e>
    2fd4:	6a ed       	ldi	r22, 0xDA	; 218
    2fd6:	78 e3       	ldi	r23, 0x38	; 56
    2fd8:	77 d9       	rcall	.-3346   	; 0x22c8 <PopulateObject>
                            SetResponse(elements++, actObj1.addrStr[NAME], actObj1.lenStr[NAME],GAME);
    2fda:	80 91 f4 38 	lds	r24, 0x38F4	; 0x8038f4 <actObj1.3995+0x1a>
    2fde:	90 91 f5 38 	lds	r25, 0x38F5	; 0x8038f5 <actObj1.3995+0x1b>
    return 0;
}

//
void SetResponse(uint8_t number, uint16_t address, uint16_t length, uint8_t type){
    reactStr[0][number]=address;
    2fe2:	e6 2d       	mov	r30, r6
    2fe4:	f0 e0       	ldi	r31, 0x00	; 0
    2fe6:	df 01       	movw	r26, r30
    2fe8:	aa 0f       	add	r26, r26
    2fea:	bb 1f       	adc	r27, r27
    2fec:	a5 5e       	subi	r26, 0xE5	; 229
    2fee:	b6 4c       	sbci	r27, 0xC6	; 198
    2ff0:	20 91 e6 38 	lds	r18, 0x38E6	; 0x8038e6 <actObj1.3995+0xc>
    2ff4:	30 91 e7 38 	lds	r19, 0x38E7	; 0x8038e7 <actObj1.3995+0xd>
    2ff8:	2d 93       	st	X+, r18
    2ffa:	3c 93       	st	X, r19
    reactStr[1][number]=length;
    2ffc:	df 01       	movw	r26, r30
    2ffe:	aa 0f       	add	r26, r26
    3000:	bb 1f       	adc	r27, r27
    3002:	a5 5a       	subi	r26, 0xA5	; 165
    3004:	b6 4c       	sbci	r27, 0xC6	; 198
    3006:	8d 93       	st	X+, r24
    3008:	9c 93       	st	X, r25
    reactStr[2][number]=type;
    300a:	ee 0f       	add	r30, r30
    300c:	ff 1f       	adc	r31, r31
    300e:	e5 56       	subi	r30, 0x65	; 101
    3010:	f6 4c       	sbci	r31, 0xC6	; 198
    3012:	10 82       	st	Z, r1
    3014:	11 82       	std	Z+1, r1	; 0x01
    return 0;
}

//
void SetResponse(uint8_t number, uint16_t address, uint16_t length, uint8_t type){
    reactStr[0][number]=address;
    3016:	81 e0       	ldi	r24, 0x01	; 1
    3018:	86 0d       	add	r24, r6
    301a:	90 e0       	ldi	r25, 0x00	; 0
    301c:	63 94       	inc	r6
    301e:	63 94       	inc	r6
    3020:	fc 01       	movw	r30, r24
    3022:	ee 0f       	add	r30, r30
    3024:	ff 1f       	adc	r31, r31
    3026:	e5 5e       	subi	r30, 0xE5	; 229
    3028:	f6 4c       	sbci	r31, 0xC6	; 198
    302a:	c0 82       	st	Z, r12
    302c:	d1 82       	std	Z+1, r13	; 0x01
    reactStr[1][number]=length;
    302e:	fc 01       	movw	r30, r24
    3030:	ee 0f       	add	r30, r30
    3032:	ff 1f       	adc	r31, r31
    3034:	e5 5a       	subi	r30, 0xA5	; 165
    3036:	f6 4c       	sbci	r31, 0xC6	; 198
    3038:	a0 82       	st	Z, r10
    303a:	b1 82       	std	Z+1, r11	; 0x01
    reactStr[2][number]=type;
    303c:	88 0f       	add	r24, r24
    303e:	99 1f       	adc	r25, r25
    3040:	fc 01       	movw	r30, r24
    3042:	e5 56       	subi	r30, 0x65	; 101
    3044:	f6 4c       	sbci	r31, 0xC6	; 198
    3046:	80 82       	st	Z, r8
    3048:	91 82       	std	Z+1, r9	; 0x01
                            PopulateObject(route[currDepth+1], &actObj1);
                            SetResponse(elements++, actObj1.addrStr[NAME], actObj1.lenStr[NAME],GAME);
                            SetResponse(elements++, A_COMMA, L_COMMA, TEASER);
                        }
                    }
                }while (route[currDepth+1]);
    304a:	20 91 2c 38 	lds	r18, 0x382C	; 0x80382c <currDepth>
    304e:	82 2f       	mov	r24, r18
    3050:	90 e0       	ldi	r25, 0x00	; 0
    3052:	fc 01       	movw	r30, r24
    3054:	ee 0f       	add	r30, r30
    3056:	ff 1f       	adc	r31, r31
    3058:	e3 52       	subi	r30, 0x23	; 35
    305a:	f6 4c       	sbci	r31, 0xC6	; 198
    305c:	40 81       	ld	r20, Z
    305e:	51 81       	ldd	r21, Z+1	; 0x01
    3060:	45 2b       	or	r20, r21
    3062:	09 f0       	breq	.+2      	; 0x3066 <ProcessInput+0x42a>
    3064:	86 cf       	rjmp	.-244    	; 0x2f72 <ProcessInput+0x336>

                //Look back if not on level 0
                if (currDepth) {
    3066:	22 23       	and	r18, r18
    3068:	69 f1       	breq	.+90     	; 0x30c4 <ProcessInput+0x488>
                    PopulateObject(route[currDepth-1], &actObj1);
    306a:	88 0f       	add	r24, r24
    306c:	99 1f       	adc	r25, r25
    306e:	fc 01       	movw	r30, r24
    3070:	e7 52       	subi	r30, 0x27	; 39
    3072:	f6 4c       	sbci	r31, 0xC6	; 198
    3074:	6a ed       	ldi	r22, 0xDA	; 218
    3076:	78 e3       	ldi	r23, 0x38	; 56
    3078:	80 81       	ld	r24, Z
    307a:	91 81       	ldd	r25, Z+1	; 0x01
    307c:	25 d9       	rcall	.-3510   	; 0x22c8 <PopulateObject>
                    SetResponse(elements++, actObj1.addrStr[NAME], actObj1.lenStr[NAME],GAME);
    307e:	20 91 f4 38 	lds	r18, 0x38F4	; 0x8038f4 <actObj1.3995+0x1a>
    3082:	30 91 f5 38 	lds	r19, 0x38F5	; 0x8038f5 <actObj1.3995+0x1b>
    3086:	77 24       	eor	r7, r7
    3088:	73 94       	inc	r7
    308a:	76 0c       	add	r7, r6
    return 0;
}

//
void SetResponse(uint8_t number, uint16_t address, uint16_t length, uint8_t type){
    reactStr[0][number]=address;
    308c:	86 2d       	mov	r24, r6
    308e:	90 e0       	ldi	r25, 0x00	; 0
    3090:	fc 01       	movw	r30, r24
    3092:	ee 0f       	add	r30, r30
    3094:	ff 1f       	adc	r31, r31
    3096:	e5 5e       	subi	r30, 0xE5	; 229
    3098:	f6 4c       	sbci	r31, 0xC6	; 198
    309a:	40 91 e6 38 	lds	r20, 0x38E6	; 0x8038e6 <actObj1.3995+0xc>
    309e:	50 91 e7 38 	lds	r21, 0x38E7	; 0x8038e7 <actObj1.3995+0xd>
    30a2:	40 83       	st	Z, r20
    30a4:	51 83       	std	Z+1, r21	; 0x01
    reactStr[1][number]=length;
    30a6:	fc 01       	movw	r30, r24
    30a8:	ee 0f       	add	r30, r30
    30aa:	ff 1f       	adc	r31, r31
    30ac:	e5 5a       	subi	r30, 0xA5	; 165
    30ae:	f6 4c       	sbci	r31, 0xC6	; 198
    30b0:	20 83       	st	Z, r18
    30b2:	31 83       	std	Z+1, r19	; 0x01
    reactStr[2][number]=type;
    30b4:	88 0f       	add	r24, r24
    30b6:	99 1f       	adc	r25, r25
    30b8:	fc 01       	movw	r30, r24
    30ba:	e5 56       	subi	r30, 0x65	; 101
    30bc:	f6 4c       	sbci	r31, 0xC6	; 198
    30be:	10 82       	st	Z, r1
    30c0:	11 82       	std	Z+1, r1	; 0x01
    30c2:	b9 c5       	rjmp	.+2930   	; 0x3c36 <ProcessInput+0xffa>

                //Look back if not on level 0
                if (currDepth) {
                    PopulateObject(route[currDepth-1], &actObj1);
                    SetResponse(elements++, actObj1.addrStr[NAME], actObj1.lenStr[NAME],GAME);
                } else elements-=1;
    30c4:	77 24       	eor	r7, r7
    30c6:	7a 94       	dec	r7
    30c8:	76 0c       	add	r7, r6
    30ca:	b5 c5       	rjmp	.+2922   	; 0x3c36 <ProcessInput+0xffa>

            } else {
                route[currDepth+1] = FindChild(route[currDepth], data[1], 0);
    30cc:	ee 2e       	mov	r14, r30
    30ce:	f1 2c       	mov	r15, r1
    30d0:	f7 01       	movw	r30, r14
    30d2:	ee 0f       	add	r30, r30
    30d4:	ff 1f       	adc	r31, r31
    30d6:	e5 52       	subi	r30, 0x25	; 37
    30d8:	f6 4c       	sbci	r31, 0xC6	; 198
    30da:	40 e0       	ldi	r20, 0x00	; 0
    30dc:	50 e0       	ldi	r21, 0x00	; 0
    30de:	d8 01       	movw	r26, r16
    30e0:	11 96       	adiw	r26, 0x01	; 1
    30e2:	6c 91       	ld	r22, X
    30e4:	80 81       	ld	r24, Z
    30e6:	91 81       	ldd	r25, Z+1	; 0x01
    30e8:	ba d9       	rcall	.-3212   	; 0x245e <FindChild>
    30ea:	f7 01       	movw	r30, r14
    30ec:	ee 0f       	add	r30, r30
    30ee:	ff 1f       	adc	r31, r31
    30f0:	e3 52       	subi	r30, 0x23	; 35
    30f2:	f6 4c       	sbci	r31, 0xC6	; 198
    30f4:	80 83       	st	Z, r24
    30f6:	91 83       	std	Z+1, r25	; 0x01
                if (route[currDepth+1]) {
    30f8:	90 91 2c 38 	lds	r25, 0x382C	; 0x80382c <currDepth>
    30fc:	29 2f       	mov	r18, r25
    30fe:	30 e0       	ldi	r19, 0x00	; 0
    3100:	f9 01       	movw	r30, r18
    3102:	ee 0f       	add	r30, r30
    3104:	ff 1f       	adc	r31, r31
    3106:	e3 52       	subi	r30, 0x23	; 35
    3108:	f6 4c       	sbci	r31, 0xC6	; 198
    310a:	40 81       	ld	r20, Z
    310c:	51 81       	ldd	r21, Z+1	; 0x01
    310e:	41 15       	cp	r20, r1
    3110:	51 05       	cpc	r21, r1
    3112:	21 f0       	breq	.+8      	; 0x311c <ProcessInput+0x4e0>
                    PopulateObject(route[currDepth+1], &actObj1);
    3114:	6a ed       	ldi	r22, 0xDA	; 218
    3116:	78 e3       	ldi	r23, 0x38	; 56
    3118:	ca 01       	movw	r24, r20
    311a:	1e c0       	rjmp	.+60     	; 0x3158 <ProcessInput+0x51c>
//TODO: CHECKSTATE -> A_CANTLOOK item
                    SetResponse(elements++, actObj1.addrStr[DESC], actObj1.lenStr[DESC],GAME);   
                } else if (currDepth) {
    311c:	99 23       	and	r25, r25
    311e:	09 f4       	brne	.+2      	; 0x3122 <ProcessInput+0x4e6>
                    if (CheckLetter(route[currDepth-1], data[1])) {
    3120:	bc c5       	rjmp	.+2936   	; 0x3c9a <ProcessInput+0x105e>
    3122:	22 0f       	add	r18, r18
    3124:	33 1f       	adc	r19, r19
    3126:	f9 01       	movw	r30, r18
    3128:	e7 52       	subi	r30, 0x27	; 39
    312a:	f6 4c       	sbci	r31, 0xC6	; 198
    312c:	d8 01       	movw	r26, r16
    312e:	11 96       	adiw	r26, 0x01	; 1
    3130:	6c 91       	ld	r22, X
    3132:	80 81       	ld	r24, Z
    3134:	91 81       	ldd	r25, Z+1	; 0x01
    3136:	3f d9       	rcall	.-3458   	; 0x23b6 <CheckLetter>
    3138:	81 11       	cpse	r24, r1
    313a:	03 c0       	rjmp	.+6      	; 0x3142 <ProcessInput+0x506>
}

//The game logic!
uint8_t ProcessInput(uint8_t *data){
    static object_model_t actObj1, actObj2;
    uint8_t elements = 1;
    313c:	77 24       	eor	r7, r7
    313e:	73 94       	inc	r7
                    PopulateObject(route[currDepth+1], &actObj1);
//TODO: CHECKSTATE -> A_CANTLOOK item
                    SetResponse(elements++, actObj1.addrStr[DESC], actObj1.lenStr[DESC],GAME);   
                } else if (currDepth) {
                    if (CheckLetter(route[currDepth-1], data[1])) {
                        PopulateObject(route[currDepth-1], &actObj1);
    3140:	7a c5       	rjmp	.+2804   	; 0x3c36 <ProcessInput+0xffa>
    3142:	e0 91 2c 38 	lds	r30, 0x382C	; 0x80382c <currDepth>
    3146:	f0 e0       	ldi	r31, 0x00	; 0
    3148:	ee 0f       	add	r30, r30
    314a:	ff 1f       	adc	r31, r31
    314c:	e7 52       	subi	r30, 0x27	; 39
    314e:	f6 4c       	sbci	r31, 0xC6	; 198
    3150:	6a ed       	ldi	r22, 0xDA	; 218
    3152:	78 e3       	ldi	r23, 0x38	; 56
    3154:	80 81       	ld	r24, Z
    3156:	91 81       	ldd	r25, Z+1	; 0x01
    3158:	b7 d8       	rcall	.-3730   	; 0x22c8 <PopulateObject>
                        SetResponse(elements++, actObj1.addrStr[DESC], actObj1.lenStr[DESC],GAME);
    315a:	80 91 f6 38 	lds	r24, 0x38F6	; 0x8038f6 <actObj1.3995+0x1c>
    315e:	90 91 f7 38 	lds	r25, 0x38F7	; 0x8038f7 <actObj1.3995+0x1d>
    return 0;
}

//
void SetResponse(uint8_t number, uint16_t address, uint16_t length, uint8_t type){
    reactStr[0][number]=address;
    3162:	20 91 e8 38 	lds	r18, 0x38E8	; 0x8038e8 <actObj1.3995+0xe>
    3166:	30 91 e9 38 	lds	r19, 0x38E9	; 0x8038e9 <actObj1.3995+0xf>
    316a:	20 93 1d 39 	sts	0x391D, r18	; 0x80391d <reactStr+0x2>
    316e:	30 93 1e 39 	sts	0x391E, r19	; 0x80391e <reactStr+0x3>
    reactStr[1][number]=length;
    3172:	80 93 5d 39 	sts	0x395D, r24	; 0x80395d <reactStr+0x42>
    3176:	90 93 5e 39 	sts	0x395E, r25	; 0x80395e <reactStr+0x43>
    reactStr[2][number]=type;
    317a:	10 92 9d 39 	sts	0x399D, r1	; 0x80399d <reactStr+0x82>
    317e:	10 92 9e 39 	sts	0x399E, r1	; 0x80399e <reactStr+0x83>
    3182:	2a ce       	rjmp	.-940    	; 0x2dd8 <ProcessInput+0x19c>
                    SetResponse(elements++, A_DONTSEE, L_DONTSEE, TEASER);
                }
            }
        
        //Pick up an object
        } else if (data[0] == 'p') {
    3184:	80 37       	cpi	r24, 0x70	; 112
    3186:	09 f0       	breq	.+2      	; 0x318a <ProcessInput+0x54e>
    3188:	96 c0       	rjmp	.+300    	; 0x32b6 <ProcessInput+0x67a>
            if (inventory[0]&&inventory[1]) {
    318a:	80 91 3e 38 	lds	r24, 0x383E	; 0x80383e <inventory>
    318e:	90 91 3f 38 	lds	r25, 0x383F	; 0x80383f <inventory+0x1>
    3192:	89 2b       	or	r24, r25
    3194:	79 f0       	breq	.+30     	; 0x31b4 <ProcessInput+0x578>
    3196:	80 91 40 38 	lds	r24, 0x3840	; 0x803840 <inventory+0x2>
    319a:	90 91 41 38 	lds	r25, 0x3841	; 0x803841 <inventory+0x3>
    319e:	89 2b       	or	r24, r25
    31a0:	49 f0       	breq	.+18     	; 0x31b4 <ProcessInput+0x578>
    return 0;
}

//
void SetResponse(uint8_t number, uint16_t address, uint16_t length, uint8_t type){
    reactStr[0][number]=address;
    31a2:	84 e4       	ldi	r24, 0x44	; 68
    31a4:	98 e7       	ldi	r25, 0x78	; 120
    31a6:	80 93 1d 39 	sts	0x391D, r24	; 0x80391d <reactStr+0x2>
    31aa:	90 93 1e 39 	sts	0x391E, r25	; 0x80391e <reactStr+0x3>
    reactStr[1][number]=length;
    31ae:	89 e5       	ldi	r24, 0x59	; 89
    31b0:	90 e0       	ldi	r25, 0x00	; 0
    31b2:	08 ce       	rjmp	.-1008   	; 0x2dc4 <ProcessInput+0x188>
        
        //Pick up an object
        } else if (data[0] == 'p') {
            if (inventory[0]&&inventory[1]) {
                SetResponse(elements++, A_CARRYTWO, L_CARRYTWO, TEASER);
            } else if (inputLen != 2) {
    31b4:	b2 e0       	ldi	r27, 0x02	; 2
    31b6:	fb 12       	cpse	r15, r27
    31b8:	70 cd       	rjmp	.-1312   	; 0x2c9a <ProcessInput+0x5e>
                SetResponse(elements++, A_NOTPOSSIBLE, L_NOTPOSSIBLE, TEASER);
            } else {
                route[currDepth+1] = FindChild(route[currDepth], data[1], 0);
    31ba:	e0 90 2c 38 	lds	r14, 0x382C	; 0x80382c <currDepth>
    31be:	f1 2c       	mov	r15, r1
    31c0:	f7 01       	movw	r30, r14
    31c2:	ee 0f       	add	r30, r30
    31c4:	ff 1f       	adc	r31, r31
    31c6:	e5 52       	subi	r30, 0x25	; 37
    31c8:	f6 4c       	sbci	r31, 0xC6	; 198
    31ca:	40 e0       	ldi	r20, 0x00	; 0
    31cc:	50 e0       	ldi	r21, 0x00	; 0
    31ce:	d8 01       	movw	r26, r16
    31d0:	11 96       	adiw	r26, 0x01	; 1
    31d2:	6c 91       	ld	r22, X
    31d4:	80 81       	ld	r24, Z
    31d6:	91 81       	ldd	r25, Z+1	; 0x01
    31d8:	42 d9       	rcall	.-3452   	; 0x245e <FindChild>
    31da:	f7 01       	movw	r30, r14
    31dc:	ee 0f       	add	r30, r30
    31de:	ff 1f       	adc	r31, r31
    31e0:	e3 52       	subi	r30, 0x23	; 35
    31e2:	f6 4c       	sbci	r31, 0xC6	; 198
    31e4:	80 83       	st	Z, r24
    31e6:	91 83       	std	Z+1, r25	; 0x01
                if (route[currDepth+1]) {
    31e8:	20 91 2c 38 	lds	r18, 0x382C	; 0x80382c <currDepth>
    31ec:	30 e0       	ldi	r19, 0x00	; 0
    31ee:	2f 5f       	subi	r18, 0xFF	; 255
    31f0:	3f 4f       	sbci	r19, 0xFF	; 255
    31f2:	22 0f       	add	r18, r18
    31f4:	33 1f       	adc	r19, r19
    31f6:	f9 01       	movw	r30, r18
    31f8:	e5 52       	subi	r30, 0x25	; 37
    31fa:	f6 4c       	sbci	r31, 0xC6	; 198
    31fc:	80 81       	ld	r24, Z
    31fe:	91 81       	ldd	r25, Z+1	; 0x01
    3200:	00 97       	sbiw	r24, 0x00	; 0
    3202:	09 f4       	brne	.+2      	; 0x3206 <ProcessInput+0x5ca>
    3204:	ca c3       	rjmp	.+1940   	; 0x399a <ProcessInput+0xd5e>
                    if ((route[currDepth+1] == inventory[0])||(route[currDepth+1] == inventory[1])) {
    3206:	40 91 3e 38 	lds	r20, 0x383E	; 0x80383e <inventory>
    320a:	50 91 3f 38 	lds	r21, 0x383F	; 0x80383f <inventory+0x1>
    320e:	84 17       	cp	r24, r20
    3210:	95 07       	cpc	r25, r21
    3212:	39 f0       	breq	.+14     	; 0x3222 <ProcessInput+0x5e6>
    3214:	40 91 40 38 	lds	r20, 0x3840	; 0x803840 <inventory+0x2>
    3218:	50 91 41 38 	lds	r21, 0x3841	; 0x803841 <inventory+0x3>
    321c:	84 17       	cp	r24, r20
    321e:	95 07       	cpc	r25, r21
    3220:	c1 f4       	brne	.+48     	; 0x3252 <ProcessInput+0x616>
    return 0;
}

//
void SetResponse(uint8_t number, uint16_t address, uint16_t length, uint8_t type){
    reactStr[0][number]=address;
    3222:	8f e1       	ldi	r24, 0x1F	; 31
    3224:	98 e7       	ldi	r25, 0x78	; 120
    3226:	80 93 1d 39 	sts	0x391D, r24	; 0x80391d <reactStr+0x2>
    322a:	90 93 1e 39 	sts	0x391E, r25	; 0x80391e <reactStr+0x3>
    reactStr[1][number]=length;
    322e:	85 e2       	ldi	r24, 0x25	; 37
    3230:	90 e0       	ldi	r25, 0x00	; 0
    3232:	80 93 5d 39 	sts	0x395D, r24	; 0x80395d <reactStr+0x42>
    3236:	90 93 5e 39 	sts	0x395E, r25	; 0x80395e <reactStr+0x43>
    reactStr[2][number]=type;
    323a:	81 e0       	ldi	r24, 0x01	; 1
    323c:	90 e0       	ldi	r25, 0x00	; 0
    323e:	80 93 9d 39 	sts	0x399D, r24	; 0x80399d <reactStr+0x82>
    3242:	90 93 9e 39 	sts	0x399E, r25	; 0x80399e <reactStr+0x83>
            } else {
                route[currDepth+1] = FindChild(route[currDepth], data[1], 0);
                if (route[currDepth+1]) {
                    if ((route[currDepth+1] == inventory[0])||(route[currDepth+1] == inventory[1])) {
                        SetResponse(elements++, A_ALREADYCARRYING, L_ALREADYCARRYING, TEASER);
                        route[currDepth+1] = 0;
    3246:	f9 01       	movw	r30, r18
    3248:	e5 52       	subi	r30, 0x25	; 37
    324a:	f6 4c       	sbci	r31, 0xC6	; 198
    324c:	10 82       	st	Z, r1
    324e:	11 82       	std	Z+1, r1	; 0x01
                    } else {
                        //Put item in the inventory if possible
                        PopulateObject(route[currDepth+1], &actObj1);  
    3250:	c3 cd       	rjmp	.-1146   	; 0x2dd8 <ProcessInput+0x19c>
    3252:	6a ed       	ldi	r22, 0xDA	; 218
    3254:	78 e3       	ldi	r23, 0x38	; 56
    3256:	38 d8       	rcall	.-3984   	; 0x22c8 <PopulateObject>
                        if (CheckState(actObj1.byteField[ACTION_ACL])) {
    3258:	80 91 e1 38 	lds	r24, 0x38E1	; 0x8038e1 <actObj1.3995+0x7>
    325c:	0e 94 d2 0a 	call	0x15a4	; 0x15a4 <CheckState>
    3260:	88 23       	and	r24, r24
    3262:	09 f4       	brne	.+2      	; 0x3266 <ProcessInput+0x62a>
    3264:	75 c3       	rjmp	.+1770   	; 0x3950 <ProcessInput+0xd14>
                            if (actObj1.byteField[ITEM_NR]) {
    3266:	80 91 e5 38 	lds	r24, 0x38E5	; 0x8038e5 <actObj1.3995+0xb>
    326a:	88 23       	and	r24, r24
    326c:	09 f4       	brne	.+2      	; 0x3270 <ProcessInput+0x634>
    326e:	15 cd       	rjmp	.-1494   	; 0x2c9a <ProcessInput+0x5e>
                                if (inventory[0]) {
    3270:	80 91 3e 38 	lds	r24, 0x383E	; 0x80383e <inventory>
    3274:	90 91 3f 38 	lds	r25, 0x383F	; 0x80383f <inventory+0x1>
    3278:	e0 91 2c 38 	lds	r30, 0x382C	; 0x80382c <currDepth>
                                    inventory[1] = route[currDepth+1];
    327c:	f0 e0       	ldi	r31, 0x00	; 0
    327e:	ee 0f       	add	r30, r30
    3280:	ff 1f       	adc	r31, r31
    3282:	e3 52       	subi	r30, 0x23	; 35
    3284:	f6 4c       	sbci	r31, 0xC6	; 198
                    } else {
                        //Put item in the inventory if possible
                        PopulateObject(route[currDepth+1], &actObj1);  
                        if (CheckState(actObj1.byteField[ACTION_ACL])) {
                            if (actObj1.byteField[ITEM_NR]) {
                                if (inventory[0]) {
    3286:	89 2b       	or	r24, r25
    3288:	39 f0       	breq	.+14     	; 0x3298 <ProcessInput+0x65c>
                                    inventory[1] = route[currDepth+1];
    328a:	80 81       	ld	r24, Z
    328c:	91 81       	ldd	r25, Z+1	; 0x01
    328e:	80 93 40 38 	sts	0x3840, r24	; 0x803840 <inventory+0x2>
    3292:	90 93 41 38 	sts	0x3841, r25	; 0x803841 <inventory+0x3>
    3296:	06 c0       	rjmp	.+12     	; 0x32a4 <ProcessInput+0x668>
                                } else {
                                    inventory[0] = route[currDepth+1];
    3298:	80 81       	ld	r24, Z
    329a:	91 81       	ldd	r25, Z+1	; 0x01
    329c:	80 93 3e 38 	sts	0x383E, r24	; 0x80383e <inventory>
    32a0:	90 93 3f 38 	sts	0x383F, r25	; 0x80383f <inventory+0x1>
    return 0;
}

//
void SetResponse(uint8_t number, uint16_t address, uint16_t length, uint8_t type){
    reactStr[0][number]=address;
    32a4:	89 e0       	ldi	r24, 0x09	; 9
    32a6:	98 e7       	ldi	r25, 0x78	; 120
    32a8:	80 93 1d 39 	sts	0x391D, r24	; 0x80391d <reactStr+0x2>
    32ac:	90 93 1e 39 	sts	0x391E, r25	; 0x80391e <reactStr+0x3>
    reactStr[1][number]=length;
    32b0:	86 e1       	ldi	r24, 0x16	; 22
    32b2:	90 e0       	ldi	r25, 0x00	; 0
    32b4:	5e c2       	rjmp	.+1212   	; 0x3772 <ProcessInput+0xb36>
                } else SetResponse(elements++, A_NOSUCHOBJECT, L_NOSUCHOBJECT, TEASER);
            }
        } else

        //Drop item if in inventory
        if (data[0] == 'd') {
    32b6:	84 36       	cpi	r24, 0x64	; 100
    32b8:	d9 f4       	brne	.+54     	; 0x32f0 <ProcessInput+0x6b4>
            if ((inventory[0] == 0)&&(inventory[1] == 0)){
    32ba:	80 91 3e 38 	lds	r24, 0x383E	; 0x80383e <inventory>
    32be:	90 91 3f 38 	lds	r25, 0x383F	; 0x80383f <inventory+0x1>
    32c2:	00 97       	sbiw	r24, 0x00	; 0
    32c4:	09 f0       	breq	.+2      	; 0x32c8 <ProcessInput+0x68c>
    32c6:	ec c4       	rjmp	.+2520   	; 0x3ca0 <ProcessInput+0x1064>
    32c8:	80 91 40 38 	lds	r24, 0x3840	; 0x803840 <inventory+0x2>
    32cc:	90 91 41 38 	lds	r25, 0x3841	; 0x803841 <inventory+0x3>
    32d0:	89 2b       	or	r24, r25
    32d2:	49 f4       	brne	.+18     	; 0x32e6 <ProcessInput+0x6aa>
    return 0;
}

//
void SetResponse(uint8_t number, uint16_t address, uint16_t length, uint8_t type){
    reactStr[0][number]=address;
    32d4:	83 ee       	ldi	r24, 0xE3	; 227
    32d6:	97 e7       	ldi	r25, 0x77	; 119
    32d8:	80 93 1d 39 	sts	0x391D, r24	; 0x80391d <reactStr+0x2>
    32dc:	90 93 1e 39 	sts	0x391E, r25	; 0x80391e <reactStr+0x3>
    reactStr[1][number]=length;
    32e0:	86 e2       	ldi	r24, 0x26	; 38
    32e2:	90 e0       	ldi	r25, 0x00	; 0
    32e4:	6f cd       	rjmp	.-1314   	; 0x2dc4 <ProcessInput+0x188>

        //Drop item if in inventory
        if (data[0] == 'd') {
            if ((inventory[0] == 0)&&(inventory[1] == 0)){
                SetResponse(elements++, A_EMPTYHANDS, L_EMPTYHANDS, TEASER);
            } else if (inputLen != 2) {
    32e6:	b2 e0       	ldi	r27, 0x02	; 2
    32e8:	fb 16       	cp	r15, r27
    32ea:	09 f4       	brne	.+2      	; 0x32ee <ProcessInput+0x6b2>
    32ec:	40 c5       	rjmp	.+2688   	; 0x3d6e <ProcessInput+0x1132>
    32ee:	d5 cc       	rjmp	.-1622   	; 0x2c9a <ProcessInput+0x5e>
                    if (x) SetResponse(elements++, A_NOTCARRYING, L_NOTCARRYING, TEASER);
                }
            }

        //Inventory list
        } else if (data[0] == 'i') {
    32f0:	89 36       	cpi	r24, 0x69	; 105
    32f2:	09 f0       	breq	.+2      	; 0x32f6 <ProcessInput+0x6ba>
    32f4:	7b c0       	rjmp	.+246    	; 0x33ec <ProcessInput+0x7b0>
            if ((inventory[0] == 0)&&(inventory[1] == 0)){
    32f6:	80 91 3e 38 	lds	r24, 0x383E	; 0x80383e <inventory>
    32fa:	90 91 3f 38 	lds	r25, 0x383F	; 0x80383f <inventory+0x1>
    32fe:	89 2b       	or	r24, r25
    3300:	31 f4       	brne	.+12     	; 0x330e <ProcessInput+0x6d2>
    3302:	80 91 40 38 	lds	r24, 0x3840	; 0x803840 <inventory+0x2>
    3306:	90 91 41 38 	lds	r25, 0x3841	; 0x803841 <inventory+0x3>
    330a:	89 2b       	or	r24, r25
    330c:	19 f3       	breq	.-58     	; 0x32d4 <ProcessInput+0x698>
    return 0;
}

//
void SetResponse(uint8_t number, uint16_t address, uint16_t length, uint8_t type){
    reactStr[0][number]=address;
    330e:	89 e0       	ldi	r24, 0x09	; 9
    3310:	98 e7       	ldi	r25, 0x78	; 120
    3312:	80 93 1d 39 	sts	0x391D, r24	; 0x80391d <reactStr+0x2>
    3316:	90 93 1e 39 	sts	0x391E, r25	; 0x80391e <reactStr+0x3>
    reactStr[1][number]=length;
    331a:	86 e1       	ldi	r24, 0x16	; 22
    331c:	90 e0       	ldi	r25, 0x00	; 0
    331e:	80 93 5d 39 	sts	0x395D, r24	; 0x80395d <reactStr+0x42>
    3322:	90 93 5e 39 	sts	0x395E, r25	; 0x80395e <reactStr+0x43>
    reactStr[2][number]=type;
    3326:	81 e0       	ldi	r24, 0x01	; 1
    3328:	90 e0       	ldi	r25, 0x00	; 0
    332a:	80 93 9d 39 	sts	0x399D, r24	; 0x80399d <reactStr+0x82>
    332e:	90 93 9e 39 	sts	0x399E, r25	; 0x80399e <reactStr+0x83>
    3332:	2e e3       	ldi	r18, 0x3E	; 62
    3334:	e2 2e       	mov	r14, r18
    3336:	28 e3       	ldi	r18, 0x38	; 56
    3338:	f2 2e       	mov	r15, r18
    333a:	32 e4       	ldi	r19, 0x42	; 66
    333c:	63 2e       	mov	r6, r19
    333e:	38 e3       	ldi	r19, 0x38	; 56
    3340:	73 2e       	mov	r7, r19
        //Inventory list
        } else if (data[0] == 'i') {
            if ((inventory[0] == 0)&&(inventory[1] == 0)){
                SetResponse(elements++, A_EMPTYHANDS, L_EMPTYHANDS, TEASER);
            } else {
                SetResponse(elements++, A_NOWCARRING, L_NOWCARRING, TEASER);
    3342:	42 e0       	ldi	r20, 0x02	; 2
    3344:	54 2e       	mov	r5, r20
    return 0;
}

//
void SetResponse(uint8_t number, uint16_t address, uint16_t length, uint8_t type){
    reactStr[0][number]=address;
    3346:	59 e5       	ldi	r21, 0x59	; 89
    3348:	c5 2e       	mov	r12, r21
    334a:	5a e7       	ldi	r21, 0x7A	; 122
    334c:	d5 2e       	mov	r13, r21
    reactStr[1][number]=length;
    334e:	62 e0       	ldi	r22, 0x02	; 2
    3350:	a6 2e       	mov	r10, r22
    3352:	b1 2c       	mov	r11, r1
    reactStr[2][number]=type;
    3354:	88 24       	eor	r8, r8
    3356:	83 94       	inc	r8
    3358:	91 2c       	mov	r9, r1
            } else {
                SetResponse(elements++, A_NOWCARRING, L_NOWCARRING, TEASER);
                //SetResponse(elements++, A_SPACE, L_SPACE, TEASER);
                
                for (uint8_t x=0; x<2; ++x) {
                    if (inventory[x]) {
    335a:	d7 01       	movw	r26, r14
    335c:	8d 91       	ld	r24, X+
    335e:	9d 91       	ld	r25, X+
    3360:	7d 01       	movw	r14, r26
    3362:	00 97       	sbiw	r24, 0x00	; 0
    3364:	d9 f1       	breq	.+118    	; 0x33dc <ProcessInput+0x7a0>
                        PopulateObject(inventory[x], &actObj1);
    3366:	6a ed       	ldi	r22, 0xDA	; 218
    3368:	78 e3       	ldi	r23, 0x38	; 56
    336a:	0e 94 64 11 	call	0x22c8	; 0x22c8 <PopulateObject>
                        SetResponse(elements++, actObj1.addrStr[NAME], actObj1.lenStr[NAME], GAME);
    336e:	80 91 f4 38 	lds	r24, 0x38F4	; 0x8038f4 <actObj1.3995+0x1a>
    3372:	90 91 f5 38 	lds	r25, 0x38F5	; 0x8038f5 <actObj1.3995+0x1b>
    return 0;
}

//
void SetResponse(uint8_t number, uint16_t address, uint16_t length, uint8_t type){
    reactStr[0][number]=address;
    3376:	e5 2d       	mov	r30, r5
    3378:	f0 e0       	ldi	r31, 0x00	; 0
    337a:	df 01       	movw	r26, r30
    337c:	aa 0f       	add	r26, r26
    337e:	bb 1f       	adc	r27, r27
    3380:	a5 5e       	subi	r26, 0xE5	; 229
    3382:	b6 4c       	sbci	r27, 0xC6	; 198
    3384:	20 91 e6 38 	lds	r18, 0x38E6	; 0x8038e6 <actObj1.3995+0xc>
    3388:	30 91 e7 38 	lds	r19, 0x38E7	; 0x8038e7 <actObj1.3995+0xd>
    338c:	2d 93       	st	X+, r18
    338e:	3c 93       	st	X, r19
    reactStr[1][number]=length;
    3390:	df 01       	movw	r26, r30
    3392:	aa 0f       	add	r26, r26
    3394:	bb 1f       	adc	r27, r27
    3396:	a5 5a       	subi	r26, 0xA5	; 165
    3398:	b6 4c       	sbci	r27, 0xC6	; 198
    339a:	8d 93       	st	X+, r24
    339c:	9c 93       	st	X, r25
    reactStr[2][number]=type;
    339e:	ee 0f       	add	r30, r30
    33a0:	ff 1f       	adc	r31, r31
    33a2:	e5 56       	subi	r30, 0x65	; 101
    33a4:	f6 4c       	sbci	r31, 0xC6	; 198
    33a6:	10 82       	st	Z, r1
    33a8:	11 82       	std	Z+1, r1	; 0x01
    return 0;
}

//
void SetResponse(uint8_t number, uint16_t address, uint16_t length, uint8_t type){
    reactStr[0][number]=address;
    33aa:	e1 e0       	ldi	r30, 0x01	; 1
    33ac:	e5 0d       	add	r30, r5
    33ae:	f0 e0       	ldi	r31, 0x00	; 0
    33b0:	53 94       	inc	r5
    33b2:	53 94       	inc	r5
    33b4:	df 01       	movw	r26, r30
    33b6:	aa 0f       	add	r26, r26
    33b8:	bb 1f       	adc	r27, r27
    33ba:	a5 5e       	subi	r26, 0xE5	; 229
    33bc:	b6 4c       	sbci	r27, 0xC6	; 198
    33be:	cd 92       	st	X+, r12
    33c0:	dc 92       	st	X, r13
    reactStr[1][number]=length;
    33c2:	df 01       	movw	r26, r30
    33c4:	aa 0f       	add	r26, r26
    33c6:	bb 1f       	adc	r27, r27
    33c8:	a5 5a       	subi	r26, 0xA5	; 165
    33ca:	b6 4c       	sbci	r27, 0xC6	; 198
    33cc:	ad 92       	st	X+, r10
    33ce:	bc 92       	st	X, r11
    reactStr[2][number]=type;
    33d0:	ee 0f       	add	r30, r30
    33d2:	ff 1f       	adc	r31, r31
    33d4:	e5 56       	subi	r30, 0x65	; 101
    33d6:	f6 4c       	sbci	r31, 0xC6	; 198
    33d8:	80 82       	st	Z, r8
    33da:	91 82       	std	Z+1, r9	; 0x01
                SetResponse(elements++, A_EMPTYHANDS, L_EMPTYHANDS, TEASER);
            } else {
                SetResponse(elements++, A_NOWCARRING, L_NOWCARRING, TEASER);
                //SetResponse(elements++, A_SPACE, L_SPACE, TEASER);
                
                for (uint8_t x=0; x<2; ++x) {
    33dc:	6e 14       	cp	r6, r14
    33de:	7f 04       	cpc	r7, r15
    33e0:	09 f0       	breq	.+2      	; 0x33e4 <ProcessInput+0x7a8>
    33e2:	bb cf       	rjmp	.-138    	; 0x335a <ProcessInput+0x71e>
                        SetResponse(elements++, actObj1.addrStr[NAME], actObj1.lenStr[NAME], GAME);
                        SetResponse(elements++, A_COMMA, L_COMMA, TEASER);
                        //SetResponse(elements++, A_SPACE, L_SPACE, TEASER);
                    }
                }
                elements -= 1;
    33e4:	77 24       	eor	r7, r7
    33e6:	7a 94       	dec	r7
    33e8:	75 0c       	add	r7, r5
    33ea:	25 c4       	rjmp	.+2122   	; 0x3c36 <ProcessInput+0xffa>
            }            
        
        //Talk, use, give, read
        } else if ((data[0] == 't')||(data[0] == 'u')||(data[0] == 'g')||(data[0] == 'r')) {
    33ec:	9c e8       	ldi	r25, 0x8C	; 140
    33ee:	98 0f       	add	r25, r24
    33f0:	92 30       	cpi	r25, 0x02	; 2
    33f2:	28 f0       	brcs	.+10     	; 0x33fe <ProcessInput+0x7c2>
    33f4:	87 36       	cpi	r24, 0x67	; 103
    33f6:	19 f0       	breq	.+6      	; 0x33fe <ProcessInput+0x7c2>
    33f8:	82 37       	cpi	r24, 0x72	; 114
    33fa:	09 f0       	breq	.+2      	; 0x33fe <ProcessInput+0x7c2>
    33fc:	d7 c2       	rjmp	.+1454   	; 0x39ac <ProcessInput+0xd70>
            if ((inputLen<2)||(inputLen>3)) {
    33fe:	8e ef       	ldi	r24, 0xFE	; 254
    3400:	8f 0d       	add	r24, r15
    3402:	82 30       	cpi	r24, 0x02	; 2
    3404:	08 f0       	brcs	.+2      	; 0x3408 <ProcessInput+0x7cc>
    3406:	49 cc       	rjmp	.-1902   	; 0x2c9a <ProcessInput+0x5e>
                SetResponse(elements++, A_NOTPOSSIBLE, L_NOTPOSSIBLE, TEASER);                
            
            //Check for visible person or object first
            } else {
                route[currDepth+1] = FindChild(route[currDepth], data[inputLen-1], 0);
    3408:	e0 91 2c 38 	lds	r30, 0x382C	; 0x80382c <currDepth>
    340c:	ce 2e       	mov	r12, r30
    340e:	d1 2c       	mov	r13, r1
    3410:	d8 01       	movw	r26, r16
    3412:	af 0d       	add	r26, r15
    3414:	b1 1d       	adc	r27, r1
    3416:	11 97       	sbiw	r26, 0x01	; 1
    3418:	f6 01       	movw	r30, r12
    341a:	ee 0f       	add	r30, r30
    341c:	ff 1f       	adc	r31, r31
    341e:	e5 52       	subi	r30, 0x25	; 37
    3420:	f6 4c       	sbci	r31, 0xC6	; 198
    3422:	40 e0       	ldi	r20, 0x00	; 0
    3424:	50 e0       	ldi	r21, 0x00	; 0
    3426:	6c 91       	ld	r22, X
    3428:	80 81       	ld	r24, Z
    342a:	91 81       	ldd	r25, Z+1	; 0x01
    342c:	18 d8       	rcall	.-4048   	; 0x245e <FindChild>
    342e:	f6 01       	movw	r30, r12
    3430:	ee 0f       	add	r30, r30
    3432:	ff 1f       	adc	r31, r31
    3434:	e3 52       	subi	r30, 0x23	; 35
    3436:	f6 4c       	sbci	r31, 0xC6	; 198
    3438:	80 83       	st	Z, r24
    343a:	91 83       	std	Z+1, r25	; 0x01
                if (route[currDepth+1]) {
    343c:	e0 91 2c 38 	lds	r30, 0x382C	; 0x80382c <currDepth>
    3440:	f0 e0       	ldi	r31, 0x00	; 0
    3442:	ee 0f       	add	r30, r30
    3444:	ff 1f       	adc	r31, r31
    3446:	e3 52       	subi	r30, 0x23	; 35
    3448:	f6 4c       	sbci	r31, 0xC6	; 198
    344a:	80 81       	ld	r24, Z
    344c:	91 81       	ldd	r25, Z+1	; 0x01
    344e:	00 97       	sbiw	r24, 0x00	; 0
    3450:	09 f4       	brne	.+2      	; 0x3454 <ProcessInput+0x818>
    3452:	9a c2       	rjmp	.+1332   	; 0x3988 <ProcessInput+0xd4c>
                    
                    //Give item to person / use item on object 
                    if ((inputLen == 3)&&((data[0] == 'u')||(data[0] == 'g'))) {
    3454:	b3 e0       	ldi	r27, 0x03	; 3
    3456:	fb 12       	cpse	r15, r27
    3458:	78 c1       	rjmp	.+752    	; 0x374a <ProcessInput+0xb0e>
    345a:	f8 01       	movw	r30, r16
    345c:	20 81       	ld	r18, Z
    345e:	25 37       	cpi	r18, 0x75	; 117
    3460:	19 f0       	breq	.+6      	; 0x3468 <ProcessInput+0x82c>
    3462:	27 36       	cpi	r18, 0x67	; 103
    3464:	09 f0       	breq	.+2      	; 0x3468 <ProcessInput+0x82c>
    3466:	71 c1       	rjmp	.+738    	; 0x374a <ProcessInput+0xb0e>
    3468:	61 2c       	mov	r6, r1
    346a:	77 24       	eor	r7, r7
    346c:	73 94       	inc	r7
    return 0;
}

//
void SetResponse(uint8_t number, uint16_t address, uint16_t length, uint8_t type){
    reactStr[0][number]=address;
    346e:	53 e6       	ldi	r21, 0x63	; 99
    3470:	c5 2e       	mov	r12, r21
    3472:	59 e7       	ldi	r21, 0x79	; 121
    3474:	d5 2e       	mov	r13, r21
    reactStr[1][number]=length;
    3476:	61 e2       	ldi	r22, 0x21	; 33
    3478:	a6 2e       	mov	r10, r22
    347a:	b1 2c       	mov	r11, r1
    reactStr[2][number]=type;
    347c:	88 24       	eor	r8, r8
    347e:	83 94       	inc	r8
    3480:	91 2c       	mov	r9, r1
                if (route[currDepth+1]) {
                    
                    //Give item to person / use item on object 
                    if ((inputLen == 3)&&((data[0] == 'u')||(data[0] == 'g'))) {
                        for (uint8_t x=0; x<2; x++) {
                            if (inventory[x]) { 
    3482:	e6 2c       	mov	r14, r6
    3484:	f1 2c       	mov	r15, r1
    3486:	c7 01       	movw	r24, r14
    3488:	88 0f       	add	r24, r24
    348a:	99 1f       	adc	r25, r25
    348c:	9c 01       	movw	r18, r24
    348e:	22 5c       	subi	r18, 0xC2	; 194
    3490:	37 4c       	sbci	r19, 0xC7	; 199
    3492:	79 01       	movw	r14, r18
    3494:	d9 01       	movw	r26, r18
    3496:	8d 91       	ld	r24, X+
    3498:	9c 91       	ld	r25, X
    349a:	00 97       	sbiw	r24, 0x00	; 0
    349c:	81 f0       	breq	.+32     	; 0x34be <ProcessInput+0x882>
                                if (CheckLetter(inventory[x], data[1])) {
    349e:	f8 01       	movw	r30, r16
    34a0:	61 81       	ldd	r22, Z+1	; 0x01
    34a2:	0e 94 db 11 	call	0x23b6	; 0x23b6 <CheckLetter>
    34a6:	88 23       	and	r24, r24
    34a8:	51 f0       	breq	.+20     	; 0x34be <ProcessInput+0x882>
                                    PopulateObject(inventory[x], &actObj2);
    34aa:	6f ea       	ldi	r22, 0xAF	; 175
    34ac:	78 e3       	ldi	r23, 0x38	; 56
    34ae:	d7 01       	movw	r26, r14
    34b0:	8d 91       	ld	r24, X+
    34b2:	9c 91       	ld	r25, X
    34b4:	0e 94 64 11 	call	0x22c8	; 0x22c8 <PopulateObject>
                                    x = 2;
    34b8:	32 e0       	ldi	r19, 0x02	; 2
    34ba:	63 2e       	mov	r6, r19
    34bc:	1e c0       	rjmp	.+60     	; 0x34fa <ProcessInput+0x8be>
                                }
                            }
                            if (x == 1) { 
    34be:	b1 e0       	ldi	r27, 0x01	; 1
    34c0:	6b 12       	cpse	r6, r27
    34c2:	1a c0       	rjmp	.+52     	; 0x34f8 <ProcessInput+0x8bc>
    return 0;
}

//
void SetResponse(uint8_t number, uint16_t address, uint16_t length, uint8_t type){
    reactStr[0][number]=address;
    34c4:	e7 2d       	mov	r30, r7
    34c6:	f0 e0       	ldi	r31, 0x00	; 0
    34c8:	df 01       	movw	r26, r30
    34ca:	aa 0f       	add	r26, r26
    34cc:	bb 1f       	adc	r27, r27
    34ce:	a5 5e       	subi	r26, 0xE5	; 229
    34d0:	b6 4c       	sbci	r27, 0xC6	; 198
    34d2:	cd 92       	st	X+, r12
    34d4:	dc 92       	st	X, r13
    reactStr[1][number]=length;
    34d6:	df 01       	movw	r26, r30
    34d8:	aa 0f       	add	r26, r26
    34da:	bb 1f       	adc	r27, r27
    34dc:	a5 5a       	subi	r26, 0xA5	; 165
    34de:	b6 4c       	sbci	r27, 0xC6	; 198
    34e0:	ad 92       	st	X+, r10
    34e2:	bc 92       	st	X, r11
    reactStr[2][number]=type;
    34e4:	ee 0f       	add	r30, r30
    34e6:	ff 1f       	adc	r31, r31
    34e8:	e5 56       	subi	r30, 0x65	; 101
    34ea:	f6 4c       	sbci	r31, 0xC6	; 198
    34ec:	80 82       	st	Z, r8
    34ee:	91 82       	std	Z+1, r9	; 0x01
                                    x = 2;
                                }
                            }
                            if (x == 1) { 
                                SetResponse(elements++, A_NOTCARRYING, L_NOTCARRYING, TEASER);
                                data[0] = 0;
    34f0:	f8 01       	movw	r30, r16
    34f2:	10 82       	st	Z, r1
                                    PopulateObject(inventory[x], &actObj2);
                                    x = 2;
                                }
                            }
                            if (x == 1) { 
                                SetResponse(elements++, A_NOTCARRYING, L_NOTCARRYING, TEASER);
    34f4:	73 94       	inc	r7
    34f6:	01 c0       	rjmp	.+2      	; 0x34fa <ProcessInput+0x8be>
    34f8:	61 2c       	mov	r6, r1
                route[currDepth+1] = FindChild(route[currDepth], data[inputLen-1], 0);
                if (route[currDepth+1]) {
                    
                    //Give item to person / use item on object 
                    if ((inputLen == 3)&&((data[0] == 'u')||(data[0] == 'g'))) {
                        for (uint8_t x=0; x<2; x++) {
    34fa:	63 94       	inc	r6
    34fc:	f1 e0       	ldi	r31, 0x01	; 1
    34fe:	6f 16       	cp	r6, r31
    3500:	09 f4       	brne	.+2      	; 0x3504 <ProcessInput+0x8c8>
    3502:	bf cf       	rjmp	.-130    	; 0x3482 <ProcessInput+0x846>
                                data[0] = 0;
                            }
                        }

                        //Both the item and person/object are found, check if action is legit
                        if (data[0]){
    3504:	d8 01       	movw	r26, r16
    3506:	8c 91       	ld	r24, X
    3508:	88 23       	and	r24, r24
    350a:	09 f4       	brne	.+2      	; 0x350e <ProcessInput+0x8d2>
    350c:	94 c3       	rjmp	.+1832   	; 0x3c36 <ProcessInput+0xffa>
                            PopulateObject(route[currDepth+1], &actObj1);
    350e:	e0 91 2c 38 	lds	r30, 0x382C	; 0x80382c <currDepth>
    3512:	f0 e0       	ldi	r31, 0x00	; 0
    3514:	ee 0f       	add	r30, r30
    3516:	ff 1f       	adc	r31, r31
    3518:	e3 52       	subi	r30, 0x23	; 35
    351a:	f6 4c       	sbci	r31, 0xC6	; 198
    351c:	6a ed       	ldi	r22, 0xDA	; 218
    351e:	78 e3       	ldi	r23, 0x38	; 56
    3520:	80 81       	ld	r24, Z
    3522:	91 81       	ldd	r25, Z+1	; 0x01
    3524:	0e 94 64 11 	call	0x22c8	; 0x22c8 <PopulateObject>

                            //Special game
                            if (actObj1.lenStr[ACTION_STR1] == 1) {
    3528:	e0 90 f8 38 	lds	r14, 0x38F8	; 0x8038f8 <actObj1.3995+0x1e>
    352c:	f0 90 f9 38 	lds	r15, 0x38F9	; 0x8038f9 <actObj1.3995+0x1f>
    3530:	b1 e0       	ldi	r27, 0x01	; 1
    3532:	eb 16       	cp	r14, r27
    3534:	f1 04       	cpc	r15, r1
    3536:	09 f0       	breq	.+2      	; 0x353a <ProcessInput+0x8fe>
    3538:	9a c0       	rjmp	.+308    	; 0x366e <ProcessInput+0xa32>
                                ExtEERead(actObj1.addrStr[ACTION_STR1], 1, GAME, &data[2]);
    353a:	98 01       	movw	r18, r16
    353c:	2e 5f       	subi	r18, 0xFE	; 254
    353e:	3f 4f       	sbci	r19, 0xFF	; 255
    3540:	40 e0       	ldi	r20, 0x00	; 0
    3542:	61 e0       	ldi	r22, 0x01	; 1
    3544:	80 91 ea 38 	lds	r24, 0x38EA	; 0x8038ea <actObj1.3995+0x10>
    3548:	90 91 eb 38 	lds	r25, 0x38EB	; 0x8038eb <actObj1.3995+0x11>
    354c:	0e 94 54 10 	call	0x20a8	; 0x20a8 <ExtEERead>
                                if (data[2] == '1') {
    3550:	f8 01       	movw	r30, r16
    3552:	42 81       	ldd	r20, Z+2	; 0x02
    3554:	21 e0       	ldi	r18, 0x01	; 1
    3556:	27 0d       	add	r18, r7
    3558:	87 2d       	mov	r24, r7
    355a:	90 e0       	ldi	r25, 0x00	; 0
    355c:	41 33       	cpi	r20, 0x31	; 49
    355e:	09 f0       	breq	.+2      	; 0x3562 <ProcessInput+0x926>
    3560:	6b c0       	rjmp	.+214    	; 0x3638 <ProcessInput+0x9fc>
                                    uint8_t item = actObj2.byteField[ITEM_NR];
    3562:	30 91 ba 38 	lds	r19, 0x38BA	; 0x8038ba <actObj2.3996+0xb>
                                    if ((item < 31)||(item > 34)) {
    3566:	51 ee       	ldi	r21, 0xE1	; 225
    3568:	53 0f       	add	r21, r19
    return 0;
}

//
void SetResponse(uint8_t number, uint16_t address, uint16_t length, uint8_t type){
    reactStr[0][number]=address;
    356a:	fc 01       	movw	r30, r24
    356c:	ee 0f       	add	r30, r30
    356e:	ff 1f       	adc	r31, r31
    3570:	e5 5e       	subi	r30, 0xE5	; 229
    3572:	f6 4c       	sbci	r31, 0xC6	; 198
                            //Special game
                            if (actObj1.lenStr[ACTION_STR1] == 1) {
                                ExtEERead(actObj1.addrStr[ACTION_STR1], 1, GAME, &data[2]);
                                if (data[2] == '1') {
                                    uint8_t item = actObj2.byteField[ITEM_NR];
                                    if ((item < 31)||(item > 34)) {
    3574:	54 30       	cpi	r21, 0x04	; 4
    3576:	60 f0       	brcs	.+24     	; 0x3590 <ProcessInput+0x954>
    return 0;
}

//
void SetResponse(uint8_t number, uint16_t address, uint16_t length, uint8_t type){
    reactStr[0][number]=address;
    3578:	43 e0       	ldi	r20, 0x03	; 3
    357a:	59 e7       	ldi	r21, 0x79	; 121
    357c:	40 83       	st	Z, r20
    357e:	51 83       	std	Z+1, r21	; 0x01
    reactStr[1][number]=length;
    3580:	fc 01       	movw	r30, r24
    3582:	ee 0f       	add	r30, r30
    3584:	ff 1f       	adc	r31, r31
    3586:	e5 5a       	subi	r30, 0xA5	; 165
    3588:	f6 4c       	sbci	r31, 0xC6	; 198
    358a:	4a e1       	ldi	r20, 0x1A	; 26
    358c:	50 e0       	ldi	r21, 0x00	; 0
    358e:	64 c0       	rjmp	.+200    	; 0x3658 <ProcessInput+0xa1c>
    return 0;
}

//
void SetResponse(uint8_t number, uint16_t address, uint16_t length, uint8_t type){
    reactStr[0][number]=address;
    3590:	6d e8       	ldi	r22, 0x8D	; 141
    3592:	75 e7       	ldi	r23, 0x75	; 117
    3594:	60 83       	st	Z, r22
    3596:	71 83       	std	Z+1, r23	; 0x01
    reactStr[1][number]=length;
    3598:	fc 01       	movw	r30, r24
    359a:	ee 0f       	add	r30, r30
    359c:	ff 1f       	adc	r31, r31
    359e:	e5 5a       	subi	r30, 0xA5	; 165
    35a0:	f6 4c       	sbci	r31, 0xC6	; 198
    35a2:	62 eb       	ldi	r22, 0xB2	; 178
    35a4:	70 e0       	ldi	r23, 0x00	; 0
    35a6:	60 83       	st	Z, r22
    35a8:	71 83       	std	Z+1, r23	; 0x01
    reactStr[2][number]=type;
    35aa:	88 0f       	add	r24, r24
    35ac:	99 1f       	adc	r25, r25
    35ae:	fc 01       	movw	r30, r24
    35b0:	e5 56       	subi	r30, 0x65	; 101
    35b2:	f6 4c       	sbci	r31, 0xC6	; 198
    35b4:	e0 82       	st	Z, r14
    35b6:	f1 82       	std	Z+1, r15	; 0x01
    return 0;
}

//
void SetResponse(uint8_t number, uint16_t address, uint16_t length, uint8_t type){
    reactStr[0][number]=address;
    35b8:	82 2f       	mov	r24, r18
    35ba:	90 e0       	ldi	r25, 0x00	; 0
    35bc:	fc 01       	movw	r30, r24
    35be:	ee 0f       	add	r30, r30
    35c0:	ff 1f       	adc	r31, r31
    35c2:	e5 5e       	subi	r30, 0xE5	; 229
    35c4:	f6 4c       	sbci	r31, 0xC6	; 198
    35c6:	6b e5       	ldi	r22, 0x5B	; 91
    35c8:	7a e7       	ldi	r23, 0x7A	; 122
    35ca:	60 83       	st	Z, r22
    35cc:	71 83       	std	Z+1, r23	; 0x01
    reactStr[1][number]=length;
    35ce:	fc 01       	movw	r30, r24
    35d0:	ee 0f       	add	r30, r30
    35d2:	ff 1f       	adc	r31, r31
    35d4:	e5 5a       	subi	r30, 0xA5	; 165
    35d6:	f6 4c       	sbci	r31, 0xC6	; 198
    35d8:	62 e0       	ldi	r22, 0x02	; 2
    35da:	70 e0       	ldi	r23, 0x00	; 0
    35dc:	60 83       	st	Z, r22
    35de:	71 83       	std	Z+1, r23	; 0x01
    reactStr[2][number]=type;
    35e0:	88 0f       	add	r24, r24
    35e2:	99 1f       	adc	r25, r25
    35e4:	fc 01       	movw	r30, r24
    35e6:	e5 56       	subi	r30, 0x65	; 101
    35e8:	f6 4c       	sbci	r31, 0xC6	; 198
    35ea:	e0 82       	st	Z, r14
    35ec:	f1 82       	std	Z+1, r15	; 0x01
    return 0;
}

//
void SetResponse(uint8_t number, uint16_t address, uint16_t length, uint8_t type){
    reactStr[0][number]=address;
    35ee:	82 e0       	ldi	r24, 0x02	; 2
    35f0:	87 0d       	add	r24, r7
    35f2:	90 e0       	ldi	r25, 0x00	; 0
    35f4:	f3 e0       	ldi	r31, 0x03	; 3
    35f6:	7f 0e       	add	r7, r31
    35f8:	fc 01       	movw	r30, r24
    35fa:	ee 0f       	add	r30, r30
    35fc:	ff 1f       	adc	r31, r31
    35fe:	e5 5e       	subi	r30, 0xE5	; 229
    3600:	f6 4c       	sbci	r31, 0xC6	; 198
    3602:	6f ea       	ldi	r22, 0xAF	; 175
    3604:	78 e7       	ldi	r23, 0x78	; 120
    3606:	60 83       	st	Z, r22
    3608:	71 83       	std	Z+1, r23	; 0x01
    reactStr[1][number]=length;
    360a:	fc 01       	movw	r30, r24
    360c:	ee 0f       	add	r30, r30
    360e:	ff 1f       	adc	r31, r31
    3610:	e5 5a       	subi	r30, 0xA5	; 165
    3612:	f6 4c       	sbci	r31, 0xC6	; 198
    3614:	62 e1       	ldi	r22, 0x12	; 18
    3616:	70 e0       	ldi	r23, 0x00	; 0
    3618:	60 83       	st	Z, r22
    361a:	71 83       	std	Z+1, r23	; 0x01
    reactStr[2][number]=type;
    361c:	88 0f       	add	r24, r24
    361e:	99 1f       	adc	r25, r25
    3620:	fc 01       	movw	r30, r24
    3622:	e5 56       	subi	r30, 0x65	; 101
    3624:	f6 4c       	sbci	r31, 0xC6	; 198
    3626:	e0 82       	st	Z, r14
    3628:	f1 82       	std	Z+1, r15	; 0x01
                                        SetResponse(elements++, A_CANTUSE, L_CANTUSE, TEASER);
                                    } else {
                                        SetResponse(elements++, A_PRIEST, L_PRIEST, TEASER);
                                        SetResponse(elements++, A_LF, 2, TEASER);
                                        SetResponse(elements++, A_RESPONSE, L_RESPONSE, TEASER);
                                        specialInput[0] = '1';
    362a:	40 93 0a 39 	sts	0x390A, r20	; 0x80390a <specialInput>
                                        specialInput[1] = item;
    362e:	30 93 0b 39 	sts	0x390B, r19	; 0x80390b <specialInput+0x1>
                                        specialInput[2] = 0;
    3632:	10 92 0c 39 	sts	0x390C, r1	; 0x80390c <specialInput+0x2>
    3636:	ff c2       	rjmp	.+1534   	; 0x3c36 <ProcessInput+0xffa>
    return 0;
}

//
void SetResponse(uint8_t number, uint16_t address, uint16_t length, uint8_t type){
    reactStr[0][number]=address;
    3638:	fc 01       	movw	r30, r24
    363a:	ee 0f       	add	r30, r30
    363c:	ff 1f       	adc	r31, r31
    363e:	e5 5e       	subi	r30, 0xE5	; 229
    3640:	f6 4c       	sbci	r31, 0xC6	; 198
    3642:	4f e3       	ldi	r20, 0x3F	; 63
    3644:	56 e7       	ldi	r21, 0x76	; 118
    3646:	40 83       	st	Z, r20
    3648:	51 83       	std	Z+1, r21	; 0x01
    reactStr[1][number]=length;
    364a:	fc 01       	movw	r30, r24
    364c:	ee 0f       	add	r30, r30
    364e:	ff 1f       	adc	r31, r31
    3650:	e5 5a       	subi	r30, 0xA5	; 165
    3652:	f6 4c       	sbci	r31, 0xC6	; 198
    3654:	42 e4       	ldi	r20, 0x42	; 66
    3656:	50 e0       	ldi	r21, 0x00	; 0
    3658:	40 83       	st	Z, r20
    365a:	51 83       	std	Z+1, r21	; 0x01
    reactStr[2][number]=type;
    365c:	88 0f       	add	r24, r24
    365e:	99 1f       	adc	r25, r25
    3660:	fc 01       	movw	r30, r24
    3662:	e5 56       	subi	r30, 0x65	; 101
    3664:	f6 4c       	sbci	r31, 0xC6	; 198
    3666:	e0 82       	st	Z, r14
    3668:	f1 82       	std	Z+1, r15	; 0x01
                                        specialInput[2] = 0;
                                    }

                                //There should not be another special
                                } else {
                                    SetResponse(elements++, A_ERROR, L_ERROR, TEASER);
    366a:	72 2e       	mov	r7, r18
    366c:	e4 c2       	rjmp	.+1480   	; 0x3c36 <ProcessInput+0xffa>
                                }

                            //Normal "use ... on ..." or "give ... to ..." action
                            } else if (actObj1.byteField[ACTION_ITEM] == actObj2.byteField[ITEM_NR]) {
    366e:	90 91 e3 38 	lds	r25, 0x38E3	; 0x8038e3 <actObj1.3995+0x9>
    3672:	80 91 ba 38 	lds	r24, 0x38BA	; 0x8038ba <actObj2.3996+0xb>
    3676:	98 13       	cpse	r25, r24
    3678:	2f c0       	rjmp	.+94     	; 0x36d8 <ProcessInput+0xa9c>
                                SetResponse(elements++, actObj1.addrStr[ACTION_MSG], actObj1.lenStr[ACTION_MSG], GAME);
    367a:	20 91 00 39 	lds	r18, 0x3900	; 0x803900 <actObj1.3995+0x26>
    367e:	30 91 01 39 	lds	r19, 0x3901	; 0x803901 <actObj1.3995+0x27>
    3682:	ff 24       	eor	r15, r15
    3684:	f3 94       	inc	r15
    3686:	f7 0c       	add	r15, r7
    return 0;
}

//
void SetResponse(uint8_t number, uint16_t address, uint16_t length, uint8_t type){
    reactStr[0][number]=address;
    3688:	87 2d       	mov	r24, r7
    368a:	90 e0       	ldi	r25, 0x00	; 0
    368c:	fc 01       	movw	r30, r24
    368e:	ee 0f       	add	r30, r30
    3690:	ff 1f       	adc	r31, r31
    3692:	e5 5e       	subi	r30, 0xE5	; 229
    3694:	f6 4c       	sbci	r31, 0xC6	; 198
    3696:	40 91 f2 38 	lds	r20, 0x38F2	; 0x8038f2 <actObj1.3995+0x18>
    369a:	50 91 f3 38 	lds	r21, 0x38F3	; 0x8038f3 <actObj1.3995+0x19>
    369e:	40 83       	st	Z, r20
    36a0:	51 83       	std	Z+1, r21	; 0x01
    reactStr[1][number]=length;
    36a2:	fc 01       	movw	r30, r24
    36a4:	ee 0f       	add	r30, r30
    36a6:	ff 1f       	adc	r31, r31
    36a8:	e5 5a       	subi	r30, 0xA5	; 165
    36aa:	f6 4c       	sbci	r31, 0xC6	; 198
    36ac:	20 83       	st	Z, r18
    36ae:	31 83       	std	Z+1, r19	; 0x01
    reactStr[2][number]=type;
    36b0:	88 0f       	add	r24, r24
    36b2:	99 1f       	adc	r25, r25
    36b4:	fc 01       	movw	r30, r24
    36b6:	e5 56       	subi	r30, 0x65	; 101
    36b8:	f6 4c       	sbci	r31, 0xC6	; 198
    36ba:	10 82       	st	Z, r1
    36bc:	11 82       	std	Z+1, r1	; 0x01
                                }

                            //Normal "use ... on ..." or "give ... to ..." action
                            } else if (actObj1.byteField[ACTION_ITEM] == actObj2.byteField[ITEM_NR]) {
                                SetResponse(elements++, actObj1.addrStr[ACTION_MSG], actObj1.lenStr[ACTION_MSG], GAME);
                                effect = actObj1.effect[2];
    36be:	80 91 04 39 	lds	r24, 0x3904	; 0x803904 <actObj1.3995+0x2a>
    36c2:	90 e0       	ldi	r25, 0x00	; 0
    36c4:	80 93 3a 38 	sts	0x383A, r24	; 0x80383a <effect>
    36c8:	90 93 3b 38 	sts	0x383B, r25	; 0x80383b <effect+0x1>
                                UpdateState(actObj1.byteField[ACTION_STATE]);
    36cc:	80 91 e4 38 	lds	r24, 0x38E4	; 0x8038e4 <actObj1.3995+0xa>
    36d0:	0e 94 c8 0a 	call	0x1590	; 0x1590 <UpdateState>
                                    SetResponse(elements++, A_ERROR, L_ERROR, TEASER);
                                }

                            //Normal "use ... on ..." or "give ... to ..." action
                            } else if (actObj1.byteField[ACTION_ITEM] == actObj2.byteField[ITEM_NR]) {
                                SetResponse(elements++, actObj1.addrStr[ACTION_MSG], actObj1.lenStr[ACTION_MSG], GAME);
    36d4:	7f 2c       	mov	r7, r15
    36d6:	af c2       	rjmp	.+1374   	; 0x3c36 <ProcessInput+0xffa>
                                effect = actObj1.effect[2];
                                UpdateState(actObj1.byteField[ACTION_STATE]);
                                
                            } else {
                                if (data[0] == 'u') {
    36d8:	d8 01       	movw	r26, r16
    36da:	8c 91       	ld	r24, X
    36dc:	85 37       	cpi	r24, 0x75	; 117
    36de:	99 f4       	brne	.+38     	; 0x3706 <ProcessInput+0xaca>
    return 0;
}

//
void SetResponse(uint8_t number, uint16_t address, uint16_t length, uint8_t type){
    reactStr[0][number]=address;
    36e0:	87 2d       	mov	r24, r7
    36e2:	90 e0       	ldi	r25, 0x00	; 0
    36e4:	fc 01       	movw	r30, r24
    36e6:	ee 0f       	add	r30, r30
    36e8:	ff 1f       	adc	r31, r31
    36ea:	e5 5e       	subi	r30, 0xE5	; 229
    36ec:	f6 4c       	sbci	r31, 0xC6	; 198
    36ee:	23 e0       	ldi	r18, 0x03	; 3
    36f0:	39 e7       	ldi	r19, 0x79	; 121
    36f2:	20 83       	st	Z, r18
    36f4:	31 83       	std	Z+1, r19	; 0x01
    reactStr[1][number]=length;
    36f6:	fc 01       	movw	r30, r24
    36f8:	ee 0f       	add	r30, r30
    36fa:	ff 1f       	adc	r31, r31
    36fc:	e5 5a       	subi	r30, 0xA5	; 165
    36fe:	f6 4c       	sbci	r31, 0xC6	; 198
    3700:	2a e1       	ldi	r18, 0x1A	; 26
    3702:	30 e0       	ldi	r19, 0x00	; 0
    3704:	15 c0       	rjmp	.+42     	; 0x3730 <ProcessInput+0xaf4>
                                UpdateState(actObj1.byteField[ACTION_STATE]);
                                
                            } else {
                                if (data[0] == 'u') {
                                    SetResponse(elements++, A_CANTUSE, L_CANTUSE, TEASER);
                                } else if (data[0] == 'g') {
    3706:	87 36       	cpi	r24, 0x67	; 103
    3708:	09 f0       	breq	.+2      	; 0x370c <ProcessInput+0xad0>
    370a:	95 c2       	rjmp	.+1322   	; 0x3c36 <ProcessInput+0xffa>
    return 0;
}

//
void SetResponse(uint8_t number, uint16_t address, uint16_t length, uint8_t type){
    reactStr[0][number]=address;
    370c:	87 2d       	mov	r24, r7
    370e:	90 e0       	ldi	r25, 0x00	; 0
    3710:	fc 01       	movw	r30, r24
    3712:	ee 0f       	add	r30, r30
    3714:	ff 1f       	adc	r31, r31
    3716:	e5 5e       	subi	r30, 0xE5	; 229
    3718:	f6 4c       	sbci	r31, 0xC6	; 198
    371a:	2c ed       	ldi	r18, 0xDC	; 220
    371c:	36 e7       	ldi	r19, 0x76	; 118
    371e:	20 83       	st	Z, r18
    3720:	31 83       	std	Z+1, r19	; 0x01
    reactStr[1][number]=length;
    3722:	fc 01       	movw	r30, r24
    3724:	ee 0f       	add	r30, r30
    3726:	ff 1f       	adc	r31, r31
    3728:	e5 5a       	subi	r30, 0xA5	; 165
    372a:	f6 4c       	sbci	r31, 0xC6	; 198
    372c:	28 e2       	ldi	r18, 0x28	; 40
    372e:	30 e0       	ldi	r19, 0x00	; 0
    3730:	20 83       	st	Z, r18
    3732:	31 83       	std	Z+1, r19	; 0x01
    reactStr[2][number]=type;
    3734:	88 0f       	add	r24, r24
    3736:	99 1f       	adc	r25, r25
    3738:	fc 01       	movw	r30, r24
    373a:	e5 56       	subi	r30, 0x65	; 101
    373c:	f6 4c       	sbci	r31, 0xC6	; 198
    373e:	81 e0       	ldi	r24, 0x01	; 1
    3740:	90 e0       	ldi	r25, 0x00	; 0
    3742:	80 83       	st	Z, r24
    3744:	91 83       	std	Z+1, r25	; 0x01
                                
                            } else {
                                if (data[0] == 'u') {
                                    SetResponse(elements++, A_CANTUSE, L_CANTUSE, TEASER);
                                } else if (data[0] == 'g') {
                                    SetResponse(elements++, A_CANTGIVE, L_CANTGIVE, TEASER);                                    
    3746:	73 94       	inc	r7
    3748:	76 c2       	rjmp	.+1260   	; 0x3c36 <ProcessInput+0xffa>
                            }
                        }
                    
                    //Talk to person, read or use object (without item)                          
                    } else {
                        PopulateObject(route[currDepth+1], &actObj1);
    374a:	6a ed       	ldi	r22, 0xDA	; 218
    374c:	78 e3       	ldi	r23, 0x38	; 56
    374e:	0e 94 64 11 	call	0x22c8	; 0x22c8 <PopulateObject>
                        if ((data[0] == 't')&&((actObj1.byteField[ACTION_MASK]&TALK) == 0)) {
    3752:	f8 01       	movw	r30, r16
    3754:	80 81       	ld	r24, Z
    3756:	84 37       	cpi	r24, 0x74	; 116
    3758:	69 f5       	brne	.+90     	; 0x37b4 <ProcessInput+0xb78>
    375a:	80 91 e2 38 	lds	r24, 0x38E2	; 0x8038e2 <actObj1.3995+0x8>
    375e:	83 fd       	sbrc	r24, 3
    3760:	4a c0       	rjmp	.+148    	; 0x37f6 <ProcessInput+0xbba>
    return 0;
}

//
void SetResponse(uint8_t number, uint16_t address, uint16_t length, uint8_t type){
    reactStr[0][number]=address;
    3762:	8d e1       	ldi	r24, 0x1D	; 29
    3764:	99 e7       	ldi	r25, 0x79	; 121
    3766:	80 93 1d 39 	sts	0x391D, r24	; 0x80391d <reactStr+0x2>
    376a:	90 93 1e 39 	sts	0x391E, r25	; 0x80391e <reactStr+0x3>
    reactStr[1][number]=length;
    376e:	8e e1       	ldi	r24, 0x1E	; 30
    3770:	90 e0       	ldi	r25, 0x00	; 0
    3772:	80 93 5d 39 	sts	0x395D, r24	; 0x80395d <reactStr+0x42>
    3776:	90 93 5e 39 	sts	0x395E, r25	; 0x80395e <reactStr+0x43>
    reactStr[2][number]=type;
    377a:	81 e0       	ldi	r24, 0x01	; 1
    377c:	90 e0       	ldi	r25, 0x00	; 0
    377e:	80 93 9d 39 	sts	0x399D, r24	; 0x80399d <reactStr+0x82>
    3782:	90 93 9e 39 	sts	0x399E, r25	; 0x80399e <reactStr+0x83>
                    //Talk to person, read or use object (without item)                          
                    } else {
                        PopulateObject(route[currDepth+1], &actObj1);
                        if ((data[0] == 't')&&((actObj1.byteField[ACTION_MASK]&TALK) == 0)) {
                            SetResponse(elements++, A_WHYTALK, L_WHYTALK, TEASER);
                            SetResponse(elements++, actObj1.addrStr[NAME], actObj1.lenStr[NAME], GAME);
    3786:	80 91 f4 38 	lds	r24, 0x38F4	; 0x8038f4 <actObj1.3995+0x1a>
    378a:	90 91 f5 38 	lds	r25, 0x38F5	; 0x8038f5 <actObj1.3995+0x1b>
    return 0;
}

//
void SetResponse(uint8_t number, uint16_t address, uint16_t length, uint8_t type){
    reactStr[0][number]=address;
    378e:	20 91 e6 38 	lds	r18, 0x38E6	; 0x8038e6 <actObj1.3995+0xc>
    3792:	30 91 e7 38 	lds	r19, 0x38E7	; 0x8038e7 <actObj1.3995+0xd>
    3796:	20 93 1f 39 	sts	0x391F, r18	; 0x80391f <reactStr+0x4>
    379a:	30 93 20 39 	sts	0x3920, r19	; 0x803920 <reactStr+0x5>
    reactStr[1][number]=length;
    379e:	80 93 5f 39 	sts	0x395F, r24	; 0x80395f <reactStr+0x44>
    37a2:	90 93 60 39 	sts	0x3960, r25	; 0x803960 <reactStr+0x45>
    reactStr[2][number]=type;
    37a6:	10 92 9f 39 	sts	0x399F, r1	; 0x80399f <reactStr+0x84>
    37aa:	10 92 a0 39 	sts	0x39A0, r1	; 0x8039a0 <reactStr+0x85>
                    //Talk to person, read or use object (without item)                          
                    } else {
                        PopulateObject(route[currDepth+1], &actObj1);
                        if ((data[0] == 't')&&((actObj1.byteField[ACTION_MASK]&TALK) == 0)) {
                            SetResponse(elements++, A_WHYTALK, L_WHYTALK, TEASER);
                            SetResponse(elements++, actObj1.addrStr[NAME], actObj1.lenStr[NAME], GAME);
    37ae:	e3 e0       	ldi	r30, 0x03	; 3
    37b0:	7e 2e       	mov	r7, r30
    37b2:	41 c2       	rjmp	.+1154   	; 0x3c36 <ProcessInput+0xffa>
                        } else if ((data[0] == 'u')&&((actObj1.byteField[ACTION_MASK]&USE) == 0)) {
    37b4:	85 37       	cpi	r24, 0x75	; 117
    37b6:	69 f4       	brne	.+26     	; 0x37d2 <ProcessInput+0xb96>
    37b8:	80 91 e2 38 	lds	r24, 0x38E2	; 0x8038e2 <actObj1.3995+0x8>
    37bc:	84 fd       	sbrc	r24, 4
    37be:	1b c0       	rjmp	.+54     	; 0x37f6 <ProcessInput+0xbba>
    return 0;
}

//
void SetResponse(uint8_t number, uint16_t address, uint16_t length, uint8_t type){
    reactStr[0][number]=address;
    37c0:	83 e0       	ldi	r24, 0x03	; 3
    37c2:	99 e7       	ldi	r25, 0x79	; 121
    37c4:	80 93 1d 39 	sts	0x391D, r24	; 0x80391d <reactStr+0x2>
    37c8:	90 93 1e 39 	sts	0x391E, r25	; 0x80391e <reactStr+0x3>
    reactStr[1][number]=length;
    37cc:	8a e1       	ldi	r24, 0x1A	; 26
    37ce:	90 e0       	ldi	r25, 0x00	; 0
    37d0:	f9 ca       	rjmp	.-2574   	; 0x2dc4 <ProcessInput+0x188>
                        if ((data[0] == 't')&&((actObj1.byteField[ACTION_MASK]&TALK) == 0)) {
                            SetResponse(elements++, A_WHYTALK, L_WHYTALK, TEASER);
                            SetResponse(elements++, actObj1.addrStr[NAME], actObj1.lenStr[NAME], GAME);
                        } else if ((data[0] == 'u')&&((actObj1.byteField[ACTION_MASK]&USE) == 0)) {
                            SetResponse(elements++, A_CANTUSE, L_CANTUSE, TEASER);
                        } else if ((data[0] == 'r')&&((actObj1.byteField[ACTION_MASK]&READ) == 0)) {
    37d2:	82 37       	cpi	r24, 0x72	; 114
    37d4:	69 f4       	brne	.+26     	; 0x37f0 <ProcessInput+0xbb4>
    37d6:	80 91 e2 38 	lds	r24, 0x38E2	; 0x8038e2 <actObj1.3995+0x8>
    37da:	85 fd       	sbrc	r24, 5
    37dc:	0c c0       	rjmp	.+24     	; 0x37f6 <ProcessInput+0xbba>
    return 0;
}

//
void SetResponse(uint8_t number, uint16_t address, uint16_t length, uint8_t type){
    reactStr[0][number]=address;
    37de:	88 ee       	ldi	r24, 0xE8	; 232
    37e0:	98 e7       	ldi	r25, 0x78	; 120
    37e2:	80 93 1d 39 	sts	0x391D, r24	; 0x80391d <reactStr+0x2>
    37e6:	90 93 1e 39 	sts	0x391E, r25	; 0x80391e <reactStr+0x3>
    reactStr[1][number]=length;
    37ea:	8b e1       	ldi	r24, 0x1B	; 27
    37ec:	90 e0       	ldi	r25, 0x00	; 0
    37ee:	ea ca       	rjmp	.-2604   	; 0x2dc4 <ProcessInput+0x188>
                            SetResponse(elements++, actObj1.addrStr[NAME], actObj1.lenStr[NAME], GAME);
                        } else if ((data[0] == 'u')&&((actObj1.byteField[ACTION_MASK]&USE) == 0)) {
                            SetResponse(elements++, A_CANTUSE, L_CANTUSE, TEASER);
                        } else if ((data[0] == 'r')&&((actObj1.byteField[ACTION_MASK]&READ) == 0)) {
                            SetResponse(elements++, A_CANTREAD, L_CANTREAD, TEASER);
                        } else if (data[0] == 'g'){ 
    37f0:	87 36       	cpi	r24, 0x67	; 103
    37f2:	09 f4       	brne	.+2      	; 0x37f6 <ProcessInput+0xbba>
    37f4:	52 ca       	rjmp	.-2908   	; 0x2c9a <ProcessInput+0x5e>
                            SetResponse(elements++, A_NOTPOSSIBLE, L_NOTPOSSIBLE, TEASER);  
                        } else {

                            //Special game, not enough characters
                            if (actObj1.lenStr[ACTION_STR1] == 1) {
    37f6:	e0 90 f8 38 	lds	r14, 0x38F8	; 0x8038f8 <actObj1.3995+0x1e>
    37fa:	f0 90 f9 38 	lds	r15, 0x38F9	; 0x8038f9 <actObj1.3995+0x1f>
    37fe:	f1 e0       	ldi	r31, 0x01	; 1
    3800:	ef 16       	cp	r14, r31
    3802:	f1 04       	cpc	r15, r1
    3804:	11 f5       	brne	.+68     	; 0x384a <ProcessInput+0xc0e>
                                ExtEERead(actObj1.addrStr[ACTION_STR1], 1, GAME, &data[2]);
    3806:	98 01       	movw	r18, r16
    3808:	2e 5f       	subi	r18, 0xFE	; 254
    380a:	3f 4f       	sbci	r19, 0xFF	; 255
    380c:	40 e0       	ldi	r20, 0x00	; 0
    380e:	61 e0       	ldi	r22, 0x01	; 1
    3810:	80 91 ea 38 	lds	r24, 0x38EA	; 0x8038ea <actObj1.3995+0x10>
    3814:	90 91 eb 38 	lds	r25, 0x38EB	; 0x8038eb <actObj1.3995+0x11>
    3818:	0e 94 54 10 	call	0x20a8	; 0x20a8 <ExtEERead>
                                if (data[2] == '1') {
    381c:	d8 01       	movw	r26, r16
    381e:	12 96       	adiw	r26, 0x02	; 2
    3820:	8c 91       	ld	r24, X
    3822:	81 33       	cpi	r24, 0x31	; 49
    3824:	09 f0       	breq	.+2      	; 0x3828 <ProcessInput+0xbec>
    3826:	8a cc       	rjmp	.-1772   	; 0x313c <ProcessInput+0x500>
    return 0;
}

//
void SetResponse(uint8_t number, uint16_t address, uint16_t length, uint8_t type){
    reactStr[0][number]=address;
    3828:	82 e6       	ldi	r24, 0x62	; 98
    382a:	95 e7       	ldi	r25, 0x75	; 117
    382c:	80 93 1d 39 	sts	0x391D, r24	; 0x80391d <reactStr+0x2>
    3830:	90 93 1e 39 	sts	0x391E, r25	; 0x80391e <reactStr+0x3>
    reactStr[1][number]=length;
    3834:	8b e2       	ldi	r24, 0x2B	; 43
    3836:	90 e0       	ldi	r25, 0x00	; 0
    3838:	80 93 5d 39 	sts	0x395D, r24	; 0x80395d <reactStr+0x42>
    383c:	90 93 5e 39 	sts	0x395E, r25	; 0x80395e <reactStr+0x43>
    reactStr[2][number]=type;
    3840:	e0 92 9d 39 	sts	0x399D, r14	; 0x80399d <reactStr+0x82>
    3844:	f0 92 9e 39 	sts	0x399E, r15	; 0x80399e <reactStr+0x83>
    3848:	c7 ca       	rjmp	.-2674   	; 0x2dd8 <ProcessInput+0x19c>
                                if (data[2] == '1') {
                                    SetResponse(elements++, A_PLEASEOFFER, L_PLEASEOFFER, TEASER);
                                }

                            //General request
                            } else if (actObj1.lenStr[ACTION_STR1]) {
    384a:	e1 14       	cp	r14, r1
    384c:	f1 04       	cpc	r15, r1
    384e:	09 f4       	brne	.+2      	; 0x3852 <ProcessInput+0xc16>
    3850:	59 c0       	rjmp	.+178    	; 0x3904 <ProcessInput+0xcc8>
    return 0;
}

//
void SetResponse(uint8_t number, uint16_t address, uint16_t length, uint8_t type){
    reactStr[0][number]=address;
    3852:	80 91 ea 38 	lds	r24, 0x38EA	; 0x8038ea <actObj1.3995+0x10>
    3856:	90 91 eb 38 	lds	r25, 0x38EB	; 0x8038eb <actObj1.3995+0x11>
    385a:	80 93 1d 39 	sts	0x391D, r24	; 0x80391d <reactStr+0x2>
    385e:	90 93 1e 39 	sts	0x391E, r25	; 0x80391e <reactStr+0x3>
    reactStr[1][number]=length;
    3862:	e0 92 5d 39 	sts	0x395D, r14	; 0x80395d <reactStr+0x42>
    3866:	f0 92 5e 39 	sts	0x395E, r15	; 0x80395e <reactStr+0x43>
    reactStr[2][number]=type;
    386a:	10 92 9d 39 	sts	0x399D, r1	; 0x80399d <reactStr+0x82>
    386e:	10 92 9e 39 	sts	0x399E, r1	; 0x80399e <reactStr+0x83>
    return 0;
}

//
void SetResponse(uint8_t number, uint16_t address, uint16_t length, uint8_t type){
    reactStr[0][number]=address;
    3872:	8b e5       	ldi	r24, 0x5B	; 91
    3874:	9a e7       	ldi	r25, 0x7A	; 122
    3876:	80 93 1f 39 	sts	0x391F, r24	; 0x80391f <reactStr+0x4>
    387a:	90 93 20 39 	sts	0x3920, r25	; 0x803920 <reactStr+0x5>
    reactStr[1][number]=length;
    387e:	82 e0       	ldi	r24, 0x02	; 2
    3880:	90 e0       	ldi	r25, 0x00	; 0
    3882:	80 93 5f 39 	sts	0x395F, r24	; 0x80395f <reactStr+0x44>
    3886:	90 93 60 39 	sts	0x3960, r25	; 0x803960 <reactStr+0x45>
    reactStr[2][number]=type;
    388a:	81 e0       	ldi	r24, 0x01	; 1
    388c:	90 e0       	ldi	r25, 0x00	; 0
    388e:	80 93 9f 39 	sts	0x399F, r24	; 0x80399f <reactStr+0x84>
    3892:	90 93 a0 39 	sts	0x39A0, r25	; 0x8039a0 <reactStr+0x85>
    return 0;
}

//
void SetResponse(uint8_t number, uint16_t address, uint16_t length, uint8_t type){
    reactStr[0][number]=address;
    3896:	2f ea       	ldi	r18, 0xAF	; 175
    3898:	38 e7       	ldi	r19, 0x78	; 120
    389a:	20 93 21 39 	sts	0x3921, r18	; 0x803921 <reactStr+0x6>
    389e:	30 93 22 39 	sts	0x3922, r19	; 0x803922 <reactStr+0x7>
    reactStr[1][number]=length;
    38a2:	22 e1       	ldi	r18, 0x12	; 18
    38a4:	30 e0       	ldi	r19, 0x00	; 0
    38a6:	20 93 61 39 	sts	0x3961, r18	; 0x803961 <reactStr+0x46>
    38aa:	30 93 62 39 	sts	0x3962, r19	; 0x803962 <reactStr+0x47>
    reactStr[2][number]=type;
    38ae:	80 93 a1 39 	sts	0x39A1, r24	; 0x8039a1 <reactStr+0x86>
    38b2:	90 93 a2 39 	sts	0x39A2, r25	; 0x8039a2 <reactStr+0x87>
                            //General request
                            } else if (actObj1.lenStr[ACTION_STR1]) {
                                SetResponse(elements++, actObj1.addrStr[ACTION_STR1], actObj1.lenStr[ACTION_STR1], GAME);
                                SetResponse(elements++, A_LF, 2, TEASER);
                                SetResponse(elements++, A_RESPONSE, L_RESPONSE, TEASER);
                                if (actObj1.lenStr[ACTION_STR2]>(INP_LENGTH-1)) actObj1.lenStr[ACTION_STR2] = (INP_LENGTH-1);
    38b6:	80 91 fa 38 	lds	r24, 0x38FA	; 0x8038fa <actObj1.3995+0x20>
    38ba:	90 91 fb 38 	lds	r25, 0x38FB	; 0x8038fb <actObj1.3995+0x21>
    38be:	40 97       	sbiw	r24, 0x10	; 16
    38c0:	30 f0       	brcs	.+12     	; 0x38ce <ProcessInput+0xc92>
    38c2:	8f e0       	ldi	r24, 0x0F	; 15
    38c4:	90 e0       	ldi	r25, 0x00	; 0
    38c6:	80 93 fa 38 	sts	0x38FA, r24	; 0x8038fa <actObj1.3995+0x20>
    38ca:	90 93 fb 38 	sts	0x38FB, r25	; 0x8038fb <actObj1.3995+0x21>
                                ExtEERead(actObj1.addrStr[ACTION_STR2], actObj1.lenStr[ACTION_STR2], GAME, (uint8_t *)&specialInput[0]);
    38ce:	2a e0       	ldi	r18, 0x0A	; 10
    38d0:	39 e3       	ldi	r19, 0x39	; 57
    38d2:	40 e0       	ldi	r20, 0x00	; 0
    38d4:	60 91 fa 38 	lds	r22, 0x38FA	; 0x8038fa <actObj1.3995+0x20>
    38d8:	80 91 ec 38 	lds	r24, 0x38EC	; 0x8038ec <actObj1.3995+0x12>
    38dc:	90 91 ed 38 	lds	r25, 0x38ED	; 0x8038ed <actObj1.3995+0x13>
    38e0:	0e 94 54 10 	call	0x20a8	; 0x20a8 <ExtEERead>
                                UnflipData(actObj1.lenStr[ACTION_STR2], (uint8_t *)&specialInput[0]);
    38e4:	6a e0       	ldi	r22, 0x0A	; 10
    38e6:	79 e3       	ldi	r23, 0x39	; 57
    38e8:	80 91 fa 38 	lds	r24, 0x38FA	; 0x8038fa <actObj1.3995+0x20>
    38ec:	0e 94 47 10 	call	0x208e	; 0x208e <UnflipData>
                                specialInput[actObj1.lenStr[ACTION_STR2]] = 0;
    38f0:	e0 91 fa 38 	lds	r30, 0x38FA	; 0x8038fa <actObj1.3995+0x20>
    38f4:	f0 91 fb 38 	lds	r31, 0x38FB	; 0x8038fb <actObj1.3995+0x21>
    38f8:	e6 5f       	subi	r30, 0xF6	; 246
    38fa:	f6 4c       	sbci	r31, 0xC6	; 198
    38fc:	10 82       	st	Z, r1

                            //General request
                            } else if (actObj1.lenStr[ACTION_STR1]) {
                                SetResponse(elements++, actObj1.addrStr[ACTION_STR1], actObj1.lenStr[ACTION_STR1], GAME);
                                SetResponse(elements++, A_LF, 2, TEASER);
                                SetResponse(elements++, A_RESPONSE, L_RESPONSE, TEASER);
    38fe:	74 e0       	ldi	r23, 0x04	; 4
    3900:	77 2e       	mov	r7, r23
    3902:	99 c1       	rjmp	.+818    	; 0x3c36 <ProcessInput+0xffa>
                                ExtEERead(actObj1.addrStr[ACTION_STR2], actObj1.lenStr[ACTION_STR2], GAME, (uint8_t *)&specialInput[0]);
                                UnflipData(actObj1.lenStr[ACTION_STR2], (uint8_t *)&specialInput[0]);
                                specialInput[actObj1.lenStr[ACTION_STR2]] = 0;
                            
                            //Normal action    
                            } else if (CheckState(actObj1.byteField[ACTION_ACL])){
    3904:	80 91 e1 38 	lds	r24, 0x38E1	; 0x8038e1 <actObj1.3995+0x7>
    3908:	0e 94 d2 0a 	call	0x15a4	; 0x15a4 <CheckState>
    390c:	88 23       	and	r24, r24
    390e:	01 f1       	breq	.+64     	; 0x3950 <ProcessInput+0xd14>
                                SetResponse(elements++, actObj1.addrStr[ACTION_MSG], actObj1.lenStr[ACTION_MSG], GAME);
    3910:	80 91 00 39 	lds	r24, 0x3900	; 0x803900 <actObj1.3995+0x26>
    3914:	90 91 01 39 	lds	r25, 0x3901	; 0x803901 <actObj1.3995+0x27>
    return 0;
}

//
void SetResponse(uint8_t number, uint16_t address, uint16_t length, uint8_t type){
    reactStr[0][number]=address;
    3918:	20 91 f2 38 	lds	r18, 0x38F2	; 0x8038f2 <actObj1.3995+0x18>
    391c:	30 91 f3 38 	lds	r19, 0x38F3	; 0x8038f3 <actObj1.3995+0x19>
    3920:	20 93 1d 39 	sts	0x391D, r18	; 0x80391d <reactStr+0x2>
    3924:	30 93 1e 39 	sts	0x391E, r19	; 0x80391e <reactStr+0x3>
    reactStr[1][number]=length;
    3928:	80 93 5d 39 	sts	0x395D, r24	; 0x80395d <reactStr+0x42>
    392c:	90 93 5e 39 	sts	0x395E, r25	; 0x80395e <reactStr+0x43>
    reactStr[2][number]=type;
    3930:	10 92 9d 39 	sts	0x399D, r1	; 0x80399d <reactStr+0x82>
    3934:	10 92 9e 39 	sts	0x399E, r1	; 0x80399e <reactStr+0x83>
                                specialInput[actObj1.lenStr[ACTION_STR2]] = 0;
                            
                            //Normal action    
                            } else if (CheckState(actObj1.byteField[ACTION_ACL])){
                                SetResponse(elements++, actObj1.addrStr[ACTION_MSG], actObj1.lenStr[ACTION_MSG], GAME);
                                effect = actObj1.effect[2];
    3938:	80 91 04 39 	lds	r24, 0x3904	; 0x803904 <actObj1.3995+0x2a>
    393c:	90 e0       	ldi	r25, 0x00	; 0
    393e:	80 93 3a 38 	sts	0x383A, r24	; 0x80383a <effect>
    3942:	90 93 3b 38 	sts	0x383B, r25	; 0x80383b <effect+0x1>
                                UpdateState(actObj1.byteField[ACTION_STATE]);
    3946:	80 91 e4 38 	lds	r24, 0x38E4	; 0x8038e4 <actObj1.3995+0xa>
    394a:	0e 94 c8 0a 	call	0x1590	; 0x1590 <UpdateState>
    394e:	44 ca       	rjmp	.-2936   	; 0x2dd8 <ProcessInput+0x19c>
                            } else {
                                SetResponse(elements++, actObj1.addrStr[ACTION_ACL_MSG], actObj1.lenStr[ACTION_ACL_MSG], GAME);
    3950:	80 91 fe 38 	lds	r24, 0x38FE	; 0x8038fe <actObj1.3995+0x24>
    3954:	90 91 ff 38 	lds	r25, 0x38FF	; 0x8038ff <actObj1.3995+0x25>
    return 0;
}

//
void SetResponse(uint8_t number, uint16_t address, uint16_t length, uint8_t type){
    reactStr[0][number]=address;
    3958:	20 91 f0 38 	lds	r18, 0x38F0	; 0x8038f0 <actObj1.3995+0x16>
    395c:	30 91 f1 38 	lds	r19, 0x38F1	; 0x8038f1 <actObj1.3995+0x17>
    3960:	20 93 1d 39 	sts	0x391D, r18	; 0x80391d <reactStr+0x2>
    3964:	30 93 1e 39 	sts	0x391E, r19	; 0x80391e <reactStr+0x3>
    reactStr[1][number]=length;
    3968:	80 93 5d 39 	sts	0x395D, r24	; 0x80395d <reactStr+0x42>
    396c:	90 93 5e 39 	sts	0x395E, r25	; 0x80395e <reactStr+0x43>
    reactStr[2][number]=type;
    3970:	10 92 9d 39 	sts	0x399D, r1	; 0x80399d <reactStr+0x82>
    3974:	10 92 9e 39 	sts	0x399E, r1	; 0x80399e <reactStr+0x83>
                                SetResponse(elements++, actObj1.addrStr[ACTION_MSG], actObj1.lenStr[ACTION_MSG], GAME);
                                effect = actObj1.effect[2];
                                UpdateState(actObj1.byteField[ACTION_STATE]);
                            } else {
                                SetResponse(elements++, actObj1.addrStr[ACTION_ACL_MSG], actObj1.lenStr[ACTION_ACL_MSG], GAME);
                                effect = actObj1.effect[1];
    3978:	80 91 03 39 	lds	r24, 0x3903	; 0x803903 <actObj1.3995+0x29>
    397c:	90 e0       	ldi	r25, 0x00	; 0
    397e:	80 93 3a 38 	sts	0x383A, r24	; 0x80383a <effect>
    3982:	90 93 3b 38 	sts	0x383B, r25	; 0x80383b <effect+0x1>
    3986:	28 ca       	rjmp	.-2992   	; 0x2dd8 <ProcessInput+0x19c>
                        }
                    }

                //Person or object not found
                } else {
                    if ((data[0] == 't')||(data[0] == 'g')){
    3988:	f8 01       	movw	r30, r16
    398a:	80 81       	ld	r24, Z
    398c:	84 37       	cpi	r24, 0x74	; 116
    398e:	11 f0       	breq	.+4      	; 0x3994 <ProcessInput+0xd58>
    3990:	87 36       	cpi	r24, 0x67	; 103
    3992:	19 f4       	brne	.+6      	; 0x399a <ProcessInput+0xd5e>
    return 0;
}

//
void SetResponse(uint8_t number, uint16_t address, uint16_t length, uint8_t type){
    reactStr[0][number]=address;
    3994:	8b e3       	ldi	r24, 0x3B	; 59
    3996:	99 e7       	ldi	r25, 0x79	; 121
    3998:	02 c0       	rjmp	.+4      	; 0x399e <ProcessInput+0xd62>
    399a:	8f e4       	ldi	r24, 0x4F	; 79
    399c:	99 e7       	ldi	r25, 0x79	; 121
    399e:	80 93 1d 39 	sts	0x391D, r24	; 0x80391d <reactStr+0x2>
    39a2:	90 93 1e 39 	sts	0x391E, r25	; 0x80391e <reactStr+0x3>
    reactStr[1][number]=length;
    39a6:	84 e1       	ldi	r24, 0x14	; 20
    39a8:	90 e0       	ldi	r25, 0x00	; 0
    39aa:	0c ca       	rjmp	.-3048   	; 0x2dc4 <ProcessInput+0x188>
                    }
                }
            }
        
        //Special answer given
        } else if (data[0] == 'a'){
    39ac:	81 36       	cpi	r24, 0x61	; 97
    39ae:	09 f0       	breq	.+2      	; 0x39b2 <ProcessInput+0xd76>
    39b0:	c5 cb       	rjmp	.-2166   	; 0x313c <ProcessInput+0x500>
            
            //Priest offerings
            if (specialPassed >= 2) {
    39b2:	80 91 09 39 	lds	r24, 0x3909	; 0x803909 <specialPassed>
    39b6:	82 30       	cpi	r24, 0x02	; 2
    39b8:	08 f4       	brcc	.+2      	; 0x39bc <ProcessInput+0xd80>
    39ba:	cb c0       	rjmp	.+406    	; 0x3b52 <ProcessInput+0xf16>
                if (data[1] > 0) {
    39bc:	d8 01       	movw	r26, r16
    39be:	11 96       	adiw	r26, 0x01	; 1
    39c0:	2c 91       	ld	r18, X
    39c2:	22 23       	and	r18, r18
    39c4:	09 f4       	brne	.+2      	; 0x39c8 <ProcessInput+0xd8c>
    39c6:	b2 c0       	rjmp	.+356    	; 0x3b2c <ProcessInput+0xef0>

                    //uint8_t  digit[10] = {0, 0, 0, 0, 0, 0, 0, 0, 0, 0};
                    uint8_t  digit[8] = {0, 0, 0, 0, 0, 0, 0, 0};
    39c8:	fe 01       	movw	r30, r28
    39ca:	31 96       	adiw	r30, 0x01	; 1
    39cc:	7f 01       	movw	r14, r30
    39ce:	88 e0       	ldi	r24, 0x08	; 8
    39d0:	df 01       	movw	r26, r30
    39d2:	1d 92       	st	X+, r1
    39d4:	8a 95       	dec	r24
    39d6:	e9 f7       	brne	.-6      	; 0x39d2 <ProcessInput+0xd96>
                        answer = ((offering  & 2) << 19) + ((offering  & 1) << 8) + \
                        ((element   & 2) << 15) + ((element   & 1) << 4) + \
                        ((kneelings & 2) << 11) + ((kneelings & 1))
                        answer = answer << (3-person)
                    */
                    data[1]-='1';
    39d8:	21 53       	subi	r18, 0x31	; 49
    39da:	f8 01       	movw	r30, r16
    39dc:	21 83       	std	Z+1, r18	; 0x01
                    data[2]-='1';
    39de:	32 81       	ldd	r19, Z+2	; 0x02
    39e0:	31 53       	subi	r19, 0x31	; 49
    39e2:	32 83       	std	Z+2, r19	; 0x02
                    if (data[3] == 'a') data[3] = 1;
    39e4:	83 81       	ldd	r24, Z+3	; 0x03
    39e6:	81 36       	cpi	r24, 0x61	; 97
    39e8:	11 f4       	brne	.+4      	; 0x39ee <ProcessInput+0xdb2>
    39ea:	81 e0       	ldi	r24, 0x01	; 1
    39ec:	08 c0       	rjmp	.+16     	; 0x39fe <ProcessInput+0xdc2>
                    else if (data[3] == 'e') data[3] = 0;
    39ee:	85 36       	cpi	r24, 0x65	; 101
    39f0:	11 f4       	brne	.+4      	; 0x39f6 <ProcessInput+0xdba>
    39f2:	13 82       	std	Z+3, r1	; 0x03
    39f4:	08 c0       	rjmp	.+16     	; 0x3a06 <ProcessInput+0xdca>
                    else if (data[3] == 'f') data[3] = 3;
    39f6:	86 36       	cpi	r24, 0x66	; 102
    39f8:	21 f4       	brne	.+8      	; 0x3a02 <ProcessInput+0xdc6>
    39fa:	83 e0       	ldi	r24, 0x03	; 3
    39fc:	f8 01       	movw	r30, r16
    39fe:	83 83       	std	Z+3, r24	; 0x03
    3a00:	02 c0       	rjmp	.+4      	; 0x3a06 <ProcessInput+0xdca>
                    else data[3] = 2;
    3a02:	82 e0       	ldi	r24, 0x02	; 2
    3a04:	83 83       	std	Z+3, r24	; 0x03

                    if (data[1] & 2) answer += (1UL << 20);
    3a06:	21 fd       	sbrc	r18, 1
    3a08:	04 c0       	rjmp	.+8      	; 0x3a12 <ProcessInput+0xdd6>
            if (specialPassed >= 2) {
                if (data[1] > 0) {

                    //uint8_t  digit[10] = {0, 0, 0, 0, 0, 0, 0, 0, 0, 0};
                    uint8_t  digit[8] = {0, 0, 0, 0, 0, 0, 0, 0};
                    uint32_t answer = 0;
    3a0a:	80 e0       	ldi	r24, 0x00	; 0
    3a0c:	90 e0       	ldi	r25, 0x00	; 0
    3a0e:	dc 01       	movw	r26, r24
    3a10:	04 c0       	rjmp	.+8      	; 0x3a1a <ProcessInput+0xdde>
                    if (data[3] == 'a') data[3] = 1;
                    else if (data[3] == 'e') data[3] = 0;
                    else if (data[3] == 'f') data[3] = 3;
                    else data[3] = 2;

                    if (data[1] & 2) answer += (1UL << 20);
    3a12:	80 e0       	ldi	r24, 0x00	; 0
    3a14:	90 e0       	ldi	r25, 0x00	; 0
    3a16:	a0 e1       	ldi	r26, 0x10	; 16
    3a18:	b0 e0       	ldi	r27, 0x00	; 0
                    if (data[1] & 1) answer += (1 << 8);
    3a1a:	20 ff       	sbrs	r18, 0
    3a1c:	03 c0       	rjmp	.+6      	; 0x3a24 <ProcessInput+0xde8>
    3a1e:	9f 5f       	subi	r25, 0xFF	; 255
    3a20:	af 4f       	sbci	r26, 0xFF	; 255
    3a22:	bf 4f       	sbci	r27, 0xFF	; 255
                    if (data[3] & 2) answer += (1UL << 16);
    3a24:	f8 01       	movw	r30, r16
    3a26:	23 81       	ldd	r18, Z+3	; 0x03
    3a28:	21 fd       	sbrc	r18, 1
    3a2a:	11 96       	adiw	r26, 0x01	; 1
                    if (data[3] & 1) answer += (1 << 4);
    3a2c:	20 ff       	sbrs	r18, 0
    3a2e:	03 c0       	rjmp	.+6      	; 0x3a36 <ProcessInput+0xdfa>
    3a30:	40 96       	adiw	r24, 0x10	; 16
    3a32:	a1 1d       	adc	r26, r1
    3a34:	b1 1d       	adc	r27, r1
                    if (data[2] & 2) answer += (1 << 12);
    3a36:	31 ff       	sbrs	r19, 1
    3a38:	03 c0       	rjmp	.+6      	; 0x3a40 <ProcessInput+0xe04>
    3a3a:	90 5f       	subi	r25, 0xF0	; 240
    3a3c:	af 4f       	sbci	r26, 0xFF	; 255
    3a3e:	bf 4f       	sbci	r27, 0xFF	; 255
                    if (data[2] & 1) answer += 1;
    3a40:	30 ff       	sbrs	r19, 0
    3a42:	03 c0       	rjmp	.+6      	; 0x3a4a <ProcessInput+0xe0e>
    3a44:	01 96       	adiw	r24, 0x01	; 1
    3a46:	a1 1d       	adc	r26, r1
    3a48:	b1 1d       	adc	r27, r1
                    answer <<= (4 - whoami);            
    3a4a:	40 91 3d 38 	lds	r20, 0x383D	; 0x80383d <whoami>
    3a4e:	24 e0       	ldi	r18, 0x04	; 4
    3a50:	30 e0       	ldi	r19, 0x00	; 0
    3a52:	24 1b       	sub	r18, r20
    3a54:	31 09       	sbc	r19, r1
    3a56:	04 c0       	rjmp	.+8      	; 0x3a60 <ProcessInput+0xe24>
    3a58:	88 0f       	add	r24, r24
    3a5a:	99 1f       	adc	r25, r25
    3a5c:	aa 1f       	adc	r26, r26
    3a5e:	bb 1f       	adc	r27, r27
    3a60:	2a 95       	dec	r18
    3a62:	d2 f7       	brpl	.-12     	; 0x3a58 <ProcessInput+0xe1c>
    return 0;
}

//
void SetResponse(uint8_t number, uint16_t address, uint16_t length, uint8_t type){
    reactStr[0][number]=address;
    3a64:	25 e0       	ldi	r18, 0x05	; 5
    3a66:	35 e7       	ldi	r19, 0x75	; 117
    3a68:	20 93 1d 39 	sts	0x391D, r18	; 0x80391d <reactStr+0x2>
    3a6c:	30 93 1e 39 	sts	0x391E, r19	; 0x80391e <reactStr+0x3>
    reactStr[1][number]=length;
    3a70:	20 e2       	ldi	r18, 0x20	; 32
    3a72:	30 e0       	ldi	r19, 0x00	; 0
    3a74:	20 93 5d 39 	sts	0x395D, r18	; 0x80395d <reactStr+0x42>
    3a78:	30 93 5e 39 	sts	0x395E, r19	; 0x80395e <reactStr+0x43>
    reactStr[2][number]=type;
    3a7c:	21 e0       	ldi	r18, 0x01	; 1
    3a7e:	30 e0       	ldi	r19, 0x00	; 0
    3a80:	20 93 9d 39 	sts	0x399D, r18	; 0x80399d <reactStr+0x82>
    3a84:	30 93 9e 39 	sts	0x399E, r19	; 0x80399e <reactStr+0x83>
    return 0;
}

//
void SetResponse(uint8_t number, uint16_t address, uint16_t length, uint8_t type){
    reactStr[0][number]=address;
    3a88:	4a ed       	ldi	r20, 0xDA	; 218
    3a8a:	54 e7       	ldi	r21, 0x74	; 116
    3a8c:	40 93 1f 39 	sts	0x391F, r20	; 0x80391f <reactStr+0x4>
    3a90:	50 93 20 39 	sts	0x3920, r21	; 0x803920 <reactStr+0x5>
    reactStr[1][number]=length;
    3a94:	42 e0       	ldi	r20, 0x02	; 2
    3a96:	50 e0       	ldi	r21, 0x00	; 0
    3a98:	40 93 5f 39 	sts	0x395F, r20	; 0x80395f <reactStr+0x44>
    3a9c:	50 93 60 39 	sts	0x3960, r21	; 0x803960 <reactStr+0x45>
    reactStr[2][number]=type;
    3aa0:	20 93 9f 39 	sts	0x399F, r18	; 0x80399f <reactStr+0x84>
    3aa4:	30 93 a0 39 	sts	0x39A0, r19	; 0x8039a0 <reactStr+0x85>

                    SetResponse(elements++, A_YOURPART, L_YOURPART, TEASER);
                    SetResponse(elements++, A_HEXPREFIX, L_HEXPREFIX, TEASER);
                    
                    //Set up sending out number
                    for (n=7; n>=0; --n) {
    3aa8:	67 e0       	ldi	r22, 0x07	; 7
    3aaa:	d6 2e       	mov	r13, r22
                        digit[n] = answer % 16;
    3aac:	f7 01       	movw	r30, r14
    3aae:	ed 0d       	add	r30, r13
    3ab0:	f1 1d       	adc	r31, r1
    3ab2:	28 2f       	mov	r18, r24
    3ab4:	2f 70       	andi	r18, 0x0F	; 15
    3ab6:	20 83       	st	Z, r18
                        answer /= 16;
    3ab8:	54 e0       	ldi	r21, 0x04	; 4
    3aba:	b6 95       	lsr	r27
    3abc:	a7 95       	ror	r26
    3abe:	97 95       	ror	r25
    3ac0:	87 95       	ror	r24
    3ac2:	5a 95       	dec	r21
    3ac4:	d1 f7       	brne	.-12     	; 0x3aba <ProcessInput+0xe7e>
                        if (answer == 0) break;
    3ac6:	00 97       	sbiw	r24, 0x00	; 0
    3ac8:	a1 05       	cpc	r26, r1
    3aca:	b1 05       	cpc	r27, r1
    3acc:	51 f4       	brne	.+20     	; 0x3ae2 <ProcessInput+0xea6>
    3ace:	2b e1       	ldi	r18, 0x1B	; 27
    3ad0:	a2 2e       	mov	r10, r18
    3ad2:	29 e3       	ldi	r18, 0x39	; 57
    3ad4:	b2 2e       	mov	r11, r18
    3ad6:	33 e0       	ldi	r19, 0x03	; 3
    3ad8:	73 2e       	mov	r7, r19
}

//
void SetResponse(uint8_t number, uint16_t address, uint16_t length, uint8_t type){
    reactStr[0][number]=address;
    reactStr[1][number]=length;
    3ada:	88 24       	eor	r8, r8
    3adc:	83 94       	inc	r8
    3ade:	91 2c       	mov	r9, r1
    3ae0:	02 c0       	rjmp	.+4      	; 0x3ae6 <ProcessInput+0xeaa>

                    SetResponse(elements++, A_YOURPART, L_YOURPART, TEASER);
                    SetResponse(elements++, A_HEXPREFIX, L_HEXPREFIX, TEASER);
                    
                    //Set up sending out number
                    for (n=7; n>=0; --n) {
    3ae2:	da 94       	dec	r13
                        digit[n] = answer % 16;
                        answer /= 16;
                        if (answer == 0) break;
                    }
    3ae4:	e3 cf       	rjmp	.-58     	; 0x3aac <ProcessInput+0xe70>
    3ae6:	b2 e0       	ldi	r27, 0x02	; 2
    3ae8:	ab 0e       	add	r10, r27
    3aea:	b1 1c       	adc	r11, r1

                    for (; n<8; ++n) {
    3aec:	e7 e0       	ldi	r30, 0x07	; 7
    3aee:	ed 15       	cp	r30, r13
    3af0:	08 f4       	brcc	.+2      	; 0x3af4 <ProcessInput+0xeb8>
    3af2:	9f c0       	rjmp	.+318    	; 0x3c32 <ProcessInput+0xff6>
                        SetResponse(elements++, A_DIGITS+digit[n], 1, TEASER);
    3af4:	73 94       	inc	r7
    3af6:	f7 01       	movw	r30, r14
    3af8:	ed 0d       	add	r30, r13
    3afa:	f1 1d       	adc	r31, r1
    return 0;
}

//
void SetResponse(uint8_t number, uint16_t address, uint16_t length, uint8_t type){
    reactStr[0][number]=address;
    3afc:	80 81       	ld	r24, Z
    3afe:	90 e0       	ldi	r25, 0x00	; 0
    3b00:	86 53       	subi	r24, 0x36	; 54
    3b02:	9b 48       	sbci	r25, 0x8B	; 139
    3b04:	d5 01       	movw	r26, r10
    3b06:	14 96       	adiw	r26, 0x04	; 4
    3b08:	8d 93       	st	X+, r24
    3b0a:	9c 93       	st	X, r25
    3b0c:	15 97       	sbiw	r26, 0x05	; 5
    reactStr[1][number]=length;
    3b0e:	f5 01       	movw	r30, r10
    3b10:	ec 5b       	subi	r30, 0xBC	; 188
    3b12:	ff 4f       	sbci	r31, 0xFF	; 255
    3b14:	80 82       	st	Z, r8
    3b16:	91 82       	std	Z+1, r9	; 0x01
    reactStr[2][number]=type;
    3b18:	e0 5c       	subi	r30, 0xC0	; 192
    3b1a:	ff 4f       	sbci	r31, 0xFF	; 255
    3b1c:	80 82       	st	Z, r8
    3b1e:	91 82       	std	Z+1, r9	; 0x01
                        if (answer == 0) break;
                    }

                    for (; n<8; ++n) {
                        SetResponse(elements++, A_DIGITS+digit[n], 1, TEASER);
                        UpdateState(actObj1.byteField[ACTION_STATE]);
    3b20:	80 91 e4 38 	lds	r24, 0x38E4	; 0x8038e4 <actObj1.3995+0xa>
    3b24:	0e 94 c8 0a 	call	0x1590	; 0x1590 <UpdateState>
                        digit[n] = answer % 16;
                        answer /= 16;
                        if (answer == 0) break;
                    }

                    for (; n<8; ++n) {
    3b28:	d3 94       	inc	r13
    3b2a:	dd cf       	rjmp	.-70     	; 0x3ae6 <ProcessInput+0xeaa>
    return 0;
}

//
void SetResponse(uint8_t number, uint16_t address, uint16_t length, uint8_t type){
    reactStr[0][number]=address;
    3b2c:	85 e2       	ldi	r24, 0x25	; 37
    3b2e:	95 e7       	ldi	r25, 0x75	; 117
    3b30:	80 93 1d 39 	sts	0x391D, r24	; 0x80391d <reactStr+0x2>
    3b34:	90 93 1e 39 	sts	0x391E, r25	; 0x80391e <reactStr+0x3>
    reactStr[1][number]=length;
    3b38:	8d e3       	ldi	r24, 0x3D	; 61
    3b3a:	90 e0       	ldi	r25, 0x00	; 0
    3b3c:	80 93 5d 39 	sts	0x395D, r24	; 0x80395d <reactStr+0x42>
    3b40:	90 93 5e 39 	sts	0x395E, r25	; 0x80395e <reactStr+0x43>
    reactStr[2][number]=type;
    3b44:	81 e0       	ldi	r24, 0x01	; 1
    3b46:	90 e0       	ldi	r25, 0x00	; 0
    3b48:	80 93 9d 39 	sts	0x399D, r24	; 0x80399d <reactStr+0x82>
    3b4c:	90 93 9e 39 	sts	0x399E, r25	; 0x80399e <reactStr+0x83>
    3b50:	6e c0       	rjmp	.+220    	; 0x3c2e <ProcessInput+0xff2>
    3b52:	e0 91 2c 38 	lds	r30, 0x382C	; 0x80382c <currDepth>
                    SetResponse(elements++, A_BADOFFERING, L_BADOFFERING, TEASER);
                }
            
            //Other questions    
            } else if (specialPassed == 1) {
                PopulateObject(route[currDepth+1], &actObj1);
    3b56:	f0 e0       	ldi	r31, 0x00	; 0
    3b58:	ee 0f       	add	r30, r30
    3b5a:	ff 1f       	adc	r31, r31
    3b5c:	e3 52       	subi	r30, 0x23	; 35
    3b5e:	f6 4c       	sbci	r31, 0xC6	; 198
    3b60:	6a ed       	ldi	r22, 0xDA	; 218
    3b62:	78 e3       	ldi	r23, 0x38	; 56
                } else {
                    SetResponse(elements++, A_BADOFFERING, L_BADOFFERING, TEASER);
                }
            
            //Other questions    
            } else if (specialPassed == 1) {
    3b64:	81 30       	cpi	r24, 0x01	; 1
    3b66:	09 f0       	breq	.+2      	; 0x3b6a <ProcessInput+0xf2e>
    3b68:	46 c0       	rjmp	.+140    	; 0x3bf6 <ProcessInput+0xfba>
                PopulateObject(route[currDepth+1], &actObj1);
    3b6a:	80 81       	ld	r24, Z
    3b6c:	91 81       	ldd	r25, Z+1	; 0x01
    3b6e:	0e 94 64 11 	call	0x22c8	; 0x22c8 <PopulateObject>
                if (CheckState(actObj1.byteField[ACTION_ACL])){
    3b72:	80 91 e1 38 	lds	r24, 0x38E1	; 0x8038e1 <actObj1.3995+0x7>
    3b76:	0e 94 d2 0a 	call	0x15a4	; 0x15a4 <CheckState>
    3b7a:	88 23       	and	r24, r24
    3b7c:	01 f1       	breq	.+64     	; 0x3bbe <ProcessInput+0xf82>
                    SetResponse(elements++, actObj1.addrStr[ACTION_MSG], actObj1.lenStr[ACTION_MSG], GAME);
    3b7e:	80 91 00 39 	lds	r24, 0x3900	; 0x803900 <actObj1.3995+0x26>
    3b82:	90 91 01 39 	lds	r25, 0x3901	; 0x803901 <actObj1.3995+0x27>
    return 0;
}

//
void SetResponse(uint8_t number, uint16_t address, uint16_t length, uint8_t type){
    reactStr[0][number]=address;
    3b86:	20 91 f2 38 	lds	r18, 0x38F2	; 0x8038f2 <actObj1.3995+0x18>
    3b8a:	30 91 f3 38 	lds	r19, 0x38F3	; 0x8038f3 <actObj1.3995+0x19>
    3b8e:	20 93 1d 39 	sts	0x391D, r18	; 0x80391d <reactStr+0x2>
    3b92:	30 93 1e 39 	sts	0x391E, r19	; 0x80391e <reactStr+0x3>
    reactStr[1][number]=length;
    3b96:	80 93 5d 39 	sts	0x395D, r24	; 0x80395d <reactStr+0x42>
    3b9a:	90 93 5e 39 	sts	0x395E, r25	; 0x80395e <reactStr+0x43>
    reactStr[2][number]=type;
    3b9e:	10 92 9d 39 	sts	0x399D, r1	; 0x80399d <reactStr+0x82>
    3ba2:	10 92 9e 39 	sts	0x399E, r1	; 0x80399e <reactStr+0x83>
            //Other questions    
            } else if (specialPassed == 1) {
                PopulateObject(route[currDepth+1], &actObj1);
                if (CheckState(actObj1.byteField[ACTION_ACL])){
                    SetResponse(elements++, actObj1.addrStr[ACTION_MSG], actObj1.lenStr[ACTION_MSG], GAME);
                    effect = actObj1.effect[2];
    3ba6:	80 91 04 39 	lds	r24, 0x3904	; 0x803904 <actObj1.3995+0x2a>
    3baa:	90 e0       	ldi	r25, 0x00	; 0
    3bac:	80 93 3a 38 	sts	0x383A, r24	; 0x80383a <effect>
    3bb0:	90 93 3b 38 	sts	0x383B, r25	; 0x80383b <effect+0x1>
                    UpdateState(actObj1.byteField[ACTION_STATE]);
    3bb4:	80 91 e4 38 	lds	r24, 0x38E4	; 0x8038e4 <actObj1.3995+0xa>
    3bb8:	0e 94 c8 0a 	call	0x1590	; 0x1590 <UpdateState>
    3bbc:	38 c0       	rjmp	.+112    	; 0x3c2e <ProcessInput+0xff2>
                } else {
                    SetResponse(elements++, actObj1.addrStr[ACTION_ACL_MSG], actObj1.lenStr[ACTION_ACL_MSG], GAME);
    3bbe:	80 91 fe 38 	lds	r24, 0x38FE	; 0x8038fe <actObj1.3995+0x24>
    3bc2:	90 91 ff 38 	lds	r25, 0x38FF	; 0x8038ff <actObj1.3995+0x25>
    return 0;
}

//
void SetResponse(uint8_t number, uint16_t address, uint16_t length, uint8_t type){
    reactStr[0][number]=address;
    3bc6:	20 91 f0 38 	lds	r18, 0x38F0	; 0x8038f0 <actObj1.3995+0x16>
    3bca:	30 91 f1 38 	lds	r19, 0x38F1	; 0x8038f1 <actObj1.3995+0x17>
    3bce:	20 93 1d 39 	sts	0x391D, r18	; 0x80391d <reactStr+0x2>
    3bd2:	30 93 1e 39 	sts	0x391E, r19	; 0x80391e <reactStr+0x3>
    reactStr[1][number]=length;
    3bd6:	80 93 5d 39 	sts	0x395D, r24	; 0x80395d <reactStr+0x42>
    3bda:	90 93 5e 39 	sts	0x395E, r25	; 0x80395e <reactStr+0x43>
    reactStr[2][number]=type;
    3bde:	10 92 9d 39 	sts	0x399D, r1	; 0x80399d <reactStr+0x82>
    3be2:	10 92 9e 39 	sts	0x399E, r1	; 0x80399e <reactStr+0x83>
                    SetResponse(elements++, actObj1.addrStr[ACTION_MSG], actObj1.lenStr[ACTION_MSG], GAME);
                    effect = actObj1.effect[2];
                    UpdateState(actObj1.byteField[ACTION_STATE]);
                } else {
                    SetResponse(elements++, actObj1.addrStr[ACTION_ACL_MSG], actObj1.lenStr[ACTION_ACL_MSG], GAME);
                    effect = actObj1.effect[1];
    3be6:	80 91 03 39 	lds	r24, 0x3903	; 0x803903 <actObj1.3995+0x29>
    3bea:	90 e0       	ldi	r25, 0x00	; 0
    3bec:	80 93 3a 38 	sts	0x383A, r24	; 0x80383a <effect>
    3bf0:	90 93 3b 38 	sts	0x383B, r25	; 0x80383b <effect+0x1>
    3bf4:	1c c0       	rjmp	.+56     	; 0x3c2e <ProcessInput+0xff2>
                }

            } else {
                PopulateObject(route[currDepth+1], &actObj1);
    3bf6:	80 81       	ld	r24, Z
    3bf8:	91 81       	ldd	r25, Z+1	; 0x01
    3bfa:	0e 94 64 11 	call	0x22c8	; 0x22c8 <PopulateObject>
    return 0;
}

//
void SetResponse(uint8_t number, uint16_t address, uint16_t length, uint8_t type){
    reactStr[0][number]=address;
    3bfe:	8d e9       	ldi	r24, 0x9D	; 157
    3c00:	98 e7       	ldi	r25, 0x78	; 120
    3c02:	80 93 1d 39 	sts	0x391D, r24	; 0x80391d <reactStr+0x2>
    3c06:	90 93 1e 39 	sts	0x391E, r25	; 0x80391e <reactStr+0x3>
    reactStr[1][number]=length;
    3c0a:	82 e1       	ldi	r24, 0x12	; 18
    3c0c:	90 e0       	ldi	r25, 0x00	; 0
    3c0e:	80 93 5d 39 	sts	0x395D, r24	; 0x80395d <reactStr+0x42>
    3c12:	90 93 5e 39 	sts	0x395E, r25	; 0x80395e <reactStr+0x43>
    reactStr[2][number]=type;
    3c16:	81 e0       	ldi	r24, 0x01	; 1
    3c18:	90 e0       	ldi	r25, 0x00	; 0
    3c1a:	80 93 9d 39 	sts	0x399D, r24	; 0x80399d <reactStr+0x82>
    3c1e:	90 93 9e 39 	sts	0x399E, r25	; 0x80399e <reactStr+0x83>
                }

            } else {
                PopulateObject(route[currDepth+1], &actObj1);
                SetResponse(elements++, A_INCORRECT, L_INCORRECT, TEASER);
                PunishmentTime = getClock();
    3c22:	0e 94 d9 0d 	call	0x1bb2	; 0x1bb2 <getClock>
    3c26:	80 93 07 39 	sts	0x3907, r24	; 0x803907 <PunishmentTime>
    3c2a:	90 93 08 39 	sts	0x3908, r25	; 0x803908 <PunishmentTime+0x1>
                    effect = actObj1.effect[1];
                }

            } else {
                PopulateObject(route[currDepth+1], &actObj1);
                SetResponse(elements++, A_INCORRECT, L_INCORRECT, TEASER);
    3c2e:	82 e0       	ldi	r24, 0x02	; 2
    3c30:	78 2e       	mov	r7, r24
                PunishmentTime = getClock();
            }
            specialInput[0] = 0;
    3c32:	10 92 0a 39 	sts	0x390A, r1	; 0x80390a <specialInput>
    return 0;
}

//
void SetResponse(uint8_t number, uint16_t address, uint16_t length, uint8_t type){
    reactStr[0][number]=address;
    3c36:	8b e5       	ldi	r24, 0x5B	; 91
    3c38:	9a e7       	ldi	r25, 0x7A	; 122
    3c3a:	80 93 1b 39 	sts	0x391B, r24	; 0x80391b <reactStr>
    3c3e:	90 93 1c 39 	sts	0x391C, r25	; 0x80391c <reactStr+0x1>
    reactStr[1][number]=length;
    3c42:	82 e0       	ldi	r24, 0x02	; 2
    3c44:	90 e0       	ldi	r25, 0x00	; 0
    3c46:	80 93 5b 39 	sts	0x395B, r24	; 0x80395b <reactStr+0x40>
    3c4a:	90 93 5c 39 	sts	0x395C, r25	; 0x80395c <reactStr+0x41>
    reactStr[2][number]=type;
    3c4e:	81 e0       	ldi	r24, 0x01	; 1
    3c50:	90 e0       	ldi	r25, 0x00	; 0
    3c52:	80 93 9b 39 	sts	0x399B, r24	; 0x80399b <reactStr+0x80>
    3c56:	90 93 9c 39 	sts	0x399C, r25	; 0x80399c <reactStr+0x81>
               
        }
            
        //Input handled
        SetResponse(0, A_LF, 2, TEASER);
        if (specialInput[0]) responseList = elements; else responseList = SetStandardResponse(elements);
    3c5a:	80 91 0a 39 	lds	r24, 0x390A	; 0x80390a <specialInput>
    3c5e:	88 23       	and	r24, r24
    3c60:	19 f0       	breq	.+6      	; 0x3c68 <ProcessInput+0x102c>
    3c62:	70 92 1a 39 	sts	0x391A, r7	; 0x80391a <responseList>
    3c66:	9b c0       	rjmp	.+310    	; 0x3d9e <ProcessInput+0x1162>
    3c68:	87 2d       	mov	r24, r7
    3c6a:	12 c0       	rjmp	.+36     	; 0x3c90 <ProcessInput+0x1054>
    return 0;
}

//
void SetResponse(uint8_t number, uint16_t address, uint16_t length, uint8_t type){
    reactStr[0][number]=address;
    3c6c:	8b e5       	ldi	r24, 0x5B	; 91
    3c6e:	9a e7       	ldi	r25, 0x7A	; 122
    3c70:	80 93 1b 39 	sts	0x391B, r24	; 0x80391b <reactStr>
    3c74:	90 93 1c 39 	sts	0x391C, r25	; 0x80391c <reactStr+0x1>
    reactStr[1][number]=length;
    3c78:	82 e0       	ldi	r24, 0x02	; 2
    3c7a:	90 e0       	ldi	r25, 0x00	; 0
    3c7c:	80 93 5b 39 	sts	0x395B, r24	; 0x80395b <reactStr+0x40>
    3c80:	90 93 5c 39 	sts	0x395C, r25	; 0x80395c <reactStr+0x41>
    reactStr[2][number]=type;
    3c84:	81 e0       	ldi	r24, 0x01	; 1
    3c86:	90 e0       	ldi	r25, 0x00	; 0
    3c88:	80 93 9b 39 	sts	0x399B, r24	; 0x80399b <reactStr+0x80>
    3c8c:	90 93 9c 39 	sts	0x399C, r25	; 0x80399c <reactStr+0x81>
        SetResponse(0, A_LF, 2, TEASER);
        if (specialInput[0]) responseList = elements; else responseList = SetStandardResponse(elements);

    } else {
        SetResponse(0, A_LF, 2, TEASER);
        responseList = SetStandardResponse(1);
    3c90:	0e 94 e8 10 	call	0x21d0	; 0x21d0 <SetStandardResponse>
    3c94:	80 93 1a 39 	sts	0x391A, r24	; 0x80391a <responseList>
    3c98:	82 c0       	rjmp	.+260    	; 0x3d9e <ProcessInput+0x1162>
    return 0;
}

//
void SetResponse(uint8_t number, uint16_t address, uint16_t length, uint8_t type){
    reactStr[0][number]=address;
    3c9a:	83 ed       	ldi	r24, 0xD3	; 211
    3c9c:	99 e7       	ldi	r25, 0x79	; 121
    3c9e:	92 cd       	rjmp	.-1244   	; 0x37c4 <ProcessInput+0xb88>

        //Drop item if in inventory
        if (data[0] == 'd') {
            if ((inventory[0] == 0)&&(inventory[1] == 0)){
                SetResponse(elements++, A_EMPTYHANDS, L_EMPTYHANDS, TEASER);
            } else if (inputLen != 2) {
    3ca0:	b2 e0       	ldi	r27, 0x02	; 2
    3ca2:	fb 12       	cpse	r15, r27
    3ca4:	0c 94 4d 16 	jmp	0x2c9a	; 0x2c9a <ProcessInput+0x5e>
                SetResponse(elements++, A_NOTPOSSIBLE, L_NOTPOSSIBLE, TEASER);
            } else {
                for (uint8_t x=0; x<2; ++x) {
                    if (inventory[x]) {
                        if (CheckLetter(inventory[x], data[1])) {
    3ca8:	d8 01       	movw	r26, r16
    3caa:	11 96       	adiw	r26, 0x01	; 1
    3cac:	6c 91       	ld	r22, X
    3cae:	0e 94 db 11 	call	0x23b6	; 0x23b6 <CheckLetter>
    3cb2:	88 23       	and	r24, r24
    3cb4:	09 f4       	brne	.+2      	; 0x3cb8 <ProcessInput+0x107c>
    3cb6:	5b c0       	rjmp	.+182    	; 0x3d6e <ProcessInput+0x1132>
                SetResponse(elements++, A_EMPTYHANDS, L_EMPTYHANDS, TEASER);
            } else if (inputLen != 2) {
                SetResponse(elements++, A_NOTPOSSIBLE, L_NOTPOSSIBLE, TEASER);
            } else {
                for (uint8_t x=0; x<2; ++x) {
                    if (inventory[x]) {
    3cb8:	80 e0       	ldi	r24, 0x00	; 0
    3cba:	90 e0       	ldi	r25, 0x00	; 0
                        if (CheckLetter(inventory[x], data[1])) {
                            PopulateObject(inventory[x], &actObj1);
    3cbc:	88 0f       	add	r24, r24
    3cbe:	99 1f       	adc	r25, r25
    3cc0:	9c 01       	movw	r18, r24
    3cc2:	22 5c       	subi	r18, 0xC2	; 194
    3cc4:	37 4c       	sbci	r19, 0xC7	; 199
    3cc6:	79 01       	movw	r14, r18
    3cc8:	6a ed       	ldi	r22, 0xDA	; 218
    3cca:	78 e3       	ldi	r23, 0x38	; 56
    3ccc:	d9 01       	movw	r26, r18
    3cce:	8d 91       	ld	r24, X+
    3cd0:	9c 91       	ld	r25, X
    3cd2:	0e 94 64 11 	call	0x22c8	; 0x22c8 <PopulateObject>
    return 0;
}

//
void SetResponse(uint8_t number, uint16_t address, uint16_t length, uint8_t type){
    reactStr[0][number]=address;
    3cd6:	83 ed       	ldi	r24, 0xD3	; 211
    3cd8:	97 e7       	ldi	r25, 0x77	; 119
    3cda:	80 93 1d 39 	sts	0x391D, r24	; 0x80391d <reactStr+0x2>
    3cde:	90 93 1e 39 	sts	0x391E, r25	; 0x80391e <reactStr+0x3>
    reactStr[1][number]=length;
    3ce2:	80 e1       	ldi	r24, 0x10	; 16
    3ce4:	90 e0       	ldi	r25, 0x00	; 0
    3ce6:	80 93 5d 39 	sts	0x395D, r24	; 0x80395d <reactStr+0x42>
    3cea:	90 93 5e 39 	sts	0x395E, r25	; 0x80395e <reactStr+0x43>
    reactStr[2][number]=type;
    3cee:	81 e0       	ldi	r24, 0x01	; 1
    3cf0:	90 e0       	ldi	r25, 0x00	; 0
    3cf2:	80 93 9d 39 	sts	0x399D, r24	; 0x80399d <reactStr+0x82>
    3cf6:	90 93 9e 39 	sts	0x399E, r25	; 0x80399e <reactStr+0x83>
                for (uint8_t x=0; x<2; ++x) {
                    if (inventory[x]) {
                        if (CheckLetter(inventory[x], data[1])) {
                            PopulateObject(inventory[x], &actObj1);
                            SetResponse(elements++, A_DROPPING, L_DROPPING, TEASER);
                            SetResponse(elements++, actObj1.addrStr[NAME], actObj1.lenStr[NAME], GAME);
    3cfa:	20 91 f4 38 	lds	r18, 0x38F4	; 0x8038f4 <actObj1.3995+0x1a>
    3cfe:	30 91 f5 38 	lds	r19, 0x38F5	; 0x8038f5 <actObj1.3995+0x1b>
    return 0;
}

//
void SetResponse(uint8_t number, uint16_t address, uint16_t length, uint8_t type){
    reactStr[0][number]=address;
    3d02:	40 91 e6 38 	lds	r20, 0x38E6	; 0x8038e6 <actObj1.3995+0xc>
    3d06:	50 91 e7 38 	lds	r21, 0x38E7	; 0x8038e7 <actObj1.3995+0xd>
    3d0a:	40 93 1f 39 	sts	0x391F, r20	; 0x80391f <reactStr+0x4>
    3d0e:	50 93 20 39 	sts	0x3920, r21	; 0x803920 <reactStr+0x5>
    reactStr[1][number]=length;
    3d12:	20 93 5f 39 	sts	0x395F, r18	; 0x80395f <reactStr+0x44>
    3d16:	30 93 60 39 	sts	0x3960, r19	; 0x803960 <reactStr+0x45>
    reactStr[2][number]=type;
    3d1a:	10 92 9f 39 	sts	0x399F, r1	; 0x80399f <reactStr+0x84>
    3d1e:	10 92 a0 39 	sts	0x39A0, r1	; 0x8039a0 <reactStr+0x85>
    return 0;
}

//
void SetResponse(uint8_t number, uint16_t address, uint16_t length, uint8_t type){
    reactStr[0][number]=address;
    3d22:	2b e5       	ldi	r18, 0x5B	; 91
    3d24:	3a e7       	ldi	r19, 0x7A	; 122
    3d26:	20 93 21 39 	sts	0x3921, r18	; 0x803921 <reactStr+0x6>
    3d2a:	30 93 22 39 	sts	0x3922, r19	; 0x803922 <reactStr+0x7>
    reactStr[1][number]=length;
    3d2e:	22 e0       	ldi	r18, 0x02	; 2
    3d30:	30 e0       	ldi	r19, 0x00	; 0
    3d32:	20 93 61 39 	sts	0x3961, r18	; 0x803961 <reactStr+0x46>
    3d36:	30 93 62 39 	sts	0x3962, r19	; 0x803962 <reactStr+0x47>
    reactStr[2][number]=type;
    3d3a:	80 93 a1 39 	sts	0x39A1, r24	; 0x8039a1 <reactStr+0x86>
    3d3e:	90 93 a2 39 	sts	0x39A2, r25	; 0x8039a2 <reactStr+0x87>
    return 0;
}

//
void SetResponse(uint8_t number, uint16_t address, uint16_t length, uint8_t type){
    reactStr[0][number]=address;
    3d42:	26 e9       	ldi	r18, 0x96	; 150
    3d44:	37 e7       	ldi	r19, 0x77	; 119
    3d46:	20 93 23 39 	sts	0x3923, r18	; 0x803923 <reactStr+0x8>
    3d4a:	30 93 24 39 	sts	0x3924, r19	; 0x803924 <reactStr+0x9>
    reactStr[1][number]=length;
    3d4e:	2d e3       	ldi	r18, 0x3D	; 61
    3d50:	30 e0       	ldi	r19, 0x00	; 0
    3d52:	20 93 63 39 	sts	0x3963, r18	; 0x803963 <reactStr+0x48>
    3d56:	30 93 64 39 	sts	0x3964, r19	; 0x803964 <reactStr+0x49>
    reactStr[2][number]=type;
    3d5a:	80 93 a3 39 	sts	0x39A3, r24	; 0x8039a3 <reactStr+0x88>
    3d5e:	90 93 a4 39 	sts	0x39A4, r25	; 0x8039a4 <reactStr+0x89>
                            PopulateObject(inventory[x], &actObj1);
                            SetResponse(elements++, A_DROPPING, L_DROPPING, TEASER);
                            SetResponse(elements++, actObj1.addrStr[NAME], actObj1.lenStr[NAME], GAME);
                            SetResponse(elements++, A_LF, 2, TEASER);
                            SetResponse(elements++, A_RETURNING, L_RETURNING, TEASER);
                            inventory[x] = 0;
    3d62:	f7 01       	movw	r30, r14
    3d64:	10 82       	st	Z, r1
    3d66:	11 82       	std	Z+1, r1	; 0x01
                        if (CheckLetter(inventory[x], data[1])) {
                            PopulateObject(inventory[x], &actObj1);
                            SetResponse(elements++, A_DROPPING, L_DROPPING, TEASER);
                            SetResponse(elements++, actObj1.addrStr[NAME], actObj1.lenStr[NAME], GAME);
                            SetResponse(elements++, A_LF, 2, TEASER);
                            SetResponse(elements++, A_RETURNING, L_RETURNING, TEASER);
    3d68:	f5 e0       	ldi	r31, 0x05	; 5
    3d6a:	7f 2e       	mov	r7, r31
                            inventory[x] = 0;
                            break;
    3d6c:	64 cf       	rjmp	.-312    	; 0x3c36 <ProcessInput+0xffa>
                SetResponse(elements++, A_EMPTYHANDS, L_EMPTYHANDS, TEASER);
            } else if (inputLen != 2) {
                SetResponse(elements++, A_NOTPOSSIBLE, L_NOTPOSSIBLE, TEASER);
            } else {
                for (uint8_t x=0; x<2; ++x) {
                    if (inventory[x]) {
    3d6e:	80 91 40 38 	lds	r24, 0x3840	; 0x803840 <inventory+0x2>
    3d72:	90 91 41 38 	lds	r25, 0x3841	; 0x803841 <inventory+0x3>
    3d76:	00 97       	sbiw	r24, 0x00	; 0
    3d78:	49 f0       	breq	.+18     	; 0x3d8c <ProcessInput+0x1150>
                        if (CheckLetter(inventory[x], data[1])) {
    3d7a:	f8 01       	movw	r30, r16
    3d7c:	61 81       	ldd	r22, Z+1	; 0x01
    3d7e:	0e 94 db 11 	call	0x23b6	; 0x23b6 <CheckLetter>
    3d82:	88 23       	and	r24, r24
    3d84:	19 f0       	breq	.+6      	; 0x3d8c <ProcessInput+0x1150>
                SetResponse(elements++, A_EMPTYHANDS, L_EMPTYHANDS, TEASER);
            } else if (inputLen != 2) {
                SetResponse(elements++, A_NOTPOSSIBLE, L_NOTPOSSIBLE, TEASER);
            } else {
                for (uint8_t x=0; x<2; ++x) {
                    if (inventory[x]) {
    3d86:	81 e0       	ldi	r24, 0x01	; 1
    3d88:	90 e0       	ldi	r25, 0x00	; 0
    3d8a:	98 cf       	rjmp	.-208    	; 0x3cbc <ProcessInput+0x1080>
    return 0;
}

//
void SetResponse(uint8_t number, uint16_t address, uint16_t length, uint8_t type){
    reactStr[0][number]=address;
    3d8c:	83 e6       	ldi	r24, 0x63	; 99
    3d8e:	99 e7       	ldi	r25, 0x79	; 121
    3d90:	80 93 1d 39 	sts	0x391D, r24	; 0x80391d <reactStr+0x2>
    3d94:	90 93 1e 39 	sts	0x391E, r25	; 0x80391e <reactStr+0x3>
    reactStr[1][number]=length;
    3d98:	81 e2       	ldi	r24, 0x21	; 33
    3d9a:	90 e0       	ldi	r25, 0x00	; 0
    3d9c:	13 c8       	rjmp	.-4058   	; 0x2dc4 <ProcessInput+0x188>
    } else {
        SetResponse(0, A_LF, 2, TEASER);
        responseList = SetStandardResponse(1);
    }

    data[0] = 0;
    3d9e:	d8 01       	movw	r26, r16
    3da0:	1c 92       	st	X, r1
    serRxDone = 0;
    3da2:	10 92 44 38 	sts	0x3844, r1	; 0x803844 <serRxDone>
    RXCNT = 0;    
    3da6:	1d ba       	out	0x1d, r1	; 29
    return 0;
}
    3da8:	80 e0       	ldi	r24, 0x00	; 0
    3daa:	28 96       	adiw	r28, 0x08	; 8
    3dac:	cd bf       	out	0x3d, r28	; 61
    3dae:	de bf       	out	0x3e, r29	; 62
    3db0:	df 91       	pop	r29
    3db2:	cf 91       	pop	r28
    3db4:	1f 91       	pop	r17
    3db6:	0f 91       	pop	r16
    3db8:	ff 90       	pop	r15
    3dba:	ef 90       	pop	r14
    3dbc:	df 90       	pop	r13
    3dbe:	cf 90       	pop	r12
    3dc0:	bf 90       	pop	r11
    3dc2:	af 90       	pop	r10
    3dc4:	9f 90       	pop	r9
    3dc6:	8f 90       	pop	r8
    3dc8:	7f 90       	pop	r7
    3dca:	6f 90       	pop	r6
    3dcc:	5f 90       	pop	r5
    3dce:	08 95       	ret

00003dd0 <TextAdventure>:


//MAIN GAME STRUCTURE
uint8_t TextAdventure(){
    3dd0:	cf 93       	push	r28
    static uint8_t serInput[RXLEN];
    uint16_t PunishmentCount;
    
    /* Count down PunishmentTime on WING LEDs */
    if (PunishmentTime != 0) {
    3dd2:	80 91 07 39 	lds	r24, 0x3907	; 0x803907 <PunishmentTime>
    3dd6:	90 91 08 39 	lds	r25, 0x3908	; 0x803908 <PunishmentTime+0x1>
    3dda:	89 2b       	or	r24, r25
    3ddc:	09 f1       	breq	.+66     	; 0x3e20 <TextAdventure+0x50>
        PunishmentCount = getClock();
    3dde:	0e 94 d9 0d 	call	0x1bb2	; 0x1bb2 <getClock>
        if (PunishmentCount < PunishmentTime)
    3de2:	20 91 07 39 	lds	r18, 0x3907	; 0x803907 <PunishmentTime>
    3de6:	30 91 08 39 	lds	r19, 0x3908	; 0x803908 <PunishmentTime+0x1>
    3dea:	82 17       	cp	r24, r18
    3dec:	93 07       	cpc	r25, r19
    3dee:	08 f4       	brcc	.+2      	; 0x3df2 <TextAdventure+0x22>
            PunishmentCount += 256 * 60;
    3df0:	94 5c       	subi	r25, 0xC4	; 196
        PunishmentCount -= PunishmentTime;
    3df2:	ac 01       	movw	r20, r24
    3df4:	42 1b       	sub	r20, r18
    3df6:	53 0b       	sbc	r21, r19
    3df8:	9a 01       	movw	r18, r20
        if (PunishmentCount > 10) {
    3dfa:	4b 30       	cpi	r20, 0x0B	; 11
    3dfc:	51 05       	cpc	r21, r1
    3dfe:	30 f0       	brcs	.+12     	; 0x3e0c <TextAdventure+0x3c>
            PunishmentTime = 0;
    3e00:	10 92 07 39 	sts	0x3907, r1	; 0x803907 <PunishmentTime>
    3e04:	10 92 08 39 	sts	0x3908, r1	; 0x803908 <PunishmentTime+0x1>
            PunishmentCount = 10;
    3e08:	2a e0       	ldi	r18, 0x0A	; 10
    3e0a:	30 e0       	ldi	r19, 0x00	; 0
        }
        if (gameNow == TEXT ) {
    3e0c:	80 91 3c 38 	lds	r24, 0x383C	; 0x80383c <gameNow>
    3e10:	81 11       	cpse	r24, r1
    3e12:	06 c0       	rjmp	.+12     	; 0x3e20 <TextAdventure+0x50>
            WingBar(10-PunishmentCount,5-PunishmentCount);
    3e14:	65 e0       	ldi	r22, 0x05	; 5
    3e16:	62 1b       	sub	r22, r18
    3e18:	8a e0       	ldi	r24, 0x0A	; 10
    3e1a:	82 1b       	sub	r24, r18
    3e1c:	0e 94 ab 0b 	call	0x1756	; 0x1756 <WingBar>
        }
    }

    //Still sending data to serial?
    if (CheckSend()) return 1;
    3e20:	0e 94 ba 12 	call	0x2574	; 0x2574 <CheckSend>
    3e24:	88 23       	and	r24, r24
    3e26:	11 f0       	breq	.+4      	; 0x3e2c <TextAdventure+0x5c>
    3e28:	c1 e0       	ldi	r28, 0x01	; 1
    3e2a:	18 c0       	rjmp	.+48     	; 0x3e5c <TextAdventure+0x8c>

    //Not sending? Process next response part to send, if any.
    if (CheckResponse()) return 1;        
    3e2c:	0e 94 28 13 	call	0x2650	; 0x2650 <CheckResponse>
    3e30:	c8 2f       	mov	r28, r24
    3e32:	81 11       	cpse	r24, r1
    3e34:	f9 cf       	rjmp	.-14     	; 0x3e28 <TextAdventure+0x58>

    if (PunishmentTime == 0) {
    3e36:	80 91 07 39 	lds	r24, 0x3907	; 0x803907 <PunishmentTime>
    3e3a:	90 91 08 39 	lds	r25, 0x3908	; 0x803908 <PunishmentTime+0x1>
    3e3e:	89 2b       	or	r24, r25
    3e40:	69 f4       	brne	.+26     	; 0x3e5c <TextAdventure+0x8c>
        //No responses to send, check if there is user input.
        if (CheckInput(&serInput[0])) return 2; 
    3e42:	8e e6       	ldi	r24, 0x6E	; 110
    3e44:	98 e3       	ldi	r25, 0x38	; 56
    3e46:	0e 94 6f 13 	call	0x26de	; 0x26de <CheckInput>
    3e4a:	c8 2f       	mov	r28, r24
    3e4c:	81 11       	cpse	r24, r1
    3e4e:	05 c0       	rjmp	.+10     	; 0x3e5a <TextAdventure+0x8a>

        //Input found, process and save (changes only)
        ProcessInput(&serInput[0]);
    3e50:	8e e6       	ldi	r24, 0x6E	; 110
    3e52:	98 e3       	ldi	r25, 0x38	; 56
    3e54:	0e 94 1e 16 	call	0x2c3c	; 0x2c3c <ProcessInput>
    3e58:	01 c0       	rjmp	.+2      	; 0x3e5c <TextAdventure+0x8c>
    //Not sending? Process next response part to send, if any.
    if (CheckResponse()) return 1;        

    if (PunishmentTime == 0) {
        //No responses to send, check if there is user input.
        if (CheckInput(&serInput[0])) return 2; 
    3e5a:	c2 e0       	ldi	r28, 0x02	; 2
        //Input found, process and save (changes only)
        ProcessInput(&serInput[0]);
    }

    return 0;
}
    3e5c:	8c 2f       	mov	r24, r28
    3e5e:	cf 91       	pop	r28
    3e60:	08 95       	ret

00003e62 <main>:


//This is where it begins, inits first and main program in while(1) loop.
int main(void)
{
    Setup();
    3e62:	0e 94 89 05 	call	0xb12	; 0xb12 <Setup>

    SerSpeed(0xff);
    3e66:	8f ef       	ldi	r24, 0xFF	; 255
    3e68:	0e 94 19 09 	call	0x1232	; 0x1232 <SerSpeed>
    3e6c:	a4 e0       	ldi	r26, 0x04	; 4
    3e6e:	b0 ec       	ldi	r27, 0xC0	; 192
    ////Turn on LEDs on low setting to check for interrupt glitches

    //"Hacker"
    for (uint8_t n=0; n<6; n++){
        iLED[HCKR[R][n]] = 1;
    3e70:	81 e0       	ldi	r24, 0x01	; 1
    3e72:	ed 91       	ld	r30, X+
    3e74:	f0 e0       	ldi	r31, 0x00	; 0
    3e76:	e6 53       	subi	r30, 0x36	; 54
    3e78:	f5 4c       	sbci	r31, 0xC5	; 197
    3e7a:	80 83       	st	Z, r24
        iLED[HCKR[G][n]] = 1;
    3e7c:	15 96       	adiw	r26, 0x05	; 5
    3e7e:	ec 91       	ld	r30, X
    3e80:	15 97       	sbiw	r26, 0x05	; 5
    3e82:	f0 e0       	ldi	r31, 0x00	; 0
    3e84:	e6 53       	subi	r30, 0x36	; 54
    3e86:	f5 4c       	sbci	r31, 0xC5	; 197
    3e88:	80 83       	st	Z, r24

    SerSpeed(0xff);
    ////Turn on LEDs on low setting to check for interrupt glitches

    //"Hacker"
    for (uint8_t n=0; n<6; n++){
    3e8a:	20 ec       	ldi	r18, 0xC0	; 192
    3e8c:	aa 30       	cpi	r26, 0x0A	; 10
    3e8e:	b2 07       	cpc	r27, r18
    3e90:	81 f7       	brne	.-32     	; 0x3e72 <main+0x10>
    3e92:	e6 ef       	ldi	r30, 0xF6	; 246
    3e94:	ff eb       	ldi	r31, 0xBF	; 191
        iLED[HCKR[G][n]] = 1;
    }

    //"Wings"
    for (uint8_t n=0; n<5; n++){
        iLED[WING[L][n]] = 1;
    3e96:	91 e0       	ldi	r25, 0x01	; 1
    3e98:	ef 01       	movw	r28, r30
    3e9a:	a5 81       	ldd	r26, Z+5	; 0x05
    3e9c:	b0 e0       	ldi	r27, 0x00	; 0
    3e9e:	a6 53       	subi	r26, 0x36	; 54
    3ea0:	b5 4c       	sbci	r27, 0xC5	; 197
    3ea2:	81 e0       	ldi	r24, 0x01	; 1
    3ea4:	9c 93       	st	X, r25
    3ea6:	31 96       	adiw	r30, 0x01	; 1
        iLED[WING[R][n]] = 1;
    3ea8:	a8 81       	ld	r26, Y
    3eaa:	b0 e0       	ldi	r27, 0x00	; 0
    3eac:	a6 53       	subi	r26, 0x36	; 54
    3eae:	b5 4c       	sbci	r27, 0xC5	; 197
    3eb0:	9c 93       	st	X, r25
        iLED[HCKR[R][n]] = 1;
        iLED[HCKR[G][n]] = 1;
    }

    //"Wings"
    for (uint8_t n=0; n<5; n++){
    3eb2:	2f eb       	ldi	r18, 0xBF	; 191
    3eb4:	eb 3f       	cpi	r30, 0xFB	; 251
    3eb6:	f2 07       	cpc	r31, r18
    3eb8:	79 f7       	brne	.-34     	; 0x3e98 <main+0x36>
        iLED[WING[L][n]] = 1;
        iLED[WING[R][n]] = 1;
    }

    //"Others"
    iLED[EYE[G][R]] = 1;
    3eba:	e0 91 02 c0 	lds	r30, 0xC002	; 0x80c002 <__bss_end+0x84e8>
    3ebe:	f0 e0       	ldi	r31, 0x00	; 0
    3ec0:	e6 53       	subi	r30, 0x36	; 54
    3ec2:	f5 4c       	sbci	r31, 0xC5	; 197
    3ec4:	80 83       	st	Z, r24
    iLED[EYE[G][L]] = 1;
    3ec6:	e0 91 03 c0 	lds	r30, 0xC003	; 0x80c003 <__bss_end+0x84e9>
    3eca:	f0 e0       	ldi	r31, 0x00	; 0
    3ecc:	e6 53       	subi	r30, 0x36	; 54
    3ece:	f5 4c       	sbci	r31, 0xC5	; 197
    3ed0:	80 83       	st	Z, r24
    iLED[EYE[R][R]] = 1;
    3ed2:	e0 91 00 c0 	lds	r30, 0xC000	; 0x80c000 <__bss_end+0x84e6>
    3ed6:	f0 e0       	ldi	r31, 0x00	; 0
    3ed8:	e6 53       	subi	r30, 0x36	; 54
    3eda:	f5 4c       	sbci	r31, 0xC5	; 197
    3edc:	80 83       	st	Z, r24
    iLED[EYE[R][L]] = 1;
    3ede:	e0 91 01 c0 	lds	r30, 0xC001	; 0x80c001 <__bss_end+0x84e7>
    3ee2:	f0 e0       	ldi	r31, 0x00	; 0
    3ee4:	e6 53       	subi	r30, 0x36	; 54
    3ee6:	f5 4c       	sbci	r31, 0xC5	; 197
    3ee8:	80 83       	st	Z, r24
    iLED[SCARAB[R]] = 1;
    3eea:	e0 91 f4 bf 	lds	r30, 0xBFF4	; 0x80bff4 <__bss_end+0x84da>
    3eee:	f0 e0       	ldi	r31, 0x00	; 0
    3ef0:	e6 53       	subi	r30, 0x36	; 54
    3ef2:	f5 4c       	sbci	r31, 0xC5	; 197
    3ef4:	80 83       	st	Z, r24
    iLED[SCARAB[G]] = 1;
    3ef6:	e0 91 f5 bf 	lds	r30, 0xBFF5	; 0x80bff5 <__bss_end+0x84db>
    3efa:	f0 e0       	ldi	r31, 0x00	; 0
    3efc:	e6 53       	subi	r30, 0x36	; 54
    3efe:	f5 4c       	sbci	r31, 0xC5	; 197
    3f00:	80 83       	st	Z, r24
    iLED[BADGER] = 1;
    3f02:	e0 91 f3 bf 	lds	r30, 0xBFF3	; 0x80bff3 <__bss_end+0x84d9>
    3f06:	f0 e0       	ldi	r31, 0x00	; 0
    3f08:	e6 53       	subi	r30, 0x36	; 54
    3f0a:	f5 4c       	sbci	r31, 0xC5	; 197
    3f0c:	80 83       	st	Z, r24
    iLED[CAT] = 1;
    3f0e:	e0 91 f2 bf 	lds	r30, 0xBFF2	; 0x80bff2 <__bss_end+0x84d8>
    3f12:	f0 e0       	ldi	r31, 0x00	; 0
    3f14:	e6 53       	subi	r30, 0x36	; 54
    3f16:	f5 4c       	sbci	r31, 0xC5	; 197
    3f18:	80 83       	st	Z, r24

    LoadGameState();
    3f1a:	0e 94 19 0b 	call	0x1632	; 0x1632 <LoadGameState>
    effect = 0x013f;
    3f1e:	8f e3       	ldi	r24, 0x3F	; 63
    3f20:	91 e0       	ldi	r25, 0x01	; 1
    3f22:	80 93 3a 38 	sts	0x383A, r24	; 0x80383a <effect>
    3f26:	90 93 3b 38 	sts	0x383B, r25	; 0x80383b <effect+0x1>
            SaveGameState();

            //Check light sensor status (added hysteresis to preserve writing cycles to internal EEPROM)
            if (adcPhot < 10) WriteStatusBit(116, 1);
            if (adcPhot > 100) WriteStatusBit(116, 0);
            dimValue = 0 - QSINE[31-(adcPhot>>7)];
    3f2a:	cf e1       	ldi	r28, 0x1F	; 31
    3f2c:	d0 e0       	ldi	r29, 0x00	; 0

    LoadGameState();
    effect = 0x013f;

    while (TRUE) {
        if (GenerateAudio()) {
    3f2e:	0e 94 a2 0c 	call	0x1944	; 0x1944 <GenerateAudio>
    3f32:	88 23       	and	r24, r24
    3f34:	e1 f3       	breq	.-8      	; 0x3f2e <main+0xcc>
            buttonState = CheckButtons(buttonState);
    3f36:	80 91 09 38 	lds	r24, 0x3809	; 0x803809 <buttonState>
    3f3a:	0e 94 48 09 	call	0x1290	; 0x1290 <CheckButtons>
    3f3e:	80 93 09 38 	sts	0x3809, r24	; 0x803809 <buttonState>
            buttonMark = 0;
    3f42:	10 92 42 38 	sts	0x3842, r1	; 0x803842 <buttonMark>

            if (VREF_CTRLA == 0x12) SelectAuIn(); else SelectTSens();
    3f46:	80 91 a0 00 	lds	r24, 0x00A0	; 0x8000a0 <__TEXT_REGION_LENGTH__+0x7000a0>
    3f4a:	82 31       	cpi	r24, 0x12	; 18
    3f4c:	19 f4       	brne	.+6      	; 0x3f54 <main+0xf2>
    3f4e:	0e 94 39 09 	call	0x1272	; 0x1272 <SelectAuIn>
    3f52:	02 c0       	rjmp	.+4      	; 0x3f58 <main+0xf6>
    3f54:	0e 94 2a 09 	call	0x1254	; 0x1254 <SelectTSens>

            GenerateBlinks();
    3f58:	0e 94 e9 0b 	call	0x17d2	; 0x17d2 <GenerateBlinks>

            //Main game, to complete: Finish sub-game MagnetMaze and MakeFriends too.
            TextAdventure();
    3f5c:	39 df       	rcall	.-398    	; 0x3dd0 <TextAdventure>

            //Other games & user interaction checks
            MagnetMaze();
    3f5e:	0e 94 7d 04 	call	0x8fa	; 0x8fa <MagnetMaze>
            LanyardCode();
    3f62:	0e 94 31 03 	call	0x662	; 0x662 <LanyardCode>
            BastetDictates();
    3f66:	0e 94 7e 0e 	call	0x1cfc	; 0x1cfc <BastetDictates>
            MakeFriends();
    3f6a:	0e 94 7a 00 	call	0xf4	; 0xf4 <MakeFriends>

            //Save progress
            SaveGameState();
    3f6e:	0e 94 27 0a 	call	0x144e	; 0x144e <SaveGameState>

            //Check light sensor status (added hysteresis to preserve writing cycles to internal EEPROM)
            if (adcPhot < 10) WriteStatusBit(116, 1);
    3f72:	80 91 bd 3a 	lds	r24, 0x3ABD	; 0x803abd <adcPhot>
    3f76:	90 91 be 3a 	lds	r25, 0x3ABE	; 0x803abe <adcPhot+0x1>
    3f7a:	0a 97       	sbiw	r24, 0x0a	; 10
    3f7c:	20 f4       	brcc	.+8      	; 0x3f86 <main+0x124>
    3f7e:	61 e0       	ldi	r22, 0x01	; 1
    3f80:	84 e7       	ldi	r24, 0x74	; 116
    3f82:	0e 94 ae 0a 	call	0x155c	; 0x155c <WriteStatusBit>
            if (adcPhot > 100) WriteStatusBit(116, 0);
    3f86:	80 91 bd 3a 	lds	r24, 0x3ABD	; 0x803abd <adcPhot>
    3f8a:	90 91 be 3a 	lds	r25, 0x3ABE	; 0x803abe <adcPhot+0x1>
    3f8e:	85 36       	cpi	r24, 0x65	; 101
    3f90:	91 05       	cpc	r25, r1
    3f92:	20 f0       	brcs	.+8      	; 0x3f9c <main+0x13a>
    3f94:	60 e0       	ldi	r22, 0x00	; 0
    3f96:	84 e7       	ldi	r24, 0x74	; 116
    3f98:	0e 94 ae 0a 	call	0x155c	; 0x155c <WriteStatusBit>
            dimValue = 0 - QSINE[31-(adcPhot>>7)];
    3f9c:	80 91 bd 3a 	lds	r24, 0x3ABD	; 0x803abd <adcPhot>
    3fa0:	90 91 be 3a 	lds	r25, 0x3ABE	; 0x803abe <adcPhot+0x1>
    3fa4:	88 0f       	add	r24, r24
    3fa6:	89 2f       	mov	r24, r25
    3fa8:	88 1f       	adc	r24, r24
    3faa:	99 0b       	sbc	r25, r25
    3fac:	91 95       	neg	r25
    3fae:	fe 01       	movw	r30, r28
    3fb0:	e8 1b       	sub	r30, r24
    3fb2:	f9 0b       	sbc	r31, r25
    3fb4:	e0 5f       	subi	r30, 0xF0	; 240
    3fb6:	ff 43       	sbci	r31, 0x3F	; 63
    3fb8:	80 81       	ld	r24, Z
    3fba:	81 95       	neg	r24
    3fbc:	80 93 0b 38 	sts	0x380B, r24	; 0x80380b <dimValue>

            //Check temperature
            HotSummer();
    3fc0:	0e 94 46 0b 	call	0x168c	; 0x168c <HotSummer>
    3fc4:	b4 cf       	rjmp	.-152    	; 0x3f2e <main+0xcc>

00003fc6 <_exit>:
    3fc6:	f8 94       	cli

00003fc8 <__stop_program>:
    3fc8:	ff cf       	rjmp	.-2      	; 0x3fc8 <__stop_program>
