
ISR_IO.elf:     file format elf32-avr

Sections:
Idx Name          Size      VMA       LMA       File off  Algn
  0 .data         00000090  00803800  00002524  000025d8  2**0
                  CONTENTS, ALLOC, LOAD, DATA
  1 .text         000024e6  00000000  00000000  000000b4  2**1
                  CONTENTS, ALLOC, LOAD, READONLY, CODE
  2 .rodata       0000003e  0000a4e6  000024e6  0000259a  2**0
                  CONTENTS, ALLOC, LOAD, READONLY, DATA
  3 .bss          000002c2  00803890  00803890  00002668  2**0
                  ALLOC
  4 .comment      00000030  00000000  00000000  00002668  2**0
                  CONTENTS, READONLY
  5 .note.gnu.avr.deviceinfo 00000040  00000000  00000000  00002698  2**2
                  CONTENTS, READONLY
  6 .debug_aranges 00000260  00000000  00000000  000026d8  2**0
                  CONTENTS, READONLY, DEBUGGING
  7 .debug_info   00005013  00000000  00000000  00002938  2**0
                  CONTENTS, READONLY, DEBUGGING
  8 .debug_abbrev 0000222d  00000000  00000000  0000794b  2**0
                  CONTENTS, READONLY, DEBUGGING
  9 .debug_line   000024a2  00000000  00000000  00009b78  2**0
                  CONTENTS, READONLY, DEBUGGING
 10 .debug_frame  00000738  00000000  00000000  0000c01c  2**2
                  CONTENTS, READONLY, DEBUGGING
 11 .debug_str    0000172a  00000000  00000000  0000c754  2**0
                  CONTENTS, READONLY, DEBUGGING
 12 .debug_loc    000022a5  00000000  00000000  0000de7e  2**0
                  CONTENTS, READONLY, DEBUGGING
 13 .debug_ranges 00000348  00000000  00000000  00010123  2**0
                  CONTENTS, READONLY, DEBUGGING

Disassembly of section .text:

00000000 <__vectors>:
       0:	3d c0       	rjmp	.+122    	; 0x7c <__ctors_end>
       2:	00 00       	nop
       4:	58 c0       	rjmp	.+176    	; 0xb6 <__bad_interrupt>
       6:	00 00       	nop
       8:	56 c0       	rjmp	.+172    	; 0xb6 <__bad_interrupt>
       a:	00 00       	nop
       c:	54 c0       	rjmp	.+168    	; 0xb6 <__bad_interrupt>
       e:	00 00       	nop
      10:	52 c0       	rjmp	.+164    	; 0xb6 <__bad_interrupt>
      12:	00 00       	nop
      14:	50 c0       	rjmp	.+160    	; 0xb6 <__bad_interrupt>
      16:	00 00       	nop
      18:	49 c4       	rjmp	.+2194   	; 0x8ac <__vector_6>
      1a:	00 00       	nop
      1c:	97 c4       	rjmp	.+2350   	; 0x94c <__vector_7>
      1e:	00 00       	nop
      20:	96 c2       	rjmp	.+1324   	; 0x54e <__vector_8>
      22:	00 00       	nop
      24:	48 c0       	rjmp	.+144    	; 0xb6 <__bad_interrupt>
      26:	00 00       	nop
      28:	46 c0       	rjmp	.+140    	; 0xb6 <__bad_interrupt>
      2a:	00 00       	nop
      2c:	44 c0       	rjmp	.+136    	; 0xb6 <__bad_interrupt>
      2e:	00 00       	nop
      30:	42 c0       	rjmp	.+132    	; 0xb6 <__bad_interrupt>
      32:	00 00       	nop
      34:	e0 c2       	rjmp	.+1472   	; 0x5f6 <__vector_13>
      36:	00 00       	nop
      38:	11 c3       	rjmp	.+1570   	; 0x65c <__vector_14>
      3a:	00 00       	nop
      3c:	3c c0       	rjmp	.+120    	; 0xb6 <__bad_interrupt>
      3e:	00 00       	nop
      40:	3a c0       	rjmp	.+116    	; 0xb6 <__bad_interrupt>
      42:	00 00       	nop
      44:	38 c0       	rjmp	.+112    	; 0xb6 <__bad_interrupt>
      46:	00 00       	nop
      48:	36 c0       	rjmp	.+108    	; 0xb6 <__bad_interrupt>
      4a:	00 00       	nop
      4c:	34 c0       	rjmp	.+104    	; 0xb6 <__bad_interrupt>
      4e:	00 00       	nop
      50:	af c3       	rjmp	.+1886   	; 0x7b0 <__vector_20>
      52:	00 00       	nop
      54:	30 c0       	rjmp	.+96     	; 0xb6 <__bad_interrupt>
      56:	00 00       	nop
      58:	d9 c3       	rjmp	.+1970   	; 0x80c <__vector_22>
      5a:	00 00       	nop
      5c:	2c c0       	rjmp	.+88     	; 0xb6 <__bad_interrupt>
      5e:	00 00       	nop
      60:	2a c0       	rjmp	.+84     	; 0xb6 <__bad_interrupt>
      62:	00 00       	nop
      64:	28 c0       	rjmp	.+80     	; 0xb6 <__bad_interrupt>
      66:	00 00       	nop
      68:	26 c0       	rjmp	.+76     	; 0xb6 <__bad_interrupt>
      6a:	00 00       	nop
      6c:	4a c3       	rjmp	.+1684   	; 0x702 <__vector_27>
      6e:	00 00       	nop
      70:	83 c3       	rjmp	.+1798   	; 0x778 <__vector_28>
      72:	00 00       	nop
      74:	20 c0       	rjmp	.+64     	; 0xb6 <__bad_interrupt>
      76:	00 00       	nop
      78:	1e c0       	rjmp	.+60     	; 0xb6 <__bad_interrupt>
	...

0000007c <__ctors_end>:
      7c:	11 24       	eor	r1, r1
      7e:	1f be       	out	0x3f, r1	; 63
      80:	cf ef       	ldi	r28, 0xFF	; 255
      82:	cd bf       	out	0x3d, r28	; 61
      84:	df e3       	ldi	r29, 0x3F	; 63
      86:	de bf       	out	0x3e, r29	; 62

00000088 <__do_copy_data>:
      88:	18 e3       	ldi	r17, 0x38	; 56
      8a:	a0 e0       	ldi	r26, 0x00	; 0
      8c:	b8 e3       	ldi	r27, 0x38	; 56
      8e:	e4 e2       	ldi	r30, 0x24	; 36
      90:	f5 e2       	ldi	r31, 0x25	; 37
      92:	02 c0       	rjmp	.+4      	; 0x98 <__do_copy_data+0x10>
      94:	05 90       	lpm	r0, Z+
      96:	0d 92       	st	X+, r0
      98:	a0 39       	cpi	r26, 0x90	; 144
      9a:	b1 07       	cpc	r27, r17
      9c:	d9 f7       	brne	.-10     	; 0x94 <__do_copy_data+0xc>

0000009e <__do_clear_bss>:
      9e:	2b e3       	ldi	r18, 0x3B	; 59
      a0:	a0 e9       	ldi	r26, 0x90	; 144
      a2:	b8 e3       	ldi	r27, 0x38	; 56
      a4:	01 c0       	rjmp	.+2      	; 0xa8 <.do_clear_bss_start>

000000a6 <.do_clear_bss_loop>:
      a6:	1d 92       	st	X+, r1

000000a8 <.do_clear_bss_start>:
      a8:	a2 35       	cpi	r26, 0x52	; 82
      aa:	b2 07       	cpc	r27, r18
      ac:	e1 f7       	brne	.-8      	; 0xa6 <.do_clear_bss_loop>
      ae:	0e 94 a1 11 	call	0x2342	; 0x2342 <main>
      b2:	0c 94 71 12 	jmp	0x24e2	; 0x24e2 <_exit>

000000b6 <__bad_interrupt>:
      b6:	a4 cf       	rjmp	.-184    	; 0x0 <__vectors>

000000b8 <I2C_init>:

#define NOP() asm volatile(" nop \r\n")

void I2C_init(void)
{
	PORTB_DIRCLR = 0b00000001;	                                    // SCL = PB0, tri-stated high, avoids glitch
      b8:	81 e0       	ldi	r24, 0x01	; 1
      ba:	80 93 22 04 	sts	0x0422, r24	; 0x800422 <__TEXT_REGION_LENGTH__+0x700422>
    PORTB_OUTCLR = 0b00000001;							
      be:	e6 e2       	ldi	r30, 0x26	; 38
      c0:	f4 e0       	ldi	r31, 0x04	; 4
      c2:	80 83       	st	Z, r24
    PORTB_PIN0CTRL = 0;
      c4:	10 92 30 04 	sts	0x0430, r1	; 0x800430 <__TEXT_REGION_LENGTH__+0x700430>
	PORTB_DIRSET = 0b00000010;                                      // SDA = PB1
      c8:	a1 e2       	ldi	r26, 0x21	; 33
      ca:	b4 e0       	ldi	r27, 0x04	; 4
      cc:	92 e0       	ldi	r25, 0x02	; 2
      ce:	9c 93       	st	X, r25
	PORTB_OUTCLR = 0b00000010;
      d0:	90 83       	st	Z, r25
    PORTB_PIN1CTRL = 0;
      d2:	10 92 31 04 	sts	0x0431, r1	; 0x800431 <__TEXT_REGION_LENGTH__+0x700431>

	
	TWI0.MBAUD = (uint8_t) TWI0_BAUD(100000, 0);					// set MBAUD register, TWI0_BAUD macro calculates parameter for 100 kHz
      d6:	e0 e1       	ldi	r30, 0x10	; 16
      d8:	f8 e0       	ldi	r31, 0x08	; 8
      da:	9d e2       	ldi	r25, 0x2D	; 45
      dc:	96 83       	std	Z+6, r25	; 0x06
	TWI0.MCTRLB = TWI_FLUSH_bm;										// clear the internal state of the master
      de:	98 e0       	ldi	r25, 0x08	; 8
      e0:	94 83       	std	Z+4, r25	; 0x04
	TWI0.MCTRLA =	  1 << TWI_ENABLE_bp							// Enable TWI Master: enabled
      e2:	83 83       	std	Z+3, r24	; 0x03
					| 0 << TWI_RIEN_bp								// Read Interrupt Enable: disabled
					| 0 << TWI_SMEN_bp								// Smart Mode Enable: disabled
					| TWI_TIMEOUT_DISABLED_gc						// Bus Timeout Disabled (inoperative, see errata)
					| 0 << TWI_WIEN_bp;								// Write Interrupt Enable: disabled

	PORTB_DIRSET = 0b00000001;	
      e4:	8c 93       	st	X, r24
	
	TWI0.MSTATUS |= TWI_BUSSTATE_IDLE_gc;							// force bus idle
      e6:	85 81       	ldd	r24, Z+5	; 0x05
      e8:	81 60       	ori	r24, 0x01	; 1
      ea:	85 83       	std	Z+5, r24	; 0x05
	TWI0.MSTATUS |= (TWI_RIF_bm | TWI_WIF_bm | TWI_BUSERR_bm);		// clear flags	
      ec:	85 81       	ldd	r24, Z+5	; 0x05
      ee:	84 6c       	ori	r24, 0xC4	; 196
      f0:	85 83       	std	Z+5, r24	; 0x05
      f2:	08 95       	ret

000000f4 <I2C_recover>:
}

void I2C_recover(void)												// clock out I2C bus if in invalid state (e.g. after incomplete transaction)
{
	uint8_t	i;
	TWI0.MCTRLB |= TWI_FLUSH_bm;									// clear the internal state of the master
      f4:	e0 e1       	ldi	r30, 0x10	; 16
      f6:	f8 e0       	ldi	r31, 0x08	; 8
      f8:	84 81       	ldd	r24, Z+4	; 0x04
      fa:	88 60       	ori	r24, 0x08	; 8
      fc:	84 83       	std	Z+4, r24	; 0x04
	TWI0.MCTRLA = 0;												// disable TWI Master
      fe:	13 82       	std	Z+3, r1	; 0x03
	PORTB_DIRCLR = 0b00000010;      								// SDA tri-stated high
     100:	82 e0       	ldi	r24, 0x02	; 2
     102:	80 93 22 04 	sts	0x0422, r24	; 0x800422 <__TEXT_REGION_LENGTH__+0x700422>
	for (i = 0; i < 9; i++)											// SCL, 9 x bit-banging
     106:	80 e0       	ldi	r24, 0x00	; 0
     108:	0e c0       	rjmp	.+28     	; 0x126 <I2C_recover+0x32>
	{
		PORTB_DIRSET = 0b00000001;			        				// 5 us low
     10a:	91 e0       	ldi	r25, 0x01	; 1
     10c:	90 93 21 04 	sts	0x0421, r25	; 0x800421 <__TEXT_REGION_LENGTH__+0x700421>
	#else
		//round up by default
		__ticks_dc = (uint32_t)(ceil(fabs(__tmp)));
	#endif

	__builtin_avr_delay_cycles(__ticks_dc);
     110:	20 e1       	ldi	r18, 0x10	; 16
     112:	2a 95       	dec	r18
     114:	f1 f7       	brne	.-4      	; 0x112 <I2C_recover+0x1e>
     116:	00 c0       	rjmp	.+0      	; 0x118 <I2C_recover+0x24>
		_delay_us(5);
		PORTB_DIRCLR = 0b00000001;      							// 5 us tri-stated high
     118:	90 93 22 04 	sts	0x0422, r25	; 0x800422 <__TEXT_REGION_LENGTH__+0x700422>
     11c:	90 e1       	ldi	r25, 0x10	; 16
     11e:	9a 95       	dec	r25
     120:	f1 f7       	brne	.-4      	; 0x11e <I2C_recover+0x2a>
     122:	00 c0       	rjmp	.+0      	; 0x124 <I2C_recover+0x30>
{
	uint8_t	i;
	TWI0.MCTRLB |= TWI_FLUSH_bm;									// clear the internal state of the master
	TWI0.MCTRLA = 0;												// disable TWI Master
	PORTB_DIRCLR = 0b00000010;      								// SDA tri-stated high
	for (i = 0; i < 9; i++)											// SCL, 9 x bit-banging
     124:	8f 5f       	subi	r24, 0xFF	; 255
     126:	89 30       	cpi	r24, 0x09	; 9
     128:	80 f3       	brcs	.-32     	; 0x10a <I2C_recover+0x16>
	
// re-enable master twice
// for unknown reasons the master might get stuck if re-enabled only once
// second re-enable will fail if SDA not enabled beforehand

	TWI0.MCTRLB = TWI_FLUSH_bm;										// clear the internal state of the master
     12a:	e0 e1       	ldi	r30, 0x10	; 16
     12c:	f8 e0       	ldi	r31, 0x08	; 8
     12e:	28 e0       	ldi	r18, 0x08	; 8
     130:	24 83       	std	Z+4, r18	; 0x04
	TWI0.MCTRLA =	  1 << TWI_ENABLE_bp							// Enable TWI Master: enabled
     132:	81 e0       	ldi	r24, 0x01	; 1
     134:	83 83       	std	Z+3, r24	; 0x03
					| 0 << TWI_RIEN_bp								// Read Interrupt Enable: disabled
					| 0 << TWI_SMEN_bp								// Smart Mode Enable: disabled
					| TWI_TIMEOUT_DISABLED_gc						// Bus Timeout Disabled (inoperative, see errata)
					| 0 << TWI_WIEN_bp;								// Write Interrupt Enable: disabled			

	PORTB_DIRSET = 0b00000010;	
     136:	a1 e2       	ldi	r26, 0x21	; 33
     138:	b4 e0       	ldi	r27, 0x04	; 4
     13a:	92 e0       	ldi	r25, 0x02	; 2
     13c:	9c 93       	st	X, r25

	TWI0.MSTATUS |= TWI_BUSSTATE_IDLE_gc;							// force bus idle
     13e:	95 81       	ldd	r25, Z+5	; 0x05
     140:	91 60       	ori	r25, 0x01	; 1
     142:	95 83       	std	Z+5, r25	; 0x05
	TWI0.MSTATUS |= (TWI_RIF_bm | TWI_WIF_bm | TWI_BUSERR_bm);		// clear flags
     144:	95 81       	ldd	r25, Z+5	; 0x05
     146:	94 6c       	ori	r25, 0xC4	; 196
     148:	95 83       	std	Z+5, r25	; 0x05

	TWI0.MCTRLB = TWI_FLUSH_bm;										// clear the internal state of the master (glitch on SDA)
     14a:	24 83       	std	Z+4, r18	; 0x04
	TWI0.MCTRLA =	  1 << TWI_ENABLE_bp							// Enable TWI Master: enabled
     14c:	83 83       	std	Z+3, r24	; 0x03
					| 0 << TWI_RIEN_bp								// Read Interrupt Enable: disabled
					| 0 << TWI_SMEN_bp								// Smart Mode Enable: disabled
					| TWI_TIMEOUT_DISABLED_gc						// Bus Timeout Disabled (inoperative, see errata)
					| 0 << TWI_WIEN_bp;								// Write Interrupt Enable: disabled

	PORTB_DIRSET = 0b00000001;
     14e:	8c 93       	st	X, r24

	TWI0.MSTATUS |= TWI_BUSSTATE_IDLE_gc;							// force bus idle
     150:	85 81       	ldd	r24, Z+5	; 0x05
     152:	81 60       	ori	r24, 0x01	; 1
     154:	85 83       	std	Z+5, r24	; 0x05
	TWI0.MSTATUS |= (TWI_RIF_bm | TWI_WIF_bm | TWI_BUSERR_bm);		// clear flags
     156:	85 81       	ldd	r24, Z+5	; 0x05
     158:	84 6c       	ori	r24, 0xC4	; 196
     15a:	85 83       	std	Z+5, r24	; 0x05
     15c:	08 95       	ret

0000015e <I2C_start>:
}

uint8_t I2C_start(uint8_t shifted_addr)								// device_addr + LSB set if READ
{
     15e:	28 2f       	mov	r18, r24
	TWI0.MSTATUS |= (TWI_RIF_bm | TWI_WIF_bm);						// clear Read and Write interrupt flags
     160:	e0 e1       	ldi	r30, 0x10	; 16
     162:	f8 e0       	ldi	r31, 0x08	; 8
     164:	95 81       	ldd	r25, Z+5	; 0x05
     166:	90 6c       	ori	r25, 0xC0	; 192
     168:	95 83       	std	Z+5, r25	; 0x05
	if (TWI0.MSTATUS & TWI_BUSERR_bm) return 4;						// Bus Error, abort
     16a:	95 81       	ldd	r25, Z+5	; 0x05
     16c:	89 2f       	mov	r24, r25
     16e:	84 70       	andi	r24, 0x04	; 4
     170:	92 fd       	sbrc	r25, 2
     172:	03 c0       	rjmp	.+6      	; 0x17a <I2C_start+0x1c>
	TWI0.MADDR = shifted_addr;
     174:	20 93 17 08 	sts	0x0817, r18	; 0x800817 <__TEXT_REGION_LENGTH__+0x700817>
	return 0;
     178:	08 95       	ret
}

uint8_t I2C_start(uint8_t shifted_addr)								// device_addr + LSB set if READ
{
	TWI0.MSTATUS |= (TWI_RIF_bm | TWI_WIF_bm);						// clear Read and Write interrupt flags
	if (TWI0.MSTATUS & TWI_BUSERR_bm) return 4;						// Bus Error, abort
     17a:	84 e0       	ldi	r24, 0x04	; 4
	TWI0.MADDR = shifted_addr;
	return 0;
}
     17c:	08 95       	ret

0000017e <I2C_wait_ACK>:

uint8_t I2C_wait_ACK(void)											// wait for slave response after start of Master Write
{
	timeout_I2C = ADDR_TIMEOUT;												// reset timeout counter, will be decremented by LED matrix interrupt
     17e:	8c e0       	ldi	r24, 0x0C	; 12
     180:	80 93 85 3a 	sts	0x3A85, r24	; 0x803a85 <timeout_I2C>
	while (!(TWI0.MSTATUS & TWI_RIF_bm) && !(TWI0.MSTATUS & TWI_WIF_bm))	// wait for RIF or WIF set
     184:	04 c0       	rjmp	.+8      	; 0x18e <I2C_wait_ACK+0x10>
	{
		if (!(timeout_I2C)) return 0xff;				            // return timeout error
     186:	80 91 85 3a 	lds	r24, 0x3A85	; 0x803a85 <timeout_I2C>
     18a:	88 23       	and	r24, r24
     18c:	e1 f0       	breq	.+56     	; 0x1c6 <I2C_wait_ACK+0x48>
}

uint8_t I2C_wait_ACK(void)											// wait for slave response after start of Master Write
{
	timeout_I2C = ADDR_TIMEOUT;												// reset timeout counter, will be decremented by LED matrix interrupt
	while (!(TWI0.MSTATUS & TWI_RIF_bm) && !(TWI0.MSTATUS & TWI_WIF_bm))	// wait for RIF or WIF set
     18e:	80 91 15 08 	lds	r24, 0x0815	; 0x800815 <__TEXT_REGION_LENGTH__+0x700815>
     192:	88 23       	and	r24, r24
     194:	24 f0       	brlt	.+8      	; 0x19e <I2C_wait_ACK+0x20>
     196:	80 91 15 08 	lds	r24, 0x0815	; 0x800815 <__TEXT_REGION_LENGTH__+0x700815>
     19a:	86 ff       	sbrs	r24, 6
     19c:	f4 cf       	rjmp	.-24     	; 0x186 <I2C_wait_ACK+0x8>
	{
		if (!(timeout_I2C)) return 0xff;				            // return timeout error
	}
	TWI0.MSTATUS |= (TWI_RIF_bm | TWI_WIF_bm);						// clear Read and Write interrupt flags
     19e:	e0 e1       	ldi	r30, 0x10	; 16
     1a0:	f8 e0       	ldi	r31, 0x08	; 8
     1a2:	85 81       	ldd	r24, Z+5	; 0x05
     1a4:	80 6c       	ori	r24, 0xC0	; 192
     1a6:	85 83       	std	Z+5, r24	; 0x05
	if (TWI0.MSTATUS & TWI_BUSERR_bm) return 4;						// Bus Error, abort
     1a8:	85 81       	ldd	r24, Z+5	; 0x05
     1aa:	82 fd       	sbrc	r24, 2
     1ac:	0e c0       	rjmp	.+28     	; 0x1ca <I2C_wait_ACK+0x4c>
	if (TWI0.MSTATUS & TWI_ARBLOST_bm) return 2;					// Arbitration Lost, abort
     1ae:	80 91 15 08 	lds	r24, 0x0815	; 0x800815 <__TEXT_REGION_LENGTH__+0x700815>
     1b2:	83 fd       	sbrc	r24, 3
     1b4:	0c c0       	rjmp	.+24     	; 0x1ce <I2C_wait_ACK+0x50>
	if (TWI0.MSTATUS & TWI_RXACK_bm) return 1;						// Slave replied with NACK, abort
     1b6:	90 91 15 08 	lds	r25, 0x0815	; 0x800815 <__TEXT_REGION_LENGTH__+0x700815>
     1ba:	89 2f       	mov	r24, r25
     1bc:	80 71       	andi	r24, 0x10	; 16
     1be:	94 ff       	sbrs	r25, 4
     1c0:	07 c0       	rjmp	.+14     	; 0x1d0 <I2C_wait_ACK+0x52>
     1c2:	81 e0       	ldi	r24, 0x01	; 1
     1c4:	08 95       	ret
uint8_t I2C_wait_ACK(void)											// wait for slave response after start of Master Write
{
	timeout_I2C = ADDR_TIMEOUT;												// reset timeout counter, will be decremented by LED matrix interrupt
	while (!(TWI0.MSTATUS & TWI_RIF_bm) && !(TWI0.MSTATUS & TWI_WIF_bm))	// wait for RIF or WIF set
	{
		if (!(timeout_I2C)) return 0xff;				            // return timeout error
     1c6:	8f ef       	ldi	r24, 0xFF	; 255
     1c8:	08 95       	ret
	}
	TWI0.MSTATUS |= (TWI_RIF_bm | TWI_WIF_bm);						// clear Read and Write interrupt flags
	if (TWI0.MSTATUS & TWI_BUSERR_bm) return 4;						// Bus Error, abort
     1ca:	84 e0       	ldi	r24, 0x04	; 4
     1cc:	08 95       	ret
	if (TWI0.MSTATUS & TWI_ARBLOST_bm) return 2;					// Arbitration Lost, abort
     1ce:	82 e0       	ldi	r24, 0x02	; 2
	if (TWI0.MSTATUS & TWI_RXACK_bm) return 1;						// Slave replied with NACK, abort
	return 0;														// no error
}
     1d0:	08 95       	ret

000001d2 <I2C_rep_start>:
// the Atmel device documentation mentions a special command for repeated start TWI_MCMD_REPSTART_gc,
// but this is not used in Atmel's demo code, so we don't use it either

void I2C_rep_start(uint8_t shifted_addr)						    // send repeated start, device_addr + LSB set if READ
{
	TWI0.MADDR = shifted_addr;	
     1d2:	80 93 17 08 	sts	0x0817, r24	; 0x800817 <__TEXT_REGION_LENGTH__+0x700817>
     1d6:	08 95       	ret

000001d8 <I2C_read>:
}

uint8_t	I2C_read(uint8_t *data, uint8_t ack_flag)					// read data, ack_flag 0: send ACK, 1: send NACK, returns status
{
     1d8:	fc 01       	movw	r30, r24
	timeout_I2C = READ_TIMEOUT;										// reset timeout counter, will be decremented by LED matrix interrupt
     1da:	9c e0       	ldi	r25, 0x0C	; 12
     1dc:	90 93 85 3a 	sts	0x3A85, r25	; 0x803a85 <timeout_I2C>
	if ((TWI0.MSTATUS & TWI_BUSSTATE_gm) == TWI_BUSSTATE_OWNER_gc)	// if master controls bus
     1e0:	90 91 15 08 	lds	r25, 0x0815	; 0x800815 <__TEXT_REGION_LENGTH__+0x700815>
     1e4:	89 2f       	mov	r24, r25
     1e6:	83 70       	andi	r24, 0x03	; 3
     1e8:	82 30       	cpi	r24, 0x02	; 2
     1ea:	31 f0       	breq	.+12     	; 0x1f8 <I2C_read+0x20>
		else		TWI0.MCTRLB |= TWI_ACKACT_NACK_gc;				// setup NACK (last byte read)
		*data = TWI0.MDATA;
		if (ack_flag == 0) TWI0.MCTRLB |= TWI_MCMD_RECVTRANS_gc;	// send ACK, more bytes to follow					
		return 0;
	}
	else return 8;													// master does not control bus
     1ec:	88 e0       	ldi	r24, 0x08	; 8
     1ee:	08 95       	ret
	timeout_I2C = READ_TIMEOUT;										// reset timeout counter, will be decremented by LED matrix interrupt
	if ((TWI0.MSTATUS & TWI_BUSSTATE_gm) == TWI_BUSSTATE_OWNER_gc)	// if master controls bus
	{		
		while (!(TWI0.MSTATUS & TWI_RIF_bm))						// wait for RIF set (data byte received)
		{
			if (!(timeout_I2C)) return 0xff;			            // return timeout error
     1f0:	90 91 85 3a 	lds	r25, 0x3A85	; 0x803a85 <timeout_I2C>
     1f4:	99 23       	and	r25, r25
     1f6:	c1 f1       	breq	.+112    	; 0x268 <I2C_read+0x90>
uint8_t	I2C_read(uint8_t *data, uint8_t ack_flag)					// read data, ack_flag 0: send ACK, 1: send NACK, returns status
{
	timeout_I2C = READ_TIMEOUT;										// reset timeout counter, will be decremented by LED matrix interrupt
	if ((TWI0.MSTATUS & TWI_BUSSTATE_gm) == TWI_BUSSTATE_OWNER_gc)	// if master controls bus
	{		
		while (!(TWI0.MSTATUS & TWI_RIF_bm))						// wait for RIF set (data byte received)
     1f8:	90 91 15 08 	lds	r25, 0x0815	; 0x800815 <__TEXT_REGION_LENGTH__+0x700815>
     1fc:	99 23       	and	r25, r25
     1fe:	c4 f7       	brge	.-16     	; 0x1f0 <I2C_read+0x18>
		{
			if (!(timeout_I2C)) return 0xff;			            // return timeout error
		}
		TWI0.MSTATUS |= (TWI_RIF_bm | TWI_WIF_bm);					// clear Read and Write interrupt flags	
     200:	a0 e1       	ldi	r26, 0x10	; 16
     202:	b8 e0       	ldi	r27, 0x08	; 8
     204:	15 96       	adiw	r26, 0x05	; 5
     206:	9c 91       	ld	r25, X
     208:	15 97       	sbiw	r26, 0x05	; 5
     20a:	90 6c       	ori	r25, 0xC0	; 192
     20c:	15 96       	adiw	r26, 0x05	; 5
     20e:	9c 93       	st	X, r25
     210:	15 97       	sbiw	r26, 0x05	; 5
		if (TWI0.MSTATUS & TWI_BUSERR_bm) return 4;					// Bus Error, abort
     212:	15 96       	adiw	r26, 0x05	; 5
     214:	9c 91       	ld	r25, X
     216:	15 97       	sbiw	r26, 0x05	; 5
     218:	92 fd       	sbrc	r25, 2
     21a:	28 c0       	rjmp	.+80     	; 0x26c <I2C_read+0x94>
		if (TWI0.MSTATUS & TWI_ARBLOST_bm) return 2;				// Arbitration Lost, abort
     21c:	90 91 15 08 	lds	r25, 0x0815	; 0x800815 <__TEXT_REGION_LENGTH__+0x700815>
     220:	93 fd       	sbrc	r25, 3
     222:	27 c0       	rjmp	.+78     	; 0x272 <I2C_read+0x9a>
		if (TWI0.MSTATUS & TWI_RXACK_bm) return 1;					// Slave replied with NACK, abort				
     224:	90 91 15 08 	lds	r25, 0x0815	; 0x800815 <__TEXT_REGION_LENGTH__+0x700815>
     228:	89 2f       	mov	r24, r25
     22a:	80 71       	andi	r24, 0x10	; 16
     22c:	94 fd       	sbrc	r25, 4
     22e:	20 c0       	rjmp	.+64     	; 0x270 <I2C_read+0x98>
		if (ack_flag == 0) TWI0.MCTRLB &= ~(1 << TWI_ACKACT_bp);	// setup ACK
     230:	61 11       	cpse	r22, r1
     232:	07 c0       	rjmp	.+14     	; 0x242 <I2C_read+0x6a>
     234:	14 96       	adiw	r26, 0x04	; 4
     236:	9c 91       	ld	r25, X
     238:	14 97       	sbiw	r26, 0x04	; 4
     23a:	9b 7f       	andi	r25, 0xFB	; 251
     23c:	14 96       	adiw	r26, 0x04	; 4
     23e:	9c 93       	st	X, r25
     240:	08 c0       	rjmp	.+16     	; 0x252 <I2C_read+0x7a>
		else		TWI0.MCTRLB |= TWI_ACKACT_NACK_gc;				// setup NACK (last byte read)
     242:	a0 e1       	ldi	r26, 0x10	; 16
     244:	b8 e0       	ldi	r27, 0x08	; 8
     246:	14 96       	adiw	r26, 0x04	; 4
     248:	9c 91       	ld	r25, X
     24a:	14 97       	sbiw	r26, 0x04	; 4
     24c:	94 60       	ori	r25, 0x04	; 4
     24e:	14 96       	adiw	r26, 0x04	; 4
     250:	9c 93       	st	X, r25
		*data = TWI0.MDATA;
     252:	90 91 18 08 	lds	r25, 0x0818	; 0x800818 <__TEXT_REGION_LENGTH__+0x700818>
     256:	90 83       	st	Z, r25
		if (ack_flag == 0) TWI0.MCTRLB |= TWI_MCMD_RECVTRANS_gc;	// send ACK, more bytes to follow					
     258:	61 11       	cpse	r22, r1
     25a:	0b c0       	rjmp	.+22     	; 0x272 <I2C_read+0x9a>
     25c:	e0 e1       	ldi	r30, 0x10	; 16
     25e:	f8 e0       	ldi	r31, 0x08	; 8
     260:	94 81       	ldd	r25, Z+4	; 0x04
     262:	92 60       	ori	r25, 0x02	; 2
     264:	94 83       	std	Z+4, r25	; 0x04
     266:	08 95       	ret
	timeout_I2C = READ_TIMEOUT;										// reset timeout counter, will be decremented by LED matrix interrupt
	if ((TWI0.MSTATUS & TWI_BUSSTATE_gm) == TWI_BUSSTATE_OWNER_gc)	// if master controls bus
	{		
		while (!(TWI0.MSTATUS & TWI_RIF_bm))						// wait for RIF set (data byte received)
		{
			if (!(timeout_I2C)) return 0xff;			            // return timeout error
     268:	8f ef       	ldi	r24, 0xFF	; 255
     26a:	08 95       	ret
		}
		TWI0.MSTATUS |= (TWI_RIF_bm | TWI_WIF_bm);					// clear Read and Write interrupt flags	
		if (TWI0.MSTATUS & TWI_BUSERR_bm) return 4;					// Bus Error, abort
     26c:	84 e0       	ldi	r24, 0x04	; 4
     26e:	08 95       	ret
		if (TWI0.MSTATUS & TWI_ARBLOST_bm) return 2;				// Arbitration Lost, abort
		if (TWI0.MSTATUS & TWI_RXACK_bm) return 1;					// Slave replied with NACK, abort				
     270:	81 e0       	ldi	r24, 0x01	; 1
		*data = TWI0.MDATA;
		if (ack_flag == 0) TWI0.MCTRLB |= TWI_MCMD_RECVTRANS_gc;	// send ACK, more bytes to follow					
		return 0;
	}
	else return 8;													// master does not control bus
}
     272:	08 95       	ret

00000274 <I2C_write>:

uint8_t I2C_write(uint8_t *data)									// write data, return status
{
     274:	fc 01       	movw	r30, r24
	timeout_I2C = WRITE_TIMEOUT;									// reset timeout counter, will be decremented by LED matrix interrupt
     276:	9c e0       	ldi	r25, 0x0C	; 12
     278:	90 93 85 3a 	sts	0x3A85, r25	; 0x803a85 <timeout_I2C>
	if ((TWI0.MSTATUS & TWI_BUSSTATE_gm) == TWI_BUSSTATE_OWNER_gc)	// if master controls bus
     27c:	90 91 15 08 	lds	r25, 0x0815	; 0x800815 <__TEXT_REGION_LENGTH__+0x700815>
     280:	93 70       	andi	r25, 0x03	; 3
     282:	92 30       	cpi	r25, 0x02	; 2
     284:	c1 f4       	brne	.+48     	; 0x2b6 <I2C_write+0x42>
	{
		TWI0.MDATA = *data;		
     286:	80 81       	ld	r24, Z
     288:	80 93 18 08 	sts	0x0818, r24	; 0x800818 <__TEXT_REGION_LENGTH__+0x700818>
		while (!(TWI0.MSTATUS & TWI_WIF_bm))						// wait until WIF set, status register contains ACK/NACK bit
     28c:	04 c0       	rjmp	.+8      	; 0x296 <I2C_write+0x22>
		{
			if (!(timeout_I2C)) return 0xff;			            // return timeout error
     28e:	80 91 85 3a 	lds	r24, 0x3A85	; 0x803a85 <timeout_I2C>
     292:	88 23       	and	r24, r24
     294:	91 f0       	breq	.+36     	; 0x2ba <I2C_write+0x46>
{
	timeout_I2C = WRITE_TIMEOUT;									// reset timeout counter, will be decremented by LED matrix interrupt
	if ((TWI0.MSTATUS & TWI_BUSSTATE_gm) == TWI_BUSSTATE_OWNER_gc)	// if master controls bus
	{
		TWI0.MDATA = *data;		
		while (!(TWI0.MSTATUS & TWI_WIF_bm))						// wait until WIF set, status register contains ACK/NACK bit
     296:	80 91 15 08 	lds	r24, 0x0815	; 0x800815 <__TEXT_REGION_LENGTH__+0x700815>
     29a:	86 ff       	sbrs	r24, 6
     29c:	f8 cf       	rjmp	.-16     	; 0x28e <I2C_write+0x1a>
		{
			if (!(timeout_I2C)) return 0xff;			            // return timeout error
		}
		if (TWI0.MSTATUS & TWI_BUSERR_bm) return 4;					// Bus Error, abort
     29e:	80 91 15 08 	lds	r24, 0x0815	; 0x800815 <__TEXT_REGION_LENGTH__+0x700815>
     2a2:	82 fd       	sbrc	r24, 2
     2a4:	0c c0       	rjmp	.+24     	; 0x2be <I2C_write+0x4a>
		if (TWI0.MSTATUS & TWI_RXACK_bm) return 1;					// Slave replied with NACK, abort
     2a6:	90 91 15 08 	lds	r25, 0x0815	; 0x800815 <__TEXT_REGION_LENGTH__+0x700815>
     2aa:	89 2f       	mov	r24, r25
     2ac:	80 71       	andi	r24, 0x10	; 16
     2ae:	94 ff       	sbrs	r25, 4
     2b0:	07 c0       	rjmp	.+14     	; 0x2c0 <I2C_write+0x4c>
     2b2:	81 e0       	ldi	r24, 0x01	; 1
     2b4:	08 95       	ret
		return 0;													// no error	
	}
	else return 8;													// master does not control bus
     2b6:	88 e0       	ldi	r24, 0x08	; 8
     2b8:	08 95       	ret
	if ((TWI0.MSTATUS & TWI_BUSSTATE_gm) == TWI_BUSSTATE_OWNER_gc)	// if master controls bus
	{
		TWI0.MDATA = *data;		
		while (!(TWI0.MSTATUS & TWI_WIF_bm))						// wait until WIF set, status register contains ACK/NACK bit
		{
			if (!(timeout_I2C)) return 0xff;			            // return timeout error
     2ba:	8f ef       	ldi	r24, 0xFF	; 255
     2bc:	08 95       	ret
		}
		if (TWI0.MSTATUS & TWI_BUSERR_bm) return 4;					// Bus Error, abort
     2be:	84 e0       	ldi	r24, 0x04	; 4
		if (TWI0.MSTATUS & TWI_RXACK_bm) return 1;					// Slave replied with NACK, abort
		return 0;													// no error	
	}
	else return 8;													// master does not control bus
}
     2c0:	08 95       	ret

000002c2 <I2C_stop>:

void I2C_stop()
{
	TWI0.MCTRLB |= TWI_MCMD_STOP_gc;
     2c2:	e0 e1       	ldi	r30, 0x10	; 16
     2c4:	f8 e0       	ldi	r31, 0x08	; 8
     2c6:	84 81       	ldd	r24, Z+4	; 0x04
     2c8:	83 60       	ori	r24, 0x03	; 3
     2ca:	84 83       	std	Z+4, r24	; 0x04
     2cc:	08 95       	ret

000002ce <I2C_read_bytes>:
// addr_ptr		address of first array element to transfer
// slave reg	starting slave register
// num_bytes	number of bytes to transfer

uint8_t	I2C_read_bytes(uint8_t slave_addr, uint8_t *reg_ptr, uint8_t reg_len, uint8_t *dat_ptr, uint8_t dat_len)
{
     2ce:	cf 92       	push	r12
     2d0:	df 92       	push	r13
     2d2:	ef 92       	push	r14
     2d4:	ff 92       	push	r15
     2d6:	0f 93       	push	r16
     2d8:	cf 93       	push	r28
     2da:	df 93       	push	r29
     2dc:	7b 01       	movw	r14, r22
     2de:	c4 2f       	mov	r28, r20
     2e0:	69 01       	movw	r12, r18
	uint8_t status;
	if (dat_len > MAX_LEN) dat_len = MAX_LEN;
     2e2:	01 34       	cpi	r16, 0x41	; 65
     2e4:	08 f0       	brcs	.+2      	; 0x2e8 <I2C_read_bytes+0x1a>
     2e6:	00 e4       	ldi	r16, 0x40	; 64
	status = I2C_start(slave_addr << 1);							// slave write address, LSB 0
     2e8:	d8 2f       	mov	r29, r24
     2ea:	dd 0f       	add	r29, r29
     2ec:	8d 2f       	mov	r24, r29
     2ee:	37 df       	rcall	.-402    	; 0x15e <I2C_start>
	if (status != 0) goto error;
     2f0:	81 11       	cpse	r24, r1
	status = I2C_wait_ACK();										// wait for slave ACK
     2f2:	2a c0       	rjmp	.+84     	; 0x348 <I2C_read_bytes+0x7a>
     2f4:	44 df       	rcall	.-376    	; 0x17e <I2C_wait_ACK>
	if (status == 1) {
     2f6:	81 30       	cpi	r24, 0x01	; 1
		I2C_stop();													// NACK, abort
     2f8:	19 f4       	brne	.+6      	; 0x300 <I2C_read_bytes+0x32>
     2fa:	e3 df       	rcall	.-58     	; 0x2c2 <I2C_stop>
		return 1;
     2fc:	81 e0       	ldi	r24, 0x01	; 1
     2fe:	26 c0       	rjmp	.+76     	; 0x34c <I2C_read_bytes+0x7e>
	}
	if (status != 0) goto error;
     300:	81 11       	cpse	r24, r1
     302:	22 c0       	rjmp	.+68     	; 0x348 <I2C_read_bytes+0x7a>
    while(reg_len > 0){
	    status = I2C_write(reg_ptr);    							// send slave start register
     304:	08 c0       	rjmp	.+16     	; 0x316 <I2C_read_bytes+0x48>
     306:	c7 01       	movw	r24, r14
     308:	b5 df       	rcall	.-150    	; 0x274 <I2C_write>
	    if (status != 0) goto error;
     30a:	81 11       	cpse	r24, r1
     30c:	1d c0       	rjmp	.+58     	; 0x348 <I2C_read_bytes+0x7a>
        ++reg_ptr;
     30e:	8f ef       	ldi	r24, 0xFF	; 255
     310:	e8 1a       	sub	r14, r24
     312:	f8 0a       	sbc	r15, r24
        --reg_len;
     314:	c1 50       	subi	r28, 0x01	; 1
	if (status == 1) {
		I2C_stop();													// NACK, abort
		return 1;
	}
	if (status != 0) goto error;
    while(reg_len > 0){
     316:	c1 11       	cpse	r28, r1
	    status = I2C_write(reg_ptr);    							// send slave start register
	    if (status != 0) goto error;
        ++reg_ptr;
        --reg_len;
    }
	I2C_rep_start((slave_addr << 1) + 1);							// slave read address, LSB 1
     318:	f6 cf       	rjmp	.-20     	; 0x306 <I2C_read_bytes+0x38>
     31a:	81 e0       	ldi	r24, 0x01	; 1
     31c:	8d 0f       	add	r24, r29
	while (dat_len > 1) {
     31e:	59 df       	rcall	.-334    	; 0x1d2 <I2C_rep_start>
		status = I2C_read(dat_ptr, 0);								// first bytes, send ACK
     320:	09 c0       	rjmp	.+18     	; 0x334 <I2C_read_bytes+0x66>
     322:	60 e0       	ldi	r22, 0x00	; 0
     324:	c6 01       	movw	r24, r12
     326:	58 df       	rcall	.-336    	; 0x1d8 <I2C_read>
		if (status != 0) goto error;
     328:	81 11       	cpse	r24, r1
     32a:	0e c0       	rjmp	.+28     	; 0x348 <I2C_read_bytes+0x7a>
		++dat_ptr;
     32c:	8f ef       	ldi	r24, 0xFF	; 255
     32e:	c8 1a       	sub	r12, r24
		--dat_len;
     330:	d8 0a       	sbc	r13, r24
	    if (status != 0) goto error;
        ++reg_ptr;
        --reg_len;
    }
	I2C_rep_start((slave_addr << 1) + 1);							// slave read address, LSB 1
	while (dat_len > 1) {
     332:	01 50       	subi	r16, 0x01	; 1
		status = I2C_read(dat_ptr, 0);								// first bytes, send ACK
		if (status != 0) goto error;
		++dat_ptr;
		--dat_len;
	}
	status = I2C_read(dat_ptr, 1);									// single or last byte, send NACK
     334:	02 30       	cpi	r16, 0x02	; 2
     336:	a8 f7       	brcc	.-22     	; 0x322 <I2C_read_bytes+0x54>
     338:	61 e0       	ldi	r22, 0x01	; 1
	if (status != 0) goto error;
     33a:	c6 01       	movw	r24, r12
     33c:	4d df       	rcall	.-358    	; 0x1d8 <I2C_read>
	I2C_stop();
     33e:	81 11       	cpse	r24, r1
     340:	03 c0       	rjmp	.+6      	; 0x348 <I2C_read_bytes+0x7a>
	return 0;
     342:	bf df       	rcall	.-130    	; 0x2c2 <I2C_stop>
     344:	80 e0       	ldi	r24, 0x00	; 0
	
error:
	I2C_recover();													// clock out possibly stuck slave, reset master
     346:	02 c0       	rjmp	.+4      	; 0x34c <I2C_read_bytes+0x7e>
     348:	d5 de       	rcall	.-598    	; 0xf4 <I2C_recover>
	return 0xff;													// flag error
     34a:	8f ef       	ldi	r24, 0xFF	; 255
}
     34c:	df 91       	pop	r29
     34e:	cf 91       	pop	r28
     350:	0f 91       	pop	r16
     352:	ff 90       	pop	r15
     354:	ef 90       	pop	r14
     356:	df 90       	pop	r13
     358:	cf 90       	pop	r12
     35a:	08 95       	ret

0000035c <Setup>:
// Select "audio" input (0-2.5V)
void SelectAuIn(){
     VREF_CTRLA   = 0x22;    //0x22 for audio in/out (2.5V), 0x12 for temperature in, audio out (1.1V/2.5V)
     ADC0_CTRLA   &= ~(ADC_RESSEL_bm);
     ADC0_MUXPOS  = 0x07;    //Audio in: AIN7 at (0x07), Temperature: Internal sensor at (0x1E)
     adc0Chg = 1;
     35c:	cf 93       	push	r28
     35e:	df 93       	push	r29
     360:	f8 94       	cli
     362:	88 ed       	ldi	r24, 0xD8	; 216
     364:	84 bf       	out	0x34, r24	; 52
     366:	c1 e0       	ldi	r28, 0x01	; 1
     368:	c0 93 61 00 	sts	0x0061, r28	; 0x800061 <__TEXT_REGION_LENGTH__+0x700061>
     36c:	8a e4       	ldi	r24, 0x4A	; 74
     36e:	80 93 00 04 	sts	0x0400, r24	; 0x800400 <__TEXT_REGION_LENGTH__+0x700400>
     372:	8c e7       	ldi	r24, 0x7C	; 124
     374:	80 93 20 04 	sts	0x0420, r24	; 0x800420 <__TEXT_REGION_LENGTH__+0x700420>
     378:	9f e3       	ldi	r25, 0x3F	; 63
     37a:	90 93 40 04 	sts	0x0440, r25	; 0x800440 <__TEXT_REGION_LENGTH__+0x700440>
     37e:	e3 e5       	ldi	r30, 0x53	; 83
     380:	f4 e0       	ldi	r31, 0x04	; 4
     382:	80 81       	ld	r24, Z
     384:	80 68       	ori	r24, 0x80	; 128
     386:	80 83       	st	Z, r24
     388:	e4 e5       	ldi	r30, 0x54	; 84
     38a:	f4 e0       	ldi	r31, 0x04	; 4
     38c:	80 81       	ld	r24, Z
     38e:	80 68       	ori	r24, 0x80	; 128
     390:	80 83       	st	Z, r24
     392:	e5 e5       	ldi	r30, 0x55	; 85
     394:	f4 e0       	ldi	r31, 0x04	; 4
     396:	80 81       	ld	r24, Z
     398:	80 68       	ori	r24, 0x80	; 128
     39a:	80 83       	st	Z, r24
     39c:	e3 e3       	ldi	r30, 0x33	; 51
     39e:	f4 e0       	ldi	r31, 0x04	; 4
     3a0:	80 81       	ld	r24, Z
     3a2:	80 68       	ori	r24, 0x80	; 128
     3a4:	80 83       	st	Z, r24
     3a6:	e4 e3       	ldi	r30, 0x34	; 52
     3a8:	f4 e0       	ldi	r31, 0x04	; 4
     3aa:	80 81       	ld	r24, Z
     3ac:	80 68       	ori	r24, 0x80	; 128
     3ae:	80 83       	st	Z, r24
     3b0:	e5 e3       	ldi	r30, 0x35	; 53
     3b2:	f4 e0       	ldi	r31, 0x04	; 4
     3b4:	80 81       	ld	r24, Z
     3b6:	80 68       	ori	r24, 0x80	; 128
     3b8:	80 83       	st	Z, r24
     3ba:	c0 93 01 02 	sts	0x0201, r28	; 0x800201 <__TEXT_REGION_LENGTH__+0x700201>
     3be:	d2 e0       	ldi	r29, 0x02	; 2
     3c0:	d0 93 05 04 	sts	0x0405, r29	; 0x800405 <__TEXT_REGION_LENGTH__+0x700405>
     3c4:	2b e5       	ldi	r18, 0x5B	; 91
     3c6:	31 e0       	ldi	r19, 0x01	; 1
     3c8:	20 93 08 08 	sts	0x0808, r18	; 0x800808 <__TEXT_REGION_LENGTH__+0x700808>
     3cc:	30 93 09 08 	sts	0x0809, r19	; 0x800809 <__TEXT_REGION_LENGTH__+0x700809>
     3d0:	80 ea       	ldi	r24, 0xA0	; 160
     3d2:	80 93 05 08 	sts	0x0805, r24	; 0x800805 <__TEXT_REGION_LENGTH__+0x700805>
     3d6:	80 ec       	ldi	r24, 0xC0	; 192
     3d8:	80 93 06 08 	sts	0x0806, r24	; 0x800806 <__TEXT_REGION_LENGTH__+0x700806>
     3dc:	83 e0       	ldi	r24, 0x03	; 3
     3de:	80 93 07 08 	sts	0x0807, r24	; 0x800807 <__TEXT_REGION_LENGTH__+0x700807>
     3e2:	1c ba       	out	0x1c, r1	; 28
     3e4:	1d ba       	out	0x1d, r1	; 29
     3e6:	1e ba       	out	0x1e, r1	; 30
     3e8:	1f ba       	out	0x1f, r1	; 31
     3ea:	c0 93 03 0a 	sts	0x0A03, r28	; 0x800a03 <__TEXT_REGION_LENGTH__+0x700a03>
     3ee:	e0 e0       	ldi	r30, 0x00	; 0
     3f0:	fa e0       	ldi	r31, 0x0A	; 10
     3f2:	88 e0       	ldi	r24, 0x08	; 8
     3f4:	80 83       	st	Z, r24
     3f6:	90 93 02 02 	sts	0x0202, r25	; 0x800202 <__TEXT_REGION_LENGTH__+0x700202>
     3fa:	87 e7       	ldi	r24, 0x77	; 119
     3fc:	80 93 01 0a 	sts	0x0A01, r24	; 0x800a01 <__TEXT_REGION_LENGTH__+0x700a01>
     400:	c0 93 0a 0a 	sts	0x0A0A, r28	; 0x800a0a <__TEXT_REGION_LENGTH__+0x700a0a>
     404:	8b e0       	ldi	r24, 0x0B	; 11
     406:	80 93 05 0a 	sts	0x0A05, r24	; 0x800a05 <__TEXT_REGION_LENGTH__+0x700a05>
     40a:	80 81       	ld	r24, Z
     40c:	81 60       	ori	r24, 0x01	; 1
     40e:	80 83       	st	Z, r24
     410:	85 e0       	ldi	r24, 0x05	; 5
     412:	80 93 40 0a 	sts	0x0A40, r24	; 0x800a40 <__TEXT_REGION_LENGTH__+0x700a40>
     416:	10 92 41 0a 	sts	0x0A41, r1	; 0x800a41 <__TEXT_REGION_LENGTH__+0x700a41>
     41a:	8f ef       	ldi	r24, 0xFF	; 255
     41c:	91 e0       	ldi	r25, 0x01	; 1
     41e:	80 93 4c 0a 	sts	0x0A4C, r24	; 0x800a4c <__TEXT_REGION_LENGTH__+0x700a4c>
     422:	90 93 4d 0a 	sts	0x0A4D, r25	; 0x800a4d <__TEXT_REGION_LENGTH__+0x700a4d>
     426:	10 92 45 0a 	sts	0x0A45, r1	; 0x800a45 <__TEXT_REGION_LENGTH__+0x700a45>
     42a:	c0 93 50 0a 	sts	0x0A50, r28	; 0x800a50 <__TEXT_REGION_LENGTH__+0x700a50>
     42e:	10 92 51 0a 	sts	0x0A51, r1	; 0x800a51 <__TEXT_REGION_LENGTH__+0x700a51>
     432:	8b e8       	ldi	r24, 0x8B	; 139
     434:	93 e0       	ldi	r25, 0x03	; 3
     436:	80 93 5c 0a 	sts	0x0A5C, r24	; 0x800a5c <__TEXT_REGION_LENGTH__+0x700a5c>
     43a:	90 93 5d 0a 	sts	0x0A5D, r25	; 0x800a5d <__TEXT_REGION_LENGTH__+0x700a5d>
     43e:	c0 93 55 0a 	sts	0x0A55, r28	; 0x800a55 <__TEXT_REGION_LENGTH__+0x700a55>
     442:	3a de       	rcall	.-908    	; 0xb8 <I2C_init>
     444:	82 e1       	ldi	r24, 0x12	; 18
     446:	80 93 a0 00 	sts	0x00A0, r24	; 0x8000a0 <__TEXT_REGION_LENGTH__+0x7000a0>
     44a:	80 e2       	ldi	r24, 0x20	; 32
     44c:	80 93 a2 00 	sts	0x00A2, r24	; 0x8000a2 <__TEXT_REGION_LENGTH__+0x7000a2>
     450:	c0 93 a1 00 	sts	0x00A1, r28	; 0x8000a1 <__TEXT_REGION_LENGTH__+0x7000a1>
     454:	e0 e0       	ldi	r30, 0x00	; 0
     456:	f6 e0       	ldi	r31, 0x06	; 6
     458:	86 e0       	ldi	r24, 0x06	; 6
     45a:	80 83       	st	Z, r24
     45c:	84 e4       	ldi	r24, 0x44	; 68
     45e:	80 93 02 06 	sts	0x0602, r24	; 0x800602 <__TEXT_REGION_LENGTH__+0x700602>
     462:	8e e1       	ldi	r24, 0x1E	; 30
     464:	80 93 06 06 	sts	0x0606, r24	; 0x800606 <__TEXT_REGION_LENGTH__+0x700606>
     468:	c0 93 0a 06 	sts	0x060A, r28	; 0x80060a <__TEXT_REGION_LENGTH__+0x70060a>
     46c:	80 81       	ld	r24, Z
     46e:	81 60       	ori	r24, 0x01	; 1
     470:	80 83       	st	Z, r24
     472:	c0 93 08 06 	sts	0x0608, r28	; 0x800608 <__TEXT_REGION_LENGTH__+0x700608>
     476:	e0 e4       	ldi	r30, 0x40	; 64
     478:	f6 e0       	ldi	r31, 0x06	; 6
     47a:	10 82       	st	Z, r1
     47c:	d0 93 41 06 	sts	0x0641, r29	; 0x800641 <__TEXT_REGION_LENGTH__+0x700641>
     480:	82 e5       	ldi	r24, 0x52	; 82
     482:	80 93 42 06 	sts	0x0642, r24	; 0x800642 <__TEXT_REGION_LENGTH__+0x700642>
     486:	84 e0       	ldi	r24, 0x04	; 4
     488:	80 93 45 06 	sts	0x0645, r24	; 0x800645 <__TEXT_REGION_LENGTH__+0x700645>
     48c:	80 93 46 06 	sts	0x0646, r24	; 0x800646 <__TEXT_REGION_LENGTH__+0x700646>
     490:	c0 93 4a 06 	sts	0x064A, r28	; 0x80064a <__TEXT_REGION_LENGTH__+0x70064a>
     494:	80 81       	ld	r24, Z
     496:	81 60       	ori	r24, 0x01	; 1
     498:	80 83       	st	Z, r24
     49a:	c0 93 48 06 	sts	0x0648, r28	; 0x800648 <__TEXT_REGION_LENGTH__+0x700648>
     49e:	e0 ea       	ldi	r30, 0xA0	; 160
     4a0:	f6 e0       	ldi	r31, 0x06	; 6
     4a2:	80 e4       	ldi	r24, 0x40	; 64
     4a4:	80 83       	st	Z, r24
     4a6:	80 e8       	ldi	r24, 0x80	; 128
     4a8:	80 93 a1 06 	sts	0x06A1, r24	; 0x8006a1 <__TEXT_REGION_LENGTH__+0x7006a1>
     4ac:	80 81       	ld	r24, Z
     4ae:	81 60       	ori	r24, 0x01	; 1
     4b0:	80 83       	st	Z, r24
     4b2:	80 91 41 01 	lds	r24, 0x0141	; 0x800141 <__TEXT_REGION_LENGTH__+0x700141>
     4b6:	80 fd       	sbrc	r24, 0
     4b8:	fc cf       	rjmp	.-8      	; 0x4b2 <__LOCK_REGION_LENGTH__+0xb2>
     4ba:	80 e3       	ldi	r24, 0x30	; 48
     4bc:	80 93 40 01 	sts	0x0140, r24	; 0x800140 <__TEXT_REGION_LENGTH__+0x700140>
     4c0:	10 92 47 01 	sts	0x0147, r1	; 0x800147 <__TEXT_REGION_LENGTH__+0x700147>
     4c4:	80 91 41 01 	lds	r24, 0x0141	; 0x800141 <__TEXT_REGION_LENGTH__+0x700141>
     4c8:	82 fd       	sbrc	r24, 2
     4ca:	fc cf       	rjmp	.-8      	; 0x4c4 <__LOCK_REGION_LENGTH__+0xc4>
     4cc:	ea e4       	ldi	r30, 0x4A	; 74
     4ce:	f1 e0       	ldi	r31, 0x01	; 1
     4d0:	80 e0       	ldi	r24, 0x00	; 0
     4d2:	98 e7       	ldi	r25, 0x78	; 120
     4d4:	80 83       	st	Z, r24
     4d6:	91 83       	std	Z+1, r25	; 0x01
     4d8:	80 91 48 01 	lds	r24, 0x0148	; 0x800148 <__TEXT_REGION_LENGTH__+0x700148>
     4dc:	90 91 49 01 	lds	r25, 0x0149	; 0x800149 <__TEXT_REGION_LENGTH__+0x700149>
     4e0:	82 96       	adiw	r24, 0x22	; 34
     4e2:	60 81       	ld	r22, Z
     4e4:	71 81       	ldd	r23, Z+1	; 0x01
     4e6:	0e 94 4e 12 	call	0x249c	; 0x249c <__udivmodhi4>
     4ea:	80 93 2f 3b 	sts	0x3B2F, r24	; 0x803b2f <tmp16bit>
     4ee:	90 93 30 3b 	sts	0x3B30, r25	; 0x803b30 <tmp16bit+0x1>
     4f2:	80 91 41 01 	lds	r24, 0x0141	; 0x800141 <__TEXT_REGION_LENGTH__+0x700141>
     4f6:	83 fd       	sbrc	r24, 3
     4f8:	fc cf       	rjmp	.-8      	; 0x4f2 <__LOCK_REGION_LENGTH__+0xf2>
     4fa:	80 91 2f 3b 	lds	r24, 0x3B2F	; 0x803b2f <tmp16bit>
     4fe:	90 91 30 3b 	lds	r25, 0x3B30	; 0x803b30 <tmp16bit+0x1>
     502:	80 93 4c 01 	sts	0x014C, r24	; 0x80014c <__TEXT_REGION_LENGTH__+0x70014c>
     506:	90 93 4d 01 	sts	0x014D, r25	; 0x80014d <__TEXT_REGION_LENGTH__+0x70014d>
     50a:	83 e0       	ldi	r24, 0x03	; 3
     50c:	80 93 42 01 	sts	0x0142, r24	; 0x800142 <__TEXT_REGION_LENGTH__+0x700142>
     510:	81 e0       	ldi	r24, 0x01	; 1
     512:	80 93 52 01 	sts	0x0152, r24	; 0x800152 <__TEXT_REGION_LENGTH__+0x700152>
     516:	88 e0       	ldi	r24, 0x08	; 8
     518:	80 93 50 01 	sts	0x0150, r24	; 0x800150 <__TEXT_REGION_LENGTH__+0x700150>
     51c:	80 91 41 01 	lds	r24, 0x0141	; 0x800141 <__TEXT_REGION_LENGTH__+0x700141>
     520:	80 fd       	sbrc	r24, 0
     522:	fc cf       	rjmp	.-8      	; 0x51c <__LOCK_REGION_LENGTH__+0x11c>
     524:	e0 e4       	ldi	r30, 0x40	; 64
     526:	f1 e0       	ldi	r31, 0x01	; 1
     528:	80 81       	ld	r24, Z
     52a:	81 60       	ori	r24, 0x01	; 1
     52c:	80 83       	st	Z, r24
     52e:	e0 e5       	ldi	r30, 0x50	; 80
     530:	f1 e0       	ldi	r31, 0x01	; 1
     532:	80 81       	ld	r24, Z
     534:	81 60       	ori	r24, 0x01	; 1
     536:	80 83       	st	Z, r24
     538:	ea e9       	ldi	r30, 0x9A	; 154
     53a:	fa e3       	ldi	r31, 0x3A	; 58
     53c:	10 82       	st	Z, r1
     53e:	e0 93 de 3a 	sts	0x3ADE, r30	; 0x803ade <serTxAddr>
     542:	f0 93 df 3a 	sts	0x3ADF, r31	; 0x803adf <serTxAddr+0x1>
     546:	78 94       	sei
     548:	df 91       	pop	r29
     54a:	cf 91       	pop	r28
     54c:	08 95       	ret

0000054e <__vector_8>:
     54e:	1f 92       	push	r1
     550:	0f 92       	push	r0
     552:	0f b6       	in	r0, 0x3f	; 63
     554:	0f 92       	push	r0
     556:	11 24       	eor	r1, r1
     558:	8f 93       	push	r24
     55a:	9f 93       	push	r25
     55c:	af 93       	push	r26
     55e:	bf 93       	push	r27
     560:	ef 93       	push	r30
     562:	ff 93       	push	r31
     564:	87 e0       	ldi	r24, 0x07	; 7
     566:	80 93 46 04 	sts	0x0446, r24	; 0x800446 <__TEXT_REGION_LENGTH__+0x700446>
     56a:	84 e4       	ldi	r24, 0x44	; 68
     56c:	80 93 26 04 	sts	0x0426, r24	; 0x800426 <__TEXT_REGION_LENGTH__+0x700426>
     570:	ec b3       	in	r30, 0x1c	; 28
     572:	f0 e0       	ldi	r31, 0x00	; 0
     574:	ee 0f       	add	r30, r30
     576:	ff 1f       	adc	r31, r31
     578:	ee 0f       	add	r30, r30
     57a:	ff 1f       	adc	r31, r31
     57c:	ee 0f       	add	r30, r30
     57e:	ff 1f       	adc	r31, r31
     580:	eb 5f       	subi	r30, 0xFB	; 251
     582:	f4 4c       	sbci	r31, 0xC4	; 196
     584:	a8 e2       	ldi	r26, 0x28	; 40
     586:	ba e0       	ldi	r27, 0x0A	; 10
     588:	96 e0       	ldi	r25, 0x06	; 6
     58a:	81 91       	ld	r24, Z+
     58c:	8d 93       	st	X+, r24
     58e:	9a 95       	dec	r25
     590:	e1 f7       	brne	.-8      	; 0x58a <__vector_8+0x3c>
     592:	8b e0       	ldi	r24, 0x0B	; 11
     594:	80 93 05 0a 	sts	0x0A05, r24	; 0x800a05 <__TEXT_REGION_LENGTH__+0x700a05>
     598:	8c b3       	in	r24, 0x1c	; 28
     59a:	83 30       	cpi	r24, 0x03	; 3
     59c:	58 f4       	brcc	.+22     	; 0x5b4 <__vector_8+0x66>
     59e:	8c b3       	in	r24, 0x1c	; 28
     5a0:	91 e0       	ldi	r25, 0x01	; 1
     5a2:	01 c0       	rjmp	.+2      	; 0x5a6 <__vector_8+0x58>
     5a4:	99 0f       	add	r25, r25
     5a6:	8a 95       	dec	r24
     5a8:	ea f7       	brpl	.-6      	; 0x5a4 <__vector_8+0x56>
     5aa:	99 b9       	out	0x09, r25	; 9
     5ac:	8c b3       	in	r24, 0x1c	; 28
     5ae:	83 95       	inc	r24
     5b0:	8c bb       	out	0x1c, r24	; 28
     5b2:	0a c0       	rjmp	.+20     	; 0x5c8 <__vector_8+0x7a>
     5b4:	8c b3       	in	r24, 0x1c	; 28
     5b6:	83 30       	cpi	r24, 0x03	; 3
     5b8:	21 f4       	brne	.+8      	; 0x5c2 <__vector_8+0x74>
     5ba:	2a 9a       	sbi	0x05, 2	; 5
     5bc:	83 95       	inc	r24
     5be:	8c bb       	out	0x1c, r24	; 28
     5c0:	03 c0       	rjmp	.+6      	; 0x5c8 <__vector_8+0x7a>
     5c2:	2e 9a       	sbi	0x05, 6	; 5
     5c4:	88 27       	eor	r24, r24
     5c6:	8c bb       	out	0x1c, r24	; 28
     5c8:	80 91 85 3a 	lds	r24, 0x3A85	; 0x803a85 <timeout_I2C>
     5cc:	88 23       	and	r24, r24
     5ce:	29 f0       	breq	.+10     	; 0x5da <__vector_8+0x8c>
     5d0:	80 91 85 3a 	lds	r24, 0x3A85	; 0x803a85 <timeout_I2C>
     5d4:	81 50       	subi	r24, 0x01	; 1
     5d6:	80 93 85 3a 	sts	0x3A85, r24	; 0x803a85 <timeout_I2C>
     5da:	8f ef       	ldi	r24, 0xFF	; 255
     5dc:	80 93 0b 0a 	sts	0x0A0B, r24	; 0x800a0b <__TEXT_REGION_LENGTH__+0x700a0b>
     5e0:	ff 91       	pop	r31
     5e2:	ef 91       	pop	r30
     5e4:	bf 91       	pop	r27
     5e6:	af 91       	pop	r26
     5e8:	9f 91       	pop	r25
     5ea:	8f 91       	pop	r24
     5ec:	0f 90       	pop	r0
     5ee:	0f be       	out	0x3f, r0	; 63
     5f0:	0f 90       	pop	r0
     5f2:	1f 90       	pop	r1
     5f4:	18 95       	reti

000005f6 <__vector_13>:
     5f6:	1f 92       	push	r1
     5f8:	0f 92       	push	r0
     5fa:	0f b6       	in	r0, 0x3f	; 63
     5fc:	0f 92       	push	r0
     5fe:	11 24       	eor	r1, r1
     600:	8f 93       	push	r24
     602:	9f 93       	push	r25
     604:	ef 93       	push	r30
     606:	ff 93       	push	r31
     608:	e0 91 de 3a 	lds	r30, 0x3ADE	; 0x803ade <serTxAddr>
     60c:	f0 91 df 3a 	lds	r31, 0x3ADF	; 0x803adf <serTxAddr+0x1>
     610:	80 81       	ld	r24, Z
     612:	88 23       	and	r24, r24
     614:	91 f0       	breq	.+36     	; 0x63a <__vector_13+0x44>
     616:	80 81       	ld	r24, Z
     618:	80 93 02 08 	sts	0x0802, r24	; 0x800802 <__TEXT_REGION_LENGTH__+0x700802>
     61c:	80 91 de 3a 	lds	r24, 0x3ADE	; 0x803ade <serTxAddr>
     620:	90 91 df 3a 	lds	r25, 0x3ADF	; 0x803adf <serTxAddr+0x1>
     624:	01 96       	adiw	r24, 0x01	; 1
     626:	80 93 de 3a 	sts	0x3ADE, r24	; 0x803ade <serTxAddr>
     62a:	90 93 df 3a 	sts	0x3ADF, r25	; 0x803adf <serTxAddr+0x1>
     62e:	e5 e0       	ldi	r30, 0x05	; 5
     630:	f8 e0       	ldi	r31, 0x08	; 8
     632:	80 81       	ld	r24, Z
     634:	80 62       	ori	r24, 0x20	; 32
     636:	80 83       	st	Z, r24
     638:	05 c0       	rjmp	.+10     	; 0x644 <__vector_13+0x4e>
     63a:	81 e0       	ldi	r24, 0x01	; 1
     63c:	80 93 04 38 	sts	0x3804, r24	; 0x803804 <serTxDone>
     640:	10 92 45 0a 	sts	0x0A45, r1	; 0x800a45 <__TEXT_REGION_LENGTH__+0x700a45>
     644:	81 e0       	ldi	r24, 0x01	; 1
     646:	80 93 46 0a 	sts	0x0A46, r24	; 0x800a46 <__TEXT_REGION_LENGTH__+0x700a46>
     64a:	ff 91       	pop	r31
     64c:	ef 91       	pop	r30
     64e:	9f 91       	pop	r25
     650:	8f 91       	pop	r24
     652:	0f 90       	pop	r0
     654:	0f be       	out	0x3f, r0	; 63
     656:	0f 90       	pop	r0
     658:	1f 90       	pop	r1
     65a:	18 95       	reti

0000065c <__vector_14>:
     65c:	1f 92       	push	r1
     65e:	0f 92       	push	r0
     660:	0f b6       	in	r0, 0x3f	; 63
     662:	0f 92       	push	r0
     664:	11 24       	eor	r1, r1
     666:	2f 93       	push	r18
     668:	3f 93       	push	r19
     66a:	4f 93       	push	r20
     66c:	8f 93       	push	r24
     66e:	9f 93       	push	r25
     670:	ef 93       	push	r30
     672:	ff 93       	push	r31
     674:	e0 91 02 38 	lds	r30, 0x3802	; 0x803802 <auSmpAddr>
     678:	f0 91 03 38 	lds	r31, 0x3803	; 0x803803 <auSmpAddr+0x1>
     67c:	80 81       	ld	r24, Z
     67e:	81 11       	cpse	r24, r1
     680:	08 c0       	rjmp	.+16     	; 0x692 <__vector_14+0x36>
     682:	80 91 00 38 	lds	r24, 0x3800	; 0x803800 <__data_start>
     686:	90 91 01 38 	lds	r25, 0x3801	; 0x803801 <__data_start+0x1>
     68a:	80 93 02 38 	sts	0x3802, r24	; 0x803802 <auSmpAddr>
     68e:	90 93 03 38 	sts	0x3803, r25	; 0x803803 <auSmpAddr+0x1>
     692:	e0 91 02 38 	lds	r30, 0x3802	; 0x803802 <auSmpAddr>
     696:	f0 91 03 38 	lds	r31, 0x3803	; 0x803803 <auSmpAddr+0x1>
     69a:	80 81       	ld	r24, Z
     69c:	88 23       	and	r24, r24
     69e:	e1 f0       	breq	.+56     	; 0x6d8 <__vector_14+0x7c>
     6a0:	20 81       	ld	r18, Z
     6a2:	30 e0       	ldi	r19, 0x00	; 0
     6a4:	2f 57       	subi	r18, 0x7F	; 127
     6a6:	31 09       	sbc	r19, r1
     6a8:	40 91 db 3a 	lds	r20, 0x3ADB	; 0x803adb <auVolume>
     6ac:	42 9f       	mul	r20, r18
     6ae:	c0 01       	movw	r24, r0
     6b0:	43 9f       	mul	r20, r19
     6b2:	90 0d       	add	r25, r0
     6b4:	11 24       	eor	r1, r1
     6b6:	89 2f       	mov	r24, r25
     6b8:	99 0f       	add	r25, r25
     6ba:	99 0b       	sbc	r25, r25
     6bc:	80 58       	subi	r24, 0x80	; 128
     6be:	9f 4f       	sbci	r25, 0xFF	; 255
     6c0:	80 93 a1 06 	sts	0x06A1, r24	; 0x8006a1 <__TEXT_REGION_LENGTH__+0x7006a1>
     6c4:	80 91 02 38 	lds	r24, 0x3802	; 0x803802 <auSmpAddr>
     6c8:	90 91 03 38 	lds	r25, 0x3803	; 0x803803 <auSmpAddr+0x1>
     6cc:	01 96       	adiw	r24, 0x01	; 1
     6ce:	80 93 02 38 	sts	0x3802, r24	; 0x803802 <auSmpAddr>
     6d2:	90 93 03 38 	sts	0x3803, r25	; 0x803803 <auSmpAddr+0x1>
     6d6:	06 c0       	rjmp	.+12     	; 0x6e4 <__vector_14+0x88>
     6d8:	80 e8       	ldi	r24, 0x80	; 128
     6da:	80 93 a1 06 	sts	0x06A1, r24	; 0x8006a1 <__TEXT_REGION_LENGTH__+0x7006a1>
     6de:	81 e0       	ldi	r24, 0x01	; 1
     6e0:	80 93 2d 3b 	sts	0x3B2D, r24	; 0x803b2d <auPlayDone>
     6e4:	81 e0       	ldi	r24, 0x01	; 1
     6e6:	80 93 56 0a 	sts	0x0A56, r24	; 0x800a56 <__TEXT_REGION_LENGTH__+0x700a56>
     6ea:	ff 91       	pop	r31
     6ec:	ef 91       	pop	r30
     6ee:	9f 91       	pop	r25
     6f0:	8f 91       	pop	r24
     6f2:	4f 91       	pop	r20
     6f4:	3f 91       	pop	r19
     6f6:	2f 91       	pop	r18
     6f8:	0f 90       	pop	r0
     6fa:	0f be       	out	0x3f, r0	; 63
     6fc:	0f 90       	pop	r0
     6fe:	1f 90       	pop	r1
     700:	18 95       	reti

00000702 <__vector_27>:
     702:	1f 92       	push	r1
     704:	0f 92       	push	r0
     706:	0f b6       	in	r0, 0x3f	; 63
     708:	0f 92       	push	r0
     70a:	11 24       	eor	r1, r1
     70c:	8f 93       	push	r24
     70e:	ef 93       	push	r30
     710:	ff 93       	push	r31
     712:	80 91 9c 38 	lds	r24, 0x389C	; 0x80389c <serRxDone>
     716:	81 11       	cpse	r24, r1
     718:	24 c0       	rjmp	.+72     	; 0x762 <__vector_27+0x60>
     71a:	ed b3       	in	r30, 0x1d	; 29
     71c:	f0 e0       	ldi	r31, 0x00	; 0
     71e:	80 91 00 08 	lds	r24, 0x0800	; 0x800800 <__TEXT_REGION_LENGTH__+0x700800>
     722:	e6 56       	subi	r30, 0x66	; 102
     724:	f5 4c       	sbci	r31, 0xC5	; 197
     726:	80 83       	st	Z, r24
     728:	ed b3       	in	r30, 0x1d	; 29
     72a:	f0 e0       	ldi	r31, 0x00	; 0
     72c:	e6 56       	subi	r30, 0x66	; 102
     72e:	f5 4c       	sbci	r31, 0xC5	; 197
     730:	80 81       	ld	r24, Z
     732:	80 93 02 08 	sts	0x0802, r24	; 0x800802 <__TEXT_REGION_LENGTH__+0x700802>
     736:	ed b3       	in	r30, 0x1d	; 29
     738:	f0 e0       	ldi	r31, 0x00	; 0
     73a:	e6 56       	subi	r30, 0x66	; 102
     73c:	f5 4c       	sbci	r31, 0xC5	; 197
     73e:	80 81       	ld	r24, Z
     740:	8a 30       	cpi	r24, 0x0A	; 10
     742:	49 f4       	brne	.+18     	; 0x756 <__vector_27+0x54>
     744:	ed b3       	in	r30, 0x1d	; 29
     746:	f0 e0       	ldi	r31, 0x00	; 0
     748:	e6 56       	subi	r30, 0x66	; 102
     74a:	f5 4c       	sbci	r31, 0xC5	; 197
     74c:	10 82       	st	Z, r1
     74e:	81 e0       	ldi	r24, 0x01	; 1
     750:	80 93 9c 38 	sts	0x389C, r24	; 0x80389c <serRxDone>
     754:	06 c0       	rjmp	.+12     	; 0x762 <__vector_27+0x60>
     756:	8d b3       	in	r24, 0x1d	; 29
     758:	80 34       	cpi	r24, 0x40	; 64
     75a:	18 f4       	brcc	.+6      	; 0x762 <__vector_27+0x60>
     75c:	8d b3       	in	r24, 0x1d	; 29
     75e:	8f 5f       	subi	r24, 0xFF	; 255
     760:	8d bb       	out	0x1d, r24	; 29
     762:	80 e8       	ldi	r24, 0x80	; 128
     764:	80 93 04 08 	sts	0x0804, r24	; 0x800804 <__TEXT_REGION_LENGTH__+0x700804>
     768:	ff 91       	pop	r31
     76a:	ef 91       	pop	r30
     76c:	8f 91       	pop	r24
     76e:	0f 90       	pop	r0
     770:	0f be       	out	0x3f, r0	; 63
     772:	0f 90       	pop	r0
     774:	1f 90       	pop	r1
     776:	18 95       	reti

00000778 <__vector_28>:
     778:	1f 92       	push	r1
     77a:	0f 92       	push	r0
     77c:	0f b6       	in	r0, 0x3f	; 63
     77e:	0f 92       	push	r0
     780:	11 24       	eor	r1, r1
     782:	8f 93       	push	r24
     784:	ef 93       	push	r30
     786:	ff 93       	push	r31
     788:	10 92 4a 0a 	sts	0x0A4A, r1	; 0x800a4a <__TEXT_REGION_LENGTH__+0x700a4a>
     78c:	10 92 4b 0a 	sts	0x0A4B, r1	; 0x800a4b <__TEXT_REGION_LENGTH__+0x700a4b>
     790:	81 e0       	ldi	r24, 0x01	; 1
     792:	80 93 45 0a 	sts	0x0A45, r24	; 0x800a45 <__TEXT_REGION_LENGTH__+0x700a45>
     796:	e5 e0       	ldi	r30, 0x05	; 5
     798:	f8 e0       	ldi	r31, 0x08	; 8
     79a:	80 81       	ld	r24, Z
     79c:	8f 7d       	andi	r24, 0xDF	; 223
     79e:	80 83       	st	Z, r24
     7a0:	ff 91       	pop	r31
     7a2:	ef 91       	pop	r30
     7a4:	8f 91       	pop	r24
     7a6:	0f 90       	pop	r0
     7a8:	0f be       	out	0x3f, r0	; 63
     7aa:	0f 90       	pop	r0
     7ac:	1f 90       	pop	r1
     7ae:	18 95       	reti

000007b0 <__vector_20>:
     7b0:	1f 92       	push	r1
     7b2:	0f 92       	push	r0
     7b4:	0f b6       	in	r0, 0x3f	; 63
     7b6:	0f 92       	push	r0
     7b8:	11 24       	eor	r1, r1
     7ba:	8f 93       	push	r24
     7bc:	ef 93       	push	r30
     7be:	ff 93       	push	r31
     7c0:	80 91 90 38 	lds	r24, 0x3890	; 0x803890 <__data_end>
     7c4:	81 11       	cpse	r24, r1
     7c6:	15 c0       	rjmp	.+42     	; 0x7f2 <__vector_20+0x42>
     7c8:	8e b3       	in	r24, 0x1e	; 30
     7ca:	8f 5f       	subi	r24, 0xFF	; 255
     7cc:	8f 71       	andi	r24, 0x1F	; 31
     7ce:	8e bb       	out	0x1e, r24	; 30
     7d0:	80 91 06 06 	lds	r24, 0x0606	; 0x800606 <__TEXT_REGION_LENGTH__+0x700606>
     7d4:	8e 31       	cpi	r24, 0x1E	; 30
     7d6:	29 f4       	brne	.+10     	; 0x7e2 <__vector_20+0x32>
     7d8:	80 91 10 06 	lds	r24, 0x0610	; 0x800610 <__TEXT_REGION_LENGTH__+0x700610>
     7dc:	80 93 2e 3b 	sts	0x3B2E, r24	; 0x803b2e <adcTemp>
     7e0:	0a c0       	rjmp	.+20     	; 0x7f6 <__vector_20+0x46>
     7e2:	ee b3       	in	r30, 0x1e	; 30
     7e4:	f0 e0       	ldi	r31, 0x00	; 0
     7e6:	80 91 10 06 	lds	r24, 0x0610	; 0x800610 <__TEXT_REGION_LENGTH__+0x700610>
     7ea:	eb 51       	subi	r30, 0x1B	; 27
     7ec:	f5 4c       	sbci	r31, 0xC5	; 197
     7ee:	80 83       	st	Z, r24
     7f0:	02 c0       	rjmp	.+4      	; 0x7f6 <__vector_20+0x46>
     7f2:	10 92 90 38 	sts	0x3890, r1	; 0x803890 <__data_end>
     7f6:	81 e0       	ldi	r24, 0x01	; 1
     7f8:	80 93 0b 06 	sts	0x060B, r24	; 0x80060b <__TEXT_REGION_LENGTH__+0x70060b>
     7fc:	ff 91       	pop	r31
     7fe:	ef 91       	pop	r30
     800:	8f 91       	pop	r24
     802:	0f 90       	pop	r0
     804:	0f be       	out	0x3f, r0	; 63
     806:	0f 90       	pop	r0
     808:	1f 90       	pop	r1
     80a:	18 95       	reti

0000080c <__vector_22>:
     80c:	1f 92       	push	r1
     80e:	0f 92       	push	r0
     810:	0f b6       	in	r0, 0x3f	; 63
     812:	0f 92       	push	r0
     814:	11 24       	eor	r1, r1
     816:	8f 93       	push	r24
     818:	9f 93       	push	r25
     81a:	80 91 46 06 	lds	r24, 0x0646	; 0x800646 <__TEXT_REGION_LENGTH__+0x700646>
     81e:	81 11       	cpse	r24, r1
     820:	0c c0       	rjmp	.+24     	; 0x83a <__vector_22+0x2e>
     822:	80 91 50 06 	lds	r24, 0x0650	; 0x800650 <__TEXT_REGION_LENGTH__+0x700650>
     826:	90 91 51 06 	lds	r25, 0x0651	; 0x800651 <__TEXT_REGION_LENGTH__+0x700651>
     82a:	80 93 e2 3a 	sts	0x3AE2, r24	; 0x803ae2 <adcPhot>
     82e:	90 93 e3 3a 	sts	0x3AE3, r25	; 0x803ae3 <adcPhot+0x1>
     832:	81 e0       	ldi	r24, 0x01	; 1
     834:	80 93 46 06 	sts	0x0646, r24	; 0x800646 <__TEXT_REGION_LENGTH__+0x700646>
     838:	23 c0       	rjmp	.+70     	; 0x880 <__vector_22+0x74>
     83a:	80 91 46 06 	lds	r24, 0x0646	; 0x800646 <__TEXT_REGION_LENGTH__+0x700646>
     83e:	81 30       	cpi	r24, 0x01	; 1
     840:	79 f4       	brne	.+30     	; 0x860 <__vector_22+0x54>
     842:	88 e0       	ldi	r24, 0x08	; 8
     844:	80 93 06 04 	sts	0x0406, r24	; 0x800406 <__TEXT_REGION_LENGTH__+0x700406>
     848:	80 91 50 06 	lds	r24, 0x0650	; 0x800650 <__TEXT_REGION_LENGTH__+0x700650>
     84c:	90 91 51 06 	lds	r25, 0x0651	; 0x800651 <__TEXT_REGION_LENGTH__+0x700651>
     850:	80 93 e0 3a 	sts	0x3AE0, r24	; 0x803ae0 <adcHall>
     854:	90 93 e1 3a 	sts	0x3AE1, r25	; 0x803ae1 <adcHall+0x1>
     858:	84 e0       	ldi	r24, 0x04	; 4
     85a:	80 93 46 06 	sts	0x0646, r24	; 0x800646 <__TEXT_REGION_LENGTH__+0x700646>
     85e:	10 c0       	rjmp	.+32     	; 0x880 <__vector_22+0x74>
     860:	80 91 50 06 	lds	r24, 0x0650	; 0x800650 <__TEXT_REGION_LENGTH__+0x700650>
     864:	90 91 51 06 	lds	r25, 0x0651	; 0x800651 <__TEXT_REGION_LENGTH__+0x700651>
     868:	80 93 dc 3a 	sts	0x3ADC, r24	; 0x803adc <adcBtns>
     86c:	90 93 dd 3a 	sts	0x3ADD, r25	; 0x803add <adcBtns+0x1>
     870:	8f b3       	in	r24, 0x1f	; 31
     872:	8f 30       	cpi	r24, 0x0F	; 15
     874:	29 f4       	brne	.+10     	; 0x880 <__vector_22+0x74>
     876:	10 92 46 06 	sts	0x0646, r1	; 0x800646 <__TEXT_REGION_LENGTH__+0x700646>
     87a:	88 e0       	ldi	r24, 0x08	; 8
     87c:	80 93 05 04 	sts	0x0405, r24	; 0x800405 <__TEXT_REGION_LENGTH__+0x700405>
     880:	8f b3       	in	r24, 0x1f	; 31
     882:	90 e0       	ldi	r25, 0x00	; 0
     884:	01 96       	adiw	r24, 0x01	; 1
     886:	8f 70       	andi	r24, 0x0F	; 15
     888:	90 78       	andi	r25, 0x80	; 128
     88a:	99 23       	and	r25, r25
     88c:	24 f4       	brge	.+8      	; 0x896 <__vector_22+0x8a>
     88e:	01 97       	sbiw	r24, 0x01	; 1
     890:	80 6f       	ori	r24, 0xF0	; 240
     892:	9f 6f       	ori	r25, 0xFF	; 255
     894:	01 96       	adiw	r24, 0x01	; 1
     896:	8f bb       	out	0x1f, r24	; 31
     898:	81 e0       	ldi	r24, 0x01	; 1
     89a:	80 93 4b 06 	sts	0x064B, r24	; 0x80064b <__TEXT_REGION_LENGTH__+0x70064b>
     89e:	9f 91       	pop	r25
     8a0:	8f 91       	pop	r24
     8a2:	0f 90       	pop	r0
     8a4:	0f be       	out	0x3f, r0	; 63
     8a6:	0f 90       	pop	r0
     8a8:	1f 90       	pop	r1
     8aa:	18 95       	reti

000008ac <__vector_6>:
     8ac:	1f 92       	push	r1
     8ae:	0f 92       	push	r0
     8b0:	0f b6       	in	r0, 0x3f	; 63
     8b2:	0f 92       	push	r0
     8b4:	11 24       	eor	r1, r1
     8b6:	5f 93       	push	r21
     8b8:	6f 93       	push	r22
     8ba:	7f 93       	push	r23
     8bc:	8f 93       	push	r24
     8be:	9f 93       	push	r25
     8c0:	af 93       	push	r26
     8c2:	bf 93       	push	r27
     8c4:	80 91 43 01 	lds	r24, 0x0143	; 0x800143 <__TEXT_REGION_LENGTH__+0x700143>
     8c8:	81 ff       	sbrs	r24, 1
     8ca:	28 c0       	rjmp	.+80     	; 0x91c <__vector_6+0x70>
     8cc:	80 91 9a 38 	lds	r24, 0x389A	; 0x80389a <buttonMark>
     8d0:	8f 3f       	cpi	r24, 0xFF	; 255
     8d2:	29 f0       	breq	.+10     	; 0x8de <__vector_6+0x32>
     8d4:	80 91 9a 38 	lds	r24, 0x389A	; 0x80389a <buttonMark>
     8d8:	8f 5f       	subi	r24, 0xFF	; 255
     8da:	80 93 9a 38 	sts	0x389A, r24	; 0x80389a <buttonMark>
     8de:	80 91 48 01 	lds	r24, 0x0148	; 0x800148 <__TEXT_REGION_LENGTH__+0x700148>
     8e2:	90 91 49 01 	lds	r25, 0x0149	; 0x800149 <__TEXT_REGION_LENGTH__+0x700149>
     8e6:	82 96       	adiw	r24, 0x22	; 34
     8e8:	60 91 4a 01 	lds	r22, 0x014A	; 0x80014a <__TEXT_REGION_LENGTH__+0x70014a>
     8ec:	70 91 4b 01 	lds	r23, 0x014B	; 0x80014b <__TEXT_REGION_LENGTH__+0x70014b>
     8f0:	0e 94 4e 12 	call	0x249c	; 0x249c <__udivmodhi4>
     8f4:	80 93 2f 3b 	sts	0x3B2F, r24	; 0x803b2f <tmp16bit>
     8f8:	90 93 30 3b 	sts	0x3B30, r25	; 0x803b30 <tmp16bit+0x1>
     8fc:	80 91 41 01 	lds	r24, 0x0141	; 0x800141 <__TEXT_REGION_LENGTH__+0x700141>
     900:	83 fd       	sbrc	r24, 3
     902:	fc cf       	rjmp	.-8      	; 0x8fc <__vector_6+0x50>
     904:	80 91 2f 3b 	lds	r24, 0x3B2F	; 0x803b2f <tmp16bit>
     908:	90 91 30 3b 	lds	r25, 0x3B30	; 0x803b30 <tmp16bit+0x1>
     90c:	80 93 4c 01 	sts	0x014C, r24	; 0x80014c <__TEXT_REGION_LENGTH__+0x70014c>
     910:	90 93 4d 01 	sts	0x014D, r25	; 0x80014d <__TEXT_REGION_LENGTH__+0x70014d>
     914:	82 e0       	ldi	r24, 0x02	; 2
     916:	80 93 43 01 	sts	0x0143, r24	; 0x800143 <__TEXT_REGION_LENGTH__+0x700143>
     91a:	0c c0       	rjmp	.+24     	; 0x934 <__vector_6+0x88>
     91c:	80 91 9b 38 	lds	r24, 0x389B	; 0x80389b <minuteMark>
     920:	8f 3f       	cpi	r24, 0xFF	; 255
     922:	29 f0       	breq	.+10     	; 0x92e <__vector_6+0x82>
     924:	80 91 9b 38 	lds	r24, 0x389B	; 0x80389b <minuteMark>
     928:	8f 5f       	subi	r24, 0xFF	; 255
     92a:	80 93 9b 38 	sts	0x389B, r24	; 0x80389b <minuteMark>
     92e:	81 e0       	ldi	r24, 0x01	; 1
     930:	80 93 43 01 	sts	0x0143, r24	; 0x800143 <__TEXT_REGION_LENGTH__+0x700143>
     934:	bf 91       	pop	r27
     936:	af 91       	pop	r26
     938:	9f 91       	pop	r25
     93a:	8f 91       	pop	r24
     93c:	7f 91       	pop	r23
     93e:	6f 91       	pop	r22
     940:	5f 91       	pop	r21
     942:	0f 90       	pop	r0
     944:	0f be       	out	0x3f, r0	; 63
     946:	0f 90       	pop	r0
     948:	1f 90       	pop	r1
     94a:	18 95       	reti

0000094c <__vector_7>:
     94c:	1f 92       	push	r1
     94e:	0f 92       	push	r0
     950:	0f b6       	in	r0, 0x3f	; 63
     952:	0f 92       	push	r0
     954:	11 24       	eor	r1, r1
     956:	8f 93       	push	r24
     958:	81 e0       	ldi	r24, 0x01	; 1
     95a:	80 93 48 06 	sts	0x0648, r24	; 0x800648 <__TEXT_REGION_LENGTH__+0x700648>
     95e:	80 93 53 01 	sts	0x0153, r24	; 0x800153 <__TEXT_REGION_LENGTH__+0x700153>
     962:	8f 91       	pop	r24
     964:	0f 90       	pop	r0
     966:	0f be       	out	0x3f, r0	; 63
     968:	0f 90       	pop	r0
     96a:	1f 90       	pop	r1
     96c:	18 95       	reti

0000096e <EERead>:
     96e:	db 01       	movw	r26, r22
     970:	90 91 02 10 	lds	r25, 0x1002	; 0x801002 <__TEXT_REGION_LENGTH__+0x701002>
     974:	91 fd       	sbrc	r25, 1
     976:	fc cf       	rjmp	.-8      	; 0x970 <EERead+0x2>
     978:	08 c0       	rjmp	.+16     	; 0x98a <EERead+0x1c>
     97a:	e8 2f       	mov	r30, r24
     97c:	f0 e0       	ldi	r31, 0x00	; 0
     97e:	fc 5e       	subi	r31, 0xEC	; 236
     980:	90 81       	ld	r25, Z
     982:	9c 93       	st	X, r25
     984:	41 50       	subi	r20, 0x01	; 1
     986:	11 96       	adiw	r26, 0x01	; 1
     988:	8f 5f       	subi	r24, 0xFF	; 255
     98a:	41 11       	cpse	r20, r1
     98c:	f6 cf       	rjmp	.-20     	; 0x97a <EERead+0xc>
     98e:	08 95       	ret

00000990 <EEWrite>:
     990:	db 01       	movw	r26, r22
     992:	25 c0       	rjmp	.+74     	; 0x9de <EEWrite+0x4e>
     994:	90 91 02 10 	lds	r25, 0x1002	; 0x801002 <__TEXT_REGION_LENGTH__+0x701002>
     998:	91 fd       	sbrc	r25, 1
     99a:	fc cf       	rjmp	.-8      	; 0x994 <EEWrite+0x4>
     99c:	9d e9       	ldi	r25, 0x9D	; 157
     99e:	94 bf       	out	0x34, r25	; 52
     9a0:	94 e0       	ldi	r25, 0x04	; 4
     9a2:	90 93 00 10 	sts	0x1000, r25	; 0x801000 <__TEXT_REGION_LENGTH__+0x701000>
     9a6:	20 e0       	ldi	r18, 0x00	; 0
     9a8:	0d c0       	rjmp	.+26     	; 0x9c4 <EEWrite+0x34>
     9aa:	98 2f       	mov	r25, r24
     9ac:	9f 71       	andi	r25, 0x1F	; 31
     9ae:	9f 31       	cpi	r25, 0x1F	; 31
     9b0:	09 f4       	brne	.+2      	; 0x9b4 <EEWrite+0x24>
     9b2:	21 e0       	ldi	r18, 0x01	; 1
     9b4:	e8 2f       	mov	r30, r24
     9b6:	f0 e0       	ldi	r31, 0x00	; 0
     9b8:	fc 5e       	subi	r31, 0xEC	; 236
     9ba:	9c 91       	ld	r25, X
     9bc:	90 83       	st	Z, r25
     9be:	41 50       	subi	r20, 0x01	; 1
     9c0:	11 96       	adiw	r26, 0x01	; 1
     9c2:	8f 5f       	subi	r24, 0xFF	; 255
     9c4:	44 23       	and	r20, r20
     9c6:	11 f0       	breq	.+4      	; 0x9cc <EEWrite+0x3c>
     9c8:	22 23       	and	r18, r18
     9ca:	79 f3       	breq	.-34     	; 0x9aa <EEWrite+0x1a>
     9cc:	9d e9       	ldi	r25, 0x9D	; 157
     9ce:	94 bf       	out	0x34, r25	; 52
     9d0:	93 e0       	ldi	r25, 0x03	; 3
     9d2:	90 93 00 10 	sts	0x1000, r25	; 0x801000 <__TEXT_REGION_LENGTH__+0x701000>
     9d6:	90 91 02 10 	lds	r25, 0x1002	; 0x801002 <__TEXT_REGION_LENGTH__+0x701002>
     9da:	92 fd       	sbrc	r25, 2
     9dc:	04 c0       	rjmp	.+8      	; 0x9e6 <EEWrite+0x56>
     9de:	41 11       	cpse	r20, r1
     9e0:	d9 cf       	rjmp	.-78     	; 0x994 <EEWrite+0x4>
     9e2:	80 e0       	ldi	r24, 0x00	; 0
     9e4:	08 95       	ret
     9e6:	81 e0       	ldi	r24, 0x01	; 1
     9e8:	08 95       	ret

000009ea <SerSend>:
     9ea:	9c 01       	movw	r18, r24
     9ec:	90 91 04 38 	lds	r25, 0x3804	; 0x803804 <serTxDone>
     9f0:	99 23       	and	r25, r25
     9f2:	59 f0       	breq	.+22     	; 0xa0a <SerSend+0x20>
     9f4:	20 93 de 3a 	sts	0x3ADE, r18	; 0x803ade <serTxAddr>
     9f8:	30 93 df 3a 	sts	0x3ADF, r19	; 0x803adf <serTxAddr+0x1>
     9fc:	10 92 04 38 	sts	0x3804, r1	; 0x803804 <serTxDone>
     a00:	81 e0       	ldi	r24, 0x01	; 1
     a02:	80 93 45 0a 	sts	0x0A45, r24	; 0x800a45 <__TEXT_REGION_LENGTH__+0x700a45>
     a06:	80 e0       	ldi	r24, 0x00	; 0
     a08:	08 95       	ret
     a0a:	81 e0       	ldi	r24, 0x01	; 1
     a0c:	08 95       	ret

00000a0e <SerSpeed>:
     a0e:	81 11       	cpse	r24, r1
     a10:	01 c0       	rjmp	.+2      	; 0xa14 <SerSpeed+0x6>
     a12:	81 e0       	ldi	r24, 0x01	; 1
     a14:	20 e0       	ldi	r18, 0x00	; 0
     a16:	30 e0       	ldi	r19, 0x00	; 0
     a18:	38 2f       	mov	r19, r24
     a1a:	30 95       	com	r19
     a1c:	21 50       	subi	r18, 0x01	; 1
     a1e:	3f 4f       	sbci	r19, 0xFF	; 255
     a20:	20 93 4c 0a 	sts	0x0A4C, r18	; 0x800a4c <__TEXT_REGION_LENGTH__+0x700a4c>
     a24:	30 93 4d 0a 	sts	0x0A4D, r19	; 0x800a4d <__TEXT_REGION_LENGTH__+0x700a4d>
     a28:	08 95       	ret

00000a2a <CheckButtons>:
};

// Returns button combination (4LSB) and number of consecutive times this combination is detected. First read should always be ignored! 
uint8_t CheckButtons(uint8_t previousValue){
    uint8_t bADC = (uint8_t)(adcBtns>>4);
     a2a:	20 91 dc 3a 	lds	r18, 0x3ADC	; 0x803adc <adcBtns>
     a2e:	30 91 dd 3a 	lds	r19, 0x3ADD	; 0x803add <adcBtns+0x1>
     a32:	32 95       	swap	r19
     a34:	22 95       	swap	r18
     a36:	2f 70       	andi	r18, 0x0F	; 15
     a38:	23 27       	eor	r18, r19
     a3a:	3f 70       	andi	r19, 0x0F	; 15
     a3c:	23 27       	eor	r18, r19
    uint8_t bNibble = 0x0F;     //MSB to LSB: Bottom left, top left, top right, bottom right, 0F is error
    
    switch(bADC){
     a3e:	33 27       	eor	r19, r19
     a40:	2c 35       	cpi	r18, 0x5C	; 92
     a42:	31 05       	cpc	r19, r1
     a44:	c0 f4       	brcc	.+48     	; 0xa76 <CheckButtons+0x4c>
     a46:	23 35       	cpi	r18, 0x53	; 83
     a48:	31 05       	cpc	r19, r1
     a4a:	a0 f5       	brcc	.+104    	; 0xab4 <CheckButtons+0x8a>
     a4c:	22 33       	cpi	r18, 0x32	; 50
     a4e:	31 05       	cpc	r19, r1
     a50:	48 f4       	brcc	.+18     	; 0xa64 <CheckButtons+0x3a>
     a52:	2d 32       	cpi	r18, 0x2D	; 45
     a54:	31 05       	cpc	r19, r1
     a56:	40 f5       	brcc	.+80     	; 0xaa8 <CheckButtons+0x7e>
     a58:	23 52       	subi	r18, 0x23	; 35
     a5a:	31 09       	sbc	r19, r1
     a5c:	25 30       	cpi	r18, 0x05	; 5
     a5e:	31 05       	cpc	r19, r1
     a60:	98 f1       	brcs	.+102    	; 0xac8 <CheckButtons+0x9e>
     a62:	20 c0       	rjmp	.+64     	; 0xaa4 <CheckButtons+0x7a>
     a64:	27 33       	cpi	r18, 0x37	; 55
     a66:	31 05       	cpc	r19, r1
     a68:	08 f1       	brcs	.+66     	; 0xaac <CheckButtons+0x82>
     a6a:	2e 53       	subi	r18, 0x3E	; 62
     a6c:	31 09       	sbc	r19, r1
     a6e:	27 30       	cpi	r18, 0x07	; 7
     a70:	31 05       	cpc	r19, r1
     a72:	f0 f0       	brcs	.+60     	; 0xab0 <CheckButtons+0x86>
     a74:	17 c0       	rjmp	.+46     	; 0xaa4 <CheckButtons+0x7a>
     a76:	2a 38       	cpi	r18, 0x8A	; 138
     a78:	31 05       	cpc	r19, r1
     a7a:	48 f4       	brcc	.+18     	; 0xa8e <CheckButtons+0x64>
     a7c:	29 37       	cpi	r18, 0x79	; 121
     a7e:	31 05       	cpc	r19, r1
     a80:	e8 f4       	brcc	.+58     	; 0xabc <CheckButtons+0x92>
     a82:	23 56       	subi	r18, 0x63	; 99
     a84:	31 09       	sbc	r19, r1
     a86:	2b 30       	cpi	r18, 0x0B	; 11
     a88:	31 05       	cpc	r19, r1
     a8a:	b0 f0       	brcs	.+44     	; 0xab8 <CheckButtons+0x8e>
     a8c:	0b c0       	rjmp	.+22     	; 0xaa4 <CheckButtons+0x7a>
     a8e:	22 3a       	cpi	r18, 0xA2	; 162
     a90:	31 05       	cpc	r19, r1
     a92:	40 f0       	brcs	.+16     	; 0xaa4 <CheckButtons+0x7a>
     a94:	2b 3b       	cpi	r18, 0xBB	; 187
     a96:	31 05       	cpc	r19, r1
     a98:	98 f0       	brcs	.+38     	; 0xac0 <CheckButtons+0x96>
     a9a:	20 5f       	subi	r18, 0xF0	; 240
     a9c:	31 09       	sbc	r19, r1
     a9e:	20 31       	cpi	r18, 0x10	; 16
     aa0:	31 05       	cpc	r19, r1
     aa2:	80 f0       	brcs	.+32     	; 0xac4 <CheckButtons+0x9a>
};

// Returns button combination (4LSB) and number of consecutive times this combination is detected. First read should always be ignored! 
uint8_t CheckButtons(uint8_t previousValue){
    uint8_t bADC = (uint8_t)(adcBtns>>4);
    uint8_t bNibble = 0x0F;     //MSB to LSB: Bottom left, top left, top right, bottom right, 0F is error
     aa4:	9f e0       	ldi	r25, 0x0F	; 15
     aa6:	11 c0       	rjmp	.+34     	; 0xaca <CheckButtons+0xa0>
        case 35 ... 39:          //37: Both left
        bNibble = 0b1100;
        break;

        case 45 ... 49:          //47: Both bottom
        bNibble = 0b1001;
     aa8:	99 e0       	ldi	r25, 0x09	; 9
        break;
     aaa:	0f c0       	rjmp	.+30     	; 0xaca <CheckButtons+0xa0>

        case 50 ... 54:          //52: Bottom left
        bNibble = 0b1000;
     aac:	98 e0       	ldi	r25, 0x08	; 8
        break;
     aae:	0d c0       	rjmp	.+26     	; 0xaca <CheckButtons+0xa0>

        case 62 ... 68:          //65: Both top
        bNibble = 0b0110;
     ab0:	96 e0       	ldi	r25, 0x06	; 6
        break;
     ab2:	0b c0       	rjmp	.+22     	; 0xaca <CheckButtons+0xa0>

        case 83 ... 91:          //87: Top left
        bNibble = 0b0100;
     ab4:	94 e0       	ldi	r25, 0x04	; 4
        break;
     ab6:	09 c0       	rjmp	.+18     	; 0xaca <CheckButtons+0xa0>

        case 99 ... 109:         //104: Both right
        bNibble = 0b0011;
     ab8:	93 e0       	ldi	r25, 0x03	; 3
        break;
     aba:	07 c0       	rjmp	.+14     	; 0xaca <CheckButtons+0xa0>

        case 121 ... 137:        //129: Top right
        bNibble = 0b0010;
     abc:	92 e0       	ldi	r25, 0x02	; 2
        break;
     abe:	05 c0       	rjmp	.+10     	; 0xaca <CheckButtons+0xa0>

        case 162 ... 186:        //174: Bottom right
        bNibble = 0b0001;
     ac0:	91 e0       	ldi	r25, 0x01	; 1
        break;
     ac2:	03 c0       	rjmp	.+6      	; 0xaca <CheckButtons+0xa0>

        case 240 ... 255:        //255: No button pressed
        bNibble = 0b0000;
     ac4:	90 e0       	ldi	r25, 0x00	; 0
        break;
     ac6:	01 c0       	rjmp	.+2      	; 0xaca <CheckButtons+0xa0>
        case 28 ... 32:         //30: All buttons pressed
        bNibble = 0b1111;
        break;

        case 35 ... 39:          //37: Both left
        bNibble = 0b1100;
     ac8:	9c e0       	ldi	r25, 0x0C	; 12
        case 240 ... 255:        //255: No button pressed
        bNibble = 0b0000;
        break;
    }

    if ((previousValue&0x0F)==bNibble){
     aca:	28 2f       	mov	r18, r24
     acc:	2f 70       	andi	r18, 0x0F	; 15
     ace:	92 13       	cpse	r25, r18
     ad0:	08 c0       	rjmp	.+16     	; 0xae2 <CheckButtons+0xb8>
        if ((previousValue&0xF0) < 0xF0) previousValue += 0x10; //Same value? Increase time nibble
     ad2:	28 2f       	mov	r18, r24
     ad4:	20 7f       	andi	r18, 0xF0	; 240
     ad6:	30 e0       	ldi	r19, 0x00	; 0
     ad8:	20 3f       	cpi	r18, 0xF0	; 240
     ada:	31 05       	cpc	r19, r1
     adc:	3c f4       	brge	.+14     	; 0xaec <CheckButtons+0xc2>
     ade:	80 5f       	subi	r24, 0xF0	; 240
     ae0:	08 95       	ret
        return previousValue;       
    } else if (bNibble == 0) return 0xFF; //Buttons released, 0xFF triggers readout, previousValue holds last button value.
     ae2:	91 11       	cpse	r25, r1
     ae4:	02 c0       	rjmp	.+4      	; 0xaea <CheckButtons+0xc0>
     ae6:	8f ef       	ldi	r24, 0xFF	; 255
     ae8:	08 95       	ret
              else return bNibble;  //New value  
     aea:	89 2f       	mov	r24, r25
}
     aec:	08 95       	ret

00000aee <lfsr>:

uint8_t lfsr(){
    static uint16_t state = 0xd401;
    state ^= (state << 13);
     aee:	20 91 85 38 	lds	r18, 0x3885	; 0x803885 <state.3863>
     af2:	30 91 86 38 	lds	r19, 0x3886	; 0x803886 <state.3863+0x1>
     af6:	c9 01       	movw	r24, r18
     af8:	98 2f       	mov	r25, r24
     afa:	88 27       	eor	r24, r24
     afc:	92 95       	swap	r25
     afe:	99 0f       	add	r25, r25
     b00:	90 7e       	andi	r25, 0xE0	; 224
     b02:	82 27       	eor	r24, r18
     b04:	93 27       	eor	r25, r19
    state ^= (state >> 9);
     b06:	9c 01       	movw	r18, r24
     b08:	23 2f       	mov	r18, r19
     b0a:	33 27       	eor	r19, r19
     b0c:	26 95       	lsr	r18
     b0e:	82 27       	eor	r24, r18
     b10:	93 27       	eor	r25, r19
    state ^= (state << 7);
     b12:	9c 01       	movw	r18, r24
     b14:	36 95       	lsr	r19
     b16:	32 2f       	mov	r19, r18
     b18:	22 27       	eor	r18, r18
     b1a:	37 95       	ror	r19
     b1c:	27 95       	ror	r18
     b1e:	82 27       	eor	r24, r18
     b20:	93 27       	eor	r25, r19
     b22:	80 93 85 38 	sts	0x3885, r24	; 0x803885 <state.3863>
     b26:	90 93 86 38 	sts	0x3886, r25	; 0x803886 <state.3863+0x1>
    return (state & 0xff);
}
     b2a:	08 95       	ret

00000b2c <floatSpeed>:

void floatSpeed(uint8_t bits, uint16_t min, uint16_t max){
     b2c:	df 92       	push	r13
     b2e:	ef 92       	push	r14
     b30:	ff 92       	push	r15
     b32:	0f 93       	push	r16
     b34:	1f 93       	push	r17
     b36:	cf 93       	push	r28
     b38:	df 93       	push	r29
     b3a:	8b 01       	movw	r16, r22
     b3c:	7a 01       	movw	r14, r20
    uint16_t val = TCB1_CCMP;
     b3e:	c0 91 5c 0a 	lds	r28, 0x0A5C	; 0x800a5c <__TEXT_REGION_LENGTH__+0x700a5c>
     b42:	d0 91 5d 0a 	lds	r29, 0x0A5D	; 0x800a5d <__TEXT_REGION_LENGTH__+0x700a5d>
    bits = mask[(bits-1)&0x07];
     b46:	e8 2f       	mov	r30, r24
     b48:	f0 e0       	ldi	r31, 0x00	; 0
     b4a:	31 97       	sbiw	r30, 0x01	; 1
     b4c:	e7 70       	andi	r30, 0x07	; 7
     b4e:	ff 27       	eor	r31, r31
     b50:	e9 57       	subi	r30, 0x79	; 121
     b52:	f7 4c       	sbci	r31, 0xC7	; 199
     b54:	d0 80       	ld	r13, Z
    val += (lfsr()&bits);
     b56:	cb df       	rcall	.-106    	; 0xaee <lfsr>
     b58:	8d 21       	and	r24, r13
     b5a:	c8 0f       	add	r28, r24
     b5c:	d1 1d       	adc	r29, r1
    val -= (lfsr()&bits);
     b5e:	c7 df       	rcall	.-114    	; 0xaee <lfsr>
     b60:	8d 21       	and	r24, r13
     b62:	c8 1b       	sub	r28, r24
     b64:	d1 09       	sbc	r29, r1
     b66:	ec 16       	cp	r14, r28
    if (val > max) val = max;    //0x038B is normal rate, for wind we need to be a bit slower
     b68:	fd 06       	cpc	r15, r29
     b6a:	08 f0       	brcs	.+2      	; 0xb6e <floatSpeed+0x42>
     b6c:	7e 01       	movw	r14, r28

void floatSpeed(uint8_t bits, uint16_t min, uint16_t max){
    uint16_t val = TCB1_CCMP;
    bits = mask[(bits-1)&0x07];
    val += (lfsr()&bits);
    val -= (lfsr()&bits);
     b6e:	e0 16       	cp	r14, r16
    if (val > max) val = max;    //0x038B is normal rate, for wind we need to be a bit slower
    if (val < min) val = min;  
     b70:	f1 06       	cpc	r15, r17
     b72:	08 f4       	brcc	.+2      	; 0xb76 <floatSpeed+0x4a>
     b74:	78 01       	movw	r14, r16
     b76:	e0 92 5c 0a 	sts	0x0A5C, r14	; 0x800a5c <__TEXT_REGION_LENGTH__+0x700a5c>
    TCB1_CCMP = val;
     b7a:	f0 92 5d 0a 	sts	0x0A5D, r15	; 0x800a5d <__TEXT_REGION_LENGTH__+0x700a5d>
     b7e:	df 91       	pop	r29
}
     b80:	cf 91       	pop	r28
     b82:	1f 91       	pop	r17
     b84:	0f 91       	pop	r16
     b86:	ff 90       	pop	r15
     b88:	ef 90       	pop	r14
     b8a:	df 90       	pop	r13
     b8c:	08 95       	ret

00000b8e <floatAround>:
     b8e:	0f 93       	push	r16

uint8_t floatAround(uint8_t sample, uint8_t bits, uint8_t min, uint8_t max){
     b90:	1f 93       	push	r17
     b92:	cf 93       	push	r28
     b94:	df 93       	push	r29
     b96:	c8 2f       	mov	r28, r24
     b98:	04 2f       	mov	r16, r20
     b9a:	12 2f       	mov	r17, r18
    bits = mask[(bits-1)&0x07];
     b9c:	e6 2f       	mov	r30, r22
     b9e:	f0 e0       	ldi	r31, 0x00	; 0
     ba0:	31 97       	sbiw	r30, 0x01	; 1
     ba2:	e7 70       	andi	r30, 0x07	; 7
     ba4:	ff 27       	eor	r31, r31
     ba6:	e9 57       	subi	r30, 0x79	; 121
     ba8:	f7 4c       	sbci	r31, 0xC7	; 199
     baa:	d0 81       	ld	r29, Z
    sample += lfsr()&bits;
     bac:	a0 df       	rcall	.-192    	; 0xaee <lfsr>
     bae:	8d 23       	and	r24, r29
     bb0:	c8 0f       	add	r28, r24
    sample -= lfsr()&bits;
     bb2:	9d df       	rcall	.-198    	; 0xaee <lfsr>
     bb4:	8d 23       	and	r24, r29
     bb6:	c8 1b       	sub	r28, r24
     bb8:	8c 2f       	mov	r24, r28
     bba:	11 23       	and	r17, r17
    if (max){
     bbc:	31 f0       	breq	.+12     	; 0xbca <floatAround+0x3c>
     bbe:	1c 17       	cp	r17, r28
        if (sample > max) sample = max;
     bc0:	08 f4       	brcc	.+2      	; 0xbc4 <floatAround+0x36>
     bc2:	81 2f       	mov	r24, r17
     bc4:	80 17       	cp	r24, r16
        if (sample < min) sample = min;
     bc6:	08 f4       	brcc	.+2      	; 0xbca <floatAround+0x3c>
     bc8:	80 2f       	mov	r24, r16
     bca:	df 91       	pop	r29
    }
    return sample;
}
     bcc:	cf 91       	pop	r28
     bce:	1f 91       	pop	r17
     bd0:	0f 91       	pop	r16
     bd2:	08 95       	ret

00000bd4 <SaveGameState>:
     bd4:	1f 93       	push	r17

//Save changed data to EEPROM
uint8_t SaveGameState(){
     bd6:	cf 93       	push	r28
     bd8:	df 93       	push	r29
     bda:	cd b7       	in	r28, 0x3d	; 61
     bdc:	de b7       	in	r29, 0x3e	; 62
     bde:	64 97       	sbiw	r28, 0x14	; 20
     be0:	cd bf       	out	0x3d, r28	; 61
     be2:	de bf       	out	0x3e, r29	; 62
    uint8_t gameCheck[BOOTCHK];

    //Read all data up to the boot/check result address from EEPROM
    EERead(0, &gameCheck[0], BOOTCHK);
     be4:	44 e1       	ldi	r20, 0x14	; 20
     be6:	be 01       	movw	r22, r28
     be8:	6f 5f       	subi	r22, 0xFF	; 255
     bea:	7f 4f       	sbci	r23, 0xFF	; 255
     bec:	80 e0       	ldi	r24, 0x00	; 0
     bee:	bf de       	rcall	.-642    	; 0x96e <EERead>

    //Check game status bits
    for (uint8_t x=0; x<STATLEN; ++x){
     bf0:	10 e0       	ldi	r17, 0x00	; 0
     bf2:	17 c0       	rjmp	.+46     	; 0xc22 <SaveGameState+0x4e>
        if (gameState[x] != gameCheck[x]){
     bf4:	61 2f       	mov	r22, r17
     bf6:	70 e0       	ldi	r23, 0x00	; 0
     bf8:	fb 01       	movw	r30, r22
     bfa:	ea 57       	subi	r30, 0x7A	; 122
     bfc:	f5 4c       	sbci	r31, 0xC5	; 197
     bfe:	90 81       	ld	r25, Z
     c00:	e1 e0       	ldi	r30, 0x01	; 1
     c02:	f0 e0       	ldi	r31, 0x00	; 0
     c04:	ec 0f       	add	r30, r28
     c06:	fd 1f       	adc	r31, r29
     c08:	e6 0f       	add	r30, r22
     c0a:	f7 1f       	adc	r31, r23
     c0c:	80 81       	ld	r24, Z
     c0e:	98 17       	cp	r25, r24
     c10:	39 f0       	breq	.+14     	; 0xc20 <SaveGameState+0x4c>
            if (EEWrite(x, &gameState[x], 1)) return 1;
     c12:	6a 57       	subi	r22, 0x7A	; 122
     c14:	75 4c       	sbci	r23, 0xC5	; 197
     c16:	41 e0       	ldi	r20, 0x01	; 1
     c18:	81 2f       	mov	r24, r17
     c1a:	ba de       	rcall	.-652    	; 0x990 <EEWrite>
     c1c:	81 11       	cpse	r24, r1
     c1e:	39 c0       	rjmp	.+114    	; 0xc92 <SaveGameState+0xbe>

    //Read all data up to the boot/check result address from EEPROM
    EERead(0, &gameCheck[0], BOOTCHK);

    //Check game status bits
    for (uint8_t x=0; x<STATLEN; ++x){
     c20:	1f 5f       	subi	r17, 0xFF	; 255
     c22:	10 31       	cpi	r17, 0x10	; 16
     c24:	38 f3       	brcs	.-50     	; 0xbf4 <SaveGameState+0x20>
            if (EEWrite(x, &gameState[x], 1)) return 1;
        }
    }

    //Check the inventory too
    gameState[INVADDR] = (uint8_t)(inventory[0]>>8);
     c26:	a6 e9       	ldi	r26, 0x96	; 150
     c28:	b8 e3       	ldi	r27, 0x38	; 56
     c2a:	2d 91       	ld	r18, X+
     c2c:	3c 91       	ld	r19, X
     c2e:	11 97       	sbiw	r26, 0x01	; 1
     c30:	e6 e8       	ldi	r30, 0x86	; 134
     c32:	fa e3       	ldi	r31, 0x3A	; 58
     c34:	30 8b       	std	Z+16, r19	; 0x10
    gameState[INVADDR+1] = (uint8_t)(inventory[0]&0xff);
     c36:	21 8b       	std	Z+17, r18	; 0x11
    gameState[INVADDR+2] = (uint8_t)(inventory[1]>>8);
     c38:	12 96       	adiw	r26, 0x02	; 2
     c3a:	8c 91       	ld	r24, X
     c3c:	12 97       	sbiw	r26, 0x02	; 2
     c3e:	13 96       	adiw	r26, 0x03	; 3
     c40:	9c 91       	ld	r25, X
     c42:	92 8b       	std	Z+18, r25	; 0x12
    gameState[INVADDR+3] = (uint8_t)(inventory[1]&0xff);
     c44:	83 8b       	std	Z+19, r24	; 0x13
    if (inventory[0] != (gameCheck[INVADDR]<<8|gameCheck[INVADDR+1])) {
     c46:	89 89       	ldd	r24, Y+17	; 0x11
     c48:	90 e0       	ldi	r25, 0x00	; 0
     c4a:	98 2f       	mov	r25, r24
     c4c:	88 27       	eor	r24, r24
     c4e:	4a 89       	ldd	r20, Y+18	; 0x12
     c50:	84 2b       	or	r24, r20
     c52:	28 17       	cp	r18, r24
     c54:	39 07       	cpc	r19, r25
     c56:	39 f0       	breq	.+14     	; 0xc66 <SaveGameState+0x92>
        if (EEWrite(INVADDR, &gameState[INVADDR], 2)) return 1;
     c58:	42 e0       	ldi	r20, 0x02	; 2
     c5a:	66 e9       	ldi	r22, 0x96	; 150
     c5c:	7a e3       	ldi	r23, 0x3A	; 58
     c5e:	80 e1       	ldi	r24, 0x10	; 16
     c60:	97 de       	rcall	.-722    	; 0x990 <EEWrite>
     c62:	81 11       	cpse	r24, r1
     c64:	18 c0       	rjmp	.+48     	; 0xc96 <SaveGameState+0xc2>
    }
    if (inventory[1] != (gameCheck[INVADDR+2]<<8|gameCheck[INVADDR+3])) {
     c66:	20 91 98 38 	lds	r18, 0x3898	; 0x803898 <inventory+0x2>
     c6a:	30 91 99 38 	lds	r19, 0x3899	; 0x803899 <inventory+0x3>
     c6e:	8b 89       	ldd	r24, Y+19	; 0x13
     c70:	90 e0       	ldi	r25, 0x00	; 0
     c72:	98 2f       	mov	r25, r24
     c74:	88 27       	eor	r24, r24
     c76:	4c 89       	ldd	r20, Y+20	; 0x14
     c78:	84 2b       	or	r24, r20
     c7a:	28 17       	cp	r18, r24
     c7c:	39 07       	cpc	r19, r25
     c7e:	69 f0       	breq	.+26     	; 0xc9a <SaveGameState+0xc6>
        if (EEWrite(INVADDR+2, &gameState[INVADDR+2], 2)) return 1;
     c80:	42 e0       	ldi	r20, 0x02	; 2
     c82:	68 e9       	ldi	r22, 0x98	; 152
     c84:	7a e3       	ldi	r23, 0x3A	; 58
     c86:	82 e1       	ldi	r24, 0x12	; 18
     c88:	83 de       	rcall	.-762    	; 0x990 <EEWrite>
     c8a:	88 23       	and	r24, r24
     c8c:	39 f0       	breq	.+14     	; 0xc9c <SaveGameState+0xc8>
     c8e:	81 e0       	ldi	r24, 0x01	; 1
     c90:	05 c0       	rjmp	.+10     	; 0xc9c <SaveGameState+0xc8>
    EERead(0, &gameCheck[0], BOOTCHK);

    //Check game status bits
    for (uint8_t x=0; x<STATLEN; ++x){
        if (gameState[x] != gameCheck[x]){
            if (EEWrite(x, &gameState[x], 1)) return 1;
     c92:	81 e0       	ldi	r24, 0x01	; 1
     c94:	03 c0       	rjmp	.+6      	; 0xc9c <SaveGameState+0xc8>
    gameState[INVADDR] = (uint8_t)(inventory[0]>>8);
    gameState[INVADDR+1] = (uint8_t)(inventory[0]&0xff);
    gameState[INVADDR+2] = (uint8_t)(inventory[1]>>8);
    gameState[INVADDR+3] = (uint8_t)(inventory[1]&0xff);
    if (inventory[0] != (gameCheck[INVADDR]<<8|gameCheck[INVADDR+1])) {
        if (EEWrite(INVADDR, &gameState[INVADDR], 2)) return 1;
     c96:	81 e0       	ldi	r24, 0x01	; 1
     c98:	01 c0       	rjmp	.+2      	; 0xc9c <SaveGameState+0xc8>
    }
    if (inventory[1] != (gameCheck[INVADDR+2]<<8|gameCheck[INVADDR+3])) {
        if (EEWrite(INVADDR+2, &gameState[INVADDR+2], 2)) return 1;
    }

    return 0;
     c9a:	80 e0       	ldi	r24, 0x00	; 0
}
     c9c:	64 96       	adiw	r28, 0x14	; 20
     c9e:	cd bf       	out	0x3d, r28	; 61
     ca0:	de bf       	out	0x3e, r29	; 62
     ca2:	df 91       	pop	r29
     ca4:	cf 91       	pop	r28
     ca6:	1f 91       	pop	r17
     ca8:	08 95       	ret

00000caa <ReadStatusBit>:

uint8_t ReadStatusBit(uint8_t number){
    number &= 0x7f;
     caa:	e8 2f       	mov	r30, r24
     cac:	ef 77       	andi	r30, 0x7F	; 127
    if (gameState[number>>3] & (1<<(number&7))) return 1; else return 0;
     cae:	e6 95       	lsr	r30
     cb0:	e6 95       	lsr	r30
     cb2:	e6 95       	lsr	r30
     cb4:	f0 e0       	ldi	r31, 0x00	; 0
     cb6:	ea 57       	subi	r30, 0x7A	; 122
     cb8:	f5 4c       	sbci	r31, 0xC5	; 197
     cba:	90 81       	ld	r25, Z
     cbc:	28 2f       	mov	r18, r24
     cbe:	27 70       	andi	r18, 0x07	; 7
     cc0:	89 2f       	mov	r24, r25
     cc2:	90 e0       	ldi	r25, 0x00	; 0
     cc4:	02 c0       	rjmp	.+4      	; 0xcca <ReadStatusBit+0x20>
     cc6:	95 95       	asr	r25
     cc8:	87 95       	ror	r24
     cca:	2a 95       	dec	r18
     ccc:	e2 f7       	brpl	.-8      	; 0xcc6 <ReadStatusBit+0x1c>
     cce:	80 ff       	sbrs	r24, 0
     cd0:	02 c0       	rjmp	.+4      	; 0xcd6 <ReadStatusBit+0x2c>
     cd2:	81 e0       	ldi	r24, 0x01	; 1
     cd4:	08 95       	ret
     cd6:	80 e0       	ldi	r24, 0x00	; 0
}
     cd8:	08 95       	ret

00000cda <WriteStatusBit>:

void WriteStatusBit(uint8_t number, uint8_t state){
    number &= 0x7f;
     cda:	e8 2f       	mov	r30, r24
     cdc:	ef 77       	andi	r30, 0x7F	; 127
    if (state) gameState[number>>3] |= 1<<(number&7);
     cde:	66 23       	and	r22, r22
     ce0:	a1 f0       	breq	.+40     	; 0xd0a <WriteStatusBit+0x30>
     ce2:	e6 95       	lsr	r30
     ce4:	e6 95       	lsr	r30
     ce6:	e6 95       	lsr	r30
     ce8:	f0 e0       	ldi	r31, 0x00	; 0
     cea:	87 70       	andi	r24, 0x07	; 7
     cec:	21 e0       	ldi	r18, 0x01	; 1
     cee:	30 e0       	ldi	r19, 0x00	; 0
     cf0:	a9 01       	movw	r20, r18
     cf2:	02 c0       	rjmp	.+4      	; 0xcf8 <WriteStatusBit+0x1e>
     cf4:	44 0f       	add	r20, r20
     cf6:	55 1f       	adc	r21, r21
     cf8:	8a 95       	dec	r24
     cfa:	e2 f7       	brpl	.-8      	; 0xcf4 <WriteStatusBit+0x1a>
     cfc:	ca 01       	movw	r24, r20
     cfe:	ea 57       	subi	r30, 0x7A	; 122
     d00:	f5 4c       	sbci	r31, 0xC5	; 197
     d02:	90 81       	ld	r25, Z
     d04:	89 2b       	or	r24, r25
     d06:	80 83       	st	Z, r24
     d08:	08 95       	ret
    else gameState[number>>3] &= ~(1<<(number&7));
     d0a:	e6 95       	lsr	r30
     d0c:	e6 95       	lsr	r30
     d0e:	e6 95       	lsr	r30
     d10:	f0 e0       	ldi	r31, 0x00	; 0
     d12:	87 70       	andi	r24, 0x07	; 7
     d14:	21 e0       	ldi	r18, 0x01	; 1
     d16:	30 e0       	ldi	r19, 0x00	; 0
     d18:	a9 01       	movw	r20, r18
     d1a:	02 c0       	rjmp	.+4      	; 0xd20 <WriteStatusBit+0x46>
     d1c:	44 0f       	add	r20, r20
     d1e:	55 1f       	adc	r21, r21
     d20:	8a 95       	dec	r24
     d22:	e2 f7       	brpl	.-8      	; 0xd1c <WriteStatusBit+0x42>
     d24:	ca 01       	movw	r24, r20
     d26:	ea 57       	subi	r30, 0x7A	; 122
     d28:	f5 4c       	sbci	r31, 0xC5	; 197
     d2a:	80 95       	com	r24
     d2c:	90 81       	ld	r25, Z
     d2e:	89 23       	and	r24, r25
     d30:	80 83       	st	Z, r24
     d32:	08 95       	ret

00000d34 <getID>:
    //Give out a number 0..3, calculated using serial number fields
    uint8_t id = 0;
    uint8_t *serNum;
    serNum = (uint8_t*)&SIGROW_SERNUM0;

    for (uint8_t x=0; x<10; ++x){
     d34:	90 e0       	ldi	r25, 0x00	; 0

uint8_t getID(){
    //Give out a number 0..3, calculated using serial number fields
    uint8_t id = 0;
    uint8_t *serNum;
    serNum = (uint8_t*)&SIGROW_SERNUM0;
     d36:	e3 e0       	ldi	r30, 0x03	; 3
     d38:	f1 e1       	ldi	r31, 0x11	; 17
    else gameState[number>>3] &= ~(1<<(number&7));
}

uint8_t getID(){
    //Give out a number 0..3, calculated using serial number fields
    uint8_t id = 0;
     d3a:	80 e0       	ldi	r24, 0x00	; 0
    uint8_t *serNum;
    serNum = (uint8_t*)&SIGROW_SERNUM0;

    for (uint8_t x=0; x<10; ++x){
     d3c:	03 c0       	rjmp	.+6      	; 0xd44 <getID+0x10>
        id += *serNum;
     d3e:	21 91       	ld	r18, Z+
     d40:	82 0f       	add	r24, r18
    //Give out a number 0..3, calculated using serial number fields
    uint8_t id = 0;
    uint8_t *serNum;
    serNum = (uint8_t*)&SIGROW_SERNUM0;

    for (uint8_t x=0; x<10; ++x){
     d42:	9f 5f       	subi	r25, 0xFF	; 255
     d44:	9a 30       	cpi	r25, 0x0A	; 10
     d46:	d8 f3       	brcs	.-10     	; 0xd3e <getID+0xa>
        id += *serNum;
        ++serNum;
    }
    id %= 4;
     d48:	83 70       	andi	r24, 0x03	; 3
    whoami = id+1;
     d4a:	8f 5f       	subi	r24, 0xFF	; 255
     d4c:	80 93 95 38 	sts	0x3895, r24	; 0x803895 <whoami>
    return whoami;
}
     d50:	08 95       	ret

00000d52 <Reset>:
    //Reset game progress (all zeroes) and load some bits:
    //# 110   set to 1 by FW if badge UUID mod 4 == 0
    //# 111   set to 1 by FW if badge UUID mod 4 == 1
    //# 112   set to 1 by FW if badge UUID mod 4 == 2
    //# 113   set to 1 by FW if badge UUID mod 4 == 3
    for (uint8_t x=0; x<sizeof(gameState); ++x){
     d52:	80 e0       	ldi	r24, 0x00	; 0
     d54:	06 c0       	rjmp	.+12     	; 0xd62 <Reset+0x10>
        gameState[x] = 0;
     d56:	e8 2f       	mov	r30, r24
     d58:	f0 e0       	ldi	r31, 0x00	; 0
     d5a:	ea 57       	subi	r30, 0x7A	; 122
     d5c:	f5 4c       	sbci	r31, 0xC5	; 197
     d5e:	10 82       	st	Z, r1
    //Reset game progress (all zeroes) and load some bits:
    //# 110   set to 1 by FW if badge UUID mod 4 == 0
    //# 111   set to 1 by FW if badge UUID mod 4 == 1
    //# 112   set to 1 by FW if badge UUID mod 4 == 2
    //# 113   set to 1 by FW if badge UUID mod 4 == 3
    for (uint8_t x=0; x<sizeof(gameState); ++x){
     d60:	8f 5f       	subi	r24, 0xFF	; 255
     d62:	84 31       	cpi	r24, 0x14	; 20
     d64:	c0 f3       	brcs	.-16     	; 0xd56 <Reset+0x4>
        gameState[x] = 0;
    }

    uint8_t id = getID();
     d66:	e6 df       	rcall	.-52     	; 0xd34 <getID>

    //Write bit in gameState location 110..113
    if (id == 0) WriteStatusBit(110, 1);
     d68:	81 11       	cpse	r24, r1
     d6a:	04 c0       	rjmp	.+8      	; 0xd74 <Reset+0x22>
     d6c:	61 e0       	ldi	r22, 0x01	; 1
     d6e:	8e e6       	ldi	r24, 0x6E	; 110
     d70:	b4 df       	rcall	.-152    	; 0xcda <WriteStatusBit>
     d72:	11 c0       	rjmp	.+34     	; 0xd96 <Reset+0x44>
    else if (id == 1) WriteStatusBit(111, 1);
     d74:	81 30       	cpi	r24, 0x01	; 1
     d76:	21 f4       	brne	.+8      	; 0xd80 <Reset+0x2e>
     d78:	61 e0       	ldi	r22, 0x01	; 1
     d7a:	8f e6       	ldi	r24, 0x6F	; 111
     d7c:	ae df       	rcall	.-164    	; 0xcda <WriteStatusBit>
     d7e:	0b c0       	rjmp	.+22     	; 0xd96 <Reset+0x44>
    else if (id == 2) WriteStatusBit(112, 1);
     d80:	82 30       	cpi	r24, 0x02	; 2
     d82:	21 f4       	brne	.+8      	; 0xd8c <Reset+0x3a>
     d84:	61 e0       	ldi	r22, 0x01	; 1
     d86:	80 e7       	ldi	r24, 0x70	; 112
     d88:	a8 df       	rcall	.-176    	; 0xcda <WriteStatusBit>
     d8a:	05 c0       	rjmp	.+10     	; 0xd96 <Reset+0x44>
    else if (id == 3) WriteStatusBit(113, 1);
     d8c:	83 30       	cpi	r24, 0x03	; 3
     d8e:	19 f4       	brne	.+6      	; 0xd96 <Reset+0x44>
     d90:	61 e0       	ldi	r22, 0x01	; 1
     d92:	81 e7       	ldi	r24, 0x71	; 113

    //Write bit 0, must always be 1!
    WriteStatusBit(0, 1);
     d94:	a2 df       	rcall	.-188    	; 0xcda <WriteStatusBit>
     d96:	61 e0       	ldi	r22, 0x01	; 1
     d98:	80 e0       	ldi	r24, 0x00	; 0
     d9a:	9f cf       	rjmp	.-194    	; 0xcda <WriteStatusBit>
     d9c:	08 95       	ret

00000d9e <GenerateAudio>:
}

//void setupSound(uint8_t number){

void GenerateAudio(){
     d9e:	0f 93       	push	r16
     da0:	1f 93       	push	r17
     da2:	cf 93       	push	r28
     da4:	df 93       	push	r29
    static uint8_t auBuffer[128] = {0x80, 0};
    //auRepAddr = &auBuffer[0];

    //Audio for text adventure
    if ((effect&0xff00)==0) {
     da6:	80 91 93 38 	lds	r24, 0x3893	; 0x803893 <effect>
     daa:	90 91 94 38 	lds	r25, 0x3894	; 0x803894 <effect+0x1>
     dae:	88 27       	eor	r24, r24
     db0:	89 2b       	or	r24, r25
     db2:	09 f0       	breq	.+2      	; 0xdb6 <GenerateAudio+0x18>
     db4:	69 c0       	rjmp	.+210    	; 0xe88 <GenerateAudio+0xea>

        //Silence
        if ((effect&0xE0)==0){
     db6:	80 91 93 38 	lds	r24, 0x3893	; 0x803893 <effect>
     dba:	90 91 94 38 	lds	r25, 0x3894	; 0x803894 <effect+0x1>
     dbe:	80 7e       	andi	r24, 0xE0	; 224
     dc0:	99 27       	eor	r25, r25
     dc2:	89 2b       	or	r24, r25
     dc4:	31 f4       	brne	.+12     	; 0xdd2 <GenerateAudio+0x34>
            auRepAddr = &zero;
     dc6:	81 e9       	ldi	r24, 0x91	; 145
     dc8:	98 e3       	ldi	r25, 0x38	; 56
     dca:	80 93 00 38 	sts	0x3800, r24	; 0x803800 <__data_start>
     dce:	90 93 01 38 	sts	0x3801, r25	; 0x803801 <__data_start+0x1>
        }

        //Bad (buzzer)
        if ((effect&0xE0)==32){
     dd2:	80 91 93 38 	lds	r24, 0x3893	; 0x803893 <effect>
     dd6:	90 91 94 38 	lds	r25, 0x3894	; 0x803894 <effect+0x1>

        }

        //Good (bell)
        if ((effect&0xE0)==64){
     dda:	80 91 93 38 	lds	r24, 0x3893	; 0x803893 <effect>
     dde:	90 91 94 38 	lds	r25, 0x3894	; 0x803894 <effect+0x1>
            //auBuffer = 
        }

        //Rain storm with whistling wind
        if ((effect&0xE0)==96){
     de2:	80 91 93 38 	lds	r24, 0x3893	; 0x803893 <effect>
     de6:	90 91 94 38 	lds	r25, 0x3894	; 0x803894 <effect+0x1>
     dea:	80 7e       	andi	r24, 0xE0	; 224
     dec:	99 27       	eor	r25, r25
     dee:	80 36       	cpi	r24, 0x60	; 96
     df0:	91 05       	cpc	r25, r1
     df2:	09 f0       	breq	.+2      	; 0xdf6 <GenerateAudio+0x58>
     df4:	3d c0       	rjmp	.+122    	; 0xe70 <GenerateAudio+0xd2>
            auBuffer[6]= 0;        
     df6:	e5 e0       	ldi	r30, 0x05	; 5
     df8:	f8 e3       	ldi	r31, 0x38	; 56
     dfa:	16 82       	std	Z+6, r1	; 0x06
            auRepAddr = &auBuffer[0];
     dfc:	e0 93 00 38 	sts	0x3800, r30	; 0x803800 <__data_start>
     e00:	f0 93 01 38 	sts	0x3801, r31	; 0x803801 <__data_start+0x1>

            //Noise is to be generated fast, outside of buttonMark loop
            for (uint8_t x=1; x<6; ++x){
     e04:	c1 e0       	ldi	r28, 0x01	; 1
     e06:	16 c0       	rjmp	.+44     	; 0xe34 <GenerateAudio+0x96>
                if (x%3) auBuffer[x] = floatAround(0x80, 5, 0x01, 0x00);
     e08:	8b ea       	ldi	r24, 0xAB	; 171
     e0a:	c8 9f       	mul	r28, r24
     e0c:	81 2d       	mov	r24, r1
     e0e:	11 24       	eor	r1, r1
     e10:	86 95       	lsr	r24
     e12:	98 2f       	mov	r25, r24
     e14:	99 0f       	add	r25, r25
     e16:	89 0f       	add	r24, r25
     e18:	c8 17       	cp	r28, r24
     e1a:	59 f0       	breq	.+22     	; 0xe32 <GenerateAudio+0x94>
     e1c:	0c 2f       	mov	r16, r28
     e1e:	10 e0       	ldi	r17, 0x00	; 0
     e20:	20 e0       	ldi	r18, 0x00	; 0
     e22:	41 e0       	ldi	r20, 0x01	; 1
     e24:	65 e0       	ldi	r22, 0x05	; 5
     e26:	80 e8       	ldi	r24, 0x80	; 128
     e28:	b2 de       	rcall	.-668    	; 0xb8e <floatAround>
     e2a:	f8 01       	movw	r30, r16
     e2c:	eb 5f       	subi	r30, 0xFB	; 251
     e2e:	f7 4c       	sbci	r31, 0xC7	; 199
     e30:	80 83       	st	Z, r24
        if ((effect&0xE0)==96){
            auBuffer[6]= 0;        
            auRepAddr = &auBuffer[0];

            //Noise is to be generated fast, outside of buttonMark loop
            for (uint8_t x=1; x<6; ++x){
     e32:	cf 5f       	subi	r28, 0xFF	; 255
     e34:	c6 30       	cpi	r28, 0x06	; 6
     e36:	40 f3       	brcs	.-48     	; 0xe08 <GenerateAudio+0x6a>
                if (x%3) auBuffer[x] = floatAround(0x80, 5, 0x01, 0x00);
            }

            if (buttonMark){
     e38:	80 91 9a 38 	lds	r24, 0x389A	; 0x80389a <buttonMark>
     e3c:	88 23       	and	r24, r24
     e3e:	c1 f0       	breq	.+48     	; 0xe70 <GenerateAudio+0xd2>
                //"Floating" speed for howl (and noise, but that's hardly audible)
                floatSpeed(5, 0x0280, 0x0400);
     e40:	40 e0       	ldi	r20, 0x00	; 0
     e42:	54 e0       	ldi	r21, 0x04	; 4
     e44:	60 e8       	ldi	r22, 0x80	; 128
     e46:	72 e0       	ldi	r23, 0x02	; 2
     e48:	85 e0       	ldi	r24, 0x05	; 5
     e4a:	70 de       	rcall	.-800    	; 0xb2c <floatSpeed>
            
                //"Floating" volume and wind howl during 8 bit rainstorm needs some randomness
                auVolume = floatAround(auVolume, 2, 0x10, 0xA0);
     e4c:	80 91 db 3a 	lds	r24, 0x3ADB	; 0x803adb <auVolume>
     e50:	20 ea       	ldi	r18, 0xA0	; 160
     e52:	40 e1       	ldi	r20, 0x10	; 16
     e54:	62 e0       	ldi	r22, 0x02	; 2
     e56:	9b de       	rcall	.-714    	; 0xb8e <floatAround>
     e58:	80 93 db 3a 	sts	0x3ADB, r24	; 0x803adb <auVolume>
                auBuffer[0] = floatAround(auBuffer[0], 2, 0x70, 0x90);
     e5c:	c5 e0       	ldi	r28, 0x05	; 5
     e5e:	d8 e3       	ldi	r29, 0x38	; 56
     e60:	20 e9       	ldi	r18, 0x90	; 144
     e62:	40 e7       	ldi	r20, 0x70	; 112
     e64:	62 e0       	ldi	r22, 0x02	; 2
     e66:	88 81       	ld	r24, Y
     e68:	92 de       	rcall	.-732    	; 0xb8e <floatAround>
     e6a:	88 83       	st	Y, r24
                auBuffer[3] = 0xFF-auBuffer[0];  //Inverse value of wind[0] produces a whistle
     e6c:	80 95       	com	r24
     e6e:	8b 83       	std	Y+3, r24	; 0x03
            }
        }

        //Footsteps
        if ((effect&0xE0)==128){
     e70:	80 91 93 38 	lds	r24, 0x3893	; 0x803893 <effect>
     e74:	90 91 94 38 	lds	r25, 0x3894	; 0x803894 <effect+0x1>

        }

        //Knocking
        if ((effect&0xE0)==160){
     e78:	80 91 93 38 	lds	r24, 0x3893	; 0x803893 <effect>
     e7c:	90 91 94 38 	lds	r25, 0x3894	; 0x803894 <effect+0x1>

        }

        //Scream
        if ((effect&0xE0)==192){
     e80:	80 91 93 38 	lds	r24, 0x3893	; 0x803893 <effect>
     e84:	90 91 94 38 	lds	r25, 0x3894	; 0x803894 <effect+0x1>

        //Rain storm with whistling wind
        else {
        }
    }
     e88:	df 91       	pop	r29
     e8a:	cf 91       	pop	r28
     e8c:	1f 91       	pop	r17
     e8e:	0f 91       	pop	r16
     e90:	08 95       	ret

00000e92 <BastetDictates>:

// Main game loop
uint8_t BastetDictates(){
  
    return 0;
}
     e92:	80 e0       	ldi	r24, 0x00	; 0
     e94:	08 95       	ret

00000e96 <DecryptData>:
static uint8_t responseList = 0;                    //
static char specialInput[16] = {0};                 //Sometimes a special input is requested by the game. When this is set, input is compared to this string first.
static uint8_t specialPassed = 0;                   //If user input matches specialInput, this is set.

//Decrypts data read from I2C EEPROM, max 255 bytes at a time
void DecryptData(uint16_t offset, uint8_t length, uint8_t type, uint8_t *data){
     e96:	cf 93       	push	r28
     e98:	df 93       	push	r29
     e9a:	ec 01       	movw	r28, r24
    //offset += L_BOILER;
    while(length){
     e9c:	17 c0       	rjmp	.+46     	; 0xecc <DecryptData+0x36>
        *data ^= xor_key[type][(uint8_t)(offset%KEY_LENGTH)];
     e9e:	e4 2f       	mov	r30, r20
     ea0:	f0 e0       	ldi	r31, 0x00	; 0
     ea2:	de 01       	movw	r26, r28
     ea4:	a7 70       	andi	r26, 0x07	; 7
     ea6:	bb 27       	eor	r27, r27
     ea8:	ee 0f       	add	r30, r30
     eaa:	ff 1f       	adc	r31, r31
     eac:	ee 0f       	add	r30, r30
     eae:	ff 1f       	adc	r31, r31
     eb0:	ee 0f       	add	r30, r30
     eb2:	ff 1f       	adc	r31, r31
     eb4:	ec 5e       	subi	r30, 0xEC	; 236
     eb6:	fa 45       	sbci	r31, 0x5A	; 90
     eb8:	ea 0f       	add	r30, r26
     eba:	fb 1f       	adc	r31, r27
     ebc:	90 81       	ld	r25, Z
     ebe:	f9 01       	movw	r30, r18
     ec0:	80 81       	ld	r24, Z
     ec2:	98 27       	eor	r25, r24
     ec4:	91 93       	st	Z+, r25
     ec6:	9f 01       	movw	r18, r30
        ++data;
        ++offset;
     ec8:	21 96       	adiw	r28, 0x01	; 1
        --length;
     eca:	61 50       	subi	r22, 0x01	; 1
static uint8_t specialPassed = 0;                   //If user input matches specialInput, this is set.

//Decrypts data read from I2C EEPROM, max 255 bytes at a time
void DecryptData(uint16_t offset, uint8_t length, uint8_t type, uint8_t *data){
    //offset += L_BOILER;
    while(length){
     ecc:	61 11       	cpse	r22, r1
     ece:	e7 cf       	rjmp	.-50     	; 0xe9e <DecryptData+0x8>
        *data ^= xor_key[type][(uint8_t)(offset%KEY_LENGTH)];
        ++data;
        ++offset;
        --length;
    }
}
     ed0:	df 91       	pop	r29
     ed2:	cf 91       	pop	r28
     ed4:	08 95       	ret

00000ed6 <ExtEERead>:

//Game data: Read a number of bytes and decrypt
uint8_t ExtEERead(uint16_t offset, uint8_t length, uint8_t type, uint8_t *data){
     ed6:	bf 92       	push	r11
     ed8:	cf 92       	push	r12
     eda:	df 92       	push	r13
     edc:	ef 92       	push	r14
     ede:	ff 92       	push	r15
     ee0:	0f 93       	push	r16
     ee2:	1f 93       	push	r17
     ee4:	cf 93       	push	r28
     ee6:	df 93       	push	r29
     ee8:	00 d0       	rcall	.+0      	; 0xeea <ExtEERead+0x14>
     eea:	cd b7       	in	r28, 0x3d	; 61
     eec:	de b7       	in	r29, 0x3e	; 62
     eee:	16 2f       	mov	r17, r22
     ef0:	b4 2e       	mov	r11, r20
     ef2:	69 01       	movw	r12, r18
    offset &=EXT_EE_MAX;
     ef4:	7c 01       	movw	r14, r24
     ef6:	e8 94       	clt
     ef8:	f7 f8       	bld	r15, 7
    uint8_t reg[2] = {(uint8_t)(offset>>8), (uint8_t)(offset&0xff)};
     efa:	f9 82       	std	Y+1, r15	; 0x01
     efc:	ea 82       	std	Y+2, r14	; 0x02
    uint8_t error = (I2C_read_bytes(EE_I2C_ADDR, &reg[0], 2, data, length));
     efe:	06 2f       	mov	r16, r22
     f00:	42 e0       	ldi	r20, 0x02	; 2
     f02:	be 01       	movw	r22, r28
     f04:	6f 5f       	subi	r22, 0xFF	; 255
     f06:	7f 4f       	sbci	r23, 0xFF	; 255
     f08:	80 e5       	ldi	r24, 0x50	; 80
     f0a:	e1 d9       	rcall	.-3134   	; 0x2ce <I2C_read_bytes>
    if (error) return error;
     f0c:	81 11       	cpse	r24, r1
     f0e:	06 c0       	rjmp	.+12     	; 0xf1c <ExtEERead+0x46>
    DecryptData(offset, length, type, data);
     f10:	96 01       	movw	r18, r12
     f12:	4b 2d       	mov	r20, r11
     f14:	61 2f       	mov	r22, r17
     f16:	c7 01       	movw	r24, r14
     f18:	be df       	rcall	.-132    	; 0xe96 <DecryptData>
    return 0;
     f1a:	80 e0       	ldi	r24, 0x00	; 0
}
     f1c:	0f 90       	pop	r0
     f1e:	0f 90       	pop	r0
     f20:	df 91       	pop	r29
     f22:	cf 91       	pop	r28
     f24:	1f 91       	pop	r17
     f26:	0f 91       	pop	r16
     f28:	ff 90       	pop	r15
     f2a:	ef 90       	pop	r14
     f2c:	df 90       	pop	r13
     f2e:	cf 90       	pop	r12
     f30:	bf 90       	pop	r11
     f32:	08 95       	ret

00000f34 <ClearTxAfter>:

//Empty all other strings
void ClearTxAfter(uint8_t nr){
    for (uint8_t x=(nr+1); x<TXLISTLEN; ++x) txStrLen[x]=0;
     f34:	8f 5f       	subi	r24, 0xFF	; 255
     f36:	06 c0       	rjmp	.+12     	; 0xf44 <ClearTxAfter+0x10>
     f38:	e8 2f       	mov	r30, r24
     f3a:	f0 e0       	ldi	r31, 0x00	; 0
     f3c:	e4 59       	subi	r30, 0x94	; 148
     f3e:	f5 4c       	sbci	r31, 0xC5	; 197
     f40:	10 82       	st	Z, r1
     f42:	8f 5f       	subi	r24, 0xFF	; 255
     f44:	88 30       	cpi	r24, 0x08	; 8
     f46:	c0 f3       	brcs	.-16     	; 0xf38 <ClearTxAfter+0x4>
}
     f48:	08 95       	ret

00000f4a <StartsWith>:

//Check if an input string starts with compare string
uint8_t StartsWith(uint8_t *data, char *compare){
     f4a:	dc 01       	movw	r26, r24
    uint8_t x=0;
     f4c:	40 e0       	ldi	r20, 0x00	; 0
    while (data[x] && compare[x]){
     f4e:	03 c0       	rjmp	.+6      	; 0xf56 <StartsWith+0xc>
        if(data[x] != compare[x]) return 0;
     f50:	95 13       	cpse	r25, r21
     f52:	17 c0       	rjmp	.+46     	; 0xf82 <StartsWith+0x38>
        ++x;
     f54:	4f 5f       	subi	r20, 0xFF	; 255
}

//Check if an input string starts with compare string
uint8_t StartsWith(uint8_t *data, char *compare){
    uint8_t x=0;
    while (data[x] && compare[x]){
     f56:	24 2f       	mov	r18, r20
     f58:	30 e0       	ldi	r19, 0x00	; 0
     f5a:	fd 01       	movw	r30, r26
     f5c:	e2 0f       	add	r30, r18
     f5e:	f3 1f       	adc	r31, r19
     f60:	90 81       	ld	r25, Z
     f62:	99 23       	and	r25, r25
     f64:	31 f0       	breq	.+12     	; 0xf72 <StartsWith+0x28>
     f66:	fb 01       	movw	r30, r22
     f68:	e2 0f       	add	r30, r18
     f6a:	f3 1f       	adc	r31, r19
     f6c:	50 81       	ld	r21, Z
     f6e:	51 11       	cpse	r21, r1
     f70:	ef cf       	rjmp	.-34     	; 0xf50 <StartsWith+0x6>
        if(data[x] != compare[x]) return 0;
        ++x;
    }
    if (compare[x] > 0) return 0; //Not the entire string found
     f72:	fb 01       	movw	r30, r22
     f74:	e2 0f       	add	r30, r18
     f76:	f3 1f       	adc	r31, r19
     f78:	80 81       	ld	r24, Z
     f7a:	88 23       	and	r24, r24
     f7c:	21 f0       	breq	.+8      	; 0xf86 <StartsWith+0x3c>
     f7e:	80 e0       	ldi	r24, 0x00	; 0
     f80:	08 95       	ret

//Check if an input string starts with compare string
uint8_t StartsWith(uint8_t *data, char *compare){
    uint8_t x=0;
    while (data[x] && compare[x]){
        if(data[x] != compare[x]) return 0;
     f82:	80 e0       	ldi	r24, 0x00	; 0
     f84:	08 95       	ret
        ++x;
    }
    if (compare[x] > 0) return 0; //Not the entire string found
    return 1;
     f86:	81 e0       	ldi	r24, 0x01	; 1
}
     f88:	08 95       	ret

00000f8a <PrepareSending>:

//Put the addresses of text that has to be sent in the address/length lists.
uint8_t PrepareSending(uint16_t address, uint16_t length, uint8_t type){
     f8a:	cf 93       	push	r28
     f8c:	df 93       	push	r29
     f8e:	eb 01       	movw	r28, r22
    uint8_t x=0;
    if (length){
     f90:	20 97       	sbiw	r28, 0x00	; 0
     f92:	b9 f4       	brne	.+46     	; 0xfc2 <PrepareSending+0x38>
     f94:	41 c0       	rjmp	.+130    	; 0x1018 <PrepareSending+0x8e>
        
        while (length>255) {
            txAddrList[x] = address;
     f96:	25 2f       	mov	r18, r21
     f98:	30 e0       	ldi	r19, 0x00	; 0
     f9a:	f9 01       	movw	r30, r18
     f9c:	ee 0f       	add	r30, r30
     f9e:	ff 1f       	adc	r31, r31
     fa0:	ec 58       	subi	r30, 0x8C	; 140
     fa2:	f5 4c       	sbci	r31, 0xC5	; 197
     fa4:	80 83       	st	Z, r24
     fa6:	91 83       	std	Z+1, r25	; 0x01
            txStrLen[x] = 255;
     fa8:	f9 01       	movw	r30, r18
     faa:	e4 59       	subi	r30, 0x94	; 148
     fac:	f5 4c       	sbci	r31, 0xC5	; 197
     fae:	6f ef       	ldi	r22, 0xFF	; 255
     fb0:	60 83       	st	Z, r22
            address += 255;
     fb2:	81 50       	subi	r24, 0x01	; 1
     fb4:	9f 4f       	sbci	r25, 0xFF	; 255
            length -= 255;
     fb6:	cf 5f       	subi	r28, 0xFF	; 255
     fb8:	d1 09       	sbc	r29, r1
            ++x;
     fba:	5f 5f       	subi	r21, 0xFF	; 255
            if (x==(TXLISTLEN-1)) return 1;
     fbc:	57 30       	cpi	r21, 0x07	; 7
     fbe:	11 f4       	brne	.+4      	; 0xfc4 <PrepareSending+0x3a>
     fc0:	36 c0       	rjmp	.+108    	; 0x102e <PrepareSending+0xa4>
     fc2:	50 e0       	ldi	r21, 0x00	; 0
//Put the addresses of text that has to be sent in the address/length lists.
uint8_t PrepareSending(uint16_t address, uint16_t length, uint8_t type){
    uint8_t x=0;
    if (length){
        
        while (length>255) {
     fc4:	cf 3f       	cpi	r28, 0xFF	; 255
     fc6:	d1 05       	cpc	r29, r1
     fc8:	09 f0       	breq	.+2      	; 0xfcc <PrepareSending+0x42>
     fca:	28 f7       	brcc	.-54     	; 0xf96 <PrepareSending+0xc>
            address += 255;
            length -= 255;
            ++x;
            if (x==(TXLISTLEN-1)) return 1;
        }
        txAddrList[x]=address;
     fcc:	e5 2f       	mov	r30, r21
     fce:	f0 e0       	ldi	r31, 0x00	; 0
     fd0:	df 01       	movw	r26, r30
     fd2:	aa 0f       	add	r26, r26
     fd4:	bb 1f       	adc	r27, r27
     fd6:	ac 58       	subi	r26, 0x8C	; 140
     fd8:	b5 4c       	sbci	r27, 0xC5	; 197
     fda:	8d 93       	st	X+, r24
     fdc:	9c 93       	st	X, r25
        txStrLen[x]=length%255;
     fde:	9e 01       	movw	r18, r28
     fe0:	a1 e8       	ldi	r26, 0x81	; 129
     fe2:	b0 e8       	ldi	r27, 0x80	; 128
     fe4:	0e 94 62 12 	call	0x24c4	; 0x24c4 <__umulhisi3>
     fe8:	88 0f       	add	r24, r24
     fea:	89 2f       	mov	r24, r25
     fec:	88 1f       	adc	r24, r24
     fee:	99 0b       	sbc	r25, r25
     ff0:	91 95       	neg	r25
     ff2:	6f ef       	ldi	r22, 0xFF	; 255
     ff4:	68 9f       	mul	r22, r24
     ff6:	90 01       	movw	r18, r0
     ff8:	69 9f       	mul	r22, r25
     ffa:	30 0d       	add	r19, r0
     ffc:	11 24       	eor	r1, r1
     ffe:	ce 01       	movw	r24, r28
    1000:	82 1b       	sub	r24, r18
    1002:	93 0b       	sbc	r25, r19
    1004:	e4 59       	subi	r30, 0x94	; 148
    1006:	f5 4c       	sbci	r31, 0xC5	; 197
    1008:	80 83       	st	Z, r24
        if (length>255) return 1; 
    100a:	cf 3f       	cpi	r28, 0xFF	; 255
    100c:	d1 05       	cpc	r29, r1
    100e:	09 f0       	breq	.+2      	; 0x1012 <PrepareSending+0x88>
    1010:	80 f4       	brcc	.+32     	; 0x1032 <PrepareSending+0xa8>
        txTypeNow = type;
    1012:	40 93 6a 3a 	sts	0x3A6A, r20	; 0x803a6a <txTypeNow>
    1016:	05 c0       	rjmp	.+10     	; 0x1022 <PrepareSending+0x98>
    } else {
        txAddrList[0] = 0;
    1018:	10 92 74 3a 	sts	0x3A74, r1	; 0x803a74 <txAddrList>
    101c:	10 92 75 3a 	sts	0x3A75, r1	; 0x803a75 <txAddrList+0x1>
    return 1;
}

//Put the addresses of text that has to be sent in the address/length lists.
uint8_t PrepareSending(uint16_t address, uint16_t length, uint8_t type){
    uint8_t x=0;
    1020:	50 e0       	ldi	r21, 0x00	; 0
    } else {
        txAddrList[0] = 0;
    }

    //Get rid of old data from previous run
    ClearTxAfter(x);
    1022:	85 2f       	mov	r24, r21
    1024:	87 df       	rcall	.-242    	; 0xf34 <ClearTxAfter>

    txAddrNow = 0;  //Start at first pointer, initiates sending in CheckSend
    1026:	10 92 6b 3a 	sts	0x3A6B, r1	; 0x803a6b <txAddrNow>
    return 0;
    102a:	80 e0       	ldi	r24, 0x00	; 0
    102c:	03 c0       	rjmp	.+6      	; 0x1034 <PrepareSending+0xaa>
            txAddrList[x] = address;
            txStrLen[x] = 255;
            address += 255;
            length -= 255;
            ++x;
            if (x==(TXLISTLEN-1)) return 1;
    102e:	81 e0       	ldi	r24, 0x01	; 1
    1030:	01 c0       	rjmp	.+2      	; 0x1034 <PrepareSending+0xaa>
        }
        txAddrList[x]=address;
        txStrLen[x]=length%255;
        if (length>255) return 1; 
    1032:	81 e0       	ldi	r24, 0x01	; 1
    //Get rid of old data from previous run
    ClearTxAfter(x);

    txAddrNow = 0;  //Start at first pointer, initiates sending in CheckSend
    return 0;
}
    1034:	df 91       	pop	r29
    1036:	cf 91       	pop	r28
    1038:	08 95       	ret

0000103a <SetResponse>:

//
void SetResponse(uint8_t number, uint16_t address, uint16_t length, uint8_t type){
    reactStr[0][number]=address;
    103a:	90 e0       	ldi	r25, 0x00	; 0
    103c:	fc 01       	movw	r30, r24
    103e:	ee 0f       	add	r30, r30
    1040:	ff 1f       	adc	r31, r31
    1042:	ee 5b       	subi	r30, 0xBE	; 190
    1044:	f6 4c       	sbci	r31, 0xC6	; 198
    1046:	60 83       	st	Z, r22
    1048:	71 83       	std	Z+1, r23	; 0x01
    reactStr[1][number]=length;
    104a:	fc 01       	movw	r30, r24
    104c:	b0 96       	adiw	r30, 0x20	; 32
    104e:	ee 0f       	add	r30, r30
    1050:	ff 1f       	adc	r31, r31
    1052:	ee 5b       	subi	r30, 0xBE	; 190
    1054:	f6 4c       	sbci	r31, 0xC6	; 198
    1056:	40 83       	st	Z, r20
    1058:	51 83       	std	Z+1, r21	; 0x01
    reactStr[2][number]=type;
    105a:	fc 01       	movw	r30, r24
    105c:	e0 5c       	subi	r30, 0xC0	; 192
    105e:	ff 4f       	sbci	r31, 0xFF	; 255
    1060:	ee 0f       	add	r30, r30
    1062:	ff 1f       	adc	r31, r31
    1064:	ee 5b       	subi	r30, 0xBE	; 190
    1066:	f6 4c       	sbci	r31, 0xC6	; 198
    1068:	30 e0       	ldi	r19, 0x00	; 0
    106a:	20 83       	st	Z, r18
    106c:	31 83       	std	Z+1, r19	; 0x01
    106e:	08 95       	ret

00001070 <SetStandardResponse>:
}

//
uint8_t SetStandardResponse(uint8_t custStrEnd){
    1070:	1f 93       	push	r17
    1072:	cf 93       	push	r28
    1074:	df 93       	push	r29
    1076:	c8 2f       	mov	r28, r24

    SetResponse(custStrEnd++, A_LF, 1, TEASER);
    1078:	d1 e0       	ldi	r29, 0x01	; 1
    107a:	d8 0f       	add	r29, r24
    107c:	21 e0       	ldi	r18, 0x01	; 1
    107e:	41 e0       	ldi	r20, 0x01	; 1
    1080:	50 e0       	ldi	r21, 0x00	; 0
    1082:	66 e8       	ldi	r22, 0x86	; 134
    1084:	7a e7       	ldi	r23, 0x7A	; 122
    1086:	d9 df       	rcall	.-78     	; 0x103a <SetResponse>
    SetResponse(custStrEnd++, A_LOCATION, L_LOCATION, TEASER);
    1088:	12 e0       	ldi	r17, 0x02	; 2
    108a:	1c 0f       	add	r17, r28
    108c:	21 e0       	ldi	r18, 0x01	; 1
    108e:	4b e0       	ldi	r20, 0x0B	; 11
    1090:	50 e0       	ldi	r21, 0x00	; 0
    1092:	6b e8       	ldi	r22, 0x8B	; 139
    1094:	7a e7       	ldi	r23, 0x7A	; 122
    1096:	8d 2f       	mov	r24, r29
    1098:	d0 df       	rcall	.-96     	; 0x103a <SetResponse>
    SetResponse(custStrEnd++, A_SPACE, L_SPACE, TEASER);
    109a:	d3 e0       	ldi	r29, 0x03	; 3
    109c:	dc 0f       	add	r29, r28
    109e:	21 e0       	ldi	r18, 0x01	; 1
    10a0:	41 e0       	ldi	r20, 0x01	; 1
    10a2:	50 e0       	ldi	r21, 0x00	; 0
    10a4:	6a e8       	ldi	r22, 0x8A	; 138
    10a6:	7a e7       	ldi	r23, 0x7A	; 122
    10a8:	81 2f       	mov	r24, r17
    10aa:	c7 df       	rcall	.-114    	; 0x103a <SetResponse>
    reactStr[0][custStrEnd++] = CURR_LOC;
    10ac:	ed 2f       	mov	r30, r29
    10ae:	f0 e0       	ldi	r31, 0x00	; 0
    10b0:	ee 0f       	add	r30, r30
    10b2:	ff 1f       	adc	r31, r31
    10b4:	ee 5b       	subi	r30, 0xBE	; 190
    10b6:	f6 4c       	sbci	r31, 0xC6	; 198
    10b8:	80 ef       	ldi	r24, 0xF0	; 240
    10ba:	9f ef       	ldi	r25, 0xFF	; 255
    10bc:	80 83       	st	Z, r24
    10be:	91 83       	std	Z+1, r25	; 0x01
    SetResponse(custStrEnd++, A_LF, 1, TEASER);
    10c0:	15 e0       	ldi	r17, 0x05	; 5
    10c2:	1c 0f       	add	r17, r28
    10c4:	21 e0       	ldi	r18, 0x01	; 1
    10c6:	41 e0       	ldi	r20, 0x01	; 1
    10c8:	50 e0       	ldi	r21, 0x00	; 0
    10ca:	66 e8       	ldi	r22, 0x86	; 134
    10cc:	7a e7       	ldi	r23, 0x7A	; 122
    10ce:	84 e0       	ldi	r24, 0x04	; 4
    10d0:	8c 0f       	add	r24, r28
    10d2:	b3 df       	rcall	.-154    	; 0x103a <SetResponse>
    SetResponse(custStrEnd++, A_PROMPT, L_PROMPT, TEASER);
    10d4:	d6 e0       	ldi	r29, 0x06	; 6
    10d6:	dc 0f       	add	r29, r28
    10d8:	21 e0       	ldi	r18, 0x01	; 1
    10da:	42 e0       	ldi	r20, 0x02	; 2
    10dc:	50 e0       	ldi	r21, 0x00	; 0
    10de:	62 e8       	ldi	r22, 0x82	; 130
    10e0:	7a e7       	ldi	r23, 0x7A	; 122
    10e2:	81 2f       	mov	r24, r17
    10e4:	aa df       	rcall	.-172    	; 0x103a <SetResponse>
    SetResponse(custStrEnd++, A_SPACE, L_SPACE, TEASER);
    10e6:	c9 5f       	subi	r28, 0xF9	; 249
    10e8:	21 e0       	ldi	r18, 0x01	; 1
    10ea:	41 e0       	ldi	r20, 0x01	; 1
    10ec:	50 e0       	ldi	r21, 0x00	; 0
    10ee:	6a e8       	ldi	r22, 0x8A	; 138
    10f0:	7a e7       	ldi	r23, 0x7A	; 122
    10f2:	8d 2f       	mov	r24, r29
    10f4:	a2 df       	rcall	.-188    	; 0x103a <SetResponse>

    return custStrEnd;
}
    10f6:	8c 2f       	mov	r24, r28
    10f8:	df 91       	pop	r29
    10fa:	cf 91       	pop	r28
    10fc:	1f 91       	pop	r17
    10fe:	08 95       	ret

00001100 <PopulateObject>:

//Get all the relevant data and string addresses of an object
void PopulateObject(uint16_t offset, object_model_t *object){
    1100:	df 92       	push	r13
    1102:	ef 92       	push	r14
    1104:	ff 92       	push	r15
    1106:	0f 93       	push	r16
    1108:	1f 93       	push	r17
    110a:	cf 93       	push	r28
    110c:	df 93       	push	r29
    110e:	cd b7       	in	r28, 0x3d	; 61
    1110:	de b7       	in	r29, 0x3e	; 62
    1112:	2c 97       	sbiw	r28, 0x0c	; 12
    1114:	cd bf       	out	0x3d, r28	; 61
    1116:	de bf       	out	0x3e, r29	; 62
    1118:	7c 01       	movw	r14, r24
    111a:	8b 01       	movw	r16, r22
    uint16_t parStr;
    offset += L_BOILER;

    //Fill things with fixed distance to offset
    uint8_t data[OFF_STRINGFLDS];
    ExtEERead(offset, OFF_STRINGFLDS, GAME, &data[0]);
    111c:	9e 01       	movw	r18, r28
    111e:	2f 5f       	subi	r18, 0xFF	; 255
    1120:	3f 4f       	sbci	r19, 0xFF	; 255
    1122:	40 e0       	ldi	r20, 0x00	; 0
    1124:	6c e0       	ldi	r22, 0x0C	; 12
    1126:	80 96       	adiw	r24, 0x20	; 32
    1128:	d6 de       	rcall	.-596    	; 0xed6 <ExtEERead>
    object->addrNextObj = (data[OFF_NEXTOBJ]<<8|data[OFF_NEXTOBJ+1])+L_BOILER;
    112a:	89 81       	ldd	r24, Y+1	; 0x01
    112c:	90 e0       	ldi	r25, 0x00	; 0
    112e:	98 2f       	mov	r25, r24
    1130:	88 27       	eor	r24, r24
    1132:	2a 81       	ldd	r18, Y+2	; 0x02
    1134:	82 2b       	or	r24, r18
    1136:	80 96       	adiw	r24, 0x20	; 32
    1138:	f8 01       	movw	r30, r16
    113a:	80 83       	st	Z, r24
    113c:	91 83       	std	Z+1, r25	; 0x01
    object->addrNextLvl = (data[OFF_NEXTLVL]<<8|data[OFF_NEXTLVL+1])+L_BOILER;
    113e:	8b 81       	ldd	r24, Y+3	; 0x03
    1140:	90 e0       	ldi	r25, 0x00	; 0
    1142:	98 2f       	mov	r25, r24
    1144:	88 27       	eor	r24, r24
    1146:	2c 81       	ldd	r18, Y+4	; 0x04
    1148:	82 2b       	or	r24, r18
    114a:	80 96       	adiw	r24, 0x20	; 32
    114c:	82 83       	std	Z+2, r24	; 0x02
    114e:	93 83       	std	Z+3, r25	; 0x03
    for (uint8_t x=0; x<BYTE_FIELDS_LEN; ++x){
    1150:	20 e0       	ldi	r18, 0x00	; 0
    1152:	10 c0       	rjmp	.+32     	; 0x1174 <PopulateObject+0x74>
        object->byteField[x]=data[x+OFF_BYTEFLDS];
    1154:	82 2f       	mov	r24, r18
    1156:	90 e0       	ldi	r25, 0x00	; 0
    1158:	fc 01       	movw	r30, r24
    115a:	34 96       	adiw	r30, 0x04	; 4
    115c:	41 e0       	ldi	r20, 0x01	; 1
    115e:	50 e0       	ldi	r21, 0x00	; 0
    1160:	4c 0f       	add	r20, r28
    1162:	5d 1f       	adc	r21, r29
    1164:	e4 0f       	add	r30, r20
    1166:	f5 1f       	adc	r31, r21
    1168:	30 81       	ld	r19, Z
    116a:	f8 01       	movw	r30, r16
    116c:	e8 0f       	add	r30, r24
    116e:	f9 1f       	adc	r31, r25
    1170:	34 83       	std	Z+4, r19	; 0x04
    //Fill things with fixed distance to offset
    uint8_t data[OFF_STRINGFLDS];
    ExtEERead(offset, OFF_STRINGFLDS, GAME, &data[0]);
    object->addrNextObj = (data[OFF_NEXTOBJ]<<8|data[OFF_NEXTOBJ+1])+L_BOILER;
    object->addrNextLvl = (data[OFF_NEXTLVL]<<8|data[OFF_NEXTLVL+1])+L_BOILER;
    for (uint8_t x=0; x<BYTE_FIELDS_LEN; ++x){
    1172:	2f 5f       	subi	r18, 0xFF	; 255
    1174:	28 30       	cpi	r18, 0x08	; 8
    1176:	70 f3       	brcs	.-36     	; 0x1154 <PopulateObject+0x54>
        object->byteField[x]=data[x+OFF_BYTEFLDS];
    }

    //Find out where all of the strings begin and how long they are
    offset += OFF_STRINGFLDS;
    1178:	5c e2       	ldi	r21, 0x2C	; 44
    117a:	e5 0e       	add	r14, r21
    117c:	f1 1c       	adc	r15, r1
    for(uint8_t x=0; x<STRING_FIELDS_LEN; ++x){
    117e:	d1 2c       	mov	r13, r1
    1180:	25 c0       	rjmp	.+74     	; 0x11cc <PopulateObject+0xcc>
        //Determine length
        ExtEERead(offset, 2, GAME, &data[0]);
    1182:	9e 01       	movw	r18, r28
    1184:	2f 5f       	subi	r18, 0xFF	; 255
    1186:	3f 4f       	sbci	r19, 0xFF	; 255
    1188:	40 e0       	ldi	r20, 0x00	; 0
    118a:	62 e0       	ldi	r22, 0x02	; 2
    118c:	c7 01       	movw	r24, r14
    118e:	a3 de       	rcall	.-698    	; 0xed6 <ExtEERead>
        parStr = (data[0]<<8|data[1]);
    1190:	29 81       	ldd	r18, Y+1	; 0x01
    1192:	30 e0       	ldi	r19, 0x00	; 0
    1194:	32 2f       	mov	r19, r18
    1196:	22 27       	eor	r18, r18
    1198:	8a 81       	ldd	r24, Y+2	; 0x02
    119a:	28 2b       	or	r18, r24
        object->lenStr[x]= parStr;
    119c:	4d 2d       	mov	r20, r13
    119e:	50 e0       	ldi	r21, 0x00	; 0
    11a0:	fa 01       	movw	r30, r20
    11a2:	3d 96       	adiw	r30, 0x0d	; 13
    11a4:	ee 0f       	add	r30, r30
    11a6:	ff 1f       	adc	r31, r31
    11a8:	e0 0f       	add	r30, r16
    11aa:	f1 1f       	adc	r31, r17
    11ac:	20 83       	st	Z, r18
    11ae:	31 83       	std	Z+1, r19	; 0x01
        
        //Determine string start location and add length to offset for next field
        offset += 2;
    11b0:	82 e0       	ldi	r24, 0x02	; 2
    11b2:	e8 0e       	add	r14, r24
    11b4:	f1 1c       	adc	r15, r1
        object->addrStr[x]=offset;
    11b6:	fa 01       	movw	r30, r20
    11b8:	36 96       	adiw	r30, 0x06	; 6
    11ba:	ee 0f       	add	r30, r30
    11bc:	ff 1f       	adc	r31, r31
    11be:	e0 0f       	add	r30, r16
    11c0:	f1 1f       	adc	r31, r17
    11c2:	e0 82       	st	Z, r14
    11c4:	f1 82       	std	Z+1, r15	; 0x01
        offset += parStr;
    11c6:	e2 0e       	add	r14, r18
    11c8:	f3 1e       	adc	r15, r19
        object->byteField[x]=data[x+OFF_BYTEFLDS];
    }

    //Find out where all of the strings begin and how long they are
    offset += OFF_STRINGFLDS;
    for(uint8_t x=0; x<STRING_FIELDS_LEN; ++x){
    11ca:	d3 94       	inc	r13
    11cc:	e6 e0       	ldi	r30, 0x06	; 6
    11ce:	ed 15       	cp	r30, r13
    11d0:	c0 f6       	brcc	.-80     	; 0x1182 <PopulateObject+0x82>
        //Determine string start location and add length to offset for next field
        offset += 2;
        object->addrStr[x]=offset;
        offset += parStr;
    }    
}
    11d2:	2c 96       	adiw	r28, 0x0c	; 12
    11d4:	cd bf       	out	0x3d, r28	; 61
    11d6:	de bf       	out	0x3e, r29	; 62
    11d8:	df 91       	pop	r29
    11da:	cf 91       	pop	r28
    11dc:	1f 91       	pop	r17
    11de:	0f 91       	pop	r16
    11e0:	ff 90       	pop	r15
    11e2:	ef 90       	pop	r14
    11e4:	df 90       	pop	r13
    11e6:	08 95       	ret

000011e8 <UpdateState>:

//Update game state: num -> vBBBBbbb v=value(0 is set!), BBBB=Byte number, bbb=bit number
void UpdateState(uint8_t num){
    uint8_t clearBit = num & 0x80;
    num &= 0x7f;
    11e8:	98 2f       	mov	r25, r24
    11ea:	9f 77       	andi	r25, 0x7F	; 127
    if (clearBit) {
    11ec:	88 23       	and	r24, r24
    11ee:	24 f4       	brge	.+8      	; 0x11f8 <UpdateState+0x10>
        WriteStatusBit(num, 0);
    11f0:	60 e0       	ldi	r22, 0x00	; 0
    11f2:	89 2f       	mov	r24, r25
    11f4:	72 cd       	rjmp	.-1308   	; 0xcda <WriteStatusBit>
    11f6:	08 95       	ret
    } else {
        WriteStatusBit(num, 1);
    11f8:	61 e0       	ldi	r22, 0x01	; 1
    11fa:	89 2f       	mov	r24, r25
    11fc:	6e cd       	rjmp	.-1316   	; 0xcda <WriteStatusBit>
    11fe:	08 95       	ret

00001200 <GetState>:
    }
}

//Returns the state of the bit on position "num"
uint8_t GetState(uint8_t num){
    if ((num)&&(num<0x80)){
    1200:	18 16       	cp	r1, r24
    1202:	14 f4       	brge	.+4      	; 0x1208 <GetState+0x8>
        return ReadStatusBit(num);
    1204:	52 cd       	rjmp	.-1372   	; 0xcaa <ReadStatusBit>
    1206:	08 95       	ret
    }
    return 1;
    1208:	81 e0       	ldi	r24, 0x01	; 1
}
    120a:	08 95       	ret

0000120c <CheckState>:

//Checks if state of bit BBBBbbb matches with v (inverted) bit
uint8_t CheckState(uint8_t num){
    120c:	cf 93       	push	r28
    120e:	c8 2f       	mov	r28, r24
    return (GetState(num&(0x7f)) == (1-((num&0x80)?1:0))); 
    1210:	8f 77       	andi	r24, 0x7F	; 127
    1212:	f6 df       	rcall	.-20     	; 0x1200 <GetState>
    1214:	2c 2f       	mov	r18, r28
    1216:	cc 0f       	add	r28, r28
    1218:	33 0b       	sbc	r19, r19
    121a:	20 95       	com	r18
    121c:	30 95       	com	r19
    121e:	43 2f       	mov	r20, r19
    1220:	44 1f       	adc	r20, r20
    1222:	44 27       	eor	r20, r20
    1224:	44 1f       	adc	r20, r20
    1226:	50 e0       	ldi	r21, 0x00	; 0
    1228:	28 2f       	mov	r18, r24
    122a:	30 e0       	ldi	r19, 0x00	; 0
    122c:	81 e0       	ldi	r24, 0x01	; 1
    122e:	24 17       	cp	r18, r20
    1230:	35 07       	cpc	r19, r21
    1232:	09 f0       	breq	.+2      	; 0x1236 <CheckState+0x2a>
    1234:	80 e0       	ldi	r24, 0x00	; 0
}
    1236:	cf 91       	pop	r28
    1238:	08 95       	ret

0000123a <CheckLetter>:

//Check if the entered letter corresponds with a name
uint8_t CheckLetter(uint16_t object, uint8_t letter){
    123a:	cf 92       	push	r12
    123c:	df 92       	push	r13
    123e:	ef 92       	push	r14
    1240:	ff 92       	push	r15
    1242:	0f 93       	push	r16
    1244:	1f 93       	push	r17
    1246:	cf 93       	push	r28
    1248:	df 93       	push	r29
    124a:	cd b7       	in	r28, 0x3d	; 61
    124c:	de b7       	in	r29, 0x3e	; 62
    124e:	a0 97       	sbiw	r28, 0x20	; 32
    1250:	cd bf       	out	0x3d, r28	; 61
    1252:	de bf       	out	0x3e, r29	; 62
    1254:	e6 2e       	mov	r14, r22
    
    uint8_t found = 0;
    uint8_t data[32];

    object += L_BOILER;
    1256:	6c 01       	movw	r12, r24
    1258:	20 e2       	ldi	r18, 0x20	; 32
    125a:	c2 0e       	add	r12, r18
    125c:	d1 1c       	adc	r13, r1
    ExtEERead(object+OFF_STRINGFLDS, 2, GAME, &data[0]);
    125e:	9e 01       	movw	r18, r28
    1260:	2f 5f       	subi	r18, 0xFF	; 255
    1262:	3f 4f       	sbci	r19, 0xFF	; 255
    1264:	40 e0       	ldi	r20, 0x00	; 0
    1266:	62 e0       	ldi	r22, 0x02	; 2
    1268:	8c 96       	adiw	r24, 0x2c	; 44
    126a:	35 de       	rcall	.-918    	; 0xed6 <ExtEERead>
    uint8_t x = data[1]; //Assuming a name is not longer than 255 characters.
    126c:	fa 80       	ldd	r15, Y+2	; 0x02
}

//Check if the entered letter corresponds with a name
uint8_t CheckLetter(uint16_t object, uint8_t letter){
    
    uint8_t found = 0;
    126e:	00 e0       	ldi	r16, 0x00	; 0

    object += L_BOILER;
    ExtEERead(object+OFF_STRINGFLDS, 2, GAME, &data[0]);
    uint8_t x = data[1]; //Assuming a name is not longer than 255 characters.

    while (x){
    1270:	2e c0       	rjmp	.+92     	; 0x12ce <CheckLetter+0x94>
        uint8_t max;
        if (x>32) max = 32; else max = x;
    1272:	80 e2       	ldi	r24, 0x20	; 32
    1274:	8f 15       	cp	r24, r15
    1276:	10 f4       	brcc	.+4      	; 0x127c <CheckLetter+0x42>
    1278:	10 e2       	ldi	r17, 0x20	; 32
    127a:	01 c0       	rjmp	.+2      	; 0x127e <CheckLetter+0x44>
    127c:	1f 2d       	mov	r17, r15
        ExtEERead(object+OFF_STRINGFLDS+2, max, GAME, &data[0]);
    127e:	9e 01       	movw	r18, r28
    1280:	2f 5f       	subi	r18, 0xFF	; 255
    1282:	3f 4f       	sbci	r19, 0xFF	; 255
    1284:	40 e0       	ldi	r20, 0x00	; 0
    1286:	61 2f       	mov	r22, r17
    1288:	c6 01       	movw	r24, r12
    128a:	0e 96       	adiw	r24, 0x0e	; 14
    128c:	24 de       	rcall	.-952    	; 0xed6 <ExtEERead>
        for (uint8_t y=0; y<max; ++y){
    128e:	80 e0       	ldi	r24, 0x00	; 0
    1290:	19 c0       	rjmp	.+50     	; 0x12c4 <CheckLetter+0x8a>
            if (found){
    1292:	00 23       	and	r16, r16
    1294:	61 f0       	breq	.+24     	; 0x12ae <CheckLetter+0x74>
                if ((data[y]|0x20) == letter) return 1; else return 0;
    1296:	e1 e0       	ldi	r30, 0x01	; 1
    1298:	f0 e0       	ldi	r31, 0x00	; 0
    129a:	ec 0f       	add	r30, r28
    129c:	fd 1f       	adc	r31, r29
    129e:	e8 0f       	add	r30, r24
    12a0:	f1 1d       	adc	r31, r1
    12a2:	80 81       	ld	r24, Z
    12a4:	80 62       	ori	r24, 0x20	; 32
    12a6:	8e 11       	cpse	r24, r14
    12a8:	16 c0       	rjmp	.+44     	; 0x12d6 <CheckLetter+0x9c>
    12aa:	81 e0       	ldi	r24, 0x01	; 1
    12ac:	15 c0       	rjmp	.+42     	; 0x12d8 <CheckLetter+0x9e>
            }
            if (data[y] == '[') found = 1;
    12ae:	e1 e0       	ldi	r30, 0x01	; 1
    12b0:	f0 e0       	ldi	r31, 0x00	; 0
    12b2:	ec 0f       	add	r30, r28
    12b4:	fd 1f       	adc	r31, r29
    12b6:	e8 0f       	add	r30, r24
    12b8:	f1 1d       	adc	r31, r1
    12ba:	90 81       	ld	r25, Z
    12bc:	9b 35       	cpi	r25, 0x5B	; 91
    12be:	09 f4       	brne	.+2      	; 0x12c2 <CheckLetter+0x88>
    12c0:	01 e0       	ldi	r16, 0x01	; 1

    while (x){
        uint8_t max;
        if (x>32) max = 32; else max = x;
        ExtEERead(object+OFF_STRINGFLDS+2, max, GAME, &data[0]);
        for (uint8_t y=0; y<max; ++y){
    12c2:	8f 5f       	subi	r24, 0xFF	; 255
    12c4:	81 17       	cp	r24, r17
    12c6:	28 f3       	brcs	.-54     	; 0x1292 <CheckLetter+0x58>
            if (found){
                if ((data[y]|0x20) == letter) return 1; else return 0;
            }
            if (data[y] == '[') found = 1;
        }
        object += max;
    12c8:	c1 0e       	add	r12, r17
    12ca:	d1 1c       	adc	r13, r1
        x -= max;
    12cc:	f1 1a       	sub	r15, r17

    object += L_BOILER;
    ExtEERead(object+OFF_STRINGFLDS, 2, GAME, &data[0]);
    uint8_t x = data[1]; //Assuming a name is not longer than 255 characters.

    while (x){
    12ce:	f1 10       	cpse	r15, r1
    12d0:	d0 cf       	rjmp	.-96     	; 0x1272 <CheckLetter+0x38>
            if (data[y] == '[') found = 1;
        }
        object += max;
        x -= max;
    }
    return 0;
    12d2:	80 e0       	ldi	r24, 0x00	; 0
    12d4:	01 c0       	rjmp	.+2      	; 0x12d8 <CheckLetter+0x9e>
        uint8_t max;
        if (x>32) max = 32; else max = x;
        ExtEERead(object+OFF_STRINGFLDS+2, max, GAME, &data[0]);
        for (uint8_t y=0; y<max; ++y){
            if (found){
                if ((data[y]|0x20) == letter) return 1; else return 0;
    12d6:	80 e0       	ldi	r24, 0x00	; 0
        }
        object += max;
        x -= max;
    }
    return 0;
}
    12d8:	a0 96       	adiw	r28, 0x20	; 32
    12da:	cd bf       	out	0x3d, r28	; 61
    12dc:	de bf       	out	0x3e, r29	; 62
    12de:	df 91       	pop	r29
    12e0:	cf 91       	pop	r28
    12e2:	1f 91       	pop	r17
    12e4:	0f 91       	pop	r16
    12e6:	ff 90       	pop	r15
    12e8:	ef 90       	pop	r14
    12ea:	df 90       	pop	r13
    12ec:	cf 90       	pop	r12
    12ee:	08 95       	ret

000012f0 <FindChild>:

//Returns the child's address if the child is visible and the search letter matches
uint16_t FindChild(uint16_t parent, uint8_t letter, uint16_t start){
    12f0:	bf 92       	push	r11
    12f2:	cf 92       	push	r12
    12f4:	df 92       	push	r13
    12f6:	ef 92       	push	r14
    12f8:	ff 92       	push	r15
    12fa:	0f 93       	push	r16
    12fc:	1f 93       	push	r17
    12fe:	cf 93       	push	r28
    1300:	df 93       	push	r29
    1302:	00 d0       	rcall	.+0      	; 0x1304 <FindChild+0x14>
    1304:	00 d0       	rcall	.+0      	; 0x1306 <FindChild+0x16>
    1306:	cd b7       	in	r28, 0x3d	; 61
    1308:	de b7       	in	r29, 0x3e	; 62
    130a:	b6 2e       	mov	r11, r22
    130c:	6a 01       	movw	r12, r20
    
    uint16_t child = parent;
    uint8_t data[4];

    ExtEERead(child+L_BOILER, 4, GAME, &data[0]);
    130e:	9e 01       	movw	r18, r28
    1310:	2f 5f       	subi	r18, 0xFF	; 255
    1312:	3f 4f       	sbci	r19, 0xFF	; 255
    1314:	40 e0       	ldi	r20, 0x00	; 0
    1316:	64 e0       	ldi	r22, 0x04	; 4
    1318:	80 96       	adiw	r24, 0x20	; 32
    131a:	dd dd       	rcall	.-1094   	; 0xed6 <ExtEERead>
    parent = (data[0]<<8|data[1]);    //Next object on parent level
    131c:	e9 80       	ldd	r14, Y+1	; 0x01
    131e:	f1 2c       	mov	r15, r1
    1320:	fe 2c       	mov	r15, r14
    1322:	ee 24       	eor	r14, r14
    1324:	8a 81       	ldd	r24, Y+2	; 0x02
    1326:	e8 2a       	or	r14, r24
    child =  (data[2]<<8|data[3]);    //First object on child level
    1328:	0b 81       	ldd	r16, Y+3	; 0x03
    132a:	10 e0       	ldi	r17, 0x00	; 0
    132c:	10 2f       	mov	r17, r16
    132e:	00 27       	eor	r16, r16
    1330:	8c 81       	ldd	r24, Y+4	; 0x04
    1332:	08 2b       	or	r16, r24

    //As long as the child is within the parent's range
    while (parent>child){
    1334:	26 c0       	rjmp	.+76     	; 0x1382 <FindChild+0x92>

        //If child's address is higher than the start address, perform search for letter
        if (child>start){
    1336:	c0 16       	cp	r12, r16
    1338:	d1 06       	cpc	r13, r17
    133a:	a8 f4       	brcc	.+42     	; 0x1366 <FindChild+0x76>
            ExtEERead(child+OFF_BYTEFLDS+VISIBLE_ACL+L_BOILER, 1, GAME, &data[0]);
    133c:	9e 01       	movw	r18, r28
    133e:	2f 5f       	subi	r18, 0xFF	; 255
    1340:	3f 4f       	sbci	r19, 0xFF	; 255
    1342:	40 e0       	ldi	r20, 0x00	; 0
    1344:	61 e0       	ldi	r22, 0x01	; 1
    1346:	c8 01       	movw	r24, r16
    1348:	85 96       	adiw	r24, 0x25	; 37
    134a:	c5 dd       	rcall	.-1142   	; 0xed6 <ExtEERead>
            if ((data[0] == 0)||(CheckState(data[0]))) {
    134c:	89 81       	ldd	r24, Y+1	; 0x01
    134e:	88 23       	and	r24, r24
    1350:	19 f0       	breq	.+6      	; 0x1358 <FindChild+0x68>
    1352:	5c df       	rcall	.-328    	; 0x120c <CheckState>
    1354:	88 23       	and	r24, r24
    1356:	39 f0       	breq	.+14     	; 0x1366 <FindChild+0x76>
                if ((letter == 0)||(CheckLetter(child, letter))) return child;
    1358:	bb 20       	and	r11, r11
    135a:	c9 f0       	breq	.+50     	; 0x138e <FindChild+0x9e>
    135c:	6b 2d       	mov	r22, r11
    135e:	c8 01       	movw	r24, r16
    1360:	6c df       	rcall	.-296    	; 0x123a <CheckLetter>
    1362:	81 11       	cpse	r24, r1
    1364:	17 c0       	rjmp	.+46     	; 0x1394 <FindChild+0xa4>
            }
        }

        //Not visible or name not right
        ExtEERead(child+L_BOILER, 2, GAME, &data[0]);
    1366:	9e 01       	movw	r18, r28
    1368:	2f 5f       	subi	r18, 0xFF	; 255
    136a:	3f 4f       	sbci	r19, 0xFF	; 255
    136c:	40 e0       	ldi	r20, 0x00	; 0
    136e:	62 e0       	ldi	r22, 0x02	; 2
    1370:	c8 01       	movw	r24, r16
    1372:	80 96       	adiw	r24, 0x20	; 32
    1374:	b0 dd       	rcall	.-1184   	; 0xed6 <ExtEERead>
        child = (data[0]<<8|data[1]);    //Next object on child level
    1376:	09 81       	ldd	r16, Y+1	; 0x01
    1378:	10 e0       	ldi	r17, 0x00	; 0
    137a:	10 2f       	mov	r17, r16
    137c:	00 27       	eor	r16, r16
    137e:	8a 81       	ldd	r24, Y+2	; 0x02
    1380:	08 2b       	or	r16, r24
    ExtEERead(child+L_BOILER, 4, GAME, &data[0]);
    parent = (data[0]<<8|data[1]);    //Next object on parent level
    child =  (data[2]<<8|data[3]);    //First object on child level

    //As long as the child is within the parent's range
    while (parent>child){
    1382:	0e 15       	cp	r16, r14
    1384:	1f 05       	cpc	r17, r15
    1386:	b8 f2       	brcs	.-82     	; 0x1336 <FindChild+0x46>

        //Not visible or name not right
        ExtEERead(child+L_BOILER, 2, GAME, &data[0]);
        child = (data[0]<<8|data[1]);    //Next object on child level
        
    } return 0;
    1388:	80 e0       	ldi	r24, 0x00	; 0
    138a:	90 e0       	ldi	r25, 0x00	; 0
    138c:	05 c0       	rjmp	.+10     	; 0x1398 <FindChild+0xa8>

        //If child's address is higher than the start address, perform search for letter
        if (child>start){
            ExtEERead(child+OFF_BYTEFLDS+VISIBLE_ACL+L_BOILER, 1, GAME, &data[0]);
            if ((data[0] == 0)||(CheckState(data[0]))) {
                if ((letter == 0)||(CheckLetter(child, letter))) return child;
    138e:	80 2f       	mov	r24, r16
    1390:	91 2f       	mov	r25, r17
    1392:	02 c0       	rjmp	.+4      	; 0x1398 <FindChild+0xa8>
    1394:	80 2f       	mov	r24, r16
    1396:	91 2f       	mov	r25, r17
        //Not visible or name not right
        ExtEERead(child+L_BOILER, 2, GAME, &data[0]);
        child = (data[0]<<8|data[1]);    //Next object on child level
        
    } return 0;
}
    1398:	24 96       	adiw	r28, 0x04	; 4
    139a:	cd bf       	out	0x3d, r28	; 61
    139c:	de bf       	out	0x3e, r29	; 62
    139e:	df 91       	pop	r29
    13a0:	cf 91       	pop	r28
    13a2:	1f 91       	pop	r17
    13a4:	0f 91       	pop	r16
    13a6:	ff 90       	pop	r15
    13a8:	ef 90       	pop	r14
    13aa:	df 90       	pop	r13
    13ac:	cf 90       	pop	r12
    13ae:	bf 90       	pop	r11
    13b0:	08 95       	ret

000013b2 <InpOkChk>:

//Allow only a(A) to z(Z) and 0 to 9 as input
uint8_t InpOkChk(uint8_t test){
    if ((test>='a')&&(test<='z')) return 1;
    13b2:	9f e9       	ldi	r25, 0x9F	; 159
    13b4:	98 0f       	add	r25, r24
    13b6:	9a 31       	cpi	r25, 0x1A	; 26
    13b8:	28 f0       	brcs	.+10     	; 0x13c4 <InpOkChk+0x12>
    if ((test>='0')&&(test<='9')) return 1;
    13ba:	80 53       	subi	r24, 0x30	; 48
    13bc:	8a 30       	cpi	r24, 0x0A	; 10
    13be:	20 f4       	brcc	.+8      	; 0x13c8 <InpOkChk+0x16>
    13c0:	81 e0       	ldi	r24, 0x01	; 1
    13c2:	08 95       	ret
    } return 0;
}

//Allow only a(A) to z(Z) and 0 to 9 as input
uint8_t InpOkChk(uint8_t test){
    if ((test>='a')&&(test<='z')) return 1;
    13c4:	81 e0       	ldi	r24, 0x01	; 1
    13c6:	08 95       	ret
    if ((test>='0')&&(test<='9')) return 1;
    return 0;
    13c8:	80 e0       	ldi	r24, 0x00	; 0
}
    13ca:	08 95       	ret

000013cc <CleanInput>:

//Cleans input of garbage and returns length of cleaned input "o->d2  !\0" becomes "od2\0"
uint8_t CleanInput(uint8_t *data){
    13cc:	0f 93       	push	r16
    13ce:	1f 93       	push	r17
    13d0:	cf 93       	push	r28
    13d2:	df 93       	push	r29
    13d4:	8c 01       	movw	r16, r24
    uint8_t cnt = 0;
    for (uint8_t x=0; data[x]!=0; ++x){
    13d6:	c0 e0       	ldi	r28, 0x00	; 0
    return 0;
}

//Cleans input of garbage and returns length of cleaned input "o->d2  !\0" becomes "od2\0"
uint8_t CleanInput(uint8_t *data){
    uint8_t cnt = 0;
    13d8:	d0 e0       	ldi	r29, 0x00	; 0
    for (uint8_t x=0; data[x]!=0; ++x){
    13da:	09 c0       	rjmp	.+18     	; 0x13ee <CleanInput+0x22>
        data[cnt] = data[x];
    13dc:	d8 01       	movw	r26, r16
    13de:	ad 0f       	add	r26, r29
    13e0:	b1 1d       	adc	r27, r1
    13e2:	8c 93       	st	X, r24
        if (InpOkChk(data[x])) ++cnt;
    13e4:	80 81       	ld	r24, Z
    13e6:	e5 df       	rcall	.-54     	; 0x13b2 <InpOkChk>
    13e8:	81 11       	cpse	r24, r1
    13ea:	df 5f       	subi	r29, 0xFF	; 255
}

//Cleans input of garbage and returns length of cleaned input "o->d2  !\0" becomes "od2\0"
uint8_t CleanInput(uint8_t *data){
    uint8_t cnt = 0;
    for (uint8_t x=0; data[x]!=0; ++x){
    13ec:	cf 5f       	subi	r28, 0xFF	; 255
    13ee:	f8 01       	movw	r30, r16
    13f0:	ec 0f       	add	r30, r28
    13f2:	f1 1d       	adc	r31, r1
    13f4:	80 81       	ld	r24, Z
    13f6:	81 11       	cpse	r24, r1
    13f8:	f1 cf       	rjmp	.-30     	; 0x13dc <CleanInput+0x10>
        data[cnt] = data[x];
        if (InpOkChk(data[x])) ++cnt;
    }
    data[cnt] = 0;
    13fa:	f8 01       	movw	r30, r16
    13fc:	ed 0f       	add	r30, r29
    13fe:	f1 1d       	adc	r31, r1
    1400:	10 82       	st	Z, r1
    return cnt;
}
    1402:	8d 2f       	mov	r24, r29
    1404:	df 91       	pop	r29
    1406:	cf 91       	pop	r28
    1408:	1f 91       	pop	r17
    140a:	0f 91       	pop	r16
    140c:	08 95       	ret

0000140e <CheckSend>:

//Send routine, optimized for low memory usage
uint8_t CheckSend(){
    140e:	cf 93       	push	r28
    static uint8_t txPart;
    uint8_t EEreadLength=0;

    //Check if more string(part)s have to be sent to the serial output if previous send operation is completed
    if ((txAddrNow < TXLISTLEN) && serTxDone){
    1410:	80 91 6b 3a 	lds	r24, 0x3A6B	; 0x803a6b <txAddrNow>
    1414:	88 30       	cpi	r24, 0x08	; 8
    1416:	08 f0       	brcs	.+2      	; 0x141a <CheckSend+0xc>
    1418:	4e c0       	rjmp	.+156    	; 0x14b6 <CheckSend+0xa8>
    141a:	90 91 04 38 	lds	r25, 0x3804	; 0x803804 <serTxDone>
    141e:	99 23       	and	r25, r25
    1420:	09 f4       	brne	.+2      	; 0x1424 <CheckSend+0x16>
    1422:	49 c0       	rjmp	.+146    	; 0x14b6 <CheckSend+0xa8>
        if (txStrLen[txAddrNow] == 0){
    1424:	28 2f       	mov	r18, r24
    1426:	30 e0       	ldi	r19, 0x00	; 0
    1428:	f9 01       	movw	r30, r18
    142a:	e4 59       	subi	r30, 0x94	; 148
    142c:	f5 4c       	sbci	r31, 0xC5	; 197
    142e:	60 81       	ld	r22, Z
    1430:	61 11       	cpse	r22, r1
    1432:	07 c0       	rjmp	.+14     	; 0x1442 <CheckSend+0x34>
            txPart = 0;
    1434:	10 92 2f 39 	sts	0x392F, r1	; 0x80392f <txPart.3916>
            txAddrNow = TXLISTLEN;
    1438:	88 e0       	ldi	r24, 0x08	; 8
    143a:	80 93 6b 3a 	sts	0x3A6B, r24	; 0x803a6b <txAddrNow>
        } else {
            txPart = 0;
            ++txAddrNow;
        }
    } else if (serTxDone) return 0; //All is sent!
    return 1; //Still sending, do not change the data in the tx variables
    143e:	81 e0       	ldi	r24, 0x01	; 1
    1440:	41 c0       	rjmp	.+130    	; 0x14c4 <CheckSend+0xb6>
    //Check if more string(part)s have to be sent to the serial output if previous send operation is completed
    if ((txAddrNow < TXLISTLEN) && serTxDone){
        if (txStrLen[txAddrNow] == 0){
            txPart = 0;
            txAddrNow = TXLISTLEN;
        } else if (txPart < txStrLen[txAddrNow]){
    1442:	90 91 2f 39 	lds	r25, 0x392F	; 0x80392f <txPart.3916>
    1446:	96 17       	cp	r25, r22
    1448:	78 f5       	brcc	.+94     	; 0x14a8 <CheckSend+0x9a>
            EEreadLength = txStrLen[txAddrNow]-txPart;
    144a:	c6 2f       	mov	r28, r22
    144c:	c9 1b       	sub	r28, r25
            if (EEreadLength>=TXLEN) EEreadLength = TXLEN-1;
    144e:	c1 32       	cpi	r28, 0x21	; 33
    1450:	08 f0       	brcs	.+2      	; 0x1454 <CheckSend+0x46>
    1452:	c0 e2       	ldi	r28, 0x20	; 32
            ExtEERead(txAddrList[txAddrNow]+txPart, EEreadLength, txTypeNow, &txBuffer[0]);
    1454:	22 0f       	add	r18, r18
    1456:	33 1f       	adc	r19, r19
    1458:	f9 01       	movw	r30, r18
    145a:	ec 58       	subi	r30, 0x8C	; 140
    145c:	f5 4c       	sbci	r31, 0xC5	; 197
    145e:	01 90       	ld	r0, Z+
    1460:	f0 81       	ld	r31, Z
    1462:	e0 2d       	mov	r30, r0
    1464:	21 e3       	ldi	r18, 0x31	; 49
    1466:	3b e3       	ldi	r19, 0x3B	; 59
    1468:	40 91 6a 3a 	lds	r20, 0x3A6A	; 0x803a6a <txTypeNow>
    146c:	6c 2f       	mov	r22, r28
    146e:	df 01       	movw	r26, r30
    1470:	a9 0f       	add	r26, r25
    1472:	b1 1d       	adc	r27, r1
    1474:	cd 01       	movw	r24, r26
    1476:	2f dd       	rcall	.-1442   	; 0xed6 <ExtEERead>
            txPart += EEreadLength;
    1478:	80 91 2f 39 	lds	r24, 0x392F	; 0x80392f <txPart.3916>
    147c:	8c 0f       	add	r24, r28
    147e:	80 93 2f 39 	sts	0x392F, r24	; 0x80392f <txPart.3916>
            txBuffer[EEreadLength] = 0; //Add string terminator after piece to send to plug memory leak
    1482:	ec 2f       	mov	r30, r28
    1484:	f0 e0       	ldi	r31, 0x00	; 0
    1486:	ef 5c       	subi	r30, 0xCF	; 207
    1488:	f4 4c       	sbci	r31, 0xC4	; 196
    148a:	10 82       	st	Z, r1
            if ((txBuffer[0] == 0) && (EEreadLength)) txBuffer[0] = 0xDB; //Block character when data wrong.
    148c:	80 91 31 3b 	lds	r24, 0x3B31	; 0x803b31 <txBuffer>
    1490:	81 11       	cpse	r24, r1
    1492:	05 c0       	rjmp	.+10     	; 0x149e <CheckSend+0x90>
    1494:	cc 23       	and	r28, r28
    1496:	19 f0       	breq	.+6      	; 0x149e <CheckSend+0x90>
    1498:	8b ed       	ldi	r24, 0xDB	; 219
    149a:	80 93 31 3b 	sts	0x3B31, r24	; 0x803b31 <txBuffer>
            SerSend(&txBuffer[0]);
    149e:	81 e3       	ldi	r24, 0x31	; 49
    14a0:	9b e3       	ldi	r25, 0x3B	; 59
    14a2:	a3 da       	rcall	.-2746   	; 0x9ea <SerSend>
        } else {
            txPart = 0;
            ++txAddrNow;
        }
    } else if (serTxDone) return 0; //All is sent!
    return 1; //Still sending, do not change the data in the tx variables
    14a4:	81 e0       	ldi	r24, 0x01	; 1
    14a6:	0e c0       	rjmp	.+28     	; 0x14c4 <CheckSend+0xb6>
            txPart += EEreadLength;
            txBuffer[EEreadLength] = 0; //Add string terminator after piece to send to plug memory leak
            if ((txBuffer[0] == 0) && (EEreadLength)) txBuffer[0] = 0xDB; //Block character when data wrong.
            SerSend(&txBuffer[0]);
        } else {
            txPart = 0;
    14a8:	10 92 2f 39 	sts	0x392F, r1	; 0x80392f <txPart.3916>
            ++txAddrNow;
    14ac:	8f 5f       	subi	r24, 0xFF	; 255
    14ae:	80 93 6b 3a 	sts	0x3A6B, r24	; 0x803a6b <txAddrNow>
        }
    } else if (serTxDone) return 0; //All is sent!
    return 1; //Still sending, do not change the data in the tx variables
    14b2:	81 e0       	ldi	r24, 0x01	; 1
    14b4:	07 c0       	rjmp	.+14     	; 0x14c4 <CheckSend+0xb6>
            SerSend(&txBuffer[0]);
        } else {
            txPart = 0;
            ++txAddrNow;
        }
    } else if (serTxDone) return 0; //All is sent!
    14b6:	80 91 04 38 	lds	r24, 0x3804	; 0x803804 <serTxDone>
    14ba:	88 23       	and	r24, r24
    14bc:	11 f0       	breq	.+4      	; 0x14c2 <CheckSend+0xb4>
    14be:	80 e0       	ldi	r24, 0x00	; 0
    14c0:	01 c0       	rjmp	.+2      	; 0x14c4 <CheckSend+0xb6>
    return 1; //Still sending, do not change the data in the tx variables
    14c2:	81 e0       	ldi	r24, 0x01	; 1
}
    14c4:	cf 91       	pop	r28
    14c6:	08 95       	ret

000014c8 <CheckResponse>:

//Send another part of the response and play the effect afterwards
uint8_t CheckResponse(){
    static uint8_t number = 0;
    if (responseList){
    14c8:	80 91 41 39 	lds	r24, 0x3941	; 0x803941 <responseList>
    14cc:	88 23       	and	r24, r24
    14ce:	09 f4       	brne	.+2      	; 0x14d2 <CheckResponse+0xa>
    14d0:	42 c0       	rjmp	.+132    	; 0x1556 <CheckResponse+0x8e>
        --responseList;
    14d2:	81 50       	subi	r24, 0x01	; 1
    14d4:	80 93 41 39 	sts	0x3941, r24	; 0x803941 <responseList>
        if (reactStr[0][number] == CURR_LOC) {
    14d8:	20 91 2e 39 	lds	r18, 0x392E	; 0x80392e <number.3920>
    14dc:	30 e0       	ldi	r19, 0x00	; 0
    14de:	f9 01       	movw	r30, r18
    14e0:	ee 0f       	add	r30, r30
    14e2:	ff 1f       	adc	r31, r31
    14e4:	ee 5b       	subi	r30, 0xBE	; 190
    14e6:	f6 4c       	sbci	r31, 0xC6	; 198
    14e8:	80 81       	ld	r24, Z
    14ea:	91 81       	ldd	r25, Z+1	; 0x01
    14ec:	80 3f       	cpi	r24, 0xF0	; 240
    14ee:	4f ef       	ldi	r20, 0xFF	; 255
    14f0:	94 07       	cpc	r25, r20
    14f2:	49 f4       	brne	.+18     	; 0x1506 <CheckResponse+0x3e>
            PrepareSending(currObj.addrStr[NAME], currObj.lenStr[NAME], GAME);
    14f4:	e2 e4       	ldi	r30, 0x42	; 66
    14f6:	fa e3       	ldi	r31, 0x3A	; 58
    14f8:	62 8d       	ldd	r22, Z+26	; 0x1a
    14fa:	73 8d       	ldd	r23, Z+27	; 0x1b
    14fc:	40 e0       	ldi	r20, 0x00	; 0
    14fe:	84 85       	ldd	r24, Z+12	; 0x0c
    1500:	95 85       	ldd	r25, Z+13	; 0x0d
    1502:	43 dd       	rcall	.-1402   	; 0xf8a <PrepareSending>
    1504:	11 c0       	rjmp	.+34     	; 0x1528 <CheckResponse+0x60>
        } else {
            PrepareSending(reactStr[0][number], reactStr[1][number], reactStr[2][number]);
    1506:	f9 01       	movw	r30, r18
    1508:	e0 5c       	subi	r30, 0xC0	; 192
    150a:	ff 4f       	sbci	r31, 0xFF	; 255
    150c:	ee 0f       	add	r30, r30
    150e:	ff 1f       	adc	r31, r31
    1510:	ee 5b       	subi	r30, 0xBE	; 190
    1512:	f6 4c       	sbci	r31, 0xC6	; 198
    1514:	40 81       	ld	r20, Z
    1516:	f9 01       	movw	r30, r18
    1518:	b0 96       	adiw	r30, 0x20	; 32
    151a:	ee 0f       	add	r30, r30
    151c:	ff 1f       	adc	r31, r31
    151e:	ee 5b       	subi	r30, 0xBE	; 190
    1520:	f6 4c       	sbci	r31, 0xC6	; 198
    1522:	60 81       	ld	r22, Z
    1524:	71 81       	ldd	r23, Z+1	; 0x01
    1526:	31 dd       	rcall	.-1438   	; 0xf8a <PrepareSending>
        }
        ++number;
    1528:	80 91 2e 39 	lds	r24, 0x392E	; 0x80392e <number.3920>
    152c:	8f 5f       	subi	r24, 0xFF	; 255
    152e:	80 93 2e 39 	sts	0x392E, r24	; 0x80392e <number.3920>

        if (responseList == 0) {
    1532:	80 91 41 39 	lds	r24, 0x3941	; 0x803941 <responseList>
    1536:	81 11       	cpse	r24, r1
    1538:	0d c0       	rjmp	.+26     	; 0x1554 <CheckResponse+0x8c>
            effect = currObj.byteField[EFFECTS];
    153a:	20 91 46 3a 	lds	r18, 0x3A46	; 0x803a46 <currObj+0x4>
    153e:	30 e0       	ldi	r19, 0x00	; 0
    1540:	20 93 93 38 	sts	0x3893, r18	; 0x803893 <effect>
    1544:	30 93 94 38 	sts	0x3894, r19	; 0x803894 <effect+0x1>
            RXCNT = 0;
    1548:	1d ba       	out	0x1d, r1	; 29
            serRxDone = 0;
    154a:	10 92 9c 38 	sts	0x389C, r1	; 0x80389c <serRxDone>
            number = 0;
    154e:	10 92 2e 39 	sts	0x392E, r1	; 0x80392e <number.3920>
            return 0;
    1552:	08 95       	ret
        }
        return 1;
    1554:	81 e0       	ldi	r24, 0x01	; 1
    }
    return 0;
}
    1556:	08 95       	ret

00001558 <CheckInput>:

//User input check (and validation)
uint8_t CheckInput(uint8_t *data){
    1558:	ef 92       	push	r14
    155a:	ff 92       	push	r15
    155c:	0f 93       	push	r16
    155e:	1f 93       	push	r17
    1560:	cf 93       	push	r28
    1562:	df 93       	push	r29
    1564:	cd b7       	in	r28, 0x3d	; 61
    1566:	de b7       	in	r29, 0x3e	; 62
    1568:	2a 97       	sbiw	r28, 0x0a	; 10
    156a:	cd bf       	out	0x3d, r28	; 61
    156c:	de bf       	out	0x3e, r29	; 62
    156e:	8c 01       	movw	r16, r24
    
    //Load game data after reboot
    if (currDepth == 0xff) {
    1570:	80 91 8f 38 	lds	r24, 0x388F	; 0x80388f <currDepth>
    1574:	8f 3f       	cpi	r24, 0xFF	; 255
    1576:	09 f0       	breq	.+2      	; 0x157a <CheckInput+0x22>
    1578:	58 c0       	rjmp	.+176    	; 0x162a <CheckInput+0xd2>
        //Load things from EEPROM
        EERead(0, &gameState[0], BOOTCHK);   //Load game status bits from EEPROM
    157a:	44 e1       	ldi	r20, 0x14	; 20
    157c:	66 e8       	ldi	r22, 0x86	; 134
    157e:	7a e3       	ldi	r23, 0x3A	; 58
    1580:	80 e0       	ldi	r24, 0x00	; 0
    1582:	f5 d9       	rcall	.-3094   	; 0x96e <EERead>

        uint8_t idSet = 0;
        for (uint8_t x=0; x<4; ++x){
    1584:	f1 2c       	mov	r15, r1
    //Load game data after reboot
    if (currDepth == 0xff) {
        //Load things from EEPROM
        EERead(0, &gameState[0], BOOTCHK);   //Load game status bits from EEPROM

        uint8_t idSet = 0;
    1586:	e1 2c       	mov	r14, r1
        for (uint8_t x=0; x<4; ++x){
    1588:	05 c0       	rjmp	.+10     	; 0x1594 <CheckInput+0x3c>
            idSet += ReadStatusBit(110+x);
    158a:	8e e6       	ldi	r24, 0x6E	; 110
    158c:	8f 0d       	add	r24, r15
    158e:	8d db       	rcall	.-2278   	; 0xcaa <ReadStatusBit>
    1590:	e8 0e       	add	r14, r24
    if (currDepth == 0xff) {
        //Load things from EEPROM
        EERead(0, &gameState[0], BOOTCHK);   //Load game status bits from EEPROM

        uint8_t idSet = 0;
        for (uint8_t x=0; x<4; ++x){
    1592:	f3 94       	inc	r15
    1594:	83 e0       	ldi	r24, 0x03	; 3
    1596:	8f 15       	cp	r24, r15
    1598:	c0 f7       	brcc	.-16     	; 0x158a <CheckInput+0x32>
            idSet += ReadStatusBit(110+x);
        }

        //Check if badge is reset (cheated!)
        if (idSet == 0) {
    159a:	e1 10       	cpse	r14, r1
            Reset();
    159c:	02 c0       	rjmp	.+4      	; 0x15a2 <CheckInput+0x4a>
    159e:	d9 db       	rcall	.-2126   	; 0xd52 <Reset>
        } else getID();
    15a0:	01 c0       	rjmp	.+2      	; 0x15a4 <CheckInput+0x4c>
    15a2:	c8 db       	rcall	.-2160   	; 0xd34 <getID>

        inventory[0] = (gameState[INVADDR]<<8|gameState[INVADDR+1]);
    15a4:	e6 e8       	ldi	r30, 0x86	; 134
    15a6:	fa e3       	ldi	r31, 0x3A	; 58
    15a8:	80 89       	ldd	r24, Z+16	; 0x10
    15aa:	90 e0       	ldi	r25, 0x00	; 0
    15ac:	98 2f       	mov	r25, r24
    15ae:	88 27       	eor	r24, r24
    15b0:	21 89       	ldd	r18, Z+17	; 0x11
    15b2:	82 2b       	or	r24, r18
    15b4:	a6 e9       	ldi	r26, 0x96	; 150
    15b6:	b8 e3       	ldi	r27, 0x38	; 56
    15b8:	8d 93       	st	X+, r24
    15ba:	9c 93       	st	X, r25
    15bc:	11 97       	sbiw	r26, 0x01	; 1
        inventory[1] = (gameState[INVADDR+2]<<8|gameState[INVADDR+3]);
    15be:	82 89       	ldd	r24, Z+18	; 0x12
    15c0:	90 e0       	ldi	r25, 0x00	; 0
    15c2:	98 2f       	mov	r25, r24
    15c4:	88 27       	eor	r24, r24
    15c6:	23 89       	ldd	r18, Z+19	; 0x13
    15c8:	82 2b       	or	r24, r18
    15ca:	12 96       	adiw	r26, 0x02	; 2
    15cc:	8d 93       	st	X+, r24
    15ce:	9c 93       	st	X, r25
        SaveGameState();
    15d0:	13 97       	sbiw	r26, 0x03	; 3
    15d2:	00 db       	rcall	.-2560   	; 0xbd4 <SaveGameState>

        //Start at first location
        PopulateObject(route[0], &currObj);
    15d4:	62 e4       	ldi	r22, 0x42	; 66
    15d6:	7a e3       	ldi	r23, 0x3A	; 58
    15d8:	80 91 02 3a 	lds	r24, 0x3A02	; 0x803a02 <route>
    15dc:	90 91 03 3a 	lds	r25, 0x3A03	; 0x803a03 <route+0x1>
    15e0:	8f dd       	rcall	.-1250   	; 0x1100 <PopulateObject>
        currDepth = 0;
    15e2:	10 92 8f 38 	sts	0x388F, r1	; 0x80388f <currDepth>

        //Play an effect if configured
        if ((effect < 0x0100) && (effect ^ currObj.byteField[EFFECTS])){
    15e6:	80 91 93 38 	lds	r24, 0x3893	; 0x803893 <effect>
    15ea:	90 91 94 38 	lds	r25, 0x3894	; 0x803894 <effect+0x1>
    15ee:	8f 3f       	cpi	r24, 0xFF	; 255
    15f0:	91 05       	cpc	r25, r1
    15f2:	09 f0       	breq	.+2      	; 0x15f6 <CheckInput+0x9e>
    15f4:	d0 f4       	brcc	.+52     	; 0x162a <CheckInput+0xd2>
    15f6:	80 91 46 3a 	lds	r24, 0x3A46	; 0x803a46 <currObj+0x4>
    15fa:	90 e0       	ldi	r25, 0x00	; 0
    15fc:	20 91 93 38 	lds	r18, 0x3893	; 0x803893 <effect>
    1600:	30 91 94 38 	lds	r19, 0x3894	; 0x803894 <effect+0x1>
    1604:	82 17       	cp	r24, r18
    1606:	93 07       	cpc	r25, r19
    1608:	81 f0       	breq	.+32     	; 0x162a <CheckInput+0xd2>
            effect = currObj.byteField[EFFECTS];
    160a:	80 93 93 38 	sts	0x3893, r24	; 0x803893 <effect>
    160e:	90 93 94 38 	sts	0x3894, r25	; 0x803894 <effect+0x1>
            auStart = ((effect&0xE0)>0);
    1612:	80 91 93 38 	lds	r24, 0x3893	; 0x803893 <effect>
    1616:	90 91 94 38 	lds	r25, 0x3894	; 0x803894 <effect+0x1>
    161a:	80 7e       	andi	r24, 0xE0	; 224
    161c:	99 27       	eor	r25, r25
    161e:	21 e0       	ldi	r18, 0x01	; 1
    1620:	89 2b       	or	r24, r25
    1622:	09 f4       	brne	.+2      	; 0x1626 <CheckInput+0xce>
    1624:	20 e0       	ldi	r18, 0x00	; 0
    1626:	20 93 92 38 	sts	0x3892, r18	; 0x803892 <auStart>
        }
    }

    if (serRxDone){
    162a:	80 91 9c 38 	lds	r24, 0x389C	; 0x80389c <serRxDone>
    162e:	88 23       	and	r24, r24
    1630:	09 f4       	brne	.+2      	; 0x1634 <CheckInput+0xdc>
    1632:	ff c0       	rjmp	.+510    	; 0x1832 <CheckInput+0x2da>

        //Special input requested from user by game
        if (specialInput[0]){
    1634:	80 91 31 39 	lds	r24, 0x3931	; 0x803931 <specialInput>
    1638:	88 23       	and	r24, r24
    163a:	09 f4       	brne	.+2      	; 0x163e <CheckInput+0xe6>
    163c:	50 c0       	rjmp	.+160    	; 0x16de <CheckInput+0x186>
            specialPassed = 0;
    163e:	10 92 30 39 	sts	0x3930, r1	; 0x803930 <specialPassed>
            data[0] = 'a';
    1642:	81 e6       	ldi	r24, 0x61	; 97
    1644:	f8 01       	movw	r30, r16
            
            //Normal code challenge
            if (StartsWith((uint8_t *)&serRx[0], &specialInput[0])) {
    1646:	80 83       	st	Z, r24
    1648:	61 e3       	ldi	r22, 0x31	; 49
    164a:	79 e3       	ldi	r23, 0x39	; 57
    164c:	8a e9       	ldi	r24, 0x9A	; 154
    164e:	9a e3       	ldi	r25, 0x3A	; 58
    1650:	7c dc       	rcall	.-1800   	; 0xf4a <StartsWith>
    1652:	88 23       	and	r24, r24
    1654:	49 f0       	breq	.+18     	; 0x1668 <CheckInput+0x110>
                specialPassed = 1;
    1656:	81 e0       	ldi	r24, 0x01	; 1
    1658:	80 93 30 39 	sts	0x3930, r24	; 0x803930 <specialPassed>
                specialInput[0] = 0;
    165c:	10 92 31 39 	sts	0x3931, r1	; 0x803931 <specialInput>
                data[1] = 0;
    1660:	f8 01       	movw	r30, r16
    1662:	11 82       	std	Z+1, r1	; 0x01
                    if (serTxDone) SerSend(&cheat[0]);
                }
            }
        } 
        //Data received, but not any of the commands above
        return 0;
    1664:	80 e0       	ldi	r24, 0x00	; 0
    1666:	e6 c0       	rjmp	.+460    	; 0x1834 <CheckInput+0x2dc>
                specialPassed = 1;
                specialInput[0] = 0;
                data[1] = 0;

            //Special challenge 1
            } else if ((specialInput[0] == '1')&&(specialInput[1] == '\0')) {
    1668:	90 91 31 39 	lds	r25, 0x3931	; 0x803931 <specialInput>
    166c:	91 33       	cpi	r25, 0x31	; 49
    166e:	29 f4       	brne	.+10     	; 0x167a <CheckInput+0x122>
    1670:	90 91 32 39 	lds	r25, 0x3932	; 0x803932 <specialInput+0x1>
    1674:	99 23       	and	r25, r25
    1676:	09 f4       	brne	.+2      	; 0x167a <CheckInput+0x122>
    1678:	dd c0       	rjmp	.+442    	; 0x1834 <CheckInput+0x2dc>
            
            //Wrong answer
            } else {
                specialInput[0] = 0;
    167a:	10 92 31 39 	sts	0x3931, r1	; 0x803931 <specialInput>
                data[1] = 0;
    167e:	f8 01       	movw	r30, r16
    1680:	11 82       	std	Z+1, r1	; 0x01
    1682:	d8 c0       	rjmp	.+432    	; 0x1834 <CheckInput+0x2dc>
        
        //Normal input
        } else {
            //Read up to the \0 character and convert to lower case.
            for (uint8_t x=0; x<RXLEN; ++x){
                if ((serRx[x]<'A')||(serRx[x]>'Z')) data[x]=serRx[x]; else data[x]=serRx[x]|0x20;
    1684:	28 2f       	mov	r18, r24
    1686:	30 e0       	ldi	r19, 0x00	; 0
    1688:	f9 01       	movw	r30, r18
    168a:	e6 56       	subi	r30, 0x66	; 102
    168c:	f5 4c       	sbci	r31, 0xC5	; 197
    168e:	90 81       	ld	r25, Z
    1690:	91 34       	cpi	r25, 0x41	; 65
    1692:	30 f0       	brcs	.+12     	; 0x16a0 <CheckInput+0x148>
    1694:	f9 01       	movw	r30, r18
    1696:	e6 56       	subi	r30, 0x66	; 102
    1698:	f5 4c       	sbci	r31, 0xC5	; 197
    169a:	90 81       	ld	r25, Z
    169c:	9b 35       	cpi	r25, 0x5B	; 91
    169e:	48 f0       	brcs	.+18     	; 0x16b2 <CheckInput+0x15a>
    16a0:	f9 01       	movw	r30, r18
    16a2:	e6 56       	subi	r30, 0x66	; 102
    16a4:	f5 4c       	sbci	r31, 0xC5	; 197
    16a6:	90 81       	ld	r25, Z
    16a8:	f8 01       	movw	r30, r16
    16aa:	e8 0f       	add	r30, r24
    16ac:	f1 1d       	adc	r31, r1
    16ae:	90 83       	st	Z, r25
    16b0:	09 c0       	rjmp	.+18     	; 0x16c4 <CheckInput+0x16c>
    16b2:	f8 01       	movw	r30, r16
    16b4:	e8 0f       	add	r30, r24
    16b6:	f1 1d       	adc	r31, r1
    16b8:	d9 01       	movw	r26, r18
    16ba:	a6 56       	subi	r26, 0x66	; 102
    16bc:	b5 4c       	sbci	r27, 0xC5	; 197
    16be:	9c 91       	ld	r25, X
    16c0:	90 62       	ori	r25, 0x20	; 32
    16c2:	90 83       	st	Z, r25
                if (serRx[x] == 0) {
    16c4:	f9 01       	movw	r30, r18
    16c6:	e6 56       	subi	r30, 0x66	; 102
    16c8:	f5 4c       	sbci	r31, 0xC5	; 197
    16ca:	90 81       	ld	r25, Z
    16cc:	91 11       	cpse	r25, r1
    16ce:	05 c0       	rjmp	.+10     	; 0x16da <CheckInput+0x182>
                    data[x] = 0;
    16d0:	f8 01       	movw	r30, r16
    16d2:	e8 0f       	add	r30, r24
    16d4:	f1 1d       	adc	r31, r1
    16d6:	10 82       	st	Z, r1
                    break;
    16d8:	05 c0       	rjmp	.+10     	; 0x16e4 <CheckInput+0x18c>
            }
        
        //Normal input
        } else {
            //Read up to the \0 character and convert to lower case.
            for (uint8_t x=0; x<RXLEN; ++x){
    16da:	8f 5f       	subi	r24, 0xFF	; 255
    16dc:	01 c0       	rjmp	.+2      	; 0x16e0 <CheckInput+0x188>
    16de:	80 e0       	ldi	r24, 0x00	; 0
    16e0:	81 34       	cpi	r24, 0x41	; 65
    16e2:	80 f2       	brcs	.-96     	; 0x1684 <CheckInput+0x12c>
                    break;
                }
            }

            //No text
            if (serRx[0] == 0){
    16e4:	80 91 9a 3a 	lds	r24, 0x3A9A	; 0x803a9a <serRx>
    16e8:	81 11       	cpse	r24, r1
    16ea:	07 c0       	rjmp	.+14     	; 0x16fa <CheckInput+0x1a2>
                data[0] = 0;
    16ec:	f8 01       	movw	r30, r16
    16ee:	10 82       	st	Z, r1
                RXCNT = 0;
    16f0:	1d ba       	out	0x1d, r1	; 29
                serRxDone = 0;
    16f2:	10 92 9c 38 	sts	0x389C, r1	; 0x80389c <serRxDone>
                return 1;
    16f6:	81 e0       	ldi	r24, 0x01	; 1
    16f8:	9d c0       	rjmp	.+314    	; 0x1834 <CheckInput+0x2dc>
            }

            //Help text
            if ((data[0] == '?')||(data[0] == 'h')){
    16fa:	f8 01       	movw	r30, r16
    16fc:	80 81       	ld	r24, Z
    16fe:	8f 33       	cpi	r24, 0x3F	; 63
    1700:	11 f0       	breq	.+4      	; 0x1706 <CheckInput+0x1ae>
    1702:	88 36       	cpi	r24, 0x68	; 104
                SetResponse(0, A_HELP, L_HELP, TEASER);
    1704:	69 f4       	brne	.+26     	; 0x1720 <CheckInput+0x1c8>
    1706:	21 e0       	ldi	r18, 0x01	; 1
    1708:	4f e4       	ldi	r20, 0x4F	; 79
    170a:	54 e0       	ldi	r21, 0x04	; 4
    170c:	61 eb       	ldi	r22, 0xB1	; 177
    170e:	7b e7       	ldi	r23, 0x7B	; 123
    1710:	80 e0       	ldi	r24, 0x00	; 0
                responseList = SetStandardResponse(1);
    1712:	93 dc       	rcall	.-1754   	; 0x103a <SetResponse>
    1714:	81 e0       	ldi	r24, 0x01	; 1
    1716:	ac dc       	rcall	.-1704   	; 0x1070 <SetStandardResponse>
    1718:	80 93 41 39 	sts	0x3941, r24	; 0x803941 <responseList>
                return 1;
    171c:	81 e0       	ldi	r24, 0x01	; 1
            }        
        
            //Alphabet text
            if (data[0] == 'a'){
    171e:	8a c0       	rjmp	.+276    	; 0x1834 <CheckInput+0x2dc>
                SetResponse(0, A_ALPHABET, L_ALPHABET, TEASER);
    1720:	81 36       	cpi	r24, 0x61	; 97
    1722:	69 f4       	brne	.+26     	; 0x173e <CheckInput+0x1e6>
    1724:	21 e0       	ldi	r18, 0x01	; 1
    1726:	4b e1       	ldi	r20, 0x1B	; 27
    1728:	51 e0       	ldi	r21, 0x01	; 1
    172a:	66 e9       	ldi	r22, 0x96	; 150
    172c:	7a e7       	ldi	r23, 0x7A	; 122
    172e:	80 e0       	ldi	r24, 0x00	; 0
                responseList = SetStandardResponse(1);
    1730:	84 dc       	rcall	.-1784   	; 0x103a <SetResponse>
    1732:	81 e0       	ldi	r24, 0x01	; 1
    1734:	9d dc       	rcall	.-1734   	; 0x1070 <SetStandardResponse>
    1736:	80 93 41 39 	sts	0x3941, r24	; 0x803941 <responseList>
                return 1;
    173a:	81 e0       	ldi	r24, 0x01	; 1
            }

            //Whoami text
            if (data[0] == 'w'){
    173c:	7b c0       	rjmp	.+246    	; 0x1834 <CheckInput+0x2dc>
    173e:	87 37       	cpi	r24, 0x77	; 119
    1740:	09 f0       	breq	.+2      	; 0x1744 <CheckInput+0x1ec>
                SetResponse(0, A_HELLO, L_HELLO, TEASER);
    1742:	44 c0       	rjmp	.+136    	; 0x17cc <CheckInput+0x274>
    1744:	21 e0       	ldi	r18, 0x01	; 1
    1746:	42 e1       	ldi	r20, 0x12	; 18
    1748:	50 e0       	ldi	r21, 0x00	; 0
    174a:	67 ef       	ldi	r22, 0xF7	; 247
    174c:	76 e7       	ldi	r23, 0x76	; 118
    174e:	80 e0       	ldi	r24, 0x00	; 0
                if (whoami == 1) {
    1750:	74 dc       	rcall	.-1816   	; 0x103a <SetResponse>
    1752:	80 91 95 38 	lds	r24, 0x3895	; 0x803895 <whoami>
    1756:	81 30       	cpi	r24, 0x01	; 1
                    SetResponse(1, A_ANUBIS, L_ANUBIS, TEASER);
    1758:	39 f4       	brne	.+14     	; 0x1768 <CheckInput+0x210>
    175a:	21 e0       	ldi	r18, 0x01	; 1
    175c:	46 e0       	ldi	r20, 0x06	; 6
    175e:	50 e0       	ldi	r21, 0x00	; 0
    1760:	61 ef       	ldi	r22, 0xF1	; 241
    1762:	76 e7       	ldi	r23, 0x76	; 118
    1764:	6a dc       	rcall	.-1836   	; 0x103a <SetResponse>
                } else if (whoami == 2) {
    1766:	25 c0       	rjmp	.+74     	; 0x17b2 <CheckInput+0x25a>
    1768:	82 30       	cpi	r24, 0x02	; 2
                    SetResponse(1, A_BES, L_BES, TEASER);
    176a:	41 f4       	brne	.+16     	; 0x177c <CheckInput+0x224>
    176c:	21 e0       	ldi	r18, 0x01	; 1
    176e:	43 e0       	ldi	r20, 0x03	; 3
    1770:	50 e0       	ldi	r21, 0x00	; 0
    1772:	6e ee       	ldi	r22, 0xEE	; 238
    1774:	76 e7       	ldi	r23, 0x76	; 118
    1776:	81 e0       	ldi	r24, 0x01	; 1
    1778:	60 dc       	rcall	.-1856   	; 0x103a <SetResponse>
                } else if (whoami == 3) {
    177a:	1b c0       	rjmp	.+54     	; 0x17b2 <CheckInput+0x25a>
    177c:	83 30       	cpi	r24, 0x03	; 3
                    SetResponse(1, A_KHONSU, L_KHONSU, TEASER);
    177e:	41 f4       	brne	.+16     	; 0x1790 <CheckInput+0x238>
    1780:	21 e0       	ldi	r18, 0x01	; 1
    1782:	46 e0       	ldi	r20, 0x06	; 6
    1784:	50 e0       	ldi	r21, 0x00	; 0
    1786:	68 ee       	ldi	r22, 0xE8	; 232
    1788:	76 e7       	ldi	r23, 0x76	; 118
    178a:	81 e0       	ldi	r24, 0x01	; 1
    178c:	56 dc       	rcall	.-1876   	; 0x103a <SetResponse>
                } else if (whoami == 4) {
    178e:	11 c0       	rjmp	.+34     	; 0x17b2 <CheckInput+0x25a>
                    SetResponse(1, A_THOTH, L_THOTH, TEASER);
    1790:	84 30       	cpi	r24, 0x04	; 4
    1792:	41 f4       	brne	.+16     	; 0x17a4 <CheckInput+0x24c>
    1794:	21 e0       	ldi	r18, 0x01	; 1
    1796:	45 e0       	ldi	r20, 0x05	; 5
    1798:	50 e0       	ldi	r21, 0x00	; 0
    179a:	63 ee       	ldi	r22, 0xE3	; 227
    179c:	76 e7       	ldi	r23, 0x76	; 118
    179e:	81 e0       	ldi	r24, 0x01	; 1
                } else {
                    SetResponse(1, A_ERROR, L_ERROR, TEASER);
    17a0:	4c dc       	rcall	.-1896   	; 0x103a <SetResponse>
    17a2:	07 c0       	rjmp	.+14     	; 0x17b2 <CheckInput+0x25a>
    17a4:	21 e0       	ldi	r18, 0x01	; 1
    17a6:	42 e4       	ldi	r20, 0x42	; 66
    17a8:	50 e0       	ldi	r21, 0x00	; 0
    17aa:	6c e6       	ldi	r22, 0x6C	; 108
    17ac:	76 e7       	ldi	r23, 0x76	; 118
    17ae:	81 e0       	ldi	r24, 0x01	; 1
                }
                SetResponse(2, A_PLEASED, L_PLEASED, TEASER);
    17b0:	44 dc       	rcall	.-1912   	; 0x103a <SetResponse>
    17b2:	21 e0       	ldi	r18, 0x01	; 1
    17b4:	4a e1       	ldi	r20, 0x1A	; 26
    17b6:	50 e0       	ldi	r21, 0x00	; 0
    17b8:	69 ec       	ldi	r22, 0xC9	; 201
    17ba:	76 e7       	ldi	r23, 0x76	; 118
                responseList = SetStandardResponse(3);
    17bc:	82 e0       	ldi	r24, 0x02	; 2
    17be:	3d dc       	rcall	.-1926   	; 0x103a <SetResponse>
    17c0:	83 e0       	ldi	r24, 0x03	; 3
    17c2:	56 dc       	rcall	.-1876   	; 0x1070 <SetStandardResponse>
    17c4:	80 93 41 39 	sts	0x3941, r24	; 0x803941 <responseList>
                return 1;
            }

            //Quit text
            if (data[0] == 'q'){
    17c8:	81 e0       	ldi	r24, 0x01	; 1
    17ca:	34 c0       	rjmp	.+104    	; 0x1834 <CheckInput+0x2dc>
                SetResponse(0, A_QUIT, L_QUIT, TEASER);
    17cc:	81 37       	cpi	r24, 0x71	; 113
    17ce:	69 f4       	brne	.+26     	; 0x17ea <CheckInput+0x292>
    17d0:	21 e0       	ldi	r18, 0x01	; 1
    17d2:	44 e5       	ldi	r20, 0x54	; 84
    17d4:	50 e0       	ldi	r21, 0x00	; 0
    17d6:	6e e2       	ldi	r22, 0x2E	; 46
    17d8:	7a e7       	ldi	r23, 0x7A	; 122
                responseList = SetStandardResponse(1);
    17da:	80 e0       	ldi	r24, 0x00	; 0
    17dc:	2e dc       	rcall	.-1956   	; 0x103a <SetResponse>
    17de:	81 e0       	ldi	r24, 0x01	; 1
    17e0:	47 dc       	rcall	.-1906   	; 0x1070 <SetStandardResponse>
                return 1;
    17e2:	80 93 41 39 	sts	0x3941, r24	; 0x803941 <responseList>
            }

            //Cheat = reset badge!
            if (StartsWith(&data[0], "iddqd")){
    17e6:	81 e0       	ldi	r24, 0x01	; 1
    17e8:	25 c0       	rjmp	.+74     	; 0x1834 <CheckInput+0x2dc>
    17ea:	64 e0       	ldi	r22, 0x04	; 4
    17ec:	75 ea       	ldi	r23, 0xA5	; 165
    17ee:	c8 01       	movw	r24, r16
    17f0:	ac db       	rcall	.-2216   	; 0xf4a <StartsWith>
    17f2:	81 11       	cpse	r24, r1
            
                //Reset game data by wiping the UUID bits
                for (uint8_t x=0; x<4; ++x){
                    WriteStatusBit(110+x, 0);
    17f4:	07 c0       	rjmp	.+14     	; 0x1804 <CheckInput+0x2ac>
    17f6:	1e c0       	rjmp	.+60     	; 0x1834 <CheckInput+0x2dc>
    17f8:	60 e0       	ldi	r22, 0x00	; 0
    17fa:	8e e6       	ldi	r24, 0x6E	; 110
    17fc:	81 0f       	add	r24, r17

            //Cheat = reset badge!
            if (StartsWith(&data[0], "iddqd")){
            
                //Reset game data by wiping the UUID bits
                for (uint8_t x=0; x<4; ++x){
    17fe:	6d da       	rcall	.-2854   	; 0xcda <WriteStatusBit>
    1800:	1f 5f       	subi	r17, 0xFF	; 255
    1802:	01 c0       	rjmp	.+2      	; 0x1806 <CheckInput+0x2ae>
    1804:	10 e0       	ldi	r17, 0x00	; 0
                    WriteStatusBit(110+x, 0);
                }
                SaveGameState();
    1806:	14 30       	cpi	r17, 0x04	; 4
    1808:	b8 f3       	brcs	.-18     	; 0x17f8 <CheckInput+0x2a0>

                uint8_t cheat[] = "Cheater! ";
    180a:	e4 d9       	rcall	.-3128   	; 0xbd4 <SaveGameState>
    180c:	8a e0       	ldi	r24, 0x0A	; 10
    180e:	ea e0       	ldi	r30, 0x0A	; 10
    1810:	f5 ea       	ldi	r31, 0xA5	; 165
    1812:	de 01       	movw	r26, r28
    1814:	11 96       	adiw	r26, 0x01	; 1
    1816:	01 90       	ld	r0, Z+
    1818:	0d 92       	st	X+, r0
    181a:	8a 95       	dec	r24
                SerSpeed(60);
    181c:	e1 f7       	brne	.-8      	; 0x1816 <CheckInput+0x2be>
    181e:	8c e3       	ldi	r24, 0x3C	; 60
    1820:	f6 d8       	rcall	.-3604   	; 0xa0e <SerSpeed>
                while(1){
                    if (serTxDone) SerSend(&cheat[0]);
    1822:	80 91 04 38 	lds	r24, 0x3804	; 0x803804 <serTxDone>
    1826:	88 23       	and	r24, r24
    1828:	e1 f3       	breq	.-8      	; 0x1822 <CheckInput+0x2ca>
    182a:	ce 01       	movw	r24, r28
    182c:	01 96       	adiw	r24, 0x01	; 1
    182e:	dd d8       	rcall	.-3654   	; 0x9ea <SerSend>
    1830:	f8 cf       	rjmp	.-16     	; 0x1822 <CheckInput+0x2ca>
    1832:	81 e0       	ldi	r24, 0x01	; 1
        //Data received, but not any of the commands above
        return 0;
    }

    //Serial input not available yet
    return 1;
    1834:	2a 96       	adiw	r28, 0x0a	; 10
}
    1836:	cd bf       	out	0x3d, r28	; 61
    1838:	de bf       	out	0x3e, r29	; 62
    183a:	df 91       	pop	r29
    183c:	cf 91       	pop	r28
    183e:	1f 91       	pop	r17
    1840:	0f 91       	pop	r16
    1842:	ff 90       	pop	r15
    1844:	ef 90       	pop	r14
    1846:	08 95       	ret

00001848 <ProcessInput>:
    1848:	df 92       	push	r13

//The game logic!
uint8_t ProcessInput(uint8_t *data){
    184a:	ef 92       	push	r14
    184c:	ff 92       	push	r15
    184e:	0f 93       	push	r16
    1850:	1f 93       	push	r17
    1852:	cf 93       	push	r28
    1854:	df 93       	push	r29
    1856:	ec 01       	movw	r28, r24
    static object_model_t actObj1, actObj2;
    uint8_t elements = 0;

    CleanInput(&data[0]);
    1858:	b9 dd       	rcall	.-1166   	; 0x13cc <CleanInput>
    uint8_t inputLen = CleanInput(&data[0]);
    185a:	ce 01       	movw	r24, r28
    185c:	b7 dd       	rcall	.-1170   	; 0x13cc <CleanInput>
    185e:	18 2f       	mov	r17, r24

    if (inputLen) {
    1860:	88 23       	and	r24, r24
    1862:	09 f4       	brne	.+2      	; 0x1866 <ProcessInput+0x1e>
    1864:	4a c5       	rjmp	.+2708   	; 0x22fa <ProcessInput+0xab2>

        //eXit to previous location
        if (data[0] == 'x'){
    1866:	88 81       	ld	r24, Y
    1868:	88 37       	cpi	r24, 0x78	; 120
    186a:	c1 f5       	brne	.+112    	; 0x18dc <ProcessInput+0x94>

            //Standing in the Lobby?
            if ((route[currDepth] == 0)||(currDepth == 0)){
    186c:	80 91 8f 38 	lds	r24, 0x388F	; 0x80388f <currDepth>
    1870:	e8 2f       	mov	r30, r24
    1872:	f0 e0       	ldi	r31, 0x00	; 0
    1874:	ee 0f       	add	r30, r30
    1876:	ff 1f       	adc	r31, r31
    1878:	ee 5f       	subi	r30, 0xFE	; 254
    187a:	f5 4c       	sbci	r31, 0xC5	; 197
    187c:	20 81       	ld	r18, Z
    187e:	31 81       	ldd	r19, Z+1	; 0x01
    1880:	23 2b       	or	r18, r19
    1882:	11 f0       	breq	.+4      	; 0x1888 <ProcessInput+0x40>
    1884:	81 11       	cpse	r24, r1
    1886:	09 c0       	rjmp	.+18     	; 0x189a <ProcessInput+0x52>
                SetResponse(elements++, A_NOTPOSSIBLE, L_NOTPOSSIBLE, TEASER);
    1888:	21 e0       	ldi	r18, 0x01	; 1
    188a:	4b e1       	ldi	r20, 0x1B	; 27
    188c:	50 e0       	ldi	r21, 0x00	; 0
    188e:	6e ea       	ldi	r22, 0xAE	; 174
    1890:	76 e7       	ldi	r23, 0x76	; 118
    1892:	80 e0       	ldi	r24, 0x00	; 0
    1894:	d2 db       	rcall	.-2140   	; 0x103a <SetResponse>
    1896:	01 e0       	ldi	r16, 0x01	; 1
    1898:	20 c5       	rjmp	.+2624   	; 0x22da <ProcessInput+0xa92>
            
            //Is there a way to go back?
            } else if (CheckState(currObj.byteField[OPEN_ACL])){
    189a:	80 91 48 3a 	lds	r24, 0x3A48	; 0x803a48 <currObj+0x6>
    189e:	b6 dc       	rcall	.-1684   	; 0x120c <CheckState>
    18a0:	88 23       	and	r24, r24
    18a2:	89 f0       	breq	.+34     	; 0x18c6 <ProcessInput+0x7e>
    18a4:	e0 91 8f 38 	lds	r30, 0x388F	; 0x80388f <currDepth>
                --currDepth;
    18a8:	e1 50       	subi	r30, 0x01	; 1
    18aa:	e0 93 8f 38 	sts	0x388F, r30	; 0x80388f <currDepth>
    18ae:	f0 e0       	ldi	r31, 0x00	; 0
                PopulateObject(route[currDepth], &currObj);
    18b0:	ee 0f       	add	r30, r30
    18b2:	ff 1f       	adc	r31, r31
    18b4:	ee 5f       	subi	r30, 0xFE	; 254
    18b6:	f5 4c       	sbci	r31, 0xC5	; 197
    18b8:	62 e4       	ldi	r22, 0x42	; 66
    18ba:	7a e3       	ldi	r23, 0x3A	; 58
    18bc:	80 81       	ld	r24, Z
    18be:	91 81       	ldd	r25, Z+1	; 0x01
    18c0:	1f dc       	rcall	.-1986   	; 0x1100 <PopulateObject>
    18c2:	00 e0       	ldi	r16, 0x00	; 0
}

//The game logic!
uint8_t ProcessInput(uint8_t *data){
    static object_model_t actObj1, actObj2;
    uint8_t elements = 0;
    18c4:	0a c5       	rjmp	.+2580   	; 0x22da <ProcessInput+0xa92>
    18c6:	e2 e4       	ldi	r30, 0x42	; 66
                --currDepth;
                PopulateObject(route[currDepth], &currObj);
            
            //No way out, print denied message of location
            } else {
                SetResponse(elements++, currObj.addrStr[OPEN_ACL_MSG], currObj.lenStr[OPEN_ACL_MSG], GAME);               
    18c8:	fa e3       	ldi	r31, 0x3A	; 58
    18ca:	42 a1       	ldd	r20, Z+34	; 0x22
    18cc:	53 a1       	ldd	r21, Z+35	; 0x23
    18ce:	64 89       	ldd	r22, Z+20	; 0x14
    18d0:	75 89       	ldd	r23, Z+21	; 0x15
    18d2:	20 e0       	ldi	r18, 0x00	; 0
    18d4:	80 e0       	ldi	r24, 0x00	; 0
    18d6:	b1 db       	rcall	.-2206   	; 0x103a <SetResponse>
    18d8:	01 e0       	ldi	r16, 0x01	; 1
    18da:	ff c4       	rjmp	.+2558   	; 0x22da <ProcessInput+0xa92>
    18dc:	85 36       	cpi	r24, 0x65	; 101
            }   
        
        //Enter locations or Open objects    
        } else if ((data[0] == 'e')||(data[0] == 'o')) {
    18de:	19 f0       	breq	.+6      	; 0x18e6 <ProcessInput+0x9e>
    18e0:	8f 36       	cpi	r24, 0x6F	; 111
    18e2:	09 f0       	breq	.+2      	; 0x18e6 <ProcessInput+0x9e>
    18e4:	bf c0       	rjmp	.+382    	; 0x1a64 <ProcessInput+0x21c>
    18e6:	12 30       	cpi	r17, 0x02	; 2
                
            //Not possible, too many/little characters
            if (inputLen != 2){
    18e8:	49 f0       	breq	.+18     	; 0x18fc <ProcessInput+0xb4>
    18ea:	21 e0       	ldi	r18, 0x01	; 1
                SetResponse(elements++, A_NOTPOSSIBLE, L_NOTPOSSIBLE, TEASER);
    18ec:	4b e1       	ldi	r20, 0x1B	; 27
    18ee:	50 e0       	ldi	r21, 0x00	; 0
    18f0:	6e ea       	ldi	r22, 0xAE	; 174
    18f2:	76 e7       	ldi	r23, 0x76	; 118
    18f4:	80 e0       	ldi	r24, 0x00	; 0
    18f6:	a1 db       	rcall	.-2238   	; 0x103a <SetResponse>
    18f8:	01 e0       	ldi	r16, 0x01	; 1
    18fa:	ef c4       	rjmp	.+2526   	; 0x22da <ProcessInput+0xa92>
    18fc:	80 91 8f 38 	lds	r24, 0x388F	; 0x80388f <currDepth>
            } else {
                uint8_t canDo = 0;
                route[currDepth+1] = FindChild(route[currDepth], data[1], 0);
    1900:	90 e0       	ldi	r25, 0x00	; 0
    1902:	8c 01       	movw	r16, r24
    1904:	0f 5f       	subi	r16, 0xFF	; 255
    1906:	1f 4f       	sbci	r17, 0xFF	; 255
    1908:	88 0f       	add	r24, r24
    190a:	99 1f       	adc	r25, r25
    190c:	fc 01       	movw	r30, r24
    190e:	ee 5f       	subi	r30, 0xFE	; 254
    1910:	f5 4c       	sbci	r31, 0xC5	; 197
    1912:	40 e0       	ldi	r20, 0x00	; 0
    1914:	50 e0       	ldi	r21, 0x00	; 0
    1916:	69 81       	ldd	r22, Y+1	; 0x01
    1918:	80 81       	ld	r24, Z
    191a:	91 81       	ldd	r25, Z+1	; 0x01
    191c:	e9 dc       	rcall	.-1582   	; 0x12f0 <FindChild>
    191e:	00 0f       	add	r16, r16
    1920:	11 1f       	adc	r17, r17
    1922:	f8 01       	movw	r30, r16
    1924:	ee 5f       	subi	r30, 0xFE	; 254
    1926:	f5 4c       	sbci	r31, 0xC5	; 197
    1928:	80 83       	st	Z, r24
    192a:	91 83       	std	Z+1, r25	; 0x01
    192c:	90 91 8f 38 	lds	r25, 0x388F	; 0x80388f <currDepth>
                    
                //Child found?
                if (route[currDepth+1]) {
    1930:	29 2f       	mov	r18, r25
    1932:	30 e0       	ldi	r19, 0x00	; 0
    1934:	f9 01       	movw	r30, r18
    1936:	31 96       	adiw	r30, 0x01	; 1
    1938:	ee 0f       	add	r30, r30
    193a:	ff 1f       	adc	r31, r31
    193c:	ee 5f       	subi	r30, 0xFE	; 254
    193e:	f5 4c       	sbci	r31, 0xC5	; 197
    1940:	40 81       	ld	r20, Z
    1942:	51 81       	ldd	r21, Z+1	; 0x01
    1944:	41 15       	cp	r20, r1
    1946:	51 05       	cpc	r21, r1
    1948:	31 f0       	breq	.+12     	; 0x1956 <ProcessInput+0x10e>
                    PopulateObject(route[currDepth+1], &actObj1);
    194a:	66 e0       	ldi	r22, 0x06	; 6
    194c:	79 e3       	ldi	r23, 0x39	; 57
    194e:	ca 01       	movw	r24, r20
    1950:	d7 db       	rcall	.-2130   	; 0x1100 <PopulateObject>
    1952:	81 e0       	ldi	r24, 0x01	; 1
                    canDo = 1;
    1954:	20 c0       	rjmp	.+64     	; 0x1996 <ProcessInput+0x14e>
    1956:	99 23       	and	r25, r25
                //No child, maybe a step back, letter ok?
                } else if (currDepth) {
    1958:	d9 f0       	breq	.+54     	; 0x1990 <ProcessInput+0x148>
    195a:	f9 01       	movw	r30, r18
                    if (CheckLetter(route[currDepth-1], data[1])) {
    195c:	31 97       	sbiw	r30, 0x01	; 1
    195e:	ee 0f       	add	r30, r30
    1960:	ff 1f       	adc	r31, r31
    1962:	ee 5f       	subi	r30, 0xFE	; 254
    1964:	f5 4c       	sbci	r31, 0xC5	; 197
    1966:	69 81       	ldd	r22, Y+1	; 0x01
    1968:	80 81       	ld	r24, Z
    196a:	91 81       	ldd	r25, Z+1	; 0x01
    196c:	66 dc       	rcall	.-1844   	; 0x123a <CheckLetter>
    196e:	88 23       	and	r24, r24
    1970:	89 f0       	breq	.+34     	; 0x1994 <ProcessInput+0x14c>
    1972:	e0 91 8f 38 	lds	r30, 0x388F	; 0x80388f <currDepth>
                        PopulateObject(route[currDepth-1], &actObj1);
    1976:	f0 e0       	ldi	r31, 0x00	; 0
    1978:	31 97       	sbiw	r30, 0x01	; 1
    197a:	ee 0f       	add	r30, r30
    197c:	ff 1f       	adc	r31, r31
    197e:	ee 5f       	subi	r30, 0xFE	; 254
    1980:	f5 4c       	sbci	r31, 0xC5	; 197
    1982:	66 e0       	ldi	r22, 0x06	; 6
    1984:	79 e3       	ldi	r23, 0x39	; 57
    1986:	80 81       	ld	r24, Z
    1988:	91 81       	ldd	r25, Z+1	; 0x01
    198a:	ba db       	rcall	.-2188   	; 0x1100 <PopulateObject>
    198c:	81 e0       	ldi	r24, 0x01	; 1
                        canDo = 1; 
    198e:	03 c0       	rjmp	.+6      	; 0x1996 <ProcessInput+0x14e>
    1990:	80 e0       	ldi	r24, 0x00	; 0
                
            //Not possible, too many/little characters
            if (inputLen != 2){
                SetResponse(elements++, A_NOTPOSSIBLE, L_NOTPOSSIBLE, TEASER);
            } else {
                uint8_t canDo = 0;
    1992:	01 c0       	rjmp	.+2      	; 0x1996 <ProcessInput+0x14e>
    1994:	80 e0       	ldi	r24, 0x00	; 0
    1996:	88 23       	and	r24, r24
                        canDo = 1; 
                    }
                }

                //The candidate is found! Let's check if the action is legit
                if (canDo) {
    1998:	09 f4       	brne	.+2      	; 0x199c <ProcessInput+0x154>
    199a:	5b c0       	rjmp	.+182    	; 0x1a52 <ProcessInput+0x20a>
    199c:	88 81       	ld	r24, Y
                    if ((data[0] == 'e') && ((actObj1.byteField[ACTION_MASK]&ENTER)==0)) {
    199e:	85 36       	cpi	r24, 0x65	; 101
    19a0:	69 f4       	brne	.+26     	; 0x19bc <ProcessInput+0x174>
    19a2:	90 91 0e 39 	lds	r25, 0x390E	; 0x80390e <actObj1.3942+0x8>
    19a6:	90 fd       	sbrc	r25, 0
    19a8:	09 c0       	rjmp	.+18     	; 0x19bc <ProcessInput+0x174>
                        SetResponse(elements++, A_CANTENTER, L_CANTENTER, TEASER);
    19aa:	21 e0       	ldi	r18, 0x01	; 1
    19ac:	4e e1       	ldi	r20, 0x1E	; 30
    19ae:	50 e0       	ldi	r21, 0x00	; 0
    19b0:	6a ec       	ldi	r22, 0xCA	; 202
    19b2:	79 e7       	ldi	r23, 0x79	; 121
    19b4:	80 e0       	ldi	r24, 0x00	; 0
    19b6:	41 db       	rcall	.-2430   	; 0x103a <SetResponse>
    19b8:	01 e0       	ldi	r16, 0x01	; 1
    19ba:	8f c4       	rjmp	.+2334   	; 0x22da <ProcessInput+0xa92>
    19bc:	8f 36       	cpi	r24, 0x6F	; 111
                    } else if ((data[0] == 'o') && ((actObj1.byteField[ACTION_MASK]&OPEN)==0)) {
    19be:	69 f4       	brne	.+26     	; 0x19da <ProcessInput+0x192>
    19c0:	80 91 0e 39 	lds	r24, 0x390E	; 0x80390e <actObj1.3942+0x8>
    19c4:	81 fd       	sbrc	r24, 1
                        SetResponse(elements++, A_CANTOPEN, L_CANTOPEN, TEASER);
    19c6:	09 c0       	rjmp	.+18     	; 0x19da <ProcessInput+0x192>
    19c8:	21 e0       	ldi	r18, 0x01	; 1
    19ca:	4b e1       	ldi	r20, 0x1B	; 27
    19cc:	50 e0       	ldi	r21, 0x00	; 0
    19ce:	6f ea       	ldi	r22, 0xAF	; 175
    19d0:	79 e7       	ldi	r23, 0x79	; 121
    19d2:	80 e0       	ldi	r24, 0x00	; 0
    19d4:	32 db       	rcall	.-2460   	; 0x103a <SetResponse>
    19d6:	01 e0       	ldi	r16, 0x01	; 1
    19d8:	80 c4       	rjmp	.+2304   	; 0x22da <ProcessInput+0xa92>
                    
                    //Action legit, permission granted?
                    } else if (CheckState(actObj1.byteField[OPEN_ACL])) {
    19da:	80 91 0c 39 	lds	r24, 0x390C	; 0x80390c <actObj1.3942+0x6>
    19de:	16 dc       	rcall	.-2004   	; 0x120c <CheckState>
    19e0:	88 23       	and	r24, r24
    19e2:	11 f1       	breq	.+68     	; 0x1a28 <ProcessInput+0x1e0>
    19e4:	80 91 8f 38 	lds	r24, 0x388F	; 0x80388f <currDepth>
                            
                        //Yes! Check if we must move forward or backwards.
                        if (route[currDepth+1]) ++currDepth; else --currDepth;
    19e8:	e8 2f       	mov	r30, r24
    19ea:	f0 e0       	ldi	r31, 0x00	; 0
    19ec:	31 96       	adiw	r30, 0x01	; 1
    19ee:	ee 0f       	add	r30, r30
    19f0:	ff 1f       	adc	r31, r31
    19f2:	ee 5f       	subi	r30, 0xFE	; 254
    19f4:	f5 4c       	sbci	r31, 0xC5	; 197
    19f6:	20 81       	ld	r18, Z
    19f8:	31 81       	ldd	r19, Z+1	; 0x01
    19fa:	23 2b       	or	r18, r19
    19fc:	21 f0       	breq	.+8      	; 0x1a06 <ProcessInput+0x1be>
    19fe:	8f 5f       	subi	r24, 0xFF	; 255
    1a00:	80 93 8f 38 	sts	0x388F, r24	; 0x80388f <currDepth>
    1a04:	03 c0       	rjmp	.+6      	; 0x1a0c <ProcessInput+0x1c4>
    1a06:	81 50       	subi	r24, 0x01	; 1
    1a08:	80 93 8f 38 	sts	0x388F, r24	; 0x80388f <currDepth>
                        PopulateObject(route[currDepth], &currObj);
    1a0c:	e0 91 8f 38 	lds	r30, 0x388F	; 0x80388f <currDepth>
    1a10:	f0 e0       	ldi	r31, 0x00	; 0
    1a12:	ee 0f       	add	r30, r30
    1a14:	ff 1f       	adc	r31, r31
    1a16:	ee 5f       	subi	r30, 0xFE	; 254
    1a18:	f5 4c       	sbci	r31, 0xC5	; 197
    1a1a:	62 e4       	ldi	r22, 0x42	; 66
    1a1c:	7a e3       	ldi	r23, 0x3A	; 58
    1a1e:	80 81       	ld	r24, Z
    1a20:	91 81       	ldd	r25, Z+1	; 0x01
    1a22:	6e db       	rcall	.-2340   	; 0x1100 <PopulateObject>
    1a24:	00 e0       	ldi	r16, 0x00	; 0
}

//The game logic!
uint8_t ProcessInput(uint8_t *data){
    static object_model_t actObj1, actObj2;
    uint8_t elements = 0;
    1a26:	59 c4       	rjmp	.+2226   	; 0x22da <ProcessInput+0xa92>
    1a28:	e0 91 8f 38 	lds	r30, 0x388F	; 0x80388f <currDepth>
                        if (route[currDepth+1]) ++currDepth; else --currDepth;
                        PopulateObject(route[currDepth], &currObj);
                                                  
                    //Not granted!
                    } else {
                        route[currDepth+1] = 0;
    1a2c:	f0 e0       	ldi	r31, 0x00	; 0
    1a2e:	31 96       	adiw	r30, 0x01	; 1
    1a30:	ee 0f       	add	r30, r30
    1a32:	ff 1f       	adc	r31, r31
    1a34:	ee 5f       	subi	r30, 0xFE	; 254
    1a36:	f5 4c       	sbci	r31, 0xC5	; 197
    1a38:	10 82       	st	Z, r1
    1a3a:	11 82       	std	Z+1, r1	; 0x01
                        SetResponse(elements++, actObj1.addrStr[OPEN_ACL_MSG], actObj1.lenStr[OPEN_ACL_MSG], GAME);                
    1a3c:	e6 e0       	ldi	r30, 0x06	; 6
    1a3e:	f9 e3       	ldi	r31, 0x39	; 57
    1a40:	42 a1       	ldd	r20, Z+34	; 0x22
    1a42:	53 a1       	ldd	r21, Z+35	; 0x23
    1a44:	64 89       	ldd	r22, Z+20	; 0x14
    1a46:	75 89       	ldd	r23, Z+21	; 0x15
    1a48:	20 e0       	ldi	r18, 0x00	; 0
    1a4a:	80 e0       	ldi	r24, 0x00	; 0
    1a4c:	f6 da       	rcall	.-2580   	; 0x103a <SetResponse>
    1a4e:	01 e0       	ldi	r16, 0x01	; 1
    1a50:	44 c4       	rjmp	.+2184   	; 0x22da <ProcessInput+0xa92>
                    }

                //No candidate
                } else {
                    SetResponse(elements++, A_DONTSEE, L_DONTSEE, TEASER);                
    1a52:	21 e0       	ldi	r18, 0x01	; 1
    1a54:	4a e1       	ldi	r20, 0x1A	; 26
    1a56:	50 e0       	ldi	r21, 0x00	; 0
    1a58:	6e ef       	ldi	r22, 0xFE	; 254
    1a5a:	79 e7       	ldi	r23, 0x79	; 121
    1a5c:	80 e0       	ldi	r24, 0x00	; 0
    1a5e:	ed da       	rcall	.-2598   	; 0x103a <SetResponse>
    1a60:	01 e0       	ldi	r16, 0x01	; 1
    1a62:	3b c4       	rjmp	.+2166   	; 0x22da <ProcessInput+0xa92>
                }
            }

        //Look around or at objects
        } else if (data[0] == 'l') {
    1a64:	8c 36       	cpi	r24, 0x6C	; 108
    1a66:	09 f0       	breq	.+2      	; 0x1a6a <ProcessInput+0x222>
    1a68:	05 c1       	rjmp	.+522    	; 0x1c74 <ProcessInput+0x42c>
            if (inputLen == 1) {
    1a6a:	11 30       	cpi	r17, 0x01	; 1
    1a6c:	09 f0       	breq	.+2      	; 0x1a70 <ProcessInput+0x228>

                //Show info about this area first
                SetResponse(elements++, currObj.addrStr[DESC], currObj.lenStr[DESC],GAME);
    1a6e:	9c c0       	rjmp	.+312    	; 0x1ba8 <ProcessInput+0x360>
    1a70:	e2 e4       	ldi	r30, 0x42	; 66
    1a72:	fa e3       	ldi	r31, 0x3A	; 58
    1a74:	44 8d       	ldd	r20, Z+28	; 0x1c
    1a76:	55 8d       	ldd	r21, Z+29	; 0x1d
    1a78:	66 85       	ldd	r22, Z+14	; 0x0e
    1a7a:	77 85       	ldd	r23, Z+15	; 0x0f
    1a7c:	20 e0       	ldi	r18, 0x00	; 0
    1a7e:	80 e0       	ldi	r24, 0x00	; 0
                SetResponse(elements++, A_LF, 1, TEASER);
    1a80:	dc da       	rcall	.-2632   	; 0x103a <SetResponse>
    1a82:	21 e0       	ldi	r18, 0x01	; 1
    1a84:	41 e0       	ldi	r20, 0x01	; 1
    1a86:	50 e0       	ldi	r21, 0x00	; 0
    1a88:	66 e8       	ldi	r22, 0x86	; 134
    1a8a:	7a e7       	ldi	r23, 0x7A	; 122
    1a8c:	81 e0       	ldi	r24, 0x01	; 1
    1a8e:	d5 da       	rcall	.-2646   	; 0x103a <SetResponse>
                SetResponse(elements++, A_LOOK, L_LOOK, TEASER);
    1a90:	21 e0       	ldi	r18, 0x01	; 1
    1a92:	46 e1       	ldi	r20, 0x16	; 22
    1a94:	50 e0       	ldi	r21, 0x00	; 0
    1a96:	68 e1       	ldi	r22, 0x18	; 24
    1a98:	7a e7       	ldi	r23, 0x7A	; 122
    1a9a:	82 e0       	ldi	r24, 0x02	; 2
    1a9c:	ce da       	rcall	.-2660   	; 0x103a <SetResponse>
    1a9e:	e0 91 8f 38 	lds	r30, 0x388F	; 0x80388f <currDepth>
                //SetResponse(elements++, A_SPACE, L_SPACE, TEASER);

                //Check the visible children first
                route[currDepth+1] = 0;
    1aa2:	f0 e0       	ldi	r31, 0x00	; 0
    1aa4:	31 96       	adiw	r30, 0x01	; 1
    1aa6:	ee 0f       	add	r30, r30
    1aa8:	ff 1f       	adc	r31, r31
    1aaa:	ee 5f       	subi	r30, 0xFE	; 254
    1aac:	f5 4c       	sbci	r31, 0xC5	; 197
    1aae:	10 82       	st	Z, r1
    1ab0:	11 82       	std	Z+1, r1	; 0x01
    1ab2:	0f 2e       	mov	r0, r31
            if (inputLen == 1) {

                //Show info about this area first
                SetResponse(elements++, currObj.addrStr[DESC], currObj.lenStr[DESC],GAME);
                SetResponse(elements++, A_LF, 1, TEASER);
                SetResponse(elements++, A_LOOK, L_LOOK, TEASER);
    1ab4:	f3 e0       	ldi	r31, 0x03	; 3
    1ab6:	df 2e       	mov	r13, r31
    1ab8:	f0 2d       	mov	r31, r0
    1aba:	80 91 8f 38 	lds	r24, 0x388F	; 0x80388f <currDepth>
                //SetResponse(elements++, A_SPACE, L_SPACE, TEASER);

                //Check the visible children first
                route[currDepth+1] = 0;
                do{
                    route[currDepth+1] = FindChild(route[currDepth], 0, route[currDepth+1]);
    1abe:	90 e0       	ldi	r25, 0x00	; 0
    1ac0:	7c 01       	movw	r14, r24
    1ac2:	2f ef       	ldi	r18, 0xFF	; 255
    1ac4:	e2 1a       	sub	r14, r18
    1ac6:	f2 0a       	sbc	r15, r18
    1ac8:	97 01       	movw	r18, r14
    1aca:	22 0f       	add	r18, r18
    1acc:	33 1f       	adc	r19, r19
    1ace:	89 01       	movw	r16, r18
    1ad0:	0e 5f       	subi	r16, 0xFE	; 254
    1ad2:	15 4c       	sbci	r17, 0xC5	; 197
    1ad4:	f8 01       	movw	r30, r16
    1ad6:	40 81       	ld	r20, Z
    1ad8:	51 81       	ldd	r21, Z+1	; 0x01
    1ada:	88 0f       	add	r24, r24
    1adc:	99 1f       	adc	r25, r25
    1ade:	fc 01       	movw	r30, r24
    1ae0:	ee 5f       	subi	r30, 0xFE	; 254
    1ae2:	f5 4c       	sbci	r31, 0xC5	; 197
    1ae4:	60 e0       	ldi	r22, 0x00	; 0
    1ae6:	80 81       	ld	r24, Z
    1ae8:	91 81       	ldd	r25, Z+1	; 0x01
    1aea:	02 dc       	rcall	.-2044   	; 0x12f0 <FindChild>
    1aec:	f8 01       	movw	r30, r16
    1aee:	80 83       	st	Z, r24
    1af0:	91 83       	std	Z+1, r25	; 0x01
    1af2:	e0 91 8f 38 	lds	r30, 0x388F	; 0x80388f <currDepth>
                    if (route[currDepth+1]) {
    1af6:	f0 e0       	ldi	r31, 0x00	; 0
    1af8:	31 96       	adiw	r30, 0x01	; 1
    1afa:	ee 0f       	add	r30, r30
    1afc:	ff 1f       	adc	r31, r31
    1afe:	ee 5f       	subi	r30, 0xFE	; 254
    1b00:	f5 4c       	sbci	r31, 0xC5	; 197
    1b02:	80 81       	ld	r24, Z
    1b04:	91 81       	ldd	r25, Z+1	; 0x01
    1b06:	00 97       	sbiw	r24, 0x00	; 0
    1b08:	21 f1       	breq	.+72     	; 0x1b52 <ProcessInput+0x30a>
                        if ((route[currDepth+1] != inventory[0])&&(route[currDepth+1] != inventory[1])) {
    1b0a:	20 91 96 38 	lds	r18, 0x3896	; 0x803896 <inventory>
    1b0e:	30 91 97 38 	lds	r19, 0x3897	; 0x803897 <inventory+0x1>
    1b12:	82 17       	cp	r24, r18
    1b14:	93 07       	cpc	r25, r19
    1b16:	e9 f0       	breq	.+58     	; 0x1b52 <ProcessInput+0x30a>
    1b18:	20 91 98 38 	lds	r18, 0x3898	; 0x803898 <inventory+0x2>
    1b1c:	30 91 99 38 	lds	r19, 0x3899	; 0x803899 <inventory+0x3>
    1b20:	82 17       	cp	r24, r18
    1b22:	93 07       	cpc	r25, r19
                            PopulateObject(route[currDepth+1], &actObj1);
    1b24:	b1 f0       	breq	.+44     	; 0x1b52 <ProcessInput+0x30a>
    1b26:	66 e0       	ldi	r22, 0x06	; 6
    1b28:	79 e3       	ldi	r23, 0x39	; 57
                            SetResponse(elements++, actObj1.addrStr[NAME], actObj1.lenStr[NAME],GAME);
    1b2a:	ea da       	rcall	.-2604   	; 0x1100 <PopulateObject>
    1b2c:	e6 e0       	ldi	r30, 0x06	; 6
    1b2e:	f9 e3       	ldi	r31, 0x39	; 57
    1b30:	42 8d       	ldd	r20, Z+26	; 0x1a
    1b32:	53 8d       	ldd	r21, Z+27	; 0x1b
    1b34:	64 85       	ldd	r22, Z+12	; 0x0c
    1b36:	75 85       	ldd	r23, Z+13	; 0x0d
    1b38:	20 e0       	ldi	r18, 0x00	; 0
    1b3a:	8d 2d       	mov	r24, r13
    1b3c:	7e da       	rcall	.-2820   	; 0x103a <SetResponse>
                            SetResponse(elements++, A_COMMA, L_COMMA, TEASER);
    1b3e:	21 e0       	ldi	r18, 0x01	; 1
    1b40:	42 e0       	ldi	r20, 0x02	; 2
    1b42:	50 e0       	ldi	r21, 0x00	; 0
    1b44:	64 e8       	ldi	r22, 0x84	; 132
    1b46:	7a e7       	ldi	r23, 0x7A	; 122
    1b48:	81 e0       	ldi	r24, 0x01	; 1
    1b4a:	8d 0d       	add	r24, r13
    1b4c:	d3 94       	inc	r13
    1b4e:	d3 94       	inc	r13
    1b50:	74 da       	rcall	.-2840   	; 0x103a <SetResponse>
    1b52:	20 91 8f 38 	lds	r18, 0x388F	; 0x80388f <currDepth>
                            //SetResponse(elements++, A_SPACE, L_SPACE, TEASER);
                        }
                    }
                }while (route[currDepth+1]);
    1b56:	82 2f       	mov	r24, r18
    1b58:	90 e0       	ldi	r25, 0x00	; 0
    1b5a:	fc 01       	movw	r30, r24
    1b5c:	31 96       	adiw	r30, 0x01	; 1
    1b5e:	ee 0f       	add	r30, r30
    1b60:	ff 1f       	adc	r31, r31
    1b62:	ee 5f       	subi	r30, 0xFE	; 254
    1b64:	f5 4c       	sbci	r31, 0xC5	; 197
    1b66:	40 81       	ld	r20, Z
    1b68:	51 81       	ldd	r21, Z+1	; 0x01
    1b6a:	45 2b       	or	r20, r21
    1b6c:	09 f0       	breq	.+2      	; 0x1b70 <ProcessInput+0x328>
    1b6e:	a5 cf       	rjmp	.-182    	; 0x1aba <ProcessInput+0x272>

                //Look back if not on level 0
                if (currDepth) {
    1b70:	22 23       	and	r18, r18
    1b72:	b9 f0       	breq	.+46     	; 0x1ba2 <ProcessInput+0x35a>
                    PopulateObject(route[currDepth-1], &actObj1);
    1b74:	fc 01       	movw	r30, r24
    1b76:	31 97       	sbiw	r30, 0x01	; 1
    1b78:	ee 0f       	add	r30, r30
    1b7a:	ff 1f       	adc	r31, r31
    1b7c:	ee 5f       	subi	r30, 0xFE	; 254
    1b7e:	f5 4c       	sbci	r31, 0xC5	; 197
    1b80:	66 e0       	ldi	r22, 0x06	; 6
    1b82:	79 e3       	ldi	r23, 0x39	; 57
    1b84:	80 81       	ld	r24, Z
    1b86:	91 81       	ldd	r25, Z+1	; 0x01
    1b88:	bb da       	rcall	.-2698   	; 0x1100 <PopulateObject>
    1b8a:	01 e0       	ldi	r16, 0x01	; 1
                    SetResponse(elements++, actObj1.addrStr[NAME], actObj1.lenStr[NAME],GAME);
    1b8c:	0d 0d       	add	r16, r13
    1b8e:	e6 e0       	ldi	r30, 0x06	; 6
    1b90:	f9 e3       	ldi	r31, 0x39	; 57
    1b92:	42 8d       	ldd	r20, Z+26	; 0x1a
    1b94:	53 8d       	ldd	r21, Z+27	; 0x1b
    1b96:	64 85       	ldd	r22, Z+12	; 0x0c
    1b98:	75 85       	ldd	r23, Z+13	; 0x0d
    1b9a:	20 e0       	ldi	r18, 0x00	; 0
    1b9c:	8d 2d       	mov	r24, r13
    1b9e:	4d da       	rcall	.-2918   	; 0x103a <SetResponse>
    1ba0:	9c c3       	rjmp	.+1848   	; 0x22da <ProcessInput+0xa92>
    1ba2:	0e ef       	ldi	r16, 0xFE	; 254
                } else elements-=2;
    1ba4:	0d 0d       	add	r16, r13
    1ba6:	99 c3       	rjmp	.+1842   	; 0x22da <ProcessInput+0xa92>
    1ba8:	80 91 8f 38 	lds	r24, 0x388F	; 0x80388f <currDepth>

            } else {
                route[currDepth+1] = FindChild(route[currDepth], data[1], 0);
    1bac:	90 e0       	ldi	r25, 0x00	; 0
    1bae:	8c 01       	movw	r16, r24
    1bb0:	0f 5f       	subi	r16, 0xFF	; 255
    1bb2:	1f 4f       	sbci	r17, 0xFF	; 255
    1bb4:	88 0f       	add	r24, r24
    1bb6:	99 1f       	adc	r25, r25
    1bb8:	fc 01       	movw	r30, r24
    1bba:	ee 5f       	subi	r30, 0xFE	; 254
    1bbc:	f5 4c       	sbci	r31, 0xC5	; 197
    1bbe:	40 e0       	ldi	r20, 0x00	; 0
    1bc0:	50 e0       	ldi	r21, 0x00	; 0
    1bc2:	69 81       	ldd	r22, Y+1	; 0x01
    1bc4:	80 81       	ld	r24, Z
    1bc6:	91 81       	ldd	r25, Z+1	; 0x01
    1bc8:	93 db       	rcall	.-2266   	; 0x12f0 <FindChild>
    1bca:	00 0f       	add	r16, r16
    1bcc:	11 1f       	adc	r17, r17
    1bce:	f8 01       	movw	r30, r16
    1bd0:	ee 5f       	subi	r30, 0xFE	; 254
    1bd2:	f5 4c       	sbci	r31, 0xC5	; 197
    1bd4:	80 83       	st	Z, r24
    1bd6:	91 83       	std	Z+1, r25	; 0x01
    1bd8:	90 91 8f 38 	lds	r25, 0x388F	; 0x80388f <currDepth>
                if (route[currDepth+1]) {
    1bdc:	29 2f       	mov	r18, r25
    1bde:	30 e0       	ldi	r19, 0x00	; 0
    1be0:	f9 01       	movw	r30, r18
    1be2:	31 96       	adiw	r30, 0x01	; 1
    1be4:	ee 0f       	add	r30, r30
    1be6:	ff 1f       	adc	r31, r31
    1be8:	ee 5f       	subi	r30, 0xFE	; 254
    1bea:	f5 4c       	sbci	r31, 0xC5	; 197
    1bec:	40 81       	ld	r20, Z
    1bee:	51 81       	ldd	r21, Z+1	; 0x01
    1bf0:	41 15       	cp	r20, r1
    1bf2:	51 05       	cpc	r21, r1
    1bf4:	79 f0       	breq	.+30     	; 0x1c14 <ProcessInput+0x3cc>
                    PopulateObject(route[currDepth+1], &actObj1);
    1bf6:	66 e0       	ldi	r22, 0x06	; 6
    1bf8:	79 e3       	ldi	r23, 0x39	; 57
    1bfa:	ca 01       	movw	r24, r20
    1bfc:	81 da       	rcall	.-2814   	; 0x1100 <PopulateObject>
    1bfe:	e6 e0       	ldi	r30, 0x06	; 6
                    SetResponse(elements++, actObj1.addrStr[DESC], actObj1.lenStr[DESC],GAME);   
    1c00:	f9 e3       	ldi	r31, 0x39	; 57
    1c02:	44 8d       	ldd	r20, Z+28	; 0x1c
    1c04:	55 8d       	ldd	r21, Z+29	; 0x1d
    1c06:	66 85       	ldd	r22, Z+14	; 0x0e
    1c08:	77 85       	ldd	r23, Z+15	; 0x0f
    1c0a:	20 e0       	ldi	r18, 0x00	; 0
    1c0c:	80 e0       	ldi	r24, 0x00	; 0
    1c0e:	15 da       	rcall	.-3030   	; 0x103a <SetResponse>
    1c10:	01 e0       	ldi	r16, 0x01	; 1
    1c12:	63 c3       	rjmp	.+1734   	; 0x22da <ProcessInput+0xa92>
    1c14:	99 23       	and	r25, r25
                } else if (currDepth) {
    1c16:	29 f1       	breq	.+74     	; 0x1c62 <ProcessInput+0x41a>
    1c18:	f9 01       	movw	r30, r18
                    if (CheckLetter(route[currDepth-1], data[1])) {
    1c1a:	31 97       	sbiw	r30, 0x01	; 1
    1c1c:	ee 0f       	add	r30, r30
    1c1e:	ff 1f       	adc	r31, r31
    1c20:	ee 5f       	subi	r30, 0xFE	; 254
    1c22:	f5 4c       	sbci	r31, 0xC5	; 197
    1c24:	69 81       	ldd	r22, Y+1	; 0x01
    1c26:	80 81       	ld	r24, Z
    1c28:	91 81       	ldd	r25, Z+1	; 0x01
    1c2a:	07 db       	rcall	.-2546   	; 0x123a <CheckLetter>
    1c2c:	88 23       	and	r24, r24
    1c2e:	09 f4       	brne	.+2      	; 0x1c32 <ProcessInput+0x3ea>
    1c30:	4b c3       	rjmp	.+1686   	; 0x22c8 <ProcessInput+0xa80>
    1c32:	e0 91 8f 38 	lds	r30, 0x388F	; 0x80388f <currDepth>
                        PopulateObject(route[currDepth-1], &actObj1);
    1c36:	f0 e0       	ldi	r31, 0x00	; 0
    1c38:	31 97       	sbiw	r30, 0x01	; 1
    1c3a:	ee 0f       	add	r30, r30
    1c3c:	ff 1f       	adc	r31, r31
    1c3e:	ee 5f       	subi	r30, 0xFE	; 254
    1c40:	f5 4c       	sbci	r31, 0xC5	; 197
    1c42:	66 e0       	ldi	r22, 0x06	; 6
    1c44:	79 e3       	ldi	r23, 0x39	; 57
    1c46:	80 81       	ld	r24, Z
    1c48:	91 81       	ldd	r25, Z+1	; 0x01
    1c4a:	5a da       	rcall	.-2892   	; 0x1100 <PopulateObject>
    1c4c:	e6 e0       	ldi	r30, 0x06	; 6
                        SetResponse(elements++, actObj1.addrStr[DESC], actObj1.lenStr[DESC],GAME);
    1c4e:	f9 e3       	ldi	r31, 0x39	; 57
    1c50:	44 8d       	ldd	r20, Z+28	; 0x1c
    1c52:	55 8d       	ldd	r21, Z+29	; 0x1d
    1c54:	66 85       	ldd	r22, Z+14	; 0x0e
    1c56:	77 85       	ldd	r23, Z+15	; 0x0f
    1c58:	20 e0       	ldi	r18, 0x00	; 0
    1c5a:	80 e0       	ldi	r24, 0x00	; 0
    1c5c:	ee d9       	rcall	.-3108   	; 0x103a <SetResponse>
    1c5e:	01 e0       	ldi	r16, 0x01	; 1
    1c60:	3c c3       	rjmp	.+1656   	; 0x22da <ProcessInput+0xa92>
    1c62:	21 e0       	ldi	r18, 0x01	; 1
                    }
                } else {
                    SetResponse(elements++, A_DONTSEE, L_DONTSEE, TEASER);
    1c64:	4a e1       	ldi	r20, 0x1A	; 26
    1c66:	50 e0       	ldi	r21, 0x00	; 0
    1c68:	6e ef       	ldi	r22, 0xFE	; 254
    1c6a:	79 e7       	ldi	r23, 0x79	; 121
    1c6c:	80 e0       	ldi	r24, 0x00	; 0
    1c6e:	e5 d9       	rcall	.-3126   	; 0x103a <SetResponse>
    1c70:	01 e0       	ldi	r16, 0x01	; 1
    1c72:	33 c3       	rjmp	.+1638   	; 0x22da <ProcessInput+0xa92>
    1c74:	80 37       	cpi	r24, 0x70	; 112
                }
            }
        
        //Pick up an object
        } else if (data[0] == 'p') {
    1c76:	09 f0       	breq	.+2      	; 0x1c7a <ProcessInput+0x432>
    1c78:	bd c0       	rjmp	.+378    	; 0x1df4 <ProcessInput+0x5ac>
    1c7a:	80 91 96 38 	lds	r24, 0x3896	; 0x803896 <inventory>
            if (inventory[0]&&inventory[1]) {
    1c7e:	90 91 97 38 	lds	r25, 0x3897	; 0x803897 <inventory+0x1>
    1c82:	89 2b       	or	r24, r25
    1c84:	79 f0       	breq	.+30     	; 0x1ca4 <ProcessInput+0x45c>
    1c86:	80 91 98 38 	lds	r24, 0x3898	; 0x803898 <inventory+0x2>
    1c8a:	90 91 99 38 	lds	r25, 0x3899	; 0x803899 <inventory+0x3>
    1c8e:	89 2b       	or	r24, r25
    1c90:	49 f0       	breq	.+18     	; 0x1ca4 <ProcessInput+0x45c>
    1c92:	21 e0       	ldi	r18, 0x01	; 1
                SetResponse(elements++, A_CARRYTWO, L_CARRYTWO, TEASER);
    1c94:	48 e5       	ldi	r20, 0x58	; 88
    1c96:	50 e0       	ldi	r21, 0x00	; 0
    1c98:	60 e7       	ldi	r22, 0x70	; 112
    1c9a:	78 e7       	ldi	r23, 0x78	; 120
    1c9c:	80 e0       	ldi	r24, 0x00	; 0
    1c9e:	cd d9       	rcall	.-3174   	; 0x103a <SetResponse>
    1ca0:	01 e0       	ldi	r16, 0x01	; 1
    1ca2:	1b c3       	rjmp	.+1590   	; 0x22da <ProcessInput+0xa92>
    1ca4:	12 30       	cpi	r17, 0x02	; 2
            } else if (inputLen != 2) {
    1ca6:	49 f0       	breq	.+18     	; 0x1cba <ProcessInput+0x472>
    1ca8:	21 e0       	ldi	r18, 0x01	; 1
                SetResponse(elements++, A_NOTPOSSIBLE, L_NOTPOSSIBLE, TEASER);
    1caa:	4b e1       	ldi	r20, 0x1B	; 27
    1cac:	50 e0       	ldi	r21, 0x00	; 0
    1cae:	6e ea       	ldi	r22, 0xAE	; 174
    1cb0:	76 e7       	ldi	r23, 0x76	; 118
    1cb2:	80 e0       	ldi	r24, 0x00	; 0
    1cb4:	c2 d9       	rcall	.-3196   	; 0x103a <SetResponse>
    1cb6:	01 e0       	ldi	r16, 0x01	; 1
    1cb8:	10 c3       	rjmp	.+1568   	; 0x22da <ProcessInput+0xa92>
    1cba:	80 91 8f 38 	lds	r24, 0x388F	; 0x80388f <currDepth>
            } else {
                route[currDepth+1] = FindChild(route[currDepth], data[1], route[currDepth+1]);
    1cbe:	90 e0       	ldi	r25, 0x00	; 0
    1cc0:	8c 01       	movw	r16, r24
    1cc2:	0f 5f       	subi	r16, 0xFF	; 255
    1cc4:	1f 4f       	sbci	r17, 0xFF	; 255
    1cc6:	00 0f       	add	r16, r16
    1cc8:	11 1f       	adc	r17, r17
    1cca:	0e 5f       	subi	r16, 0xFE	; 254
    1ccc:	15 4c       	sbci	r17, 0xC5	; 197
    1cce:	f8 01       	movw	r30, r16
    1cd0:	40 81       	ld	r20, Z
    1cd2:	51 81       	ldd	r21, Z+1	; 0x01
    1cd4:	88 0f       	add	r24, r24
    1cd6:	99 1f       	adc	r25, r25
    1cd8:	fc 01       	movw	r30, r24
    1cda:	ee 5f       	subi	r30, 0xFE	; 254
    1cdc:	f5 4c       	sbci	r31, 0xC5	; 197
    1cde:	69 81       	ldd	r22, Y+1	; 0x01
    1ce0:	80 81       	ld	r24, Z
    1ce2:	91 81       	ldd	r25, Z+1	; 0x01
    1ce4:	05 db       	rcall	.-2550   	; 0x12f0 <FindChild>
    1ce6:	f8 01       	movw	r30, r16
    1ce8:	80 83       	st	Z, r24
    1cea:	91 83       	std	Z+1, r25	; 0x01
    1cec:	e0 91 8f 38 	lds	r30, 0x388F	; 0x80388f <currDepth>
                if (route[currDepth+1]) {
    1cf0:	f0 e0       	ldi	r31, 0x00	; 0
    1cf2:	31 96       	adiw	r30, 0x01	; 1
    1cf4:	ee 0f       	add	r30, r30
    1cf6:	ff 1f       	adc	r31, r31
    1cf8:	ee 5f       	subi	r30, 0xFE	; 254
    1cfa:	f5 4c       	sbci	r31, 0xC5	; 197
    1cfc:	80 81       	ld	r24, Z
    1cfe:	91 81       	ldd	r25, Z+1	; 0x01
    1d00:	00 97       	sbiw	r24, 0x00	; 0
    1d02:	09 f4       	brne	.+2      	; 0x1d06 <ProcessInput+0x4be>
    1d04:	6e c0       	rjmp	.+220    	; 0x1de2 <ProcessInput+0x59a>
    1d06:	20 91 96 38 	lds	r18, 0x3896	; 0x803896 <inventory>
                    if ((route[currDepth+1] == inventory[0])||(route[currDepth+1] == inventory[1])) {
    1d0a:	30 91 97 38 	lds	r19, 0x3897	; 0x803897 <inventory+0x1>
    1d0e:	82 17       	cp	r24, r18
    1d10:	93 07       	cpc	r25, r19
    1d12:	39 f0       	breq	.+14     	; 0x1d22 <ProcessInput+0x4da>
    1d14:	20 91 98 38 	lds	r18, 0x3898	; 0x803898 <inventory+0x2>
    1d18:	30 91 99 38 	lds	r19, 0x3899	; 0x803899 <inventory+0x3>
    1d1c:	82 17       	cp	r24, r18
    1d1e:	93 07       	cpc	r25, r19
    1d20:	99 f4       	brne	.+38     	; 0x1d48 <ProcessInput+0x500>
    1d22:	21 e0       	ldi	r18, 0x01	; 1
                        SetResponse(elements++, A_ALREADYCARRYING, L_ALREADYCARRYING, TEASER);
    1d24:	45 e2       	ldi	r20, 0x25	; 37
    1d26:	50 e0       	ldi	r21, 0x00	; 0
    1d28:	6b e4       	ldi	r22, 0x4B	; 75
    1d2a:	78 e7       	ldi	r23, 0x78	; 120
    1d2c:	80 e0       	ldi	r24, 0x00	; 0
    1d2e:	85 d9       	rcall	.-3318   	; 0x103a <SetResponse>
    1d30:	e0 91 8f 38 	lds	r30, 0x388F	; 0x80388f <currDepth>
                        route[currDepth+1] = 0;
    1d34:	f0 e0       	ldi	r31, 0x00	; 0
    1d36:	31 96       	adiw	r30, 0x01	; 1
    1d38:	ee 0f       	add	r30, r30
    1d3a:	ff 1f       	adc	r31, r31
    1d3c:	ee 5f       	subi	r30, 0xFE	; 254
    1d3e:	f5 4c       	sbci	r31, 0xC5	; 197
    1d40:	10 82       	st	Z, r1
    1d42:	11 82       	std	Z+1, r1	; 0x01
    1d44:	01 e0       	ldi	r16, 0x01	; 1
    1d46:	c9 c2       	rjmp	.+1426   	; 0x22da <ProcessInput+0xa92>
                SetResponse(elements++, A_NOTPOSSIBLE, L_NOTPOSSIBLE, TEASER);
            } else {
                route[currDepth+1] = FindChild(route[currDepth], data[1], route[currDepth+1]);
                if (route[currDepth+1]) {
                    if ((route[currDepth+1] == inventory[0])||(route[currDepth+1] == inventory[1])) {
                        SetResponse(elements++, A_ALREADYCARRYING, L_ALREADYCARRYING, TEASER);
    1d48:	66 e0       	ldi	r22, 0x06	; 6
                        route[currDepth+1] = 0;
    1d4a:	79 e3       	ldi	r23, 0x39	; 57
                    } else {
                        //Put item in the inventory if possible
                        PopulateObject(route[currDepth+1], &actObj1);                      
    1d4c:	d9 d9       	rcall	.-3150   	; 0x1100 <PopulateObject>
    1d4e:	80 91 11 39 	lds	r24, 0x3911	; 0x803911 <actObj1.3942+0xb>
    1d52:	88 23       	and	r24, r24
                        if (actObj1.byteField[ITEM_NR]) {
    1d54:	09 f4       	brne	.+2      	; 0x1d58 <ProcessInput+0x510>
    1d56:	3c c0       	rjmp	.+120    	; 0x1dd0 <ProcessInput+0x588>
    1d58:	80 91 96 38 	lds	r24, 0x3896	; 0x803896 <inventory>
    1d5c:	90 91 97 38 	lds	r25, 0x3897	; 0x803897 <inventory+0x1>
                            if (inventory[0]) {
    1d60:	89 2b       	or	r24, r25
    1d62:	79 f0       	breq	.+30     	; 0x1d82 <ProcessInput+0x53a>
    1d64:	e0 91 8f 38 	lds	r30, 0x388F	; 0x80388f <currDepth>
                                inventory[1] = route[currDepth+1];
    1d68:	f0 e0       	ldi	r31, 0x00	; 0
    1d6a:	31 96       	adiw	r30, 0x01	; 1
    1d6c:	ee 0f       	add	r30, r30
    1d6e:	ff 1f       	adc	r31, r31
    1d70:	ee 5f       	subi	r30, 0xFE	; 254
    1d72:	f5 4c       	sbci	r31, 0xC5	; 197
    1d74:	80 81       	ld	r24, Z
    1d76:	91 81       	ldd	r25, Z+1	; 0x01
    1d78:	80 93 98 38 	sts	0x3898, r24	; 0x803898 <inventory+0x2>
    1d7c:	90 93 99 38 	sts	0x3899, r25	; 0x803899 <inventory+0x3>
    1d80:	0e c0       	rjmp	.+28     	; 0x1d9e <ProcessInput+0x556>
                            } else {
                                inventory[0] = route[currDepth+1];
    1d82:	e0 91 8f 38 	lds	r30, 0x388F	; 0x80388f <currDepth>
    1d86:	f0 e0       	ldi	r31, 0x00	; 0
    1d88:	31 96       	adiw	r30, 0x01	; 1
    1d8a:	ee 0f       	add	r30, r30
    1d8c:	ff 1f       	adc	r31, r31
    1d8e:	ee 5f       	subi	r30, 0xFE	; 254
    1d90:	f5 4c       	sbci	r31, 0xC5	; 197
    1d92:	80 81       	ld	r24, Z
    1d94:	91 81       	ldd	r25, Z+1	; 0x01
    1d96:	80 93 96 38 	sts	0x3896, r24	; 0x803896 <inventory>
    1d9a:	90 93 97 38 	sts	0x3897, r25	; 0x803897 <inventory+0x1>
                            }
                            SetResponse(elements++, A_NOWCARRING, L_NOWCARRING, TEASER);
    1d9e:	21 e0       	ldi	r18, 0x01	; 1
    1da0:	46 e1       	ldi	r20, 0x16	; 22
    1da2:	50 e0       	ldi	r21, 0x00	; 0
    1da4:	65 e3       	ldi	r22, 0x35	; 53
    1da6:	78 e7       	ldi	r23, 0x78	; 120
    1da8:	80 e0       	ldi	r24, 0x00	; 0
                            SetResponse(elements++, A_SPACE, L_SPACE, TEASER);
    1daa:	47 d9       	rcall	.-3442   	; 0x103a <SetResponse>
    1dac:	21 e0       	ldi	r18, 0x01	; 1
    1dae:	41 e0       	ldi	r20, 0x01	; 1
    1db0:	50 e0       	ldi	r21, 0x00	; 0
    1db2:	6a e8       	ldi	r22, 0x8A	; 138
    1db4:	7a e7       	ldi	r23, 0x7A	; 122
    1db6:	81 e0       	ldi	r24, 0x01	; 1
    1db8:	40 d9       	rcall	.-3456   	; 0x103a <SetResponse>
                            SetResponse(elements++, actObj1.addrStr[NAME], actObj1.lenStr[NAME], GAME);
    1dba:	e6 e0       	ldi	r30, 0x06	; 6
    1dbc:	f9 e3       	ldi	r31, 0x39	; 57
    1dbe:	42 8d       	ldd	r20, Z+26	; 0x1a
    1dc0:	53 8d       	ldd	r21, Z+27	; 0x1b
    1dc2:	64 85       	ldd	r22, Z+12	; 0x0c
    1dc4:	75 85       	ldd	r23, Z+13	; 0x0d
    1dc6:	20 e0       	ldi	r18, 0x00	; 0
    1dc8:	82 e0       	ldi	r24, 0x02	; 2
    1dca:	37 d9       	rcall	.-3474   	; 0x103a <SetResponse>
    1dcc:	03 e0       	ldi	r16, 0x03	; 3
    1dce:	85 c2       	rjmp	.+1290   	; 0x22da <ProcessInput+0xa92>
                        } else {
                            SetResponse(elements++, A_NOTPOSSIBLE, L_NOTPOSSIBLE, TEASER);
    1dd0:	21 e0       	ldi	r18, 0x01	; 1
    1dd2:	4b e1       	ldi	r20, 0x1B	; 27
    1dd4:	50 e0       	ldi	r21, 0x00	; 0
    1dd6:	6e ea       	ldi	r22, 0xAE	; 174
    1dd8:	76 e7       	ldi	r23, 0x76	; 118
    1dda:	80 e0       	ldi	r24, 0x00	; 0
    1ddc:	2e d9       	rcall	.-3492   	; 0x103a <SetResponse>
    1dde:	01 e0       	ldi	r16, 0x01	; 1
    1de0:	7c c2       	rjmp	.+1272   	; 0x22da <ProcessInput+0xa92>
    1de2:	21 e0       	ldi	r18, 0x01	; 1
                        }
                    }
                } else SetResponse(elements++, A_NOSUCHOBJECT, L_NOSUCHOBJECT, TEASER);
    1de4:	44 e1       	ldi	r20, 0x14	; 20
    1de6:	50 e0       	ldi	r21, 0x00	; 0
    1de8:	6a e7       	ldi	r22, 0x7A	; 122
    1dea:	79 e7       	ldi	r23, 0x79	; 121
    1dec:	80 e0       	ldi	r24, 0x00	; 0
    1dee:	25 d9       	rcall	.-3510   	; 0x103a <SetResponse>
    1df0:	01 e0       	ldi	r16, 0x01	; 1
    1df2:	73 c2       	rjmp	.+1254   	; 0x22da <ProcessInput+0xa92>
    1df4:	84 36       	cpi	r24, 0x64	; 100
            }
        } else

        //Drop item if in inventory
        if (data[0] == 'd') {
    1df6:	09 f0       	breq	.+2      	; 0x1dfa <ProcessInput+0x5b2>
    1df8:	7c c0       	rjmp	.+248    	; 0x1ef2 <ProcessInput+0x6aa>
    1dfa:	80 91 96 38 	lds	r24, 0x3896	; 0x803896 <inventory>
            if ((inventory[0] == 0)&&(inventory[1] == 0)){
    1dfe:	90 91 97 38 	lds	r25, 0x3897	; 0x803897 <inventory+0x1>
    1e02:	89 2b       	or	r24, r25
    1e04:	79 f4       	brne	.+30     	; 0x1e24 <ProcessInput+0x5dc>
    1e06:	80 91 98 38 	lds	r24, 0x3898	; 0x803898 <inventory+0x2>
    1e0a:	90 91 99 38 	lds	r25, 0x3899	; 0x803899 <inventory+0x3>
    1e0e:	89 2b       	or	r24, r25
    1e10:	49 f4       	brne	.+18     	; 0x1e24 <ProcessInput+0x5dc>
                SetResponse(elements++, A_EMPTYHANDS, L_EMPTYHANDS, TEASER);
    1e12:	21 e0       	ldi	r18, 0x01	; 1
    1e14:	46 e2       	ldi	r20, 0x26	; 38
    1e16:	50 e0       	ldi	r21, 0x00	; 0
    1e18:	6f e0       	ldi	r22, 0x0F	; 15
    1e1a:	78 e7       	ldi	r23, 0x78	; 120
    1e1c:	80 e0       	ldi	r24, 0x00	; 0
    1e1e:	0d d9       	rcall	.-3558   	; 0x103a <SetResponse>
    1e20:	01 e0       	ldi	r16, 0x01	; 1
    1e22:	5b c2       	rjmp	.+1206   	; 0x22da <ProcessInput+0xa92>
            } else if (inputLen != 2) {
    1e24:	12 30       	cpi	r17, 0x02	; 2
    1e26:	09 f4       	brne	.+2      	; 0x1e2a <ProcessInput+0x5e2>
    1e28:	5e c0       	rjmp	.+188    	; 0x1ee6 <ProcessInput+0x69e>
                SetResponse(elements++, A_NOTPOSSIBLE, L_NOTPOSSIBLE, TEASER);
    1e2a:	21 e0       	ldi	r18, 0x01	; 1
    1e2c:	4b e1       	ldi	r20, 0x1B	; 27
    1e2e:	50 e0       	ldi	r21, 0x00	; 0
    1e30:	6e ea       	ldi	r22, 0xAE	; 174
    1e32:	76 e7       	ldi	r23, 0x76	; 118
    1e34:	80 e0       	ldi	r24, 0x00	; 0
    1e36:	01 d9       	rcall	.-3582   	; 0x103a <SetResponse>
    1e38:	01 e0       	ldi	r16, 0x01	; 1
    1e3a:	4f c2       	rjmp	.+1182   	; 0x22da <ProcessInput+0xa92>
            } else {
                for (uint8_t x=0; x<2; ++x) {
                    if (inventory[x]) {
    1e3c:	e1 2e       	mov	r14, r17
    1e3e:	f1 2c       	mov	r15, r1
    1e40:	f7 01       	movw	r30, r14
    1e42:	ee 0f       	add	r30, r30
    1e44:	ff 1f       	adc	r31, r31
    1e46:	ea 56       	subi	r30, 0x6A	; 106
    1e48:	f7 4c       	sbci	r31, 0xC7	; 199
    1e4a:	80 81       	ld	r24, Z
    1e4c:	91 81       	ldd	r25, Z+1	; 0x01
    1e4e:	00 97       	sbiw	r24, 0x00	; 0
    1e50:	09 f4       	brne	.+2      	; 0x1e54 <ProcessInput+0x60c>
                        if (CheckLetter(inventory[x], data[1])) {
    1e52:	3a c0       	rjmp	.+116    	; 0x1ec8 <ProcessInput+0x680>
    1e54:	69 81       	ldd	r22, Y+1	; 0x01
    1e56:	f1 d9       	rcall	.-3102   	; 0x123a <CheckLetter>
    1e58:	88 23       	and	r24, r24
    1e5a:	b1 f1       	breq	.+108    	; 0x1ec8 <ProcessInput+0x680>
                            PopulateObject(inventory[x], &actObj1);
    1e5c:	c7 01       	movw	r24, r14
    1e5e:	88 0f       	add	r24, r24
    1e60:	99 1f       	adc	r25, r25
    1e62:	9c 01       	movw	r18, r24
    1e64:	2a 56       	subi	r18, 0x6A	; 106
    1e66:	37 4c       	sbci	r19, 0xC7	; 199
    1e68:	79 01       	movw	r14, r18
    1e6a:	66 e0       	ldi	r22, 0x06	; 6
    1e6c:	79 e3       	ldi	r23, 0x39	; 57
    1e6e:	f9 01       	movw	r30, r18
    1e70:	80 81       	ld	r24, Z
    1e72:	91 81       	ldd	r25, Z+1	; 0x01
    1e74:	45 d9       	rcall	.-3446   	; 0x1100 <PopulateObject>
                            SetResponse(elements++, A_DROPPING, L_DROPPING, TEASER);
    1e76:	dd 24       	eor	r13, r13
    1e78:	d3 94       	inc	r13
    1e7a:	d0 0e       	add	r13, r16
    1e7c:	21 e0       	ldi	r18, 0x01	; 1
    1e7e:	40 e1       	ldi	r20, 0x10	; 16
    1e80:	50 e0       	ldi	r21, 0x00	; 0
    1e82:	6f ef       	ldi	r22, 0xFF	; 255
    1e84:	77 e7       	ldi	r23, 0x77	; 119
    1e86:	80 2f       	mov	r24, r16
    1e88:	d8 d8       	rcall	.-3664   	; 0x103a <SetResponse>
                            SetResponse(elements++, actObj1.addrStr[NAME], actObj1.lenStr[NAME], GAME);
    1e8a:	12 e0       	ldi	r17, 0x02	; 2
    1e8c:	10 0f       	add	r17, r16
    1e8e:	e6 e0       	ldi	r30, 0x06	; 6
    1e90:	f9 e3       	ldi	r31, 0x39	; 57
    1e92:	42 8d       	ldd	r20, Z+26	; 0x1a
    1e94:	53 8d       	ldd	r21, Z+27	; 0x1b
    1e96:	64 85       	ldd	r22, Z+12	; 0x0c
    1e98:	75 85       	ldd	r23, Z+13	; 0x0d
    1e9a:	20 e0       	ldi	r18, 0x00	; 0
    1e9c:	8d 2d       	mov	r24, r13
    1e9e:	cd d8       	rcall	.-3686   	; 0x103a <SetResponse>
    1ea0:	21 e0       	ldi	r18, 0x01	; 1
                            SetResponse(elements++, A_LF, 1, TEASER);
    1ea2:	41 e0       	ldi	r20, 0x01	; 1
    1ea4:	50 e0       	ldi	r21, 0x00	; 0
    1ea6:	66 e8       	ldi	r22, 0x86	; 134
    1ea8:	7a e7       	ldi	r23, 0x7A	; 122
    1eaa:	81 2f       	mov	r24, r17
    1eac:	c6 d8       	rcall	.-3700   	; 0x103a <SetResponse>
    1eae:	21 e0       	ldi	r18, 0x01	; 1
    1eb0:	4d e3       	ldi	r20, 0x3D	; 61
                            SetResponse(elements++, A_RETURNING, L_RETURNING, TEASER);
    1eb2:	50 e0       	ldi	r21, 0x00	; 0
    1eb4:	62 ec       	ldi	r22, 0xC2	; 194
    1eb6:	77 e7       	ldi	r23, 0x77	; 119
    1eb8:	83 e0       	ldi	r24, 0x03	; 3
    1eba:	80 0f       	add	r24, r16
    1ebc:	0c 5f       	subi	r16, 0xFC	; 252
    1ebe:	bd d8       	rcall	.-3718   	; 0x103a <SetResponse>
    1ec0:	f7 01       	movw	r30, r14
    1ec2:	10 82       	st	Z, r1
                            inventory[x] = 0;
    1ec4:	11 82       	std	Z+1, r1	; 0x01
    1ec6:	09 c2       	rjmp	.+1042   	; 0x22da <ProcessInput+0xa92>
    1ec8:	11 23       	and	r17, r17
                            break;
    1eca:	59 f0       	breq	.+22     	; 0x1ee2 <ProcessInput+0x69a>
                        }
                    }
                    if (x) SetResponse(elements++, A_NOTCARRYING, L_NOTCARRYING, TEASER);
    1ecc:	ff 24       	eor	r15, r15
    1ece:	f3 94       	inc	r15
    1ed0:	f0 0e       	add	r15, r16
    1ed2:	21 e0       	ldi	r18, 0x01	; 1
    1ed4:	41 e2       	ldi	r20, 0x21	; 33
    1ed6:	50 e0       	ldi	r21, 0x00	; 0
    1ed8:	6e e8       	ldi	r22, 0x8E	; 142
    1eda:	79 e7       	ldi	r23, 0x79	; 121
    1edc:	80 2f       	mov	r24, r16
    1ede:	ad d8       	rcall	.-3750   	; 0x103a <SetResponse>
    1ee0:	0f 2d       	mov	r16, r15
    1ee2:	1f 5f       	subi	r17, 0xFF	; 255
            if ((inventory[0] == 0)&&(inventory[1] == 0)){
                SetResponse(elements++, A_EMPTYHANDS, L_EMPTYHANDS, TEASER);
            } else if (inputLen != 2) {
                SetResponse(elements++, A_NOTPOSSIBLE, L_NOTPOSSIBLE, TEASER);
            } else {
                for (uint8_t x=0; x<2; ++x) {
    1ee4:	02 c0       	rjmp	.+4      	; 0x1eea <ProcessInput+0x6a2>
    1ee6:	10 e0       	ldi	r17, 0x00	; 0
    1ee8:	00 e0       	ldi	r16, 0x00	; 0
    1eea:	12 30       	cpi	r17, 0x02	; 2
    1eec:	08 f4       	brcc	.+2      	; 0x1ef0 <ProcessInput+0x6a8>
    1eee:	a6 cf       	rjmp	.-180    	; 0x1e3c <ProcessInput+0x5f4>
    1ef0:	f4 c1       	rjmp	.+1000   	; 0x22da <ProcessInput+0xa92>
    1ef2:	89 36       	cpi	r24, 0x69	; 105
                    if (x) SetResponse(elements++, A_NOTCARRYING, L_NOTCARRYING, TEASER);
                }
            }

        //Inventory list
        } else if (data[0] == 'i') {
    1ef4:	09 f0       	breq	.+2      	; 0x1ef8 <ProcessInput+0x6b0>
    1ef6:	54 c0       	rjmp	.+168    	; 0x1fa0 <ProcessInput+0x758>
            if ((inventory[0] == 0)&&(inventory[1] == 0)){
    1ef8:	80 91 96 38 	lds	r24, 0x3896	; 0x803896 <inventory>
    1efc:	90 91 97 38 	lds	r25, 0x3897	; 0x803897 <inventory+0x1>
    1f00:	89 2b       	or	r24, r25
    1f02:	79 f4       	brne	.+30     	; 0x1f22 <ProcessInput+0x6da>
    1f04:	80 91 98 38 	lds	r24, 0x3898	; 0x803898 <inventory+0x2>
    1f08:	90 91 99 38 	lds	r25, 0x3899	; 0x803899 <inventory+0x3>
    1f0c:	89 2b       	or	r24, r25
                SetResponse(elements++, A_EMPTYHANDS, L_EMPTYHANDS, TEASER);
    1f0e:	49 f4       	brne	.+18     	; 0x1f22 <ProcessInput+0x6da>
    1f10:	21 e0       	ldi	r18, 0x01	; 1
    1f12:	46 e2       	ldi	r20, 0x26	; 38
    1f14:	50 e0       	ldi	r21, 0x00	; 0
    1f16:	6f e0       	ldi	r22, 0x0F	; 15
    1f18:	78 e7       	ldi	r23, 0x78	; 120
    1f1a:	80 e0       	ldi	r24, 0x00	; 0
    1f1c:	8e d8       	rcall	.-3812   	; 0x103a <SetResponse>
    1f1e:	01 e0       	ldi	r16, 0x01	; 1
            } else {
                SetResponse(elements++, A_NOWCARRING, L_NOWCARRING, TEASER);
    1f20:	dc c1       	rjmp	.+952    	; 0x22da <ProcessInput+0xa92>
    1f22:	21 e0       	ldi	r18, 0x01	; 1
    1f24:	46 e1       	ldi	r20, 0x16	; 22
    1f26:	50 e0       	ldi	r21, 0x00	; 0
    1f28:	65 e3       	ldi	r22, 0x35	; 53
    1f2a:	78 e7       	ldi	r23, 0x78	; 120
    1f2c:	80 e0       	ldi	r24, 0x00	; 0
                SetResponse(elements++, A_SPACE, L_SPACE, TEASER);
    1f2e:	85 d8       	rcall	.-3830   	; 0x103a <SetResponse>
    1f30:	21 e0       	ldi	r18, 0x01	; 1
    1f32:	41 e0       	ldi	r20, 0x01	; 1
    1f34:	50 e0       	ldi	r21, 0x00	; 0
    1f36:	6a e8       	ldi	r22, 0x8A	; 138
    1f38:	7a e7       	ldi	r23, 0x7A	; 122
    1f3a:	81 e0       	ldi	r24, 0x01	; 1
    1f3c:	7e d8       	rcall	.-3844   	; 0x103a <SetResponse>
                
                for (uint8_t x=0; x<2; ++x) {
    1f3e:	10 e0       	ldi	r17, 0x00	; 0
        } else if (data[0] == 'i') {
            if ((inventory[0] == 0)&&(inventory[1] == 0)){
                SetResponse(elements++, A_EMPTYHANDS, L_EMPTYHANDS, TEASER);
            } else {
                SetResponse(elements++, A_NOWCARRING, L_NOWCARRING, TEASER);
                SetResponse(elements++, A_SPACE, L_SPACE, TEASER);
    1f40:	02 e0       	ldi	r16, 0x02	; 2
                
                for (uint8_t x=0; x<2; ++x) {
    1f42:	2a c0       	rjmp	.+84     	; 0x1f98 <ProcessInput+0x750>
                    if (inventory[x]) {
    1f44:	e1 2f       	mov	r30, r17
    1f46:	f0 e0       	ldi	r31, 0x00	; 0
    1f48:	ee 0f       	add	r30, r30
    1f4a:	ff 1f       	adc	r31, r31
    1f4c:	ea 56       	subi	r30, 0x6A	; 106
    1f4e:	f7 4c       	sbci	r31, 0xC7	; 199
    1f50:	80 81       	ld	r24, Z
    1f52:	91 81       	ldd	r25, Z+1	; 0x01
    1f54:	00 97       	sbiw	r24, 0x00	; 0
    1f56:	f9 f0       	breq	.+62     	; 0x1f96 <ProcessInput+0x74e>
                        PopulateObject(inventory[x], &actObj1);
    1f58:	66 e0       	ldi	r22, 0x06	; 6
    1f5a:	79 e3       	ldi	r23, 0x39	; 57
    1f5c:	d1 d8       	rcall	.-3678   	; 0x1100 <PopulateObject>
                        SetResponse(elements++, actObj1.addrStr[NAME], actObj1.lenStr[NAME], GAME);
    1f5e:	ff 24       	eor	r15, r15
    1f60:	f3 94       	inc	r15
    1f62:	f0 0e       	add	r15, r16
    1f64:	e6 e0       	ldi	r30, 0x06	; 6
    1f66:	f9 e3       	ldi	r31, 0x39	; 57
    1f68:	42 8d       	ldd	r20, Z+26	; 0x1a
    1f6a:	53 8d       	ldd	r21, Z+27	; 0x1b
    1f6c:	64 85       	ldd	r22, Z+12	; 0x0c
    1f6e:	75 85       	ldd	r23, Z+13	; 0x0d
    1f70:	20 e0       	ldi	r18, 0x00	; 0
    1f72:	80 2f       	mov	r24, r16
    1f74:	62 d8       	rcall	.-3900   	; 0x103a <SetResponse>
    1f76:	21 e0       	ldi	r18, 0x01	; 1
                        SetResponse(elements++, A_COMMA, L_COMMA, TEASER);
    1f78:	42 e0       	ldi	r20, 0x02	; 2
    1f7a:	50 e0       	ldi	r21, 0x00	; 0
    1f7c:	64 e8       	ldi	r22, 0x84	; 132
    1f7e:	7a e7       	ldi	r23, 0x7A	; 122
    1f80:	8f 2d       	mov	r24, r15
    1f82:	5b d8       	rcall	.-3914   	; 0x103a <SetResponse>
    1f84:	21 e0       	ldi	r18, 0x01	; 1
    1f86:	41 e0       	ldi	r20, 0x01	; 1
                        SetResponse(elements++, A_SPACE, L_SPACE, TEASER);
    1f88:	50 e0       	ldi	r21, 0x00	; 0
    1f8a:	6a e8       	ldi	r22, 0x8A	; 138
    1f8c:	7a e7       	ldi	r23, 0x7A	; 122
    1f8e:	82 e0       	ldi	r24, 0x02	; 2
    1f90:	80 0f       	add	r24, r16
    1f92:	0d 5f       	subi	r16, 0xFD	; 253
    1f94:	52 d8       	rcall	.-3932   	; 0x103a <SetResponse>
    1f96:	1f 5f       	subi	r17, 0xFF	; 255
    1f98:	12 30       	cpi	r17, 0x02	; 2
                SetResponse(elements++, A_EMPTYHANDS, L_EMPTYHANDS, TEASER);
            } else {
                SetResponse(elements++, A_NOWCARRING, L_NOWCARRING, TEASER);
                SetResponse(elements++, A_SPACE, L_SPACE, TEASER);
                
                for (uint8_t x=0; x<2; ++x) {
    1f9a:	a0 f2       	brcs	.-88     	; 0x1f44 <ProcessInput+0x6fc>
    1f9c:	02 50       	subi	r16, 0x02	; 2
    1f9e:	9d c1       	rjmp	.+826    	; 0x22da <ProcessInput+0xa92>
                        SetResponse(elements++, actObj1.addrStr[NAME], actObj1.lenStr[NAME], GAME);
                        SetResponse(elements++, A_COMMA, L_COMMA, TEASER);
                        SetResponse(elements++, A_SPACE, L_SPACE, TEASER);
                    }
                }
                elements -= 2;
    1fa0:	9c e8       	ldi	r25, 0x8C	; 140
    1fa2:	98 0f       	add	r25, r24
            }            
        
        //Talk, use, give, read
        } else if ((data[0] == 't')||(data[0] == 'u')||(data[0] == 'g')||(data[0] == 'r')) {
    1fa4:	92 30       	cpi	r25, 0x02	; 2
    1fa6:	28 f0       	brcs	.+10     	; 0x1fb2 <ProcessInput+0x76a>
    1fa8:	87 36       	cpi	r24, 0x67	; 103
    1faa:	19 f0       	breq	.+6      	; 0x1fb2 <ProcessInput+0x76a>
    1fac:	82 37       	cpi	r24, 0x72	; 114
    1fae:	09 f0       	breq	.+2      	; 0x1fb2 <ProcessInput+0x76a>
    1fb0:	7b c1       	rjmp	.+758    	; 0x22a8 <ProcessInput+0xa60>
    1fb2:	8e ef       	ldi	r24, 0xFE	; 254
    1fb4:	81 0f       	add	r24, r17
            if ((inputLen<2)||(inputLen>3)) {
    1fb6:	82 30       	cpi	r24, 0x02	; 2
    1fb8:	48 f0       	brcs	.+18     	; 0x1fcc <ProcessInput+0x784>
    1fba:	21 e0       	ldi	r18, 0x01	; 1
    1fbc:	4b e1       	ldi	r20, 0x1B	; 27
                SetResponse(elements++, A_NOTPOSSIBLE, L_NOTPOSSIBLE, TEASER);                
    1fbe:	50 e0       	ldi	r21, 0x00	; 0
    1fc0:	6e ea       	ldi	r22, 0xAE	; 174
    1fc2:	76 e7       	ldi	r23, 0x76	; 118
    1fc4:	80 e0       	ldi	r24, 0x00	; 0
    1fc6:	39 d8       	rcall	.-3982   	; 0x103a <SetResponse>
    1fc8:	01 e0       	ldi	r16, 0x01	; 1
    1fca:	87 c1       	rjmp	.+782    	; 0x22da <ProcessInput+0xa92>
    1fcc:	80 91 8f 38 	lds	r24, 0x388F	; 0x80388f <currDepth>
    1fd0:	90 e0       	ldi	r25, 0x00	; 0
            
            //Check for visible person or object first
            } else {
                route[currDepth+1] = FindChild(route[currDepth], data[inputLen-1], 0);
    1fd2:	7c 01       	movw	r14, r24
    1fd4:	ff ef       	ldi	r31, 0xFF	; 255
    1fd6:	ef 1a       	sub	r14, r31
    1fd8:	ff 0a       	sbc	r15, r31
    1fda:	a1 2f       	mov	r26, r17
    1fdc:	b0 e0       	ldi	r27, 0x00	; 0
    1fde:	11 97       	sbiw	r26, 0x01	; 1
    1fe0:	ac 0f       	add	r26, r28
    1fe2:	bd 1f       	adc	r27, r29
    1fe4:	88 0f       	add	r24, r24
    1fe6:	99 1f       	adc	r25, r25
    1fe8:	fc 01       	movw	r30, r24
    1fea:	ee 5f       	subi	r30, 0xFE	; 254
    1fec:	f5 4c       	sbci	r31, 0xC5	; 197
    1fee:	40 e0       	ldi	r20, 0x00	; 0
    1ff0:	50 e0       	ldi	r21, 0x00	; 0
    1ff2:	6c 91       	ld	r22, X
    1ff4:	80 81       	ld	r24, Z
    1ff6:	91 81       	ldd	r25, Z+1	; 0x01
    1ff8:	7b d9       	rcall	.-3338   	; 0x12f0 <FindChild>
    1ffa:	f7 01       	movw	r30, r14
    1ffc:	ee 0f       	add	r30, r30
    1ffe:	ff 1f       	adc	r31, r31
    2000:	ee 5f       	subi	r30, 0xFE	; 254
    2002:	f5 4c       	sbci	r31, 0xC5	; 197
    2004:	80 83       	st	Z, r24
    2006:	91 83       	std	Z+1, r25	; 0x01
    2008:	e0 91 8f 38 	lds	r30, 0x388F	; 0x80388f <currDepth>
                if (route[currDepth+1]) {
    200c:	f0 e0       	ldi	r31, 0x00	; 0
    200e:	31 96       	adiw	r30, 0x01	; 1
    2010:	ee 0f       	add	r30, r30
    2012:	ff 1f       	adc	r31, r31
    2014:	ee 5f       	subi	r30, 0xFE	; 254
    2016:	f5 4c       	sbci	r31, 0xC5	; 197
    2018:	80 81       	ld	r24, Z
    201a:	91 81       	ldd	r25, Z+1	; 0x01
    201c:	00 97       	sbiw	r24, 0x00	; 0
    201e:	09 f4       	brne	.+2      	; 0x2022 <ProcessInput+0x7da>
    2020:	2a c1       	rjmp	.+596    	; 0x2276 <ProcessInput+0xa2e>
    2022:	13 30       	cpi	r17, 0x03	; 3
    2024:	09 f0       	breq	.+2      	; 0x2028 <ProcessInput+0x7e0>
                    
                    //Give item to person / use item on object 
                    if ((inputLen == 3)&&((data[0] == 'u')||(data[0] == 'g'))) {
    2026:	84 c0       	rjmp	.+264    	; 0x2130 <ProcessInput+0x8e8>
    2028:	28 81       	ld	r18, Y
    202a:	25 37       	cpi	r18, 0x75	; 117
    202c:	79 f1       	breq	.+94     	; 0x208c <ProcessInput+0x844>
    202e:	27 36       	cpi	r18, 0x67	; 103
    2030:	09 f0       	breq	.+2      	; 0x2034 <ProcessInput+0x7ec>
    2032:	7e c0       	rjmp	.+252    	; 0x2130 <ProcessInput+0x8e8>
    2034:	2e c0       	rjmp	.+92     	; 0x2092 <ProcessInput+0x84a>
    2036:	e1 2e       	mov	r14, r17
    2038:	f1 2c       	mov	r15, r1
                        for (uint8_t x=0; x<2; x++) {
                            if (inventory[x]) { 
    203a:	f7 01       	movw	r30, r14
    203c:	ee 0f       	add	r30, r30
    203e:	ff 1f       	adc	r31, r31
    2040:	ea 56       	subi	r30, 0x6A	; 106
    2042:	f7 4c       	sbci	r31, 0xC7	; 199
    2044:	80 81       	ld	r24, Z
    2046:	91 81       	ldd	r25, Z+1	; 0x01
    2048:	00 97       	sbiw	r24, 0x00	; 0
    204a:	79 f0       	breq	.+30     	; 0x206a <ProcessInput+0x822>
    204c:	69 81       	ldd	r22, Y+1	; 0x01
                                if (CheckLetter(inventory[x], data[1])) {
    204e:	f5 d8       	rcall	.-3606   	; 0x123a <CheckLetter>
    2050:	88 23       	and	r24, r24
    2052:	59 f0       	breq	.+22     	; 0x206a <ProcessInput+0x822>
    2054:	f7 01       	movw	r30, r14
    2056:	ee 0f       	add	r30, r30
                                    PopulateObject(inventory[x], &actObj2);
    2058:	ff 1f       	adc	r31, r31
    205a:	ea 56       	subi	r30, 0x6A	; 106
    205c:	f7 4c       	sbci	r31, 0xC7	; 199
    205e:	6e ed       	ldi	r22, 0xDE	; 222
    2060:	78 e3       	ldi	r23, 0x38	; 56
    2062:	80 81       	ld	r24, Z
    2064:	91 81       	ldd	r25, Z+1	; 0x01
    2066:	4c d8       	rcall	.-3944   	; 0x1100 <PopulateObject>
    2068:	12 e0       	ldi	r17, 0x02	; 2
    206a:	11 30       	cpi	r17, 0x01	; 1
                                    x = 2;
    206c:	69 f4       	brne	.+26     	; 0x2088 <ProcessInput+0x840>
                                }
                            }
                            if (x == 1) { 
    206e:	ff 24       	eor	r15, r15
    2070:	f3 94       	inc	r15
                                SetResponse(elements++, A_NOTCARRYING, L_NOTCARRYING, TEASER);
    2072:	f0 0e       	add	r15, r16
    2074:	21 e0       	ldi	r18, 0x01	; 1
    2076:	41 e2       	ldi	r20, 0x21	; 33
    2078:	50 e0       	ldi	r21, 0x00	; 0
    207a:	6e e8       	ldi	r22, 0x8E	; 142
    207c:	79 e7       	ldi	r23, 0x79	; 121
    207e:	80 2f       	mov	r24, r16
    2080:	0e 94 1d 08 	call	0x103a	; 0x103a <SetResponse>
    2084:	18 82       	st	Y, r1
    2086:	0f 2d       	mov	r16, r15
                                data[0] = 0;
    2088:	1f 5f       	subi	r17, 0xFF	; 255
                                    PopulateObject(inventory[x], &actObj2);
                                    x = 2;
                                }
                            }
                            if (x == 1) { 
                                SetResponse(elements++, A_NOTCARRYING, L_NOTCARRYING, TEASER);
    208a:	05 c0       	rjmp	.+10     	; 0x2096 <ProcessInput+0x84e>
                route[currDepth+1] = FindChild(route[currDepth], data[inputLen-1], 0);
                if (route[currDepth+1]) {
                    
                    //Give item to person / use item on object 
                    if ((inputLen == 3)&&((data[0] == 'u')||(data[0] == 'g'))) {
                        for (uint8_t x=0; x<2; x++) {
    208c:	10 e0       	ldi	r17, 0x00	; 0
    208e:	00 e0       	ldi	r16, 0x00	; 0
    2090:	02 c0       	rjmp	.+4      	; 0x2096 <ProcessInput+0x84e>
    2092:	10 e0       	ldi	r17, 0x00	; 0
    2094:	00 e0       	ldi	r16, 0x00	; 0
    2096:	12 30       	cpi	r17, 0x02	; 2
    2098:	70 f2       	brcs	.-100    	; 0x2036 <ProcessInput+0x7ee>
    209a:	88 81       	ld	r24, Y
    209c:	88 23       	and	r24, r24
                                data[0] = 0;
                            }
                        }

                        //Both the item and person/object are found, check if action is legit
                        if (data[0]){
    209e:	09 f4       	brne	.+2      	; 0x20a2 <ProcessInput+0x85a>
    20a0:	1c c1       	rjmp	.+568    	; 0x22da <ProcessInput+0xa92>
    20a2:	e0 91 8f 38 	lds	r30, 0x388F	; 0x80388f <currDepth>
                            PopulateObject(route[currDepth+1], &actObj1);
    20a6:	f0 e0       	ldi	r31, 0x00	; 0
    20a8:	31 96       	adiw	r30, 0x01	; 1
    20aa:	ee 0f       	add	r30, r30
    20ac:	ff 1f       	adc	r31, r31
    20ae:	ee 5f       	subi	r30, 0xFE	; 254
    20b0:	f5 4c       	sbci	r31, 0xC5	; 197
    20b2:	66 e0       	ldi	r22, 0x06	; 6
    20b4:	79 e3       	ldi	r23, 0x39	; 57
    20b6:	80 81       	ld	r24, Z
    20b8:	91 81       	ldd	r25, Z+1	; 0x01
    20ba:	22 d8       	rcall	.-4028   	; 0x1100 <PopulateObject>
    20bc:	90 91 0f 39 	lds	r25, 0x390F	; 0x80390f <actObj1.3942+0x9>
    20c0:	80 91 e9 38 	lds	r24, 0x38E9	; 0x8038e9 <actObj2.3943+0xb>
                            if (actObj1.byteField[ACTION_ITEM] == actObj2.byteField[ITEM_NR]) {
    20c4:	98 13       	cpse	r25, r24
    20c6:	16 c0       	rjmp	.+44     	; 0x20f4 <ProcessInput+0x8ac>
    20c8:	0f 2e       	mov	r0, r31
    20ca:	f6 e0       	ldi	r31, 0x06	; 6
    20cc:	ef 2e       	mov	r14, r31
                                UpdateState(actObj1.byteField[ACTION_STATE]);
    20ce:	f9 e3       	ldi	r31, 0x39	; 57
    20d0:	ff 2e       	mov	r15, r31
    20d2:	f0 2d       	mov	r31, r0
    20d4:	f7 01       	movw	r30, r14
    20d6:	82 85       	ldd	r24, Z+10	; 0x0a
    20d8:	87 d8       	rcall	.-3826   	; 0x11e8 <UpdateState>
    20da:	11 e0       	ldi	r17, 0x01	; 1
    20dc:	10 0f       	add	r17, r16
    20de:	f7 01       	movw	r30, r14
    20e0:	46 a1       	ldd	r20, Z+38	; 0x26
                                SetResponse(elements++, actObj1.addrStr[ACTION_MSG], actObj1.lenStr[ACTION_MSG], GAME);
    20e2:	57 a1       	ldd	r21, Z+39	; 0x27
    20e4:	60 8d       	ldd	r22, Z+24	; 0x18
    20e6:	71 8d       	ldd	r23, Z+25	; 0x19
    20e8:	20 e0       	ldi	r18, 0x00	; 0
    20ea:	80 2f       	mov	r24, r16
    20ec:	0e 94 1d 08 	call	0x103a	; 0x103a <SetResponse>
    20f0:	01 2f       	mov	r16, r17
    20f2:	f3 c0       	rjmp	.+486    	; 0x22da <ProcessInput+0xa92>
    20f4:	88 81       	ld	r24, Y
    20f6:	85 37       	cpi	r24, 0x75	; 117
    20f8:	61 f4       	brne	.+24     	; 0x2112 <ProcessInput+0x8ca>
    20fa:	11 e0       	ldi	r17, 0x01	; 1
                            } else {
                                if (data[0] == 'u') {
    20fc:	10 0f       	add	r17, r16
    20fe:	21 e0       	ldi	r18, 0x01	; 1
    2100:	4a e1       	ldi	r20, 0x1A	; 26
                                    SetResponse(elements++, A_CANTUSE, L_CANTUSE, TEASER);
    2102:	50 e0       	ldi	r21, 0x00	; 0
    2104:	6e e2       	ldi	r22, 0x2E	; 46
    2106:	79 e7       	ldi	r23, 0x79	; 121
    2108:	80 2f       	mov	r24, r16
    210a:	0e 94 1d 08 	call	0x103a	; 0x103a <SetResponse>
    210e:	01 2f       	mov	r16, r17
    2110:	e4 c0       	rjmp	.+456    	; 0x22da <ProcessInput+0xa92>
    2112:	87 36       	cpi	r24, 0x67	; 103
    2114:	09 f0       	breq	.+2      	; 0x2118 <ProcessInput+0x8d0>
    2116:	e1 c0       	rjmp	.+450    	; 0x22da <ProcessInput+0xa92>
    2118:	11 e0       	ldi	r17, 0x01	; 1
                                } else if (data[0] == 'g') {
    211a:	10 0f       	add	r17, r16
    211c:	21 e0       	ldi	r18, 0x01	; 1
    211e:	48 e2       	ldi	r20, 0x28	; 40
                                    SetResponse(elements++, A_CANTGIVE, L_CANTGIVE, TEASER);                                    
    2120:	50 e0       	ldi	r21, 0x00	; 0
    2122:	69 e0       	ldi	r22, 0x09	; 9
    2124:	77 e7       	ldi	r23, 0x77	; 119
    2126:	80 2f       	mov	r24, r16
    2128:	0e 94 1d 08 	call	0x103a	; 0x103a <SetResponse>
    212c:	01 2f       	mov	r16, r17
    212e:	d5 c0       	rjmp	.+426    	; 0x22da <ProcessInput+0xa92>
    2130:	66 e0       	ldi	r22, 0x06	; 6
    2132:	79 e3       	ldi	r23, 0x39	; 57
    2134:	0e 94 80 08 	call	0x1100	; 0x1100 <PopulateObject>
                            }
                        }
                    
                    //Talk to person, read or use object (without item)                          
                    } else {
                        PopulateObject(route[currDepth+1], &actObj1);
    2138:	21 e0       	ldi	r18, 0x01	; 1
    213a:	41 e0       	ldi	r20, 0x01	; 1
    213c:	50 e0       	ldi	r21, 0x00	; 0
    213e:	6a e8       	ldi	r22, 0x8A	; 138
                        SetResponse(elements+1, A_SPACE, L_SPACE, TEASER);
    2140:	7a e7       	ldi	r23, 0x7A	; 122
    2142:	81 e0       	ldi	r24, 0x01	; 1
    2144:	0e 94 1d 08 	call	0x103a	; 0x103a <SetResponse>
    2148:	e6 e0       	ldi	r30, 0x06	; 6
    214a:	f9 e3       	ldi	r31, 0x39	; 57
    214c:	42 8d       	ldd	r20, Z+26	; 0x1a
                        SetResponse(elements+2, actObj1.addrStr[NAME], actObj1.lenStr[NAME], GAME);
    214e:	53 8d       	ldd	r21, Z+27	; 0x1b
    2150:	64 85       	ldd	r22, Z+12	; 0x0c
    2152:	75 85       	ldd	r23, Z+13	; 0x0d
    2154:	20 e0       	ldi	r18, 0x00	; 0
    2156:	82 e0       	ldi	r24, 0x02	; 2
    2158:	0e 94 1d 08 	call	0x103a	; 0x103a <SetResponse>
    215c:	88 81       	ld	r24, Y
    215e:	84 37       	cpi	r24, 0x74	; 116
    2160:	71 f4       	brne	.+28     	; 0x217e <ProcessInput+0x936>
                        elements += 3;
                        if ((data[0] == 't')&&(~actObj1.byteField[ACTION_MASK] & TALK)) {
    2162:	90 91 0e 39 	lds	r25, 0x390E	; 0x80390e <actObj1.3942+0x8>
    2166:	93 fd       	sbrc	r25, 3
    2168:	0a c0       	rjmp	.+20     	; 0x217e <ProcessInput+0x936>
    216a:	21 e0       	ldi	r18, 0x01	; 1
    216c:	4e e1       	ldi	r20, 0x1E	; 30
                            SetResponse(elements-3, A_WHYTALK, L_WHYTALK, TEASER);
    216e:	50 e0       	ldi	r21, 0x00	; 0
    2170:	68 e4       	ldi	r22, 0x48	; 72
    2172:	79 e7       	ldi	r23, 0x79	; 121
    2174:	80 e0       	ldi	r24, 0x00	; 0
    2176:	0e 94 1d 08 	call	0x103a	; 0x103a <SetResponse>
    217a:	03 e0       	ldi	r16, 0x03	; 3
    217c:	ae c0       	rjmp	.+348    	; 0x22da <ProcessInput+0xa92>
                    //Talk to person, read or use object (without item)                          
                    } else {
                        PopulateObject(route[currDepth+1], &actObj1);
                        SetResponse(elements+1, A_SPACE, L_SPACE, TEASER);
                        SetResponse(elements+2, actObj1.addrStr[NAME], actObj1.lenStr[NAME], GAME);
                        elements += 3;
    217e:	85 37       	cpi	r24, 0x75	; 117
                        if ((data[0] == 't')&&(~actObj1.byteField[ACTION_MASK] & TALK)) {
                            SetResponse(elements-3, A_WHYTALK, L_WHYTALK, TEASER);
    2180:	71 f4       	brne	.+28     	; 0x219e <ProcessInput+0x956>
                        } else if ((data[0] == 'u')&&(~actObj1.byteField[ACTION_MASK] & USE)) {
    2182:	90 91 0e 39 	lds	r25, 0x390E	; 0x80390e <actObj1.3942+0x8>
    2186:	94 fd       	sbrc	r25, 4
    2188:	0a c0       	rjmp	.+20     	; 0x219e <ProcessInput+0x956>
    218a:	21 e0       	ldi	r18, 0x01	; 1
    218c:	4a e1       	ldi	r20, 0x1A	; 26
                            SetResponse(elements-3, A_CANTUSE, L_CANTUSE, TEASER);
    218e:	50 e0       	ldi	r21, 0x00	; 0
    2190:	6e e2       	ldi	r22, 0x2E	; 46
    2192:	79 e7       	ldi	r23, 0x79	; 121
    2194:	80 e0       	ldi	r24, 0x00	; 0
    2196:	0e 94 1d 08 	call	0x103a	; 0x103a <SetResponse>
    219a:	03 e0       	ldi	r16, 0x03	; 3
    219c:	9e c0       	rjmp	.+316    	; 0x22da <ProcessInput+0xa92>
                    //Talk to person, read or use object (without item)                          
                    } else {
                        PopulateObject(route[currDepth+1], &actObj1);
                        SetResponse(elements+1, A_SPACE, L_SPACE, TEASER);
                        SetResponse(elements+2, actObj1.addrStr[NAME], actObj1.lenStr[NAME], GAME);
                        elements += 3;
    219e:	82 37       	cpi	r24, 0x72	; 114
                        if ((data[0] == 't')&&(~actObj1.byteField[ACTION_MASK] & TALK)) {
                            SetResponse(elements-3, A_WHYTALK, L_WHYTALK, TEASER);
                        } else if ((data[0] == 'u')&&(~actObj1.byteField[ACTION_MASK] & USE)) {
                            SetResponse(elements-3, A_CANTUSE, L_CANTUSE, TEASER);
    21a0:	71 f4       	brne	.+28     	; 0x21be <ProcessInput+0x976>
                        } else if ((data[0] == 'r')&&(~actObj1.byteField[ACTION_MASK] & READ)) {
    21a2:	80 91 0e 39 	lds	r24, 0x390E	; 0x80390e <actObj1.3942+0x8>
    21a6:	85 fd       	sbrc	r24, 5
    21a8:	0a c0       	rjmp	.+20     	; 0x21be <ProcessInput+0x976>
    21aa:	21 e0       	ldi	r18, 0x01	; 1
    21ac:	4b e1       	ldi	r20, 0x1B	; 27
                            SetResponse(elements-3, A_CANTREAD, L_CANTREAD, TEASER);
    21ae:	50 e0       	ldi	r21, 0x00	; 0
    21b0:	63 e1       	ldi	r22, 0x13	; 19
    21b2:	79 e7       	ldi	r23, 0x79	; 121
    21b4:	80 e0       	ldi	r24, 0x00	; 0
    21b6:	0e 94 1d 08 	call	0x103a	; 0x103a <SetResponse>
    21ba:	03 e0       	ldi	r16, 0x03	; 3
    21bc:	8e c0       	rjmp	.+284    	; 0x22da <ProcessInput+0xa92>
                    //Talk to person, read or use object (without item)                          
                    } else {
                        PopulateObject(route[currDepth+1], &actObj1);
                        SetResponse(elements+1, A_SPACE, L_SPACE, TEASER);
                        SetResponse(elements+2, actObj1.addrStr[NAME], actObj1.lenStr[NAME], GAME);
                        elements += 3;
    21be:	80 91 0d 39 	lds	r24, 0x390D	; 0x80390d <actObj1.3942+0x7>
                            SetResponse(elements-3, A_CANTUSE, L_CANTUSE, TEASER);
                        } else if ((data[0] == 'r')&&(~actObj1.byteField[ACTION_MASK] & READ)) {
                            SetResponse(elements-3, A_CANTREAD, L_CANTREAD, TEASER);
                        } else {
                            elements -= 3;
                            if (CheckState(actObj1.byteField[ACTION_ACL])){
    21c2:	24 d8       	rcall	.-4024   	; 0x120c <CheckState>
    21c4:	88 23       	and	r24, r24
    21c6:	79 f0       	breq	.+30     	; 0x21e6 <ProcessInput+0x99e>
    21c8:	06 e0       	ldi	r16, 0x06	; 6
    21ca:	19 e3       	ldi	r17, 0x39	; 57
    21cc:	f8 01       	movw	r30, r16
                                SetResponse(elements++, actObj1.addrStr[ACTION_MSG], actObj1.lenStr[ACTION_MSG], GAME);
    21ce:	46 a1       	ldd	r20, Z+38	; 0x26
    21d0:	57 a1       	ldd	r21, Z+39	; 0x27
    21d2:	60 8d       	ldd	r22, Z+24	; 0x18
    21d4:	71 8d       	ldd	r23, Z+25	; 0x19
    21d6:	20 e0       	ldi	r18, 0x00	; 0
    21d8:	80 e0       	ldi	r24, 0x00	; 0
    21da:	0e 94 1d 08 	call	0x103a	; 0x103a <SetResponse>
    21de:	f8 01       	movw	r30, r16
    21e0:	82 85       	ldd	r24, Z+10	; 0x0a
    21e2:	02 d8       	rcall	.-4092   	; 0x11e8 <UpdateState>
                                UpdateState(actObj1.byteField[ACTION_STATE]);
    21e4:	0a c0       	rjmp	.+20     	; 0x21fa <ProcessInput+0x9b2>
    21e6:	e6 e0       	ldi	r30, 0x06	; 6
    21e8:	f9 e3       	ldi	r31, 0x39	; 57
    21ea:	44 a1       	ldd	r20, Z+36	; 0x24
    21ec:	55 a1       	ldd	r21, Z+37	; 0x25
                            } else {
                                SetResponse(elements++, actObj1.addrStr[ACTION_ACL_MSG], actObj1.lenStr[ACTION_ACL_MSG], GAME);
    21ee:	66 89       	ldd	r22, Z+22	; 0x16
    21f0:	77 89       	ldd	r23, Z+23	; 0x17
    21f2:	20 e0       	ldi	r18, 0x00	; 0
    21f4:	80 e0       	ldi	r24, 0x00	; 0
    21f6:	0e 94 1d 08 	call	0x103a	; 0x103a <SetResponse>
    21fa:	40 91 24 39 	lds	r20, 0x3924	; 0x803924 <actObj1.3942+0x1e>
    21fe:	50 91 25 39 	lds	r21, 0x3925	; 0x803925 <actObj1.3942+0x1f>
                            }

                            //Special game
                            if (actObj1.lenStr[ACTION_STR1] == 1) {
    2202:	41 30       	cpi	r20, 0x01	; 1
    2204:	51 05       	cpc	r21, r1
    2206:	09 f4       	brne	.+2      	; 0x220a <ProcessInput+0x9c2>
    2208:	61 c0       	rjmp	.+194    	; 0x22cc <ProcessInput+0xa84>
    220a:	41 15       	cp	r20, r1
    220c:	51 05       	cpc	r21, r1
    220e:	09 f4       	brne	.+2      	; 0x2212 <ProcessInput+0x9ca>
    2210:	5f c0       	rjmp	.+190    	; 0x22d0 <ProcessInput+0xa88>
                                

                            //General request
                            } else if (actObj1.lenStr[ACTION_STR1]) {
    2212:	06 e0       	ldi	r16, 0x06	; 6
    2214:	19 e3       	ldi	r17, 0x39	; 57
    2216:	f8 01       	movw	r30, r16
    2218:	60 89       	ldd	r22, Z+16	; 0x10
                                SetResponse(elements++, actObj1.addrStr[ACTION_STR1], actObj1.lenStr[ACTION_STR1], GAME);
    221a:	71 89       	ldd	r23, Z+17	; 0x11
    221c:	20 e0       	ldi	r18, 0x00	; 0
    221e:	81 e0       	ldi	r24, 0x01	; 1
    2220:	0e 94 1d 08 	call	0x103a	; 0x103a <SetResponse>
    2224:	21 e0       	ldi	r18, 0x01	; 1
    2226:	41 e0       	ldi	r20, 0x01	; 1
    2228:	50 e0       	ldi	r21, 0x00	; 0
    222a:	66 e8       	ldi	r22, 0x86	; 134
                                SetResponse(elements++, A_LF, 1, TEASER);
    222c:	7a e7       	ldi	r23, 0x7A	; 122
    222e:	82 e0       	ldi	r24, 0x02	; 2
    2230:	0e 94 1d 08 	call	0x103a	; 0x103a <SetResponse>
    2234:	21 e0       	ldi	r18, 0x01	; 1
    2236:	42 e1       	ldi	r20, 0x12	; 18
    2238:	50 e0       	ldi	r21, 0x00	; 0
    223a:	6a ed       	ldi	r22, 0xDA	; 218
                                SetResponse(elements++, A_RESPONSE, L_RESPONSE, TEASER);
    223c:	78 e7       	ldi	r23, 0x78	; 120
    223e:	83 e0       	ldi	r24, 0x03	; 3
    2240:	0e 94 1d 08 	call	0x103a	; 0x103a <SetResponse>
    2244:	f8 01       	movw	r30, r16
    2246:	80 a1       	ldd	r24, Z+32	; 0x20
    2248:	91 a1       	ldd	r25, Z+33	; 0x21
    224a:	40 97       	sbiw	r24, 0x10	; 16
                                if (actObj1.lenStr[ACTION_STR2]>15) actObj1.lenStr[ACTION_STR2] = 15;
    224c:	30 f0       	brcs	.+12     	; 0x225a <ProcessInput+0xa12>
    224e:	8f e0       	ldi	r24, 0x0F	; 15
    2250:	90 e0       	ldi	r25, 0x00	; 0
    2252:	80 93 26 39 	sts	0x3926, r24	; 0x803926 <actObj1.3942+0x20>
    2256:	90 93 27 39 	sts	0x3927, r25	; 0x803927 <actObj1.3942+0x21>
    225a:	e6 e0       	ldi	r30, 0x06	; 6
    225c:	f9 e3       	ldi	r31, 0x39	; 57
    225e:	60 a1       	ldd	r22, Z+32	; 0x20
    2260:	21 e3       	ldi	r18, 0x31	; 49
                                ExtEERead(actObj1.addrStr[ACTION_STR2], actObj1.lenStr[ACTION_STR2], GAME, (uint8_t *)&specialInput[0]);
    2262:	39 e3       	ldi	r19, 0x39	; 57
    2264:	40 e0       	ldi	r20, 0x00	; 0
    2266:	82 89       	ldd	r24, Z+18	; 0x12
    2268:	93 89       	ldd	r25, Z+19	; 0x13
    226a:	0e 94 6b 07 	call	0xed6	; 0xed6 <ExtEERead>
    226e:	10 92 30 39 	sts	0x3930, r1	; 0x803930 <specialPassed>
    2272:	04 e0       	ldi	r16, 0x04	; 4
    2274:	32 c0       	rjmp	.+100    	; 0x22da <ProcessInput+0xa92>
                                specialPassed = 0;
    2276:	88 81       	ld	r24, Y
    2278:	84 37       	cpi	r24, 0x74	; 116

                            //General request
                            } else if (actObj1.lenStr[ACTION_STR1]) {
                                SetResponse(elements++, actObj1.addrStr[ACTION_STR1], actObj1.lenStr[ACTION_STR1], GAME);
                                SetResponse(elements++, A_LF, 1, TEASER);
                                SetResponse(elements++, A_RESPONSE, L_RESPONSE, TEASER);
    227a:	11 f0       	breq	.+4      	; 0x2280 <ProcessInput+0xa38>
    227c:	87 36       	cpi	r24, 0x67	; 103
                        }
                    }

                //Person or object not found
                } else {
                    if ((data[0] == 't')||(data[0] == 'g')){
    227e:	51 f4       	brne	.+20     	; 0x2294 <ProcessInput+0xa4c>
    2280:	21 e0       	ldi	r18, 0x01	; 1
    2282:	44 e1       	ldi	r20, 0x14	; 20
    2284:	50 e0       	ldi	r21, 0x00	; 0
    2286:	66 e6       	ldi	r22, 0x66	; 102
                        SetResponse(elements++, A_NOSUCHPERSON, L_NOSUCHPERSON, TEASER);
    2288:	79 e7       	ldi	r23, 0x79	; 121
    228a:	80 e0       	ldi	r24, 0x00	; 0
    228c:	0e 94 1d 08 	call	0x103a	; 0x103a <SetResponse>
    2290:	01 e0       	ldi	r16, 0x01	; 1
    2292:	23 c0       	rjmp	.+70     	; 0x22da <ProcessInput+0xa92>
    2294:	21 e0       	ldi	r18, 0x01	; 1
    2296:	44 e1       	ldi	r20, 0x14	; 20
    2298:	50 e0       	ldi	r21, 0x00	; 0
    229a:	6a e7       	ldi	r22, 0x7A	; 122
                    } else {
                        SetResponse(elements++, A_NOSUCHOBJECT, L_NOSUCHOBJECT, TEASER);
    229c:	79 e7       	ldi	r23, 0x79	; 121
    229e:	80 e0       	ldi	r24, 0x00	; 0
    22a0:	0e 94 1d 08 	call	0x103a	; 0x103a <SetResponse>
    22a4:	01 e0       	ldi	r16, 0x01	; 1
    22a6:	19 c0       	rjmp	.+50     	; 0x22da <ProcessInput+0xa92>
    22a8:	81 36       	cpi	r24, 0x61	; 97
    22aa:	a1 f4       	brne	.+40     	; 0x22d4 <ProcessInput+0xa8c>
    22ac:	80 91 30 39 	lds	r24, 0x3930	; 0x803930 <specialPassed>
                    }
                }
            }
        
        //Special answer given
        } else if (data[0] == 'a'){
    22b0:	82 30       	cpi	r24, 0x02	; 2
    22b2:	91 f0       	breq	.+36     	; 0x22d8 <ProcessInput+0xa90>
            if (specialPassed == 2) {
    22b4:	81 30       	cpi	r24, 0x01	; 1
    22b6:	21 f4       	brne	.+8      	; 0x22c0 <ProcessInput+0xa78>
    22b8:	10 92 31 39 	sts	0x3931, r1	; 0x803931 <specialInput>

            } else if (specialPassed == 1) {
    22bc:	00 e0       	ldi	r16, 0x00	; 0
    22be:	0d c0       	rjmp	.+26     	; 0x22da <ProcessInput+0xa92>
                
                specialInput[0] = 0;
    22c0:	10 92 31 39 	sts	0x3931, r1	; 0x803931 <specialInput>
}

//The game logic!
uint8_t ProcessInput(uint8_t *data){
    static object_model_t actObj1, actObj2;
    uint8_t elements = 0;
    22c4:	00 e0       	ldi	r16, 0x00	; 0
    22c6:	09 c0       	rjmp	.+18     	; 0x22da <ProcessInput+0xa92>
            } else if (specialPassed == 1) {
                
                specialInput[0] = 0;
            } else {

                specialInput[0] = 0;
    22c8:	00 e0       	ldi	r16, 0x00	; 0
    22ca:	07 c0       	rjmp	.+14     	; 0x22da <ProcessInput+0xa92>
}

//The game logic!
uint8_t ProcessInput(uint8_t *data){
    static object_model_t actObj1, actObj2;
    uint8_t elements = 0;
    22cc:	01 e0       	ldi	r16, 0x01	; 1
    22ce:	05 c0       	rjmp	.+10     	; 0x22da <ProcessInput+0xa92>
    22d0:	01 e0       	ldi	r16, 0x01	; 1
    22d2:	03 c0       	rjmp	.+6      	; 0x22da <ProcessInput+0xa92>
    22d4:	00 e0       	ldi	r16, 0x00	; 0
    22d6:	01 c0       	rjmp	.+2      	; 0x22da <ProcessInput+0xa92>
    22d8:	00 e0       	ldi	r16, 0x00	; 0
    22da:	18 82       	st	Y, r1
    22dc:	10 92 9c 38 	sts	0x389C, r1	; 0x80389c <serRxDone>
    22e0:	1d ba       	out	0x1d, r1	; 29
            ;//No clue, no valid input...
                
        }
            
        //Input handled
        data[0] = 0;
    22e2:	80 91 31 39 	lds	r24, 0x3931	; 0x803931 <specialInput>
        serRxDone = 0;
    22e6:	88 23       	and	r24, r24
        RXCNT = 0;
    22e8:	19 f0       	breq	.+6      	; 0x22f0 <ProcessInput+0xaa8>
        if (specialInput[0]) responseList = elements; else responseList = SetStandardResponse(elements);
    22ea:	00 93 41 39 	sts	0x3941, r16	; 0x803941 <responseList>
    22ee:	05 c0       	rjmp	.+10     	; 0x22fa <ProcessInput+0xab2>
    22f0:	80 2f       	mov	r24, r16
    22f2:	0e 94 38 08 	call	0x1070	; 0x1070 <SetStandardResponse>
    22f6:	80 93 41 39 	sts	0x3941, r24	; 0x803941 <responseList>
    22fa:	80 e0       	ldi	r24, 0x00	; 0
    22fc:	df 91       	pop	r29
    22fe:	cf 91       	pop	r28
    2300:	1f 91       	pop	r17
    }
    
    return 0;
}
    2302:	0f 91       	pop	r16
    2304:	ff 90       	pop	r15
    2306:	ef 90       	pop	r14
    2308:	df 90       	pop	r13
    230a:	08 95       	ret

0000230c <TextAdventure>:
    230c:	cf 93       	push	r28
    230e:	7f d8       	rcall	.-3842   	; 0x140e <CheckSend>
    2310:	81 11       	cpse	r24, r1
    2312:	0f c0       	rjmp	.+30     	; 0x2332 <TextAdventure+0x26>
    
    //Sending data to serial?
    if (CheckSend()) return 1;

    //Not sending? Process next response part to send
    if (CheckResponse()) return 1;        
    2314:	d9 d8       	rcall	.-3662   	; 0x14c8 <CheckResponse>
    2316:	81 11       	cpse	r24, r1
    2318:	0e c0       	rjmp	.+28     	; 0x2336 <TextAdventure+0x2a>

    //No responses to send, check if there is user input.
    if (CheckInput(&serInput[0])) return 2; //No (valid) input
    231a:	8d e9       	ldi	r24, 0x9D	; 157
    231c:	98 e3       	ldi	r25, 0x38	; 56
    231e:	1c d9       	rcall	.-3528   	; 0x1558 <CheckInput>
    2320:	c8 2f       	mov	r28, r24
    2322:	81 11       	cpse	r24, r1
    2324:	0a c0       	rjmp	.+20     	; 0x233a <TextAdventure+0x2e>

    //Input found, process and save (changes only)
    ProcessInput(&serInput[0]);
    2326:	8d e9       	ldi	r24, 0x9D	; 157
    2328:	98 e3       	ldi	r25, 0x38	; 56
    232a:	8e da       	rcall	.-2788   	; 0x1848 <ProcessInput>
    SaveGameState();
    232c:	0e 94 ea 05 	call	0xbd4	; 0xbd4 <SaveGameState>

    return 0;
    2330:	05 c0       	rjmp	.+10     	; 0x233c <TextAdventure+0x30>
// Main game loop
uint8_t TextAdventure(){
    static uint8_t serInput[RXLEN];
    
    //Sending data to serial?
    if (CheckSend()) return 1;
    2332:	c1 e0       	ldi	r28, 0x01	; 1
    2334:	03 c0       	rjmp	.+6      	; 0x233c <TextAdventure+0x30>

    //Not sending? Process next response part to send
    if (CheckResponse()) return 1;        
    2336:	c1 e0       	ldi	r28, 0x01	; 1
    2338:	01 c0       	rjmp	.+2      	; 0x233c <TextAdventure+0x30>

    //No responses to send, check if there is user input.
    if (CheckInput(&serInput[0])) return 2; //No (valid) input
    233a:	c2 e0       	ldi	r28, 0x02	; 2
    //Input found, process and save (changes only)
    ProcessInput(&serInput[0]);
    SaveGameState();

    return 0;
    233c:	8c 2f       	mov	r24, r28
    233e:	cf 91       	pop	r28
    2340:	08 95       	ret

00002342 <main>:


//This is where it begins, inits first and main program in while(1) loop.
int main(void)
{
    Setup();
    2342:	0e 94 ae 01 	call	0x35c	; 0x35c <Setup>

    //SerSpeed(1);
    //unsigned char strTest[]="\aHckerHotel2020 badge pest!\b\b\b\b\bt\n";
    //SerSend(&strTest[0]);

    SerSpeed(255);
    2346:	8f ef       	ldi	r24, 0xFF	; 255
    2348:	0e 94 07 05 	call	0xa0e	; 0xa0e <SerSpeed>
    ////Turn on LEDs on low setting to check for interrupt glitches
    for (uint8_t l=0; l<10; l++){
    234c:	20 e0       	ldi	r18, 0x00	; 0
    234e:	1d c0       	rjmp	.+58     	; 0x238a <main+0x48>
        for (uint8_t x=0; x<40; x++){
            iLED[x] = (1-(l%2))*255;
    2350:	e3 2f       	mov	r30, r19
    2352:	f0 e0       	ldi	r31, 0x00	; 0
    2354:	20 fd       	sbrc	r18, 0
    2356:	02 c0       	rjmp	.+4      	; 0x235c <main+0x1a>
    2358:	8f ef       	ldi	r24, 0xFF	; 255
    235a:	01 c0       	rjmp	.+2      	; 0x235e <main+0x1c>
    235c:	80 e0       	ldi	r24, 0x00	; 0
    235e:	eb 5f       	subi	r30, 0xFB	; 251
    2360:	f4 4c       	sbci	r31, 0xC4	; 196
    2362:	80 83       	st	Z, r24
            for(uint32_t p = 0; p<50000; p++);
    2364:	80 e0       	ldi	r24, 0x00	; 0
    2366:	90 e0       	ldi	r25, 0x00	; 0
    2368:	dc 01       	movw	r26, r24
    236a:	03 c0       	rjmp	.+6      	; 0x2372 <main+0x30>
    236c:	01 96       	adiw	r24, 0x01	; 1
    236e:	a1 1d       	adc	r26, r1
    2370:	b1 1d       	adc	r27, r1
    2372:	80 35       	cpi	r24, 0x50	; 80
    2374:	43 ec       	ldi	r20, 0xC3	; 195
    2376:	94 07       	cpc	r25, r20
    2378:	a1 05       	cpc	r26, r1
    237a:	b1 05       	cpc	r27, r1
    237c:	b8 f3       	brcs	.-18     	; 0x236c <main+0x2a>
    //SerSend(&strTest[0]);

    SerSpeed(255);
    ////Turn on LEDs on low setting to check for interrupt glitches
    for (uint8_t l=0; l<10; l++){
        for (uint8_t x=0; x<40; x++){
    237e:	3f 5f       	subi	r19, 0xFF	; 255
    2380:	01 c0       	rjmp	.+2      	; 0x2384 <main+0x42>
    2382:	30 e0       	ldi	r19, 0x00	; 0
    2384:	38 32       	cpi	r19, 0x28	; 40
    2386:	20 f3       	brcs	.-56     	; 0x2350 <main+0xe>
    //unsigned char strTest[]="\aHckerHotel2020 badge pest!\b\b\b\b\bt\n";
    //SerSend(&strTest[0]);

    SerSpeed(255);
    ////Turn on LEDs on low setting to check for interrupt glitches
    for (uint8_t l=0; l<10; l++){
    2388:	2f 5f       	subi	r18, 0xFF	; 255
    238a:	2a 30       	cpi	r18, 0x0A	; 10
    238c:	d0 f3       	brcs	.-12     	; 0x2382 <main+0x40>
    238e:	80 e0       	ldi	r24, 0x00	; 0
    2390:	11 c0       	rjmp	.+34     	; 0x23b4 <main+0x72>
            for(uint32_t p = 0; p<50000; p++);
        }
    }
    //"Hacker"
    for (uint8_t n=0; n<6; n++){
        iLED[HCKR[R][n]] = 1;
    2392:	a8 2f       	mov	r26, r24
    2394:	b0 e0       	ldi	r27, 0x00	; 0
    2396:	a8 50       	subi	r26, 0x08	; 8
    2398:	bb 45       	sbci	r27, 0x5B	; 91
    239a:	ec 91       	ld	r30, X
    239c:	f0 e0       	ldi	r31, 0x00	; 0
    239e:	eb 5f       	subi	r30, 0xFB	; 251
    23a0:	f4 4c       	sbci	r31, 0xC4	; 196
    23a2:	91 e0       	ldi	r25, 0x01	; 1
    23a4:	90 83       	st	Z, r25
        iLED[HCKR[G][n]] = 1;
    23a6:	16 96       	adiw	r26, 0x06	; 6
    23a8:	ec 91       	ld	r30, X
    23aa:	f0 e0       	ldi	r31, 0x00	; 0
    23ac:	eb 5f       	subi	r30, 0xFB	; 251
    23ae:	f4 4c       	sbci	r31, 0xC4	; 196
    23b0:	90 83       	st	Z, r25
            iLED[x] = (1-(l%2))*255;
            for(uint32_t p = 0; p<50000; p++);
        }
    }
    //"Hacker"
    for (uint8_t n=0; n<6; n++){
    23b2:	8f 5f       	subi	r24, 0xFF	; 255
    23b4:	86 30       	cpi	r24, 0x06	; 6
    23b6:	68 f3       	brcs	.-38     	; 0x2392 <main+0x50>
    23b8:	80 e0       	ldi	r24, 0x00	; 0
    23ba:	12 c0       	rjmp	.+36     	; 0x23e0 <main+0x9e>
        iLED[HCKR[G][n]] = 1;
    }

    //"Wings"
    for (uint8_t n=0; n<5; n++){
        iLED[WING[L][n]] = 1;
    23bc:	a8 2f       	mov	r26, r24
    23be:	b0 e0       	ldi	r27, 0x00	; 0
    23c0:	a6 51       	subi	r26, 0x16	; 22
    23c2:	bb 45       	sbci	r27, 0x5B	; 91
    23c4:	15 96       	adiw	r26, 0x05	; 5
    23c6:	ec 91       	ld	r30, X
    23c8:	15 97       	sbiw	r26, 0x05	; 5
    23ca:	f0 e0       	ldi	r31, 0x00	; 0
    23cc:	eb 5f       	subi	r30, 0xFB	; 251
    23ce:	f4 4c       	sbci	r31, 0xC4	; 196
    23d0:	91 e0       	ldi	r25, 0x01	; 1
    23d2:	90 83       	st	Z, r25
        iLED[WING[R][n]] = 1;
    23d4:	ec 91       	ld	r30, X
    23d6:	f0 e0       	ldi	r31, 0x00	; 0
    23d8:	eb 5f       	subi	r30, 0xFB	; 251
    23da:	f4 4c       	sbci	r31, 0xC4	; 196
    23dc:	90 83       	st	Z, r25
        iLED[HCKR[R][n]] = 1;
        iLED[HCKR[G][n]] = 1;
    }

    //"Wings"
    for (uint8_t n=0; n<5; n++){
    23de:	8f 5f       	subi	r24, 0xFF	; 255
    23e0:	85 30       	cpi	r24, 0x05	; 5
    23e2:	60 f3       	brcs	.-40     	; 0x23bc <main+0x7a>
        iLED[WING[L][n]] = 1;
        iLED[WING[R][n]] = 1;
    }    

    //"Others"
    iLED[EYE[G][R]] = 1;
    23e4:	a4 ef       	ldi	r26, 0xF4	; 244
    23e6:	b4 ea       	ldi	r27, 0xA4	; 164
    23e8:	12 96       	adiw	r26, 0x02	; 2
    23ea:	ec 91       	ld	r30, X
    23ec:	12 97       	sbiw	r26, 0x02	; 2
    23ee:	f0 e0       	ldi	r31, 0x00	; 0
    23f0:	eb 5f       	subi	r30, 0xFB	; 251
    23f2:	f4 4c       	sbci	r31, 0xC4	; 196
    23f4:	81 e0       	ldi	r24, 0x01	; 1
    23f6:	80 83       	st	Z, r24
    iLED[EYE[G][L]] = 1;
    23f8:	13 96       	adiw	r26, 0x03	; 3
    23fa:	ec 91       	ld	r30, X
    23fc:	13 97       	sbiw	r26, 0x03	; 3
    23fe:	f0 e0       	ldi	r31, 0x00	; 0
    2400:	eb 5f       	subi	r30, 0xFB	; 251
    2402:	f4 4c       	sbci	r31, 0xC4	; 196
    2404:	80 83       	st	Z, r24
    iLED[EYE[R][R]] = 1;
    2406:	ec 91       	ld	r30, X
    2408:	f0 e0       	ldi	r31, 0x00	; 0
    240a:	eb 5f       	subi	r30, 0xFB	; 251
    240c:	f4 4c       	sbci	r31, 0xC4	; 196
    240e:	80 83       	st	Z, r24
    iLED[EYE[R][L]] = 1;
    2410:	11 96       	adiw	r26, 0x01	; 1
    2412:	ec 91       	ld	r30, X
    2414:	f0 e0       	ldi	r31, 0x00	; 0
    2416:	eb 5f       	subi	r30, 0xFB	; 251
    2418:	f4 4c       	sbci	r31, 0xC4	; 196
    241a:	80 83       	st	Z, r24
    iLED[GEM[R]] = 1;
    241c:	a8 ee       	ldi	r26, 0xE8	; 232
    241e:	b4 ea       	ldi	r27, 0xA4	; 164
    2420:	ec 91       	ld	r30, X
    2422:	f0 e0       	ldi	r31, 0x00	; 0
    2424:	eb 5f       	subi	r30, 0xFB	; 251
    2426:	f4 4c       	sbci	r31, 0xC4	; 196
    2428:	80 83       	st	Z, r24
    iLED[GEM[G]] = 1;
    242a:	11 96       	adiw	r26, 0x01	; 1
    242c:	ec 91       	ld	r30, X
    242e:	f0 e0       	ldi	r31, 0x00	; 0
    2430:	eb 5f       	subi	r30, 0xFB	; 251
    2432:	f4 4c       	sbci	r31, 0xC4	; 196
    2434:	80 83       	st	Z, r24
    iLED[RAT] = 1;
    2436:	e0 91 e7 a4 	lds	r30, 0xA4E7	; 0x80a4e7 <__bss_end+0x6995>
    243a:	f0 e0       	ldi	r31, 0x00	; 0
    243c:	eb 5f       	subi	r30, 0xFB	; 251
    243e:	f4 4c       	sbci	r31, 0xC4	; 196
    2440:	80 83       	st	Z, r24
    iLED[CAT] = 1;
    2442:	e0 91 e6 a4 	lds	r30, 0xA4E6	; 0x80a4e6 <__bss_end+0x6994>
    2446:	f0 e0       	ldi	r31, 0x00	; 0
    2448:	eb 5f       	subi	r30, 0xFB	; 251
    244a:	f4 4c       	sbci	r31, 0xC4	; 196
    244c:	80 83       	st	Z, r24
    //uint8_t txBuffer[TXLEN];                    //Buffer for string data

    while (1)
    {
        GenerateAudio();
    244e:	0e 94 cf 06 	call	0xd9e	; 0xd9e <GenerateAudio>

        if (buttonMark){
    2452:	80 91 9a 38 	lds	r24, 0x389A	; 0x80389a <buttonMark>
    2456:	88 23       	and	r24, r24
    2458:	d1 f3       	breq	.-12     	; 0x244e <main+0x10c>
            buttonState = CheckButtons(buttonState);
    245a:	80 91 84 3a 	lds	r24, 0x3A84	; 0x803a84 <buttonState>
    245e:	0e 94 15 05 	call	0xa2a	; 0xa2a <CheckButtons>
    2462:	80 93 84 3a 	sts	0x3A84, r24	; 0x803a84 <buttonState>
            buttonMark = 0;
    2466:	10 92 9a 38 	sts	0x389A, r1	; 0x80389a <buttonMark>
                    if (serTxDone){
                        txBuffer[0] = buttonState;
                        SerSend(&txBuffer[0]);
                    }
*/
            TextAdventure();
    246a:	50 df       	rcall	.-352    	; 0x230c <TextAdventure>
          
            //Other games & user interaction checks
            //MagnetMaze();
            BastetDictates();
    246c:	0e 94 49 07 	call	0xe92	; 0xe92 <BastetDictates>
            //MasterMind-ishThing(); //Not sure if to be implemented
            //LanyardCode();
            //MakeFriends();
             
            //Check light sensor status (added hysteresis to preserve writing cycles to internal EEPROM)
            if (adcPhot < 10) WriteStatusBit(116, 1);
    2470:	80 91 e2 3a 	lds	r24, 0x3AE2	; 0x803ae2 <adcPhot>
    2474:	90 91 e3 3a 	lds	r25, 0x3AE3	; 0x803ae3 <adcPhot+0x1>
    2478:	0a 97       	sbiw	r24, 0x0a	; 10
    247a:	20 f4       	brcc	.+8      	; 0x2484 <main+0x142>
    247c:	61 e0       	ldi	r22, 0x01	; 1
    247e:	84 e7       	ldi	r24, 0x74	; 116
    2480:	0e 94 6d 06 	call	0xcda	; 0xcda <WriteStatusBit>
            if (adcPhot > 100) WriteStatusBit(116, 0);
    2484:	80 91 e2 3a 	lds	r24, 0x3AE2	; 0x803ae2 <adcPhot>
    2488:	90 91 e3 3a 	lds	r25, 0x3AE3	; 0x803ae3 <adcPhot+0x1>
    248c:	85 36       	cpi	r24, 0x65	; 101
    248e:	91 05       	cpc	r25, r1
    2490:	f0 f2       	brcs	.-68     	; 0x244e <main+0x10c>
    2492:	60 e0       	ldi	r22, 0x00	; 0
    2494:	84 e7       	ldi	r24, 0x74	; 116
    2496:	0e 94 6d 06 	call	0xcda	; 0xcda <WriteStatusBit>
    249a:	d9 cf       	rjmp	.-78     	; 0x244e <main+0x10c>

0000249c <__udivmodhi4>:
    249c:	aa 1b       	sub	r26, r26
    249e:	bb 1b       	sub	r27, r27
    24a0:	51 e1       	ldi	r21, 0x11	; 17
    24a2:	07 c0       	rjmp	.+14     	; 0x24b2 <__udivmodhi4_ep>

000024a4 <__udivmodhi4_loop>:
    24a4:	aa 1f       	adc	r26, r26
    24a6:	bb 1f       	adc	r27, r27
    24a8:	a6 17       	cp	r26, r22
    24aa:	b7 07       	cpc	r27, r23
    24ac:	10 f0       	brcs	.+4      	; 0x24b2 <__udivmodhi4_ep>
    24ae:	a6 1b       	sub	r26, r22
    24b0:	b7 0b       	sbc	r27, r23

000024b2 <__udivmodhi4_ep>:
    24b2:	88 1f       	adc	r24, r24
    24b4:	99 1f       	adc	r25, r25
    24b6:	5a 95       	dec	r21
    24b8:	a9 f7       	brne	.-22     	; 0x24a4 <__udivmodhi4_loop>
    24ba:	80 95       	com	r24
    24bc:	90 95       	com	r25
    24be:	bc 01       	movw	r22, r24
    24c0:	cd 01       	movw	r24, r26
    24c2:	08 95       	ret

000024c4 <__umulhisi3>:
    24c4:	a2 9f       	mul	r26, r18
    24c6:	b0 01       	movw	r22, r0
    24c8:	b3 9f       	mul	r27, r19
    24ca:	c0 01       	movw	r24, r0
    24cc:	a3 9f       	mul	r26, r19
    24ce:	70 0d       	add	r23, r0
    24d0:	81 1d       	adc	r24, r1
    24d2:	11 24       	eor	r1, r1
    24d4:	91 1d       	adc	r25, r1
    24d6:	b2 9f       	mul	r27, r18
    24d8:	70 0d       	add	r23, r0
    24da:	81 1d       	adc	r24, r1
    24dc:	11 24       	eor	r1, r1
    24de:	91 1d       	adc	r25, r1
    24e0:	08 95       	ret

000024e2 <_exit>:
    24e2:	f8 94       	cli

000024e4 <__stop_program>:
    24e4:	ff cf       	rjmp	.-2      	; 0x24e4 <__stop_program>
