
ISR_IO.elf:     file format elf32-avr

Sections:
Idx Name          Size      VMA       LMA       File off  Algn
  0 .data         0000002e  00803800  00003e92  00003f46  2**0
                  CONTENTS, ALLOC, LOAD, DATA
  1 .text         00003d90  00000000  00000000  000000b4  2**1
                  CONTENTS, ALLOC, LOAD, READONLY, CODE
  2 .rodata       00000102  0000bd90  00003d90  00003e44  2**0
                  CONTENTS, ALLOC, LOAD, READONLY, DATA
  3 .bss          000002ec  0080382e  0080382e  00003f74  2**0
                  ALLOC
  4 .comment      00000030  00000000  00000000  00003f74  2**0
                  CONTENTS, READONLY
  5 .note.gnu.avr.deviceinfo 00000040  00000000  00000000  00003fa4  2**2
                  CONTENTS, READONLY
  6 .debug_aranges 00000328  00000000  00000000  00003fe4  2**0
                  CONTENTS, READONLY, DEBUGGING
  7 .debug_info   00006cfd  00000000  00000000  0000430c  2**0
                  CONTENTS, READONLY, DEBUGGING
  8 .debug_abbrev 0000291e  00000000  00000000  0000b009  2**0
                  CONTENTS, READONLY, DEBUGGING
  9 .debug_line   00003b72  00000000  00000000  0000d927  2**0
                  CONTENTS, READONLY, DEBUGGING
 10 .debug_frame  0000098c  00000000  00000000  0001149c  2**2
                  CONTENTS, READONLY, DEBUGGING
 11 .debug_str    00001a3c  00000000  00000000  00011e28  2**0
                  CONTENTS, READONLY, DEBUGGING
 12 .debug_loc    00004563  00000000  00000000  00013864  2**0
                  CONTENTS, READONLY, DEBUGGING
 13 .debug_ranges 000003b0  00000000  00000000  00017dc7  2**0
                  CONTENTS, READONLY, DEBUGGING

Disassembly of section .text:

00000000 <__vectors>:
       0:	3d c0       	rjmp	.+122    	; 0x7c <__ctors_end>
       2:	00 00       	nop
       4:	58 c0       	rjmp	.+176    	; 0xb6 <__bad_interrupt>
       6:	00 00       	nop
       8:	56 c0       	rjmp	.+172    	; 0xb6 <__bad_interrupt>
       a:	00 00       	nop
       c:	54 c0       	rjmp	.+168    	; 0xb6 <__bad_interrupt>
       e:	00 00       	nop
      10:	52 c0       	rjmp	.+164    	; 0xb6 <__bad_interrupt>
      12:	00 00       	nop
      14:	50 c0       	rjmp	.+160    	; 0xb6 <__bad_interrupt>
      16:	00 00       	nop
      18:	0c 94 48 08 	jmp	0x1090	; 0x1090 <__vector_6>
      1c:	0c 94 92 08 	jmp	0x1124	; 0x1124 <__vector_7>
      20:	6a c6       	rjmp	.+3284   	; 0xcf6 <__vector_8>
      22:	00 00       	nop
      24:	48 c0       	rjmp	.+144    	; 0xb6 <__bad_interrupt>
      26:	00 00       	nop
      28:	46 c0       	rjmp	.+140    	; 0xb6 <__bad_interrupt>
      2a:	00 00       	nop
      2c:	44 c0       	rjmp	.+136    	; 0xb6 <__bad_interrupt>
      2e:	00 00       	nop
      30:	42 c0       	rjmp	.+132    	; 0xb6 <__bad_interrupt>
      32:	00 00       	nop
      34:	b1 c6       	rjmp	.+3426   	; 0xd98 <__vector_13>
      36:	00 00       	nop
      38:	e2 c6       	rjmp	.+3524   	; 0xdfe <__vector_14>
      3a:	00 00       	nop
      3c:	3c c0       	rjmp	.+120    	; 0xb6 <__bad_interrupt>
      3e:	00 00       	nop
      40:	3a c0       	rjmp	.+116    	; 0xb6 <__bad_interrupt>
      42:	00 00       	nop
      44:	38 c0       	rjmp	.+112    	; 0xb6 <__bad_interrupt>
      46:	00 00       	nop
      48:	36 c0       	rjmp	.+108    	; 0xb6 <__bad_interrupt>
      4a:	00 00       	nop
      4c:	34 c0       	rjmp	.+104    	; 0xb6 <__bad_interrupt>
      4e:	00 00       	nop
      50:	a0 c7       	rjmp	.+3904   	; 0xf92 <__vector_20>
      52:	00 00       	nop
      54:	30 c0       	rjmp	.+96     	; 0xb6 <__bad_interrupt>
      56:	00 00       	nop
      58:	d3 c7       	rjmp	.+4006   	; 0x1000 <__vector_22>
      5a:	00 00       	nop
      5c:	2c c0       	rjmp	.+88     	; 0xb6 <__bad_interrupt>
      5e:	00 00       	nop
      60:	2a c0       	rjmp	.+84     	; 0xb6 <__bad_interrupt>
      62:	00 00       	nop
      64:	28 c0       	rjmp	.+80     	; 0xb6 <__bad_interrupt>
      66:	00 00       	nop
      68:	26 c0       	rjmp	.+76     	; 0xb6 <__bad_interrupt>
      6a:	00 00       	nop
      6c:	1b c7       	rjmp	.+3638   	; 0xea4 <__vector_27>
      6e:	00 00       	nop
      70:	74 c7       	rjmp	.+3816   	; 0xf5a <__vector_28>
      72:	00 00       	nop
      74:	20 c0       	rjmp	.+64     	; 0xb6 <__bad_interrupt>
      76:	00 00       	nop
      78:	1e c0       	rjmp	.+60     	; 0xb6 <__bad_interrupt>
	...

0000007c <__ctors_end>:
      7c:	11 24       	eor	r1, r1
      7e:	1f be       	out	0x3f, r1	; 63
      80:	cf ef       	ldi	r28, 0xFF	; 255
      82:	cd bf       	out	0x3d, r28	; 61
      84:	df e3       	ldi	r29, 0x3F	; 63
      86:	de bf       	out	0x3e, r29	; 62

00000088 <__do_copy_data>:
      88:	18 e3       	ldi	r17, 0x38	; 56
      8a:	a0 e0       	ldi	r26, 0x00	; 0
      8c:	b8 e3       	ldi	r27, 0x38	; 56
      8e:	e2 e9       	ldi	r30, 0x92	; 146
      90:	fe e3       	ldi	r31, 0x3E	; 62
      92:	02 c0       	rjmp	.+4      	; 0x98 <__do_copy_data+0x10>
      94:	05 90       	lpm	r0, Z+
      96:	0d 92       	st	X+, r0
      98:	ae 32       	cpi	r26, 0x2E	; 46
      9a:	b1 07       	cpc	r27, r17
      9c:	d9 f7       	brne	.-10     	; 0x94 <__do_copy_data+0xc>

0000009e <__do_clear_bss>:
      9e:	2b e3       	ldi	r18, 0x3B	; 59
      a0:	ae e2       	ldi	r26, 0x2E	; 46
      a2:	b8 e3       	ldi	r27, 0x38	; 56
      a4:	01 c0       	rjmp	.+2      	; 0xa8 <.do_clear_bss_start>

000000a6 <.do_clear_bss_loop>:
      a6:	1d 92       	st	X+, r1

000000a8 <.do_clear_bss_start>:
      a8:	aa 31       	cpi	r26, 0x1A	; 26
      aa:	b2 07       	cpc	r27, r18
      ac:	e1 f7       	brne	.-8      	; 0xa6 <.do_clear_bss_loop>
      ae:	0e 94 bf 1d 	call	0x3b7e	; 0x3b7e <main>
      b2:	0c 94 c6 1e 	jmp	0x3d8c	; 0x3d8c <_exit>

000000b6 <__bad_interrupt>:
      b6:	a4 cf       	rjmp	.-184    	; 0x0 <__vectors>

000000b8 <chkVolt250>:
#include <main_def.h>
#include <resources.h>
#include <I2C.h>

//Returns measured voltage * 4 (2V returns 8) if it is in the expected range (DELTA)
uint8_t chkVolt250(){
      b8:	20 91 32 38 	lds	r18, 0x3832	; 0x803832 <avgVolt.3773>
      bc:	85 e1       	ldi	r24, 0x15	; 21
      be:	90 e0       	ldi	r25, 0x00	; 0
    static uint8_t avgVolt = 0;
        
    for (uint8_t x=25; x<226; x+=25) {
        if ((auIn[0] > (x-DELTA)) && (auIn[0] < (x+DELTA))) {
      c0:	40 91 c2 3a 	lds	r20, 0x3AC2	; 0x803ac2 <auIn>
      c4:	50 e0       	ldi	r21, 0x00	; 0
      c6:	48 17       	cp	r20, r24
      c8:	59 07       	cpc	r21, r25
      ca:	74 f0       	brlt	.+28     	; 0xe8 <chkVolt250+0x30>
      cc:	40 91 c2 3a 	lds	r20, 0x3AC2	; 0x803ac2 <auIn>
      d0:	50 e0       	ldi	r21, 0x00	; 0
      d2:	bc 01       	movw	r22, r24
      d4:	68 5f       	subi	r22, 0xF8	; 248
      d6:	7f 4f       	sbci	r23, 0xFF	; 255
      d8:	64 17       	cp	r22, r20
      da:	75 07       	cpc	r23, r21
      dc:	2c f0       	brlt	.+10     	; 0xe8 <chkVolt250+0x30>
      de:	20 93 32 38 	sts	0x3832, r18	; 0x803832 <avgVolt.3773>
            break;
        }
        ++avgVolt;
    }
    return avgVolt;
      e2:	80 91 32 38 	lds	r24, 0x3832	; 0x803832 <avgVolt.3773>
      e6:	08 95       	ret
        
    for (uint8_t x=25; x<226; x+=25) {
        if ((auIn[0] > (x-DELTA)) && (auIn[0] < (x+DELTA))) {
            break;
        }
        ++avgVolt;
      e8:	2f 5f       	subi	r18, 0xFF	; 255
      ea:	49 96       	adiw	r24, 0x19	; 25

//Returns measured voltage * 4 (2V returns 8) if it is in the expected range (DELTA)
uint8_t chkVolt250(){
    static uint8_t avgVolt = 0;
        
    for (uint8_t x=25; x<226; x+=25) {
      ec:	86 3f       	cpi	r24, 0xF6	; 246
      ee:	91 05       	cpc	r25, r1
      f0:	39 f7       	brne	.-50     	; 0xc0 <chkVolt250+0x8>
      f2:	f5 cf       	rjmp	.-22     	; 0xde <chkVolt250+0x26>

000000f4 <MakeFriends>:
    }
    return avgVolt;
}

// Main game loop
uint8_t MakeFriends(){
      f4:	ef 92       	push	r14
      f6:	ff 92       	push	r15
      f8:	0f 93       	push	r16
      fa:	1f 93       	push	r17
      fc:	cf 93       	push	r28
      fe:	df 93       	push	r29
     100:	c4 e6       	ldi	r28, 0x64	; 100
    static uint8_t chkTmr = 0;
    static uint8_t jackIn = 0;
    static uint8_t candidate = 0;

    //Check if badge has found 3 friends
    uint8_t foundAll = 1;
     102:	d1 e0       	ldi	r29, 0x01	; 1
    for (uint8_t x=0; x<4; x++){
        if (CheckState(100+x) == 0) foundAll = 0;
     104:	8c 2f       	mov	r24, r28
     106:	0e 94 a5 0a 	call	0x154a	; 0x154a <CheckState>
     10a:	81 11       	cpse	r24, r1
     10c:	01 c0       	rjmp	.+2      	; 0x110 <MakeFriends+0x1c>
     10e:	d0 e0       	ldi	r29, 0x00	; 0
     110:	cf 5f       	subi	r28, 0xFF	; 255
    static uint8_t jackIn = 0;
    static uint8_t candidate = 0;

    //Check if badge has found 3 friends
    uint8_t foundAll = 1;
    for (uint8_t x=0; x<4; x++){
     112:	c8 36       	cpi	r28, 0x68	; 104
     114:	b9 f7       	brne	.-18     	; 0x104 <MakeFriends+0x10>
        if (CheckState(100+x) == 0) foundAll = 0;
    }
    if (foundAll) UpdateState(124);
     116:	dd 23       	and	r29, r29
     118:	19 f0       	breq	.+6      	; 0x120 <MakeFriends+0x2c>
     11a:	8c e7       	ldi	r24, 0x7C	; 124
     11c:	0e 94 9b 0a 	call	0x1536	; 0x1536 <UpdateState>


    //Checking for headphones
    if (detHdPh) return 0;
     120:	80 91 bf 3a 	lds	r24, 0x3ABF	; 0x803abf <detHdPh>
     124:	81 11       	cpse	r24, r1
     126:	1e c1       	rjmp	.+572    	; 0x364 <MakeFriends+0x270>

    //Audio off, set voltage level (setDAC[0]*10mV)
    if (progress == NO_OTHER) {
     128:	80 91 31 38 	lds	r24, 0x3831	; 0x803831 <progress.3780>
     12c:	81 11       	cpse	r24, r1
     12e:	11 c0       	rjmp	.+34     	; 0x152 <MakeFriends+0x5e>
        setDAC[0] = whoami * 50;
     130:	90 91 3d 38 	lds	r25, 0x383D	; 0x80383d <whoami>
     134:	22 e3       	ldi	r18, 0x32	; 50
     136:	92 9f       	mul	r25, r18
     138:	90 2d       	mov	r25, r0
     13a:	11 24       	eor	r1, r1
     13c:	90 93 00 38 	sts	0x3800, r25	; 0x803800 <__data_start>
        auRepAddr = &setDAC[0];
     140:	20 e0       	ldi	r18, 0x00	; 0
     142:	38 e3       	ldi	r19, 0x38	; 56
     144:	20 93 05 38 	sts	0x3805, r18	; 0x803805 <auRepAddr>
     148:	30 93 06 38 	sts	0x3806, r19	; 0x803806 <auRepAddr+0x1>
        auVolume = 255;
     14c:	9f ef       	ldi	r25, 0xFF	; 255
     14e:	90 93 b6 3a 	sts	0x3AB6, r25	; 0x803ab6 <auVolume>
    }

    //Check for other badges
    if ((auIn[0] < (setDAC[0] - DELTA)) || (auIn[0] > (setDAC[0] + DELTA)) ||((progress > FIRST_CONTACT))) {
     152:	40 91 c2 3a 	lds	r20, 0x3AC2	; 0x803ac2 <auIn>
     156:	20 91 00 38 	lds	r18, 0x3800	; 0x803800 <__data_start>
     15a:	30 e0       	ldi	r19, 0x00	; 0
     15c:	50 e0       	ldi	r21, 0x00	; 0
     15e:	b9 01       	movw	r22, r18
     160:	65 50       	subi	r22, 0x05	; 5
     162:	71 09       	sbc	r23, r1
     164:	46 17       	cp	r20, r22
     166:	57 07       	cpc	r21, r23
     168:	64 f0       	brlt	.+24     	; 0x182 <MakeFriends+0x8e>
     16a:	40 91 c2 3a 	lds	r20, 0x3AC2	; 0x803ac2 <auIn>
     16e:	50 e0       	ldi	r21, 0x00	; 0
     170:	2b 5f       	subi	r18, 0xFB	; 251
     172:	3f 4f       	sbci	r19, 0xFF	; 255
     174:	24 17       	cp	r18, r20
     176:	35 07       	cpc	r19, r21
     178:	24 f0       	brlt	.+8      	; 0x182 <MakeFriends+0x8e>
     17a:	82 30       	cpi	r24, 0x02	; 2
     17c:	08 f0       	brcs	.+2      	; 0x180 <MakeFriends+0x8c>
     17e:	40 c0       	rjmp	.+128    	; 0x200 <MakeFriends+0x10c>
     180:	ef c0       	rjmp	.+478    	; 0x360 <MakeFriends+0x26c>
        if (progress == NO_OTHER) {
     182:	81 11       	cpse	r24, r1
     184:	0a c0       	rjmp	.+20     	; 0x19a <MakeFriends+0xa6>
            ++chkTmr;
     186:	80 91 30 38 	lds	r24, 0x3830	; 0x803830 <chkTmr.3782>
     18a:	8f 5f       	subi	r24, 0xFF	; 255
     18c:	80 93 30 38 	sts	0x3830, r24	; 0x803830 <chkTmr.3782>
            if (chkTmr >= 8) {
     190:	88 30       	cpi	r24, 0x08	; 8
     192:	08 f4       	brcc	.+2      	; 0x196 <MakeFriends+0xa2>
     194:	e7 c0       	rjmp	.+462    	; 0x364 <MakeFriends+0x270>
                progress = FIRST_CONTACT;
     196:	81 e0       	ldi	r24, 0x01	; 1
     198:	81 c0       	rjmp	.+258    	; 0x29c <MakeFriends+0x1a8>
                chkTmr = 0;
            }
        }

        //Candidate found, check ranges
        else if (progress == FIRST_CONTACT) {
     19a:	81 30       	cpi	r24, 0x01	; 1
     19c:	89 f5       	brne	.+98     	; 0x200 <MakeFriends+0x10c>
            jackIn = chkVolt250();
     19e:	8c df       	rcall	.-232    	; 0xb8 <chkVolt250>
     1a0:	80 93 2f 38 	sts	0x382F, r24	; 0x80382f <jackIn.3783>
            if (jackIn) {
     1a4:	88 23       	and	r24, r24
     1a6:	49 f1       	breq	.+82     	; 0x1fa <MakeFriends+0x106>
                ++chkTmr;
     1a8:	90 91 30 38 	lds	r25, 0x3830	; 0x803830 <chkTmr.3782>
     1ac:	9f 5f       	subi	r25, 0xFF	; 255
     1ae:	90 93 30 38 	sts	0x3830, r25	; 0x803830 <chkTmr.3782>
                if (chkTmr >= SHORT_WAIT){
     1b2:	98 30       	cpi	r25, 0x08	; 8
     1b4:	08 f4       	brcc	.+2      	; 0x1b8 <MakeFriends+0xc4>
     1b6:	d6 c0       	rjmp	.+428    	; 0x364 <MakeFriends+0x270>
                    if ((whoami == 1)&&((jackIn == 3)||(jackIn == 4)||(jackIn == 5))) {
     1b8:	90 91 3d 38 	lds	r25, 0x383D	; 0x80383d <whoami>
     1bc:	91 30       	cpi	r25, 0x01	; 1
     1be:	29 f4       	brne	.+10     	; 0x1ca <MakeFriends+0xd6>
     1c0:	83 50       	subi	r24, 0x03	; 3
     1c2:	83 30       	cpi	r24, 0x03	; 3
     1c4:	b8 f4       	brcc	.+46     	; 0x1f4 <MakeFriends+0x100>
                        progress = SECOND_LOVE; 
     1c6:	82 e0       	ldi	r24, 0x02	; 2
     1c8:	69 c0       	rjmp	.+210    	; 0x29c <MakeFriends+0x1a8>
                    } else if ((whoami == 2)&&((jackIn == 3)||(jackIn == 5)||(jackIn == 6))) {
     1ca:	92 30       	cpi	r25, 0x02	; 2
     1cc:	31 f4       	brne	.+12     	; 0x1da <MakeFriends+0xe6>
     1ce:	83 30       	cpi	r24, 0x03	; 3
     1d0:	d1 f3       	breq	.-12     	; 0x1c6 <MakeFriends+0xd2>
     1d2:	85 50       	subi	r24, 0x05	; 5
     1d4:	82 30       	cpi	r24, 0x02	; 2
     1d6:	70 f4       	brcc	.+28     	; 0x1f4 <MakeFriends+0x100>
     1d8:	f6 cf       	rjmp	.-20     	; 0x1c6 <MakeFriends+0xd2>
                        progress = SECOND_LOVE;
                    } else  if ((whoami == 3)&&((jackIn == 4)||(jackIn == 5)||(jackIn == 7))) {
     1da:	93 30       	cpi	r25, 0x03	; 3
     1dc:	39 f4       	brne	.+14     	; 0x1ec <MakeFriends+0xf8>
     1de:	9c ef       	ldi	r25, 0xFC	; 252
     1e0:	98 0f       	add	r25, r24
     1e2:	92 30       	cpi	r25, 0x02	; 2
     1e4:	80 f3       	brcs	.-32     	; 0x1c6 <MakeFriends+0xd2>
     1e6:	87 30       	cpi	r24, 0x07	; 7
     1e8:	29 f4       	brne	.+10     	; 0x1f4 <MakeFriends+0x100>
     1ea:	ed cf       	rjmp	.-38     	; 0x1c6 <MakeFriends+0xd2>
                        progress = SECOND_LOVE;
                    } else if ((whoami == 4)&&((jackIn == 5)||(jackIn == 6)||(jackIn == 7))) {
     1ec:	94 30       	cpi	r25, 0x04	; 4
     1ee:	11 f4       	brne	.+4      	; 0x1f4 <MakeFriends+0x100>
     1f0:	85 50       	subi	r24, 0x05	; 5
     1f2:	e7 cf       	rjmp	.-50     	; 0x1c2 <MakeFriends+0xce>
                        progress = SECOND_LOVE;
                    } else progress = NO_OTHER;
     1f4:	10 92 31 38 	sts	0x3831, r1	; 0x803831 <progress.3780>
     1f8:	53 c0       	rjmp	.+166    	; 0x2a0 <MakeFriends+0x1ac>
                    chkTmr = 0;
                }
            } else {
                chkTmr = 0;
     1fa:	10 92 30 38 	sts	0x3830, r1	; 0x803830 <chkTmr.3782>
     1fe:	b0 c0       	rjmp	.+352    	; 0x360 <MakeFriends+0x26c>
                progress = NO_OTHER;
            }
        }

        //Wait for the other badge (and a bit longer)
        else if (progress == SECOND_LOVE){
     200:	82 30       	cpi	r24, 0x02	; 2
     202:	09 f0       	breq	.+2      	; 0x206 <MakeFriends+0x112>
     204:	50 c0       	rjmp	.+160    	; 0x2a6 <MakeFriends+0x1b2>
            ++chkTmr;
     206:	80 91 30 38 	lds	r24, 0x3830	; 0x803830 <chkTmr.3782>
     20a:	8f 5f       	subi	r24, 0xFF	; 255
     20c:	80 93 30 38 	sts	0x3830, r24	; 0x803830 <chkTmr.3782>
     210:	cc eb       	ldi	r28, 0xBC	; 188
     212:	dd eb       	ldi	r29, 0xBD	; 189
     214:	7e 01       	movw	r14, r28
            for (uint8_t x=0; x<5; ++x){
                iLED[WING[L][x]] = (lfsr() > 127)?dimValue:0;
     216:	0d 81       	ldd	r16, Y+5	; 0x05
     218:	10 e0       	ldi	r17, 0x00	; 0
     21a:	0e 94 77 09 	call	0x12ee	; 0x12ee <lfsr>
     21e:	87 ff       	sbrs	r24, 7
     220:	03 c0       	rjmp	.+6      	; 0x228 <MakeFriends+0x134>
     222:	80 91 0b 38 	lds	r24, 0x380B	; 0x80380b <dimValue>
     226:	01 c0       	rjmp	.+2      	; 0x22a <MakeFriends+0x136>
     228:	80 e0       	ldi	r24, 0x00	; 0
     22a:	f8 01       	movw	r30, r16
     22c:	e6 53       	subi	r30, 0x36	; 54
     22e:	f5 4c       	sbci	r31, 0xC5	; 197
     230:	80 83       	st	Z, r24
     232:	21 96       	adiw	r28, 0x01	; 1
                iLED[WING[R][x]] = (lfsr() > 127)?dimValue:0;
     234:	f7 01       	movw	r30, r14
     236:	00 81       	ld	r16, Z
     238:	10 e0       	ldi	r17, 0x00	; 0
     23a:	0e 94 77 09 	call	0x12ee	; 0x12ee <lfsr>
     23e:	87 ff       	sbrs	r24, 7
     240:	03 c0       	rjmp	.+6      	; 0x248 <MakeFriends+0x154>
     242:	80 91 0b 38 	lds	r24, 0x380B	; 0x80380b <dimValue>
     246:	01 c0       	rjmp	.+2      	; 0x24a <MakeFriends+0x156>
     248:	80 e0       	ldi	r24, 0x00	; 0
     24a:	f8 01       	movw	r30, r16
     24c:	e6 53       	subi	r30, 0x36	; 54
     24e:	f5 4c       	sbci	r31, 0xC5	; 197
     250:	80 83       	st	Z, r24
        }

        //Wait for the other badge (and a bit longer)
        else if (progress == SECOND_LOVE){
            ++chkTmr;
            for (uint8_t x=0; x<5; ++x){
     252:	fd eb       	ldi	r31, 0xBD	; 189
     254:	c1 3c       	cpi	r28, 0xC1	; 193
     256:	df 07       	cpc	r29, r31
     258:	e9 f6       	brne	.-70     	; 0x214 <MakeFriends+0x120>
                iLED[WING[L][x]] = (lfsr() > 127)?dimValue:0;
                iLED[WING[R][x]] = (lfsr() > 127)?dimValue:0;
            }
            if (chkTmr >= SHORT_WAIT) {
     25a:	80 91 30 38 	lds	r24, 0x3830	; 0x803830 <chkTmr.3782>
     25e:	88 30       	cpi	r24, 0x08	; 8
     260:	40 f0       	brcs	.+16     	; 0x272 <MakeFriends+0x17e>
                setDAC[0] = floatAround(0x80, 8, 100, 255); 
     262:	2f ef       	ldi	r18, 0xFF	; 255
     264:	44 e6       	ldi	r20, 0x64	; 100
     266:	68 e0       	ldi	r22, 0x08	; 8
     268:	80 e8       	ldi	r24, 0x80	; 128
     26a:	0e 94 c8 09 	call	0x1390	; 0x1390 <floatAround>
     26e:	80 93 00 38 	sts	0x3800, r24	; 0x803800 <__data_start>
            }
            //The badge with the lowest voltage will now go to 2.5V (impedance check, for people tricking the things with a power supply)
            if (chkTmr >= LONG_WAIT){
     272:	80 91 30 38 	lds	r24, 0x3830	; 0x803830 <chkTmr.3782>
     276:	8a 3f       	cpi	r24, 0xFA	; 250
     278:	08 f4       	brcc	.+2      	; 0x27c <MakeFriends+0x188>
     27a:	74 c0       	rjmp	.+232    	; 0x364 <MakeFriends+0x270>
                candidate = jackIn-whoami;
     27c:	90 91 3d 38 	lds	r25, 0x383D	; 0x80383d <whoami>
     280:	80 91 2f 38 	lds	r24, 0x382F	; 0x80382f <jackIn.3783>
     284:	89 1b       	sub	r24, r25
     286:	80 93 2e 38 	sts	0x382E, r24	; 0x80382e <__data_end>
                if (candidate > whoami) setDAC[0] = 250; else setDAC[0] = 0;
     28a:	98 17       	cp	r25, r24
     28c:	20 f4       	brcc	.+8      	; 0x296 <MakeFriends+0x1a2>
     28e:	8a ef       	ldi	r24, 0xFA	; 250
     290:	80 93 00 38 	sts	0x3800, r24	; 0x803800 <__data_start>
     294:	02 c0       	rjmp	.+4      	; 0x29a <MakeFriends+0x1a6>
     296:	10 92 00 38 	sts	0x3800, r1	; 0x803800 <__data_start>
                progress = THIRD_KISS;
     29a:	83 e0       	ldi	r24, 0x03	; 3
     29c:	80 93 31 38 	sts	0x3831, r24	; 0x803831 <progress.3780>
                chkTmr = 0;
     2a0:	10 92 30 38 	sts	0x3830, r1	; 0x803830 <chkTmr.3782>
     2a4:	5f c0       	rjmp	.+190    	; 0x364 <MakeFriends+0x270>
            }
        } 
        
        //Wait a bit, check Voltage again, if ok show who you connected with and your own number, save, exit
        else if (progress == THIRD_KISS) {
     2a6:	83 30       	cpi	r24, 0x03	; 3
     2a8:	e1 f5       	brne	.+120    	; 0x322 <MakeFriends+0x22e>
            chkTmr++;
     2aa:	80 91 30 38 	lds	r24, 0x3830	; 0x803830 <chkTmr.3782>
     2ae:	8f 5f       	subi	r24, 0xFF	; 255
     2b0:	80 93 30 38 	sts	0x3830, r24	; 0x803830 <chkTmr.3782>
            if (chkTmr >= SHORT_WAIT) {
     2b4:	88 30       	cpi	r24, 0x08	; 8
     2b6:	08 f4       	brcc	.+2      	; 0x2ba <MakeFriends+0x1c6>
                if (chkVolt250() == 5) {
     2b8:	55 c0       	rjmp	.+170    	; 0x364 <MakeFriends+0x270>
     2ba:	fe de       	rcall	.-516    	; 0xb8 <chkVolt250>
     2bc:	85 30       	cpi	r24, 0x05	; 5
     2be:	09 f0       	breq	.+2      	; 0x2c2 <MakeFriends+0x1ce>
     2c0:	99 cf       	rjmp	.-206    	; 0x1f4 <MakeFriends+0x100>
                    UpdateState(99+candidate);
     2c2:	80 91 2e 38 	lds	r24, 0x382E	; 0x80382e <__data_end>
     2c6:	8d 59       	subi	r24, 0x9D	; 157
     2c8:	0e 94 9b 0a 	call	0x1536	; 0x1536 <UpdateState>
                    UpdateState(99+whoami);
     2cc:	80 91 3d 38 	lds	r24, 0x383D	; 0x80383d <whoami>
     2d0:	8d 59       	subi	r24, 0x9D	; 157
     2d2:	0e 94 9b 0a 	call	0x1536	; 0x1536 <UpdateState>
                    for (uint8_t x=0; x<5; ++x){
                        iLED[WING[L][x]] = (x<candidate)?dimValue:0;
     2d6:	20 91 2e 38 	lds	r18, 0x382E	; 0x80382e <__data_end>
                        iLED[WING[R][x]] = (x<whoami)?dimValue:00;
     2da:	30 91 3d 38 	lds	r19, 0x383D	; 0x80383d <whoami>
     2de:	ac eb       	ldi	r26, 0xBC	; 188
     2e0:	bd eb       	ldi	r27, 0xBD	; 189
            chkTmr++;
            if (chkTmr >= SHORT_WAIT) {
                if (chkVolt250() == 5) {
                    UpdateState(99+candidate);
                    UpdateState(99+whoami);
                    for (uint8_t x=0; x<5; ++x){
     2e2:	80 e0       	ldi	r24, 0x00	; 0
     2e4:	ed 01       	movw	r28, r26
                        iLED[WING[L][x]] = (x<candidate)?dimValue:0;
     2e6:	15 96       	adiw	r26, 0x05	; 5
     2e8:	ec 91       	ld	r30, X
     2ea:	15 97       	sbiw	r26, 0x05	; 5
     2ec:	f0 e0       	ldi	r31, 0x00	; 0
     2ee:	82 17       	cp	r24, r18
     2f0:	18 f4       	brcc	.+6      	; 0x2f8 <MakeFriends+0x204>
     2f2:	90 91 0b 38 	lds	r25, 0x380B	; 0x80380b <dimValue>
     2f6:	01 c0       	rjmp	.+2      	; 0x2fa <MakeFriends+0x206>
     2f8:	90 e0       	ldi	r25, 0x00	; 0
     2fa:	e6 53       	subi	r30, 0x36	; 54
     2fc:	f5 4c       	sbci	r31, 0xC5	; 197
     2fe:	90 83       	st	Z, r25
     300:	11 96       	adiw	r26, 0x01	; 1
                        iLED[WING[R][x]] = (x<whoami)?dimValue:00;
     302:	e8 81       	ld	r30, Y
     304:	f0 e0       	ldi	r31, 0x00	; 0
     306:	83 17       	cp	r24, r19
     308:	18 f4       	brcc	.+6      	; 0x310 <MakeFriends+0x21c>
     30a:	90 91 0b 38 	lds	r25, 0x380B	; 0x80380b <dimValue>
     30e:	01 c0       	rjmp	.+2      	; 0x312 <MakeFriends+0x21e>
     310:	90 e0       	ldi	r25, 0x00	; 0
     312:	e6 53       	subi	r30, 0x36	; 54
     314:	f5 4c       	sbci	r31, 0xC5	; 197
     316:	90 83       	st	Z, r25
            chkTmr++;
            if (chkTmr >= SHORT_WAIT) {
                if (chkVolt250() == 5) {
                    UpdateState(99+candidate);
                    UpdateState(99+whoami);
                    for (uint8_t x=0; x<5; ++x){
     318:	8f 5f       	subi	r24, 0xFF	; 255
     31a:	85 30       	cpi	r24, 0x05	; 5
     31c:	19 f7       	brne	.-58     	; 0x2e4 <MakeFriends+0x1f0>
                        iLED[WING[L][x]] = (x<candidate)?dimValue:0;
                        iLED[WING[R][x]] = (x<whoami)?dimValue:00;
                    }   
                    progress = FOURTH_BASE;
     31e:	84 e0       	ldi	r24, 0x04	; 4
     320:	bd cf       	rjmp	.-134    	; 0x29c <MakeFriends+0x1a8>
                } else progress = NO_OTHER;                
                chkTmr = 0;
            }

        //Wait for divorce of force quit
        } else if (progress == FOURTH_BASE) {
     322:	84 30       	cpi	r24, 0x04	; 4
            if (chkVolt250() == 5) {
     324:	f9 f4       	brne	.+62     	; 0x364 <MakeFriends+0x270>
     326:	c8 de       	rcall	.-624    	; 0xb8 <chkVolt250>
     328:	85 30       	cpi	r24, 0x05	; 5
     32a:	e1 f4       	brne	.+56     	; 0x364 <MakeFriends+0x270>
                chkTmr++;
     32c:	80 91 30 38 	lds	r24, 0x3830	; 0x803830 <chkTmr.3782>
     330:	8f 5f       	subi	r24, 0xFF	; 255
     332:	80 93 30 38 	sts	0x3830, r24	; 0x803830 <chkTmr.3782>
                if (chkTmr >= LONG_WAIT) {
     336:	8a 3f       	cpi	r24, 0xFA	; 250
     338:	a8 f0       	brcs	.+42     	; 0x364 <MakeFriends+0x270>
     33a:	ec eb       	ldi	r30, 0xBC	; 188
     33c:	fd eb       	ldi	r31, 0xBD	; 189
     33e:	81 ec       	ldi	r24, 0xC1	; 193
     340:	9d eb       	ldi	r25, 0xBD	; 189
     342:	ef 01       	movw	r28, r30
                    for (uint8_t x=0; x<5; ++x){
                        iLED[WING[L][x]] = 0;
     344:	a5 81       	ldd	r26, Z+5	; 0x05
     346:	b0 e0       	ldi	r27, 0x00	; 0
     348:	a6 53       	subi	r26, 0x36	; 54
     34a:	b5 4c       	sbci	r27, 0xC5	; 197
     34c:	1c 92       	st	X, r1
     34e:	31 96       	adiw	r30, 0x01	; 1
                        iLED[WING[R][x]] = 0;
     350:	a8 81       	ld	r26, Y
     352:	b0 e0       	ldi	r27, 0x00	; 0
     354:	a6 53       	subi	r26, 0x36	; 54
     356:	b5 4c       	sbci	r27, 0xC5	; 197
     358:	1c 92       	st	X, r1
        //Wait for divorce of force quit
        } else if (progress == FOURTH_BASE) {
            if (chkVolt250() == 5) {
                chkTmr++;
                if (chkTmr >= LONG_WAIT) {
                    for (uint8_t x=0; x<5; ++x){
     35a:	8e 17       	cp	r24, r30
     35c:	9f 07       	cpc	r25, r31
     35e:	89 f7       	brne	.-30     	; 0x342 <MakeFriends+0x24e>
                    }                    
                }
            }
        }

    } else progress = NO_OTHER;
     360:	10 92 31 38 	sts	0x3831, r1	; 0x803831 <progress.3780>
      
    return 0;
}
     364:	80 e0       	ldi	r24, 0x00	; 0
     366:	df 91       	pop	r29
     368:	cf 91       	pop	r28
     36a:	1f 91       	pop	r17
     36c:	0f 91       	pop	r16
     36e:	ff 90       	pop	r15
     370:	ef 90       	pop	r14
     372:	08 95       	ret

00000374 <I2C_init>:
// the Atmel device documentation mentions a special command for repeated start TWI_MCMD_REPSTART_gc,
// but this is not used in Atmel's demo code, so we don't use it either

void I2C_rep_start(uint8_t shifted_addr)						    // send repeated start, device_addr + LSB set if READ
{
	TWI0.MADDR = shifted_addr;	
     374:	81 e0       	ldi	r24, 0x01	; 1
     376:	80 93 22 04 	sts	0x0422, r24	; 0x800422 <__TEXT_REGION_LENGTH__+0x700422>
     37a:	e6 e2       	ldi	r30, 0x26	; 38
     37c:	f4 e0       	ldi	r31, 0x04	; 4
     37e:	80 83       	st	Z, r24
     380:	10 92 30 04 	sts	0x0430, r1	; 0x800430 <__TEXT_REGION_LENGTH__+0x700430>
     384:	a1 e2       	ldi	r26, 0x21	; 33
     386:	b4 e0       	ldi	r27, 0x04	; 4
     388:	92 e0       	ldi	r25, 0x02	; 2
     38a:	9c 93       	st	X, r25
     38c:	90 83       	st	Z, r25
     38e:	10 92 31 04 	sts	0x0431, r1	; 0x800431 <__TEXT_REGION_LENGTH__+0x700431>
     392:	e0 e1       	ldi	r30, 0x10	; 16
     394:	f8 e0       	ldi	r31, 0x08	; 8
     396:	97 e0       	ldi	r25, 0x07	; 7
     398:	96 83       	std	Z+6, r25	; 0x06
     39a:	98 e0       	ldi	r25, 0x08	; 8
     39c:	94 83       	std	Z+4, r25	; 0x04
     39e:	83 83       	std	Z+3, r24	; 0x03
     3a0:	8c 93       	st	X, r24
     3a2:	85 81       	ldd	r24, Z+5	; 0x05
     3a4:	81 60       	ori	r24, 0x01	; 1
     3a6:	85 83       	std	Z+5, r24	; 0x05
     3a8:	85 81       	ldd	r24, Z+5	; 0x05
     3aa:	84 6c       	ori	r24, 0xC4	; 196
     3ac:	85 83       	std	Z+5, r24	; 0x05
     3ae:	08 95       	ret

000003b0 <I2C_recover>:
     3b0:	80 91 14 08 	lds	r24, 0x0814	; 0x800814 <__TEXT_REGION_LENGTH__+0x700814>
     3b4:	88 60       	ori	r24, 0x08	; 8
     3b6:	80 93 14 08 	sts	0x0814, r24	; 0x800814 <__TEXT_REGION_LENGTH__+0x700814>
     3ba:	10 92 13 08 	sts	0x0813, r1	; 0x800813 <__TEXT_REGION_LENGTH__+0x700813>
     3be:	82 e0       	ldi	r24, 0x02	; 2
     3c0:	80 93 22 04 	sts	0x0422, r24	; 0x800422 <__TEXT_REGION_LENGTH__+0x700422>
     3c4:	99 e0       	ldi	r25, 0x09	; 9
     3c6:	21 e0       	ldi	r18, 0x01	; 1
     3c8:	81 e0       	ldi	r24, 0x01	; 1
     3ca:	20 93 21 04 	sts	0x0421, r18	; 0x800421 <__TEXT_REGION_LENGTH__+0x700421>
     3ce:	30 e1       	ldi	r19, 0x10	; 16
     3d0:	3a 95       	dec	r19
     3d2:	f1 f7       	brne	.-4      	; 0x3d0 <I2C_recover+0x20>
     3d4:	00 c0       	rjmp	.+0      	; 0x3d6 <I2C_recover+0x26>
     3d6:	20 93 22 04 	sts	0x0422, r18	; 0x800422 <__TEXT_REGION_LENGTH__+0x700422>
     3da:	30 e1       	ldi	r19, 0x10	; 16
     3dc:	3a 95       	dec	r19
     3de:	f1 f7       	brne	.-4      	; 0x3dc <I2C_recover+0x2c>
     3e0:	00 c0       	rjmp	.+0      	; 0x3e2 <I2C_recover+0x32>
     3e2:	91 50       	subi	r25, 0x01	; 1
     3e4:	89 f7       	brne	.-30     	; 0x3c8 <I2C_recover+0x18>
     3e6:	28 e0       	ldi	r18, 0x08	; 8
     3e8:	20 93 14 08 	sts	0x0814, r18	; 0x800814 <__TEXT_REGION_LENGTH__+0x700814>
     3ec:	80 93 13 08 	sts	0x0813, r24	; 0x800813 <__TEXT_REGION_LENGTH__+0x700813>
     3f0:	92 e0       	ldi	r25, 0x02	; 2
     3f2:	90 93 21 04 	sts	0x0421, r25	; 0x800421 <__TEXT_REGION_LENGTH__+0x700421>
     3f6:	90 91 15 08 	lds	r25, 0x0815	; 0x800815 <__TEXT_REGION_LENGTH__+0x700815>
     3fa:	91 60       	ori	r25, 0x01	; 1
     3fc:	90 93 15 08 	sts	0x0815, r25	; 0x800815 <__TEXT_REGION_LENGTH__+0x700815>
     400:	90 91 15 08 	lds	r25, 0x0815	; 0x800815 <__TEXT_REGION_LENGTH__+0x700815>
     404:	94 6c       	ori	r25, 0xC4	; 196
     406:	90 93 15 08 	sts	0x0815, r25	; 0x800815 <__TEXT_REGION_LENGTH__+0x700815>
     40a:	20 93 14 08 	sts	0x0814, r18	; 0x800814 <__TEXT_REGION_LENGTH__+0x700814>
     40e:	80 93 13 08 	sts	0x0813, r24	; 0x800813 <__TEXT_REGION_LENGTH__+0x700813>
     412:	80 93 21 04 	sts	0x0421, r24	; 0x800421 <__TEXT_REGION_LENGTH__+0x700421>
     416:	80 91 15 08 	lds	r24, 0x0815	; 0x800815 <__TEXT_REGION_LENGTH__+0x700815>
     41a:	81 60       	ori	r24, 0x01	; 1
     41c:	80 93 15 08 	sts	0x0815, r24	; 0x800815 <__TEXT_REGION_LENGTH__+0x700815>
     420:	80 91 15 08 	lds	r24, 0x0815	; 0x800815 <__TEXT_REGION_LENGTH__+0x700815>
     424:	84 6c       	ori	r24, 0xC4	; 196
     426:	80 93 15 08 	sts	0x0815, r24	; 0x800815 <__TEXT_REGION_LENGTH__+0x700815>
     42a:	08 95       	ret

0000042c <I2C_start>:
     42c:	28 2f       	mov	r18, r24
     42e:	90 91 15 08 	lds	r25, 0x0815	; 0x800815 <__TEXT_REGION_LENGTH__+0x700815>
     432:	90 6c       	ori	r25, 0xC0	; 192
     434:	90 93 15 08 	sts	0x0815, r25	; 0x800815 <__TEXT_REGION_LENGTH__+0x700815>
     438:	90 91 15 08 	lds	r25, 0x0815	; 0x800815 <__TEXT_REGION_LENGTH__+0x700815>
     43c:	89 2f       	mov	r24, r25
     43e:	84 70       	andi	r24, 0x04	; 4
     440:	92 fd       	sbrc	r25, 2
     442:	03 c0       	rjmp	.+6      	; 0x44a <I2C_start+0x1e>
     444:	20 93 17 08 	sts	0x0817, r18	; 0x800817 <__TEXT_REGION_LENGTH__+0x700817>
     448:	08 95       	ret
     44a:	84 e0       	ldi	r24, 0x04	; 4
     44c:	08 95       	ret

0000044e <I2C_wait_ACK>:
     44e:	8c e0       	ldi	r24, 0x0C	; 12
     450:	80 93 60 3a 	sts	0x3A60, r24	; 0x803a60 <timeout_I2C>
     454:	80 91 15 08 	lds	r24, 0x0815	; 0x800815 <__TEXT_REGION_LENGTH__+0x700815>
     458:	87 fd       	sbrc	r24, 7
     45a:	0a c0       	rjmp	.+20     	; 0x470 <I2C_wait_ACK+0x22>
     45c:	80 91 15 08 	lds	r24, 0x0815	; 0x800815 <__TEXT_REGION_LENGTH__+0x700815>
     460:	86 fd       	sbrc	r24, 6
     462:	06 c0       	rjmp	.+12     	; 0x470 <I2C_wait_ACK+0x22>
     464:	80 91 60 3a 	lds	r24, 0x3A60	; 0x803a60 <timeout_I2C>
     468:	81 11       	cpse	r24, r1
     46a:	f4 cf       	rjmp	.-24     	; 0x454 <I2C_wait_ACK+0x6>
     46c:	8f ef       	ldi	r24, 0xFF	; 255
     46e:	08 95       	ret
     470:	80 91 15 08 	lds	r24, 0x0815	; 0x800815 <__TEXT_REGION_LENGTH__+0x700815>
     474:	80 6c       	ori	r24, 0xC0	; 192
     476:	80 93 15 08 	sts	0x0815, r24	; 0x800815 <__TEXT_REGION_LENGTH__+0x700815>
     47a:	80 91 15 08 	lds	r24, 0x0815	; 0x800815 <__TEXT_REGION_LENGTH__+0x700815>
     47e:	82 fd       	sbrc	r24, 2
     480:	09 c0       	rjmp	.+18     	; 0x494 <I2C_wait_ACK+0x46>
     482:	80 91 15 08 	lds	r24, 0x0815	; 0x800815 <__TEXT_REGION_LENGTH__+0x700815>
     486:	83 fd       	sbrc	r24, 3
     488:	07 c0       	rjmp	.+14     	; 0x498 <I2C_wait_ACK+0x4a>
     48a:	80 91 15 08 	lds	r24, 0x0815	; 0x800815 <__TEXT_REGION_LENGTH__+0x700815>
     48e:	82 95       	swap	r24
     490:	81 70       	andi	r24, 0x01	; 1
     492:	08 95       	ret
     494:	84 e0       	ldi	r24, 0x04	; 4
     496:	08 95       	ret
     498:	82 e0       	ldi	r24, 0x02	; 2
     49a:	08 95       	ret

0000049c <I2C_read>:
}

uint8_t	I2C_read(uint8_t *data, uint8_t ack_flag)					// read data, ack_flag 0: send ACK, 1: send NACK, returns status
{
     49c:	fc 01       	movw	r30, r24
	timeout_I2C = READ_TIMEOUT;										// reset timeout counter, will be decremented by LED matrix interrupt
     49e:	8c e0       	ldi	r24, 0x0C	; 12
     4a0:	80 93 60 3a 	sts	0x3A60, r24	; 0x803a60 <timeout_I2C>
	if ((TWI0.MSTATUS & TWI_BUSSTATE_gm) == TWI_BUSSTATE_OWNER_gc)	// if master controls bus
     4a4:	90 91 15 08 	lds	r25, 0x0815	; 0x800815 <__TEXT_REGION_LENGTH__+0x700815>
     4a8:	89 2f       	mov	r24, r25
     4aa:	83 70       	andi	r24, 0x03	; 3
     4ac:	82 30       	cpi	r24, 0x02	; 2
     4ae:	11 f0       	breq	.+4      	; 0x4b4 <I2C_read+0x18>
		else		TWI0.MCTRLB |= TWI_ACKACT_NACK_gc;				// setup NACK (last byte read)
		*data = TWI0.MDATA;
		if (ack_flag == 0) TWI0.MCTRLB |= TWI_MCMD_RECVTRANS_gc;	// send ACK, more bytes to follow					
		return 0;
	}
	else return 8;													// master does not control bus
     4b0:	88 e0       	ldi	r24, 0x08	; 8
     4b2:	08 95       	ret
uint8_t	I2C_read(uint8_t *data, uint8_t ack_flag)					// read data, ack_flag 0: send ACK, 1: send NACK, returns status
{
	timeout_I2C = READ_TIMEOUT;										// reset timeout counter, will be decremented by LED matrix interrupt
	if ((TWI0.MSTATUS & TWI_BUSSTATE_gm) == TWI_BUSSTATE_OWNER_gc)	// if master controls bus
	{		
		while (!(TWI0.MSTATUS & TWI_RIF_bm))						// wait for RIF set (data byte received)
     4b4:	90 91 15 08 	lds	r25, 0x0815	; 0x800815 <__TEXT_REGION_LENGTH__+0x700815>
     4b8:	97 fd       	sbrc	r25, 7
     4ba:	06 c0       	rjmp	.+12     	; 0x4c8 <I2C_read+0x2c>
		{
			if (!(timeout_I2C)) return 0xff;			            // return timeout error
     4bc:	90 91 60 3a 	lds	r25, 0x3A60	; 0x803a60 <timeout_I2C>
     4c0:	91 11       	cpse	r25, r1
     4c2:	f8 cf       	rjmp	.-16     	; 0x4b4 <I2C_read+0x18>
     4c4:	8f ef       	ldi	r24, 0xFF	; 255
     4c6:	08 95       	ret
		}
		TWI0.MSTATUS |= (TWI_RIF_bm | TWI_WIF_bm);					// clear Read and Write interrupt flags	
     4c8:	90 91 15 08 	lds	r25, 0x0815	; 0x800815 <__TEXT_REGION_LENGTH__+0x700815>
     4cc:	90 6c       	ori	r25, 0xC0	; 192
     4ce:	90 93 15 08 	sts	0x0815, r25	; 0x800815 <__TEXT_REGION_LENGTH__+0x700815>
		if (TWI0.MSTATUS & TWI_BUSERR_bm) return 4;					// Bus Error, abort
     4d2:	90 91 15 08 	lds	r25, 0x0815	; 0x800815 <__TEXT_REGION_LENGTH__+0x700815>
     4d6:	92 fd       	sbrc	r25, 2
     4d8:	1e c0       	rjmp	.+60     	; 0x516 <I2C_read+0x7a>
		if (TWI0.MSTATUS & TWI_ARBLOST_bm) return 2;				// Arbitration Lost, abort
     4da:	90 91 15 08 	lds	r25, 0x0815	; 0x800815 <__TEXT_REGION_LENGTH__+0x700815>
     4de:	93 fd       	sbrc	r25, 3
     4e0:	1d c0       	rjmp	.+58     	; 0x51c <I2C_read+0x80>
		if (TWI0.MSTATUS & TWI_RXACK_bm) return 1;					// Slave replied with NACK, abort				
     4e2:	90 91 15 08 	lds	r25, 0x0815	; 0x800815 <__TEXT_REGION_LENGTH__+0x700815>
     4e6:	89 2f       	mov	r24, r25
     4e8:	80 71       	andi	r24, 0x10	; 16
     4ea:	94 fd       	sbrc	r25, 4
     4ec:	16 c0       	rjmp	.+44     	; 0x51a <I2C_read+0x7e>
		if (ack_flag == 0) TWI0.MCTRLB &= ~(1 << TWI_ACKACT_bp);	// setup ACK
     4ee:	90 91 14 08 	lds	r25, 0x0814	; 0x800814 <__TEXT_REGION_LENGTH__+0x700814>
     4f2:	61 11       	cpse	r22, r1
     4f4:	02 c0       	rjmp	.+4      	; 0x4fa <I2C_read+0x5e>
     4f6:	9b 7f       	andi	r25, 0xFB	; 251
     4f8:	01 c0       	rjmp	.+2      	; 0x4fc <I2C_read+0x60>
		else		TWI0.MCTRLB |= TWI_ACKACT_NACK_gc;				// setup NACK (last byte read)
     4fa:	94 60       	ori	r25, 0x04	; 4
     4fc:	90 93 14 08 	sts	0x0814, r25	; 0x800814 <__TEXT_REGION_LENGTH__+0x700814>
		*data = TWI0.MDATA;
     500:	90 91 18 08 	lds	r25, 0x0818	; 0x800818 <__TEXT_REGION_LENGTH__+0x700818>
     504:	90 83       	st	Z, r25
		if (ack_flag == 0) TWI0.MCTRLB |= TWI_MCMD_RECVTRANS_gc;	// send ACK, more bytes to follow					
     506:	61 11       	cpse	r22, r1
     508:	09 c0       	rjmp	.+18     	; 0x51c <I2C_read+0x80>
     50a:	90 91 14 08 	lds	r25, 0x0814	; 0x800814 <__TEXT_REGION_LENGTH__+0x700814>
     50e:	92 60       	ori	r25, 0x02	; 2
     510:	90 93 14 08 	sts	0x0814, r25	; 0x800814 <__TEXT_REGION_LENGTH__+0x700814>
     514:	08 95       	ret
		while (!(TWI0.MSTATUS & TWI_RIF_bm))						// wait for RIF set (data byte received)
		{
			if (!(timeout_I2C)) return 0xff;			            // return timeout error
		}
		TWI0.MSTATUS |= (TWI_RIF_bm | TWI_WIF_bm);					// clear Read and Write interrupt flags	
		if (TWI0.MSTATUS & TWI_BUSERR_bm) return 4;					// Bus Error, abort
     516:	84 e0       	ldi	r24, 0x04	; 4
     518:	08 95       	ret
		if (TWI0.MSTATUS & TWI_ARBLOST_bm) return 2;				// Arbitration Lost, abort
		if (TWI0.MSTATUS & TWI_RXACK_bm) return 1;					// Slave replied with NACK, abort				
     51a:	81 e0       	ldi	r24, 0x01	; 1
		*data = TWI0.MDATA;
		if (ack_flag == 0) TWI0.MCTRLB |= TWI_MCMD_RECVTRANS_gc;	// send ACK, more bytes to follow					
		return 0;
	}
	else return 8;													// master does not control bus
}
     51c:	08 95       	ret

0000051e <I2C_write>:

uint8_t I2C_write(uint8_t *data)									// write data, return status
{
     51e:	fc 01       	movw	r30, r24
	timeout_I2C = WRITE_TIMEOUT;									// reset timeout counter, will be decremented by LED matrix interrupt
     520:	8c e0       	ldi	r24, 0x0C	; 12
     522:	80 93 60 3a 	sts	0x3A60, r24	; 0x803a60 <timeout_I2C>
	if ((TWI0.MSTATUS & TWI_BUSSTATE_gm) == TWI_BUSSTATE_OWNER_gc)	// if master controls bus
     526:	90 91 15 08 	lds	r25, 0x0815	; 0x800815 <__TEXT_REGION_LENGTH__+0x700815>
     52a:	93 70       	andi	r25, 0x03	; 3
     52c:	92 30       	cpi	r25, 0x02	; 2
     52e:	b1 f4       	brne	.+44     	; 0x55c <I2C_write+0x3e>
	{
		TWI0.MDATA = *data;		
     530:	80 81       	ld	r24, Z
     532:	80 93 18 08 	sts	0x0818, r24	; 0x800818 <__TEXT_REGION_LENGTH__+0x700818>
		while (!(TWI0.MSTATUS & TWI_WIF_bm))						// wait until WIF set, status register contains ACK/NACK bit
     536:	80 91 15 08 	lds	r24, 0x0815	; 0x800815 <__TEXT_REGION_LENGTH__+0x700815>
     53a:	86 fd       	sbrc	r24, 6
     53c:	06 c0       	rjmp	.+12     	; 0x54a <I2C_write+0x2c>
		{
			if (!(timeout_I2C)) return 0xff;			            // return timeout error
     53e:	80 91 60 3a 	lds	r24, 0x3A60	; 0x803a60 <timeout_I2C>
     542:	81 11       	cpse	r24, r1
     544:	f8 cf       	rjmp	.-16     	; 0x536 <I2C_write+0x18>
     546:	8f ef       	ldi	r24, 0xFF	; 255
     548:	08 95       	ret
		}
		if (TWI0.MSTATUS & TWI_BUSERR_bm) return 4;					// Bus Error, abort
     54a:	80 91 15 08 	lds	r24, 0x0815	; 0x800815 <__TEXT_REGION_LENGTH__+0x700815>
     54e:	82 fd       	sbrc	r24, 2
     550:	07 c0       	rjmp	.+14     	; 0x560 <I2C_write+0x42>
		if (TWI0.MSTATUS & TWI_RXACK_bm) return 1;					// Slave replied with NACK, abort
     552:	80 91 15 08 	lds	r24, 0x0815	; 0x800815 <__TEXT_REGION_LENGTH__+0x700815>
	if ((TWI0.MSTATUS & TWI_BUSSTATE_gm) == TWI_BUSSTATE_OWNER_gc)	// if master controls bus
	{
		TWI0.MDATA = *data;		
		while (!(TWI0.MSTATUS & TWI_WIF_bm))						// wait until WIF set, status register contains ACK/NACK bit
		{
			if (!(timeout_I2C)) return 0xff;			            // return timeout error
     556:	82 95       	swap	r24
     558:	81 70       	andi	r24, 0x01	; 1
     55a:	08 95       	ret
		}
		if (TWI0.MSTATUS & TWI_BUSERR_bm) return 4;					// Bus Error, abort
		if (TWI0.MSTATUS & TWI_RXACK_bm) return 1;					// Slave replied with NACK, abort
		return 0;													// no error	
	}
	else return 8;													// master does not control bus
     55c:	88 e0       	ldi	r24, 0x08	; 8
     55e:	08 95       	ret
		TWI0.MDATA = *data;		
		while (!(TWI0.MSTATUS & TWI_WIF_bm))						// wait until WIF set, status register contains ACK/NACK bit
		{
			if (!(timeout_I2C)) return 0xff;			            // return timeout error
		}
		if (TWI0.MSTATUS & TWI_BUSERR_bm) return 4;					// Bus Error, abort
     560:	84 e0       	ldi	r24, 0x04	; 4
		if (TWI0.MSTATUS & TWI_RXACK_bm) return 1;					// Slave replied with NACK, abort
		return 0;													// no error	
	}
	else return 8;													// master does not control bus
}
     562:	08 95       	ret

00000564 <I2C_stop>:

void I2C_stop()
{
	TWI0.MCTRLB |= TWI_MCMD_STOP_gc;
     564:	e0 e1       	ldi	r30, 0x10	; 16
     566:	f8 e0       	ldi	r31, 0x08	; 8
     568:	84 81       	ldd	r24, Z+4	; 0x04
     56a:	83 60       	ori	r24, 0x03	; 3
     56c:	84 83       	std	Z+4, r24	; 0x04
     56e:	08 95       	ret

00000570 <I2C_read_bytes>:
// addr_ptr		address of first array element to transfer
// slave reg	starting slave register
// num_bytes	number of bytes to transfer

uint8_t	I2C_read_bytes(uint8_t slave_addr, uint8_t *reg_ptr, uint8_t reg_len, uint8_t *dat_ptr, uint8_t dat_len)
{
     570:	cf 92       	push	r12
     572:	df 92       	push	r13
     574:	ff 92       	push	r15
     576:	0f 93       	push	r16
     578:	1f 93       	push	r17
     57a:	cf 93       	push	r28
     57c:	df 93       	push	r29
     57e:	6b 01       	movw	r12, r22
     580:	f4 2e       	mov	r15, r20
     582:	e9 01       	movw	r28, r18
	uint8_t status;
	if (dat_len > MAX_LEN) dat_len = MAX_LEN;
	status = I2C_start(slave_addr << 1);							// slave write address, LSB 0
     584:	18 2f       	mov	r17, r24
     586:	11 0f       	add	r17, r17
     588:	81 2f       	mov	r24, r17
     58a:	50 df       	rcall	.-352    	; 0x42c <I2C_start>
	if (status != 0) goto error;
     58c:	81 11       	cpse	r24, r1
	status = I2C_wait_ACK();										// wait for slave ACK
     58e:	2b c0       	rjmp	.+86     	; 0x5e6 <I2C_read_bytes+0x76>
     590:	5e df       	rcall	.-324    	; 0x44e <I2C_wait_ACK>
	if (status == 1) {
     592:	81 30       	cpi	r24, 0x01	; 1
		I2C_stop();													// NACK, abort
     594:	19 f4       	brne	.+6      	; 0x59c <I2C_read_bytes+0x2c>
     596:	e6 df       	rcall	.-52     	; 0x564 <I2C_stop>
		return 1;
     598:	81 e0       	ldi	r24, 0x01	; 1
     59a:	27 c0       	rjmp	.+78     	; 0x5ea <I2C_read_bytes+0x7a>
	}
	if (status != 0) goto error;
     59c:	81 11       	cpse	r24, r1
     59e:	23 c0       	rjmp	.+70     	; 0x5e6 <I2C_read_bytes+0x76>
    while(reg_len > 0){
     5a0:	ff 20       	and	r15, r15
	    status = I2C_write(reg_ptr);    							// send slave start register
     5a2:	49 f0       	breq	.+18     	; 0x5b6 <I2C_read_bytes+0x46>
     5a4:	c6 01       	movw	r24, r12
     5a6:	bb df       	rcall	.-138    	; 0x51e <I2C_write>
	    if (status != 0) goto error;
     5a8:	81 11       	cpse	r24, r1
     5aa:	1d c0       	rjmp	.+58     	; 0x5e6 <I2C_read_bytes+0x76>
        ++reg_ptr;
     5ac:	8f ef       	ldi	r24, 0xFF	; 255
     5ae:	c8 1a       	sub	r12, r24
     5b0:	d8 0a       	sbc	r13, r24
        --reg_len;
     5b2:	fa 94       	dec	r15
     5b4:	f5 cf       	rjmp	.-22     	; 0x5a0 <I2C_read_bytes+0x30>
     5b6:	01 34       	cpi	r16, 0x41	; 65
     5b8:	08 f0       	brcs	.+2      	; 0x5bc <I2C_read_bytes+0x4c>
     5ba:	00 e4       	ldi	r16, 0x40	; 64
    }
	I2C_rep_start((slave_addr << 1) + 1);							// slave read address, LSB 1
     5bc:	1f 5f       	subi	r17, 0xFF	; 255
// the Atmel device documentation mentions a special command for repeated start TWI_MCMD_REPSTART_gc,
// but this is not used in Atmel's demo code, so we don't use it either

void I2C_rep_start(uint8_t shifted_addr)						    // send repeated start, device_addr + LSB set if READ
{
	TWI0.MADDR = shifted_addr;	
     5be:	10 93 17 08 	sts	0x0817, r17	; 0x800817 <__TEXT_REGION_LENGTH__+0x700817>
	    if (status != 0) goto error;
        ++reg_ptr;
        --reg_len;
    }
	I2C_rep_start((slave_addr << 1) + 1);							// slave read address, LSB 1
	while (dat_len > 1) {
     5c2:	02 30       	cpi	r16, 0x02	; 2
		status = I2C_read(dat_ptr, 0);								// first bytes, send ACK
     5c4:	40 f0       	brcs	.+16     	; 0x5d6 <I2C_read_bytes+0x66>
     5c6:	60 e0       	ldi	r22, 0x00	; 0
     5c8:	ce 01       	movw	r24, r28
     5ca:	68 df       	rcall	.-304    	; 0x49c <I2C_read>
		if (status != 0) goto error;
     5cc:	81 11       	cpse	r24, r1
     5ce:	0b c0       	rjmp	.+22     	; 0x5e6 <I2C_read_bytes+0x76>
		++dat_ptr;
		--dat_len;
     5d0:	21 96       	adiw	r28, 0x01	; 1
     5d2:	01 50       	subi	r16, 0x01	; 1
	}
	status = I2C_read(dat_ptr, 1);									// single or last byte, send NACK
     5d4:	f6 cf       	rjmp	.-20     	; 0x5c2 <I2C_read_bytes+0x52>
     5d6:	61 e0       	ldi	r22, 0x01	; 1
     5d8:	ce 01       	movw	r24, r28
	if (status != 0) goto error;
     5da:	60 df       	rcall	.-320    	; 0x49c <I2C_read>
     5dc:	81 11       	cpse	r24, r1
	I2C_stop();
     5de:	03 c0       	rjmp	.+6      	; 0x5e6 <I2C_read_bytes+0x76>
     5e0:	c1 df       	rcall	.-126    	; 0x564 <I2C_stop>
	return 0;
     5e2:	80 e0       	ldi	r24, 0x00	; 0
     5e4:	02 c0       	rjmp	.+4      	; 0x5ea <I2C_read_bytes+0x7a>
	
error:
	I2C_recover();													// clock out possibly stuck slave, reset master
     5e6:	e4 de       	rcall	.-568    	; 0x3b0 <I2C_recover>
     5e8:	8f ef       	ldi	r24, 0xFF	; 255
	return 0xff;													// flag error
     5ea:	df 91       	pop	r29
}
     5ec:	cf 91       	pop	r28
     5ee:	1f 91       	pop	r17
     5f0:	0f 91       	pop	r16
     5f2:	ff 90       	pop	r15
     5f4:	df 90       	pop	r13
     5f6:	cf 90       	pop	r12
     5f8:	08 95       	ret

000005fa <initLanyard>:
uint8_t         lastButtonState = 0xff;
uint8_t         digit = 0xff;
uint16_t        lanyardLastActive = 0;

void initLanyard() {
    lanyardPos      = 0;
     5fa:	10 92 36 38 	sts	0x3836, r1	; 0x803836 <lanyardPos>
    lanyardCnt      = 0;
     5fe:	10 92 35 38 	sts	0x3835, r1	; 0x803835 <lanyardCnt>
    lanyardState    = TRUE;
     602:	81 e0       	ldi	r24, 0x01	; 1
     604:	80 93 04 38 	sts	0x3804, r24	; 0x803804 <lanyardState>
    lastButtonState = 0xff;
     608:	8f ef       	ldi	r24, 0xFF	; 255
     60a:	80 93 03 38 	sts	0x3803, r24	; 0x803803 <lastButtonState>
    iLED[CAT]       = 0;
     60e:	e0 91 b8 bd 	lds	r30, 0xBDB8	; 0x80bdb8 <__bss_end+0x829e>
     612:	f0 e0       	ldi	r31, 0x00	; 0
     614:	e6 53       	subi	r30, 0x36	; 54
     616:	f5 4c       	sbci	r31, 0xC5	; 197
     618:	10 82       	st	Z, r1
    iLED[EYE[G][L]] = 0;
     61a:	e0 91 c9 bd 	lds	r30, 0xBDC9	; 0x80bdc9 <__bss_end+0x82af>
     61e:	f0 e0       	ldi	r31, 0x00	; 0
     620:	e6 53       	subi	r30, 0x36	; 54
     622:	f5 4c       	sbci	r31, 0xC5	; 197
     624:	10 82       	st	Z, r1
    iLED[EYE[G][R]] = 0;
     626:	e0 91 c8 bd 	lds	r30, 0xBDC8	; 0x80bdc8 <__bss_end+0x82ae>
     62a:	f0 e0       	ldi	r31, 0x00	; 0
     62c:	e6 53       	subi	r30, 0x36	; 54
     62e:	f5 4c       	sbci	r31, 0xC5	; 197
     630:	10 82       	st	Z, r1
    iLED[EYE[R][L]] = 0;
     632:	e0 91 c7 bd 	lds	r30, 0xBDC7	; 0x80bdc7 <__bss_end+0x82ad>
     636:	f0 e0       	ldi	r31, 0x00	; 0
     638:	e6 53       	subi	r30, 0x36	; 54
     63a:	f5 4c       	sbci	r31, 0xC5	; 197
     63c:	10 82       	st	Z, r1
    iLED[EYE[R][R]] = 0;
     63e:	e0 91 c6 bd 	lds	r30, 0xBDC6	; 0x80bdc6 <__bss_end+0x82ac>
     642:	f0 e0       	ldi	r31, 0x00	; 0
     644:	e6 53       	subi	r30, 0x36	; 54
     646:	f5 4c       	sbci	r31, 0xC5	; 197
     648:	10 82       	st	Z, r1
     64a:	a0 ed       	ldi	r26, 0xD0	; 208
     64c:	bd eb       	ldi	r27, 0xBD	; 189
    for (int i=0; i<6; i++ )
        iLED[HCKR[G][i]] = 0;
     64e:	ed 91       	ld	r30, X+
     650:	f0 e0       	ldi	r31, 0x00	; 0
     652:	e6 53       	subi	r30, 0x36	; 54
     654:	f5 4c       	sbci	r31, 0xC5	; 197
     656:	10 82       	st	Z, r1
    iLED[CAT]       = 0;
    iLED[EYE[G][L]] = 0;
    iLED[EYE[G][R]] = 0;
    iLED[EYE[R][L]] = 0;
    iLED[EYE[R][R]] = 0;
    for (int i=0; i<6; i++ )
     658:	8d eb       	ldi	r24, 0xBD	; 189
     65a:	a6 3d       	cpi	r26, 0xD6	; 214
     65c:	b8 07       	cpc	r27, r24
     65e:	b9 f7       	brne	.-18     	; 0x64e <initLanyard+0x54>
        iLED[HCKR[G][i]] = 0;
}
     660:	08 95       	ret

00000662 <LanyardCode>:

// Main game loop
uint8_t LanyardCode(){
     662:	cf 93       	push	r28
    if (gameNow == LANYARD && idleTimeout(lanyardLastActive,LANYARD_MAX_IDLE)) {
     664:	80 91 3c 38 	lds	r24, 0x383C	; 0x80383c <gameNow>
     668:	83 30       	cpi	r24, 0x03	; 3
     66a:	71 f4       	brne	.+28     	; 0x688 <LanyardCode+0x26>
     66c:	6a e0       	ldi	r22, 0x0A	; 10
     66e:	70 e0       	ldi	r23, 0x00	; 0
     670:	80 91 33 38 	lds	r24, 0x3833	; 0x803833 <lanyardLastActive>
     674:	90 91 34 38 	lds	r25, 0x3834	; 0x803834 <lanyardLastActive+0x1>
     678:	0e 94 63 0d 	call	0x1ac6	; 0x1ac6 <idleTimeout>
     67c:	88 23       	and	r24, r24
     67e:	21 f0       	breq	.+8      	; 0x688 <LanyardCode+0x26>
        /* clean up maze game and go back to text game */
        initLanyard();
     680:	bc df       	rcall	.-136    	; 0x5fa <initLanyard>
        gameNow = TEXT;
     682:	10 92 3c 38 	sts	0x383C, r1	; 0x80383c <gameNow>
        return 0;
     686:	bf c0       	rjmp	.+382    	; 0x806 <LanyardCode+0x1a4>
    }

    if (CheckState(LANYARD_COMPLETED))
     688:	8b e7       	ldi	r24, 0x7B	; 123
     68a:	5f d7       	rcall	.+3774   	; 0x154a <CheckState>
     68c:	81 11       	cpse	r24, r1
     68e:	bb c0       	rjmp	.+374    	; 0x806 <LanyardCode+0x1a4>
        return 0;

    if ( gameNow != TEXT && gameNow != LANYARD )
     690:	80 91 3c 38 	lds	r24, 0x383C	; 0x80383c <gameNow>
     694:	88 23       	and	r24, r24
     696:	19 f0       	breq	.+6      	; 0x69e <LanyardCode+0x3c>
     698:	83 30       	cpi	r24, 0x03	; 3
     69a:	09 f0       	breq	.+2      	; 0x69e <LanyardCode+0x3c>
     69c:	b4 c0       	rjmp	.+360    	; 0x806 <LanyardCode+0x1a4>
        return 0;

    /* activate led for buttonstate */
    iLED[CAT] = (buttonState==0xff ? 0 : dimValue);
     69e:	c0 91 b8 bd 	lds	r28, 0xBDB8	; 0x80bdb8 <__bss_end+0x829e>
     6a2:	ec 2f       	mov	r30, r28
     6a4:	f0 e0       	ldi	r31, 0x00	; 0
     6a6:	90 91 09 38 	lds	r25, 0x3809	; 0x803809 <buttonState>
     6aa:	9f 3f       	cpi	r25, 0xFF	; 255
     6ac:	19 f0       	breq	.+6      	; 0x6b4 <LanyardCode+0x52>
     6ae:	80 91 0b 38 	lds	r24, 0x380B	; 0x80380b <dimValue>
     6b2:	01 c0       	rjmp	.+2      	; 0x6b6 <LanyardCode+0x54>
     6b4:	80 e0       	ldi	r24, 0x00	; 0
     6b6:	e6 53       	subi	r30, 0x36	; 54
     6b8:	f5 4c       	sbci	r31, 0xC5	; 197
     6ba:	80 83       	st	Z, r24

    if ( (buttonState & 0xf0) == 0)
     6bc:	89 2f       	mov	r24, r25
     6be:	80 7f       	andi	r24, 0xF0	; 240
     6c0:	09 f4       	brne	.+2      	; 0x6c4 <LanyardCode+0x62>
     6c2:	a1 c0       	rjmp	.+322    	; 0x806 <LanyardCode+0x1a4>
        return 0;

    if ((buttonState&0x0f) == (lastButtonState&0x0f))
     6c4:	80 91 03 38 	lds	r24, 0x3803	; 0x803803 <lastButtonState>
     6c8:	89 27       	eor	r24, r25
     6ca:	8f 70       	andi	r24, 0x0F	; 15
     6cc:	09 f4       	brne	.+2      	; 0x6d0 <LanyardCode+0x6e>
     6ce:	9b c0       	rjmp	.+310    	; 0x806 <LanyardCode+0x1a4>
        return 0;

    lanyardLastActive = getClock();
     6d0:	0e 94 54 0d 	call	0x1aa8	; 0x1aa8 <getClock>
     6d4:	80 93 33 38 	sts	0x3833, r24	; 0x803833 <lanyardLastActive>
     6d8:	90 93 34 38 	sts	0x3834, r25	; 0x803834 <lanyardLastActive+0x1>

    if (lastButtonState == 0xff){
     6dc:	80 91 03 38 	lds	r24, 0x3803	; 0x803803 <lastButtonState>
     6e0:	8f 3f       	cpi	r24, 0xFF	; 255
     6e2:	09 f0       	breq	.+2      	; 0x6e6 <LanyardCode+0x84>
     6e4:	8c c0       	rjmp	.+280    	; 0x7fe <LanyardCode+0x19c>
        switch (buttonState & 0x0f) {
     6e6:	80 91 09 38 	lds	r24, 0x3809	; 0x803809 <buttonState>
     6ea:	8f 70       	andi	r24, 0x0F	; 15
     6ec:	82 30       	cpi	r24, 0x02	; 2
     6ee:	61 f0       	breq	.+24     	; 0x708 <LanyardCode+0xa6>
     6f0:	28 f4       	brcc	.+10     	; 0x6fc <LanyardCode+0x9a>
     6f2:	81 30       	cpi	r24, 0x01	; 1
     6f4:	69 f4       	brne	.+26     	; 0x710 <LanyardCode+0xae>
            case 0b0001:
                digit = 0;
     6f6:	10 92 02 38 	sts	0x3802, r1	; 0x803802 <digit>
                break;
     6fa:	0d c0       	rjmp	.+26     	; 0x716 <LanyardCode+0xb4>
        return 0;

    lanyardLastActive = getClock();

    if (lastButtonState == 0xff){
        switch (buttonState & 0x0f) {
     6fc:	84 30       	cpi	r24, 0x04	; 4
     6fe:	31 f0       	breq	.+12     	; 0x70c <LanyardCode+0xaa>
     700:	88 30       	cpi	r24, 0x08	; 8
     702:	31 f4       	brne	.+12     	; 0x710 <LanyardCode+0xae>
            case 0b0100:
                digit = 3;
                break;

            case 0b1000:
                digit = 2;
     704:	82 e0       	ldi	r24, 0x02	; 2
     706:	05 c0       	rjmp	.+10     	; 0x712 <LanyardCode+0xb0>
            case 0b0001:
                digit = 0;
                break;

            case 0b0010:
                digit = 1;
     708:	81 e0       	ldi	r24, 0x01	; 1
     70a:	03 c0       	rjmp	.+6      	; 0x712 <LanyardCode+0xb0>
                break;

            case 0b0100:
                digit = 3;
     70c:	83 e0       	ldi	r24, 0x03	; 3
     70e:	01 c0       	rjmp	.+2      	; 0x712 <LanyardCode+0xb0>
            case 0b1000:
                digit = 2;
                break;

            default:
                digit = 0xff;
     710:	8f ef       	ldi	r24, 0xFF	; 255
     712:	80 93 02 38 	sts	0x3802, r24	; 0x803802 <digit>
                break;
        }
        gameNow = LANYARD;
     716:	83 e0       	ldi	r24, 0x03	; 3
     718:	80 93 3c 38 	sts	0x383C, r24	; 0x80383c <gameNow>
        /* TODO play tone for button */

        if (digit == lanyardCode[lanyardPos]) {
     71c:	80 91 36 38 	lds	r24, 0x3836	; 0x803836 <lanyardPos>
     720:	e8 2f       	mov	r30, r24
     722:	f0 e0       	ldi	r31, 0x00	; 0
     724:	e0 56       	subi	r30, 0x60	; 96
     726:	f2 44       	sbci	r31, 0x42	; 66
     728:	20 81       	ld	r18, Z
     72a:	90 91 02 38 	lds	r25, 0x3802	; 0x803802 <digit>
     72e:	29 13       	cpse	r18, r25
     730:	12 c0       	rjmp	.+36     	; 0x756 <LanyardCode+0xf4>
            lanyardState &= TRUE;
     732:	90 91 04 38 	lds	r25, 0x3804	; 0x803804 <lanyardState>
     736:	91 70       	andi	r25, 0x01	; 1
     738:	90 93 04 38 	sts	0x3804, r25	; 0x803804 <lanyardState>
            iLED[EYE[R][L]] = 0;
     73c:	e0 91 c7 bd 	lds	r30, 0xBDC7	; 0x80bdc7 <__bss_end+0x82ad>
     740:	f0 e0       	ldi	r31, 0x00	; 0
     742:	e6 53       	subi	r30, 0x36	; 54
     744:	f5 4c       	sbci	r31, 0xC5	; 197
     746:	10 82       	st	Z, r1
            iLED[EYE[R][R]] = 0;
     748:	e0 91 c6 bd 	lds	r30, 0xBDC6	; 0x80bdc6 <__bss_end+0x82ac>
     74c:	f0 e0       	ldi	r31, 0x00	; 0
     74e:	e6 53       	subi	r30, 0x36	; 54
     750:	f5 4c       	sbci	r31, 0xC5	; 197
     752:	10 82       	st	Z, r1
     754:	05 c0       	rjmp	.+10     	; 0x760 <LanyardCode+0xfe>
        } else {
            lanyardState = FALSE;
     756:	10 92 04 38 	sts	0x3804, r1	; 0x803804 <lanyardState>
            if (lanyardPos < 4 ) {
     75a:	84 30       	cpi	r24, 0x04	; 4
     75c:	08 f4       	brcc	.+2      	; 0x760 <LanyardCode+0xfe>
     75e:	90 cf       	rjmp	.-224    	; 0x680 <LanyardCode+0x1e>
                */
                gameNow         = TEXT;
                return 0;
            }
        }
        lanyardPos++;
     760:	8f 5f       	subi	r24, 0xFF	; 255
     762:	80 93 36 38 	sts	0x3836, r24	; 0x803836 <lanyardPos>
        lanyardCnt++;            
     766:	90 91 35 38 	lds	r25, 0x3835	; 0x803835 <lanyardCnt>
     76a:	9f 5f       	subi	r25, 0xFF	; 255
        if (lanyardCnt >= 4) {
     76c:	94 30       	cpi	r25, 0x04	; 4
     76e:	18 f4       	brcc	.+6      	; 0x776 <LanyardCode+0x114>
                gameNow         = TEXT;
                return 0;
            }
        }
        lanyardPos++;
        lanyardCnt++;            
     770:	90 93 35 38 	sts	0x3835, r25	; 0x803835 <lanyardCnt>
     774:	44 c0       	rjmp	.+136    	; 0x7fe <LanyardCode+0x19c>
        if (lanyardCnt >= 4) {
            lanyardCnt = 0;
     776:	10 92 35 38 	sts	0x3835, r1	; 0x803835 <lanyardCnt>
            if (lanyardState == TRUE) {
     77a:	90 91 04 38 	lds	r25, 0x3804	; 0x803804 <lanyardState>
     77e:	91 30       	cpi	r25, 0x01	; 1
     780:	69 f5       	brne	.+90     	; 0x7dc <LanyardCode+0x17a>
                iLED[HCKR[G][(lanyardPos/4)-1]] = dimValue;
     782:	e8 2f       	mov	r30, r24
     784:	e6 95       	lsr	r30
     786:	e6 95       	lsr	r30
     788:	f0 e0       	ldi	r31, 0x00	; 0
     78a:	e6 53       	subi	r30, 0x36	; 54
     78c:	f2 44       	sbci	r31, 0x42	; 66
     78e:	e5 81       	ldd	r30, Z+5	; 0x05
     790:	f0 e0       	ldi	r31, 0x00	; 0
     792:	90 91 0b 38 	lds	r25, 0x380B	; 0x80380b <dimValue>
     796:	e6 53       	subi	r30, 0x36	; 54
     798:	f5 4c       	sbci	r31, 0xC5	; 197
     79a:	90 83       	st	Z, r25
                if (lanyardPos == sizeof(lanyardCode)) {
     79c:	88 31       	cpi	r24, 0x18	; 24
                    UpdateState(LANYARD_COMPLETED);
     79e:	79 f5       	brne	.+94     	; 0x7fe <LanyardCode+0x19c>
     7a0:	8b e7       	ldi	r24, 0x7B	; 123
     7a2:	c9 d6       	rcall	.+3474   	; 0x1536 <UpdateState>
                    iLED[CAT]       = 0;
     7a4:	ec 2f       	mov	r30, r28
     7a6:	f0 e0       	ldi	r31, 0x00	; 0
     7a8:	e6 53       	subi	r30, 0x36	; 54
     7aa:	f5 4c       	sbci	r31, 0xC5	; 197
     7ac:	10 82       	st	Z, r1
                    iLED[EYE[R][L]] = 0;
     7ae:	e0 91 c7 bd 	lds	r30, 0xBDC7	; 0x80bdc7 <__bss_end+0x82ad>
     7b2:	f0 e0       	ldi	r31, 0x00	; 0
     7b4:	e6 53       	subi	r30, 0x36	; 54
     7b6:	f5 4c       	sbci	r31, 0xC5	; 197
     7b8:	10 82       	st	Z, r1
                    iLED[EYE[R][R]] = 0;
     7ba:	e0 91 c6 bd 	lds	r30, 0xBDC6	; 0x80bdc6 <__bss_end+0x82ac>
     7be:	f0 e0       	ldi	r31, 0x00	; 0
     7c0:	e6 53       	subi	r30, 0x36	; 54
     7c2:	f5 4c       	sbci	r31, 0xC5	; 197
     7c4:	10 82       	st	Z, r1
                    iLED[EYE[G][L]] = dimValue;
     7c6:	e0 91 c9 bd 	lds	r30, 0xBDC9	; 0x80bdc9 <__bss_end+0x82af>
     7ca:	f0 e0       	ldi	r31, 0x00	; 0
     7cc:	80 91 0b 38 	lds	r24, 0x380B	; 0x80380b <dimValue>
     7d0:	e6 53       	subi	r30, 0x36	; 54
     7d2:	f5 4c       	sbci	r31, 0xC5	; 197
     7d4:	80 83       	st	Z, r24
                    iLED[EYE[G][R]] = dimValue;
     7d6:	e0 91 c8 bd 	lds	r30, 0xBDC8	; 0x80bdc8 <__bss_end+0x82ae>
                    /*TODO state = STATE_MUSIC;*/
                }
            } else {
                initLanyard();
     7da:	0b c0       	rjmp	.+22     	; 0x7f2 <LanyardCode+0x190>
     7dc:	0e df       	rcall	.-484    	; 0x5fa <initLanyard>
                iLED[EYE[R][L]] = dimValue;
     7de:	e0 91 c7 bd 	lds	r30, 0xBDC7	; 0x80bdc7 <__bss_end+0x82ad>
     7e2:	f0 e0       	ldi	r31, 0x00	; 0
     7e4:	80 91 0b 38 	lds	r24, 0x380B	; 0x80380b <dimValue>
     7e8:	e6 53       	subi	r30, 0x36	; 54
     7ea:	f5 4c       	sbci	r31, 0xC5	; 197
     7ec:	80 83       	st	Z, r24
                iLED[EYE[R][R]] = dimValue;
     7ee:	e0 91 c6 bd 	lds	r30, 0xBDC6	; 0x80bdc6 <__bss_end+0x82ac>
     7f2:	f0 e0       	ldi	r31, 0x00	; 0
     7f4:	80 91 0b 38 	lds	r24, 0x380B	; 0x80380b <dimValue>
     7f8:	e6 53       	subi	r30, 0x36	; 54
     7fa:	f5 4c       	sbci	r31, 0xC5	; 197
     7fc:	80 83       	st	Z, r24
            }
        }
    }

    lastButtonState = buttonState;
     7fe:	80 91 09 38 	lds	r24, 0x3809	; 0x803809 <buttonState>
     802:	80 93 03 38 	sts	0x3803, r24	; 0x803803 <lastButtonState>
    return 0;
}
     806:	80 e0       	ldi	r24, 0x00	; 0
     808:	cf 91       	pop	r28
     80a:	08 95       	ret

0000080c <initMaze>:
uint8_t         mazeState = TRUE;
uint8_t         inverted  = FALSE;
uint16_t        mazeLastActive = 0;

void initMaze() {
    mazePos = 0;
     80c:	10 92 49 38 	sts	0x3849, r1	; 0x803849 <mazePos>
    mazeCnt = 0;
     810:	10 92 48 38 	sts	0x3848, r1	; 0x803848 <mazeCnt>
    mazeState = TRUE;
     814:	81 e0       	ldi	r24, 0x01	; 1
     816:	80 93 0c 38 	sts	0x380C, r24	; 0x80380c <mazeState>
    inverted  = FALSE;
     81a:	10 92 47 38 	sts	0x3847, r1	; 0x803847 <inverted>
    iLED[CAT]       = 0;
     81e:	e0 91 b8 bd 	lds	r30, 0xBDB8	; 0x80bdb8 <__bss_end+0x829e>
     822:	f0 e0       	ldi	r31, 0x00	; 0
     824:	e6 53       	subi	r30, 0x36	; 54
     826:	f5 4c       	sbci	r31, 0xC5	; 197
     828:	10 82       	st	Z, r1
    iLED[EYE[G][L]] = 0;
     82a:	e0 91 c9 bd 	lds	r30, 0xBDC9	; 0x80bdc9 <__bss_end+0x82af>
     82e:	f0 e0       	ldi	r31, 0x00	; 0
     830:	e6 53       	subi	r30, 0x36	; 54
     832:	f5 4c       	sbci	r31, 0xC5	; 197
     834:	10 82       	st	Z, r1
    iLED[EYE[G][R]] = 0;
     836:	e0 91 c8 bd 	lds	r30, 0xBDC8	; 0x80bdc8 <__bss_end+0x82ae>
     83a:	f0 e0       	ldi	r31, 0x00	; 0
     83c:	e6 53       	subi	r30, 0x36	; 54
     83e:	f5 4c       	sbci	r31, 0xC5	; 197
     840:	10 82       	st	Z, r1
    iLED[EYE[R][L]] = 0;
     842:	e0 91 c7 bd 	lds	r30, 0xBDC7	; 0x80bdc7 <__bss_end+0x82ad>
     846:	f0 e0       	ldi	r31, 0x00	; 0
     848:	e6 53       	subi	r30, 0x36	; 54
     84a:	f5 4c       	sbci	r31, 0xC5	; 197
     84c:	10 82       	st	Z, r1
    iLED[EYE[R][R]] = 0;
     84e:	e0 91 c6 bd 	lds	r30, 0xBDC6	; 0x80bdc6 <__bss_end+0x82ac>
     852:	f0 e0       	ldi	r31, 0x00	; 0
     854:	e6 53       	subi	r30, 0x36	; 54
     856:	f5 4c       	sbci	r31, 0xC5	; 197
     858:	10 82       	st	Z, r1
     85a:	a0 ed       	ldi	r26, 0xD0	; 208
     85c:	bd eb       	ldi	r27, 0xBD	; 189
    for (int i=0; i<6; i++ )
        iLED[HCKR[G][i]] = 0;
     85e:	ed 91       	ld	r30, X+
     860:	f0 e0       	ldi	r31, 0x00	; 0
     862:	e6 53       	subi	r30, 0x36	; 54
     864:	f5 4c       	sbci	r31, 0xC5	; 197
     866:	10 82       	st	Z, r1
    iLED[CAT]       = 0;
    iLED[EYE[G][L]] = 0;
    iLED[EYE[G][R]] = 0;
    iLED[EYE[R][L]] = 0;
    iLED[EYE[R][R]] = 0;
    for (int i=0; i<6; i++ )
     868:	8d eb       	ldi	r24, 0xBD	; 189
     86a:	a6 3d       	cpi	r26, 0xD6	; 214
     86c:	b8 07       	cpc	r27, r24
     86e:	b9 f7       	brne	.-18     	; 0x85e <initMaze+0x52>
        iLED[HCKR[G][i]] = 0;
}
     870:	08 95       	ret

00000872 <showFieldStrength>:

void showFieldStrength(int16_t val) {
    int16_t tmp;

    tmp = abs(val);
     872:	97 ff       	sbrs	r25, 7
     874:	03 c0       	rjmp	.+6      	; 0x87c <showFieldStrength+0xa>
     876:	91 95       	neg	r25
     878:	81 95       	neg	r24
     87a:	91 09       	sbc	r25, r1

    if ( tmp*2 > HALL_LOW )
     87c:	9c 01       	movw	r18, r24
     87e:	22 0f       	add	r18, r18
     880:	33 1f       	adc	r19, r19
     882:	29 37       	cpi	r18, 0x79	; 121
     884:	31 05       	cpc	r19, r1
     886:	1c f0       	brlt	.+6      	; 0x88e <showFieldStrength+0x1c>
        gameNow = MAZE;
     888:	41 e0       	ldi	r20, 0x01	; 1
     88a:	40 93 3c 38 	sts	0x383C, r20	; 0x80383c <gameNow>

    if (gameNow == MAZE) {
     88e:	40 91 3c 38 	lds	r20, 0x383C	; 0x80383c <gameNow>
     892:	41 30       	cpi	r20, 0x01	; 1
     894:	21 f5       	brne	.+72     	; 0x8de <showFieldStrength+0x6c>
        if ( tmp*2 < HALL_LOW )
     896:	28 37       	cpi	r18, 0x78	; 120
     898:	31 05       	cpc	r19, r1
     89a:	1c f4       	brge	.+6      	; 0x8a2 <showFieldStrength+0x30>
            WingBar(0,0);
     89c:	60 e0       	ldi	r22, 0x00	; 0
     89e:	80 e0       	ldi	r24, 0x00	; 0
     8a0:	1d c0       	rjmp	.+58     	; 0x8dc <showFieldStrength+0x6a>
        else if ( tmp   < HALL_LOW )
     8a2:	88 37       	cpi	r24, 0x78	; 120
     8a4:	91 05       	cpc	r25, r1
     8a6:	1c f4       	brge	.+6      	; 0x8ae <showFieldStrength+0x3c>
            WingBar(1,1);
     8a8:	61 e0       	ldi	r22, 0x01	; 1
     8aa:	81 e0       	ldi	r24, 0x01	; 1
     8ac:	17 c0       	rjmp	.+46     	; 0x8dc <showFieldStrength+0x6a>
        else if ( tmp*2 < HALL_HIGH )
     8ae:	2c 32       	cpi	r18, 0x2C	; 44
     8b0:	41 e0       	ldi	r20, 0x01	; 1
     8b2:	34 07       	cpc	r19, r20
     8b4:	1c f4       	brge	.+6      	; 0x8bc <showFieldStrength+0x4a>
            WingBar(2,2);
     8b6:	62 e0       	ldi	r22, 0x02	; 2
     8b8:	82 e0       	ldi	r24, 0x02	; 2
     8ba:	10 c0       	rjmp	.+32     	; 0x8dc <showFieldStrength+0x6a>
        else if ( tmp*3 < HALL_HIGH*2 )
     8bc:	28 0f       	add	r18, r24
     8be:	39 1f       	adc	r19, r25
     8c0:	28 35       	cpi	r18, 0x58	; 88
     8c2:	32 40       	sbci	r19, 0x02	; 2
     8c4:	1c f4       	brge	.+6      	; 0x8cc <showFieldStrength+0x5a>
            WingBar(3,3);
     8c6:	63 e0       	ldi	r22, 0x03	; 3
     8c8:	83 e0       	ldi	r24, 0x03	; 3
     8ca:	08 c0       	rjmp	.+16     	; 0x8dc <showFieldStrength+0x6a>
        else if ( tmp   < HALL_HIGH )
     8cc:	8c 32       	cpi	r24, 0x2C	; 44
     8ce:	91 40       	sbci	r25, 0x01	; 1
     8d0:	1c f4       	brge	.+6      	; 0x8d8 <showFieldStrength+0x66>
            WingBar(4,4);
     8d2:	64 e0       	ldi	r22, 0x04	; 4
     8d4:	84 e0       	ldi	r24, 0x04	; 4
     8d6:	02 c0       	rjmp	.+4      	; 0x8dc <showFieldStrength+0x6a>
        else
            WingBar(5,5);
     8d8:	65 e0       	ldi	r22, 0x05	; 5
     8da:	85 e0       	ldi	r24, 0x05	; 5
     8dc:	0f c7       	rjmp	.+3614   	; 0x16fc <WingBar>
     8de:	08 95       	ret

000008e0 <MagnetMaze>:
    }
}

// Main game loop
uint8_t MagnetMaze(){
     8e0:	cf 93       	push	r28
     8e2:	df 93       	push	r29
    if (gameNow == MAZE && idleTimeout(mazeLastActive,MAZE_MAX_IDLE)) {
     8e4:	80 91 3c 38 	lds	r24, 0x383C	; 0x80383c <gameNow>
     8e8:	81 30       	cpi	r24, 0x01	; 1
     8ea:	71 f4       	brne	.+28     	; 0x908 <MagnetMaze+0x28>
     8ec:	6a e0       	ldi	r22, 0x0A	; 10
     8ee:	70 e0       	ldi	r23, 0x00	; 0
     8f0:	80 91 45 38 	lds	r24, 0x3845	; 0x803845 <mazeLastActive>
     8f4:	90 91 46 38 	lds	r25, 0x3846	; 0x803846 <mazeLastActive+0x1>
     8f8:	0e 94 63 0d 	call	0x1ac6	; 0x1ac6 <idleTimeout>
     8fc:	88 23       	and	r24, r24
     8fe:	21 f0       	breq	.+8      	; 0x908 <MagnetMaze+0x28>
        /* clean up maze game and go back to text game */
        initMaze();
     900:	85 df       	rcall	.-246    	; 0x80c <initMaze>
        gameNow = TEXT;
     902:	10 92 3c 38 	sts	0x383C, r1	; 0x80383c <gameNow>
        return 0;
     906:	f4 c0       	rjmp	.+488    	; 0xaf0 <MagnetMaze+0x210>
    }
        
    if (CheckState(MAZE_INACTIVE))
     908:	87 ef       	ldi	r24, 0xF7	; 247
     90a:	1f d6       	rcall	.+3134   	; 0x154a <CheckState>
     90c:	81 11       	cpse	r24, r1
     90e:	f0 c0       	rjmp	.+480    	; 0xaf0 <MagnetMaze+0x210>
        return 0;

    if (CheckState(MAZE_COMPLETED))
     910:	8d e7       	ldi	r24, 0x7D	; 125
     912:	1b d6       	rcall	.+3126   	; 0x154a <CheckState>
     914:	81 11       	cpse	r24, r1
     916:	ec c0       	rjmp	.+472    	; 0xaf0 <MagnetMaze+0x210>
     918:	80 91 3c 38 	lds	r24, 0x383C	; 0x80383c <gameNow>
        return 0;

    if ( (gameNow != TEXT) && (gameNow != MAZE) )
     91c:	82 30       	cpi	r24, 0x02	; 2
     91e:	08 f0       	brcs	.+2      	; 0x922 <MagnetMaze+0x42>
     920:	e7 c0       	rjmp	.+462    	; 0xaf0 <MagnetMaze+0x210>
     922:	80 91 f3 3a 	lds	r24, 0x3AF3	; 0x803af3 <calHall>
        return 0;

    if (calHall == 0)
     926:	90 91 f4 3a 	lds	r25, 0x3AF4	; 0x803af4 <calHall+0x1>
     92a:	89 2b       	or	r24, r25
     92c:	41 f4       	brne	.+16     	; 0x93e <MagnetMaze+0x5e>
     92e:	80 91 bb 3a 	lds	r24, 0x3ABB	; 0x803abb <adcHall>
        calHall = adcHall;
     932:	90 91 bc 3a 	lds	r25, 0x3ABC	; 0x803abc <adcHall+0x1>
     936:	80 93 f3 3a 	sts	0x3AF3, r24	; 0x803af3 <calHall>
     93a:	90 93 f4 3a 	sts	0x3AF4, r25	; 0x803af4 <calHall+0x1>
     93e:	c0 91 bb 3a 	lds	r28, 0x3ABB	; 0x803abb <adcHall>

    int16_t valHall = adcHall - calHall;
     942:	d0 91 bc 3a 	lds	r29, 0x3ABC	; 0x803abc <adcHall+0x1>
     946:	80 91 f3 3a 	lds	r24, 0x3AF3	; 0x803af3 <calHall>
     94a:	90 91 f4 3a 	lds	r25, 0x3AF4	; 0x803af4 <calHall+0x1>
     94e:	c8 1b       	sub	r28, r24
     950:	d9 0b       	sbc	r29, r25
    showFieldStrength(valHall);
     952:	ce 01       	movw	r24, r28
     954:	8e df       	rcall	.-228    	; 0x872 <showFieldStrength>
     956:	80 91 4b 38 	lds	r24, 0x384B	; 0x80384b <curHallState>

    switch (curHallState) {
     95a:	81 30       	cpi	r24, 0x01	; 1
     95c:	89 f0       	breq	.+34     	; 0x980 <MagnetMaze+0xa0>
     95e:	18 f0       	brcs	.+6      	; 0x966 <MagnetMaze+0x86>
     960:	82 30       	cpi	r24, 0x02	; 2
     962:	c1 f0       	breq	.+48     	; 0x994 <MagnetMaze+0xb4>
     964:	1f c0       	rjmp	.+62     	; 0x9a4 <MagnetMaze+0xc4>
     966:	c4 3d       	cpi	r28, 0xD4	; 212
        case 0:
            if ( valHall + HALL_HIGH < 0 ) {
     968:	9e ef       	ldi	r25, 0xFE	; 254
     96a:	d9 07       	cpc	r29, r25
     96c:	14 f4       	brge	.+4      	; 0x972 <MagnetMaze+0x92>
     96e:	91 e0       	ldi	r25, 0x01	; 1
                newHallState = 1;
     970:	04 c0       	rjmp	.+8      	; 0x97a <MagnetMaze+0x9a>
     972:	cd 32       	cpi	r28, 0x2D	; 45
            } else if ( valHall - HALL_HIGH > 0 ) {
     974:	d1 40       	sbci	r29, 0x01	; 1
     976:	5c f0       	brlt	.+22     	; 0x98e <MagnetMaze+0xae>
     978:	92 e0       	ldi	r25, 0x02	; 2
                newHallState = 2;
     97a:	90 93 4a 38 	sts	0x384A, r25	; 0x80384a <newHallState>
     97e:	12 c0       	rjmp	.+36     	; 0x9a4 <MagnetMaze+0xc4>
     980:	cd 32       	cpi	r28, 0x2D	; 45
                newHallState = 0;
            }
            break;
        
        case 1:
            if ( valHall - HALL_HIGH > 0 ) {
     982:	91 e0       	ldi	r25, 0x01	; 1
     984:	d9 07       	cpc	r29, r25
     986:	c4 f7       	brge	.-16     	; 0x978 <MagnetMaze+0x98>
     988:	c9 38       	cpi	r28, 0x89	; 137
                newHallState = 2;
            } else if ( valHall + HALL_LOW > 0 ) {
     98a:	df 4f       	sbci	r29, 0xFF	; 255
     98c:	84 f3       	brlt	.-32     	; 0x96e <MagnetMaze+0x8e>
     98e:	10 92 4a 38 	sts	0x384A, r1	; 0x80384a <newHallState>
            if ( valHall + HALL_HIGH < 0 ) {
                newHallState = 1;
            } else if ( valHall - HALL_HIGH > 0 ) {
                newHallState = 2;
            } else {
                newHallState = 0;
     992:	08 c0       	rjmp	.+16     	; 0x9a4 <MagnetMaze+0xc4>
     994:	c4 3d       	cpi	r28, 0xD4	; 212
                newHallState = 1;
            }
            break;
        
        case 2:
            if ( valHall + HALL_HIGH < 0 ) {
     996:	9e ef       	ldi	r25, 0xFE	; 254
     998:	d9 07       	cpc	r29, r25
     99a:	4c f3       	brlt	.-46     	; 0x96e <MagnetMaze+0x8e>
     99c:	c8 37       	cpi	r28, 0x78	; 120
                newHallState = 1;
            } else if ( valHall - HALL_LOW < 0 ) {
     99e:	d1 05       	cpc	r29, r1
     9a0:	b4 f3       	brlt	.-20     	; 0x98e <MagnetMaze+0xae>
     9a2:	ea cf       	rjmp	.-44     	; 0x978 <MagnetMaze+0x98>
     9a4:	c0 91 b8 bd 	lds	r28, 0xBDB8	; 0x80bdb8 <__bss_end+0x829e>
            }
            break;
    }

    /* Indicate that the magnet was read succesfully */
    iLED[CAT] = (newHallState ? dimValue : 0);
     9a8:	ec 2f       	mov	r30, r28
     9aa:	f0 e0       	ldi	r31, 0x00	; 0
     9ac:	90 91 4a 38 	lds	r25, 0x384A	; 0x80384a <newHallState>
     9b0:	99 23       	and	r25, r25
     9b2:	19 f0       	breq	.+6      	; 0x9ba <MagnetMaze+0xda>
     9b4:	20 91 0b 38 	lds	r18, 0x380B	; 0x80380b <dimValue>
     9b8:	01 c0       	rjmp	.+2      	; 0x9bc <MagnetMaze+0xdc>
     9ba:	20 e0       	ldi	r18, 0x00	; 0
     9bc:	e6 53       	subi	r30, 0x36	; 54
     9be:	f5 4c       	sbci	r31, 0xC5	; 197
     9c0:	20 83       	st	Z, r18
     9c2:	89 17       	cp	r24, r25

    if (newHallState != curHallState) {
     9c4:	09 f4       	brne	.+2      	; 0x9c8 <MagnetMaze+0xe8>
     9c6:	94 c0       	rjmp	.+296    	; 0xaf0 <MagnetMaze+0x210>
     9c8:	0e 94 54 0d 	call	0x1aa8	; 0x1aa8 <getClock>
        /* keep track of time to enable an idle timeout to exit the game */
        mazeLastActive = getClock();
     9cc:	80 93 45 38 	sts	0x3845, r24	; 0x803845 <mazeLastActive>
     9d0:	90 93 46 38 	sts	0x3846, r25	; 0x803846 <mazeLastActive+0x1>
     9d4:	20 91 49 38 	lds	r18, 0x3849	; 0x803849 <mazePos>

        /* Make the maze work regardless of badge orientation */
        if ((mazePos == 0) && (newHallState != 0))
     9d8:	80 91 4a 38 	lds	r24, 0x384A	; 0x80384a <newHallState>
     9dc:	21 11       	cpse	r18, r1
     9de:	08 c0       	rjmp	.+16     	; 0x9f0 <MagnetMaze+0x110>
     9e0:	88 23       	and	r24, r24
     9e2:	31 f0       	breq	.+12     	; 0x9f0 <MagnetMaze+0x110>
     9e4:	91 e0       	ldi	r25, 0x01	; 1
            inverted = (newHallState != mazeCode[0]) ? TRUE : FALSE;
     9e6:	81 30       	cpi	r24, 0x01	; 1
     9e8:	09 f4       	brne	.+2      	; 0x9ec <MagnetMaze+0x10c>
     9ea:	90 e0       	ldi	r25, 0x00	; 0
     9ec:	90 93 47 38 	sts	0x3847, r25	; 0x803847 <inverted>
     9f0:	80 93 4b 38 	sts	0x384B, r24	; 0x80384b <curHallState>

        curHallState = newHallState;
     9f4:	88 23       	and	r24, r24
        
        if (curHallState != 0) {
     9f6:	09 f4       	brne	.+2      	; 0x9fa <MagnetMaze+0x11a>
     9f8:	7b c0       	rjmp	.+246    	; 0xaf0 <MagnetMaze+0x210>
     9fa:	91 e0       	ldi	r25, 0x01	; 1
            gameNow = MAZE;
     9fc:	90 93 3c 38 	sts	0x383C, r25	; 0x80383c <gameNow>
     a00:	90 91 47 38 	lds	r25, 0x3847	; 0x803847 <inverted>
            if ( (inverted ? curHallState^3 : curHallState) == mazeCode[mazePos]) {
     a04:	99 23       	and	r25, r25
     a06:	11 f0       	breq	.+4      	; 0xa0c <MagnetMaze+0x12c>
     a08:	93 e0       	ldi	r25, 0x03	; 3
     a0a:	89 27       	eor	r24, r25
     a0c:	90 e0       	ldi	r25, 0x00	; 0
     a0e:	e2 2f       	mov	r30, r18
     a10:	f0 e0       	ldi	r31, 0x00	; 0
     a12:	ea 50       	subi	r30, 0x0A	; 10
     a14:	f2 44       	sbci	r31, 0x42	; 66
     a16:	40 81       	ld	r20, Z
     a18:	50 e0       	ldi	r21, 0x00	; 0
     a1a:	84 17       	cp	r24, r20
     a1c:	95 07       	cpc	r25, r21
     a1e:	91 f4       	brne	.+36     	; 0xa44 <MagnetMaze+0x164>
     a20:	80 91 0c 38 	lds	r24, 0x380C	; 0x80380c <mazeState>
                mazeState &= TRUE;
     a24:	81 70       	andi	r24, 0x01	; 1
     a26:	80 93 0c 38 	sts	0x380C, r24	; 0x80380c <mazeState>
     a2a:	e0 91 c7 bd 	lds	r30, 0xBDC7	; 0x80bdc7 <__bss_end+0x82ad>
                iLED[EYE[R][L]] = 0;
     a2e:	f0 e0       	ldi	r31, 0x00	; 0
     a30:	e6 53       	subi	r30, 0x36	; 54
     a32:	f5 4c       	sbci	r31, 0xC5	; 197
     a34:	10 82       	st	Z, r1
     a36:	e0 91 c6 bd 	lds	r30, 0xBDC6	; 0x80bdc6 <__bss_end+0x82ac>
                iLED[EYE[R][R]] = 0;
     a3a:	f0 e0       	ldi	r31, 0x00	; 0
     a3c:	e6 53       	subi	r30, 0x36	; 54
     a3e:	f5 4c       	sbci	r31, 0xC5	; 197
     a40:	10 82       	st	Z, r1
     a42:	02 c0       	rjmp	.+4      	; 0xa48 <MagnetMaze+0x168>
     a44:	10 92 0c 38 	sts	0x380C, r1	; 0x80380c <mazeState>
            } else {
                mazeState = FALSE;
     a48:	81 e0       	ldi	r24, 0x01	; 1
                /* TODO play tone BAD */
            }
            mazePos++;
     a4a:	82 0f       	add	r24, r18
     a4c:	80 93 49 38 	sts	0x3849, r24	; 0x803849 <mazePos>
     a50:	90 91 48 38 	lds	r25, 0x3848	; 0x803848 <mazeCnt>
            mazeCnt++;            
     a54:	9f 5f       	subi	r25, 0xFF	; 255
     a56:	93 30       	cpi	r25, 0x03	; 3
            if (mazeCnt >= 3) {
     a58:	18 f4       	brcc	.+6      	; 0xa60 <MagnetMaze+0x180>
     a5a:	90 93 48 38 	sts	0x3848, r25	; 0x803848 <mazeCnt>
            } else {
                mazeState = FALSE;
                /* TODO play tone BAD */
            }
            mazePos++;
            mazeCnt++;            
     a5e:	48 c0       	rjmp	.+144    	; 0xaf0 <MagnetMaze+0x210>
     a60:	10 92 48 38 	sts	0x3848, r1	; 0x803848 <mazeCnt>
            if (mazeCnt >= 3) {
                mazeCnt = 0;
     a64:	90 91 0c 38 	lds	r25, 0x380C	; 0x80380c <mazeState>
                if (mazeState == TRUE) {
     a68:	91 30       	cpi	r25, 0x01	; 1
     a6a:	79 f5       	brne	.+94     	; 0xaca <MagnetMaze+0x1ea>
     a6c:	eb ea       	ldi	r30, 0xAB	; 171
                    /* TODO play tone GOOD */
                    iLED[HCKR[G][(mazePos/3)-1]] = dimValue;
     a6e:	8e 9f       	mul	r24, r30
     a70:	e1 2d       	mov	r30, r1
     a72:	11 24       	eor	r1, r1
     a74:	e6 95       	lsr	r30
     a76:	f0 e0       	ldi	r31, 0x00	; 0
     a78:	e6 53       	subi	r30, 0x36	; 54
     a7a:	f2 44       	sbci	r31, 0x42	; 66
     a7c:	e5 81       	ldd	r30, Z+5	; 0x05
     a7e:	f0 e0       	ldi	r31, 0x00	; 0
     a80:	90 91 0b 38 	lds	r25, 0x380B	; 0x80380b <dimValue>
     a84:	e6 53       	subi	r30, 0x36	; 54
     a86:	f5 4c       	sbci	r31, 0xC5	; 197
     a88:	90 83       	st	Z, r25
                    if (mazePos == sizeof(mazeCode)) {
     a8a:	82 31       	cpi	r24, 0x12	; 18
     a8c:	89 f5       	brne	.+98     	; 0xaf0 <MagnetMaze+0x210>
                        UpdateState(MAZE_COMPLETED);
     a8e:	8d e7       	ldi	r24, 0x7D	; 125
     a90:	52 d5       	rcall	.+2724   	; 0x1536 <UpdateState>
     a92:	ec 2f       	mov	r30, r28
                        iLED[CAT]       = 0;
     a94:	f0 e0       	ldi	r31, 0x00	; 0
     a96:	e6 53       	subi	r30, 0x36	; 54
     a98:	f5 4c       	sbci	r31, 0xC5	; 197
     a9a:	10 82       	st	Z, r1
     a9c:	e0 91 c7 bd 	lds	r30, 0xBDC7	; 0x80bdc7 <__bss_end+0x82ad>
                        iLED[EYE[R][L]] = 0;
     aa0:	f0 e0       	ldi	r31, 0x00	; 0
     aa2:	e6 53       	subi	r30, 0x36	; 54
     aa4:	f5 4c       	sbci	r31, 0xC5	; 197
     aa6:	10 82       	st	Z, r1
     aa8:	e0 91 c6 bd 	lds	r30, 0xBDC6	; 0x80bdc6 <__bss_end+0x82ac>
                        iLED[EYE[R][R]] = 0;
     aac:	f0 e0       	ldi	r31, 0x00	; 0
     aae:	e6 53       	subi	r30, 0x36	; 54
     ab0:	f5 4c       	sbci	r31, 0xC5	; 197
     ab2:	10 82       	st	Z, r1
     ab4:	e0 91 c9 bd 	lds	r30, 0xBDC9	; 0x80bdc9 <__bss_end+0x82af>
                        iLED[EYE[G][L]] = dimValue;
     ab8:	f0 e0       	ldi	r31, 0x00	; 0
     aba:	80 91 0b 38 	lds	r24, 0x380B	; 0x80380b <dimValue>
     abe:	e6 53       	subi	r30, 0x36	; 54
     ac0:	f5 4c       	sbci	r31, 0xC5	; 197
     ac2:	80 83       	st	Z, r24
                        iLED[EYE[G][R]] = dimValue;
     ac4:	e0 91 c8 bd 	lds	r30, 0xBDC8	; 0x80bdc8 <__bss_end+0x82ae>
     ac8:	0d c0       	rjmp	.+26     	; 0xae4 <MagnetMaze+0x204>
                        /*state = STATE_MUSIC;*/
                    }
                } else {
                    initMaze();
     aca:	a0 de       	rcall	.-704    	; 0x80c <initMaze>
     acc:	10 92 3c 38 	sts	0x383C, r1	; 0x80383c <gameNow>
                    gameNow   = TEXT;
     ad0:	e0 91 c7 bd 	lds	r30, 0xBDC7	; 0x80bdc7 <__bss_end+0x82ad>
                    iLED[EYE[R][L]] = dimValue;
     ad4:	f0 e0       	ldi	r31, 0x00	; 0
     ad6:	80 91 0b 38 	lds	r24, 0x380B	; 0x80380b <dimValue>
     ada:	e6 53       	subi	r30, 0x36	; 54
     adc:	f5 4c       	sbci	r31, 0xC5	; 197
     ade:	80 83       	st	Z, r24
     ae0:	e0 91 c6 bd 	lds	r30, 0xBDC6	; 0x80bdc6 <__bss_end+0x82ac>
                    iLED[EYE[R][R]] = dimValue;
     ae4:	f0 e0       	ldi	r31, 0x00	; 0
     ae6:	80 91 0b 38 	lds	r24, 0x380B	; 0x80380b <dimValue>
     aea:	e6 53       	subi	r30, 0x36	; 54
     aec:	f5 4c       	sbci	r31, 0xC5	; 197
     aee:	80 83       	st	Z, r24
     af0:	80 e0       	ldi	r24, 0x00	; 0
                }
            }
        }
    }
    return 0;
}
     af2:	df 91       	pop	r29
     af4:	cf 91       	pop	r28
     af6:	08 95       	ret

00000af8 <Setup>:

volatile uint16_t tmp16bit;    
volatile uint8_t mask[8] = {0x01, 0x03, 0x07, 0x0f, 0x1f, 0x3f, 0x7f, 0xff};
uint8_t heart = 0;

void Setup(){
     af8:	cf 93       	push	r28
     afa:	df 93       	push	r29
    cli();
     afc:	f8 94       	cli

    //Set up clock at 10MHz
    CCP = CCP_IOREG_gc;
     afe:	88 ed       	ldi	r24, 0xD8	; 216
     b00:	84 bf       	out	0x34, r24	; 52
    CLKCTRL_MCLKCTRLB = 0x01;
     b02:	c1 e0       	ldi	r28, 0x01	; 1
     b04:	c0 93 61 00 	sts	0x0061, r28	; 0x800061 <__TEXT_REGION_LENGTH__+0x700061>

    //Set I/O direction registers
    PORTA_DIR = 0b01001010;
     b08:	8a e4       	ldi	r24, 0x4A	; 74
     b0a:	80 93 00 04 	sts	0x0400, r24	; 0x800400 <__TEXT_REGION_LENGTH__+0x700400>
    PORTB_DIR = 0b01111100;
     b0e:	8c e7       	ldi	r24, 0x7C	; 124
     b10:	80 93 20 04 	sts	0x0420, r24	; 0x800420 <__TEXT_REGION_LENGTH__+0x700420>
    PORTC_DIR = 0b00111111;
     b14:	9f e3       	ldi	r25, 0x3F	; 63
     b16:	90 93 40 04 	sts	0x0440, r25	; 0x800440 <__TEXT_REGION_LENGTH__+0x700440>

    //Invert some pins for correcting LED reversal error
    PORTC_PIN3CTRL |= 0x80;
     b1a:	80 91 53 04 	lds	r24, 0x0453	; 0x800453 <__TEXT_REGION_LENGTH__+0x700453>
     b1e:	80 68       	ori	r24, 0x80	; 128
     b20:	80 93 53 04 	sts	0x0453, r24	; 0x800453 <__TEXT_REGION_LENGTH__+0x700453>
    PORTC_PIN4CTRL |= 0x80;
     b24:	80 91 54 04 	lds	r24, 0x0454	; 0x800454 <__TEXT_REGION_LENGTH__+0x700454>
     b28:	80 68       	ori	r24, 0x80	; 128
     b2a:	80 93 54 04 	sts	0x0454, r24	; 0x800454 <__TEXT_REGION_LENGTH__+0x700454>
    PORTC_PIN5CTRL |= 0x80;
     b2e:	80 91 55 04 	lds	r24, 0x0455	; 0x800455 <__TEXT_REGION_LENGTH__+0x700455>
     b32:	80 68       	ori	r24, 0x80	; 128
     b34:	80 93 55 04 	sts	0x0455, r24	; 0x800455 <__TEXT_REGION_LENGTH__+0x700455>
    PORTB_PIN3CTRL |= 0x80;
     b38:	80 91 33 04 	lds	r24, 0x0433	; 0x800433 <__TEXT_REGION_LENGTH__+0x700433>
     b3c:	80 68       	ori	r24, 0x80	; 128
     b3e:	80 93 33 04 	sts	0x0433, r24	; 0x800433 <__TEXT_REGION_LENGTH__+0x700433>
    PORTB_PIN4CTRL |= 0x80;
     b42:	80 91 34 04 	lds	r24, 0x0434	; 0x800434 <__TEXT_REGION_LENGTH__+0x700434>
     b46:	80 68       	ori	r24, 0x80	; 128
     b48:	80 93 34 04 	sts	0x0434, r24	; 0x800434 <__TEXT_REGION_LENGTH__+0x700434>
    PORTB_PIN5CTRL |= 0x80;
     b4c:	80 91 35 04 	lds	r24, 0x0435	; 0x800435 <__TEXT_REGION_LENGTH__+0x700435>
     b50:	80 68       	ori	r24, 0x80	; 128
     b52:	80 93 35 04 	sts	0x0435, r24	; 0x800435 <__TEXT_REGION_LENGTH__+0x700435>
    PORTB_PIN2CTRL |= 0x80;
    PORTB_PIN6CTRL |= 0x80;
    */

    //UART (Alternative pins PA1=TxD, PA2=RxD, baudrate 9600, 8n1, RX and Buffer empty interrupts on)
    PORTMUX_CTRLB = 0x01;
     b56:	c0 93 01 02 	sts	0x0201, r28	; 0x800201 <__TEXT_REGION_LENGTH__+0x700201>
    PORTA_OUTSET = 0x02;
     b5a:	d2 e0       	ldi	r29, 0x02	; 2
     b5c:	d0 93 05 04 	sts	0x0405, r29	; 0x800405 <__TEXT_REGION_LENGTH__+0x700405>
    USART0_BAUD = (uint16_t)USART0_BAUD_RATE(115200);
     b60:	2b e5       	ldi	r18, 0x5B	; 91
     b62:	31 e0       	ldi	r19, 0x01	; 1
     b64:	20 93 08 08 	sts	0x0808, r18	; 0x800808 <__TEXT_REGION_LENGTH__+0x700808>
     b68:	30 93 09 08 	sts	0x0809, r19	; 0x800809 <__TEXT_REGION_LENGTH__+0x700809>
    USART0_CTRLA = 0xA0; //Interrupts on
     b6c:	80 ea       	ldi	r24, 0xA0	; 160
     b6e:	80 93 05 08 	sts	0x0805, r24	; 0x800805 <__TEXT_REGION_LENGTH__+0x700805>
    USART0_CTRLB = 0xC0; //RX and TX on
     b72:	80 ec       	ldi	r24, 0xC0	; 192
     b74:	80 93 06 08 	sts	0x0806, r24	; 0x800806 <__TEXT_REGION_LENGTH__+0x700806>
    USART0_CTRLC = 0x03; //8 bits data, no parity, 1 stop bit
     b78:	83 e0       	ldi	r24, 0x03	; 3
     b7a:	80 93 07 08 	sts	0x0807, r24	; 0x800807 <__TEXT_REGION_LENGTH__+0x700807>
     
    //GPIO registers 0..3 can be used for global variables used in ISR routines (ASM capability: IN, OUT, SBI, CBI, SBIS, SBIC)
    L_COL = 0;     //Used in LED array to hold currently driven column value
     b7e:	1c ba       	out	0x1c, r1	; 28
    RXCNT = 0;     //Used as UART receive counter
     b80:	1d ba       	out	0x1d, r1	; 29
    AUPOS = 0;     //Used as audio input/output buffer counter
     b82:	1e ba       	out	0x1e, r1	; 30
    GPIOR3 = 0;    //
     b84:	1f ba       	out	0x1f, r1	; 31

    //Init TCA (split mode, f_CLK/16, PWM on 6 alternative pins, underflow int enabled, synced and started)
    TCA0_SPLIT_CTRLD = 1;
     b86:	c0 93 03 0a 	sts	0x0A03, r28	; 0x800a03 <__TEXT_REGION_LENGTH__+0x700a03>
    TCA0_SPLIT_CTRLA = (0x4)<<1;
     b8a:	88 e0       	ldi	r24, 0x08	; 8
     b8c:	80 93 00 0a 	sts	0x0A00, r24	; 0x800a00 <__TEXT_REGION_LENGTH__+0x700a00>
    PORTMUX_CTRLC = 0x3F;
     b90:	90 93 02 02 	sts	0x0202, r25	; 0x800202 <__TEXT_REGION_LENGTH__+0x700202>
    TCA0_SPLIT_CTRLB = 0x77;
     b94:	87 e7       	ldi	r24, 0x77	; 119
     b96:	80 93 01 0a 	sts	0x0A01, r24	; 0x800a01 <__TEXT_REGION_LENGTH__+0x700a01>
    TCA0_SPLIT_INTCTRL = 0x1;
     b9a:	c0 93 0a 0a 	sts	0x0A0A, r28	; 0x800a0a <__TEXT_REGION_LENGTH__+0x700a0a>
    TCA0_SPLIT_CTRLESET = ((0x2)<<2)|0x3;
     b9e:	8b e0       	ldi	r24, 0x0B	; 11
     ba0:	80 93 05 0a 	sts	0x0A05, r24	; 0x800a05 <__TEXT_REGION_LENGTH__+0x700a05>
    TCA0_SPLIT_CTRLA |= 1;
     ba4:	80 91 00 0a 	lds	r24, 0x0A00	; 0x800a00 <__TEXT_REGION_LENGTH__+0x700a00>
     ba8:	81 60       	ori	r24, 0x01	; 1
     baa:	80 93 00 0a 	sts	0x0A00, r24	; 0x800a00 <__TEXT_REGION_LENGTH__+0x700a00>
     
    //Init TCB0 (compare value sets serial Tx pause between characters, uses TCA0 prescaler, enabled, interrupt disabled)
    TCB0_CTRLA = ((0x02)<<1)|0x01;
     bae:	85 e0       	ldi	r24, 0x05	; 5
     bb0:	80 93 40 0a 	sts	0x0A40, r24	; 0x800a40 <__TEXT_REGION_LENGTH__+0x700a40>
    TCB0_CTRLB = 0;
     bb4:	10 92 41 0a 	sts	0x0A41, r1	; 0x800a41 <__TEXT_REGION_LENGTH__+0x700a41>
    TCB0_CCMP = 0x01FF;
     bb8:	8f ef       	ldi	r24, 0xFF	; 255
     bba:	91 e0       	ldi	r25, 0x01	; 1
     bbc:	80 93 4c 0a 	sts	0x0A4C, r24	; 0x800a4c <__TEXT_REGION_LENGTH__+0x700a4c>
     bc0:	90 93 4d 0a 	sts	0x0A4D, r25	; 0x800a4d <__TEXT_REGION_LENGTH__+0x700a4d>
    TCB0_INTCTRL = 0x00;     
     bc4:	10 92 45 0a 	sts	0x0A45, r1	; 0x800a45 <__TEXT_REGION_LENGTH__+0x700a45>
     
    //Init TCB1 (compare value sets audio sample rate (0x038B = 11025sps), enabled, interrupt enabled)
    TCB1_CTRLA = 0x01;
     bc8:	c0 93 50 0a 	sts	0x0A50, r28	; 0x800a50 <__TEXT_REGION_LENGTH__+0x700a50>
    TCB1_CTRLB = 0;
     bcc:	10 92 51 0a 	sts	0x0A51, r1	; 0x800a51 <__TEXT_REGION_LENGTH__+0x700a51>
    TCB1_CCMP = 0x038B;
     bd0:	8b e8       	ldi	r24, 0x8B	; 139
     bd2:	93 e0       	ldi	r25, 0x03	; 3
     bd4:	80 93 5c 0a 	sts	0x0A5C, r24	; 0x800a5c <__TEXT_REGION_LENGTH__+0x700a5c>
     bd8:	90 93 5d 0a 	sts	0x0A5D, r25	; 0x800a5d <__TEXT_REGION_LENGTH__+0x700a5d>
    TCB1_INTCTRL = 0x01;
     bdc:	c0 93 55 0a 	sts	0x0A55, r28	; 0x800a55 <__TEXT_REGION_LENGTH__+0x700a55>

    //Init I2C (100kHz)
    I2C_init();
     be0:	c9 db       	rcall	.-2158   	; 0x374 <I2C_init>

    //VREF (DAC, ADC's)
    VREF_CTRLA   = 0x12;    //0x22 for audio in/out (2.5V), 0x12 for temperature in, audio out (1.1V/2.5V)
     be2:	82 e1       	ldi	r24, 0x12	; 18
     be4:	80 93 a0 00 	sts	0x00A0, r24	; 0x8000a0 <__TEXT_REGION_LENGTH__+0x7000a0>
    VREF_CTRLC   = 0x20;    //ADC1 reference at 2.5V
     be8:	80 e2       	ldi	r24, 0x20	; 32
     bea:	80 93 a2 00 	sts	0x00A2, r24	; 0x8000a2 <__TEXT_REGION_LENGTH__+0x7000a2>
    VREF_CTRLB   = 0x01;    //DAC0 ref forced enabled
     bee:	c0 93 a1 00 	sts	0x00A1, r28	; 0x8000a1 <__TEXT_REGION_LENGTH__+0x7000a1>

    //Init ADC0 (audio in, also controls DAC output rate, internal temperature?)
    ADC0_CTRLA   = 0x02;    //10 bit resolution, free running
     bf2:	d0 93 00 06 	sts	0x0600, r29	; 0x800600 <__TEXT_REGION_LENGTH__+0x700600>
    ADC0_CTRLC   = 0x44;    //Reduced sample capacitor, internal reference, clock/32 => 24038sps
     bf6:	84 e4       	ldi	r24, 0x44	; 68
     bf8:	80 93 02 06 	sts	0x0602, r24	; 0x800602 <__TEXT_REGION_LENGTH__+0x700602>
    ADC0_MUXPOS  = 0x1E;    //Audio in: AIN7 at (0x07), Temperature: Internal sensor at (0x1E)
     bfc:	8e e1       	ldi	r24, 0x1E	; 30
     bfe:	80 93 06 06 	sts	0x0606, r24	; 0x800606 <__TEXT_REGION_LENGTH__+0x700606>
    ADC0_INTCTRL = 0x01;    //Result ready interrupt enabled
     c02:	c0 93 0a 06 	sts	0x060A, r28	; 0x80060a <__TEXT_REGION_LENGTH__+0x70060a>
    ADC0_CTRLA  |= 0x01;    //ADC0 enabled
     c06:	80 91 00 06 	lds	r24, 0x0600	; 0x800600 <__TEXT_REGION_LENGTH__+0x700600>
     c0a:	81 60       	ori	r24, 0x01	; 1
     c0c:	80 93 00 06 	sts	0x0600, r24	; 0x800600 <__TEXT_REGION_LENGTH__+0x700600>
    ADC0_COMMAND = 0x01;    //Start first conversion, after that it will run periodically.
     c10:	c0 93 08 06 	sts	0x0608, r28	; 0x800608 <__TEXT_REGION_LENGTH__+0x700608>

    //Init ADC1 (buttons and sensors: CH0=Photo transistor, CH1=Hall, CH4=Buttons)
    ADC1_CTRLA   = 0;
     c14:	10 92 40 06 	sts	0x0640, r1	; 0x800640 <__TEXT_REGION_LENGTH__+0x700640>
    ADC1_CTRLB   = 0x02;    //4 results automatically accumulated
     c18:	d0 93 41 06 	sts	0x0641, r29	; 0x800641 <__TEXT_REGION_LENGTH__+0x700641>
    ADC1_CTRLC   = 0x52;    //Reduced sample capacitor, VDD as reference, clock/8
     c1c:	82 e5       	ldi	r24, 0x52	; 82
     c1e:	80 93 42 06 	sts	0x0642, r24	; 0x800642 <__TEXT_REGION_LENGTH__+0x700642>
    ADC1_SAMPCTRL= 0x04;    //Extend sampling time with 4 cycles (6 total)
     c22:	84 e0       	ldi	r24, 0x04	; 4
     c24:	80 93 45 06 	sts	0x0645, r24	; 0x800645 <__TEXT_REGION_LENGTH__+0x700645>
    ADC1_MUXPOS  = 0x04;    //Start with Buttons, for sensors, activate sensor power first.
     c28:	80 93 46 06 	sts	0x0646, r24	; 0x800646 <__TEXT_REGION_LENGTH__+0x700646>
    ADC1_INTCTRL = 0x01;    //Result ready interrupt enabled
     c2c:	c0 93 4a 06 	sts	0x064A, r28	; 0x80064a <__TEXT_REGION_LENGTH__+0x70064a>
    ADC1_CTRLA  |= 0x01;    //ADC0 enabled
     c30:	80 91 40 06 	lds	r24, 0x0640	; 0x800640 <__TEXT_REGION_LENGTH__+0x700640>
     c34:	81 60       	ori	r24, 0x01	; 1
     c36:	80 93 40 06 	sts	0x0640, r24	; 0x800640 <__TEXT_REGION_LENGTH__+0x700640>
    ADC1_COMMAND = 0x01;    //Start single conversion
     c3a:	c0 93 48 06 	sts	0x0648, r28	; 0x800648 <__TEXT_REGION_LENGTH__+0x700648>

    //Init DAC0
    DAC0_CTRLA = 0x40;     //Enable output buffer (connect to pin)
     c3e:	80 e4       	ldi	r24, 0x40	; 64
     c40:	80 93 a0 06 	sts	0x06A0, r24	; 0x8006a0 <__TEXT_REGION_LENGTH__+0x7006a0>
    DAC0_DATA = 0x80;      //Data value at half point (about 1.25V)
     c44:	80 e8       	ldi	r24, 0x80	; 128
     c46:	80 93 a1 06 	sts	0x06A1, r24	; 0x8006a1 <__TEXT_REGION_LENGTH__+0x7006a1>
    DAC0_CTRLA |= 0x01;    //Enable DAC
     c4a:	80 91 a0 06 	lds	r24, 0x06A0	; 0x8006a0 <__TEXT_REGION_LENGTH__+0x7006a0>
     c4e:	81 60       	ori	r24, 0x01	; 1
     c50:	80 93 a0 06 	sts	0x06A0, r24	; 0x8006a0 <__TEXT_REGION_LENGTH__+0x7006a0>
     
    //PIT and RTC interrupts
    while(RTC_STATUS & RTC_CTRLABUSY_bm);
     c54:	80 91 41 01 	lds	r24, 0x0141	; 0x800141 <__TEXT_REGION_LENGTH__+0x700141>
     c58:	80 fd       	sbrc	r24, 0
     c5a:	fc cf       	rjmp	.-8      	; 0xc54 <Setup+0x15c>
    RTC_CTRLA          = (0x6)<<3;                         //Prescaler: /64
     c5c:	80 e3       	ldi	r24, 0x30	; 48
     c5e:	80 93 40 01 	sts	0x0140, r24	; 0x800140 <__TEXT_REGION_LENGTH__+0x700140>
    RTC_CLKSEL         = 0;                                //Clock source: internal 32768Hz clock
     c62:	10 92 47 01 	sts	0x0147, r1	; 0x800147 <__TEXT_REGION_LENGTH__+0x700147>
    while(RTC_STATUS & RTC_PERBUSY_bm);
     c66:	80 91 41 01 	lds	r24, 0x0141	; 0x800141 <__TEXT_REGION_LENGTH__+0x700141>
     c6a:	82 fd       	sbrc	r24, 2
     c6c:	fc cf       	rjmp	.-8      	; 0xc66 <Setup+0x16e>
    RTC_PER            = 512*60;                           //60 second period (for clocking how long the device has been running?)
     c6e:	80 e0       	ldi	r24, 0x00	; 0
     c70:	98 e7       	ldi	r25, 0x78	; 120
     c72:	80 93 4a 01 	sts	0x014A, r24	; 0x80014a <__TEXT_REGION_LENGTH__+0x70014a>
     c76:	90 93 4b 01 	sts	0x014B, r25	; 0x80014b <__TEXT_REGION_LENGTH__+0x70014b>
    tmp16bit = (RTC_CNT + BTN_TMR)%RTC_PER;
     c7a:	80 91 48 01 	lds	r24, 0x0148	; 0x800148 <__TEXT_REGION_LENGTH__+0x700148>
     c7e:	90 91 49 01 	lds	r25, 0x0149	; 0x800149 <__TEXT_REGION_LENGTH__+0x700149>
     c82:	60 91 4a 01 	lds	r22, 0x014A	; 0x80014a <__TEXT_REGION_LENGTH__+0x70014a>
     c86:	70 91 4b 01 	lds	r23, 0x014B	; 0x80014b <__TEXT_REGION_LENGTH__+0x70014b>
     c8a:	82 96       	adiw	r24, 0x22	; 34
     c8c:	0e 94 7d 1e 	call	0x3cfa	; 0x3cfa <__udivmodhi4>
     c90:	80 93 f7 3a 	sts	0x3AF7, r24	; 0x803af7 <tmp16bit>
     c94:	90 93 f8 3a 	sts	0x3AF8, r25	; 0x803af8 <tmp16bit+0x1>
    while(RTC_STATUS & RTC_CMPBUSY_bm);
     c98:	80 91 41 01 	lds	r24, 0x0141	; 0x800141 <__TEXT_REGION_LENGTH__+0x700141>
     c9c:	83 fd       	sbrc	r24, 3
     c9e:	fc cf       	rjmp	.-8      	; 0xc98 <Setup+0x1a0>
    RTC_CMP            = tmp16bit;                         //Button timing
     ca0:	80 91 f7 3a 	lds	r24, 0x3AF7	; 0x803af7 <tmp16bit>
     ca4:	90 91 f8 3a 	lds	r25, 0x3AF8	; 0x803af8 <tmp16bit+0x1>
     ca8:	80 93 4c 01 	sts	0x014C, r24	; 0x80014c <__TEXT_REGION_LENGTH__+0x70014c>
     cac:	90 93 4d 01 	sts	0x014D, r25	; 0x80014d <__TEXT_REGION_LENGTH__+0x70014d>
    RTC_INTCTRL        = 0x03;                             //RTC overflow interrupt enabled
     cb0:	83 e0       	ldi	r24, 0x03	; 3
     cb2:	80 93 42 01 	sts	0x0142, r24	; 0x800142 <__TEXT_REGION_LENGTH__+0x700142>
    RTC_PITINTCTRL     = 0x01;                             //PIT interrupt enabled
     cb6:	81 e0       	ldi	r24, 0x01	; 1
     cb8:	80 93 52 01 	sts	0x0152, r24	; 0x800152 <__TEXT_REGION_LENGTH__+0x700152>
    RTC_PITCTRLA       = (0x1)<<3;                         //Interrupt fires after 4 RTC clock cycles Rate=(RTCCLK/(PRESC*PERIOD)) 32768/256=128Hz
     cbc:	88 e0       	ldi	r24, 0x08	; 8
     cbe:	80 93 50 01 	sts	0x0150, r24	; 0x800150 <__TEXT_REGION_LENGTH__+0x700150>
    while(RTC_STATUS & RTC_CTRLABUSY_bm);      
     cc2:	80 91 41 01 	lds	r24, 0x0141	; 0x800141 <__TEXT_REGION_LENGTH__+0x700141>
     cc6:	80 fd       	sbrc	r24, 0
     cc8:	fc cf       	rjmp	.-8      	; 0xcc2 <Setup+0x1ca>
    RTC_CTRLA          |= 0x01;                            //Enable RTC
     cca:	80 91 40 01 	lds	r24, 0x0140	; 0x800140 <__TEXT_REGION_LENGTH__+0x700140>
     cce:	81 60       	ori	r24, 0x01	; 1
     cd0:	80 93 40 01 	sts	0x0140, r24	; 0x800140 <__TEXT_REGION_LENGTH__+0x700140>
    RTC_PITCTRLA       |= 0x01;                            //Enable PIT
     cd4:	80 91 50 01 	lds	r24, 0x0150	; 0x800150 <__TEXT_REGION_LENGTH__+0x700150>
     cd8:	81 60       	ori	r24, 0x01	; 1
     cda:	80 93 50 01 	sts	0x0150, r24	; 0x800150 <__TEXT_REGION_LENGTH__+0x700150>
     
    //Other inits
    serRx[0] = 0;           // Empty Rx buffer (first char is enough)
     cde:	10 92 75 3a 	sts	0x3A75, r1	; 0x803a75 <serRx>
    serTxAddr = &serRx[0];  // Point to first address of the Rx buffer
     ce2:	85 e7       	ldi	r24, 0x75	; 117
     ce4:	9a e3       	ldi	r25, 0x3A	; 58
     ce6:	80 93 b9 3a 	sts	0x3AB9, r24	; 0x803ab9 <serTxAddr>
     cea:	90 93 ba 3a 	sts	0x3ABA, r25	; 0x803aba <serTxAddr+0x1>

    sei();
     cee:	78 94       	sei
}
     cf0:	df 91       	pop	r29
     cf2:	cf 91       	pop	r28
     cf4:	08 95       	ret

00000cf6 <__vector_8>:

// TCA0 is used for driving the LED matrix at 488Hz (* 5 columns = 2440Hz). The lower 8 bit underflow interrupt is used to load new values and shift between columns.
ISR(TCA0_LUNF_vect){
     cf6:	1f 92       	push	r1
     cf8:	0f 92       	push	r0
     cfa:	0f b6       	in	r0, 0x3f	; 63
     cfc:	0f 92       	push	r0
     cfe:	11 24       	eor	r1, r1
     d00:	8f 93       	push	r24
     d02:	9f 93       	push	r25
     d04:	af 93       	push	r26
     d06:	bf 93       	push	r27
     d08:	ef 93       	push	r30
     d0a:	ff 93       	push	r31
    //Turn off all columns
    PORTC_OUTCLR = 0x07;
     d0c:	87 e0       	ldi	r24, 0x07	; 7
     d0e:	80 93 46 04 	sts	0x0446, r24	; 0x800446 <__TEXT_REGION_LENGTH__+0x700446>
    PORTB_OUTCLR = 0x44;
     d12:	84 e4       	ldi	r24, 0x44	; 68
     d14:	80 93 26 04 	sts	0x0426, r24	; 0x800426 <__TEXT_REGION_LENGTH__+0x700426>
    "ldi r25, 6        \n"
    "ld r24, %a[arr]+  \n"
    "st %a[wo]+, r24   \n"
    "dec r25           \n"
    "brne .-8          \n"
    :: [wo] "e" (&TCA0_SPLIT_LCMP0), [arr] "e" (&iLED[(L_COL<<3)]) : "r25", "r24", "cc", "memory");
     d18:	ec b3       	in	r30, 0x1c	; 28
     d1a:	88 e0       	ldi	r24, 0x08	; 8
     d1c:	e8 9f       	mul	r30, r24
     d1e:	f0 01       	movw	r30, r0
     d20:	11 24       	eor	r1, r1
     d22:	e6 53       	subi	r30, 0x36	; 54
     d24:	f5 4c       	sbci	r31, 0xC5	; 197
    //Turn off all columns
    PORTC_OUTCLR = 0x07;
    PORTB_OUTCLR = 0x44;

    //Write all of the compare registers of TCA0 with PWM values in array (rows)
    asm(
     d26:	a8 e2       	ldi	r26, 0x28	; 40
     d28:	ba e0       	ldi	r27, 0x0A	; 10
     d2a:	96 e0       	ldi	r25, 0x06	; 6
     d2c:	81 91       	ld	r24, Z+
     d2e:	8d 93       	st	X+, r24
     d30:	9a 95       	dec	r25
     d32:	e1 f7       	brne	.-8      	; 0xd2c <__vector_8+0x36>
    "st %a[wo]+, r24   \n"
    "dec r25           \n"
    "brne .-8          \n"
    :: [wo] "e" (&TCA0_SPLIT_LCMP0), [arr] "e" (&iLED[(L_COL<<3)]) : "r25", "r24", "cc", "memory");

    TCA0_SPLIT_CTRLESET = ((0x2)<<2)|0x3; //Sync timers: Moved this below the PWM value loading to fix the data shifting in asm above.
     d34:	8b e0       	ldi	r24, 0x0B	; 11
     d36:	80 93 05 0a 	sts	0x0A05, r24	; 0x800a05 <__TEXT_REGION_LENGTH__+0x700a05>

    //Turn on the right column
    if (L_COL<3) {
     d3a:	8c b3       	in	r24, 0x1c	; 28
     d3c:	83 30       	cpi	r24, 0x03	; 3
     d3e:	58 f4       	brcc	.+22     	; 0xd56 <__vector_8+0x60>
        asm(
     d40:	8c b3       	in	r24, 0x1c	; 28
     d42:	91 e0       	ldi	r25, 0x01	; 1
     d44:	01 c0       	rjmp	.+2      	; 0xd48 <__vector_8+0x52>
     d46:	99 0f       	add	r25, r25
     d48:	8a 95       	dec	r24
     d4a:	ea f7       	brpl	.-6      	; 0xd46 <__vector_8+0x50>
     d4c:	99 b9       	out	0x09, r25	; 9
     d4e:	8c b3       	in	r24, 0x1c	; 28
     d50:	83 95       	inc	r24
     d52:	8c bb       	out	0x1c, r24	; 28
     d54:	0a c0       	rjmp	.+20     	; 0xd6a <__vector_8+0x74>
        "in r24, %[io0]  \n"
        "inc r24         \n"
        "out %[io0], r24 \n"
        :: [io0] "I" (&L_COL), [vpc] "I" (&VPORTC_OUT) : "r24", "r25", "cc");
        } else {
        asm(
     d56:	8c b3       	in	r24, 0x1c	; 28
     d58:	83 30       	cpi	r24, 0x03	; 3
     d5a:	21 f4       	brne	.+8      	; 0xd64 <__vector_8+0x6e>
     d5c:	2a 9a       	sbi	0x05, 2	; 5
     d5e:	83 95       	inc	r24
     d60:	8c bb       	out	0x1c, r24	; 28
     d62:	03 c0       	rjmp	.+6      	; 0xd6a <__vector_8+0x74>
     d64:	2e 9a       	sbi	0x05, 6	; 5
     d66:	88 27       	eor	r24, r24
     d68:	8c bb       	out	0x1c, r24	; 28
        "clr r24         \n"
        "out %[io0], r24 \n"
        :: [io0] "I" (&L_COL), [vpb] "I" (&VPORTB_OUT) : "r24", "cc");
    }
    
    if(timeout_I2C) --timeout_I2C;
     d6a:	80 91 60 3a 	lds	r24, 0x3A60	; 0x803a60 <timeout_I2C>
     d6e:	88 23       	and	r24, r24
     d70:	29 f0       	breq	.+10     	; 0xd7c <__vector_8+0x86>
     d72:	80 91 60 3a 	lds	r24, 0x3A60	; 0x803a60 <timeout_I2C>
     d76:	81 50       	subi	r24, 0x01	; 1
     d78:	80 93 60 3a 	sts	0x3A60, r24	; 0x803a60 <timeout_I2C>
    TCA0_SPLIT_INTFLAGS = 0xFF;
     d7c:	8f ef       	ldi	r24, 0xFF	; 255
     d7e:	80 93 0b 0a 	sts	0x0A0B, r24	; 0x800a0b <__TEXT_REGION_LENGTH__+0x700a0b>
}
     d82:	ff 91       	pop	r31
     d84:	ef 91       	pop	r30
     d86:	bf 91       	pop	r27
     d88:	af 91       	pop	r26
     d8a:	9f 91       	pop	r25
     d8c:	8f 91       	pop	r24
     d8e:	0f 90       	pop	r0
     d90:	0f be       	out	0x3f, r0	; 63
     d92:	0f 90       	pop	r0
     d94:	1f 90       	pop	r1
     d96:	18 95       	reti

00000d98 <__vector_13>:

// TCB0 is used for (slowly) sending serial characters. A 0x00 character code is needed to terminate sending or it will leak memory to serial. It's a feature, honest! 
ISR(TCB0_INT_vect){
     d98:	1f 92       	push	r1
     d9a:	0f 92       	push	r0
     d9c:	0f b6       	in	r0, 0x3f	; 63
     d9e:	0f 92       	push	r0
     da0:	11 24       	eor	r1, r1
     da2:	8f 93       	push	r24
     da4:	9f 93       	push	r25
     da6:	ef 93       	push	r30
     da8:	ff 93       	push	r31
    if (*serTxAddr) {
     daa:	e0 91 b9 3a 	lds	r30, 0x3AB9	; 0x803ab9 <serTxAddr>
     dae:	f0 91 ba 3a 	lds	r31, 0x3ABA	; 0x803aba <serTxAddr+0x1>
     db2:	80 81       	ld	r24, Z
     db4:	88 23       	and	r24, r24
     db6:	91 f0       	breq	.+36     	; 0xddc <__vector_13+0x44>
        USART0_TXDATAL = *serTxAddr;
     db8:	80 81       	ld	r24, Z
     dba:	80 93 02 08 	sts	0x0802, r24	; 0x800802 <__TEXT_REGION_LENGTH__+0x700802>
        serTxAddr++;
     dbe:	80 91 b9 3a 	lds	r24, 0x3AB9	; 0x803ab9 <serTxAddr>
     dc2:	90 91 ba 3a 	lds	r25, 0x3ABA	; 0x803aba <serTxAddr+0x1>
     dc6:	01 96       	adiw	r24, 0x01	; 1
     dc8:	80 93 b9 3a 	sts	0x3AB9, r24	; 0x803ab9 <serTxAddr>
     dcc:	90 93 ba 3a 	sts	0x3ABA, r25	; 0x803aba <serTxAddr+0x1>
        USART0_CTRLA |= USART_DREIE_bm;
     dd0:	80 91 05 08 	lds	r24, 0x0805	; 0x800805 <__TEXT_REGION_LENGTH__+0x700805>
     dd4:	80 62       	ori	r24, 0x20	; 32
     dd6:	80 93 05 08 	sts	0x0805, r24	; 0x800805 <__TEXT_REGION_LENGTH__+0x700805>
     dda:	05 c0       	rjmp	.+10     	; 0xde6 <__vector_13+0x4e>
    } else {
        serTxDone = 1;
     ddc:	81 e0       	ldi	r24, 0x01	; 1
     dde:	80 93 0a 38 	sts	0x380A, r24	; 0x80380a <serTxDone>
        TCB0_INTCTRL = 0x00;
     de2:	10 92 45 0a 	sts	0x0A45, r1	; 0x800a45 <__TEXT_REGION_LENGTH__+0x700a45>
    }
    TCB0_INTFLAGS = TCB_CAPT_bm;
     de6:	81 e0       	ldi	r24, 0x01	; 1
     de8:	80 93 46 0a 	sts	0x0A46, r24	; 0x800a46 <__TEXT_REGION_LENGTH__+0x700a46>
}
     dec:	ff 91       	pop	r31
     dee:	ef 91       	pop	r30
     df0:	9f 91       	pop	r25
     df2:	8f 91       	pop	r24
     df4:	0f 90       	pop	r0
     df6:	0f be       	out	0x3f, r0	; 63
     df8:	0f 90       	pop	r0
     dfa:	1f 90       	pop	r1
     dfc:	18 95       	reti

00000dfe <__vector_14>:

// TCB1 is used for audio generation. Keeps playing "data" until 0 is reached. Audio sample data can contain 0x01 to 0xFF, centered around 0x80
ISR(TCB1_INT_vect){
     dfe:	1f 92       	push	r1
     e00:	0f 92       	push	r0
     e02:	0f b6       	in	r0, 0x3f	; 63
     e04:	0f 92       	push	r0
     e06:	11 24       	eor	r1, r1
     e08:	2f 93       	push	r18
     e0a:	3f 93       	push	r19
     e0c:	4f 93       	push	r20
     e0e:	8f 93       	push	r24
     e10:	9f 93       	push	r25
     e12:	ef 93       	push	r30
     e14:	ff 93       	push	r31
    int16_t volCtrl;
    if (*auSmpAddr == 0) auSmpAddr = auRepAddr;
     e16:	e0 91 07 38 	lds	r30, 0x3807	; 0x803807 <auSmpAddr>
     e1a:	f0 91 08 38 	lds	r31, 0x3808	; 0x803808 <auSmpAddr+0x1>
     e1e:	80 81       	ld	r24, Z
     e20:	81 11       	cpse	r24, r1
     e22:	08 c0       	rjmp	.+16     	; 0xe34 <__vector_14+0x36>
     e24:	80 91 05 38 	lds	r24, 0x3805	; 0x803805 <auRepAddr>
     e28:	90 91 06 38 	lds	r25, 0x3806	; 0x803806 <auRepAddr+0x1>
     e2c:	80 93 07 38 	sts	0x3807, r24	; 0x803807 <auSmpAddr>
     e30:	90 93 08 38 	sts	0x3808, r25	; 0x803808 <auSmpAddr+0x1>
    if (*auSmpAddr) {
     e34:	e0 91 07 38 	lds	r30, 0x3807	; 0x803807 <auSmpAddr>
     e38:	f0 91 08 38 	lds	r31, 0x3808	; 0x803808 <auSmpAddr+0x1>
     e3c:	80 81       	ld	r24, Z
     e3e:	88 23       	and	r24, r24
     e40:	e1 f0       	breq	.+56     	; 0xe7a <__vector_14+0x7c>
        volCtrl = ((((int16_t)(*auSmpAddr) - 0x7f) * auVolume) >> 8) + 0x80;
     e42:	20 81       	ld	r18, Z
     e44:	40 91 b6 3a 	lds	r20, 0x3AB6	; 0x803ab6 <auVolume>
        DAC0_DATA = (uint8_t)(volCtrl);
     e48:	30 e0       	ldi	r19, 0x00	; 0
     e4a:	2f 57       	subi	r18, 0x7F	; 127
     e4c:	31 09       	sbc	r19, r1
     e4e:	42 9f       	mul	r20, r18
     e50:	c0 01       	movw	r24, r0
     e52:	43 9f       	mul	r20, r19
     e54:	90 0d       	add	r25, r0
     e56:	11 24       	eor	r1, r1
     e58:	89 2f       	mov	r24, r25
     e5a:	99 0f       	add	r25, r25
     e5c:	99 0b       	sbc	r25, r25
     e5e:	80 58       	subi	r24, 0x80	; 128
     e60:	9f 4f       	sbci	r25, 0xFF	; 255
     e62:	80 93 a1 06 	sts	0x06A1, r24	; 0x8006a1 <__TEXT_REGION_LENGTH__+0x7006a1>
        ++auSmpAddr;
     e66:	80 91 07 38 	lds	r24, 0x3807	; 0x803807 <auSmpAddr>
     e6a:	90 91 08 38 	lds	r25, 0x3808	; 0x803808 <auSmpAddr+0x1>
     e6e:	01 96       	adiw	r24, 0x01	; 1
     e70:	80 93 07 38 	sts	0x3807, r24	; 0x803807 <auSmpAddr>
     e74:	90 93 08 38 	sts	0x3808, r25	; 0x803808 <auSmpAddr+0x1>
     e78:	06 c0       	rjmp	.+12     	; 0xe86 <__vector_14+0x88>
    } else {
        DAC0_DATA = 0x80;
     e7a:	80 e8       	ldi	r24, 0x80	; 128
     e7c:	80 93 a1 06 	sts	0x06A1, r24	; 0x8006a1 <__TEXT_REGION_LENGTH__+0x7006a1>
        auPlayDone = 1;
     e80:	81 e0       	ldi	r24, 0x01	; 1
     e82:	80 93 f2 3a 	sts	0x3AF2, r24	; 0x803af2 <auPlayDone>
    }
    TCB1_INTFLAGS = TCB_CAPT_bm;
     e86:	81 e0       	ldi	r24, 0x01	; 1
     e88:	80 93 56 0a 	sts	0x0A56, r24	; 0x800a56 <__TEXT_REGION_LENGTH__+0x700a56>
}
     e8c:	ff 91       	pop	r31
     e8e:	ef 91       	pop	r30
     e90:	9f 91       	pop	r25
     e92:	8f 91       	pop	r24
     e94:	4f 91       	pop	r20
     e96:	3f 91       	pop	r19
     e98:	2f 91       	pop	r18
     e9a:	0f 90       	pop	r0
     e9c:	0f be       	out	0x3f, r0	; 63
     e9e:	0f 90       	pop	r0
     ea0:	1f 90       	pop	r1
     ea2:	18 95       	reti

00000ea4 <__vector_27>:

// Reads up to RXLEN characters until LF is found, LF sets the serRxDone flag and writes 0 instead of LF.
ISR(USART0_RXC_vect){
     ea4:	1f 92       	push	r1
     ea6:	0f 92       	push	r0
     ea8:	0f b6       	in	r0, 0x3f	; 63
     eaa:	0f 92       	push	r0
     eac:	11 24       	eor	r1, r1
     eae:	8f 93       	push	r24
     eb0:	ef 93       	push	r30
     eb2:	ff 93       	push	r31
    if (serRxDone == 0){
     eb4:	80 91 44 38 	lds	r24, 0x3844	; 0x803844 <serRxDone>
     eb8:	81 11       	cpse	r24, r1
     eba:	44 c0       	rjmp	.+136    	; 0xf44 <__vector_27+0xa0>
        serRx[RXCNT] = USART0.RXDATAL;
     ebc:	ed b3       	in	r30, 0x1d	; 29
     ebe:	f0 e0       	ldi	r31, 0x00	; 0
     ec0:	80 91 00 08 	lds	r24, 0x0800	; 0x800800 <__TEXT_REGION_LENGTH__+0x700800>
     ec4:	eb 58       	subi	r30, 0x8B	; 139
     ec6:	f5 4c       	sbci	r31, 0xC5	; 197
     ec8:	80 83       	st	Z, r24
        USART0_TXDATAL = serRx[RXCNT];
     eca:	ed b3       	in	r30, 0x1d	; 29
     ecc:	f0 e0       	ldi	r31, 0x00	; 0
     ece:	eb 58       	subi	r30, 0x8B	; 139
     ed0:	f5 4c       	sbci	r31, 0xC5	; 197
     ed2:	80 81       	ld	r24, Z
     ed4:	80 93 02 08 	sts	0x0802, r24	; 0x800802 <__TEXT_REGION_LENGTH__+0x700802>
        if ((serRx[RXCNT] == 0x0A)||(serRx[RXCNT] == 0x0D)){
     ed8:	ed b3       	in	r30, 0x1d	; 29
     eda:	f0 e0       	ldi	r31, 0x00	; 0
     edc:	eb 58       	subi	r30, 0x8B	; 139
     ede:	f5 4c       	sbci	r31, 0xC5	; 197
     ee0:	80 81       	ld	r24, Z
     ee2:	8a 30       	cpi	r24, 0x0A	; 10
     ee4:	39 f0       	breq	.+14     	; 0xef4 <__vector_27+0x50>
     ee6:	ed b3       	in	r30, 0x1d	; 29
     ee8:	f0 e0       	ldi	r31, 0x00	; 0
     eea:	eb 58       	subi	r30, 0x8B	; 139
     eec:	f5 4c       	sbci	r31, 0xC5	; 197
     eee:	80 81       	ld	r24, Z
     ef0:	8d 30       	cpi	r24, 0x0D	; 13
     ef2:	49 f4       	brne	.+18     	; 0xf06 <__vector_27+0x62>
            serRx[RXCNT] = 0;
     ef4:	ed b3       	in	r30, 0x1d	; 29
     ef6:	f0 e0       	ldi	r31, 0x00	; 0
     ef8:	eb 58       	subi	r30, 0x8B	; 139
     efa:	f5 4c       	sbci	r31, 0xC5	; 197
     efc:	10 82       	st	Z, r1
            serRxDone = 1;
     efe:	81 e0       	ldi	r24, 0x01	; 1
     f00:	80 93 44 38 	sts	0x3844, r24	; 0x803844 <serRxDone>
     f04:	1f c0       	rjmp	.+62     	; 0xf44 <__vector_27+0xa0>
        } else if (((serRx[RXCNT] == 0x08)||(serRx[RXCNT] == 0x7F))&&(RXCNT > 0)) {
     f06:	ed b3       	in	r30, 0x1d	; 29
     f08:	f0 e0       	ldi	r31, 0x00	; 0
     f0a:	eb 58       	subi	r30, 0x8B	; 139
     f0c:	f5 4c       	sbci	r31, 0xC5	; 197
     f0e:	80 81       	ld	r24, Z
     f10:	88 30       	cpi	r24, 0x08	; 8
     f12:	39 f0       	breq	.+14     	; 0xf22 <__vector_27+0x7e>
     f14:	ed b3       	in	r30, 0x1d	; 29
     f16:	f0 e0       	ldi	r31, 0x00	; 0
     f18:	eb 58       	subi	r30, 0x8B	; 139
     f1a:	f5 4c       	sbci	r31, 0xC5	; 197
     f1c:	80 81       	ld	r24, Z
     f1e:	8f 37       	cpi	r24, 0x7F	; 127
     f20:	59 f4       	brne	.+22     	; 0xf38 <__vector_27+0x94>
     f22:	8d b3       	in	r24, 0x1d	; 29
     f24:	88 23       	and	r24, r24
     f26:	41 f0       	breq	.+16     	; 0xf38 <__vector_27+0x94>
            serRx[RXCNT] = 0;
     f28:	ed b3       	in	r30, 0x1d	; 29
     f2a:	f0 e0       	ldi	r31, 0x00	; 0
     f2c:	eb 58       	subi	r30, 0x8B	; 139
     f2e:	f5 4c       	sbci	r31, 0xC5	; 197
     f30:	10 82       	st	Z, r1
            --RXCNT;
     f32:	8d b3       	in	r24, 0x1d	; 29
     f34:	81 50       	subi	r24, 0x01	; 1
     f36:	05 c0       	rjmp	.+10     	; 0xf42 <__vector_27+0x9e>
        } else if (RXCNT < (RXLEN-1)) ++RXCNT;
     f38:	8d b3       	in	r24, 0x1d	; 29
     f3a:	80 34       	cpi	r24, 0x40	; 64
     f3c:	18 f4       	brcc	.+6      	; 0xf44 <__vector_27+0xa0>
     f3e:	8d b3       	in	r24, 0x1d	; 29
     f40:	8f 5f       	subi	r24, 0xFF	; 255
     f42:	8d bb       	out	0x1d, r24	; 29
    }
    USART0_STATUS = USART_RXCIF_bm;
     f44:	80 e8       	ldi	r24, 0x80	; 128
     f46:	80 93 04 08 	sts	0x0804, r24	; 0x800804 <__TEXT_REGION_LENGTH__+0x700804>
};
     f4a:	ff 91       	pop	r31
     f4c:	ef 91       	pop	r30
     f4e:	8f 91       	pop	r24
     f50:	0f 90       	pop	r0
     f52:	0f be       	out	0x3f, r0	; 63
     f54:	0f 90       	pop	r0
     f56:	1f 90       	pop	r1
     f58:	18 95       	reti

00000f5a <__vector_28>:

// Trigger new data write and turn off DRE interrupt.
ISR(USART0_DRE_vect){
     f5a:	1f 92       	push	r1
     f5c:	0f 92       	push	r0
     f5e:	0f b6       	in	r0, 0x3f	; 63
     f60:	0f 92       	push	r0
     f62:	11 24       	eor	r1, r1
     f64:	8f 93       	push	r24
     f66:	ef 93       	push	r30
     f68:	ff 93       	push	r31
    TCB0_CNT = 0;
     f6a:	10 92 4a 0a 	sts	0x0A4A, r1	; 0x800a4a <__TEXT_REGION_LENGTH__+0x700a4a>
     f6e:	10 92 4b 0a 	sts	0x0A4B, r1	; 0x800a4b <__TEXT_REGION_LENGTH__+0x700a4b>
    TCB0_INTCTRL = 0x01;
     f72:	81 e0       	ldi	r24, 0x01	; 1
     f74:	80 93 45 0a 	sts	0x0A45, r24	; 0x800a45 <__TEXT_REGION_LENGTH__+0x700a45>
    USART0_CTRLA &= ~(USART_DREIE_bm);
     f78:	e5 e0       	ldi	r30, 0x05	; 5
     f7a:	f8 e0       	ldi	r31, 0x08	; 8
     f7c:	80 81       	ld	r24, Z
     f7e:	8f 7d       	andi	r24, 0xDF	; 223
     f80:	80 83       	st	Z, r24
};
     f82:	ff 91       	pop	r31
     f84:	ef 91       	pop	r30
     f86:	8f 91       	pop	r24
     f88:	0f 90       	pop	r0
     f8a:	0f be       	out	0x3f, r0	; 63
     f8c:	0f 90       	pop	r0
     f8e:	1f 90       	pop	r1
     f90:	18 95       	reti

00000f92 <__vector_20>:

// ADC used for audio input and temperature sensor.
ISR(ADC0_RESRDY_vect){
     f92:	1f 92       	push	r1
     f94:	0f 92       	push	r0
     f96:	0f b6       	in	r0, 0x3f	; 63
     f98:	0f 92       	push	r0
     f9a:	11 24       	eor	r1, r1
     f9c:	8f 93       	push	r24
     f9e:	9f 93       	push	r25
     fa0:	ef 93       	push	r30
     fa2:	ff 93       	push	r31
    //If just switched reference, discard first few samples
    if (adc0Chg == 0){
     fa4:	80 91 37 38 	lds	r24, 0x3837	; 0x803837 <adc0Chg>
     fa8:	81 11       	cpse	r24, r1
     faa:	19 c0       	rjmp	.+50     	; 0xfde <__vector_20+0x4c>
        AUPOS = (AUPOS+1)&(AULEN-1);
     fac:	8e b3       	in	r24, 0x1e	; 30
     fae:	8f 5f       	subi	r24, 0xFF	; 255
     fb0:	87 70       	andi	r24, 0x07	; 7
     fb2:	8e bb       	out	0x1e, r24	; 30
        if (ADC0_MUXPOS == 0x1E) adcTemp = ADC0_RES; else auIn[AUPOS]=ADC0_RESL;
     fb4:	80 91 06 06 	lds	r24, 0x0606	; 0x800606 <__TEXT_REGION_LENGTH__+0x700606>
     fb8:	8e 31       	cpi	r24, 0x1E	; 30
     fba:	49 f4       	brne	.+18     	; 0xfce <__vector_20+0x3c>
     fbc:	80 91 10 06 	lds	r24, 0x0610	; 0x800610 <__TEXT_REGION_LENGTH__+0x700610>
     fc0:	90 91 11 06 	lds	r25, 0x0611	; 0x800611 <__TEXT_REGION_LENGTH__+0x700611>
     fc4:	80 93 f5 3a 	sts	0x3AF5, r24	; 0x803af5 <adcTemp>
     fc8:	90 93 f6 3a 	sts	0x3AF6, r25	; 0x803af6 <adcTemp+0x1>
     fcc:	0d c0       	rjmp	.+26     	; 0xfe8 <__vector_20+0x56>
     fce:	ee b3       	in	r30, 0x1e	; 30
     fd0:	f0 e0       	ldi	r31, 0x00	; 0
     fd2:	80 91 10 06 	lds	r24, 0x0610	; 0x800610 <__TEXT_REGION_LENGTH__+0x700610>
     fd6:	ee 53       	subi	r30, 0x3E	; 62
     fd8:	f5 4c       	sbci	r31, 0xC5	; 197
     fda:	80 83       	st	Z, r24
     fdc:	05 c0       	rjmp	.+10     	; 0xfe8 <__vector_20+0x56>
    } else --adc0Chg;
     fde:	80 91 37 38 	lds	r24, 0x3837	; 0x803837 <adc0Chg>
     fe2:	81 50       	subi	r24, 0x01	; 1
     fe4:	80 93 37 38 	sts	0x3837, r24	; 0x803837 <adc0Chg>
    ADC0_INTFLAGS = ADC_RESRDY_bm;
     fe8:	81 e0       	ldi	r24, 0x01	; 1
     fea:	80 93 0b 06 	sts	0x060B, r24	; 0x80060b <__TEXT_REGION_LENGTH__+0x70060b>
}
     fee:	ff 91       	pop	r31
     ff0:	ef 91       	pop	r30
     ff2:	9f 91       	pop	r25
     ff4:	8f 91       	pop	r24
     ff6:	0f 90       	pop	r0
     ff8:	0f be       	out	0x3f, r0	; 63
     ffa:	0f 90       	pop	r0
     ffc:	1f 90       	pop	r1
     ffe:	18 95       	reti

00001000 <__vector_22>:

// Reads out sensors at 8Hz and buttons at 42Hz (timed by PIT), power for the sensors is on 1/8th of the time to save power.
ISR(ADC1_RESRDY_vect){
    1000:	1f 92       	push	r1
    1002:	0f 92       	push	r0
    1004:	0f b6       	in	r0, 0x3f	; 63
    1006:	0f 92       	push	r0
    1008:	11 24       	eor	r1, r1
    100a:	8f 93       	push	r24
    100c:	9f 93       	push	r25
    if (ADC1_MUXPOS == 0) {
    100e:	80 91 46 06 	lds	r24, 0x0646	; 0x800646 <__TEXT_REGION_LENGTH__+0x700646>
    1012:	81 11       	cpse	r24, r1
    1014:	0a c0       	rjmp	.+20     	; 0x102a <__vector_22+0x2a>
        adcPhot = ADC1_RES;
    1016:	80 91 50 06 	lds	r24, 0x0650	; 0x800650 <__TEXT_REGION_LENGTH__+0x700650>
    101a:	90 91 51 06 	lds	r25, 0x0651	; 0x800651 <__TEXT_REGION_LENGTH__+0x700651>
    101e:	80 93 bd 3a 	sts	0x3ABD, r24	; 0x803abd <adcPhot>
    1022:	90 93 be 3a 	sts	0x3ABE, r25	; 0x803abe <adcPhot+0x1>
        ADC1_MUXPOS = 0x01;             //Select Hall sensor
    1026:	81 e0       	ldi	r24, 0x01	; 1
    1028:	10 c0       	rjmp	.+32     	; 0x104a <__vector_22+0x4a>
    } else if (ADC1_MUXPOS == 1){
    102a:	80 91 46 06 	lds	r24, 0x0646	; 0x800646 <__TEXT_REGION_LENGTH__+0x700646>
    102e:	81 30       	cpi	r24, 0x01	; 1
    1030:	79 f4       	brne	.+30     	; 0x1050 <__vector_22+0x50>
        PORTA_OUTCLR = 0b00001000;      //Turn off sensor power
    1032:	88 e0       	ldi	r24, 0x08	; 8
    1034:	80 93 06 04 	sts	0x0406, r24	; 0x800406 <__TEXT_REGION_LENGTH__+0x700406>
        adcHall = ADC1_RES;
    1038:	80 91 50 06 	lds	r24, 0x0650	; 0x800650 <__TEXT_REGION_LENGTH__+0x700650>
    103c:	90 91 51 06 	lds	r25, 0x0651	; 0x800651 <__TEXT_REGION_LENGTH__+0x700651>
    1040:	80 93 bb 3a 	sts	0x3ABB, r24	; 0x803abb <adcHall>
    1044:	90 93 bc 3a 	sts	0x3ABC, r25	; 0x803abc <adcHall+0x1>
        ADC1_MUXPOS = 0x04;             //select buttons
    1048:	84 e0       	ldi	r24, 0x04	; 4
    104a:	80 93 46 06 	sts	0x0646, r24	; 0x800646 <__TEXT_REGION_LENGTH__+0x700646>
    104e:	10 c0       	rjmp	.+32     	; 0x1070 <__vector_22+0x70>
    } else {
        adcBtns = ADC1_RES;
    1050:	80 91 50 06 	lds	r24, 0x0650	; 0x800650 <__TEXT_REGION_LENGTH__+0x700650>
    1054:	90 91 51 06 	lds	r25, 0x0651	; 0x800651 <__TEXT_REGION_LENGTH__+0x700651>
    1058:	80 93 b7 3a 	sts	0x3AB7, r24	; 0x803ab7 <adcBtns>
    105c:	90 93 b8 3a 	sts	0x3AB8, r25	; 0x803ab8 <adcBtns+0x1>
        if (A1CNT == 15){
    1060:	8f b3       	in	r24, 0x1f	; 31
    1062:	8f 30       	cpi	r24, 0x0F	; 15
    1064:	29 f4       	brne	.+10     	; 0x1070 <__vector_22+0x70>
            ADC1_MUXPOS = 0x00;         //Select photo transistor
    1066:	10 92 46 06 	sts	0x0646, r1	; 0x800646 <__TEXT_REGION_LENGTH__+0x700646>
            PORTA_OUTSET = 0b00001000;  //Turn on sensor power
    106a:	88 e0       	ldi	r24, 0x08	; 8
    106c:	80 93 05 04 	sts	0x0405, r24	; 0x800405 <__TEXT_REGION_LENGTH__+0x700405>
        }
    }

    A1CNT=(A1CNT+1)%16;        
    1070:	8f b3       	in	r24, 0x1f	; 31
    1072:	90 e0       	ldi	r25, 0x00	; 0
    1074:	01 96       	adiw	r24, 0x01	; 1
    1076:	8f 70       	andi	r24, 0x0F	; 15
    1078:	99 27       	eor	r25, r25
    107a:	8f bb       	out	0x1f, r24	; 31
    ADC1_INTFLAGS = ADC_RESRDY_bm;
    107c:	81 e0       	ldi	r24, 0x01	; 1
    107e:	80 93 4b 06 	sts	0x064B, r24	; 0x80064b <__TEXT_REGION_LENGTH__+0x70064b>
}
    1082:	9f 91       	pop	r25
    1084:	8f 91       	pop	r24
    1086:	0f 90       	pop	r0
    1088:	0f be       	out	0x3f, r0	; 63
    108a:	0f 90       	pop	r0
    108c:	1f 90       	pop	r1
    108e:	18 95       	reti

00001090 <__vector_6>:

// RTC compare interrupt, triggers at 512/BTN_TMR rate, also RTC overflow interrupt, triggers once a minute
ISR(RTC_CNT_vect) {
    1090:	1f 92       	push	r1
    1092:	0f 92       	push	r0
    1094:	0f b6       	in	r0, 0x3f	; 63
    1096:	0f 92       	push	r0
    1098:	11 24       	eor	r1, r1
    109a:	5f 93       	push	r21
    109c:	6f 93       	push	r22
    109e:	7f 93       	push	r23
    10a0:	8f 93       	push	r24
    10a2:	9f 93       	push	r25
    10a4:	af 93       	push	r26
    10a6:	bf 93       	push	r27
    if (RTC_INTFLAGS & RTC_CMP_bm){
    10a8:	80 91 43 01 	lds	r24, 0x0143	; 0x800143 <__TEXT_REGION_LENGTH__+0x700143>
    10ac:	81 ff       	sbrs	r24, 1
    10ae:	26 c0       	rjmp	.+76     	; 0x10fc <__vector_6+0x6c>
        if (buttonMark<0xff) buttonMark++;   // For button timing purposes
    10b0:	80 91 42 38 	lds	r24, 0x3842	; 0x803842 <buttonMark>
    10b4:	8f 3f       	cpi	r24, 0xFF	; 255
    10b6:	29 f0       	breq	.+10     	; 0x10c2 <__vector_6+0x32>
    10b8:	80 91 42 38 	lds	r24, 0x3842	; 0x803842 <buttonMark>
    10bc:	8f 5f       	subi	r24, 0xFF	; 255
    10be:	80 93 42 38 	sts	0x3842, r24	; 0x803842 <buttonMark>
        tmp16bit = (RTC_CNT + BTN_TMR)%RTC_PER;
    10c2:	80 91 48 01 	lds	r24, 0x0148	; 0x800148 <__TEXT_REGION_LENGTH__+0x700148>
    10c6:	90 91 49 01 	lds	r25, 0x0149	; 0x800149 <__TEXT_REGION_LENGTH__+0x700149>
    10ca:	60 91 4a 01 	lds	r22, 0x014A	; 0x80014a <__TEXT_REGION_LENGTH__+0x70014a>
    10ce:	70 91 4b 01 	lds	r23, 0x014B	; 0x80014b <__TEXT_REGION_LENGTH__+0x70014b>
    10d2:	82 96       	adiw	r24, 0x22	; 34
    10d4:	0e 94 7d 1e 	call	0x3cfa	; 0x3cfa <__udivmodhi4>
    10d8:	80 93 f7 3a 	sts	0x3AF7, r24	; 0x803af7 <tmp16bit>
    10dc:	90 93 f8 3a 	sts	0x3AF8, r25	; 0x803af8 <tmp16bit+0x1>
        while(RTC_STATUS & RTC_CMPBUSY_bm);
    10e0:	80 91 41 01 	lds	r24, 0x0141	; 0x800141 <__TEXT_REGION_LENGTH__+0x700141>
    10e4:	83 fd       	sbrc	r24, 3
    10e6:	fc cf       	rjmp	.-8      	; 0x10e0 <__vector_6+0x50>
        RTC_CMP = tmp16bit;                 // Button timing: next interrupt set
    10e8:	80 91 f7 3a 	lds	r24, 0x3AF7	; 0x803af7 <tmp16bit>
    10ec:	90 91 f8 3a 	lds	r25, 0x3AF8	; 0x803af8 <tmp16bit+0x1>
    10f0:	80 93 4c 01 	sts	0x014C, r24	; 0x80014c <__TEXT_REGION_LENGTH__+0x70014c>
    10f4:	90 93 4d 01 	sts	0x014D, r25	; 0x80014d <__TEXT_REGION_LENGTH__+0x70014d>
        RTC_INTFLAGS = RTC_CMP_bm;		    // clear interrupt flag
    10f8:	82 e0       	ldi	r24, 0x02	; 2
    10fa:	06 c0       	rjmp	.+12     	; 0x1108 <__vector_6+0x78>
    } else {
        minuteMark++;                       // For very slow timing purposes, overflows to 0
    10fc:	80 91 43 38 	lds	r24, 0x3843	; 0x803843 <minuteMark>
    1100:	8f 5f       	subi	r24, 0xFF	; 255
    1102:	80 93 43 38 	sts	0x3843, r24	; 0x803843 <minuteMark>
        RTC_INTFLAGS = RTC_OVF_bm;		    // clear interrupt flag
    1106:	81 e0       	ldi	r24, 0x01	; 1
    1108:	80 93 43 01 	sts	0x0143, r24	; 0x800143 <__TEXT_REGION_LENGTH__+0x700143>
    }
}
    110c:	bf 91       	pop	r27
    110e:	af 91       	pop	r26
    1110:	9f 91       	pop	r25
    1112:	8f 91       	pop	r24
    1114:	7f 91       	pop	r23
    1116:	6f 91       	pop	r22
    1118:	5f 91       	pop	r21
    111a:	0f 90       	pop	r0
    111c:	0f be       	out	0x3f, r0	; 63
    111e:	0f 90       	pop	r0
    1120:	1f 90       	pop	r1
    1122:	18 95       	reti

00001124 <__vector_7>:

// PIT interrupt (timing of ADC1: sensor values)
ISR(RTC_PIT_vect) {						// PIT interrupt handling code
    1124:	1f 92       	push	r1
    1126:	0f 92       	push	r0
    1128:	0f b6       	in	r0, 0x3f	; 63
    112a:	0f 92       	push	r0
    112c:	11 24       	eor	r1, r1
    112e:	8f 93       	push	r24
    ADC1_COMMAND = 0x01;
    1130:	81 e0       	ldi	r24, 0x01	; 1
    1132:	80 93 48 06 	sts	0x0648, r24	; 0x800648 <__TEXT_REGION_LENGTH__+0x700648>
    RTC_PITINTFLAGS = RTC_PI_bm;		// clear interrupt flag
    1136:	80 93 53 01 	sts	0x0153, r24	; 0x800153 <__TEXT_REGION_LENGTH__+0x700153>
}
    113a:	8f 91       	pop	r24
    113c:	0f 90       	pop	r0
    113e:	0f be       	out	0x3f, r0	; 63
    1140:	0f 90       	pop	r0
    1142:	1f 90       	pop	r1
    1144:	18 95       	reti

00001146 <EERead>:

// Read bytes from EEPROM
void EERead(uint8_t eeAddr, uint8_t *eeValues, uint8_t size)
{
    while(NVMCTRL_STATUS & NVMCTRL_EEBUSY_bm);              // Wait until any write operation has finished
    1146:	90 91 02 10 	lds	r25, 0x1002	; 0x801002 <__TEXT_REGION_LENGTH__+0x701002>
    114a:	91 fd       	sbrc	r25, 1
    114c:	fc cf       	rjmp	.-8      	; 0x1146 <EERead>
    114e:	fb 01       	movw	r30, r22
    1150:	48 0f       	add	r20, r24

    while(size){
    1152:	84 17       	cp	r24, r20
    1154:	39 f0       	breq	.+14     	; 0x1164 <EERead+0x1e>
        *eeValues++ = *(uint8_t *)(EEPROM_START+eeAddr++);  // Read data from buffer
    1156:	a8 2f       	mov	r26, r24
    1158:	b0 e0       	ldi	r27, 0x00	; 0
    115a:	bc 5e       	subi	r27, 0xEC	; 236
    115c:	9c 91       	ld	r25, X
    115e:	91 93       	st	Z+, r25
    1160:	8f 5f       	subi	r24, 0xFF	; 255
    1162:	f7 cf       	rjmp	.-18     	; 0x1152 <EERead+0xc>
        --size;
    }
}
    1164:	08 95       	ret

00001166 <EEWrite>:
{
    uint8_t lastByteOfPage;
    while(size){
        lastByteOfPage = 0;
        while(NVMCTRL_STATUS & NVMCTRL_EEBUSY_bm);              // Wait until any write operation has finished
        CCP = CCP_SPM_gc;                                       // Gain access to NVMCTRL_CTRLA
    1166:	9d e9       	ldi	r25, 0x9D	; 157
        NVMCTRL_CTRLA = NVMCTRL_CMD_PAGEBUFCLR_gc;              // Clear page buffer
    1168:	24 e0       	ldi	r18, 0x04	; 4
            if ((eeAddr % EEPROM_PAGE_SIZE) == (EEPROM_PAGE_SIZE-1)) lastByteOfPage = 1;
            *(uint8_t *)(EEPROM_START+eeAddr++) = *eeValues++;  // Write data to buffer
            --size;
        }
        CCP = CCP_SPM_gc;
        NVMCTRL_CTRLA = NVMCTRL_CMD_PAGEERASEWRITE_gc;          // Erase old data and write new data to EEPROM
    116a:	33 e0       	ldi	r19, 0x03	; 3

// Write bytes to the EEPROM, if address exceeds EEPROM space data wraps around
uint8_t EEWrite(uint8_t eeAddr, uint8_t *eeValues, uint8_t size)
{
    uint8_t lastByteOfPage;
    while(size){
    116c:	44 23       	and	r20, r20
    116e:	09 f1       	breq	.+66     	; 0x11b2 <EEWrite+0x4c>
        lastByteOfPage = 0;
        while(NVMCTRL_STATUS & NVMCTRL_EEBUSY_bm);              // Wait until any write operation has finished
    1170:	50 91 02 10 	lds	r21, 0x1002	; 0x801002 <__TEXT_REGION_LENGTH__+0x701002>
    1174:	51 fd       	sbrc	r21, 1
    1176:	fc cf       	rjmp	.-8      	; 0x1170 <EEWrite+0xa>
        CCP = CCP_SPM_gc;                                       // Gain access to NVMCTRL_CTRLA
    1178:	94 bf       	out	0x34, r25	; 52
        NVMCTRL_CTRLA = NVMCTRL_CMD_PAGEBUFCLR_gc;              // Clear page buffer
    117a:	20 93 00 10 	sts	0x1000, r18	; 0x801000 <__TEXT_REGION_LENGTH__+0x701000>
    117e:	e8 2f       	mov	r30, r24
        while((size) && (lastByteOfPage == 0)){
            if ((eeAddr % EEPROM_PAGE_SIZE) == (EEPROM_PAGE_SIZE-1)) lastByteOfPage = 1;
    1180:	58 2f       	mov	r21, r24
    1182:	5f 71       	andi	r21, 0x1F	; 31
            *(uint8_t *)(EEPROM_START+eeAddr++) = *eeValues++;  // Write data to buffer
    1184:	8f 5f       	subi	r24, 0xFF	; 255
    1186:	6f 5f       	subi	r22, 0xFF	; 255
    1188:	7f 4f       	sbci	r23, 0xFF	; 255
    118a:	db 01       	movw	r26, r22
    118c:	11 97       	sbiw	r26, 0x01	; 1
    118e:	ac 91       	ld	r26, X
    1190:	f0 e0       	ldi	r31, 0x00	; 0
    1192:	fc 5e       	subi	r31, 0xEC	; 236
    1194:	a0 83       	st	Z, r26
            --size;
    1196:	41 50       	subi	r20, 0x01	; 1
    while(size){
        lastByteOfPage = 0;
        while(NVMCTRL_STATUS & NVMCTRL_EEBUSY_bm);              // Wait until any write operation has finished
        CCP = CCP_SPM_gc;                                       // Gain access to NVMCTRL_CTRLA
        NVMCTRL_CTRLA = NVMCTRL_CMD_PAGEBUFCLR_gc;              // Clear page buffer
        while((size) && (lastByteOfPage == 0)){
    1198:	19 f0       	breq	.+6      	; 0x11a0 <EEWrite+0x3a>
            if ((eeAddr % EEPROM_PAGE_SIZE) == (EEPROM_PAGE_SIZE-1)) lastByteOfPage = 1;
            *(uint8_t *)(EEPROM_START+eeAddr++) = *eeValues++;  // Write data to buffer
    119a:	e8 2f       	mov	r30, r24
    while(size){
        lastByteOfPage = 0;
        while(NVMCTRL_STATUS & NVMCTRL_EEBUSY_bm);              // Wait until any write operation has finished
        CCP = CCP_SPM_gc;                                       // Gain access to NVMCTRL_CTRLA
        NVMCTRL_CTRLA = NVMCTRL_CMD_PAGEBUFCLR_gc;              // Clear page buffer
        while((size) && (lastByteOfPage == 0)){
    119c:	5f 31       	cpi	r21, 0x1F	; 31
    119e:	81 f7       	brne	.-32     	; 0x1180 <EEWrite+0x1a>
            if ((eeAddr % EEPROM_PAGE_SIZE) == (EEPROM_PAGE_SIZE-1)) lastByteOfPage = 1;
            *(uint8_t *)(EEPROM_START+eeAddr++) = *eeValues++;  // Write data to buffer
            --size;
        }
        CCP = CCP_SPM_gc;
    11a0:	94 bf       	out	0x34, r25	; 52
        NVMCTRL_CTRLA = NVMCTRL_CMD_PAGEERASEWRITE_gc;          // Erase old data and write new data to EEPROM
    11a2:	30 93 00 10 	sts	0x1000, r19	; 0x801000 <__TEXT_REGION_LENGTH__+0x701000>
        if (NVMCTRL_STATUS & NVMCTRL_WRERROR_bm) return 1;
    11a6:	50 91 02 10 	lds	r21, 0x1002	; 0x801002 <__TEXT_REGION_LENGTH__+0x701002>
    11aa:	52 ff       	sbrs	r21, 2
    11ac:	df cf       	rjmp	.-66     	; 0x116c <EEWrite+0x6>
    11ae:	81 e0       	ldi	r24, 0x01	; 1
    }
    return 0;
}
    11b0:	08 95       	ret
        }
        CCP = CCP_SPM_gc;
        NVMCTRL_CTRLA = NVMCTRL_CMD_PAGEERASEWRITE_gc;          // Erase old data and write new data to EEPROM
        if (NVMCTRL_STATUS & NVMCTRL_WRERROR_bm) return 1;
    }
    return 0;
    11b2:	80 e0       	ldi	r24, 0x00	; 0
    11b4:	08 95       	ret

000011b6 <SerSend>:
}

// Sends a set of characters to the serial port, stops only when character value 0 is reached.
uint8_t SerSend(unsigned char *addr){
    if (serTxDone){
    11b6:	20 91 0a 38 	lds	r18, 0x380A	; 0x80380a <serTxDone>
    11ba:	22 23       	and	r18, r18
    11bc:	59 f0       	breq	.+22     	; 0x11d4 <SerSend+0x1e>
        serTxAddr = addr;
    11be:	80 93 b9 3a 	sts	0x3AB9, r24	; 0x803ab9 <serTxAddr>
    11c2:	90 93 ba 3a 	sts	0x3ABA, r25	; 0x803aba <serTxAddr+0x1>
        serTxDone = 0;
    11c6:	10 92 0a 38 	sts	0x380A, r1	; 0x80380a <serTxDone>
        TCB0_INTCTRL = 0x01;
    11ca:	81 e0       	ldi	r24, 0x01	; 1
    11cc:	80 93 45 0a 	sts	0x0A45, r24	; 0x800a45 <__TEXT_REGION_LENGTH__+0x700a45>
        return 0;
    11d0:	80 e0       	ldi	r24, 0x00	; 0
    11d2:	08 95       	ret
    } else return 1;    //Error: Still sending data
    11d4:	81 e0       	ldi	r24, 0x01	; 1
};
    11d6:	08 95       	ret

000011d8 <SerSpeed>:

// Set serial character output speed, 255-0 (0.8 to 100ms delay between characters)
void SerSpeed(uint8_t serSpd){
    11d8:	28 2f       	mov	r18, r24
    if (serSpd<1) serSpd = 1;
    11da:	81 11       	cpse	r24, r1
    11dc:	01 c0       	rjmp	.+2      	; 0x11e0 <SerSpeed+0x8>
    11de:	21 e0       	ldi	r18, 0x01	; 1
    TCB0_CCMP = ((uint16_t)(0xFF-serSpd)<<8) + 0xFF;
    11e0:	8f ef       	ldi	r24, 0xFF	; 255
    11e2:	90 e0       	ldi	r25, 0x00	; 0
    11e4:	82 1b       	sub	r24, r18
    11e6:	91 09       	sbc	r25, r1
    11e8:	98 2f       	mov	r25, r24
    11ea:	88 27       	eor	r24, r24
    11ec:	81 50       	subi	r24, 0x01	; 1
    11ee:	9f 4f       	sbci	r25, 0xFF	; 255
    11f0:	80 93 4c 0a 	sts	0x0A4C, r24	; 0x800a4c <__TEXT_REGION_LENGTH__+0x700a4c>
    11f4:	90 93 4d 0a 	sts	0x0A4D, r25	; 0x800a4d <__TEXT_REGION_LENGTH__+0x700a4d>
    11f8:	08 95       	ret

000011fa <SelectTSens>:
};

// Select temperature sensor
void SelectTSens(){
     VREF_CTRLA   = 0x12;    //0x22 for audio in/out (2.5V), 0x12 for temperature in, audio out (1.1V/2.5V)
    11fa:	82 e1       	ldi	r24, 0x12	; 18
    11fc:	80 93 a0 00 	sts	0x00A0, r24	; 0x8000a0 <__TEXT_REGION_LENGTH__+0x7000a0>
     ADC0_CTRLA   &= ~(ADC_RESSEL_bm);
    1200:	e0 e0       	ldi	r30, 0x00	; 0
    1202:	f6 e0       	ldi	r31, 0x06	; 6
    1204:	80 81       	ld	r24, Z
    1206:	8b 7f       	andi	r24, 0xFB	; 251
    1208:	80 83       	st	Z, r24
     ADC0_MUXPOS  = 0x1E;    //Audio in: AIN7 at (0x07), Temperature: Internal sensor at (0x1E)
    120a:	8e e1       	ldi	r24, 0x1E	; 30
    120c:	80 93 06 06 	sts	0x0606, r24	; 0x800606 <__TEXT_REGION_LENGTH__+0x700606>
     adc0Chg = 3;
    1210:	83 e0       	ldi	r24, 0x03	; 3
    1212:	80 93 37 38 	sts	0x3837, r24	; 0x803837 <adc0Chg>
    1216:	08 95       	ret

00001218 <SelectAuIn>:
};

// Select "audio" input (0-2.5V)
void SelectAuIn(){
     VREF_CTRLA   = 0x22;    //0x22 for audio in/out (2.5V), 0x12 for temperature in, audio out (1.1V/2.5V)
    1218:	82 e2       	ldi	r24, 0x22	; 34
    121a:	80 93 a0 00 	sts	0x00A0, r24	; 0x8000a0 <__TEXT_REGION_LENGTH__+0x7000a0>
     ADC0_CTRLA   |= ADC_RESSEL_bm;
    121e:	e0 e0       	ldi	r30, 0x00	; 0
    1220:	f6 e0       	ldi	r31, 0x06	; 6
    1222:	80 81       	ld	r24, Z
    1224:	84 60       	ori	r24, 0x04	; 4
    1226:	80 83       	st	Z, r24
     ADC0_MUXPOS  = 0x07;    //Audio in: AIN7 at (0x07), Temperature: Internal sensor at (0x1E)
    1228:	87 e0       	ldi	r24, 0x07	; 7
    122a:	80 93 06 06 	sts	0x0606, r24	; 0x800606 <__TEXT_REGION_LENGTH__+0x700606>
     adc0Chg = 3;
    122e:	83 e0       	ldi	r24, 0x03	; 3
    1230:	80 93 37 38 	sts	0x3837, r24	; 0x803837 <adc0Chg>
    1234:	08 95       	ret

00001236 <CheckButtons>:
};

// Returns button combination (4LSB) and number of consecutive times this combination is detected. First read should always be ignored! 
uint8_t CheckButtons(uint8_t previousValue){
    uint8_t bADC = (uint8_t)(adcBtns>>4);
    1236:	20 91 b7 3a 	lds	r18, 0x3AB7	; 0x803ab7 <adcBtns>
    123a:	30 91 b8 3a 	lds	r19, 0x3AB8	; 0x803ab8 <adcBtns+0x1>
    uint8_t bNibble = 0x0F;     //MSB to LSB: Bottom left, top left, top right, bottom right, 0F is error
    
    switch(bADC){
    123e:	94 e0       	ldi	r25, 0x04	; 4
    1240:	36 95       	lsr	r19
    1242:	27 95       	ror	r18
    1244:	9a 95       	dec	r25
    1246:	e1 f7       	brne	.-8      	; 0x1240 <CheckButtons+0xa>
    1248:	33 27       	eor	r19, r19
    124a:	2c 35       	cpi	r18, 0x5C	; 92
    124c:	31 05       	cpc	r19, r1
    124e:	d0 f4       	brcc	.+52     	; 0x1284 <CheckButtons+0x4e>
    1250:	23 35       	cpi	r18, 0x53	; 83
    1252:	31 05       	cpc	r19, r1
    1254:	a8 f5       	brcc	.+106    	; 0x12c0 <CheckButtons+0x8a>
    1256:	22 33       	cpi	r18, 0x32	; 50
    1258:	31 05       	cpc	r19, r1
    125a:	50 f4       	brcc	.+20     	; 0x1270 <CheckButtons+0x3a>
    125c:	2d 32       	cpi	r18, 0x2D	; 45
    125e:	31 05       	cpc	r19, r1
    1260:	58 f5       	brcc	.+86     	; 0x12b8 <CheckButtons+0x82>
    1262:	23 52       	subi	r18, 0x23	; 35
    1264:	31 09       	sbc	r19, r1
    1266:	25 30       	cpi	r18, 0x05	; 5
    1268:	31 05       	cpc	r19, r1
    126a:	80 f5       	brcc	.+96     	; 0x12cc <CheckButtons+0x96>

        case 35 ... 39:          //37: Both left
        bNibble = 0b1100;
    126c:	9c e0       	ldi	r25, 0x0C	; 12
    126e:	2f c0       	rjmp	.+94     	; 0x12ce <CheckButtons+0x98>
// Returns button combination (4LSB) and number of consecutive times this combination is detected. First read should always be ignored! 
uint8_t CheckButtons(uint8_t previousValue){
    uint8_t bADC = (uint8_t)(adcBtns>>4);
    uint8_t bNibble = 0x0F;     //MSB to LSB: Bottom left, top left, top right, bottom right, 0F is error
    
    switch(bADC){
    1270:	27 33       	cpi	r18, 0x37	; 55
    1272:	31 05       	cpc	r19, r1
    1274:	18 f1       	brcs	.+70     	; 0x12bc <CheckButtons+0x86>
    1276:	2e 53       	subi	r18, 0x3E	; 62
    1278:	31 09       	sbc	r19, r1
    127a:	27 30       	cpi	r18, 0x07	; 7
    127c:	31 05       	cpc	r19, r1
    127e:	30 f5       	brcc	.+76     	; 0x12cc <CheckButtons+0x96>
        case 50 ... 54:          //52: Bottom left
        bNibble = 0b1000;
        break;

        case 62 ... 68:          //65: Both top
        bNibble = 0b0110;
    1280:	96 e0       	ldi	r25, 0x06	; 6
        break;
    1282:	25 c0       	rjmp	.+74     	; 0x12ce <CheckButtons+0x98>
// Returns button combination (4LSB) and number of consecutive times this combination is detected. First read should always be ignored! 
uint8_t CheckButtons(uint8_t previousValue){
    uint8_t bADC = (uint8_t)(adcBtns>>4);
    uint8_t bNibble = 0x0F;     //MSB to LSB: Bottom left, top left, top right, bottom right, 0F is error
    
    switch(bADC){
    1284:	2a 38       	cpi	r18, 0x8A	; 138
    1286:	31 05       	cpc	r19, r1
    1288:	50 f4       	brcc	.+20     	; 0x129e <CheckButtons+0x68>
    128a:	29 37       	cpi	r18, 0x79	; 121
    128c:	31 05       	cpc	r19, r1
    128e:	d0 f4       	brcc	.+52     	; 0x12c4 <CheckButtons+0x8e>
    1290:	23 56       	subi	r18, 0x63	; 99
    1292:	31 09       	sbc	r19, r1
    1294:	2b 30       	cpi	r18, 0x0B	; 11
    1296:	31 05       	cpc	r19, r1
    1298:	c8 f4       	brcc	.+50     	; 0x12cc <CheckButtons+0x96>
        case 83 ... 91:          //87: Top left
        bNibble = 0b0100;
        break;

        case 99 ... 109:         //104: Both right
        bNibble = 0b0011;
    129a:	93 e0       	ldi	r25, 0x03	; 3
        break;
    129c:	18 c0       	rjmp	.+48     	; 0x12ce <CheckButtons+0x98>
// Returns button combination (4LSB) and number of consecutive times this combination is detected. First read should always be ignored! 
uint8_t CheckButtons(uint8_t previousValue){
    uint8_t bADC = (uint8_t)(adcBtns>>4);
    uint8_t bNibble = 0x0F;     //MSB to LSB: Bottom left, top left, top right, bottom right, 0F is error
    
    switch(bADC){
    129e:	22 3a       	cpi	r18, 0xA2	; 162
    12a0:	31 05       	cpc	r19, r1
    12a2:	a0 f0       	brcs	.+40     	; 0x12cc <CheckButtons+0x96>
    12a4:	2b 3b       	cpi	r18, 0xBB	; 187
    12a6:	31 05       	cpc	r19, r1
    12a8:	78 f0       	brcs	.+30     	; 0x12c8 <CheckButtons+0x92>
    12aa:	20 5f       	subi	r18, 0xF0	; 240
    12ac:	31 09       	sbc	r19, r1
    12ae:	20 31       	cpi	r18, 0x10	; 16
    12b0:	31 05       	cpc	r19, r1
    12b2:	60 f4       	brcc	.+24     	; 0x12cc <CheckButtons+0x96>
        case 162 ... 186:        //174: Bottom right
        bNibble = 0b0001;
        break;

        case 240 ... 255:        //255: No button pressed
        bNibble = 0b0000;
    12b4:	90 e0       	ldi	r25, 0x00	; 0
        break;
    12b6:	0b c0       	rjmp	.+22     	; 0x12ce <CheckButtons+0x98>
        case 35 ... 39:          //37: Both left
        bNibble = 0b1100;
        break;

        case 45 ... 49:          //47: Both bottom
        bNibble = 0b1001;
    12b8:	99 e0       	ldi	r25, 0x09	; 9
        break;
    12ba:	09 c0       	rjmp	.+18     	; 0x12ce <CheckButtons+0x98>

        case 50 ... 54:          //52: Bottom left
        bNibble = 0b1000;
    12bc:	98 e0       	ldi	r25, 0x08	; 8
        break;
    12be:	07 c0       	rjmp	.+14     	; 0x12ce <CheckButtons+0x98>
        case 62 ... 68:          //65: Both top
        bNibble = 0b0110;
        break;

        case 83 ... 91:          //87: Top left
        bNibble = 0b0100;
    12c0:	94 e0       	ldi	r25, 0x04	; 4
        break;
    12c2:	05 c0       	rjmp	.+10     	; 0x12ce <CheckButtons+0x98>
        case 99 ... 109:         //104: Both right
        bNibble = 0b0011;
        break;

        case 121 ... 137:        //129: Top right
        bNibble = 0b0010;
    12c4:	92 e0       	ldi	r25, 0x02	; 2
        break;
    12c6:	03 c0       	rjmp	.+6      	; 0x12ce <CheckButtons+0x98>

        case 162 ... 186:        //174: Bottom right
        bNibble = 0b0001;
    12c8:	91 e0       	ldi	r25, 0x01	; 1
        break;
    12ca:	01 c0       	rjmp	.+2      	; 0x12ce <CheckButtons+0x98>
};

// Returns button combination (4LSB) and number of consecutive times this combination is detected. First read should always be ignored! 
uint8_t CheckButtons(uint8_t previousValue){
    uint8_t bADC = (uint8_t)(adcBtns>>4);
    uint8_t bNibble = 0x0F;     //MSB to LSB: Bottom left, top left, top right, bottom right, 0F is error
    12cc:	9f e0       	ldi	r25, 0x0F	; 15
        case 240 ... 255:        //255: No button pressed
        bNibble = 0b0000;
        break;
    }

    if ((previousValue&0x0F)==bNibble){
    12ce:	28 2f       	mov	r18, r24
    12d0:	2f 70       	andi	r18, 0x0F	; 15
    12d2:	92 13       	cpse	r25, r18
    12d4:	06 c0       	rjmp	.+12     	; 0x12e2 <CheckButtons+0xac>
        if ((previousValue&0xF0) < 0xF0) previousValue += 0x10; //Same value? Increase time nibble
    12d6:	98 2f       	mov	r25, r24
    12d8:	90 7f       	andi	r25, 0xF0	; 240
    12da:	90 3f       	cpi	r25, 0xF0	; 240
    12dc:	39 f0       	breq	.+14     	; 0x12ec <CheckButtons+0xb6>
    12de:	80 5f       	subi	r24, 0xF0	; 240
    12e0:	08 95       	ret
        return previousValue;       
    } else if (bNibble == 0) return 0xFF; //Buttons released, 0xFF triggers readout, previousValue holds last button value.
    12e2:	99 23       	and	r25, r25
    12e4:	11 f0       	breq	.+4      	; 0x12ea <CheckButtons+0xb4>
    12e6:	89 2f       	mov	r24, r25
    12e8:	08 95       	ret
    12ea:	8f ef       	ldi	r24, 0xFF	; 255
              else return bNibble;  //New value  
}
    12ec:	08 95       	ret

000012ee <lfsr>:

uint8_t lfsr(){
    static uint16_t state = 0xd401;
    state ^= (state << 13);
    12ee:	80 91 21 38 	lds	r24, 0x3821	; 0x803821 <state.3889>
    12f2:	90 91 22 38 	lds	r25, 0x3822	; 0x803822 <state.3889+0x1>
    12f6:	9c 01       	movw	r18, r24
    12f8:	32 2f       	mov	r19, r18
    12fa:	22 27       	eor	r18, r18
    12fc:	32 95       	swap	r19
    12fe:	33 0f       	add	r19, r19
    1300:	30 7e       	andi	r19, 0xE0	; 224
    1302:	82 27       	eor	r24, r18
    1304:	93 27       	eor	r25, r19
    state ^= (state >> 9);
    1306:	9c 01       	movw	r18, r24
    1308:	23 2f       	mov	r18, r19
    130a:	33 27       	eor	r19, r19
    130c:	26 95       	lsr	r18
    130e:	82 27       	eor	r24, r18
    1310:	93 27       	eor	r25, r19
    state ^= (state << 7);
    1312:	9c 01       	movw	r18, r24
    1314:	36 95       	lsr	r19
    1316:	32 2f       	mov	r19, r18
    1318:	22 27       	eor	r18, r18
    131a:	37 95       	ror	r19
    131c:	27 95       	ror	r18
    131e:	82 27       	eor	r24, r18
    1320:	93 27       	eor	r25, r19
    1322:	80 93 21 38 	sts	0x3821, r24	; 0x803821 <state.3889>
    1326:	90 93 22 38 	sts	0x3822, r25	; 0x803822 <state.3889+0x1>
    return (state & 0xff);
}
    132a:	08 95       	ret

0000132c <floatSpeed>:

void floatSpeed(uint8_t bits, uint16_t min, uint16_t max){
    132c:	df 92       	push	r13
    132e:	ef 92       	push	r14
    1330:	ff 92       	push	r15
    1332:	0f 93       	push	r16
    1334:	1f 93       	push	r17
    1336:	cf 93       	push	r28
    1338:	df 93       	push	r29
    133a:	7b 01       	movw	r14, r22
    133c:	8a 01       	movw	r16, r20
    uint16_t val = TCB1_CCMP;
    133e:	c0 91 5c 0a 	lds	r28, 0x0A5C	; 0x800a5c <__TEXT_REGION_LENGTH__+0x700a5c>
    1342:	d0 91 5d 0a 	lds	r29, 0x0A5D	; 0x800a5d <__TEXT_REGION_LENGTH__+0x700a5d>
    bits = mask[(bits-1)&0x07];
    1346:	e8 2f       	mov	r30, r24
    1348:	f0 e0       	ldi	r31, 0x00	; 0
    134a:	31 97       	sbiw	r30, 0x01	; 1
    134c:	e7 70       	andi	r30, 0x07	; 7
    134e:	ff 27       	eor	r31, r31
    1350:	ed 5d       	subi	r30, 0xDD	; 221
    1352:	f7 4c       	sbci	r31, 0xC7	; 199
    1354:	d0 80       	ld	r13, Z
    val += (lfsr()&bits);
    1356:	cb df       	rcall	.-106    	; 0x12ee <lfsr>
    1358:	8d 21       	and	r24, r13
    135a:	c8 0f       	add	r28, r24
    135c:	d1 1d       	adc	r29, r1
    val -= (lfsr()&bits);
    135e:	c7 df       	rcall	.-114    	; 0x12ee <lfsr>
    1360:	8d 21       	and	r24, r13
    1362:	c8 1b       	sub	r28, r24
    1364:	d1 09       	sbc	r29, r1
    1366:	0c 17       	cp	r16, r28
    1368:	1d 07       	cpc	r17, r29
    136a:	08 f4       	brcc	.+2      	; 0x136e <floatSpeed+0x42>
    136c:	e8 01       	movw	r28, r16
    136e:	c7 01       	movw	r24, r14
    1370:	ec 16       	cp	r14, r28
    1372:	fd 06       	cpc	r15, r29
    1374:	08 f4       	brcc	.+2      	; 0x1378 <floatSpeed+0x4c>
    1376:	ce 01       	movw	r24, r28
    1378:	80 93 5c 0a 	sts	0x0A5C, r24	; 0x800a5c <__TEXT_REGION_LENGTH__+0x700a5c>
    if (val > max) val = max;    
    if (val < min) val = min;  
    TCB1_CCMP = val;
    137c:	90 93 5d 0a 	sts	0x0A5D, r25	; 0x800a5d <__TEXT_REGION_LENGTH__+0x700a5d>
    1380:	df 91       	pop	r29
}
    1382:	cf 91       	pop	r28
    1384:	1f 91       	pop	r17
    1386:	0f 91       	pop	r16
    1388:	ff 90       	pop	r15
    138a:	ef 90       	pop	r14
    138c:	df 90       	pop	r13
    138e:	08 95       	ret

00001390 <floatAround>:
    1390:	0f 93       	push	r16

uint8_t floatAround(uint8_t sample, uint8_t bits, uint8_t min, uint8_t max){
    1392:	1f 93       	push	r17
    1394:	cf 93       	push	r28
    1396:	df 93       	push	r29
    1398:	c8 2f       	mov	r28, r24
    139a:	d4 2f       	mov	r29, r20
    139c:	02 2f       	mov	r16, r18
    bits = mask[(bits-1)&0x07];
    139e:	e6 2f       	mov	r30, r22
    13a0:	f0 e0       	ldi	r31, 0x00	; 0
    13a2:	31 97       	sbiw	r30, 0x01	; 1
    13a4:	e7 70       	andi	r30, 0x07	; 7
    13a6:	ff 27       	eor	r31, r31
    13a8:	ed 5d       	subi	r30, 0xDD	; 221
    13aa:	f7 4c       	sbci	r31, 0xC7	; 199
    13ac:	10 81       	ld	r17, Z
    sample += lfsr()&bits;
    13ae:	9f df       	rcall	.-194    	; 0x12ee <lfsr>
    13b0:	81 23       	and	r24, r17
    13b2:	c8 0f       	add	r28, r24
    sample -= lfsr()&bits;
    13b4:	9c df       	rcall	.-200    	; 0x12ee <lfsr>
    13b6:	81 23       	and	r24, r17
    13b8:	c8 1b       	sub	r28, r24
    13ba:	8c 2f       	mov	r24, r28
    13bc:	00 23       	and	r16, r16
    if (max){
    13be:	41 f0       	breq	.+16     	; 0x13d0 <floatAround+0x40>
    13c0:	9c 2f       	mov	r25, r28
    13c2:	0c 17       	cp	r16, r28
    13c4:	08 f4       	brcc	.+2      	; 0x13c8 <floatAround+0x38>
    13c6:	90 2f       	mov	r25, r16
    13c8:	8d 2f       	mov	r24, r29
    13ca:	d9 17       	cp	r29, r25
    13cc:	08 f4       	brcc	.+2      	; 0x13d0 <floatAround+0x40>
    13ce:	89 2f       	mov	r24, r25
    13d0:	41 e0       	ldi	r20, 0x01	; 1
        if (sample > max) sample = max;
        if (sample < min) sample = min;
    }
    if (min & (sample < min)) sample = min;
    13d2:	50 e0       	ldi	r21, 0x00	; 0
    13d4:	8d 17       	cp	r24, r29
    13d6:	10 f0       	brcs	.+4      	; 0x13dc <floatAround+0x4c>
    13d8:	40 e0       	ldi	r20, 0x00	; 0
    13da:	50 e0       	ldi	r21, 0x00	; 0
    13dc:	2d 2f       	mov	r18, r29
    13de:	30 e0       	ldi	r19, 0x00	; 0
    13e0:	24 23       	and	r18, r20
    13e2:	35 23       	and	r19, r21
    13e4:	23 2b       	or	r18, r19
    13e6:	09 f0       	breq	.+2      	; 0x13ea <floatAround+0x5a>
    13e8:	8d 2f       	mov	r24, r29
    13ea:	df 91       	pop	r29

    return sample;
}
    13ec:	cf 91       	pop	r28
    13ee:	1f 91       	pop	r17
    13f0:	0f 91       	pop	r16
    13f2:	08 95       	ret

000013f4 <SaveGameState>:
    13f4:	cf 92       	push	r12
    inventory[0] = (gameState[INVADDR]<<8|gameState[INVADDR+1]);
    inventory[1] = (gameState[INVADDR+2]<<8|gameState[INVADDR+3]);
}

//Save changed data to EEPROM
uint8_t SaveGameState(){
    13f6:	df 92       	push	r13
    13f8:	ff 92       	push	r15
    13fa:	0f 93       	push	r16
    13fc:	1f 93       	push	r17
    13fe:	cf 93       	push	r28
    1400:	df 93       	push	r29
    1402:	cd b7       	in	r28, 0x3d	; 61
    1404:	de b7       	in	r29, 0x3e	; 62
    1406:	64 97       	sbiw	r28, 0x14	; 20
    1408:	cd bf       	out	0x3d, r28	; 61
    140a:	de bf       	out	0x3e, r29	; 62
    uint8_t gameCheck[BOOTCHK];

    //Read all data up to the boot/check result address from EEPROM
    EERead(0, &gameCheck[0], BOOTCHK);
    140c:	44 e1       	ldi	r20, 0x14	; 20
    140e:	be 01       	movw	r22, r28
    1410:	6f 5f       	subi	r22, 0xFF	; 255
    1412:	7f 4f       	sbci	r23, 0xFF	; 255
    1414:	80 e0       	ldi	r24, 0x00	; 0
    1416:	97 de       	rcall	.-722    	; 0x1146 <EERead>
    1418:	81 e6       	ldi	r24, 0x61	; 97
    141a:	c8 2e       	mov	r12, r24
    141c:	8a e3       	ldi	r24, 0x3A	; 58
    141e:	d8 2e       	mov	r13, r24
    1420:	8e 01       	movw	r16, r28
    1422:	0f 5f       	subi	r16, 0xFF	; 255
    1424:	1f 4f       	sbci	r17, 0xFF	; 255

    //Check game status bits
    for (uint8_t x=0; x<STATLEN; ++x){
    1426:	f1 2c       	mov	r15, r1
        if (gameState[x] != gameCheck[x]){
    1428:	f8 01       	movw	r30, r16
    142a:	81 91       	ld	r24, Z+
    142c:	8f 01       	movw	r16, r30
    142e:	f6 01       	movw	r30, r12
    1430:	90 81       	ld	r25, Z
    1432:	98 13       	cpse	r25, r24
    1434:	08 c0       	rjmp	.+16     	; 0x1446 <SaveGameState+0x52>

    //Read all data up to the boot/check result address from EEPROM
    EERead(0, &gameCheck[0], BOOTCHK);

    //Check game status bits
    for (uint8_t x=0; x<STATLEN; ++x){
    1436:	f3 94       	inc	r15
    1438:	ff ef       	ldi	r31, 0xFF	; 255
    143a:	cf 1a       	sub	r12, r31
    143c:	df 0a       	sbc	r13, r31
    143e:	80 e1       	ldi	r24, 0x10	; 16
    1440:	f8 12       	cpse	r15, r24
    1442:	f2 cf       	rjmp	.-28     	; 0x1428 <SaveGameState+0x34>
    1444:	08 c0       	rjmp	.+16     	; 0x1456 <SaveGameState+0x62>
        if (gameState[x] != gameCheck[x]){
            if (EEWrite(x, &gameState[x], 1)) return 1;
    1446:	41 e0       	ldi	r20, 0x01	; 1
    1448:	b6 01       	movw	r22, r12
    144a:	8f 2d       	mov	r24, r15
    144c:	8c de       	rcall	.-744    	; 0x1166 <EEWrite>
    144e:	88 23       	and	r24, r24
    1450:	91 f3       	breq	.-28     	; 0x1436 <SaveGameState+0x42>
    1452:	91 e0       	ldi	r25, 0x01	; 1
    1454:	36 c0       	rjmp	.+108    	; 0x14c2 <SaveGameState+0xce>
        }
    }

    //Check the inventory too
    gameState[INVADDR] = (uint8_t)(inventory[0]>>8);
    1456:	20 91 3e 38 	lds	r18, 0x383E	; 0x80383e <inventory>
    145a:	30 91 3f 38 	lds	r19, 0x383F	; 0x80383f <inventory+0x1>
    145e:	30 93 71 3a 	sts	0x3A71, r19	; 0x803a71 <gameState+0x10>
    gameState[INVADDR+1] = (uint8_t)(inventory[0]&0xff);
    1462:	20 93 72 3a 	sts	0x3A72, r18	; 0x803a72 <gameState+0x11>
    gameState[INVADDR+2] = (uint8_t)(inventory[1]>>8);
    1466:	80 91 40 38 	lds	r24, 0x3840	; 0x803840 <inventory+0x2>
    146a:	90 91 41 38 	lds	r25, 0x3841	; 0x803841 <inventory+0x3>
    146e:	90 93 73 3a 	sts	0x3A73, r25	; 0x803a73 <gameState+0x12>
    gameState[INVADDR+3] = (uint8_t)(inventory[1]&0xff);
    1472:	80 93 74 3a 	sts	0x3A74, r24	; 0x803a74 <gameState+0x13>
    if (inventory[0] != (gameCheck[INVADDR]<<8|gameCheck[INVADDR+1])) {
    1476:	89 89       	ldd	r24, Y+17	; 0x11
    1478:	9a 89       	ldd	r25, Y+18	; 0x12
    147a:	98 27       	eor	r25, r24
    147c:	89 27       	eor	r24, r25
    147e:	98 27       	eor	r25, r24
    1480:	28 17       	cp	r18, r24
    1482:	39 07       	cpc	r19, r25
    1484:	69 f4       	brne	.+26     	; 0x14a0 <SaveGameState+0xac>
        if (EEWrite(INVADDR, &gameState[INVADDR], 2)) return 1;
    }
    if (inventory[1] != (gameCheck[INVADDR+2]<<8|gameCheck[INVADDR+3])) {
    1486:	8b 89       	ldd	r24, Y+19	; 0x13
    1488:	9c 89       	ldd	r25, Y+20	; 0x14
    148a:	98 27       	eor	r25, r24
    148c:	89 27       	eor	r24, r25
    148e:	98 27       	eor	r25, r24
    1490:	20 91 40 38 	lds	r18, 0x3840	; 0x803840 <inventory+0x2>
    1494:	30 91 41 38 	lds	r19, 0x3841	; 0x803841 <inventory+0x3>
    1498:	28 17       	cp	r18, r24
    149a:	39 07       	cpc	r19, r25
    149c:	49 f4       	brne	.+18     	; 0x14b0 <SaveGameState+0xbc>
    149e:	10 c0       	rjmp	.+32     	; 0x14c0 <SaveGameState+0xcc>
    gameState[INVADDR] = (uint8_t)(inventory[0]>>8);
    gameState[INVADDR+1] = (uint8_t)(inventory[0]&0xff);
    gameState[INVADDR+2] = (uint8_t)(inventory[1]>>8);
    gameState[INVADDR+3] = (uint8_t)(inventory[1]&0xff);
    if (inventory[0] != (gameCheck[INVADDR]<<8|gameCheck[INVADDR+1])) {
        if (EEWrite(INVADDR, &gameState[INVADDR], 2)) return 1;
    14a0:	42 e0       	ldi	r20, 0x02	; 2
    14a2:	61 e7       	ldi	r22, 0x71	; 113
    14a4:	7a e3       	ldi	r23, 0x3A	; 58
    14a6:	80 e1       	ldi	r24, 0x10	; 16
    14a8:	5e de       	rcall	.-836    	; 0x1166 <EEWrite>
    14aa:	88 23       	and	r24, r24
    14ac:	61 f3       	breq	.-40     	; 0x1486 <SaveGameState+0x92>
    14ae:	d1 cf       	rjmp	.-94     	; 0x1452 <SaveGameState+0x5e>
    }
    if (inventory[1] != (gameCheck[INVADDR+2]<<8|gameCheck[INVADDR+3])) {
        if (EEWrite(INVADDR+2, &gameState[INVADDR+2], 2)) return 1;
    14b0:	42 e0       	ldi	r20, 0x02	; 2
    14b2:	63 e7       	ldi	r22, 0x73	; 115
    14b4:	7a e3       	ldi	r23, 0x3A	; 58
    14b6:	82 e1       	ldi	r24, 0x12	; 18
    14b8:	56 de       	rcall	.-852    	; 0x1166 <EEWrite>
    EERead(0, &gameCheck[0], BOOTCHK);

    //Check game status bits
    for (uint8_t x=0; x<STATLEN; ++x){
        if (gameState[x] != gameCheck[x]){
            if (EEWrite(x, &gameState[x], 1)) return 1;
    14ba:	91 e0       	ldi	r25, 0x01	; 1
    14bc:	81 11       	cpse	r24, r1
    14be:	01 c0       	rjmp	.+2      	; 0x14c2 <SaveGameState+0xce>
    14c0:	90 e0       	ldi	r25, 0x00	; 0
    if (inventory[1] != (gameCheck[INVADDR+2]<<8|gameCheck[INVADDR+3])) {
        if (EEWrite(INVADDR+2, &gameState[INVADDR+2], 2)) return 1;
    }

    return 0;
}
    14c2:	89 2f       	mov	r24, r25
    14c4:	64 96       	adiw	r28, 0x14	; 20
    14c6:	cd bf       	out	0x3d, r28	; 61
    14c8:	de bf       	out	0x3e, r29	; 62
    14ca:	df 91       	pop	r29
    14cc:	cf 91       	pop	r28
    14ce:	1f 91       	pop	r17
    14d0:	0f 91       	pop	r16
    14d2:	ff 90       	pop	r15
    14d4:	df 90       	pop	r13
    14d6:	cf 90       	pop	r12
    14d8:	08 95       	ret

000014da <ReadStatusBit>:

uint8_t ReadStatusBit(uint8_t number){
    number &= 0x7f;
    if (gameState[number>>3] & (1<<(number&7))) return 1; else return 0;
    14da:	e8 2f       	mov	r30, r24
    14dc:	ef 77       	andi	r30, 0x7F	; 127
    14de:	e6 95       	lsr	r30
    14e0:	e6 95       	lsr	r30
    14e2:	e6 95       	lsr	r30
    14e4:	f0 e0       	ldi	r31, 0x00	; 0
    14e6:	ef 59       	subi	r30, 0x9F	; 159
    14e8:	f5 4c       	sbci	r31, 0xC5	; 197
    14ea:	20 81       	ld	r18, Z
    14ec:	30 e0       	ldi	r19, 0x00	; 0
    14ee:	87 70       	andi	r24, 0x07	; 7
    14f0:	a9 01       	movw	r20, r18
    14f2:	02 c0       	rjmp	.+4      	; 0x14f8 <ReadStatusBit+0x1e>
    14f4:	55 95       	asr	r21
    14f6:	47 95       	ror	r20
    14f8:	8a 95       	dec	r24
    14fa:	e2 f7       	brpl	.-8      	; 0x14f4 <ReadStatusBit+0x1a>
    14fc:	ca 01       	movw	r24, r20
}
    14fe:	81 70       	andi	r24, 0x01	; 1
    1500:	08 95       	ret

00001502 <WriteStatusBit>:

void WriteStatusBit(uint8_t number, uint8_t state){
    number &= 0x7f;
    1502:	e8 2f       	mov	r30, r24
    1504:	ef 77       	andi	r30, 0x7F	; 127
    1506:	e6 95       	lsr	r30
    1508:	e6 95       	lsr	r30
    150a:	e6 95       	lsr	r30
    150c:	28 2f       	mov	r18, r24
    150e:	27 70       	andi	r18, 0x07	; 7
    if (state) gameState[number>>3] |= 1<<(number&7);
    1510:	f0 e0       	ldi	r31, 0x00	; 0
    1512:	ef 59       	subi	r30, 0x9F	; 159
    1514:	f5 4c       	sbci	r31, 0xC5	; 197
    1516:	81 e0       	ldi	r24, 0x01	; 1
    1518:	90 e0       	ldi	r25, 0x00	; 0
    151a:	01 c0       	rjmp	.+2      	; 0x151e <WriteStatusBit+0x1c>
    151c:	88 0f       	add	r24, r24
    151e:	2a 95       	dec	r18
    1520:	ea f7       	brpl	.-6      	; 0x151c <WriteStatusBit+0x1a>
    1522:	66 23       	and	r22, r22
    1524:	19 f0       	breq	.+6      	; 0x152c <WriteStatusBit+0x2a>
    1526:	90 81       	ld	r25, Z
    1528:	89 2b       	or	r24, r25
    152a:	03 c0       	rjmp	.+6      	; 0x1532 <WriteStatusBit+0x30>
    else gameState[number>>3] &= ~(1<<(number&7));
    152c:	80 95       	com	r24
    152e:	90 81       	ld	r25, Z
    1530:	89 23       	and	r24, r25
    1532:	80 83       	st	Z, r24
    1534:	08 95       	ret

00001536 <UpdateState>:
}

//Update game state: num -> vBBBBbbb v=value(0 is set!), BBBB=Byte number, bbb=bit number
void UpdateState(uint8_t num){
    1536:	98 2f       	mov	r25, r24
    uint8_t clearBit = num & 0x80;
    num &= 0x7f;
    1538:	8f 77       	andi	r24, 0x7F	; 127
    if (num) {
    153a:	31 f0       	breq	.+12     	; 0x1548 <UpdateState+0x12>
        if (clearBit) {
    153c:	97 ff       	sbrs	r25, 7
    153e:	02 c0       	rjmp	.+4      	; 0x1544 <UpdateState+0xe>
            WriteStatusBit(num, 0);
    1540:	60 e0       	ldi	r22, 0x00	; 0
    1542:	01 c0       	rjmp	.+2      	; 0x1546 <UpdateState+0x10>
        } else {
            WriteStatusBit(num, 1);
    1544:	61 e0       	ldi	r22, 0x01	; 1
    1546:	dd cf       	rjmp	.-70     	; 0x1502 <WriteStatusBit>
    1548:	08 95       	ret

0000154a <CheckState>:
        }
    }
}

//Checks if state of bit BBBBbbb matches with v (inverted) bit
uint8_t CheckState(uint8_t num){
    154a:	cf 93       	push	r28
    154c:	c8 2f       	mov	r28, r24
    uint8_t bitSet = 0;
    if (ReadStatusBit(num & 0x7f)){
    154e:	8f 77       	andi	r24, 0x7F	; 127
    1550:	c4 df       	rcall	.-120    	; 0x14da <ReadStatusBit>
    1552:	2c 2f       	mov	r18, r28
    1554:	22 1f       	adc	r18, r18
    1556:	22 27       	eor	r18, r18
    1558:	22 1f       	adc	r18, r18
    155a:	91 e0       	ldi	r25, 0x01	; 1
    155c:	81 11       	cpse	r24, r1
    155e:	01 c0       	rjmp	.+2      	; 0x1562 <CheckState+0x18>
    1560:	90 e0       	ldi	r25, 0x00	; 0
    }
    if (((num & 0x80)>0)^(bitSet>0)){
        return 1;
    }
    return 0;
}
    1562:	82 2f       	mov	r24, r18
    1564:	89 27       	eor	r24, r25
    1566:	cf 91       	pop	r28
    1568:	08 95       	ret

0000156a <getID>:

//Give out a number 0..3, calculated using serial number fields
uint8_t getID(){
    uint8_t id = 0;
    uint8_t *serNum;
    serNum = (uint8_t*)&SIGROW_SERNUM0;
    156a:	e3 e0       	ldi	r30, 0x03	; 3
    156c:	f1 e1       	ldi	r31, 0x11	; 17
    return 0;
}

//Give out a number 0..3, calculated using serial number fields
uint8_t getID(){
    uint8_t id = 0;
    156e:	80 e0       	ldi	r24, 0x00	; 0
    uint8_t *serNum;
    serNum = (uint8_t*)&SIGROW_SERNUM0;

    for (uint8_t x=0; x<10; ++x){
        id += *serNum;
    1570:	91 91       	ld	r25, Z+
    1572:	89 0f       	add	r24, r25
uint8_t getID(){
    uint8_t id = 0;
    uint8_t *serNum;
    serNum = (uint8_t*)&SIGROW_SERNUM0;

    for (uint8_t x=0; x<10; ++x){
    1574:	ed 30       	cpi	r30, 0x0D	; 13
    1576:	91 e1       	ldi	r25, 0x11	; 17
    1578:	f9 07       	cpc	r31, r25
    157a:	d1 f7       	brne	.-12     	; 0x1570 <getID+0x6>
        id += *serNum;
        ++serNum;
    }
    id %= 4;
    whoami = id+1;
    157c:	83 70       	andi	r24, 0x03	; 3
    157e:	8f 5f       	subi	r24, 0xFF	; 255
    1580:	80 93 3d 38 	sts	0x383D, r24	; 0x80383d <whoami>
    return whoami;
}
    1584:	08 95       	ret

00001586 <Reset>:

void Reset(){
    1586:	e1 e6       	ldi	r30, 0x61	; 97
    1588:	fa e3       	ldi	r31, 0x3A	; 58
    //# 110   set to 1 by FW if badge UUID mod 4 == 0
    //# 111   set to 1 by FW if badge UUID mod 4 == 1
    //# 112   set to 1 by FW if badge UUID mod 4 == 2
    //# 113   set to 1 by FW if badge UUID mod 4 == 3
    for (uint8_t x=0; x<sizeof(gameState); ++x){
        gameState[x] = 0;
    158a:	11 92       	st	Z+, r1
    //Reset game progress (all zeroes) and load some bits:
    //# 110   set to 1 by FW if badge UUID mod 4 == 0
    //# 111   set to 1 by FW if badge UUID mod 4 == 1
    //# 112   set to 1 by FW if badge UUID mod 4 == 2
    //# 113   set to 1 by FW if badge UUID mod 4 == 3
    for (uint8_t x=0; x<sizeof(gameState); ++x){
    158c:	8a e3       	ldi	r24, 0x3A	; 58
    158e:	e5 37       	cpi	r30, 0x75	; 117
    1590:	f8 07       	cpc	r31, r24
    1592:	d9 f7       	brne	.-10     	; 0x158a <Reset+0x4>
        gameState[x] = 0;
    }

    uint8_t id = getID();
    1594:	ea df       	rcall	.-44     	; 0x156a <getID>

    //Write bit in gameState location 110..113
    if (id == 0) WriteStatusBit(110, 1);
    1596:	81 11       	cpse	r24, r1
    1598:	04 c0       	rjmp	.+8      	; 0x15a2 <Reset+0x1c>
    if (gameState[number>>3] & (1<<(number&7))) return 1; else return 0;
}

void WriteStatusBit(uint8_t number, uint8_t state){
    number &= 0x7f;
    if (state) gameState[number>>3] |= 1<<(number&7);
    159a:	80 91 6e 3a 	lds	r24, 0x3A6E	; 0x803a6e <gameState+0xd>
    159e:	80 64       	ori	r24, 0x40	; 64
    15a0:	05 c0       	rjmp	.+10     	; 0x15ac <Reset+0x26>

    uint8_t id = getID();

    //Write bit in gameState location 110..113
    if (id == 0) WriteStatusBit(110, 1);
    else if (id == 1) WriteStatusBit(111, 1);
    15a2:	81 30       	cpi	r24, 0x01	; 1
    15a4:	31 f4       	brne	.+12     	; 0x15b2 <Reset+0x2c>
    if (gameState[number>>3] & (1<<(number&7))) return 1; else return 0;
}

void WriteStatusBit(uint8_t number, uint8_t state){
    number &= 0x7f;
    if (state) gameState[number>>3] |= 1<<(number&7);
    15a6:	80 91 6e 3a 	lds	r24, 0x3A6E	; 0x803a6e <gameState+0xd>
    15aa:	80 68       	ori	r24, 0x80	; 128
    15ac:	80 93 6e 3a 	sts	0x3A6E, r24	; 0x803a6e <gameState+0xd>
    15b0:	0d c0       	rjmp	.+26     	; 0x15cc <Reset+0x46>
    uint8_t id = getID();

    //Write bit in gameState location 110..113
    if (id == 0) WriteStatusBit(110, 1);
    else if (id == 1) WriteStatusBit(111, 1);
    else if (id == 2) WriteStatusBit(112, 1);
    15b2:	82 30       	cpi	r24, 0x02	; 2
    15b4:	21 f4       	brne	.+8      	; 0x15be <Reset+0x38>
    if (gameState[number>>3] & (1<<(number&7))) return 1; else return 0;
}

void WriteStatusBit(uint8_t number, uint8_t state){
    number &= 0x7f;
    if (state) gameState[number>>3] |= 1<<(number&7);
    15b6:	80 91 6f 3a 	lds	r24, 0x3A6F	; 0x803a6f <gameState+0xe>
    15ba:	81 60       	ori	r24, 0x01	; 1
    15bc:	05 c0       	rjmp	.+10     	; 0x15c8 <Reset+0x42>

    //Write bit in gameState location 110..113
    if (id == 0) WriteStatusBit(110, 1);
    else if (id == 1) WriteStatusBit(111, 1);
    else if (id == 2) WriteStatusBit(112, 1);
    else if (id == 3) WriteStatusBit(113, 1);
    15be:	83 30       	cpi	r24, 0x03	; 3
    15c0:	29 f4       	brne	.+10     	; 0x15cc <Reset+0x46>
    if (gameState[number>>3] & (1<<(number&7))) return 1; else return 0;
}

void WriteStatusBit(uint8_t number, uint8_t state){
    number &= 0x7f;
    if (state) gameState[number>>3] |= 1<<(number&7);
    15c2:	80 91 6f 3a 	lds	r24, 0x3A6F	; 0x803a6f <gameState+0xe>
    15c6:	82 60       	ori	r24, 0x02	; 2
    15c8:	80 93 6f 3a 	sts	0x3A6F, r24	; 0x803a6f <gameState+0xe>
    15cc:	80 91 61 3a 	lds	r24, 0x3A61	; 0x803a61 <gameState>
    15d0:	81 60       	ori	r24, 0x01	; 1
    15d2:	80 93 61 3a 	sts	0x3A61, r24	; 0x803a61 <gameState>
    15d6:	08 95       	ret

000015d8 <LoadGameState>:

    return sample;
}

//Load game status
void LoadGameState(){
    15d8:	cf 93       	push	r28
    15da:	df 93       	push	r29
    EERead(0, &gameState[0], BOOTCHK);   //Load game status bits from EEPROM
    15dc:	44 e1       	ldi	r20, 0x14	; 20
    15de:	61 e6       	ldi	r22, 0x61	; 97
    15e0:	7a e3       	ldi	r23, 0x3A	; 58
    15e2:	80 e0       	ldi	r24, 0x00	; 0
    15e4:	b0 dd       	rcall	.-1184   	; 0x1146 <EERead>
    15e6:	ce e6       	ldi	r28, 0x6E	; 110

    uint8_t idSet = 0;
    15e8:	d0 e0       	ldi	r29, 0x00	; 0
    for (uint8_t x=0; x<4; ++x){
        idSet += ReadStatusBit(110+x);
    15ea:	8c 2f       	mov	r24, r28
    15ec:	76 df       	rcall	.-276    	; 0x14da <ReadStatusBit>
    15ee:	d8 0f       	add	r29, r24
    15f0:	cf 5f       	subi	r28, 0xFF	; 255
//Load game status
void LoadGameState(){
    EERead(0, &gameState[0], BOOTCHK);   //Load game status bits from EEPROM

    uint8_t idSet = 0;
    for (uint8_t x=0; x<4; ++x){
    15f2:	c2 37       	cpi	r28, 0x72	; 114
    15f4:	d1 f7       	brne	.-12     	; 0x15ea <LoadGameState+0x12>
        idSet += ReadStatusBit(110+x);
    }

    //Check if badge is reset(0 = cheated!) or new(3) or error(2)
    if (idSet != 1) {
    15f6:	d1 30       	cpi	r29, 0x01	; 1
        Reset();
    15f8:	11 f0       	breq	.+4      	; 0x15fe <LoadGameState+0x26>
    15fa:	c5 df       	rcall	.-118    	; 0x1586 <Reset>
    } else getID();
    15fc:	01 c0       	rjmp	.+2      	; 0x1600 <LoadGameState+0x28>
    15fe:	b5 df       	rcall	.-150    	; 0x156a <getID>

    inventory[0] = (gameState[INVADDR]<<8|gameState[INVADDR+1]);
    1600:	80 91 71 3a 	lds	r24, 0x3A71	; 0x803a71 <gameState+0x10>
    1604:	90 91 72 3a 	lds	r25, 0x3A72	; 0x803a72 <gameState+0x11>
    1608:	98 27       	eor	r25, r24
    160a:	89 27       	eor	r24, r25
    160c:	98 27       	eor	r25, r24
    160e:	80 93 3e 38 	sts	0x383E, r24	; 0x80383e <inventory>
    1612:	90 93 3f 38 	sts	0x383F, r25	; 0x80383f <inventory+0x1>
    inventory[1] = (gameState[INVADDR+2]<<8|gameState[INVADDR+3]);
    1616:	80 91 73 3a 	lds	r24, 0x3A73	; 0x803a73 <gameState+0x12>
    161a:	90 91 74 3a 	lds	r25, 0x3A74	; 0x803a74 <gameState+0x13>
    161e:	98 27       	eor	r25, r24
    1620:	89 27       	eor	r24, r25
    1622:	98 27       	eor	r25, r24
    1624:	80 93 40 38 	sts	0x3840, r24	; 0x803840 <inventory+0x2>
    1628:	90 93 41 38 	sts	0x3841, r25	; 0x803841 <inventory+0x3>
}
    162c:	df 91       	pop	r29
    162e:	cf 91       	pop	r28
    1630:	08 95       	ret

00001632 <HotSummer>:
    //Write bit 0, must always be 1!
    WriteStatusBit(0, 1);
}

//Sets specific game bits after the badge is heated for one and two times.
uint8_t HotSummer(){
    1632:	cf 93       	push	r28
    static uint8_t cooledDown = 0;

    if (CheckState(SUMMERS_COMPLETED)){
    1634:	86 e7       	ldi	r24, 0x76	; 118
    1636:	89 df       	rcall	.-238    	; 0x154a <CheckState>
    1638:	c8 2f       	mov	r28, r24
    163a:	88 23       	and	r24, r24
    163c:	81 f0       	breq	.+32     	; 0x165e <HotSummer+0x2c>
        iLED[SCARAB[G]] = 0;
    163e:	e0 91 bb bd 	lds	r30, 0xBDBB	; 0x80bdbb <__bss_end+0x82a1>
    1642:	f0 e0       	ldi	r31, 0x00	; 0
    1644:	e6 53       	subi	r30, 0x36	; 54
    1646:	f5 4c       	sbci	r31, 0xC5	; 197
    1648:	10 82       	st	Z, r1
        iLED[SCARAB[R]] = dimValue;
    164a:	e0 91 ba bd 	lds	r30, 0xBDBA	; 0x80bdba <__bss_end+0x82a0>
    164e:	f0 e0       	ldi	r31, 0x00	; 0
    1650:	80 91 0b 38 	lds	r24, 0x380B	; 0x80380b <dimValue>
    1654:	e6 53       	subi	r30, 0x36	; 54
    1656:	f5 4c       	sbci	r31, 0xC5	; 197
    1658:	80 83       	st	Z, r24
        return 1;
    165a:	c1 e0       	ldi	r28, 0x01	; 1
    165c:	4c c0       	rjmp	.+152    	; 0x16f6 <HotSummer+0xc4>
    }

    if (CheckState(FIRST_SUMMER)) {
    165e:	85 e7       	ldi	r24, 0x75	; 117
    1660:	74 df       	rcall	.-280    	; 0x154a <CheckState>
    1662:	88 23       	and	r24, r24
    1664:	59 f1       	breq	.+86     	; 0x16bc <HotSummer+0x8a>
        iLED[SCARAB[G]] = dimValue;
    1666:	e0 91 bb bd 	lds	r30, 0xBDBB	; 0x80bdbb <__bss_end+0x82a1>
    166a:	f0 e0       	ldi	r31, 0x00	; 0
    166c:	80 91 0b 38 	lds	r24, 0x380B	; 0x80380b <dimValue>
    1670:	e6 53       	subi	r30, 0x36	; 54
    1672:	f5 4c       	sbci	r31, 0xC5	; 197
    1674:	80 83       	st	Z, r24
        if ((cooledDown) && (adcTemp >= (calTemp + 32))) {
    1676:	80 91 58 38 	lds	r24, 0x3858	; 0x803858 <cooledDown.3948>
    167a:	88 23       	and	r24, r24
    167c:	79 f0       	breq	.+30     	; 0x169c <HotSummer+0x6a>
    167e:	80 91 c0 3a 	lds	r24, 0x3AC0	; 0x803ac0 <calTemp>
    1682:	90 91 c1 3a 	lds	r25, 0x3AC1	; 0x803ac1 <calTemp+0x1>
    1686:	20 91 f5 3a 	lds	r18, 0x3AF5	; 0x803af5 <adcTemp>
    168a:	30 91 f6 3a 	lds	r19, 0x3AF6	; 0x803af6 <adcTemp+0x1>
    168e:	80 96       	adiw	r24, 0x20	; 32
    1690:	28 17       	cp	r18, r24
    1692:	39 07       	cpc	r19, r25
            UpdateState(SUMMERS_COMPLETED);
    1694:	18 f0       	brcs	.+6      	; 0x169c <HotSummer+0x6a>
    1696:	86 e7       	ldi	r24, 0x76	; 118
    1698:	4e df       	rcall	.-356    	; 0x1536 <UpdateState>
            return 0;
    169a:	2d c0       	rjmp	.+90     	; 0x16f6 <HotSummer+0xc4>
        }
        if (adcTemp <= (calTemp + 8)) cooledDown = 1;
    169c:	80 91 c0 3a 	lds	r24, 0x3AC0	; 0x803ac0 <calTemp>
    16a0:	90 91 c1 3a 	lds	r25, 0x3AC1	; 0x803ac1 <calTemp+0x1>
    16a4:	20 91 f5 3a 	lds	r18, 0x3AF5	; 0x803af5 <adcTemp>
    16a8:	30 91 f6 3a 	lds	r19, 0x3AF6	; 0x803af6 <adcTemp+0x1>
    16ac:	08 96       	adiw	r24, 0x08	; 8
    16ae:	82 17       	cp	r24, r18
    16b0:	93 07       	cpc	r25, r19
    16b2:	08 f1       	brcs	.+66     	; 0x16f6 <HotSummer+0xc4>
    16b4:	81 e0       	ldi	r24, 0x01	; 1
    16b6:	80 93 58 38 	sts	0x3858, r24	; 0x803858 <cooledDown.3948>
    16ba:	1d c0       	rjmp	.+58     	; 0x16f6 <HotSummer+0xc4>
                   
    } else {
        if (calTemp == 0) calTemp = adcTemp;
    16bc:	80 91 c0 3a 	lds	r24, 0x3AC0	; 0x803ac0 <calTemp>
    16c0:	90 91 c1 3a 	lds	r25, 0x3AC1	; 0x803ac1 <calTemp+0x1>
    16c4:	89 2b       	or	r24, r25
    16c6:	41 f4       	brne	.+16     	; 0x16d8 <HotSummer+0xa6>
    16c8:	80 91 f5 3a 	lds	r24, 0x3AF5	; 0x803af5 <adcTemp>
    16cc:	90 91 f6 3a 	lds	r25, 0x3AF6	; 0x803af6 <adcTemp+0x1>
    16d0:	80 93 c0 3a 	sts	0x3AC0, r24	; 0x803ac0 <calTemp>
    16d4:	90 93 c1 3a 	sts	0x3AC1, r25	; 0x803ac1 <calTemp+0x1>
        if (adcTemp >= (calTemp + 32)) {
    16d8:	80 91 c0 3a 	lds	r24, 0x3AC0	; 0x803ac0 <calTemp>
    16dc:	90 91 c1 3a 	lds	r25, 0x3AC1	; 0x803ac1 <calTemp+0x1>
    16e0:	20 91 f5 3a 	lds	r18, 0x3AF5	; 0x803af5 <adcTemp>
    16e4:	30 91 f6 3a 	lds	r19, 0x3AF6	; 0x803af6 <adcTemp+0x1>
    16e8:	80 96       	adiw	r24, 0x20	; 32
    16ea:	28 17       	cp	r18, r24
    16ec:	39 07       	cpc	r19, r25
            UpdateState(FIRST_SUMMER);
    16ee:	18 f0       	brcs	.+6      	; 0x16f6 <HotSummer+0xc4>
    16f0:	85 e7       	ldi	r24, 0x75	; 117
    16f2:	21 df       	rcall	.-446    	; 0x1536 <UpdateState>
        }
    }
    return 0;
    16f4:	c0 e0       	ldi	r28, 0x00	; 0
}
    16f6:	8c 2f       	mov	r24, r28
    16f8:	cf 91       	pop	r28
    16fa:	08 95       	ret

000016fc <WingBar>:

void WingBar(int8_t l, int8_t r) {
    16fc:	ec eb       	ldi	r30, 0xBC	; 188
    16fe:	fd eb       	ldi	r31, 0xBD	; 189
    for (int8_t i=0; i<5; i++) {
    1700:	90 e0       	ldi	r25, 0x00	; 0
        if (i<l)
            iLED[WING[L][i]] = dimValue;
    1702:	a5 81       	ldd	r26, Z+5	; 0x05
    1704:	b0 e0       	ldi	r27, 0x00	; 0
    return 0;
}

void WingBar(int8_t l, int8_t r) {
    for (int8_t i=0; i<5; i++) {
        if (i<l)
    1706:	98 17       	cp	r25, r24
    1708:	34 f4       	brge	.+12     	; 0x1716 <WingBar+0x1a>
            iLED[WING[L][i]] = dimValue;
    170a:	20 91 0b 38 	lds	r18, 0x380B	; 0x80380b <dimValue>
    170e:	a6 53       	subi	r26, 0x36	; 54
    1710:	b5 4c       	sbci	r27, 0xC5	; 197
    1712:	2c 93       	st	X, r18
    1714:	03 c0       	rjmp	.+6      	; 0x171c <WingBar+0x20>
        else
            iLED[WING[L][i]] = 0;
    1716:	a6 53       	subi	r26, 0x36	; 54
    1718:	b5 4c       	sbci	r27, 0xC5	; 197
    171a:	1c 92       	st	X, r1
        if (i<r)
            iLED[WING[R][i]] = dimValue;
    171c:	a0 81       	ld	r26, Z
    171e:	b0 e0       	ldi	r27, 0x00	; 0
    for (int8_t i=0; i<5; i++) {
        if (i<l)
            iLED[WING[L][i]] = dimValue;
        else
            iLED[WING[L][i]] = 0;
        if (i<r)
    1720:	96 17       	cp	r25, r22
    1722:	34 f4       	brge	.+12     	; 0x1730 <WingBar+0x34>
            iLED[WING[R][i]] = dimValue;
    1724:	20 91 0b 38 	lds	r18, 0x380B	; 0x80380b <dimValue>
    1728:	a6 53       	subi	r26, 0x36	; 54
    172a:	b5 4c       	sbci	r27, 0xC5	; 197
    172c:	2c 93       	st	X, r18
    172e:	03 c0       	rjmp	.+6      	; 0x1736 <WingBar+0x3a>
        else
            iLED[WING[R][i]] = 0;
    1730:	a6 53       	subi	r26, 0x36	; 54
    1732:	b5 4c       	sbci	r27, 0xC5	; 197
    1734:	1c 92       	st	X, r1
    1736:	9f 5f       	subi	r25, 0xFF	; 255
    1738:	31 96       	adiw	r30, 0x01	; 1
    }
    return 0;
}

void WingBar(int8_t l, int8_t r) {
    for (int8_t i=0; i<5; i++) {
    173a:	95 30       	cpi	r25, 0x05	; 5
    173c:	11 f7       	brne	.-60     	; 0x1702 <WingBar+0x6>
        if (i<r)
            iLED[WING[R][i]] = dimValue;
        else
            iLED[WING[R][i]] = 0;
    }
}
    173e:	08 95       	ret

00001740 <GenerateBlinks>:

void GenerateBlinks(){
    1740:	1f 93       	push	r17
    1742:	cf 93       	push	r28
    1744:	df 93       	push	r29
    1746:	ca ec       	ldi	r28, 0xCA	; 202
    1748:	dd eb       	ldi	r29, 0xBD	; 189
    174a:	1a e7       	ldi	r17, 0x7A	; 122
    effect (or be set directly)
    */

    //Activate HCKR & BADGER leds based on the state-bits
    for (uint8_t i=0;i<6;i++) {
        if(CheckState(HACKER_STATES + i)) {
    174c:	81 2f       	mov	r24, r17
    174e:	fd de       	rcall	.-518    	; 0x154a <CheckState>
            iLED[HCKR[G][i]] = dimValue;
    1750:	ee 81       	ldd	r30, Y+6	; 0x06
    1752:	f0 e0       	ldi	r31, 0x00	; 0
    effect (or be set directly)
    */

    //Activate HCKR & BADGER leds based on the state-bits
    for (uint8_t i=0;i<6;i++) {
        if(CheckState(HACKER_STATES + i)) {
    1754:	88 23       	and	r24, r24
    1756:	59 f0       	breq	.+22     	; 0x176e <GenerateBlinks+0x2e>
            iLED[HCKR[G][i]] = dimValue;
    1758:	80 91 0b 38 	lds	r24, 0x380B	; 0x80380b <dimValue>
    175c:	e6 53       	subi	r30, 0x36	; 54
    175e:	f5 4c       	sbci	r31, 0xC5	; 197
    1760:	80 83       	st	Z, r24
            iLED[HCKR[R][i]] = 0;
    1762:	e8 81       	ld	r30, Y
    1764:	f0 e0       	ldi	r31, 0x00	; 0
    1766:	e6 53       	subi	r30, 0x36	; 54
    1768:	f5 4c       	sbci	r31, 0xC5	; 197
    176a:	10 82       	st	Z, r1
    176c:	0a c0       	rjmp	.+20     	; 0x1782 <GenerateBlinks+0x42>
        } else {
            iLED[HCKR[G][i]] = 0;
    176e:	e6 53       	subi	r30, 0x36	; 54
    1770:	f5 4c       	sbci	r31, 0xC5	; 197
    1772:	10 82       	st	Z, r1
            iLED[HCKR[R][i]] = dimValue;
    1774:	e8 81       	ld	r30, Y
    1776:	f0 e0       	ldi	r31, 0x00	; 0
    1778:	80 91 0b 38 	lds	r24, 0x380B	; 0x80380b <dimValue>
    177c:	e6 53       	subi	r30, 0x36	; 54
    177e:	f5 4c       	sbci	r31, 0xC5	; 197
    1780:	80 83       	st	Z, r24
    1782:	1f 5f       	subi	r17, 0xFF	; 255
    1784:	21 96       	adiw	r28, 0x01	; 1
    used by the games, the other LEDs can be used by setting 
    effect (or be set directly)
    */

    //Activate HCKR & BADGER leds based on the state-bits
    for (uint8_t i=0;i<6;i++) {
    1786:	10 38       	cpi	r17, 0x80	; 128
    1788:	09 f7       	brne	.-62     	; 0x174c <GenerateBlinks+0xc>
        } else {
            iLED[HCKR[G][i]] = 0;
            iLED[HCKR[R][i]] = dimValue;
        }
    }
    if (CheckState(GEM_STATE)) {
    178a:	80 e4       	ldi	r24, 0x40	; 64
    178c:	de de       	rcall	.-580    	; 0x154a <CheckState>
    178e:	88 23       	and	r24, r24
    1790:	69 f1       	breq	.+90     	; 0x17ec <GenerateBlinks+0xac>
        if ( heart == 1 || heart == 3 || heart == 5 )
    1792:	80 91 59 38 	lds	r24, 0x3859	; 0x803859 <heart>
    1796:	98 2f       	mov	r25, r24
    1798:	9d 7f       	andi	r25, 0xFD	; 253
    179a:	e0 91 b9 bd 	lds	r30, 0xBDB9	; 0x80bdb9 <__bss_end+0x829f>
            iLED[BADGER] = dimValue / 2;
    179e:	f0 e0       	ldi	r31, 0x00	; 0
            iLED[HCKR[G][i]] = 0;
            iLED[HCKR[R][i]] = dimValue;
        }
    }
    if (CheckState(GEM_STATE)) {
        if ( heart == 1 || heart == 3 || heart == 5 )
    17a0:	91 30       	cpi	r25, 0x01	; 1
    17a2:	11 f0       	breq	.+4      	; 0x17a8 <GenerateBlinks+0x68>
    17a4:	85 30       	cpi	r24, 0x05	; 5
    17a6:	21 f4       	brne	.+8      	; 0x17b0 <GenerateBlinks+0x70>
            iLED[BADGER] = dimValue / 2;
    17a8:	90 91 0b 38 	lds	r25, 0x380B	; 0x80380b <dimValue>
    17ac:	96 95       	lsr	r25
    17ae:	06 c0       	rjmp	.+12     	; 0x17bc <GenerateBlinks+0x7c>
        else if ( heart == 2 || heart == 4 )
    17b0:	82 30       	cpi	r24, 0x02	; 2
    17b2:	11 f0       	breq	.+4      	; 0x17b8 <GenerateBlinks+0x78>
    17b4:	84 30       	cpi	r24, 0x04	; 4
    17b6:	31 f4       	brne	.+12     	; 0x17c4 <GenerateBlinks+0x84>
            iLED[BADGER] = dimValue;
    17b8:	90 91 0b 38 	lds	r25, 0x380B	; 0x80380b <dimValue>
    17bc:	e6 53       	subi	r30, 0x36	; 54
    17be:	f5 4c       	sbci	r31, 0xC5	; 197
    17c0:	90 83       	st	Z, r25
    17c2:	0c c0       	rjmp	.+24     	; 0x17dc <GenerateBlinks+0x9c>
        else if ( heart == 0 || heart == 6 )
    17c4:	88 23       	and	r24, r24
    17c6:	11 f0       	breq	.+4      	; 0x17cc <GenerateBlinks+0x8c>
    17c8:	86 30       	cpi	r24, 0x06	; 6
    17ca:	29 f4       	brne	.+10     	; 0x17d6 <GenerateBlinks+0x96>
            iLED[BADGER] = dimValue / 4;
    17cc:	90 91 0b 38 	lds	r25, 0x380B	; 0x80380b <dimValue>
    17d0:	96 95       	lsr	r25
    17d2:	96 95       	lsr	r25
    17d4:	f3 cf       	rjmp	.-26     	; 0x17bc <GenerateBlinks+0x7c>
        else
            iLED[BADGER] = 0;
    17d6:	e6 53       	subi	r30, 0x36	; 54
    17d8:	f5 4c       	sbci	r31, 0xC5	; 197
    17da:	10 82       	st	Z, r1
        if (heart<32)
    17dc:	80 32       	cpi	r24, 0x20	; 32
    17de:	20 f4       	brcc	.+8      	; 0x17e8 <GenerateBlinks+0xa8>
            heart++;
    17e0:	8f 5f       	subi	r24, 0xFF	; 255
    17e2:	80 93 59 38 	sts	0x3859, r24	; 0x803859 <heart>
    17e6:	02 c0       	rjmp	.+4      	; 0x17ec <GenerateBlinks+0xac>
        else
            heart = 0;
    17e8:	10 92 59 38 	sts	0x3859, r1	; 0x803859 <heart>
    }

    //LEDs for text adventure
    if ((effect&0xff00)==0) {
    17ec:	80 91 3a 38 	lds	r24, 0x383A	; 0x80383a <effect>
    17f0:	90 91 3b 38 	lds	r25, 0x383B	; 0x80383b <effect+0x1>
    17f4:	88 27       	eor	r24, r24
    17f6:	89 2b       	or	r24, r25
    17f8:	71 f4       	brne	.+28     	; 0x1816 <GenerateBlinks+0xd6>
        //Off
        if ((effect&0x1f)==0){
    17fa:	80 91 3a 38 	lds	r24, 0x383A	; 0x80383a <effect>
    17fe:	90 91 3b 38 	lds	r25, 0x383B	; 0x80383b <effect+0x1>
    1802:	8f 71       	andi	r24, 0x1F	; 31
    1804:	99 27       	eor	r25, r25
    1806:	89 2b       	or	r24, r25
    1808:	31 f4       	brne	.+12     	; 0x1816 <GenerateBlinks+0xd6>
            WingBar(0,0);
    180a:	60 e0       	ldi	r22, 0x00	; 0
    180c:	80 e0       	ldi	r24, 0x00	; 0
        }
    }
}
    180e:	df 91       	pop	r29
    1810:	cf 91       	pop	r28

    //LEDs for text adventure
    if ((effect&0xff00)==0) {
        //Off
        if ((effect&0x1f)==0){
            WingBar(0,0);
    1812:	1f 91       	pop	r17
    1814:	73 cf       	rjmp	.-282    	; 0x16fc <WingBar>
        }
    }
}
    1816:	df 91       	pop	r29
    1818:	cf 91       	pop	r28
    181a:	1f 91       	pop	r17
    181c:	08 95       	ret

0000181e <GenerateAudio>:


uint8_t GenerateAudio(){
    181e:	0f 93       	push	r16
    1820:	1f 93       	push	r17
    1822:	cf 93       	push	r28
    1824:	df 93       	push	r29

    if (auIn[AULEN>>1] < HPLVL) {
    1826:	80 91 c6 3a 	lds	r24, 0x3AC6	; 0x803ac6 <auIn+0x4>
    182a:	89 31       	cpi	r24, 0x19	; 25
    182c:	08 f0       	brcs	.+2      	; 0x1830 <GenerateAudio+0x12>
    182e:	33 c1       	rjmp	.+614    	; 0x1a96 <GenerateAudio+0x278>

        detHdPh = 1;
    1830:	c1 e0       	ldi	r28, 0x01	; 1
    1832:	c0 93 bf 3a 	sts	0x3ABF, r28	; 0x803abf <detHdPh>

        //Audio for text adventure
        if ((effect&0xff00)==0) {
    1836:	80 91 3a 38 	lds	r24, 0x383A	; 0x80383a <effect>
    183a:	90 91 3b 38 	lds	r25, 0x383B	; 0x80383b <effect+0x1>
    183e:	88 27       	eor	r24, r24
    1840:	89 2b       	or	r24, r25
    1842:	09 f0       	breq	.+2      	; 0x1846 <GenerateAudio+0x28>
    1844:	c4 c0       	rjmp	.+392    	; 0x19ce <GenerateAudio+0x1b0>

            //Silence
            if ((effect&0xE0)==0){
    1846:	80 91 3a 38 	lds	r24, 0x383A	; 0x80383a <effect>
    184a:	90 91 3b 38 	lds	r25, 0x383B	; 0x80383b <effect+0x1>
    184e:	80 7e       	andi	r24, 0xE0	; 224
    1850:	99 27       	eor	r25, r25
    1852:	89 2b       	or	r24, r25
    1854:	31 f4       	brne	.+12     	; 0x1862 <GenerateAudio+0x44>
                auRepAddr = &zero;
    1856:	88 e3       	ldi	r24, 0x38	; 56
    1858:	98 e3       	ldi	r25, 0x38	; 56
    185a:	80 93 05 38 	sts	0x3805, r24	; 0x803805 <auRepAddr>
    185e:	90 93 06 38 	sts	0x3806, r25	; 0x803806 <auRepAddr+0x1>
            }

            //Bad (buzzer)
            if ((effect&0xE0)==32){
    1862:	80 91 3a 38 	lds	r24, 0x383A	; 0x80383a <effect>
    1866:	90 91 3b 38 	lds	r25, 0x383B	; 0x80383b <effect+0x1>
    186a:	80 7e       	andi	r24, 0xE0	; 224
    186c:	99 27       	eor	r25, r25
    186e:	80 97       	sbiw	r24, 0x20	; 32
    1870:	09 f0       	breq	.+2      	; 0x1874 <GenerateAudio+0x56>
    1872:	59 c0       	rjmp	.+178    	; 0x1926 <GenerateAudio+0x108>
                static uint8_t auBuffer[17] = {1, 255, 128, 128, 192, 255, 64, 255, 192, 128, 64, 1, 192, 1, 64, 128, 0}; 
                static uint8_t loudness, duration, start;
                floatSpeed(1, 0x2000, 0x2200);
    1874:	40 e0       	ldi	r20, 0x00	; 0
    1876:	52 e2       	ldi	r21, 0x22	; 34
    1878:	60 e0       	ldi	r22, 0x00	; 0
    187a:	70 e2       	ldi	r23, 0x20	; 32
    187c:	81 e0       	ldi	r24, 0x01	; 1
    187e:	56 dd       	rcall	.-1364   	; 0x132c <floatSpeed>
                auBuffer[2] = floatAround(0x80, 5, 0x01, 0x00);
    1880:	20 e0       	ldi	r18, 0x00	; 0
    1882:	41 e0       	ldi	r20, 0x01	; 1
    1884:	65 e0       	ldi	r22, 0x05	; 5
    1886:	80 e8       	ldi	r24, 0x80	; 128
    1888:	83 dd       	rcall	.-1274   	; 0x1390 <floatAround>
    188a:	80 93 12 38 	sts	0x3812, r24	; 0x803812 <auBuffer.3965+0x2>

                if (buttonMark) {
    188e:	80 91 42 38 	lds	r24, 0x3842	; 0x803842 <buttonMark>
    1892:	88 23       	and	r24, r24
    1894:	09 f4       	brne	.+2      	; 0x1898 <GenerateAudio+0x7a>
    1896:	47 c0       	rjmp	.+142    	; 0x1926 <GenerateAudio+0x108>
                    if (start == 0) {
    1898:	80 91 57 38 	lds	r24, 0x3857	; 0x803857 <start.3968>
    189c:	81 11       	cpse	r24, r1
    189e:	15 c0       	rjmp	.+42     	; 0x18ca <GenerateAudio+0xac>
                        duration = 4;
    18a0:	84 e0       	ldi	r24, 0x04	; 4
    18a2:	80 93 56 38 	sts	0x3856, r24	; 0x803856 <duration.3967>
                        loudness = 0xff;
    18a6:	8f ef       	ldi	r24, 0xFF	; 255
    18a8:	80 93 55 38 	sts	0x3855, r24	; 0x803855 <loudness.3966>
                        TCB1_CCMP = 0x2000;
    18ac:	80 e0       	ldi	r24, 0x00	; 0
    18ae:	90 e2       	ldi	r25, 0x20	; 32
    18b0:	80 93 5c 0a 	sts	0x0A5C, r24	; 0x800a5c <__TEXT_REGION_LENGTH__+0x700a5c>
    18b4:	90 93 5d 0a 	sts	0x0A5D, r25	; 0x800a5d <__TEXT_REGION_LENGTH__+0x700a5d>
                        auRepAddr = &auBuffer[0];
    18b8:	80 e1       	ldi	r24, 0x10	; 16
    18ba:	98 e3       	ldi	r25, 0x38	; 56
    18bc:	80 93 05 38 	sts	0x3805, r24	; 0x803805 <auRepAddr>
    18c0:	90 93 06 38 	sts	0x3806, r25	; 0x803806 <auRepAddr+0x1>
                        start = 1;
    18c4:	81 e0       	ldi	r24, 0x01	; 1
    18c6:	80 93 57 38 	sts	0x3857, r24	; 0x803857 <start.3968>
                    }

                    if (loudness) {
    18ca:	80 91 55 38 	lds	r24, 0x3855	; 0x803855 <loudness.3966>
    18ce:	88 23       	and	r24, r24
    18d0:	69 f0       	breq	.+26     	; 0x18ec <GenerateAudio+0xce>
                        auVolume = loudness;
    18d2:	80 93 b6 3a 	sts	0x3AB6, r24	; 0x803ab6 <auVolume>
                        if (duration) duration--; else loudness >>= 1;
    18d6:	90 91 56 38 	lds	r25, 0x3856	; 0x803856 <duration.3967>
    18da:	99 23       	and	r25, r25
    18dc:	21 f0       	breq	.+8      	; 0x18e6 <GenerateAudio+0xc8>
    18de:	91 50       	subi	r25, 0x01	; 1
    18e0:	90 93 56 38 	sts	0x3856, r25	; 0x803856 <duration.3967>
    18e4:	03 c0       	rjmp	.+6      	; 0x18ec <GenerateAudio+0xce>
    18e6:	86 95       	lsr	r24
    18e8:	80 93 55 38 	sts	0x3855, r24	; 0x803855 <loudness.3966>
                    } 

                    if (loudness == 0) {
    18ec:	80 91 55 38 	lds	r24, 0x3855	; 0x803855 <loudness.3966>
    18f0:	81 11       	cpse	r24, r1
    18f2:	19 c0       	rjmp	.+50     	; 0x1926 <GenerateAudio+0x108>
                        effect &= 0x1f;
    18f4:	80 91 3a 38 	lds	r24, 0x383A	; 0x80383a <effect>
    18f8:	90 91 3b 38 	lds	r25, 0x383B	; 0x80383b <effect+0x1>
    18fc:	8f 71       	andi	r24, 0x1F	; 31
    18fe:	99 27       	eor	r25, r25
    1900:	80 93 3a 38 	sts	0x383A, r24	; 0x80383a <effect>
    1904:	90 93 3b 38 	sts	0x383B, r25	; 0x80383b <effect+0x1>
                        auRepAddr = &zero;
    1908:	88 e3       	ldi	r24, 0x38	; 56
    190a:	98 e3       	ldi	r25, 0x38	; 56
    190c:	80 93 05 38 	sts	0x3805, r24	; 0x803805 <auRepAddr>
    1910:	90 93 06 38 	sts	0x3806, r25	; 0x803806 <auRepAddr+0x1>
                        auSmpAddr = &zero;
    1914:	80 93 07 38 	sts	0x3807, r24	; 0x803807 <auSmpAddr>
    1918:	90 93 08 38 	sts	0x3808, r25	; 0x803808 <auSmpAddr+0x1>
                        auVolume = 0xff;
    191c:	8f ef       	ldi	r24, 0xFF	; 255
    191e:	80 93 b6 3a 	sts	0x3AB6, r24	; 0x803ab6 <auVolume>
                        start = 0;
    1922:	10 92 57 38 	sts	0x3857, r1	; 0x803857 <start.3968>
                    }
                }
            }

            //Good (bell)
            if ((effect&0xE0)==64){
    1926:	80 91 3a 38 	lds	r24, 0x383A	; 0x80383a <effect>
    192a:	90 91 3b 38 	lds	r25, 0x383B	; 0x80383b <effect+0x1>
                //auBuffer = 
            }

            //Rain storm with whistling wind
            if ((effect&0xE0)==96){
    192e:	80 91 3a 38 	lds	r24, 0x383A	; 0x80383a <effect>
    1932:	90 91 3b 38 	lds	r25, 0x383B	; 0x80383b <effect+0x1>
    1936:	80 7e       	andi	r24, 0xE0	; 224
    1938:	99 27       	eor	r25, r25
    193a:	80 36       	cpi	r24, 0x60	; 96
    193c:	91 05       	cpc	r25, r1
    193e:	d1 f5       	brne	.+116    	; 0x19b4 <GenerateAudio+0x196>
                static uint8_t auBuffer[7];
                auBuffer[6]= 0;        
    1940:	10 92 54 38 	sts	0x3854, r1	; 0x803854 <auBuffer.3969+0x6>
                auRepAddr = &auBuffer[0];
    1944:	8e e4       	ldi	r24, 0x4E	; 78
    1946:	98 e3       	ldi	r25, 0x38	; 56
    1948:	80 93 05 38 	sts	0x3805, r24	; 0x803805 <auRepAddr>
    194c:	90 93 06 38 	sts	0x3806, r25	; 0x803806 <auRepAddr+0x1>
    1950:	8c 01       	movw	r16, r24

                //Noise is to be generated fast, outside of buttonMark loop
                for (uint8_t x=1; x<6; ++x){
    1952:	c1 e0       	ldi	r28, 0x01	; 1
                    if (x%3) auBuffer[x] = floatAround(0x80, 5, 0x01, 0x00);
    1954:	d3 e0       	ldi	r29, 0x03	; 3
    1956:	8c 2f       	mov	r24, r28
    1958:	6d 2f       	mov	r22, r29
    195a:	0e 94 71 1e 	call	0x3ce2	; 0x3ce2 <__udivmodqi4>
    195e:	99 23       	and	r25, r25
    1960:	39 f0       	breq	.+14     	; 0x1970 <GenerateAudio+0x152>
    1962:	20 e0       	ldi	r18, 0x00	; 0
    1964:	41 e0       	ldi	r20, 0x01	; 1
    1966:	65 e0       	ldi	r22, 0x05	; 5
    1968:	80 e8       	ldi	r24, 0x80	; 128
    196a:	12 dd       	rcall	.-1500   	; 0x1390 <floatAround>
    196c:	f8 01       	movw	r30, r16
    196e:	81 83       	std	Z+1, r24	; 0x01
                static uint8_t auBuffer[7];
                auBuffer[6]= 0;        
                auRepAddr = &auBuffer[0];

                //Noise is to be generated fast, outside of buttonMark loop
                for (uint8_t x=1; x<6; ++x){
    1970:	cf 5f       	subi	r28, 0xFF	; 255
    1972:	0f 5f       	subi	r16, 0xFF	; 255
    1974:	1f 4f       	sbci	r17, 0xFF	; 255
    1976:	c6 30       	cpi	r28, 0x06	; 6
    1978:	71 f7       	brne	.-36     	; 0x1956 <GenerateAudio+0x138>
                    if (x%3) auBuffer[x] = floatAround(0x80, 5, 0x01, 0x00);
                }

                if (buttonMark){
    197a:	80 91 42 38 	lds	r24, 0x3842	; 0x803842 <buttonMark>
    197e:	88 23       	and	r24, r24
    1980:	c9 f0       	breq	.+50     	; 0x19b4 <GenerateAudio+0x196>
                    //"Floating" speed for howl (and noise, but that's hardly audible)
                    floatSpeed(5, 0x0280, 0x0400);
    1982:	40 e0       	ldi	r20, 0x00	; 0
    1984:	54 e0       	ldi	r21, 0x04	; 4
    1986:	60 e8       	ldi	r22, 0x80	; 128
    1988:	72 e0       	ldi	r23, 0x02	; 2
    198a:	85 e0       	ldi	r24, 0x05	; 5
    198c:	cf dc       	rcall	.-1634   	; 0x132c <floatSpeed>
            
                    //"Floating" volume and wind howl during 8 bit rainstorm needs some randomness
                    auVolume = floatAround(auVolume, 2, 0x10, 0xA0);
    198e:	80 91 b6 3a 	lds	r24, 0x3AB6	; 0x803ab6 <auVolume>
    1992:	20 ea       	ldi	r18, 0xA0	; 160
    1994:	40 e1       	ldi	r20, 0x10	; 16
    1996:	62 e0       	ldi	r22, 0x02	; 2
    1998:	fb dc       	rcall	.-1546   	; 0x1390 <floatAround>
    199a:	80 93 b6 3a 	sts	0x3AB6, r24	; 0x803ab6 <auVolume>
                    auBuffer[0] = floatAround(auBuffer[0], 2, 0x70, 0x90);
    199e:	20 e9       	ldi	r18, 0x90	; 144
    19a0:	40 e7       	ldi	r20, 0x70	; 112
    19a2:	62 e0       	ldi	r22, 0x02	; 2
    19a4:	80 91 4e 38 	lds	r24, 0x384E	; 0x80384e <auBuffer.3969>
    19a8:	f3 dc       	rcall	.-1562   	; 0x1390 <floatAround>
    19aa:	80 93 4e 38 	sts	0x384E, r24	; 0x80384e <auBuffer.3969>
                    auBuffer[3] = 0xFF-auBuffer[0];  //Inverse value of wind[0] produces a whistle
    19ae:	80 95       	com	r24
    19b0:	80 93 51 38 	sts	0x3851, r24	; 0x803851 <auBuffer.3969+0x3>
                }
            }

            //Footsteps
            if ((effect&0xE0)==128){
    19b4:	80 91 3a 38 	lds	r24, 0x383A	; 0x80383a <effect>
    19b8:	90 91 3b 38 	lds	r25, 0x383B	; 0x80383b <effect+0x1>

            }

            //
            if ((effect&0xE0)==160){
    19bc:	80 91 3a 38 	lds	r24, 0x383A	; 0x80383a <effect>
    19c0:	90 91 3b 38 	lds	r25, 0x383B	; 0x80383b <effect+0x1>

            }

            //
            if ((effect&0xE0)==192){
    19c4:	80 91 3a 38 	lds	r24, 0x383A	; 0x80383a <effect>
    19c8:	90 91 3b 38 	lds	r25, 0x383B	; 0x80383b <effect+0x1>
    19cc:	66 c0       	rjmp	.+204    	; 0x1a9a <GenerateAudio+0x27c>
            }

            //
            else {
            }
        } else if ((effect&0xff00)==0x0100) {
    19ce:	80 91 3a 38 	lds	r24, 0x383A	; 0x80383a <effect>
    19d2:	90 91 3b 38 	lds	r25, 0x383B	; 0x80383b <effect+0x1>
    19d6:	88 27       	eor	r24, r24
    19d8:	81 15       	cp	r24, r1
    19da:	91 40       	sbci	r25, 0x01	; 1
    19dc:	09 f0       	breq	.+2      	; 0x19e0 <GenerateAudio+0x1c2>
    19de:	5d c0       	rjmp	.+186    	; 0x1a9a <GenerateAudio+0x27c>
            if ((effect&0xE0) <= 0x90) {
    19e0:	80 91 3a 38 	lds	r24, 0x383A	; 0x80383a <effect>
    19e4:	90 91 3b 38 	lds	r25, 0x383B	; 0x80383b <effect+0x1>
    19e8:	80 7e       	andi	r24, 0xE0	; 224
    19ea:	99 27       	eor	r25, r25
    19ec:	81 39       	cpi	r24, 0x91	; 145
    19ee:	91 05       	cpc	r25, r1
    19f0:	08 f0       	brcs	.+2      	; 0x19f4 <GenerateAudio+0x1d6>
    19f2:	53 c0       	rjmp	.+166    	; 0x1a9a <GenerateAudio+0x27c>
                
                static uint8_t auBuffer[3] = {255, 1, 0};
                static uint8_t duration, start;
                uint16_t freq = ((effect&0xE0)+1)<<4;
    19f4:	60 91 3a 38 	lds	r22, 0x383A	; 0x80383a <effect>
    19f8:	70 91 3b 38 	lds	r23, 0x383B	; 0x80383b <effect+0x1>
    19fc:	60 7e       	andi	r22, 0xE0	; 224
    19fe:	77 27       	eor	r23, r23
    1a00:	6f 5f       	subi	r22, 0xFF	; 255
    1a02:	7f 4f       	sbci	r23, 0xFF	; 255
    1a04:	84 e0       	ldi	r24, 0x04	; 4
    1a06:	66 0f       	add	r22, r22
    1a08:	77 1f       	adc	r23, r23
    1a0a:	8a 95       	dec	r24
                floatSpeed(1, freq+0x0200, freq+0x0300);
    1a0c:	e1 f7       	brne	.-8      	; 0x1a06 <GenerateAudio+0x1e8>
    1a0e:	ab 01       	movw	r20, r22
    1a10:	5d 5f       	subi	r21, 0xFD	; 253
    1a12:	7e 5f       	subi	r23, 0xFE	; 254
    1a14:	81 e0       	ldi	r24, 0x01	; 1
                auBuffer[2] = floatAround(0x80, 5, 0x01, 0x00);
    1a16:	8a dc       	rcall	.-1772   	; 0x132c <floatSpeed>
    1a18:	20 e0       	ldi	r18, 0x00	; 0
    1a1a:	41 e0       	ldi	r20, 0x01	; 1
    1a1c:	65 e0       	ldi	r22, 0x05	; 5
    1a1e:	80 e8       	ldi	r24, 0x80	; 128
    1a20:	b7 dc       	rcall	.-1682   	; 0x1390 <floatAround>
    1a22:	80 93 0f 38 	sts	0x380F, r24	; 0x80380f <auBuffer.3974+0x2>

                if (buttonMark) {
    1a26:	80 91 42 38 	lds	r24, 0x3842	; 0x803842 <buttonMark>
    1a2a:	88 23       	and	r24, r24
    1a2c:	b1 f1       	breq	.+108    	; 0x1a9a <GenerateAudio+0x27c>
                    if (start == 0) {
    1a2e:	80 91 4d 38 	lds	r24, 0x384D	; 0x80384d <start.3976>
    1a32:	81 11       	cpse	r24, r1
    1a34:	0e c0       	rjmp	.+28     	; 0x1a52 <GenerateAudio+0x234>
                        duration = 4;
    1a36:	84 e0       	ldi	r24, 0x04	; 4
    1a38:	80 93 4c 38 	sts	0x384C, r24	; 0x80384c <duration.3975>
                        auRepAddr = &auBuffer[0];
    1a3c:	8d e0       	ldi	r24, 0x0D	; 13
    1a3e:	98 e3       	ldi	r25, 0x38	; 56
    1a40:	80 93 05 38 	sts	0x3805, r24	; 0x803805 <auRepAddr>
    1a44:	90 93 06 38 	sts	0x3806, r25	; 0x803806 <auRepAddr+0x1>
                        auVolume = 255;
    1a48:	8f ef       	ldi	r24, 0xFF	; 255
    1a4a:	80 93 b6 3a 	sts	0x3AB6, r24	; 0x803ab6 <auVolume>
                        start = 1;
    1a4e:	c0 93 4d 38 	sts	0x384D, r28	; 0x80384d <start.3976>
                    }   if (duration == 0) {
    1a52:	80 91 4c 38 	lds	r24, 0x384C	; 0x80384c <duration.3975>
    1a56:	81 11       	cpse	r24, r1
    1a58:	1a c0       	rjmp	.+52     	; 0x1a8e <GenerateAudio+0x270>
                        effect &= 0x1f;
    1a5a:	80 91 3a 38 	lds	r24, 0x383A	; 0x80383a <effect>
    1a5e:	90 91 3b 38 	lds	r25, 0x383B	; 0x80383b <effect+0x1>
    1a62:	8f 71       	andi	r24, 0x1F	; 31
    1a64:	99 27       	eor	r25, r25
    1a66:	80 93 3a 38 	sts	0x383A, r24	; 0x80383a <effect>
    1a6a:	90 93 3b 38 	sts	0x383B, r25	; 0x80383b <effect+0x1>
                        auRepAddr = &zero;
    1a6e:	88 e3       	ldi	r24, 0x38	; 56
    1a70:	98 e3       	ldi	r25, 0x38	; 56
    1a72:	80 93 05 38 	sts	0x3805, r24	; 0x803805 <auRepAddr>
    1a76:	90 93 06 38 	sts	0x3806, r25	; 0x803806 <auRepAddr+0x1>
                        auSmpAddr = &zero;
    1a7a:	80 93 07 38 	sts	0x3807, r24	; 0x803807 <auSmpAddr>
    1a7e:	90 93 08 38 	sts	0x3808, r25	; 0x803808 <auSmpAddr+0x1>
                        auVolume = 0xff;
    1a82:	8f ef       	ldi	r24, 0xFF	; 255
    1a84:	80 93 b6 3a 	sts	0x3AB6, r24	; 0x803ab6 <auVolume>
                        start = 0;
    1a88:	10 92 4d 38 	sts	0x384D, r1	; 0x80384d <start.3976>
    1a8c:	06 c0       	rjmp	.+12     	; 0x1a9a <GenerateAudio+0x27c>
                    } else duration--;
    1a8e:	81 50       	subi	r24, 0x01	; 1
    1a90:	80 93 4c 38 	sts	0x384C, r24	; 0x80384c <duration.3975>
    1a94:	02 c0       	rjmp	.+4      	; 0x1a9a <GenerateAudio+0x27c>
                }
            }
        }
    } else {
        detHdPh = 0;
    1a96:	10 92 bf 3a 	sts	0x3ABF, r1	; 0x803abf <detHdPh>
    }
    return buttonMark;
    1a9a:	80 91 42 38 	lds	r24, 0x3842	; 0x803842 <buttonMark>
}
    1a9e:	df 91       	pop	r29
    1aa0:	cf 91       	pop	r28
    1aa2:	1f 91       	pop	r17
    1aa4:	0f 91       	pop	r16
    1aa6:	08 95       	ret

00001aa8 <getClock>:

uint16_t getClock() {
    return 60 * minuteMark + (RTC_CNT>>9);
    1aa8:	20 91 43 38 	lds	r18, 0x3843	; 0x803843 <minuteMark>
    1aac:	80 91 48 01 	lds	r24, 0x0148	; 0x800148 <__TEXT_REGION_LENGTH__+0x700148>
    1ab0:	90 91 49 01 	lds	r25, 0x0149	; 0x800149 <__TEXT_REGION_LENGTH__+0x700149>
    1ab4:	89 2f       	mov	r24, r25
    1ab6:	99 27       	eor	r25, r25
    1ab8:	86 95       	lsr	r24
}
    1aba:	3c e3       	ldi	r19, 0x3C	; 60
    1abc:	23 9f       	mul	r18, r19
    1abe:	80 0d       	add	r24, r0
    1ac0:	91 1d       	adc	r25, r1
    1ac2:	11 24       	eor	r1, r1
    1ac4:	08 95       	ret

00001ac6 <idleTimeout>:

uint8_t idleTimeout(uint16_t lastActive, uint16_t maxIdle) {
    1ac6:	0f 93       	push	r16
    1ac8:	1f 93       	push	r17
    1aca:	cf 93       	push	r28
    1acc:	df 93       	push	r29
    1ace:	8c 01       	movw	r16, r24
    1ad0:	eb 01       	movw	r28, r22
    uint16_t curClock;

    curClock = getClock();
    1ad2:	ea df       	rcall	.-44     	; 0x1aa8 <getClock>
    1ad4:	9c 01       	movw	r18, r24
    if (curClock < lastActive)
    1ad6:	80 17       	cp	r24, r16
    1ad8:	91 07       	cpc	r25, r17
    1ada:	08 f4       	brcc	.+2      	; 0x1ade <idleTimeout+0x18>
        curClock += 256 * 60;
    1adc:	34 5c       	subi	r19, 0xC4	; 196

    return (curClock > (lastActive + maxIdle));
    1ade:	c0 0f       	add	r28, r16
    1ae0:	d1 1f       	adc	r29, r17
    1ae2:	81 e0       	ldi	r24, 0x01	; 1
    1ae4:	c2 17       	cp	r28, r18
    1ae6:	d3 07       	cpc	r29, r19
    1ae8:	08 f0       	brcs	.+2      	; 0x1aec <idleTimeout+0x26>
    1aea:	80 e0       	ldi	r24, 0x00	; 0
    1aec:	df 91       	pop	r29
    1aee:	cf 91       	pop	r28
    1af0:	1f 91       	pop	r17
    1af2:	0f 91       	pop	r16
    1af4:	08 95       	ret

00001af6 <simonLed>:

void simonTone(uint8_t val) {
    // TODO some way to set teh audio stuff
}

void simonLed(uint8_t val) {
    1af6:	cf 93       	push	r28
    1af8:	df 93       	push	r29
    1afa:	ec eb       	ldi	r30, 0xBC	; 188
    1afc:	fd eb       	ldi	r31, 0xBD	; 189
    1afe:	ef 01       	movw	r28, r30
    for (uint8_t n = 0; n < 5; n++) {
        iLED[WING[L][n]] = 0;
    1b00:	a5 81       	ldd	r26, Z+5	; 0x05
    1b02:	b0 e0       	ldi	r27, 0x00	; 0
    1b04:	a6 53       	subi	r26, 0x36	; 54
    1b06:	b5 4c       	sbci	r27, 0xC5	; 197
    1b08:	1c 92       	st	X, r1
    1b0a:	31 96       	adiw	r30, 0x01	; 1
        iLED[WING[R][n]] = 0;
    1b0c:	a8 81       	ld	r26, Y
    1b0e:	b0 e0       	ldi	r27, 0x00	; 0
    1b10:	a6 53       	subi	r26, 0x36	; 54
    1b12:	b5 4c       	sbci	r27, 0xC5	; 197
    1b14:	1c 92       	st	X, r1
void simonTone(uint8_t val) {
    // TODO some way to set teh audio stuff
}

void simonLed(uint8_t val) {
    for (uint8_t n = 0; n < 5; n++) {
    1b16:	9d eb       	ldi	r25, 0xBD	; 189
    1b18:	e1 3c       	cpi	r30, 0xC1	; 193
    1b1a:	f9 07       	cpc	r31, r25
    1b1c:	81 f7       	brne	.-32     	; 0x1afe <simonLed+0x8>
        iLED[WING[L][n]] = 0;
        iLED[WING[R][n]] = 0;
    }
    if (val == 1) {
    1b1e:	81 30       	cpi	r24, 0x01	; 1
    1b20:	99 f4       	brne	.+38     	; 0x1b48 <simonLed+0x52>
        iLED[WING[L][0]] = dimValue;
    1b22:	e0 91 c1 bd 	lds	r30, 0xBDC1	; 0x80bdc1 <__bss_end+0x82a7>
    1b26:	f0 e0       	ldi	r31, 0x00	; 0
    1b28:	80 91 0b 38 	lds	r24, 0x380B	; 0x80380b <dimValue>
    1b2c:	e6 53       	subi	r30, 0x36	; 54
    1b2e:	f5 4c       	sbci	r31, 0xC5	; 197
    1b30:	80 83       	st	Z, r24
        iLED[WING[L][1]] = dimValue;
    1b32:	e0 91 c2 bd 	lds	r30, 0xBDC2	; 0x80bdc2 <__bss_end+0x82a8>
    1b36:	f0 e0       	ldi	r31, 0x00	; 0
    1b38:	80 91 0b 38 	lds	r24, 0x380B	; 0x80380b <dimValue>
    1b3c:	e6 53       	subi	r30, 0x36	; 54
    1b3e:	f5 4c       	sbci	r31, 0xC5	; 197
    1b40:	80 83       	st	Z, r24
        iLED[WING[L][2]] = dimValue;
    1b42:	e0 91 c3 bd 	lds	r30, 0xBDC3	; 0x80bdc3 <__bss_end+0x82a9>
    1b46:	2e c0       	rjmp	.+92     	; 0x1ba4 <simonLed+0xae>
    } else if (val == 2) {
    1b48:	82 30       	cpi	r24, 0x02	; 2
    1b4a:	59 f4       	brne	.+22     	; 0x1b62 <simonLed+0x6c>
        iLED[WING[L][3]] = dimValue;
    1b4c:	e0 91 c4 bd 	lds	r30, 0xBDC4	; 0x80bdc4 <__bss_end+0x82aa>
    1b50:	f0 e0       	ldi	r31, 0x00	; 0
    1b52:	80 91 0b 38 	lds	r24, 0x380B	; 0x80380b <dimValue>
    1b56:	e6 53       	subi	r30, 0x36	; 54
    1b58:	f5 4c       	sbci	r31, 0xC5	; 197
    1b5a:	80 83       	st	Z, r24
        iLED[WING[L][4]] = dimValue;
    1b5c:	e0 91 c5 bd 	lds	r30, 0xBDC5	; 0x80bdc5 <__bss_end+0x82ab>
    1b60:	21 c0       	rjmp	.+66     	; 0x1ba4 <simonLed+0xae>
    } else if (val == 3) {
    1b62:	83 30       	cpi	r24, 0x03	; 3
    1b64:	99 f4       	brne	.+38     	; 0x1b8c <simonLed+0x96>
        iLED[WING[R][0]] = dimValue;
    1b66:	e0 91 bc bd 	lds	r30, 0xBDBC	; 0x80bdbc <__bss_end+0x82a2>
    1b6a:	f0 e0       	ldi	r31, 0x00	; 0
    1b6c:	80 91 0b 38 	lds	r24, 0x380B	; 0x80380b <dimValue>
    1b70:	e6 53       	subi	r30, 0x36	; 54
    1b72:	f5 4c       	sbci	r31, 0xC5	; 197
    1b74:	80 83       	st	Z, r24
        iLED[WING[R][1]] = dimValue;
    1b76:	e0 91 bd bd 	lds	r30, 0xBDBD	; 0x80bdbd <__bss_end+0x82a3>
    1b7a:	f0 e0       	ldi	r31, 0x00	; 0
    1b7c:	80 91 0b 38 	lds	r24, 0x380B	; 0x80380b <dimValue>
    1b80:	e6 53       	subi	r30, 0x36	; 54
    1b82:	f5 4c       	sbci	r31, 0xC5	; 197
    1b84:	80 83       	st	Z, r24
        iLED[WING[R][2]] = dimValue;
    1b86:	e0 91 be bd 	lds	r30, 0xBDBE	; 0x80bdbe <__bss_end+0x82a4>
    1b8a:	0c c0       	rjmp	.+24     	; 0x1ba4 <simonLed+0xae>
    } else if (val == 4) {
    1b8c:	84 30       	cpi	r24, 0x04	; 4
    1b8e:	81 f4       	brne	.+32     	; 0x1bb0 <simonLed+0xba>
        iLED[WING[R][3]] = dimValue;
    1b90:	e0 91 bf bd 	lds	r30, 0xBDBF	; 0x80bdbf <__bss_end+0x82a5>
    1b94:	f0 e0       	ldi	r31, 0x00	; 0
    1b96:	80 91 0b 38 	lds	r24, 0x380B	; 0x80380b <dimValue>
    1b9a:	e6 53       	subi	r30, 0x36	; 54
    1b9c:	f5 4c       	sbci	r31, 0xC5	; 197
    1b9e:	80 83       	st	Z, r24
        iLED[WING[R][4]] = dimValue;
    1ba0:	e0 91 c0 bd 	lds	r30, 0xBDC0	; 0x80bdc0 <__bss_end+0x82a6>
    1ba4:	f0 e0       	ldi	r31, 0x00	; 0
    1ba6:	80 91 0b 38 	lds	r24, 0x380B	; 0x80380b <dimValue>
    1baa:	e6 53       	subi	r30, 0x36	; 54
    1bac:	f5 4c       	sbci	r31, 0xC5	; 197
    1bae:	80 83       	st	Z, r24
    }
    simonTone(val);
}
    1bb0:	df 91       	pop	r29
    1bb2:	cf 91       	pop	r28
    1bb4:	08 95       	ret

00001bb6 <BastetDictates>:

// Main game loop
uint8_t BastetDictates() {
    1bb6:	cf 93       	push	r28
    1bb8:	df 93       	push	r29
    if (CheckState(BASTET_COMPLETED))
    1bba:	8a e7       	ldi	r24, 0x7A	; 122
    1bbc:	c6 dc       	rcall	.-1652   	; 0x154a <CheckState>
    1bbe:	81 11       	cpse	r24, r1
    1bc0:	b8 c0       	rjmp	.+368    	; 0x1d32 <BastetDictates+0x17c>
        return 0;

    if ((TEXT != gameNow) && (BASTET != gameNow))
    1bc2:	80 91 3c 38 	lds	r24, 0x383C	; 0x80383c <gameNow>
    1bc6:	8d 7f       	andi	r24, 0xFD	; 253
    1bc8:	09 f0       	breq	.+2      	; 0x1bcc <BastetDictates+0x16>
    1bca:	b3 c0       	rjmp	.+358    	; 0x1d32 <BastetDictates+0x17c>
        return 0;

    if (BASTET_BOOT == simonGameState) {
    1bcc:	80 91 5c 38 	lds	r24, 0x385C	; 0x80385c <simonGameState>
    1bd0:	81 11       	cpse	r24, r1
    1bd2:	22 c0       	rjmp	.+68     	; 0x1c18 <BastetDictates+0x62>
        simonPos = ((adcPhot+adcTemp)&0x3f);
    1bd4:	20 91 bd 3a 	lds	r18, 0x3ABD	; 0x803abd <adcPhot>
    1bd8:	30 91 be 3a 	lds	r19, 0x3ABE	; 0x803abe <adcPhot+0x1>
    1bdc:	80 91 f5 3a 	lds	r24, 0x3AF5	; 0x803af5 <adcTemp>
    1be0:	90 91 f6 3a 	lds	r25, 0x3AF6	; 0x803af6 <adcTemp+0x1>
    1be4:	82 0f       	add	r24, r18
    1be6:	8f 73       	andi	r24, 0x3F	; 63
    1be8:	80 93 2b 38 	sts	0x382B, r24	; 0x80382b <simonPos>
        for(uint8_t x=0; x<simonPos; ++x) lfsr();
    1bec:	c0 e0       	ldi	r28, 0x00	; 0
    1bee:	80 91 2b 38 	lds	r24, 0x382B	; 0x80382b <simonPos>
    1bf2:	c8 17       	cp	r28, r24
    1bf4:	18 f4       	brcc	.+6      	; 0x1bfc <BastetDictates+0x46>
    1bf6:	7b db       	rcall	.-2314   	; 0x12ee <lfsr>
    1bf8:	cf 5f       	subi	r28, 0xFF	; 255
    1bfa:	f9 cf       	rjmp	.-14     	; 0x1bee <BastetDictates+0x38>
    1bfc:	ce e5       	ldi	r28, 0x5E	; 94

        for (uint8_t i = 0; i < BASTET_LENGTH; i++) {
            simonState[i] = (lfsr() % 4);
    1bfe:	d8 e3       	ldi	r29, 0x38	; 56
    1c00:	76 db       	rcall	.-2324   	; 0x12ee <lfsr>
    1c02:	83 70       	andi	r24, 0x03	; 3
    1c04:	89 93       	st	Y+, r24

    if (BASTET_BOOT == simonGameState) {
        simonPos = ((adcPhot+adcTemp)&0x3f);
        for(uint8_t x=0; x<simonPos; ++x) lfsr();

        for (uint8_t i = 0; i < BASTET_LENGTH; i++) {
    1c06:	88 e3       	ldi	r24, 0x38	; 56
    1c08:	ce 36       	cpi	r28, 0x6E	; 110
    1c0a:	d8 07       	cpc	r29, r24
    1c0c:	c9 f7       	brne	.-14     	; 0x1c00 <BastetDictates+0x4a>
            simonState[i] = (lfsr() % 4);
        }
        simonPos = 1;
    1c0e:	81 e0       	ldi	r24, 0x01	; 1
    1c10:	80 93 2b 38 	sts	0x382B, r24	; 0x80382b <simonPos>
        simonGameState = BASTET_GAME_START;
    1c14:	80 93 5c 38 	sts	0x385C, r24	; 0x80385c <simonGameState>
    }

    if (BASTET_GAME_START == simonGameState) {
    1c18:	80 91 5c 38 	lds	r24, 0x385C	; 0x80385c <simonGameState>
    1c1c:	81 30       	cpi	r24, 0x01	; 1
    1c1e:	29 f4       	brne	.+10     	; 0x1c2a <BastetDictates+0x74>
        // TODO start animu
        simonGameState = BASTET_GAME_SHOW_PATTERN;
    1c20:	83 e0       	ldi	r24, 0x03	; 3
    1c22:	80 93 5c 38 	sts	0x385C, r24	; 0x80385c <simonGameState>
        simonTimer = 0;
    1c26:	10 92 5b 38 	sts	0x385B, r1	; 0x80385b <simonTimer>
    }

    if (BASTET_GAME_SHOW_PATTERN == simonGameState) {
    1c2a:	80 91 5c 38 	lds	r24, 0x385C	; 0x80385c <simonGameState>
    1c2e:	83 30       	cpi	r24, 0x03	; 3
    1c30:	d9 f4       	brne	.+54     	; 0x1c68 <BastetDictates+0xb2>
        // assuming 15Hz
        uint8_t pos = simonTimer / (15 - (simonPos>>1));
    1c32:	20 91 2b 38 	lds	r18, 0x382B	; 0x80382b <simonPos>
    1c36:	80 91 5b 38 	lds	r24, 0x385B	; 0x80385b <simonTimer>
    1c3a:	90 e0       	ldi	r25, 0x00	; 0
    1c3c:	32 2f       	mov	r19, r18
    1c3e:	36 95       	lsr	r19
    1c40:	6f e0       	ldi	r22, 0x0F	; 15
    1c42:	70 e0       	ldi	r23, 0x00	; 0
    1c44:	63 1b       	sub	r22, r19
    1c46:	71 09       	sbc	r23, r1
    1c48:	0e 94 91 1e 	call	0x3d22	; 0x3d22 <__divmodhi4>
        if (pos > simonPos) {
    1c4c:	26 17       	cp	r18, r22
    1c4e:	30 f4       	brcc	.+12     	; 0x1c5c <BastetDictates+0xa6>
            simonGameState = BASTET_GAME_INPUT;
    1c50:	85 e0       	ldi	r24, 0x05	; 5
    1c52:	80 93 5c 38 	sts	0x385C, r24	; 0x80385c <simonGameState>
            simonLed(0);
    1c56:	80 e0       	ldi	r24, 0x00	; 0
    1c58:	4e df       	rcall	.-356    	; 0x1af6 <simonLed>
            return 0;
    1c5a:	6b c0       	rjmp	.+214    	; 0x1d32 <BastetDictates+0x17c>
        }
        simonLed(simonState[pos]);
    1c5c:	77 27       	eor	r23, r23
    1c5e:	fb 01       	movw	r30, r22
    1c60:	e2 5a       	subi	r30, 0xA2	; 162
    1c62:	f7 4c       	sbci	r31, 0xC7	; 199
    1c64:	80 81       	ld	r24, Z
    1c66:	47 df       	rcall	.-370    	; 0x1af6 <simonLed>
    }

    if (BASTET_GAME_INPUT == simonGameState) {
    1c68:	80 91 5c 38 	lds	r24, 0x385C	; 0x80385c <simonGameState>
    1c6c:	85 30       	cpi	r24, 0x05	; 5
    1c6e:	09 f0       	breq	.+2      	; 0x1c72 <BastetDictates+0xbc>
    1c70:	4e c0       	rjmp	.+156    	; 0x1d0e <BastetDictates+0x158>
        uint8_t choice = 0;
        if ((buttonState & 0xf0)&&(buttonState < 0xff)) {
    1c72:	e0 91 09 38 	lds	r30, 0x3809	; 0x803809 <buttonState>
    1c76:	8e 2f       	mov	r24, r30
    1c78:	80 7f       	andi	r24, 0xF0	; 240
    1c7a:	c9 f1       	breq	.+114    	; 0x1cee <BastetDictates+0x138>
    1c7c:	ef 3f       	cpi	r30, 0xFF	; 255
    1c7e:	b9 f1       	breq	.+110    	; 0x1cee <BastetDictates+0x138>
    1c80:	ef 70       	andi	r30, 0x0F	; 15
    1c82:	e1 50       	subi	r30, 0x01	; 1
    1c84:	e8 30       	cpi	r30, 0x08	; 8
    1c86:	98 f5       	brcc	.+102    	; 0x1cee <BastetDictates+0x138>
    1c88:	f0 e0       	ldi	r31, 0x00	; 0
    1c8a:	e8 5f       	subi	r30, 0xF8	; 248
    1c8c:	f1 44       	sbci	r31, 0x41	; 65
    1c8e:	c0 81       	ld	r28, Z
                    break;
            }
        }

        //Button pressed
        if (choice > 0) {
    1c90:	cc 23       	and	r28, r28
    1c92:	69 f1       	breq	.+90     	; 0x1cee <BastetDictates+0x138>
            gameNow = BASTET;
    1c94:	82 e0       	ldi	r24, 0x02	; 2
    1c96:	80 93 3c 38 	sts	0x383C, r24	; 0x80383c <gameNow>
            if (simonProcessed == 0) {
    1c9a:	80 91 5a 38 	lds	r24, 0x385A	; 0x80385a <simonProcessed>
    1c9e:	81 11       	cpse	r24, r1
                simonTimer = 0;
    1ca0:	43 c0       	rjmp	.+134    	; 0x1d28 <BastetDictates+0x172>
    1ca2:	10 92 5b 38 	sts	0x385B, r1	; 0x80385b <simonTimer>
                simonLed(choice);
    1ca6:	8c 2f       	mov	r24, r28
    1ca8:	26 df       	rcall	.-436    	; 0x1af6 <simonLed>
                // TODO something timer something 
                if (simonState[simonInputPos]+1 == choice) {
    1caa:	40 91 5d 38 	lds	r20, 0x385D	; 0x80385d <simonInputPos>
    1cae:	e4 2f       	mov	r30, r20
    1cb0:	f0 e0       	ldi	r31, 0x00	; 0
    1cb2:	e2 5a       	subi	r30, 0xA2	; 162
    1cb4:	f7 4c       	sbci	r31, 0xC7	; 199
    1cb6:	20 81       	ld	r18, Z
    1cb8:	30 e0       	ldi	r19, 0x00	; 0
    1cba:	2f 5f       	subi	r18, 0xFF	; 255
    1cbc:	3f 4f       	sbci	r19, 0xFF	; 255
    1cbe:	8c 2f       	mov	r24, r28
    1cc0:	90 e0       	ldi	r25, 0x00	; 0
    1cc2:	28 17       	cp	r18, r24
    1cc4:	39 07       	cpc	r19, r25
    1cc6:	21 f4       	brne	.+8      	; 0x1cd0 <BastetDictates+0x11a>
                    // TODO correct sound
                    simonInputPos++;
    1cc8:	4f 5f       	subi	r20, 0xFF	; 255
    1cca:	40 93 5d 38 	sts	0x385D, r20	; 0x80385d <simonInputPos>
                } else {
                    // TODO fail sound
                    simonInputPos = 0;
    1cce:	06 c0       	rjmp	.+12     	; 0x1cdc <BastetDictates+0x126>
    1cd0:	10 92 5d 38 	sts	0x385D, r1	; 0x80385d <simonInputPos>
                    gameNow = TEXT;
    1cd4:	10 92 3c 38 	sts	0x383C, r1	; 0x80383c <gameNow>
                    simonLed(0);
    1cd8:	80 e0       	ldi	r24, 0x00	; 0
                }

                if (simonInputPos == BASTET_LENGTH) {
    1cda:	0d df       	rcall	.-486    	; 0x1af6 <simonLed>
    1cdc:	80 91 5d 38 	lds	r24, 0x385D	; 0x80385d <simonInputPos>
    1ce0:	80 31       	cpi	r24, 0x10	; 16
                    // TODO win animu
                    UpdateState(BASTET_COMPLETED);
    1ce2:	a9 f4       	brne	.+42     	; 0x1d0e <BastetDictates+0x158>
    1ce4:	8a e7       	ldi	r24, 0x7A	; 122
    1ce6:	27 dc       	rcall	.-1970   	; 0x1536 <UpdateState>
                    gameNow = TEXT;
    1ce8:	10 92 3c 38 	sts	0x383C, r1	; 0x80383c <gameNow>
    1cec:	10 c0       	rjmp	.+32     	; 0x1d0e <BastetDictates+0x158>
                }
            }
        
        //Button released, next or reset!
        } else {    
            if (simonInputPos == simonPos) {
    1cee:	80 91 5d 38 	lds	r24, 0x385D	; 0x80385d <simonInputPos>
    1cf2:	90 91 2b 38 	lds	r25, 0x382B	; 0x80382b <simonPos>
    1cf6:	89 13       	cpse	r24, r25
    1cf8:	08 c0       	rjmp	.+16     	; 0x1d0a <BastetDictates+0x154>
                simonPos++;
    1cfa:	8f 5f       	subi	r24, 0xFF	; 255
    1cfc:	80 93 2b 38 	sts	0x382B, r24	; 0x80382b <simonPos>
                simonInputPos = 0;
    1d00:	10 92 5d 38 	sts	0x385D, r1	; 0x80385d <simonInputPos>
                simonGameState = BASTET_GAME_SHOW_PATTERN;
    1d04:	83 e0       	ldi	r24, 0x03	; 3
    1d06:	80 93 5c 38 	sts	0x385C, r24	; 0x80385c <simonGameState>
            }                    
            simonProcessed = 0;
    1d0a:	10 92 5a 38 	sts	0x385A, r1	; 0x80385a <simonProcessed>
        }
    }

    if (BASTET_GAME_WAIT_LEDS == simonGameState) {
    1d0e:	80 91 5c 38 	lds	r24, 0x385C	; 0x80385c <simonGameState>
    1d12:	84 30       	cpi	r24, 0x04	; 4
        if (simonTimer >= 7) {
    1d14:	49 f4       	brne	.+18     	; 0x1d28 <BastetDictates+0x172>
    1d16:	80 91 5b 38 	lds	r24, 0x385B	; 0x80385b <simonTimer>
    1d1a:	87 30       	cpi	r24, 0x07	; 7
            // on to next state after .5 second
            simonLed(0);  // LEDs off
    1d1c:	28 f0       	brcs	.+10     	; 0x1d28 <BastetDictates+0x172>
    1d1e:	80 e0       	ldi	r24, 0x00	; 0
    1d20:	ea de       	rcall	.-556    	; 0x1af6 <simonLed>
            simonGameState = BASTET_GAME_INPUT;
    1d22:	85 e0       	ldi	r24, 0x05	; 5
    1d24:	80 93 5c 38 	sts	0x385C, r24	; 0x80385c <simonGameState>
        }
    }

    ++simonTimer;
    1d28:	80 91 5b 38 	lds	r24, 0x385B	; 0x80385b <simonTimer>
    1d2c:	8f 5f       	subi	r24, 0xFF	; 255
    1d2e:	80 93 5b 38 	sts	0x385B, r24	; 0x80385b <simonTimer>
    return 0;
}
    1d32:	80 e0       	ldi	r24, 0x00	; 0
    1d34:	df 91       	pop	r29
    1d36:	cf 91       	pop	r28
    1d38:	08 95       	ret

00001d3a <Cheat>:

//
void SetResponse(uint8_t number, uint16_t address, uint16_t length, uint8_t type){
    reactStr[0][number]=address;
    reactStr[1][number]=length;
    reactStr[2][number]=type;
    1d3a:	1f 93       	push	r17
    1d3c:	cf 93       	push	r28
    1d3e:	df 93       	push	r29
    1d40:	cd b7       	in	r28, 0x3d	; 61
    1d42:	de b7       	in	r29, 0x3e	; 62
    1d44:	62 97       	sbiw	r28, 0x12	; 18
    1d46:	cd bf       	out	0x3d, r28	; 61
    1d48:	de bf       	out	0x3e, r29	; 62
    1d4a:	8a 8b       	std	Y+18, r24	; 0x12
    1d4c:	80 e1       	ldi	r24, 0x10	; 16
    1d4e:	e0 e9       	ldi	r30, 0x90	; 144
    1d50:	fd eb       	ldi	r31, 0xBD	; 189
    1d52:	de 01       	movw	r26, r28
    1d54:	11 96       	adiw	r26, 0x01	; 1
    1d56:	01 90       	ld	r0, Z+
    1d58:	0d 92       	st	X+, r0
    1d5a:	8a 95       	dec	r24
    1d5c:	e1 f7       	brne	.-8      	; 0x1d56 <Cheat+0x1c>
    1d5e:	fe 01       	movw	r30, r28
    1d60:	31 96       	adiw	r30, 0x01	; 1
    1d62:	90 e0       	ldi	r25, 0x00	; 0
    1d64:	8f ef       	ldi	r24, 0xFF	; 255
    1d66:	21 91       	ld	r18, Z+
    1d68:	31 91       	ld	r19, Z+
    1d6a:	26 17       	cp	r18, r22
    1d6c:	37 07       	cpc	r19, r23
    1d6e:	09 f4       	brne	.+2      	; 0x1d72 <Cheat+0x38>
    1d70:	89 2f       	mov	r24, r25
    1d72:	9f 5f       	subi	r25, 0xFF	; 255
    1d74:	98 30       	cpi	r25, 0x08	; 8
    1d76:	b9 f7       	brne	.-18     	; 0x1d66 <Cheat+0x2c>
    1d78:	88 30       	cpi	r24, 0x08	; 8
    1d7a:	10 f0       	brcs	.+4      	; 0x1d80 <Cheat+0x46>
    1d7c:	80 e0       	ldi	r24, 0x00	; 0
    1d7e:	12 c0       	rjmp	.+36     	; 0x1da4 <Cheat+0x6a>
    1d80:	18 e1       	ldi	r17, 0x18	; 24
    1d82:	18 0f       	add	r17, r24
    1d84:	41 e0       	ldi	r20, 0x01	; 1
    1d86:	be 01       	movw	r22, r28
    1d88:	6f 5e       	subi	r22, 0xEF	; 239
    1d8a:	7f 4f       	sbci	r23, 0xFF	; 255
    1d8c:	81 2f       	mov	r24, r17
    1d8e:	db d9       	rcall	.-3146   	; 0x1146 <EERead>
    1d90:	89 89       	ldd	r24, Y+17	; 0x11
    1d92:	8f 3f       	cpi	r24, 0xFF	; 255
    1d94:	99 f7       	brne	.-26     	; 0x1d7c <Cheat+0x42>
    1d96:	41 e0       	ldi	r20, 0x01	; 1
    1d98:	be 01       	movw	r22, r28
    1d9a:	6e 5e       	subi	r22, 0xEE	; 238
    1d9c:	7f 4f       	sbci	r23, 0xFF	; 255
    1d9e:	81 2f       	mov	r24, r17
    1da0:	e2 d9       	rcall	.-3132   	; 0x1166 <EEWrite>
    1da2:	81 e0       	ldi	r24, 0x01	; 1
    1da4:	62 96       	adiw	r28, 0x12	; 18
    1da6:	cd bf       	out	0x3d, r28	; 61
    1da8:	de bf       	out	0x3e, r29	; 62
    1daa:	df 91       	pop	r29
    1dac:	cf 91       	pop	r28
    1dae:	1f 91       	pop	r17
    1db0:	08 95       	ret

00001db2 <DecryptData>:
    1db2:	f9 01       	movw	r30, r18
    1db4:	9c 01       	movw	r18, r24
    1db6:	2e 1b       	sub	r18, r30
    1db8:	3f 0b       	sbc	r19, r31
    1dba:	88 e0       	ldi	r24, 0x08	; 8
    1dbc:	48 9f       	mul	r20, r24
    1dbe:	a0 01       	movw	r20, r0
    1dc0:	11 24       	eor	r1, r1
    1dc2:	4e 57       	subi	r20, 0x7E	; 126
    1dc4:	51 44       	sbci	r21, 0x41	; 65
    1dc6:	66 23       	and	r22, r22
    1dc8:	69 f0       	breq	.+26     	; 0x1de4 <DecryptData+0x32>
    1dca:	df 01       	movw	r26, r30
    1dcc:	a2 0f       	add	r26, r18
    1dce:	b3 1f       	adc	r27, r19
    1dd0:	a7 70       	andi	r26, 0x07	; 7
    1dd2:	bb 27       	eor	r27, r27
    1dd4:	a4 0f       	add	r26, r20
    1dd6:	b5 1f       	adc	r27, r21
    1dd8:	80 81       	ld	r24, Z
    1dda:	9c 91       	ld	r25, X
    1ddc:	98 27       	eor	r25, r24
    1dde:	91 93       	st	Z+, r25
    1de0:	61 50       	subi	r22, 0x01	; 1
    1de2:	f1 cf       	rjmp	.-30     	; 0x1dc6 <DecryptData+0x14>
    1de4:	08 95       	ret

00001de6 <UnflipData>:
    1de6:	26 2f       	mov	r18, r22
    1de8:	fb 01       	movw	r30, r22
    1dea:	35 e5       	ldi	r19, 0x55	; 85
    1dec:	9e 2f       	mov	r25, r30
    1dee:	92 1b       	sub	r25, r18
    1df0:	98 17       	cp	r25, r24
    1df2:	28 f4       	brcc	.+10     	; 0x1dfe <UnflipData+0x18>
    1df4:	90 81       	ld	r25, Z
    1df6:	92 95       	swap	r25
    1df8:	93 27       	eor	r25, r19
    1dfa:	91 93       	st	Z+, r25
    1dfc:	f7 cf       	rjmp	.-18     	; 0x1dec <UnflipData+0x6>
    1dfe:	08 95       	ret

00001e00 <ExtEERead>:
    1e00:	af 92       	push	r10
    1e02:	bf 92       	push	r11
    1e04:	cf 92       	push	r12
    1e06:	df 92       	push	r13
    1e08:	ef 92       	push	r14
    1e0a:	ff 92       	push	r15
    1e0c:	0f 93       	push	r16
    1e0e:	1f 93       	push	r17
    1e10:	cf 93       	push	r28
    1e12:	df 93       	push	r29
    1e14:	00 d0       	rcall	.+0      	; 0x1e16 <ExtEERead+0x16>
    1e16:	cd b7       	in	r28, 0x3d	; 61
    1e18:	de b7       	in	r29, 0x3e	; 62
    1e1a:	d6 2e       	mov	r13, r22
    1e1c:	c4 2e       	mov	r12, r20
    1e1e:	59 01       	movw	r10, r18
    1e20:	7c 01       	movw	r14, r24
    1e22:	e8 94       	clt
    1e24:	f7 f8       	bld	r15, 7
    1e26:	f9 82       	std	Y+1, r15	; 0x01
    1e28:	ea 82       	std	Y+2, r14	; 0x02
    1e2a:	06 2f       	mov	r16, r22
    1e2c:	42 e0       	ldi	r20, 0x02	; 2
    1e2e:	be 01       	movw	r22, r28
    1e30:	6f 5f       	subi	r22, 0xFF	; 255
    1e32:	7f 4f       	sbci	r23, 0xFF	; 255
    1e34:	80 e5       	ldi	r24, 0x50	; 80
    1e36:	0e 94 b8 02 	call	0x570	; 0x570 <I2C_read_bytes>
    1e3a:	18 2f       	mov	r17, r24
    1e3c:	81 11       	cpse	r24, r1
    1e3e:	05 c0       	rjmp	.+10     	; 0x1e4a <ExtEERead+0x4a>
    1e40:	95 01       	movw	r18, r10
    1e42:	4c 2d       	mov	r20, r12
    1e44:	6d 2d       	mov	r22, r13
    1e46:	c7 01       	movw	r24, r14
    1e48:	b4 df       	rcall	.-152    	; 0x1db2 <DecryptData>
    1e4a:	81 2f       	mov	r24, r17
    1e4c:	0f 90       	pop	r0
    1e4e:	0f 90       	pop	r0
    1e50:	df 91       	pop	r29
    1e52:	cf 91       	pop	r28
    1e54:	1f 91       	pop	r17
    1e56:	0f 91       	pop	r16
    1e58:	ff 90       	pop	r15
    1e5a:	ef 90       	pop	r14
    1e5c:	df 90       	pop	r13
    1e5e:	cf 90       	pop	r12
    1e60:	bf 90       	pop	r11
    1e62:	af 90       	pop	r10
    1e64:	08 95       	ret

00001e66 <ClearTxAfter>:
    1e66:	8f 5f       	subi	r24, 0xFF	; 255
    1e68:	88 30       	cpi	r24, 0x08	; 8
    1e6a:	30 f4       	brcc	.+12     	; 0x1e78 <ClearTxAfter+0x12>
    1e6c:	e8 2f       	mov	r30, r24
    1e6e:	f0 e0       	ldi	r31, 0x00	; 0
    1e70:	e8 5b       	subi	r30, 0xB8	; 184
    1e72:	f5 4c       	sbci	r31, 0xC5	; 197
    1e74:	10 82       	st	Z, r1
    1e76:	f7 cf       	rjmp	.-18     	; 0x1e66 <ClearTxAfter>
    1e78:	08 95       	ret

00001e7a <StartsWith>:
    1e7a:	ac 01       	movw	r20, r24
    1e7c:	90 e0       	ldi	r25, 0x00	; 0
    1e7e:	e9 2f       	mov	r30, r25
    1e80:	f0 e0       	ldi	r31, 0x00	; 0
    1e82:	da 01       	movw	r26, r20
    1e84:	ae 0f       	add	r26, r30
    1e86:	bf 1f       	adc	r27, r31
    1e88:	3c 91       	ld	r19, X
    1e8a:	e6 0f       	add	r30, r22
    1e8c:	f7 1f       	adc	r31, r23
    1e8e:	31 11       	cpse	r19, r1
    1e90:	05 c0       	rjmp	.+10     	; 0x1e9c <StartsWith+0x22>
    1e92:	81 e0       	ldi	r24, 0x01	; 1
    1e94:	90 81       	ld	r25, Z
    1e96:	99 23       	and	r25, r25
    1e98:	49 f0       	breq	.+18     	; 0x1eac <StartsWith+0x32>
    1e9a:	07 c0       	rjmp	.+14     	; 0x1eaa <StartsWith+0x30>
    1e9c:	20 81       	ld	r18, Z
    1e9e:	22 23       	and	r18, r18
    1ea0:	c1 f3       	breq	.-16     	; 0x1e92 <StartsWith+0x18>
    1ea2:	32 13       	cpse	r19, r18
    1ea4:	02 c0       	rjmp	.+4      	; 0x1eaa <StartsWith+0x30>
    1ea6:	9f 5f       	subi	r25, 0xFF	; 255
    1ea8:	ea cf       	rjmp	.-44     	; 0x1e7e <StartsWith+0x4>
    1eaa:	80 e0       	ldi	r24, 0x00	; 0
    1eac:	08 95       	ret

00001eae <PrepareSending>:
    1eae:	61 15       	cp	r22, r1
    1eb0:	71 05       	cpc	r23, r1
    1eb2:	51 f1       	breq	.+84     	; 0x1f08 <PrepareSending+0x5a>
    1eb4:	e0 e5       	ldi	r30, 0x50	; 80
    1eb6:	fa e3       	ldi	r31, 0x3A	; 58
    1eb8:	a8 e4       	ldi	r26, 0x48	; 72
    1eba:	ba e3       	ldi	r27, 0x3A	; 58
    1ebc:	20 e0       	ldi	r18, 0x00	; 0
    1ebe:	3f ef       	ldi	r19, 0xFF	; 255
    1ec0:	6f 3f       	cpi	r22, 0xFF	; 255
    1ec2:	71 05       	cpc	r23, r1
    1ec4:	69 f0       	breq	.+26     	; 0x1ee0 <PrepareSending+0x32>
    1ec6:	60 f0       	brcs	.+24     	; 0x1ee0 <PrepareSending+0x32>
    1ec8:	81 93       	st	Z+, r24
    1eca:	91 93       	st	Z+, r25
    1ecc:	3d 93       	st	X+, r19
    1ece:	81 50       	subi	r24, 0x01	; 1
    1ed0:	9f 4f       	sbci	r25, 0xFF	; 255
    1ed2:	6f 5f       	subi	r22, 0xFF	; 255
    1ed4:	71 09       	sbc	r23, r1
    1ed6:	2f 5f       	subi	r18, 0xFF	; 255
    1ed8:	27 30       	cpi	r18, 0x07	; 7
    1eda:	91 f7       	brne	.-28     	; 0x1ec0 <PrepareSending+0x12>
    1edc:	81 e0       	ldi	r24, 0x01	; 1
    1ede:	08 95       	ret
    1ee0:	e2 2f       	mov	r30, r18
    1ee2:	f0 e0       	ldi	r31, 0x00	; 0
    1ee4:	df 01       	movw	r26, r30
    1ee6:	aa 0f       	add	r26, r26
    1ee8:	bb 1f       	adc	r27, r27
    1eea:	a0 5b       	subi	r26, 0xB0	; 176
    1eec:	b5 4c       	sbci	r27, 0xC5	; 197
    1eee:	8d 93       	st	X+, r24
    1ef0:	9c 93       	st	X, r25
    1ef2:	e8 5b       	subi	r30, 0xB8	; 184
    1ef4:	f5 4c       	sbci	r31, 0xC5	; 197
    1ef6:	cb 01       	movw	r24, r22
    1ef8:	6f ef       	ldi	r22, 0xFF	; 255
    1efa:	70 e0       	ldi	r23, 0x00	; 0
    1efc:	0e 94 7d 1e 	call	0x3cfa	; 0x3cfa <__udivmodhi4>
    1f00:	80 83       	st	Z, r24
    1f02:	40 93 46 3a 	sts	0x3A46, r20	; 0x803a46 <txTypeNow>
    1f06:	05 c0       	rjmp	.+10     	; 0x1f12 <PrepareSending+0x64>
    1f08:	10 92 50 3a 	sts	0x3A50, r1	; 0x803a50 <txAddrList>
    1f0c:	10 92 51 3a 	sts	0x3A51, r1	; 0x803a51 <txAddrList+0x1>
    1f10:	20 e0       	ldi	r18, 0x00	; 0
    1f12:	82 2f       	mov	r24, r18
    1f14:	a8 df       	rcall	.-176    	; 0x1e66 <ClearTxAfter>
    1f16:	10 92 47 3a 	sts	0x3A47, r1	; 0x803a47 <txAddrNow>
    1f1a:	80 e0       	ldi	r24, 0x00	; 0
    1f1c:	08 95       	ret

00001f1e <SetStandardResponse>:
}

//
uint8_t SetStandardResponse(uint8_t custStrEnd){
    1f1e:	cf 93       	push	r28
    1f20:	df 93       	push	r29
    return 0;
}

//
void SetResponse(uint8_t number, uint16_t address, uint16_t length, uint8_t type){
    reactStr[0][number]=address;
    1f22:	28 2f       	mov	r18, r24
    1f24:	30 e0       	ldi	r19, 0x00	; 0
    1f26:	f9 01       	movw	r30, r18
    1f28:	ee 0f       	add	r30, r30
    1f2a:	ff 1f       	adc	r31, r31
    1f2c:	e5 5e       	subi	r30, 0xE5	; 229
    1f2e:	f6 4c       	sbci	r31, 0xC6	; 198
    1f30:	ab e5       	ldi	r26, 0x5B	; 91
    1f32:	ba e7       	ldi	r27, 0x7A	; 122
    1f34:	a0 83       	st	Z, r26
    1f36:	b1 83       	std	Z+1, r27	; 0x01
    reactStr[1][number]=length;
    1f38:	f9 01       	movw	r30, r18
    1f3a:	ee 0f       	add	r30, r30
    1f3c:	ff 1f       	adc	r31, r31
    1f3e:	e5 5a       	subi	r30, 0xA5	; 165
    1f40:	f6 4c       	sbci	r31, 0xC6	; 198
    1f42:	62 e0       	ldi	r22, 0x02	; 2
    1f44:	70 e0       	ldi	r23, 0x00	; 0
    1f46:	60 83       	st	Z, r22
    1f48:	71 83       	std	Z+1, r23	; 0x01
    reactStr[2][number]=type;
    1f4a:	22 0f       	add	r18, r18
    1f4c:	33 1f       	adc	r19, r19
    1f4e:	f9 01       	movw	r30, r18
    1f50:	e5 56       	subi	r30, 0x65	; 101
    1f52:	f6 4c       	sbci	r31, 0xC6	; 198
    1f54:	41 e0       	ldi	r20, 0x01	; 1
    1f56:	50 e0       	ldi	r21, 0x00	; 0
    1f58:	40 83       	st	Z, r20
    1f5a:	51 83       	std	Z+1, r21	; 0x01
    return 0;
}

//
void SetResponse(uint8_t number, uint16_t address, uint16_t length, uint8_t type){
    reactStr[0][number]=address;
    1f5c:	21 e0       	ldi	r18, 0x01	; 1
    1f5e:	28 0f       	add	r18, r24
    1f60:	30 e0       	ldi	r19, 0x00	; 0
    1f62:	f9 01       	movw	r30, r18
    1f64:	ee 0f       	add	r30, r30
    1f66:	ff 1f       	adc	r31, r31
    1f68:	e5 5e       	subi	r30, 0xE5	; 229
    1f6a:	f6 4c       	sbci	r31, 0xC6	; 198
    1f6c:	c4 e6       	ldi	r28, 0x64	; 100
    1f6e:	da e7       	ldi	r29, 0x7A	; 122
    1f70:	c0 83       	st	Z, r28
    1f72:	d1 83       	std	Z+1, r29	; 0x01
    reactStr[1][number]=length;
    1f74:	f9 01       	movw	r30, r18
    1f76:	ee 0f       	add	r30, r30
    1f78:	ff 1f       	adc	r31, r31
    1f7a:	e5 5a       	subi	r30, 0xA5	; 165
    1f7c:	f6 4c       	sbci	r31, 0xC6	; 198
    1f7e:	ca e0       	ldi	r28, 0x0A	; 10
    1f80:	d0 e0       	ldi	r29, 0x00	; 0
    1f82:	c0 83       	st	Z, r28
    1f84:	d1 83       	std	Z+1, r29	; 0x01
    reactStr[2][number]=type;
    1f86:	22 0f       	add	r18, r18
    1f88:	33 1f       	adc	r19, r19
    1f8a:	f9 01       	movw	r30, r18
    1f8c:	e5 56       	subi	r30, 0x65	; 101
    1f8e:	f6 4c       	sbci	r31, 0xC6	; 198
    1f90:	40 83       	st	Z, r20
    1f92:	51 83       	std	Z+1, r21	; 0x01
uint8_t SetStandardResponse(uint8_t custStrEnd){

    SetResponse(custStrEnd++, A_LF, 2, TEASER);
    SetResponse(custStrEnd++, A_LOCATION, L_LOCATION, TEASER);
    //SetResponse(custStrEnd++, A_SPACE, L_SPACE, TEASER);
    reactStr[0][custStrEnd++] = CURR_LOC;
    1f94:	e2 e0       	ldi	r30, 0x02	; 2
    1f96:	e8 0f       	add	r30, r24
    1f98:	f0 e0       	ldi	r31, 0x00	; 0
    1f9a:	ee 0f       	add	r30, r30
    1f9c:	ff 1f       	adc	r31, r31
    1f9e:	e5 5e       	subi	r30, 0xE5	; 229
    1fa0:	f6 4c       	sbci	r31, 0xC6	; 198
    1fa2:	20 ef       	ldi	r18, 0xF0	; 240
    1fa4:	3f ef       	ldi	r19, 0xFF	; 255
    1fa6:	20 83       	st	Z, r18
    1fa8:	31 83       	std	Z+1, r19	; 0x01
    return 0;
}

//
void SetResponse(uint8_t number, uint16_t address, uint16_t length, uint8_t type){
    reactStr[0][number]=address;
    1faa:	23 e0       	ldi	r18, 0x03	; 3
    1fac:	28 0f       	add	r18, r24
    1fae:	30 e0       	ldi	r19, 0x00	; 0
    1fb0:	f9 01       	movw	r30, r18
    1fb2:	ee 0f       	add	r30, r30
    1fb4:	ff 1f       	adc	r31, r31
    1fb6:	e5 5e       	subi	r30, 0xE5	; 229
    1fb8:	f6 4c       	sbci	r31, 0xC6	; 198
    1fba:	a0 83       	st	Z, r26
    1fbc:	b1 83       	std	Z+1, r27	; 0x01
    reactStr[1][number]=length;
    1fbe:	f9 01       	movw	r30, r18
    1fc0:	ee 0f       	add	r30, r30
    1fc2:	ff 1f       	adc	r31, r31
    1fc4:	e5 5a       	subi	r30, 0xA5	; 165
    1fc6:	f6 4c       	sbci	r31, 0xC6	; 198
    1fc8:	60 83       	st	Z, r22
    1fca:	71 83       	std	Z+1, r23	; 0x01
    reactStr[2][number]=type;
    1fcc:	22 0f       	add	r18, r18
    1fce:	33 1f       	adc	r19, r19
    1fd0:	f9 01       	movw	r30, r18
    1fd2:	e5 56       	subi	r30, 0x65	; 101
    1fd4:	f6 4c       	sbci	r31, 0xC6	; 198
    1fd6:	40 83       	st	Z, r20
    1fd8:	51 83       	std	Z+1, r21	; 0x01
    return 0;
}

//
void SetResponse(uint8_t number, uint16_t address, uint16_t length, uint8_t type){
    reactStr[0][number]=address;
    1fda:	24 e0       	ldi	r18, 0x04	; 4
    1fdc:	28 0f       	add	r18, r24
    1fde:	30 e0       	ldi	r19, 0x00	; 0
    1fe0:	f9 01       	movw	r30, r18
    1fe2:	ee 0f       	add	r30, r30
    1fe4:	ff 1f       	adc	r31, r31
    1fe6:	e5 5e       	subi	r30, 0xE5	; 229
    1fe8:	f6 4c       	sbci	r31, 0xC6	; 198
    1fea:	a7 e5       	ldi	r26, 0x57	; 87
    1fec:	ba e7       	ldi	r27, 0x7A	; 122
    1fee:	a0 83       	st	Z, r26
    1ff0:	b1 83       	std	Z+1, r27	; 0x01
    reactStr[1][number]=length;
    1ff2:	f9 01       	movw	r30, r18
    1ff4:	ee 0f       	add	r30, r30
    1ff6:	ff 1f       	adc	r31, r31
    1ff8:	e5 5a       	subi	r30, 0xA5	; 165
    1ffa:	f6 4c       	sbci	r31, 0xC6	; 198
    1ffc:	60 83       	st	Z, r22
    1ffe:	71 83       	std	Z+1, r23	; 0x01
    reactStr[2][number]=type;
    2000:	22 0f       	add	r18, r18
    2002:	33 1f       	adc	r19, r19
    2004:	f9 01       	movw	r30, r18
    2006:	e5 56       	subi	r30, 0x65	; 101
    2008:	f6 4c       	sbci	r31, 0xC6	; 198
    200a:	40 83       	st	Z, r20
    200c:	51 83       	std	Z+1, r21	; 0x01
    SetResponse(custStrEnd++, A_LF, 2, TEASER);
    SetResponse(custStrEnd++, A_PROMPT, L_PROMPT, TEASER);
    //SetResponse(custStrEnd++, A_SPACE, L_SPACE, TEASER);

    return custStrEnd;
}
    200e:	8b 5f       	subi	r24, 0xFB	; 251
    2010:	df 91       	pop	r29
    2012:	cf 91       	pop	r28
    2014:	08 95       	ret

00002016 <PopulateObject>:

//Get all the relevant data and string addresses of an object
void PopulateObject(uint16_t offset, object_model_t *object){
    2016:	af 92       	push	r10
    2018:	bf 92       	push	r11
    201a:	df 92       	push	r13
    201c:	ef 92       	push	r14
    201e:	ff 92       	push	r15
    2020:	0f 93       	push	r16
    2022:	1f 93       	push	r17
    2024:	cf 93       	push	r28
    2026:	df 93       	push	r29
    2028:	cd b7       	in	r28, 0x3d	; 61
    202a:	de b7       	in	r29, 0x3e	; 62
    202c:	2c 97       	sbiw	r28, 0x0c	; 12
    202e:	cd bf       	out	0x3d, r28	; 61
    2030:	de bf       	out	0x3e, r29	; 62
    2032:	7c 01       	movw	r14, r24
    2034:	8b 01       	movw	r16, r22
    uint16_t parStr;
    offset += L_BOILER;

    //Fill things with fixed distance to offset
    uint8_t data[OFF_STRINGFLDS];
    ExtEERead(offset, OFF_STRINGFLDS, GAME, &data[0]);
    2036:	9e 01       	movw	r18, r28
    2038:	2f 5f       	subi	r18, 0xFF	; 255
    203a:	3f 4f       	sbci	r19, 0xFF	; 255
    203c:	40 e0       	ldi	r20, 0x00	; 0
    203e:	6c e0       	ldi	r22, 0x0C	; 12
    2040:	80 96       	adiw	r24, 0x20	; 32
    2042:	de de       	rcall	.-580    	; 0x1e00 <ExtEERead>
    object->addrNextObj = (data[OFF_NEXTOBJ]<<8|data[OFF_NEXTOBJ+1])+L_BOILER;
    2044:	89 81       	ldd	r24, Y+1	; 0x01
    2046:	9a 81       	ldd	r25, Y+2	; 0x02
    2048:	98 27       	eor	r25, r24
    204a:	89 27       	eor	r24, r25
    204c:	98 27       	eor	r25, r24
    204e:	80 96       	adiw	r24, 0x20	; 32
    2050:	f8 01       	movw	r30, r16
    2052:	80 83       	st	Z, r24
    2054:	91 83       	std	Z+1, r25	; 0x01
    object->addrNextLvl = (data[OFF_NEXTLVL]<<8|data[OFF_NEXTLVL+1])+L_BOILER;
    2056:	8b 81       	ldd	r24, Y+3	; 0x03
    2058:	9c 81       	ldd	r25, Y+4	; 0x04
    205a:	98 27       	eor	r25, r24
    205c:	89 27       	eor	r24, r25
    205e:	98 27       	eor	r25, r24
    2060:	80 96       	adiw	r24, 0x20	; 32
    2062:	82 83       	std	Z+2, r24	; 0x02
    2064:	93 83       	std	Z+3, r25	; 0x03
    2066:	de 01       	movw	r26, r28
    2068:	15 96       	adiw	r26, 0x05	; 5
    206a:	34 96       	adiw	r30, 0x04	; 4
    206c:	c8 01       	movw	r24, r16
    206e:	0c 96       	adiw	r24, 0x0c	; 12
    for (uint8_t x=0; x<BYTE_FIELDS_LEN; ++x){
        object->byteField[x]=data[x+OFF_BYTEFLDS];
    2070:	2d 91       	ld	r18, X+
    2072:	21 93       	st	Z+, r18
    //Fill things with fixed distance to offset
    uint8_t data[OFF_STRINGFLDS];
    ExtEERead(offset, OFF_STRINGFLDS, GAME, &data[0]);
    object->addrNextObj = (data[OFF_NEXTOBJ]<<8|data[OFF_NEXTOBJ+1])+L_BOILER;
    object->addrNextLvl = (data[OFF_NEXTLVL]<<8|data[OFF_NEXTLVL+1])+L_BOILER;
    for (uint8_t x=0; x<BYTE_FIELDS_LEN; ++x){
    2074:	e8 17       	cp	r30, r24
    2076:	f9 07       	cpc	r31, r25
    2078:	d9 f7       	brne	.-10     	; 0x2070 <PopulateObject+0x5a>
        object->byteField[x]=data[x+OFF_BYTEFLDS];
    }

    //Find out where all of the strings begin and how long they are
    offset += OFF_STRINGFLDS;
    207a:	fc e2       	ldi	r31, 0x2C	; 44
    207c:	ef 0e       	add	r14, r31
    207e:	f1 1c       	adc	r15, r1
    2080:	58 01       	movw	r10, r16
    for(uint8_t x=0; x<STRING_FIELDS_LEN; ++x){
    2082:	d1 2c       	mov	r13, r1
        
        //Determine length
        ExtEERead(offset, 3, GAME, &data[0]);
    2084:	9e 01       	movw	r18, r28
    2086:	2f 5f       	subi	r18, 0xFF	; 255
    2088:	3f 4f       	sbci	r19, 0xFF	; 255
    208a:	40 e0       	ldi	r20, 0x00	; 0
    208c:	63 e0       	ldi	r22, 0x03	; 3
    208e:	c7 01       	movw	r24, r14
    2090:	b7 de       	rcall	.-658    	; 0x1e00 <ExtEERead>
    2092:	89 81       	ldd	r24, Y+1	; 0x01
    2094:	9a 81       	ldd	r25, Y+2	; 0x02
    2096:	98 27       	eor	r25, r24
    2098:	89 27       	eor	r24, r25
    209a:	98 27       	eor	r25, r24
        parStr = (data[0]<<8|data[1]);
        offset += 2;
    209c:	97 01       	movw	r18, r14
    209e:	2e 5f       	subi	r18, 0xFE	; 254
    20a0:	3f 4f       	sbci	r19, 0xFF	; 255
        if (x >= OPEN_ACL_MSG){
    20a2:	43 e0       	ldi	r20, 0x03	; 3
    20a4:	4d 15       	cp	r20, r13
    20a6:	80 f4       	brcc	.+32     	; 0x20c8 <PopulateObject+0xb2>
            object->lenStr[x]= parStr-1;
    20a8:	ac 01       	movw	r20, r24
    20aa:	41 50       	subi	r20, 0x01	; 1
    20ac:	51 09       	sbc	r21, r1
    20ae:	f8 01       	movw	r30, r16
    20b0:	42 8f       	std	Z+26, r20	; 0x1a
    20b2:	53 8f       	std	Z+27, r21	; 0x1b
            object->addrStr[x]=offset+1;
    20b4:	f3 e0       	ldi	r31, 0x03	; 3
    20b6:	ef 0e       	add	r14, r31
    20b8:	f1 1c       	adc	r15, r1
    20ba:	f8 01       	movw	r30, r16
    20bc:	e4 86       	std	Z+12, r14	; 0x0c
    20be:	f5 86       	std	Z+13, r15	; 0x0d
            object->effect[x-OPEN_ACL_MSG] = data[2];
    20c0:	4b 81       	ldd	r20, Y+3	; 0x03
    20c2:	f5 01       	movw	r30, r10
    20c4:	44 a3       	std	Z+36, r20	; 0x24
    20c6:	05 c0       	rjmp	.+10     	; 0x20d2 <PopulateObject+0xbc>
        } else {
            object->lenStr[x]= parStr;
    20c8:	f8 01       	movw	r30, r16
    20ca:	82 8f       	std	Z+26, r24	; 0x1a
    20cc:	93 8f       	std	Z+27, r25	; 0x1b
            object->addrStr[x]=offset;
    20ce:	24 87       	std	Z+12, r18	; 0x0c
    20d0:	35 87       	std	Z+13, r19	; 0x0d
        }
        
        //Determine string start location for next field
        offset += parStr;
    20d2:	7c 01       	movw	r14, r24
    20d4:	e2 0e       	add	r14, r18
    20d6:	f3 1e       	adc	r15, r19
        object->byteField[x]=data[x+OFF_BYTEFLDS];
    }

    //Find out where all of the strings begin and how long they are
    offset += OFF_STRINGFLDS;
    for(uint8_t x=0; x<STRING_FIELDS_LEN; ++x){
    20d8:	d3 94       	inc	r13
    20da:	0e 5f       	subi	r16, 0xFE	; 254
    20dc:	1f 4f       	sbci	r17, 0xFF	; 255
    20de:	ff ef       	ldi	r31, 0xFF	; 255
    20e0:	af 1a       	sub	r10, r31
    20e2:	bf 0a       	sbc	r11, r31
    20e4:	47 e0       	ldi	r20, 0x07	; 7
    20e6:	d4 12       	cpse	r13, r20
    20e8:	cd cf       	rjmp	.-102    	; 0x2084 <PopulateObject+0x6e>
        }
        
        //Determine string start location for next field
        offset += parStr;
    }    
}
    20ea:	2c 96       	adiw	r28, 0x0c	; 12
    20ec:	cd bf       	out	0x3d, r28	; 61
    20ee:	de bf       	out	0x3e, r29	; 62
    20f0:	df 91       	pop	r29
    20f2:	cf 91       	pop	r28
    20f4:	1f 91       	pop	r17
    20f6:	0f 91       	pop	r16
    20f8:	ff 90       	pop	r15
    20fa:	ef 90       	pop	r14
    20fc:	df 90       	pop	r13
    20fe:	bf 90       	pop	r11
    2100:	af 90       	pop	r10
    2102:	08 95       	ret

00002104 <CheckLetter>:

//Check if the entered letter corresponds with a name
uint8_t CheckLetter(uint16_t object, uint8_t letter){
    2104:	cf 92       	push	r12
    2106:	df 92       	push	r13
    2108:	ef 92       	push	r14
    210a:	ff 92       	push	r15
    210c:	0f 93       	push	r16
    210e:	1f 93       	push	r17
    2110:	cf 93       	push	r28
    2112:	df 93       	push	r29
    2114:	cd b7       	in	r28, 0x3d	; 61
    2116:	de b7       	in	r29, 0x3e	; 62
    2118:	a0 97       	sbiw	r28, 0x20	; 32
    211a:	cd bf       	out	0x3d, r28	; 61
    211c:	de bf       	out	0x3e, r29	; 62
    211e:	c6 2e       	mov	r12, r22
    
    uint8_t found = 0;
    uint8_t data[32];

    object += L_BOILER;
    2120:	7c 01       	movw	r14, r24
    2122:	20 e2       	ldi	r18, 0x20	; 32
    2124:	e2 0e       	add	r14, r18
    2126:	f1 1c       	adc	r15, r1
    ExtEERead(object+OFF_STRINGFLDS, 2, GAME, &data[0]);
    2128:	9e 01       	movw	r18, r28
    212a:	2f 5f       	subi	r18, 0xFF	; 255
    212c:	3f 4f       	sbci	r19, 0xFF	; 255
    212e:	40 e0       	ldi	r20, 0x00	; 0
    2130:	62 e0       	ldi	r22, 0x02	; 2
    2132:	8c 96       	adiw	r24, 0x2c	; 44
    2134:	65 de       	rcall	.-822    	; 0x1e00 <ExtEERead>
    uint8_t x = data[1]; //Assuming a name is not longer than 255 characters.
    2136:	1a 81       	ldd	r17, Y+2	; 0x02
}

//Check if the entered letter corresponds with a name
uint8_t CheckLetter(uint16_t object, uint8_t letter){
    
    uint8_t found = 0;
    2138:	d1 2c       	mov	r13, r1

    object += L_BOILER;
    ExtEERead(object+OFF_STRINGFLDS, 2, GAME, &data[0]);
    uint8_t x = data[1]; //Assuming a name is not longer than 255 characters.

    while (x){
    213a:	11 23       	and	r17, r17
    213c:	51 f1       	breq	.+84     	; 0x2192 <CheckLetter+0x8e>
    213e:	01 2f       	mov	r16, r17
    2140:	11 32       	cpi	r17, 0x21	; 33
    2142:	08 f0       	brcs	.+2      	; 0x2146 <CheckLetter+0x42>
    2144:	00 e2       	ldi	r16, 0x20	; 32
        uint8_t max;
        if (x>32) max = 32; else max = x;
        ExtEERead(object+OFF_STRINGFLDS+2, max, GAME, &data[0]);
    2146:	9e 01       	movw	r18, r28
    2148:	2f 5f       	subi	r18, 0xFF	; 255
    214a:	3f 4f       	sbci	r19, 0xFF	; 255
    214c:	40 e0       	ldi	r20, 0x00	; 0
    214e:	60 2f       	mov	r22, r16
    2150:	c7 01       	movw	r24, r14
    2152:	0e 96       	adiw	r24, 0x0e	; 14
    2154:	55 de       	rcall	.-854    	; 0x1e00 <ExtEERead>
    2156:	fe 01       	movw	r30, r28
    2158:	31 96       	adiw	r30, 0x01	; 1
        for (uint8_t y=0; y<max; ++y){
    215a:	80 e0       	ldi	r24, 0x00	; 0
            if (found){
    215c:	dd 20       	and	r13, r13
    215e:	61 f0       	breq	.+24     	; 0x2178 <CheckLetter+0x74>
                if ((data[y]|0x20) == letter) return 1; else return 0;
    2160:	e1 e0       	ldi	r30, 0x01	; 1
    2162:	f0 e0       	ldi	r31, 0x00	; 0
    2164:	ec 0f       	add	r30, r28
    2166:	fd 1f       	adc	r31, r29
    2168:	e8 0f       	add	r30, r24
    216a:	f1 1d       	adc	r31, r1
    216c:	90 81       	ld	r25, Z
    216e:	90 62       	ori	r25, 0x20	; 32
    2170:	81 e0       	ldi	r24, 0x01	; 1
    2172:	9c 11       	cpse	r25, r12
    2174:	0e c0       	rjmp	.+28     	; 0x2192 <CheckLetter+0x8e>
    2176:	0e c0       	rjmp	.+28     	; 0x2194 <CheckLetter+0x90>
            }
            if (data[y] == '[') found = 1;
    2178:	91 91       	ld	r25, Z+
    217a:	dd 24       	eor	r13, r13
    217c:	d3 94       	inc	r13
    217e:	9b 35       	cpi	r25, 0x5B	; 91
    2180:	09 f0       	breq	.+2      	; 0x2184 <CheckLetter+0x80>
    2182:	d1 2c       	mov	r13, r1

    while (x){
        uint8_t max;
        if (x>32) max = 32; else max = x;
        ExtEERead(object+OFF_STRINGFLDS+2, max, GAME, &data[0]);
        for (uint8_t y=0; y<max; ++y){
    2184:	8f 5f       	subi	r24, 0xFF	; 255
    2186:	80 17       	cp	r24, r16
    2188:	48 f3       	brcs	.-46     	; 0x215c <CheckLetter+0x58>
            if (found){
                if ((data[y]|0x20) == letter) return 1; else return 0;
            }
            if (data[y] == '[') found = 1;
        }
        object += max;
    218a:	e0 0e       	add	r14, r16
    218c:	f1 1c       	adc	r15, r1
        x -= max;
    218e:	10 1b       	sub	r17, r16
    2190:	d4 cf       	rjmp	.-88     	; 0x213a <CheckLetter+0x36>
    }
    return 0;
    2192:	80 e0       	ldi	r24, 0x00	; 0
}
    2194:	a0 96       	adiw	r28, 0x20	; 32
    2196:	cd bf       	out	0x3d, r28	; 61
    2198:	de bf       	out	0x3e, r29	; 62
    219a:	df 91       	pop	r29
    219c:	cf 91       	pop	r28
    219e:	1f 91       	pop	r17
    21a0:	0f 91       	pop	r16
    21a2:	ff 90       	pop	r15
    21a4:	ef 90       	pop	r14
    21a6:	df 90       	pop	r13
    21a8:	cf 90       	pop	r12
    21aa:	08 95       	ret

000021ac <FindChild>:

//Returns the child's address if the child is visible and the search letter matches
uint16_t FindChild(uint16_t parent, uint8_t letter, uint16_t start){
    21ac:	af 92       	push	r10
    21ae:	bf 92       	push	r11
    21b0:	df 92       	push	r13
    21b2:	ef 92       	push	r14
    21b4:	ff 92       	push	r15
    21b6:	0f 93       	push	r16
    21b8:	1f 93       	push	r17
    21ba:	cf 93       	push	r28
    21bc:	df 93       	push	r29
    21be:	00 d0       	rcall	.+0      	; 0x21c0 <FindChild+0x14>
    21c0:	00 d0       	rcall	.+0      	; 0x21c2 <FindChild+0x16>
    21c2:	cd b7       	in	r28, 0x3d	; 61
    21c4:	de b7       	in	r29, 0x3e	; 62
    21c6:	d6 2e       	mov	r13, r22
    21c8:	5a 01       	movw	r10, r20
    
    uint16_t child = parent;
    uint8_t data[4];

    ExtEERead(child+L_BOILER, 4, GAME, &data[0]);
    21ca:	9e 01       	movw	r18, r28
    21cc:	2f 5f       	subi	r18, 0xFF	; 255
    21ce:	3f 4f       	sbci	r19, 0xFF	; 255
    21d0:	40 e0       	ldi	r20, 0x00	; 0
    21d2:	64 e0       	ldi	r22, 0x04	; 4
    21d4:	80 96       	adiw	r24, 0x20	; 32
    21d6:	14 de       	rcall	.-984    	; 0x1e00 <ExtEERead>
    21d8:	e9 80       	ldd	r14, Y+1	; 0x01
    21da:	fa 80       	ldd	r15, Y+2	; 0x02
    21dc:	fe 24       	eor	r15, r14
    21de:	ef 24       	eor	r14, r15
    21e0:	fe 24       	eor	r15, r14
    21e2:	0b 81       	ldd	r16, Y+3	; 0x03
    21e4:	1c 81       	ldd	r17, Y+4	; 0x04
    21e6:	10 27       	eor	r17, r16
    21e8:	01 27       	eor	r16, r17
    21ea:	10 27       	eor	r17, r16
    parent = (data[0]<<8|data[1]);    //Next object on parent level
    child =  (data[2]<<8|data[3]);    //First object on child level

    //As long as the child is within the parent's range
    while (parent>child){
    21ec:	0e 15       	cp	r16, r14
    21ee:	1f 05       	cpc	r17, r15
    21f0:	30 f5       	brcc	.+76     	; 0x223e <FindChild+0x92>

        //If child's address is higher than the start address, perform search for letter
        if (child>start){
    21f2:	a0 16       	cp	r10, r16
    21f4:	b1 06       	cpc	r11, r17
    21f6:	58 f0       	brcs	.+22     	; 0x220e <FindChild+0x62>
                if ((letter == 0)||(CheckLetter(child, letter))) return child;
            }
        }

        //Not visible or name not right
        ExtEERead(child+L_BOILER, 2, GAME, &data[0]);
    21f8:	9e 01       	movw	r18, r28
    21fa:	2f 5f       	subi	r18, 0xFF	; 255
    21fc:	3f 4f       	sbci	r19, 0xFF	; 255
    21fe:	40 e0       	ldi	r20, 0x00	; 0
    2200:	62 e0       	ldi	r22, 0x02	; 2
    2202:	c8 01       	movw	r24, r16
    2204:	80 96       	adiw	r24, 0x20	; 32
    2206:	fc dd       	rcall	.-1032   	; 0x1e00 <ExtEERead>
    2208:	09 81       	ldd	r16, Y+1	; 0x01
    220a:	1a 81       	ldd	r17, Y+2	; 0x02
    220c:	ec cf       	rjmp	.-40     	; 0x21e6 <FindChild+0x3a>
    //As long as the child is within the parent's range
    while (parent>child){

        //If child's address is higher than the start address, perform search for letter
        if (child>start){
            ExtEERead(child+OFF_BYTEFLDS+VISIBLE_ACL+L_BOILER, 1, GAME, &data[0]);
    220e:	9e 01       	movw	r18, r28
    2210:	2f 5f       	subi	r18, 0xFF	; 255
    2212:	3f 4f       	sbci	r19, 0xFF	; 255
    2214:	40 e0       	ldi	r20, 0x00	; 0
    2216:	61 e0       	ldi	r22, 0x01	; 1
    2218:	c8 01       	movw	r24, r16
    221a:	85 96       	adiw	r24, 0x25	; 37
    221c:	f1 dd       	rcall	.-1054   	; 0x1e00 <ExtEERead>
            if ((data[0] == 0)||(CheckState(data[0]))) {
    221e:	89 81       	ldd	r24, Y+1	; 0x01
    2220:	81 11       	cpse	r24, r1
    2222:	03 c0       	rjmp	.+6      	; 0x222a <FindChild+0x7e>
                if ((letter == 0)||(CheckLetter(child, letter))) return child;
    2224:	d1 10       	cpse	r13, r1
    2226:	05 c0       	rjmp	.+10     	; 0x2232 <FindChild+0x86>
    while (parent>child){

        //If child's address is higher than the start address, perform search for letter
        if (child>start){
            ExtEERead(child+OFF_BYTEFLDS+VISIBLE_ACL+L_BOILER, 1, GAME, &data[0]);
            if ((data[0] == 0)||(CheckState(data[0]))) {
    2228:	0d c0       	rjmp	.+26     	; 0x2244 <FindChild+0x98>
    222a:	8f d9       	rcall	.-3298   	; 0x154a <CheckState>
    222c:	81 11       	cpse	r24, r1
    222e:	fa cf       	rjmp	.-12     	; 0x2224 <FindChild+0x78>
                if ((letter == 0)||(CheckLetter(child, letter))) return child;
    2230:	e3 cf       	rjmp	.-58     	; 0x21f8 <FindChild+0x4c>
    2232:	6d 2d       	mov	r22, r13
    2234:	c8 01       	movw	r24, r16
    2236:	66 df       	rcall	.-308    	; 0x2104 <CheckLetter>
    2238:	88 23       	and	r24, r24
    223a:	f1 f2       	breq	.-68     	; 0x21f8 <FindChild+0x4c>
    223c:	03 c0       	rjmp	.+6      	; 0x2244 <FindChild+0x98>

        //Not visible or name not right
        ExtEERead(child+L_BOILER, 2, GAME, &data[0]);
        child = (data[0]<<8|data[1]);    //Next object on child level
        
    } return 0;
    223e:	80 e0       	ldi	r24, 0x00	; 0
    2240:	90 e0       	ldi	r25, 0x00	; 0
    2242:	01 c0       	rjmp	.+2      	; 0x2246 <FindChild+0x9a>
    2244:	c8 01       	movw	r24, r16
}
    2246:	24 96       	adiw	r28, 0x04	; 4
    2248:	cd bf       	out	0x3d, r28	; 61
    224a:	de bf       	out	0x3e, r29	; 62
    224c:	df 91       	pop	r29
    224e:	cf 91       	pop	r28
    2250:	1f 91       	pop	r17
    2252:	0f 91       	pop	r16
    2254:	ff 90       	pop	r15
    2256:	ef 90       	pop	r14
    2258:	df 90       	pop	r13
    225a:	bf 90       	pop	r11
    225c:	af 90       	pop	r10
    225e:	08 95       	ret

00002260 <InpOkChk>:

//Allow only a(A) to z(Z) and 0 to 9 as input
uint8_t InpOkChk(uint8_t test){
    test |= 0x20;
    2260:	80 62       	ori	r24, 0x20	; 32
    if ((test>='a')&&(test<='z')) return 1;
    2262:	9f e9       	ldi	r25, 0x9F	; 159
    2264:	98 0f       	add	r25, r24
    2266:	9a 31       	cpi	r25, 0x1A	; 26
    2268:	38 f0       	brcs	.+14     	; 0x2278 <InpOkChk+0x18>
    226a:	90 ed       	ldi	r25, 0xD0	; 208
    226c:	98 0f       	add	r25, r24
    226e:	81 e0       	ldi	r24, 0x01	; 1
    2270:	9a 30       	cpi	r25, 0x0A	; 10
    2272:	18 f0       	brcs	.+6      	; 0x227a <InpOkChk+0x1a>
    2274:	80 e0       	ldi	r24, 0x00	; 0
    2276:	08 95       	ret
    2278:	81 e0       	ldi	r24, 0x01	; 1
    if ((test>='0')&&(test<='9')) return 1;
    return 0;
}
    227a:	08 95       	ret

0000227c <CleanInput>:

//Cleans input of garbage and returns length of cleaned input "o->d2  !\0" becomes "od2\0"
uint8_t CleanInput(uint8_t *data){
    227c:	0f 93       	push	r16
    227e:	1f 93       	push	r17
    2280:	cf 93       	push	r28
    2282:	df 93       	push	r29
    2284:	8c 01       	movw	r16, r24
    uint8_t cnt = 0;
    for (uint8_t x=0; data[x]!=0; ++x){
    2286:	d0 e0       	ldi	r29, 0x00	; 0
    return 0;
}

//Cleans input of garbage and returns length of cleaned input "o->d2  !\0" becomes "od2\0"
uint8_t CleanInput(uint8_t *data){
    uint8_t cnt = 0;
    2288:	c0 e0       	ldi	r28, 0x00	; 0
    for (uint8_t x=0; data[x]!=0; ++x){
    228a:	f8 01       	movw	r30, r16
    228c:	ed 0f       	add	r30, r29
    228e:	f1 1d       	adc	r31, r1
    2290:	20 81       	ld	r18, Z
    2292:	8c 2f       	mov	r24, r28
    2294:	90 e0       	ldi	r25, 0x00	; 0
    2296:	22 23       	and	r18, r18
    2298:	51 f0       	breq	.+20     	; 0x22ae <CleanInput+0x32>
        data[cnt] = data[x];
    229a:	d8 01       	movw	r26, r16
    229c:	a8 0f       	add	r26, r24
    229e:	b9 1f       	adc	r27, r25
    22a0:	2c 93       	st	X, r18
        if (InpOkChk(data[x])) ++cnt;
    22a2:	80 81       	ld	r24, Z
    22a4:	dd df       	rcall	.-70     	; 0x2260 <InpOkChk>
    22a6:	81 11       	cpse	r24, r1
    22a8:	cf 5f       	subi	r28, 0xFF	; 255
}

//Cleans input of garbage and returns length of cleaned input "o->d2  !\0" becomes "od2\0"
uint8_t CleanInput(uint8_t *data){
    uint8_t cnt = 0;
    for (uint8_t x=0; data[x]!=0; ++x){
    22aa:	df 5f       	subi	r29, 0xFF	; 255
    22ac:	ee cf       	rjmp	.-36     	; 0x228a <CleanInput+0xe>
        data[cnt] = data[x];
        if (InpOkChk(data[x])) ++cnt;
    }
    data[cnt] = 0;
    22ae:	f8 01       	movw	r30, r16
    22b0:	e8 0f       	add	r30, r24
    22b2:	f9 1f       	adc	r31, r25
    22b4:	10 82       	st	Z, r1
    return cnt;
}
    22b6:	8c 2f       	mov	r24, r28
    22b8:	df 91       	pop	r29
    22ba:	cf 91       	pop	r28
    22bc:	1f 91       	pop	r17
    22be:	0f 91       	pop	r16
    22c0:	08 95       	ret

000022c2 <CheckSend>:

//Send routine, optimized for low memory usage
uint8_t CheckSend(){
    22c2:	cf 93       	push	r28
    static uint8_t txPart;
    uint8_t EEreadLength=0;

    //Play effects if available and not already playing
    if (effect == 0){
    22c4:	80 91 3a 38 	lds	r24, 0x383A	; 0x80383a <effect>
    22c8:	90 91 3b 38 	lds	r25, 0x383B	; 0x80383b <effect+0x1>
    22cc:	89 2b       	or	r24, r25
    22ce:	99 f4       	brne	.+38     	; 0x22f6 <CheckSend+0x34>
        effect = currObj.byteField[EFFECTS];
    22d0:	80 91 1f 3a 	lds	r24, 0x3A1F	; 0x803a1f <currObj+0x4>
    22d4:	90 e0       	ldi	r25, 0x00	; 0
    22d6:	80 93 3a 38 	sts	0x383A, r24	; 0x80383a <effect>
    22da:	90 93 3b 38 	sts	0x383B, r25	; 0x80383b <effect+0x1>
        auStart = ((effect&0xE0)>0);
    22de:	80 91 3a 38 	lds	r24, 0x383A	; 0x80383a <effect>
    22e2:	90 91 3b 38 	lds	r25, 0x383B	; 0x80383b <effect+0x1>
    22e6:	80 7e       	andi	r24, 0xE0	; 224
    22e8:	99 27       	eor	r25, r25
    22ea:	21 e0       	ldi	r18, 0x01	; 1
    22ec:	89 2b       	or	r24, r25
    22ee:	09 f4       	brne	.+2      	; 0x22f2 <CheckSend+0x30>
    22f0:	20 e0       	ldi	r18, 0x00	; 0
    22f2:	20 93 39 38 	sts	0x3839, r18	; 0x803839 <auStart>
    }

    //Check if more string(part)s have to be sent to the serial output if previous send operation is completed
    if ((txAddrNow < TXLISTLEN) && serTxDone){
    22f6:	20 91 47 3a 	lds	r18, 0x3A47	; 0x803a47 <txAddrNow>
    22fa:	28 30       	cpi	r18, 0x08	; 8
    22fc:	08 f0       	brcs	.+2      	; 0x2300 <CheckSend+0x3e>
    22fe:	48 c0       	rjmp	.+144    	; 0x2390 <CheckSend+0xce>
    2300:	80 91 0a 38 	lds	r24, 0x380A	; 0x80380a <serTxDone>
    2304:	88 23       	and	r24, r24
    2306:	09 f4       	brne	.+2      	; 0x230a <CheckSend+0x48>
    2308:	43 c0       	rjmp	.+134    	; 0x2390 <CheckSend+0xce>
        if (txStrLen[txAddrNow] == 0){
    230a:	82 2f       	mov	r24, r18
    230c:	90 e0       	ldi	r25, 0x00	; 0
    230e:	fc 01       	movw	r30, r24
    2310:	e8 5b       	subi	r30, 0xB8	; 184
    2312:	f5 4c       	sbci	r31, 0xC5	; 197
    2314:	e0 81       	ld	r30, Z
    2316:	e1 11       	cpse	r30, r1
    2318:	06 c0       	rjmp	.+12     	; 0x2326 <CheckSend+0x64>
            txPart = 0;
    231a:	10 92 06 39 	sts	0x3906, r1	; 0x803906 <txPart.3947>
            txAddrNow = TXLISTLEN;
    231e:	88 e0       	ldi	r24, 0x08	; 8
    2320:	80 93 47 3a 	sts	0x3A47, r24	; 0x803a47 <txAddrNow>
    2324:	2d c0       	rjmp	.+90     	; 0x2380 <CheckSend+0xbe>
        } else if (txPart < txStrLen[txAddrNow]){
    2326:	50 91 06 39 	lds	r21, 0x3906	; 0x803906 <txPart.3947>
    232a:	5e 17       	cp	r21, r30
    232c:	58 f5       	brcc	.+86     	; 0x2384 <CheckSend+0xc2>
            EEreadLength = txStrLen[txAddrNow]-txPart;
    232e:	ce 2f       	mov	r28, r30
    2330:	c5 1b       	sub	r28, r21
    2332:	c1 32       	cpi	r28, 0x21	; 33
    2334:	08 f0       	brcs	.+2      	; 0x2338 <CheckSend+0x76>
    2336:	c0 e2       	ldi	r28, 0x20	; 32
            if (EEreadLength>=TXLEN) EEreadLength = TXLEN-1;
            ExtEERead(txAddrList[txAddrNow]+txPart, EEreadLength, txTypeNow, &txBuffer[0]);
    2338:	88 0f       	add	r24, r24
    233a:	99 1f       	adc	r25, r25
    233c:	fc 01       	movw	r30, r24
    233e:	e0 5b       	subi	r30, 0xB0	; 176
    2340:	f5 4c       	sbci	r31, 0xC5	; 197
    2342:	80 81       	ld	r24, Z
    2344:	91 81       	ldd	r25, Z+1	; 0x01
    2346:	29 ef       	ldi	r18, 0xF9	; 249
    2348:	3a e3       	ldi	r19, 0x3A	; 58
    234a:	40 91 46 3a 	lds	r20, 0x3A46	; 0x803a46 <txTypeNow>
    234e:	6c 2f       	mov	r22, r28
    2350:	85 0f       	add	r24, r21
    2352:	91 1d       	adc	r25, r1
    2354:	55 dd       	rcall	.-1366   	; 0x1e00 <ExtEERead>
            txPart += EEreadLength;
    2356:	80 91 06 39 	lds	r24, 0x3906	; 0x803906 <txPart.3947>
    235a:	8c 0f       	add	r24, r28
    235c:	80 93 06 39 	sts	0x3906, r24	; 0x803906 <txPart.3947>
            txBuffer[EEreadLength] = 0; //Add string terminator after piece to send to plug memory leak
    2360:	ec 2f       	mov	r30, r28
    2362:	f0 e0       	ldi	r31, 0x00	; 0
    2364:	e7 50       	subi	r30, 0x07	; 7
    2366:	f5 4c       	sbci	r31, 0xC5	; 197
    2368:	10 82       	st	Z, r1
            if ((txBuffer[0] == 0) && (EEreadLength)) txBuffer[0] = 0xDB; //Block character when data wrong.
    236a:	80 91 f9 3a 	lds	r24, 0x3AF9	; 0x803af9 <txBuffer>
    236e:	81 11       	cpse	r24, r1
    2370:	03 c0       	rjmp	.+6      	; 0x2378 <CheckSend+0xb6>
    2372:	8b ed       	ldi	r24, 0xDB	; 219
    2374:	80 93 f9 3a 	sts	0x3AF9, r24	; 0x803af9 <txBuffer>
            SerSend(&txBuffer[0]);
    2378:	89 ef       	ldi	r24, 0xF9	; 249
    237a:	9a e3       	ldi	r25, 0x3A	; 58
    237c:	0e 94 db 08 	call	0x11b6	; 0x11b6 <SerSend>
        } else {
            txPart = 0;
            ++txAddrNow;
        }
    } else if (serTxDone) return 0; //All is sent!
    return 1; //Still sending, do not change the data in the tx variables
    2380:	81 e0       	ldi	r24, 0x01	; 1
    2382:	0b c0       	rjmp	.+22     	; 0x239a <CheckSend+0xd8>
            txPart += EEreadLength;
            txBuffer[EEreadLength] = 0; //Add string terminator after piece to send to plug memory leak
            if ((txBuffer[0] == 0) && (EEreadLength)) txBuffer[0] = 0xDB; //Block character when data wrong.
            SerSend(&txBuffer[0]);
        } else {
            txPart = 0;
    2384:	10 92 06 39 	sts	0x3906, r1	; 0x803906 <txPart.3947>
            ++txAddrNow;
    2388:	2f 5f       	subi	r18, 0xFF	; 255
    238a:	20 93 47 3a 	sts	0x3A47, r18	; 0x803a47 <txAddrNow>
    238e:	f8 cf       	rjmp	.-16     	; 0x2380 <CheckSend+0xbe>
        }
    } else if (serTxDone) return 0; //All is sent!
    2390:	90 91 0a 38 	lds	r25, 0x380A	; 0x80380a <serTxDone>
    2394:	81 e0       	ldi	r24, 0x01	; 1
    2396:	91 11       	cpse	r25, r1
    2398:	80 e0       	ldi	r24, 0x00	; 0
    return 1; //Still sending, do not change the data in the tx variables
}
    239a:	cf 91       	pop	r28
    239c:	08 95       	ret

0000239e <CheckResponse>:

//Send another part of the response and play the effect afterwards
uint8_t CheckResponse(){
    239e:	cf 93       	push	r28
    23a0:	df 93       	push	r29
    static uint8_t number = 0;
    if (responseList){
    23a2:	c0 91 1a 39 	lds	r28, 0x391A	; 0x80391a <responseList>
    23a6:	cc 23       	and	r28, r28
    23a8:	e9 f1       	breq	.+122    	; 0x2424 <CheckResponse+0x86>
        --responseList;
    23aa:	c1 50       	subi	r28, 0x01	; 1
    23ac:	c0 93 1a 39 	sts	0x391A, r28	; 0x80391a <responseList>
        if (reactStr[0][number] == CURR_LOC) {
    23b0:	d0 91 05 39 	lds	r29, 0x3905	; 0x803905 <number.3951>
    23b4:	2d 2f       	mov	r18, r29
    23b6:	30 e0       	ldi	r19, 0x00	; 0
    23b8:	f9 01       	movw	r30, r18
    23ba:	ee 0f       	add	r30, r30
    23bc:	ff 1f       	adc	r31, r31
    23be:	e5 5e       	subi	r30, 0xE5	; 229
    23c0:	f6 4c       	sbci	r31, 0xC6	; 198
    23c2:	80 81       	ld	r24, Z
    23c4:	91 81       	ldd	r25, Z+1	; 0x01
    23c6:	80 3f       	cpi	r24, 0xF0	; 240
    23c8:	4f ef       	ldi	r20, 0xFF	; 255
    23ca:	94 07       	cpc	r25, r20
    23cc:	51 f4       	brne	.+20     	; 0x23e2 <CheckResponse+0x44>
            PrepareSending(currObj.addrStr[NAME], currObj.lenStr[NAME], GAME);
    23ce:	60 91 35 3a 	lds	r22, 0x3A35	; 0x803a35 <currObj+0x1a>
    23d2:	70 91 36 3a 	lds	r23, 0x3A36	; 0x803a36 <currObj+0x1b>
    23d6:	40 e0       	ldi	r20, 0x00	; 0
    23d8:	80 91 27 3a 	lds	r24, 0x3A27	; 0x803a27 <currObj+0xc>
    23dc:	90 91 28 3a 	lds	r25, 0x3A28	; 0x803a28 <currObj+0xd>
    23e0:	0d c0       	rjmp	.+26     	; 0x23fc <CheckResponse+0x5e>
        } else {
            PrepareSending(reactStr[0][number], reactStr[1][number], reactStr[2][number]);
    23e2:	d9 01       	movw	r26, r18
    23e4:	aa 0f       	add	r26, r26
    23e6:	bb 1f       	adc	r27, r27
    23e8:	a5 56       	subi	r26, 0x65	; 101
    23ea:	b6 4c       	sbci	r27, 0xC6	; 198
    23ec:	22 0f       	add	r18, r18
    23ee:	33 1f       	adc	r19, r19
    23f0:	f9 01       	movw	r30, r18
    23f2:	e5 5a       	subi	r30, 0xA5	; 165
    23f4:	f6 4c       	sbci	r31, 0xC6	; 198
    23f6:	60 81       	ld	r22, Z
    23f8:	71 81       	ldd	r23, Z+1	; 0x01
    23fa:	4c 91       	ld	r20, X
    23fc:	58 dd       	rcall	.-1360   	; 0x1eae <PrepareSending>
        }
        ++number;
    23fe:	df 5f       	subi	r29, 0xFF	; 255
    2400:	d0 93 05 39 	sts	0x3905, r29	; 0x803905 <number.3951>

        if (responseList == 0) {
    2404:	c1 11       	cpse	r28, r1
    2406:	0d c0       	rjmp	.+26     	; 0x2422 <CheckResponse+0x84>
            effect = currObj.byteField[EFFECTS];
    2408:	80 91 1f 3a 	lds	r24, 0x3A1F	; 0x803a1f <currObj+0x4>
    240c:	90 e0       	ldi	r25, 0x00	; 0
    240e:	80 93 3a 38 	sts	0x383A, r24	; 0x80383a <effect>
    2412:	90 93 3b 38 	sts	0x383B, r25	; 0x80383b <effect+0x1>
            RXCNT = 0;
    2416:	1d ba       	out	0x1d, r1	; 29
            serRxDone = 0;
    2418:	10 92 44 38 	sts	0x3844, r1	; 0x803844 <serRxDone>
            number = 0;
    241c:	10 92 05 39 	sts	0x3905, r1	; 0x803905 <number.3951>
    2420:	01 c0       	rjmp	.+2      	; 0x2424 <CheckResponse+0x86>
            return 0;
        }
        return 1;
    2422:	c1 e0       	ldi	r28, 0x01	; 1
    }
    return 0;
}
    2424:	8c 2f       	mov	r24, r28
    2426:	df 91       	pop	r29
    2428:	cf 91       	pop	r28
    242a:	08 95       	ret

0000242c <CheckInput>:

//User input check (and validation)
uint8_t CheckInput(uint8_t *data){
    242c:	4f 92       	push	r4
    242e:	5f 92       	push	r5
    2430:	6f 92       	push	r6
    2432:	7f 92       	push	r7
    2434:	8f 92       	push	r8
    2436:	9f 92       	push	r9
    2438:	af 92       	push	r10
    243a:	bf 92       	push	r11
    243c:	cf 92       	push	r12
    243e:	df 92       	push	r13
    2440:	ef 92       	push	r14
    2442:	ff 92       	push	r15
    2444:	0f 93       	push	r16
    2446:	1f 93       	push	r17
    2448:	cf 93       	push	r28
    244a:	df 93       	push	r29
    244c:	cd b7       	in	r28, 0x3d	; 61
    244e:	de b7       	in	r29, 0x3e	; 62
    2450:	a1 97       	sbiw	r28, 0x21	; 33
    2452:	cd bf       	out	0x3d, r28	; 61
    2454:	de bf       	out	0x3e, r29	; 62
    2456:	8c 01       	movw	r16, r24
    
    //Load game data after reboot
    if (currDepth == 0xff) {
    2458:	80 91 2c 38 	lds	r24, 0x382C	; 0x80382c <currDepth>
    245c:	8f 3f       	cpi	r24, 0xFF	; 255
    245e:	49 f4       	brne	.+18     	; 0x2472 <CheckInput+0x46>
        //Start at first location
        PopulateObject(route[0], &currObj);
    2460:	6b e1       	ldi	r22, 0x1B	; 27
    2462:	7a e3       	ldi	r23, 0x3A	; 58
    2464:	80 91 db 39 	lds	r24, 0x39DB	; 0x8039db <route>
    2468:	90 91 dc 39 	lds	r25, 0x39DC	; 0x8039dc <route+0x1>
    246c:	d4 dd       	rcall	.-1112   	; 0x2016 <PopulateObject>
        currDepth = 0;
    246e:	10 92 2c 38 	sts	0x382C, r1	; 0x80382c <currDepth>
    }

    if (serRxDone){
    2472:	80 91 44 38 	lds	r24, 0x3844	; 0x803844 <serRxDone>
    2476:	88 23       	and	r24, r24
    2478:	09 f4       	brne	.+2      	; 0x247c <CheckInput+0x50>
    247a:	64 c2       	rjmp	.+1224   	; 0x2944 <CheckInput+0x518>

        //Special input requested from user by game
        if (specialInput[0]){
    247c:	80 91 0a 39 	lds	r24, 0x390A	; 0x80390a <specialInput>
    2480:	88 23       	and	r24, r24
    2482:	09 f4       	brne	.+2      	; 0x2486 <CheckInput+0x5a>
    2484:	57 c0       	rjmp	.+174    	; 0x2534 <CheckInput+0x108>
            specialPassed = 0;
    2486:	10 92 09 39 	sts	0x3909, r1	; 0x803909 <specialPassed>
            data[0] = 'a';
    248a:	81 e6       	ldi	r24, 0x61	; 97
    248c:	f8 01       	movw	r30, r16
    248e:	80 83       	st	Z, r24
            
            //Normal code challenge
            if (StartsWith((uint8_t *)&serRx[0], &specialInput[0])) {
    2490:	6a e0       	ldi	r22, 0x0A	; 10
    2492:	79 e3       	ldi	r23, 0x39	; 57
    2494:	85 e7       	ldi	r24, 0x75	; 117
    2496:	9a e3       	ldi	r25, 0x3A	; 58
    2498:	f0 dc       	rcall	.-1568   	; 0x1e7a <StartsWith>
    249a:	f8 2e       	mov	r15, r24
    249c:	88 23       	and	r24, r24
    249e:	21 f0       	breq	.+8      	; 0x24a8 <CheckInput+0x7c>
                specialPassed = 1;
    24a0:	81 e0       	ldi	r24, 0x01	; 1
    24a2:	80 93 09 39 	sts	0x3909, r24	; 0x803909 <specialPassed>
    24a6:	04 c0       	rjmp	.+8      	; 0x24b0 <CheckInput+0x84>
                //specialInput[0] = 0;
                //data[1] = 0;

            //Special challenge 1
            } else if ((specialInput[0] == '1')&&(specialInput[2] == 0)) {
    24a8:	80 91 0a 39 	lds	r24, 0x390A	; 0x80390a <specialInput>
    24ac:	81 33       	cpi	r24, 0x31	; 49
    24ae:	11 f0       	breq	.+4      	; 0x24b4 <CheckInput+0x88>
                responseList = 32;
                return 1;
            }
        } 
        //Data received, but not any of the commands above
        return 0;
    24b0:	f1 2c       	mov	r15, r1
    24b2:	4a c2       	rjmp	.+1172   	; 0x2948 <CheckInput+0x51c>
                specialPassed = 1;
                //specialInput[0] = 0;
                //data[1] = 0;

            //Special challenge 1
            } else if ((specialInput[0] == '1')&&(specialInput[2] == 0)) {
    24b4:	80 91 0c 39 	lds	r24, 0x390C	; 0x80390c <specialInput+0x2>
    24b8:	81 11       	cpse	r24, r1
    24ba:	fa cf       	rjmp	.-12     	; 0x24b0 <CheckInput+0x84>
                uint8_t inputLen = CleanInput((uint8_t *)&serRx[0]);
    24bc:	85 e7       	ldi	r24, 0x75	; 117
    24be:	9a e3       	ldi	r25, 0x3A	; 58
    24c0:	dd de       	rcall	.-582    	; 0x227c <CleanInput>
                specialPassed = 2;
    24c2:	92 e0       	ldi	r25, 0x02	; 2
    24c4:	90 93 09 39 	sts	0x3909, r25	; 0x803909 <specialPassed>
                data[1] = 0;
    24c8:	f8 01       	movw	r30, r16
    24ca:	11 82       	std	Z+1, r1	; 0x01

                if (inputLen >= 2) {
    24cc:	82 30       	cpi	r24, 0x02	; 2
    24ce:	80 f3       	brcs	.-32     	; 0x24b0 <CheckInput+0x84>
                    if ((serRx[0] == '1')||(serRx[0] == '2')||(serRx[0] == '3')||(serRx[0] == '4')) {
    24d0:	80 91 75 3a 	lds	r24, 0x3A75	; 0x803a75 <serRx>
    24d4:	81 33       	cpi	r24, 0x31	; 49
    24d6:	61 f0       	breq	.+24     	; 0x24f0 <CheckInput+0xc4>
    24d8:	80 91 75 3a 	lds	r24, 0x3A75	; 0x803a75 <serRx>
    24dc:	82 33       	cpi	r24, 0x32	; 50
    24de:	41 f0       	breq	.+16     	; 0x24f0 <CheckInput+0xc4>
    24e0:	80 91 75 3a 	lds	r24, 0x3A75	; 0x803a75 <serRx>
    24e4:	83 33       	cpi	r24, 0x33	; 51
    24e6:	21 f0       	breq	.+8      	; 0x24f0 <CheckInput+0xc4>
    24e8:	80 91 75 3a 	lds	r24, 0x3A75	; 0x803a75 <serRx>
    24ec:	84 33       	cpi	r24, 0x34	; 52
    24ee:	01 f7       	brne	.-64     	; 0x24b0 <CheckInput+0x84>
                        serRx[1] |= 0x20;
    24f0:	80 91 76 3a 	lds	r24, 0x3A76	; 0x803a76 <serRx+0x1>
    24f4:	80 62       	ori	r24, 0x20	; 32
    24f6:	80 93 76 3a 	sts	0x3A76, r24	; 0x803a76 <serRx+0x1>
                        if ((serRx[1] == 'a')||(serRx[1] == 'e')||(serRx[1] == 'f')||(serRx[1] == 'w')) {
    24fa:	80 91 76 3a 	lds	r24, 0x3A76	; 0x803a76 <serRx+0x1>
    24fe:	81 36       	cpi	r24, 0x61	; 97
    2500:	61 f0       	breq	.+24     	; 0x251a <CheckInput+0xee>
    2502:	80 91 76 3a 	lds	r24, 0x3A76	; 0x803a76 <serRx+0x1>
    2506:	85 36       	cpi	r24, 0x65	; 101
    2508:	41 f0       	breq	.+16     	; 0x251a <CheckInput+0xee>
    250a:	80 91 76 3a 	lds	r24, 0x3A76	; 0x803a76 <serRx+0x1>
    250e:	86 36       	cpi	r24, 0x66	; 102
    2510:	21 f0       	breq	.+8      	; 0x251a <CheckInput+0xee>
    2512:	80 91 76 3a 	lds	r24, 0x3A76	; 0x803a76 <serRx+0x1>
    2516:	87 37       	cpi	r24, 0x77	; 119
    2518:	59 f6       	brne	.-106    	; 0x24b0 <CheckInput+0x84>
                            data[1] = specialInput[1]+0x11;
    251a:	80 91 0b 39 	lds	r24, 0x390B	; 0x80390b <specialInput+0x1>
    251e:	8f 5e       	subi	r24, 0xEF	; 239
    2520:	f8 01       	movw	r30, r16
    2522:	81 83       	std	Z+1, r24	; 0x01
                            data[2] = serRx[0];
    2524:	80 91 75 3a 	lds	r24, 0x3A75	; 0x803a75 <serRx>
    2528:	82 83       	std	Z+2, r24	; 0x02
                            data[3] = serRx[1];
    252a:	80 91 76 3a 	lds	r24, 0x3A76	; 0x803a76 <serRx+0x1>
    252e:	83 83       	std	Z+3, r24	; 0x03
                            data[4] = 0;
    2530:	14 82       	std	Z+4, r1	; 0x04
    2532:	0a c2       	rjmp	.+1044   	; 0x2948 <CheckInput+0x51c>
        
        //Normal input
        } else {

            //Change status bit
            if ((serRx[0] == '#')&&(RXCNT == 6)){
    2534:	80 91 75 3a 	lds	r24, 0x3A75	; 0x803a75 <serRx>
    2538:	83 32       	cpi	r24, 0x23	; 35
    253a:	89 f5       	brne	.+98     	; 0x259e <CheckInput+0x172>
    253c:	8d b3       	in	r24, 0x1d	; 29
    253e:	86 30       	cpi	r24, 0x06	; 6
    2540:	71 f5       	brne	.+92     	; 0x259e <CheckInput+0x172>
    2542:	81 e0       	ldi	r24, 0x01	; 1
    2544:	90 e0       	ldi	r25, 0x00	; 0
    2546:	10 e0       	ldi	r17, 0x00	; 0
                uint8_t bitNr = 0;

                for (uint8_t x=1; x<4; ++x) {
                    serRx[x] -= '0';
    2548:	fc 01       	movw	r30, r24
    254a:	eb 58       	subi	r30, 0x8B	; 139
    254c:	f5 4c       	sbci	r31, 0xC5	; 197
    254e:	20 81       	ld	r18, Z
    2550:	20 53       	subi	r18, 0x30	; 48
    2552:	20 83       	st	Z, r18
                    bitNr *= 10;
    2554:	11 0f       	add	r17, r17
    2556:	21 2f       	mov	r18, r17
    2558:	22 0f       	add	r18, r18
    255a:	22 0f       	add	r18, r18
    255c:	12 0f       	add	r17, r18
                    if (serRx[1] > 2) break;
    255e:	20 91 76 3a 	lds	r18, 0x3A76	; 0x803a76 <serRx+0x1>
    2562:	23 30       	cpi	r18, 0x03	; 3
    2564:	48 f4       	brcc	.+18     	; 0x2578 <CheckInput+0x14c>
                    if (serRx[x] < 10) {
    2566:	20 81       	ld	r18, Z
    2568:	2a 30       	cpi	r18, 0x0A	; 10
    256a:	b8 f4       	brcc	.+46     	; 0x259a <CheckInput+0x16e>
                        bitNr += serRx[x];
    256c:	20 81       	ld	r18, Z
    256e:	12 0f       	add	r17, r18
    2570:	01 96       	adiw	r24, 0x01	; 1

            //Change status bit
            if ((serRx[0] == '#')&&(RXCNT == 6)){
                uint8_t bitNr = 0;

                for (uint8_t x=1; x<4; ++x) {
    2572:	84 30       	cpi	r24, 0x04	; 4
    2574:	91 05       	cpc	r25, r1
    2576:	41 f7       	brne	.-48     	; 0x2548 <CheckInput+0x11c>
                        continue;
                    }
                    bitNr = 0;
                    break;
                }
                if ((bitNr)&&(bitNr!=128)) {
    2578:	81 2f       	mov	r24, r17
    257a:	8f 77       	andi	r24, 0x7F	; 127
    257c:	71 f0       	breq	.+28     	; 0x259a <CheckInput+0x16e>
                    if (Cheat(0xff-bitNr, serRx[4]<<8|serRx[5])) UpdateState(bitNr);
    257e:	80 91 79 3a 	lds	r24, 0x3A79	; 0x803a79 <serRx+0x4>
    2582:	60 91 7a 3a 	lds	r22, 0x3A7A	; 0x803a7a <serRx+0x5>
    2586:	70 e0       	ldi	r23, 0x00	; 0
    2588:	78 2b       	or	r23, r24
    258a:	81 2f       	mov	r24, r17
    258c:	80 95       	com	r24
    258e:	d5 db       	rcall	.-2134   	; 0x1d3a <Cheat>
    2590:	88 23       	and	r24, r24
    2592:	19 f0       	breq	.+6      	; 0x259a <CheckInput+0x16e>
    2594:	81 2f       	mov	r24, r17
    2596:	0e 94 9b 0a 	call	0x1536	; 0x1536 <UpdateState>
                }
                responseList = SetStandardResponse(0);
    259a:	80 e0       	ldi	r24, 0x00	; 0
    259c:	50 c0       	rjmp	.+160    	; 0x263e <CheckInput+0x212>
    259e:	d8 01       	movw	r26, r16
    25a0:	80 e0       	ldi	r24, 0x00	; 0
    25a2:	90 e0       	ldi	r25, 0x00	; 0
                return 1;            
            }
            
            //Read up to the \0 character and convert to lower case.
            for (uint8_t x=0; x<RXLEN; ++x){
                if ((serRx[x]<'A')||(serRx[x]>'Z')) data[x]=serRx[x]; else data[x]=serRx[x]|0x20;
    25a4:	fc 01       	movw	r30, r24
    25a6:	eb 58       	subi	r30, 0x8B	; 139
    25a8:	f5 4c       	sbci	r31, 0xC5	; 197
    25aa:	20 81       	ld	r18, Z
    25ac:	21 34       	cpi	r18, 0x41	; 65
    25ae:	18 f0       	brcs	.+6      	; 0x25b6 <CheckInput+0x18a>
    25b0:	20 81       	ld	r18, Z
    25b2:	2b 35       	cpi	r18, 0x5B	; 91
    25b4:	10 f0       	brcs	.+4      	; 0x25ba <CheckInput+0x18e>
    25b6:	20 81       	ld	r18, Z
    25b8:	02 c0       	rjmp	.+4      	; 0x25be <CheckInput+0x192>
    25ba:	20 81       	ld	r18, Z
    25bc:	20 62       	ori	r18, 0x20	; 32
    25be:	2c 93       	st	X, r18
                if (serRx[x] == 0) {
    25c0:	20 81       	ld	r18, Z
    25c2:	21 11       	cpse	r18, r1
    25c4:	05 c0       	rjmp	.+10     	; 0x25d0 <CheckInput+0x1a4>
                    data[x] = 0;
    25c6:	f8 01       	movw	r30, r16
    25c8:	e8 0f       	add	r30, r24
    25ca:	f1 1d       	adc	r31, r1
    25cc:	10 82       	st	Z, r1
                    break;
    25ce:	05 c0       	rjmp	.+10     	; 0x25da <CheckInput+0x1ae>
    25d0:	01 96       	adiw	r24, 0x01	; 1
    25d2:	11 96       	adiw	r26, 0x01	; 1
                responseList = SetStandardResponse(0);
                return 1;            
            }
            
            //Read up to the \0 character and convert to lower case.
            for (uint8_t x=0; x<RXLEN; ++x){
    25d4:	81 34       	cpi	r24, 0x41	; 65
    25d6:	91 05       	cpc	r25, r1
    25d8:	29 f7       	brne	.-54     	; 0x25a4 <CheckInput+0x178>
                    break;
                }
            }

            //No text
            if (serRx[0] == 0){
    25da:	80 91 75 3a 	lds	r24, 0x3A75	; 0x803a75 <serRx>
                data[0] = 0;
    25de:	f8 01       	movw	r30, r16
                    break;
                }
            }

            //No text
            if (serRx[0] == 0){
    25e0:	81 11       	cpse	r24, r1
    25e2:	05 c0       	rjmp	.+10     	; 0x25ee <CheckInput+0x1c2>
                data[0] = 0;
    25e4:	10 82       	st	Z, r1
                RXCNT = 0;
    25e6:	1d ba       	out	0x1d, r1	; 29
                serRxDone = 0;
    25e8:	10 92 44 38 	sts	0x3844, r1	; 0x803844 <serRxDone>
    25ec:	ab c1       	rjmp	.+854    	; 0x2944 <CheckInput+0x518>
                return 1;
            }

            //Help text
            if ((data[0] == '?')||(data[0] == 'h')){
    25ee:	80 81       	ld	r24, Z
    25f0:	8f 33       	cpi	r24, 0x3F	; 63
    25f2:	11 f0       	breq	.+4      	; 0x25f8 <CheckInput+0x1cc>
    25f4:	88 36       	cpi	r24, 0x68	; 104
    25f6:	39 f5       	brne	.+78     	; 0x2646 <CheckInput+0x21a>
    return 0;
}

//
void SetResponse(uint8_t number, uint16_t address, uint16_t length, uint8_t type){
    reactStr[0][number]=address;
    25f8:	8b e5       	ldi	r24, 0x5B	; 91
    25fa:	9a e7       	ldi	r25, 0x7A	; 122
    25fc:	80 93 1b 39 	sts	0x391B, r24	; 0x80391b <reactStr>
    2600:	90 93 1c 39 	sts	0x391C, r25	; 0x80391c <reactStr+0x1>
    reactStr[1][number]=length;
    2604:	84 e0       	ldi	r24, 0x04	; 4
    2606:	90 e0       	ldi	r25, 0x00	; 0
    2608:	80 93 5b 39 	sts	0x395B, r24	; 0x80395b <reactStr+0x40>
    260c:	90 93 5c 39 	sts	0x395C, r25	; 0x80395c <reactStr+0x41>
    reactStr[2][number]=type;
    2610:	81 e0       	ldi	r24, 0x01	; 1
    2612:	90 e0       	ldi	r25, 0x00	; 0
    2614:	80 93 9b 39 	sts	0x399B, r24	; 0x80399b <reactStr+0x80>
    2618:	90 93 9c 39 	sts	0x399C, r25	; 0x80399c <reactStr+0x81>
    return 0;
}

//
void SetResponse(uint8_t number, uint16_t address, uint16_t length, uint8_t type){
    reactStr[0][number]=address;
    261c:	23 e9       	ldi	r18, 0x93	; 147
    261e:	3b e7       	ldi	r19, 0x7B	; 123
    2620:	20 93 1d 39 	sts	0x391D, r18	; 0x80391d <reactStr+0x2>
    2624:	30 93 1e 39 	sts	0x391E, r19	; 0x80391e <reactStr+0x3>
    reactStr[1][number]=length;
    2628:	2d e6       	ldi	r18, 0x6D	; 109
    262a:	34 e0       	ldi	r19, 0x04	; 4
    262c:	20 93 5d 39 	sts	0x395D, r18	; 0x80395d <reactStr+0x42>
    2630:	30 93 5e 39 	sts	0x395E, r19	; 0x80395e <reactStr+0x43>
    reactStr[2][number]=type;
    2634:	80 93 9d 39 	sts	0x399D, r24	; 0x80399d <reactStr+0x82>
    2638:	90 93 9e 39 	sts	0x399E, r25	; 0x80399e <reactStr+0x83>

            //Help text
            if ((data[0] == '?')||(data[0] == 'h')){
                SetResponse(0, A_LF, 4, TEASER);
                SetResponse(1, A_HELP, L_HELP, TEASER);
                responseList = SetStandardResponse(2);
    263c:	82 e0       	ldi	r24, 0x02	; 2
    263e:	6f dc       	rcall	.-1826   	; 0x1f1e <SetStandardResponse>
    2640:	80 93 1a 39 	sts	0x391A, r24	; 0x80391a <responseList>
    2644:	7f c1       	rjmp	.+766    	; 0x2944 <CheckInput+0x518>
                return 1;
            }        
        
            //Alphabet text
            if (data[0] == 'a'){
    2646:	81 36       	cpi	r24, 0x61	; 97
    2648:	d9 f4       	brne	.+54     	; 0x2680 <CheckInput+0x254>
    return 0;
}

//
void SetResponse(uint8_t number, uint16_t address, uint16_t length, uint8_t type){
    reactStr[0][number]=address;
    264a:	8b e5       	ldi	r24, 0x5B	; 91
    264c:	9a e7       	ldi	r25, 0x7A	; 122
    264e:	80 93 1b 39 	sts	0x391B, r24	; 0x80391b <reactStr>
    2652:	90 93 1c 39 	sts	0x391C, r25	; 0x80391c <reactStr+0x1>
    reactStr[1][number]=length;
    2656:	84 e0       	ldi	r24, 0x04	; 4
    2658:	90 e0       	ldi	r25, 0x00	; 0
    265a:	80 93 5b 39 	sts	0x395B, r24	; 0x80395b <reactStr+0x40>
    265e:	90 93 5c 39 	sts	0x395C, r25	; 0x80395c <reactStr+0x41>
    reactStr[2][number]=type;
    2662:	81 e0       	ldi	r24, 0x01	; 1
    2664:	90 e0       	ldi	r25, 0x00	; 0
    2666:	80 93 9b 39 	sts	0x399B, r24	; 0x80399b <reactStr+0x80>
    266a:	90 93 9c 39 	sts	0x399C, r25	; 0x80399c <reactStr+0x81>
    return 0;
}

//
void SetResponse(uint8_t number, uint16_t address, uint16_t length, uint8_t type){
    reactStr[0][number]=address;
    266e:	2e e6       	ldi	r18, 0x6E	; 110
    2670:	3a e7       	ldi	r19, 0x7A	; 122
    2672:	20 93 1d 39 	sts	0x391D, r18	; 0x80391d <reactStr+0x2>
    2676:	30 93 1e 39 	sts	0x391E, r19	; 0x80391e <reactStr+0x3>
    reactStr[1][number]=length;
    267a:	25 e2       	ldi	r18, 0x25	; 37
    267c:	31 e0       	ldi	r19, 0x01	; 1
    267e:	d6 cf       	rjmp	.-84     	; 0x262c <CheckInput+0x200>
                responseList = SetStandardResponse(2);
                return 1;
            }

            //Whoami text
            if (data[0] == 'w'){
    2680:	87 37       	cpi	r24, 0x77	; 119
    2682:	09 f0       	breq	.+2      	; 0x2686 <CheckInput+0x25a>
    2684:	6e c0       	rjmp	.+220    	; 0x2762 <CheckInput+0x336>
    return 0;
}

//
void SetResponse(uint8_t number, uint16_t address, uint16_t length, uint8_t type){
    reactStr[0][number]=address;
    2686:	8b e5       	ldi	r24, 0x5B	; 91
    2688:	9a e7       	ldi	r25, 0x7A	; 122
    268a:	80 93 1b 39 	sts	0x391B, r24	; 0x80391b <reactStr>
    268e:	90 93 1c 39 	sts	0x391C, r25	; 0x80391c <reactStr+0x1>
    reactStr[1][number]=length;
    2692:	84 e0       	ldi	r24, 0x04	; 4
    2694:	90 e0       	ldi	r25, 0x00	; 0
    2696:	80 93 5b 39 	sts	0x395B, r24	; 0x80395b <reactStr+0x40>
    269a:	90 93 5c 39 	sts	0x395C, r25	; 0x80395c <reactStr+0x41>
    reactStr[2][number]=type;
    269e:	21 e0       	ldi	r18, 0x01	; 1
    26a0:	30 e0       	ldi	r19, 0x00	; 0
    26a2:	20 93 9b 39 	sts	0x399B, r18	; 0x80399b <reactStr+0x80>
    26a6:	30 93 9c 39 	sts	0x399C, r19	; 0x80399c <reactStr+0x81>
    return 0;
}

//
void SetResponse(uint8_t number, uint16_t address, uint16_t length, uint8_t type){
    reactStr[0][number]=address;
    26aa:	8a ec       	ldi	r24, 0xCA	; 202
    26ac:	96 e7       	ldi	r25, 0x76	; 118
    26ae:	80 93 1d 39 	sts	0x391D, r24	; 0x80391d <reactStr+0x2>
    26b2:	90 93 1e 39 	sts	0x391E, r25	; 0x80391e <reactStr+0x3>
    reactStr[1][number]=length;
    26b6:	82 e1       	ldi	r24, 0x12	; 18
    26b8:	90 e0       	ldi	r25, 0x00	; 0
    26ba:	80 93 5d 39 	sts	0x395D, r24	; 0x80395d <reactStr+0x42>
    26be:	90 93 5e 39 	sts	0x395E, r25	; 0x80395e <reactStr+0x43>
    reactStr[2][number]=type;
    26c2:	20 93 9d 39 	sts	0x399D, r18	; 0x80399d <reactStr+0x82>
    26c6:	30 93 9e 39 	sts	0x399E, r19	; 0x80399e <reactStr+0x83>

            //Whoami text
            if (data[0] == 'w'){
                SetResponse(0, A_LF, 4, TEASER);
                SetResponse(1, A_HELLO, L_HELLO, TEASER);
                if (whoami == 1) {
    26ca:	80 91 3d 38 	lds	r24, 0x383D	; 0x80383d <whoami>
    26ce:	81 30       	cpi	r24, 0x01	; 1
    26d0:	19 f4       	brne	.+6      	; 0x26d8 <CheckInput+0x2ac>
    return 0;
}

//
void SetResponse(uint8_t number, uint16_t address, uint16_t length, uint8_t type){
    reactStr[0][number]=address;
    26d2:	84 ec       	ldi	r24, 0xC4	; 196
    26d4:	96 e7       	ldi	r25, 0x76	; 118
    26d6:	0f c0       	rjmp	.+30     	; 0x26f6 <CheckInput+0x2ca>
            if (data[0] == 'w'){
                SetResponse(0, A_LF, 4, TEASER);
                SetResponse(1, A_HELLO, L_HELLO, TEASER);
                if (whoami == 1) {
                    SetResponse(2, A_ANUBIS, L_ANUBIS, TEASER);
                } else if (whoami == 2) {
    26d8:	82 30       	cpi	r24, 0x02	; 2
    26da:	49 f4       	brne	.+18     	; 0x26ee <CheckInput+0x2c2>
    return 0;
}

//
void SetResponse(uint8_t number, uint16_t address, uint16_t length, uint8_t type){
    reactStr[0][number]=address;
    26dc:	81 ec       	ldi	r24, 0xC1	; 193
    26de:	96 e7       	ldi	r25, 0x76	; 118
    26e0:	80 93 1f 39 	sts	0x391F, r24	; 0x80391f <reactStr+0x4>
    26e4:	90 93 20 39 	sts	0x3920, r25	; 0x803920 <reactStr+0x5>
    reactStr[1][number]=length;
    26e8:	83 e0       	ldi	r24, 0x03	; 3
    26ea:	90 e0       	ldi	r25, 0x00	; 0
    26ec:	1e c0       	rjmp	.+60     	; 0x272a <CheckInput+0x2fe>
                SetResponse(1, A_HELLO, L_HELLO, TEASER);
                if (whoami == 1) {
                    SetResponse(2, A_ANUBIS, L_ANUBIS, TEASER);
                } else if (whoami == 2) {
                    SetResponse(2, A_BES, L_BES, TEASER);
                } else if (whoami == 3) {
    26ee:	83 30       	cpi	r24, 0x03	; 3
    26f0:	49 f4       	brne	.+18     	; 0x2704 <CheckInput+0x2d8>
    return 0;
}

//
void SetResponse(uint8_t number, uint16_t address, uint16_t length, uint8_t type){
    reactStr[0][number]=address;
    26f2:	8b eb       	ldi	r24, 0xBB	; 187
    26f4:	96 e7       	ldi	r25, 0x76	; 118
    26f6:	80 93 1f 39 	sts	0x391F, r24	; 0x80391f <reactStr+0x4>
    26fa:	90 93 20 39 	sts	0x3920, r25	; 0x803920 <reactStr+0x5>
    reactStr[1][number]=length;
    26fe:	86 e0       	ldi	r24, 0x06	; 6
    2700:	90 e0       	ldi	r25, 0x00	; 0
    2702:	13 c0       	rjmp	.+38     	; 0x272a <CheckInput+0x2fe>
                    SetResponse(2, A_ANUBIS, L_ANUBIS, TEASER);
                } else if (whoami == 2) {
                    SetResponse(2, A_BES, L_BES, TEASER);
                } else if (whoami == 3) {
                    SetResponse(2, A_KHONSU, L_KHONSU, TEASER);
                } else if (whoami == 4) {
    2704:	84 30       	cpi	r24, 0x04	; 4
    2706:	49 f4       	brne	.+18     	; 0x271a <CheckInput+0x2ee>
    return 0;
}

//
void SetResponse(uint8_t number, uint16_t address, uint16_t length, uint8_t type){
    reactStr[0][number]=address;
    2708:	86 eb       	ldi	r24, 0xB6	; 182
    270a:	96 e7       	ldi	r25, 0x76	; 118
    270c:	80 93 1f 39 	sts	0x391F, r24	; 0x80391f <reactStr+0x4>
    2710:	90 93 20 39 	sts	0x3920, r25	; 0x803920 <reactStr+0x5>
    reactStr[1][number]=length;
    2714:	85 e0       	ldi	r24, 0x05	; 5
    2716:	90 e0       	ldi	r25, 0x00	; 0
    2718:	08 c0       	rjmp	.+16     	; 0x272a <CheckInput+0x2fe>
    return 0;
}

//
void SetResponse(uint8_t number, uint16_t address, uint16_t length, uint8_t type){
    reactStr[0][number]=address;
    271a:	8f e3       	ldi	r24, 0x3F	; 63
    271c:	96 e7       	ldi	r25, 0x76	; 118
    271e:	80 93 1f 39 	sts	0x391F, r24	; 0x80391f <reactStr+0x4>
    2722:	90 93 20 39 	sts	0x3920, r25	; 0x803920 <reactStr+0x5>
    reactStr[1][number]=length;
    2726:	82 e4       	ldi	r24, 0x42	; 66
    2728:	90 e0       	ldi	r25, 0x00	; 0
    272a:	80 93 5f 39 	sts	0x395F, r24	; 0x80395f <reactStr+0x44>
    272e:	90 93 60 39 	sts	0x3960, r25	; 0x803960 <reactStr+0x45>
    reactStr[2][number]=type;
    2732:	20 93 9f 39 	sts	0x399F, r18	; 0x80399f <reactStr+0x84>
    2736:	30 93 a0 39 	sts	0x39A0, r19	; 0x8039a0 <reactStr+0x85>
    return 0;
}

//
void SetResponse(uint8_t number, uint16_t address, uint16_t length, uint8_t type){
    reactStr[0][number]=address;
    273a:	8c e9       	ldi	r24, 0x9C	; 156
    273c:	96 e7       	ldi	r25, 0x76	; 118
    273e:	80 93 21 39 	sts	0x3921, r24	; 0x803921 <reactStr+0x6>
    2742:	90 93 22 39 	sts	0x3922, r25	; 0x803922 <reactStr+0x7>
    reactStr[1][number]=length;
    2746:	8a e1       	ldi	r24, 0x1A	; 26
    2748:	90 e0       	ldi	r25, 0x00	; 0
    274a:	80 93 61 39 	sts	0x3961, r24	; 0x803961 <reactStr+0x46>
    274e:	90 93 62 39 	sts	0x3962, r25	; 0x803962 <reactStr+0x47>
    reactStr[2][number]=type;
    2752:	81 e0       	ldi	r24, 0x01	; 1
    2754:	90 e0       	ldi	r25, 0x00	; 0
    2756:	80 93 a1 39 	sts	0x39A1, r24	; 0x8039a1 <reactStr+0x86>
    275a:	90 93 a2 39 	sts	0x39A2, r25	; 0x8039a2 <reactStr+0x87>
                    SetResponse(2, A_THOTH, L_THOTH, TEASER);
                } else {
                    SetResponse(2, A_ERROR, L_ERROR, TEASER);
                }
                SetResponse(3, A_PLEASED, L_PLEASED, TEASER);
                responseList = SetStandardResponse(4);
    275e:	84 e0       	ldi	r24, 0x04	; 4
    2760:	6e cf       	rjmp	.-292    	; 0x263e <CheckInput+0x212>
                return 1;
            }

            //Quit text
            if (data[0] == 'q'){
    2762:	81 37       	cpi	r24, 0x71	; 113
    2764:	d9 f4       	brne	.+54     	; 0x279c <CheckInput+0x370>
    return 0;
}

//
void SetResponse(uint8_t number, uint16_t address, uint16_t length, uint8_t type){
    reactStr[0][number]=address;
    2766:	8b e5       	ldi	r24, 0x5B	; 91
    2768:	9a e7       	ldi	r25, 0x7A	; 122
    276a:	80 93 1b 39 	sts	0x391B, r24	; 0x80391b <reactStr>
    276e:	90 93 1c 39 	sts	0x391C, r25	; 0x80391c <reactStr+0x1>
    reactStr[1][number]=length;
    2772:	84 e0       	ldi	r24, 0x04	; 4
    2774:	90 e0       	ldi	r25, 0x00	; 0
    2776:	80 93 5b 39 	sts	0x395B, r24	; 0x80395b <reactStr+0x40>
    277a:	90 93 5c 39 	sts	0x395C, r25	; 0x80395c <reactStr+0x41>
    reactStr[2][number]=type;
    277e:	81 e0       	ldi	r24, 0x01	; 1
    2780:	90 e0       	ldi	r25, 0x00	; 0
    2782:	80 93 9b 39 	sts	0x399B, r24	; 0x80399b <reactStr+0x80>
    2786:	90 93 9c 39 	sts	0x399C, r25	; 0x80399c <reactStr+0x81>
    return 0;
}

//
void SetResponse(uint8_t number, uint16_t address, uint16_t length, uint8_t type){
    reactStr[0][number]=address;
    278a:	22 e0       	ldi	r18, 0x02	; 2
    278c:	3a e7       	ldi	r19, 0x7A	; 122
    278e:	20 93 1d 39 	sts	0x391D, r18	; 0x80391d <reactStr+0x2>
    2792:	30 93 1e 39 	sts	0x391E, r19	; 0x80391e <reactStr+0x3>
    reactStr[1][number]=length;
    2796:	25 e5       	ldi	r18, 0x55	; 85
    2798:	30 e0       	ldi	r19, 0x00	; 0
                responseList = SetStandardResponse(2);
                return 1;
            }

            //Fake cheat = reset badge!
            if (StartsWith(&data[0], "iddqd")){
    279a:	48 cf       	rjmp	.-368    	; 0x262c <CheckInput+0x200>
    279c:	60 e1       	ldi	r22, 0x10	; 16
    279e:	7e eb       	ldi	r23, 0xBE	; 190
    27a0:	c8 01       	movw	r24, r16
    27a2:	6b db       	rcall	.-2346   	; 0x1e7a <StartsWith>
    27a4:	88 23       	and	r24, r24
    27a6:	f9 f0       	breq	.+62     	; 0x27e6 <CheckInput+0x3ba>
    27a8:	1e e6       	ldi	r17, 0x6E	; 110
            
                //Reset game data by wiping the UUID bits
                for (uint8_t x=0; x<4; ++x){
                    WriteStatusBit(110+x, 0);
    27aa:	60 e0       	ldi	r22, 0x00	; 0
    27ac:	81 2f       	mov	r24, r17
    27ae:	0e 94 81 0a 	call	0x1502	; 0x1502 <WriteStatusBit>
    27b2:	1f 5f       	subi	r17, 0xFF	; 255

            //Fake cheat = reset badge!
            if (StartsWith(&data[0], "iddqd")){
            
                //Reset game data by wiping the UUID bits
                for (uint8_t x=0; x<4; ++x){
    27b4:	12 37       	cpi	r17, 0x72	; 114
    27b6:	c9 f7       	brne	.-14     	; 0x27aa <CheckInput+0x37e>
                    WriteStatusBit(110+x, 0);
                }
                SaveGameState();
    27b8:	0e 94 fa 09 	call	0x13f4	; 0x13f4 <SaveGameState>

                uint8_t cheat[] = "Cheater! Contact badge team... ";
    27bc:	80 e2       	ldi	r24, 0x20	; 32
    27be:	e3 e5       	ldi	r30, 0x53	; 83
    27c0:	fe eb       	ldi	r31, 0xBE	; 190
    27c2:	de 01       	movw	r26, r28
    27c4:	11 96       	adiw	r26, 0x01	; 1
    27c6:	01 90       	ld	r0, Z+
    27c8:	0d 92       	st	X+, r0
    27ca:	8a 95       	dec	r24
    27cc:	e1 f7       	brne	.-8      	; 0x27c6 <CheckInput+0x39a>
                SerSpeed(60);
    27ce:	8c e3       	ldi	r24, 0x3C	; 60
    27d0:	0e 94 ec 08 	call	0x11d8	; 0x11d8 <SerSpeed>
                while(1){
                    if (serTxDone) SerSend(&cheat[0]);
    27d4:	80 91 0a 38 	lds	r24, 0x380A	; 0x80380a <serTxDone>
    27d8:	88 23       	and	r24, r24
    27da:	e1 f3       	breq	.-8      	; 0x27d4 <CheckInput+0x3a8>
    27dc:	ce 01       	movw	r24, r28
    27de:	01 96       	adiw	r24, 0x01	; 1
    27e0:	0e 94 db 08 	call	0x11b6	; 0x11b6 <SerSend>
                }
            }
            
            //Cheat reset (Quote from: Donald E. Westlake)
            if (StartsWith(&data[0], "the trouble with real life is, there's no reset button")){
    27e4:	f7 cf       	rjmp	.-18     	; 0x27d4 <CheckInput+0x3a8>
    27e6:	66 e1       	ldi	r22, 0x16	; 22
    27e8:	7e eb       	ldi	r23, 0xBE	; 190
    27ea:	c8 01       	movw	r24, r16
    27ec:	46 db       	rcall	.-2420   	; 0x1e7a <StartsWith>
    27ee:	68 2e       	mov	r6, r24
    27f0:	88 23       	and	r24, r24
    27f2:	61 f1       	breq	.+88     	; 0x284c <CheckInput+0x420>
                
                //Reset cheat data by resetting the EEPROM bytes
                uint8_t empty=0xff;
    27f4:	8f ef       	ldi	r24, 0xFF	; 255
    27f6:	89 a3       	std	Y+33, r24	; 0x21
    27f8:	18 e1       	ldi	r17, 0x18	; 24
                for (uint8_t x=0; x<MAX_CHEATS; ++x){
                    EEWrite(CHEATS+x, &empty, 1);
    27fa:	41 e0       	ldi	r20, 0x01	; 1
    27fc:	be 01       	movw	r22, r28
    27fe:	6f 5d       	subi	r22, 0xDF	; 223
    2800:	7f 4f       	sbci	r23, 0xFF	; 255
    2802:	81 2f       	mov	r24, r17
    2804:	0e 94 b3 08 	call	0x1166	; 0x1166 <EEWrite>
    2808:	1f 5f       	subi	r17, 0xFF	; 255
            //Cheat reset (Quote from: Donald E. Westlake)
            if (StartsWith(&data[0], "the trouble with real life is, there's no reset button")){
                
                //Reset cheat data by resetting the EEPROM bytes
                uint8_t empty=0xff;
                for (uint8_t x=0; x<MAX_CHEATS; ++x){
    280a:	10 32       	cpi	r17, 0x20	; 32
    280c:	b1 f7       	brne	.-20     	; 0x27fa <CheckInput+0x3ce>
    280e:	1e e6       	ldi	r17, 0x6E	; 110
                    EEWrite(CHEATS+x, &empty, 1);
                }
                //Reset game data by wiping the UUID bits
                for (uint8_t x=0; x<4; ++x){
                    WriteStatusBit(110+x, 0);
    2810:	60 e0       	ldi	r22, 0x00	; 0
    2812:	81 2f       	mov	r24, r17
    2814:	0e 94 81 0a 	call	0x1502	; 0x1502 <WriteStatusBit>
    2818:	1f 5f       	subi	r17, 0xFF	; 255
                uint8_t empty=0xff;
                for (uint8_t x=0; x<MAX_CHEATS; ++x){
                    EEWrite(CHEATS+x, &empty, 1);
                }
                //Reset game data by wiping the UUID bits
                for (uint8_t x=0; x<4; ++x){
    281a:	12 37       	cpi	r17, 0x72	; 114
    281c:	c9 f7       	brne	.-14     	; 0x2810 <CheckInput+0x3e4>
                    WriteStatusBit(110+x, 0);
                }
                
                SaveGameState();
    281e:	0e 94 fa 09 	call	0x13f4	; 0x13f4 <SaveGameState>

                uint8_t cheat[] = "Reset please! ";
    2822:	8f e0       	ldi	r24, 0x0F	; 15
    2824:	e3 e7       	ldi	r30, 0x73	; 115
    2826:	fe eb       	ldi	r31, 0xBE	; 190
    2828:	de 01       	movw	r26, r28
    282a:	11 96       	adiw	r26, 0x01	; 1
    282c:	01 90       	ld	r0, Z+
    282e:	0d 92       	st	X+, r0
    2830:	8a 95       	dec	r24
    2832:	e1 f7       	brne	.-8      	; 0x282c <CheckInput+0x400>
                SerSpeed(60);
    2834:	8c e3       	ldi	r24, 0x3C	; 60
    2836:	0e 94 ec 08 	call	0x11d8	; 0x11d8 <SerSpeed>
                while(1){
                    if (serTxDone) SerSend(&cheat[0]);
    283a:	80 91 0a 38 	lds	r24, 0x380A	; 0x80380a <serTxDone>
    283e:	88 23       	and	r24, r24
    2840:	e1 f3       	breq	.-8      	; 0x283a <CheckInput+0x40e>
    2842:	ce 01       	movw	r24, r28
    2844:	01 96       	adiw	r24, 0x01	; 1
    2846:	0e 94 db 08 	call	0x11b6	; 0x11b6 <SerSend>
                }
            }
            if (StartsWith(&data[0], "cheat")){
    284a:	f7 cf       	rjmp	.-18     	; 0x283a <CheckInput+0x40e>
    284c:	6d e4       	ldi	r22, 0x4D	; 77
    284e:	7e eb       	ldi	r23, 0xBE	; 190
    2850:	c8 01       	movw	r24, r16
    2852:	13 db       	rcall	.-2522   	; 0x1e7a <StartsWith>
    2854:	88 23       	and	r24, r24
    2856:	09 f4       	brne	.+2      	; 0x285a <CheckInput+0x42e>
    2858:	2b ce       	rjmp	.-938    	; 0x24b0 <CheckInput+0x84>
    285a:	0b e1       	ldi	r16, 0x1B	; 27
    285c:	19 e3       	ldi	r17, 0x39	; 57
    285e:	78 e1       	ldi	r23, 0x18	; 24
    2860:	77 2e       	mov	r7, r23
                    
                    //Set up sending out number
                    EERead(CHEATS+x, &bit, 1);
                    bit = 0xff-bit;
                    for (n=2; n>=0; --n) {
                        digit[n] = bit % 10;
    2862:	ea e0       	ldi	r30, 0x0A	; 10
    2864:	5e 2e       	mov	r5, r30
                        bit /= 10;
    2866:	f4 e6       	ldi	r31, 0x64	; 100
    2868:	4f 2e       	mov	r4, r31
}

//
void SetResponse(uint8_t number, uint16_t address, uint16_t length, uint8_t type){
    reactStr[0][number]=address;
    reactStr[1][number]=length;
    286a:	ee 24       	eor	r14, r14
    286c:	e3 94       	inc	r14
    286e:	f1 2c       	mov	r15, r1
    2870:	cc 24       	eor	r12, r12
    2872:	c3 94       	inc	r12
    2874:	d1 2c       	mov	r13, r1
    return 0;
}

//
void SetResponse(uint8_t number, uint16_t address, uint16_t length, uint8_t type){
    reactStr[0][number]=address;
    2876:	89 e5       	ldi	r24, 0x59	; 89
    2878:	88 2e       	mov	r8, r24
    287a:	8a e7       	ldi	r24, 0x7A	; 122
    287c:	98 2e       	mov	r9, r24
    reactStr[1][number]=length;
    287e:	92 e0       	ldi	r25, 0x02	; 2
    2880:	a9 2e       	mov	r10, r25
    2882:	b1 2c       	mov	r11, r1
                uint8_t bit, digit[3];

                for (uint8_t x=0; x<MAX_CHEATS; ++x){
                    
                    //Set up sending out number
                    EERead(CHEATS+x, &bit, 1);
    2884:	41 e0       	ldi	r20, 0x01	; 1
    2886:	be 01       	movw	r22, r28
    2888:	6f 5d       	subi	r22, 0xDF	; 223
    288a:	7f 4f       	sbci	r23, 0xFF	; 255
    288c:	87 2d       	mov	r24, r7
    288e:	0e 94 a3 08 	call	0x1146	; 0x1146 <EERead>
                    bit = 0xff-bit;
    2892:	29 a1       	ldd	r18, Y+33	; 0x21
    2894:	20 95       	com	r18
                    for (n=2; n>=0; --n) {
                        digit[n] = bit % 10;
    2896:	82 2f       	mov	r24, r18
    2898:	65 2d       	mov	r22, r5
    289a:	0e 94 71 1e 	call	0x3ce2	; 0x3ce2 <__udivmodqi4>
    289e:	9b 83       	std	Y+3, r25	; 0x03
    28a0:	0e 94 71 1e 	call	0x3ce2	; 0x3ce2 <__udivmodqi4>
    28a4:	9a 83       	std	Y+2, r25	; 0x02
                        bit /= 10;
    28a6:	82 2f       	mov	r24, r18
    28a8:	64 2d       	mov	r22, r4
    28aa:	0e 94 71 1e 	call	0x3ce2	; 0x3ce2 <__udivmodqi4>
                    
                    //Set up sending out number
                    EERead(CHEATS+x, &bit, 1);
                    bit = 0xff-bit;
                    for (n=2; n>=0; --n) {
                        digit[n] = bit % 10;
    28ae:	89 83       	std	Y+1, r24	; 0x01
    28b0:	19 a2       	std	Y+33, r1	; 0x21
    28b2:	de 01       	movw	r26, r28
    28b4:	11 96       	adiw	r26, 0x01	; 1
    28b6:	40 e0       	ldi	r20, 0x00	; 0
                        bit /= 10;
                    }

                    for (n=0; n<3; ++n) {
                        SetResponse(x*4+n, A_DIGITS+digit[n], 1, TEASER);
    28b8:	2d 91       	ld	r18, X+
    return 0;
}

//
void SetResponse(uint8_t number, uint16_t address, uint16_t length, uint8_t type){
    reactStr[0][number]=address;
    28ba:	86 2d       	mov	r24, r6
    28bc:	84 0f       	add	r24, r20
    28be:	90 e0       	ldi	r25, 0x00	; 0
    28c0:	fc 01       	movw	r30, r24
    28c2:	ee 0f       	add	r30, r30
    28c4:	ff 1f       	adc	r31, r31
    28c6:	e5 5e       	subi	r30, 0xE5	; 229
    28c8:	f6 4c       	sbci	r31, 0xC6	; 198
    28ca:	30 e0       	ldi	r19, 0x00	; 0
    28cc:	2e 52       	subi	r18, 0x2E	; 46
    28ce:	3b 48       	sbci	r19, 0x8B	; 139
    28d0:	20 83       	st	Z, r18
    28d2:	31 83       	std	Z+1, r19	; 0x01
    reactStr[1][number]=length;
    28d4:	fc 01       	movw	r30, r24
    28d6:	ee 0f       	add	r30, r30
    28d8:	ff 1f       	adc	r31, r31
    28da:	e5 5a       	subi	r30, 0xA5	; 165
    28dc:	f6 4c       	sbci	r31, 0xC6	; 198
    28de:	e0 82       	st	Z, r14
    28e0:	f1 82       	std	Z+1, r15	; 0x01
    reactStr[2][number]=type;
    28e2:	88 0f       	add	r24, r24
    28e4:	99 1f       	adc	r25, r25
    28e6:	fc 01       	movw	r30, r24
    28e8:	e5 56       	subi	r30, 0x65	; 101
    28ea:	f6 4c       	sbci	r31, 0xC6	; 198
    28ec:	e0 82       	st	Z, r14
    28ee:	f1 82       	std	Z+1, r15	; 0x01
    28f0:	4f 5f       	subi	r20, 0xFF	; 255
                    for (n=2; n>=0; --n) {
                        digit[n] = bit % 10;
                        bit /= 10;
                    }

                    for (n=0; n<3; ++n) {
    28f2:	43 30       	cpi	r20, 0x03	; 3
    28f4:	09 f7       	brne	.-62     	; 0x28b8 <CheckInput+0x48c>
    return 0;
}

//
void SetResponse(uint8_t number, uint16_t address, uint16_t length, uint8_t type){
    reactStr[0][number]=address;
    28f6:	f8 01       	movw	r30, r16
    28f8:	86 82       	std	Z+6, r8	; 0x06
    28fa:	97 82       	std	Z+7, r9	; 0x07
    reactStr[1][number]=length;
    28fc:	ea 5b       	subi	r30, 0xBA	; 186
    28fe:	ff 4f       	sbci	r31, 0xFF	; 255
    2900:	a0 82       	st	Z, r10
    2902:	b1 82       	std	Z+1, r11	; 0x01
    reactStr[2][number]=type;
    2904:	e0 5c       	subi	r30, 0xC0	; 192
    2906:	ff 4f       	sbci	r31, 0xFF	; 255
    2908:	c0 82       	st	Z, r12
    290a:	d1 82       	std	Z+1, r13	; 0x01
    290c:	73 94       	inc	r7
    290e:	08 5f       	subi	r16, 0xF8	; 248
    2910:	1f 4f       	sbci	r17, 0xFF	; 255
    2912:	f4 e0       	ldi	r31, 0x04	; 4
    2914:	6f 0e       	add	r6, r31
            }
            if (StartsWith(&data[0], "cheat")){
                int8_t n;
                uint8_t bit, digit[3];

                for (uint8_t x=0; x<MAX_CHEATS; ++x){
    2916:	80 e2       	ldi	r24, 0x20	; 32
    2918:	78 12       	cpse	r7, r24
    291a:	b4 cf       	rjmp	.-152    	; 0x2884 <CheckInput+0x458>
    return 0;
}

//
void SetResponse(uint8_t number, uint16_t address, uint16_t length, uint8_t type){
    reactStr[0][number]=address;
    291c:	8b e5       	ldi	r24, 0x5B	; 91
    291e:	9a e7       	ldi	r25, 0x7A	; 122
    2920:	80 93 59 39 	sts	0x3959, r24	; 0x803959 <reactStr+0x3e>
    2924:	90 93 5a 39 	sts	0x395A, r25	; 0x80395a <reactStr+0x3f>
    reactStr[1][number]=length;
    2928:	84 e0       	ldi	r24, 0x04	; 4
    292a:	90 e0       	ldi	r25, 0x00	; 0
    292c:	80 93 99 39 	sts	0x3999, r24	; 0x803999 <reactStr+0x7e>
    2930:	90 93 9a 39 	sts	0x399A, r25	; 0x80399a <reactStr+0x7f>
    reactStr[2][number]=type;
    2934:	81 e0       	ldi	r24, 0x01	; 1
    2936:	90 e0       	ldi	r25, 0x00	; 0
    2938:	80 93 d9 39 	sts	0x39D9, r24	; 0x8039d9 <reactStr+0xbe>
    293c:	90 93 da 39 	sts	0x39DA, r25	; 0x8039da <reactStr+0xbf>
                        SetResponse(x*4+n, A_DIGITS+digit[n], 1, TEASER);
                    }                
                    SetResponse(x*4+3, A_COMMA, L_COMMA, TEASER);
                }
                SetResponse((4*MAX_CHEATS)-1, A_LF, 4, TEASER);
                responseList = 32;
    2940:	70 92 1a 39 	sts	0x391A, r7	; 0x80391a <responseList>
        //Data received, but not any of the commands above
        return 0;
    }

    //Serial input not available yet
    return 1;
    2944:	ff 24       	eor	r15, r15
    2946:	f3 94       	inc	r15
}
    2948:	8f 2d       	mov	r24, r15
    294a:	a1 96       	adiw	r28, 0x21	; 33
    294c:	cd bf       	out	0x3d, r28	; 61
    294e:	de bf       	out	0x3e, r29	; 62
    2950:	df 91       	pop	r29
    2952:	cf 91       	pop	r28
    2954:	1f 91       	pop	r17
    2956:	0f 91       	pop	r16
    2958:	ff 90       	pop	r15
    295a:	ef 90       	pop	r14
    295c:	df 90       	pop	r13
    295e:	cf 90       	pop	r12
    2960:	bf 90       	pop	r11
    2962:	af 90       	pop	r10
    2964:	9f 90       	pop	r9
    2966:	8f 90       	pop	r8
    2968:	7f 90       	pop	r7
    296a:	6f 90       	pop	r6
    296c:	5f 90       	pop	r5
    296e:	4f 90       	pop	r4
    2970:	08 95       	ret

00002972 <ProcessInput>:

//The game logic!
uint8_t ProcessInput(uint8_t *data){
    2972:	4f 92       	push	r4
    2974:	5f 92       	push	r5
    2976:	6f 92       	push	r6
    2978:	7f 92       	push	r7
    297a:	8f 92       	push	r8
    297c:	9f 92       	push	r9
    297e:	af 92       	push	r10
    2980:	bf 92       	push	r11
    2982:	cf 92       	push	r12
    2984:	df 92       	push	r13
    2986:	ef 92       	push	r14
    2988:	ff 92       	push	r15
    298a:	0f 93       	push	r16
    298c:	1f 93       	push	r17
    298e:	cf 93       	push	r28
    2990:	df 93       	push	r29
    2992:	cd b7       	in	r28, 0x3d	; 61
    2994:	de b7       	in	r29, 0x3e	; 62
    2996:	2a 97       	sbiw	r28, 0x0a	; 10
    2998:	cd bf       	out	0x3d, r28	; 61
    299a:	de bf       	out	0x3e, r29	; 62
    299c:	8c 01       	movw	r16, r24
    static object_model_t actObj1, actObj2;
    uint8_t elements = 1;

    CleanInput(&data[0]);
    299e:	6e dc       	rcall	.-1828   	; 0x227c <CleanInput>
    uint8_t inputLen = CleanInput(&data[0]);
    29a0:	c8 01       	movw	r24, r16
    29a2:	6c dc       	rcall	.-1832   	; 0x227c <CleanInput>
    29a4:	f8 2e       	mov	r15, r24

    if (inputLen) {
    29a6:	88 23       	and	r24, r24
    29a8:	09 f4       	brne	.+2      	; 0x29ac <ProcessInput+0x3a>
    29aa:	ee c7       	rjmp	.+4060   	; 0x3988 <ProcessInput+0x1016>

        //eXit to previous location
        if (data[0] == 'x'){
    29ac:	d8 01       	movw	r26, r16
    29ae:	8c 91       	ld	r24, X
    29b0:	88 37       	cpi	r24, 0x78	; 120
    29b2:	09 f0       	breq	.+2      	; 0x29b6 <ProcessInput+0x44>
    29b4:	45 c0       	rjmp	.+138    	; 0x2a40 <ProcessInput+0xce>

            //Standing in the Lobby?
            if ((route[currDepth] == 0)||(currDepth == 0)){
    29b6:	80 91 2c 38 	lds	r24, 0x382C	; 0x80382c <currDepth>
    29ba:	e8 2f       	mov	r30, r24
    29bc:	f0 e0       	ldi	r31, 0x00	; 0
    29be:	ee 0f       	add	r30, r30
    29c0:	ff 1f       	adc	r31, r31
    29c2:	e5 52       	subi	r30, 0x25	; 37
    29c4:	f6 4c       	sbci	r31, 0xC6	; 198
    29c6:	20 81       	ld	r18, Z
    29c8:	31 81       	ldd	r19, Z+1	; 0x01
    29ca:	23 2b       	or	r18, r19
    29cc:	11 f0       	breq	.+4      	; 0x29d2 <ProcessInput+0x60>
    29ce:	81 11       	cpse	r24, r1
    29d0:	03 c0       	rjmp	.+6      	; 0x29d8 <ProcessInput+0x66>
    return 0;
}

//
void SetResponse(uint8_t number, uint16_t address, uint16_t length, uint8_t type){
    reactStr[0][number]=address;
    29d2:	81 e8       	ldi	r24, 0x81	; 129
    29d4:	96 e7       	ldi	r25, 0x76	; 118
    29d6:	a1 c5       	rjmp	.+2882   	; 0x351a <ProcessInput+0xba8>
            //Standing in the Lobby?
            if ((route[currDepth] == 0)||(currDepth == 0)){
                SetResponse(elements++, A_NOTPOSSIBLE, L_NOTPOSSIBLE, TEASER);
            
            //Is there a way to go back?
            } else if (CheckState(currObj.byteField[OPEN_ACL])){
    29d8:	80 91 21 3a 	lds	r24, 0x3A21	; 0x803a21 <currObj+0x6>
    29dc:	0e 94 a5 0a 	call	0x154a	; 0x154a <CheckState>
    29e0:	88 23       	and	r24, r24
    29e2:	b9 f0       	breq	.+46     	; 0x2a12 <ProcessInput+0xa0>
                --currDepth;
    29e4:	e0 91 2c 38 	lds	r30, 0x382C	; 0x80382c <currDepth>
    29e8:	e1 50       	subi	r30, 0x01	; 1
    29ea:	e0 93 2c 38 	sts	0x382C, r30	; 0x80382c <currDepth>
                PopulateObject(route[currDepth], &currObj);
    29ee:	f0 e0       	ldi	r31, 0x00	; 0
    29f0:	ee 0f       	add	r30, r30
    29f2:	ff 1f       	adc	r31, r31
    29f4:	e5 52       	subi	r30, 0x25	; 37
    29f6:	f6 4c       	sbci	r31, 0xC6	; 198
    29f8:	6b e1       	ldi	r22, 0x1B	; 27
    29fa:	7a e3       	ldi	r23, 0x3A	; 58
    29fc:	80 81       	ld	r24, Z
    29fe:	91 81       	ldd	r25, Z+1	; 0x01
    2a00:	0a db       	rcall	.-2540   	; 0x2016 <PopulateObject>
                effect = currObj.byteField[EFFECTS];
    2a02:	80 91 1f 3a 	lds	r24, 0x3A1F	; 0x803a1f <currObj+0x4>
    2a06:	90 e0       	ldi	r25, 0x00	; 0
    2a08:	80 93 3a 38 	sts	0x383A, r24	; 0x80383a <effect>
    2a0c:	90 93 3b 38 	sts	0x383B, r25	; 0x80383b <effect+0x1>
    2a10:	31 c2       	rjmp	.+1122   	; 0x2e74 <ProcessInput+0x502>
            
            //No way out, print denied message of location
            } else {
                SetResponse(elements++, currObj.addrStr[OPEN_ACL_MSG], currObj.lenStr[OPEN_ACL_MSG], GAME);
    2a12:	80 91 3d 3a 	lds	r24, 0x3A3D	; 0x803a3d <currObj+0x22>
    2a16:	90 91 3e 3a 	lds	r25, 0x3A3E	; 0x803a3e <currObj+0x23>
    return 0;
}

//
void SetResponse(uint8_t number, uint16_t address, uint16_t length, uint8_t type){
    reactStr[0][number]=address;
    2a1a:	20 91 2f 3a 	lds	r18, 0x3A2F	; 0x803a2f <currObj+0x14>
    2a1e:	30 91 30 3a 	lds	r19, 0x3A30	; 0x803a30 <currObj+0x15>
    2a22:	20 93 1d 39 	sts	0x391D, r18	; 0x80391d <reactStr+0x2>
    2a26:	30 93 1e 39 	sts	0x391E, r19	; 0x80391e <reactStr+0x3>
    reactStr[1][number]=length;
    2a2a:	80 93 5d 39 	sts	0x395D, r24	; 0x80395d <reactStr+0x42>
    2a2e:	90 93 5e 39 	sts	0x395E, r25	; 0x80395e <reactStr+0x43>
    reactStr[2][number]=type;
    2a32:	10 92 9d 39 	sts	0x399D, r1	; 0x80399d <reactStr+0x82>
    2a36:	10 92 9e 39 	sts	0x399E, r1	; 0x80399e <reactStr+0x83>
                effect = currObj.byteField[EFFECTS];
            
            //No way out, print denied message of location
            } else {
                SetResponse(elements++, currObj.addrStr[OPEN_ACL_MSG], currObj.lenStr[OPEN_ACL_MSG], GAME);
                effect = currObj.effect[0];               
    2a3a:	80 91 43 3a 	lds	r24, 0x3A43	; 0x803a43 <currObj+0x28>
    2a3e:	3a c6       	rjmp	.+3188   	; 0x36b4 <ProcessInput+0xd42>
            }   
        
        //Enter locations or Open objects    
        } else if ((data[0] == 'e')||(data[0] == 'o')) {
    2a40:	85 36       	cpi	r24, 0x65	; 101
    2a42:	19 f0       	breq	.+6      	; 0x2a4a <ProcessInput+0xd8>
    2a44:	8f 36       	cpi	r24, 0x6F	; 111
    2a46:	09 f0       	breq	.+2      	; 0x2a4a <ProcessInput+0xd8>
    2a48:	df c0       	rjmp	.+446    	; 0x2c08 <ProcessInput+0x296>
                
            //Not possible, too many/little characters
            if (inputLen != 2){
    2a4a:	b2 e0       	ldi	r27, 0x02	; 2
    2a4c:	fb 12       	cpse	r15, r27
    2a4e:	c1 cf       	rjmp	.-126    	; 0x29d2 <ProcessInput+0x60>
                SetResponse(elements++, A_NOTPOSSIBLE, L_NOTPOSSIBLE, TEASER);
            } else {
                uint8_t canDo = 0;
                route[currDepth+1] = FindChild(route[currDepth], data[1], 0);
    2a50:	e0 90 2c 38 	lds	r14, 0x382C	; 0x80382c <currDepth>
    2a54:	f1 2c       	mov	r15, r1
    2a56:	f7 01       	movw	r30, r14
    2a58:	ee 0f       	add	r30, r30
    2a5a:	ff 1f       	adc	r31, r31
    2a5c:	e5 52       	subi	r30, 0x25	; 37
    2a5e:	f6 4c       	sbci	r31, 0xC6	; 198
    2a60:	40 e0       	ldi	r20, 0x00	; 0
    2a62:	50 e0       	ldi	r21, 0x00	; 0
    2a64:	d8 01       	movw	r26, r16
    2a66:	11 96       	adiw	r26, 0x01	; 1
    2a68:	6c 91       	ld	r22, X
    2a6a:	80 81       	ld	r24, Z
    2a6c:	91 81       	ldd	r25, Z+1	; 0x01
    2a6e:	9e db       	rcall	.-2244   	; 0x21ac <FindChild>
    2a70:	f7 01       	movw	r30, r14
    2a72:	ee 0f       	add	r30, r30
    2a74:	ff 1f       	adc	r31, r31
    2a76:	e3 52       	subi	r30, 0x23	; 35
    2a78:	f6 4c       	sbci	r31, 0xC6	; 198
    2a7a:	80 83       	st	Z, r24
    2a7c:	91 83       	std	Z+1, r25	; 0x01
                    
                //Child found?
                if (route[currDepth+1]) {
    2a7e:	90 91 2c 38 	lds	r25, 0x382C	; 0x80382c <currDepth>
    2a82:	29 2f       	mov	r18, r25
    2a84:	30 e0       	ldi	r19, 0x00	; 0
    2a86:	f9 01       	movw	r30, r18
    2a88:	ee 0f       	add	r30, r30
    2a8a:	ff 1f       	adc	r31, r31
    2a8c:	e3 52       	subi	r30, 0x23	; 35
    2a8e:	f6 4c       	sbci	r31, 0xC6	; 198
    2a90:	40 81       	ld	r20, Z
    2a92:	51 81       	ldd	r21, Z+1	; 0x01
    2a94:	41 15       	cp	r20, r1
    2a96:	51 05       	cpc	r21, r1
    2a98:	21 f0       	breq	.+8      	; 0x2aa2 <ProcessInput+0x130>
                    PopulateObject(route[currDepth+1], &actObj1);
    2a9a:	6a ed       	ldi	r22, 0xDA	; 218
    2a9c:	78 e3       	ldi	r23, 0x38	; 56
    2a9e:	ca 01       	movw	r24, r20
    2aa0:	1c c0       	rjmp	.+56     	; 0x2ada <ProcessInput+0x168>
                    canDo = 1;
                //No child, maybe a step back, letter ok?
                } else if (currDepth) {
    2aa2:	99 23       	and	r25, r25
    2aa4:	09 f4       	brne	.+2      	; 0x2aa8 <ProcessInput+0x136>
    2aa6:	87 c7       	rjmp	.+3854   	; 0x39b6 <ProcessInput+0x1044>
                    if (CheckLetter(route[currDepth-1], data[1])) {
    2aa8:	22 0f       	add	r18, r18
    2aaa:	33 1f       	adc	r19, r19
    2aac:	f9 01       	movw	r30, r18
    2aae:	e7 52       	subi	r30, 0x27	; 39
    2ab0:	f6 4c       	sbci	r31, 0xC6	; 198
    2ab2:	d8 01       	movw	r26, r16
    2ab4:	11 96       	adiw	r26, 0x01	; 1
    2ab6:	6c 91       	ld	r22, X
    2ab8:	80 81       	ld	r24, Z
    2aba:	91 81       	ldd	r25, Z+1	; 0x01
    2abc:	23 db       	rcall	.-2490   	; 0x2104 <CheckLetter>
    2abe:	88 23       	and	r24, r24
    2ac0:	09 f4       	brne	.+2      	; 0x2ac4 <ProcessInput+0x152>
    2ac2:	79 c7       	rjmp	.+3826   	; 0x39b6 <ProcessInput+0x1044>
                        PopulateObject(route[currDepth-1], &actObj1);
    2ac4:	e0 91 2c 38 	lds	r30, 0x382C	; 0x80382c <currDepth>
    2ac8:	f0 e0       	ldi	r31, 0x00	; 0
    2aca:	ee 0f       	add	r30, r30
    2acc:	ff 1f       	adc	r31, r31
    2ace:	e7 52       	subi	r30, 0x27	; 39
    2ad0:	f6 4c       	sbci	r31, 0xC6	; 198
    2ad2:	6a ed       	ldi	r22, 0xDA	; 218
    2ad4:	78 e3       	ldi	r23, 0x38	; 56
    2ad6:	80 81       	ld	r24, Z
    2ad8:	91 81       	ldd	r25, Z+1	; 0x01
    2ada:	9d da       	rcall	.-2758   	; 0x2016 <PopulateObject>
                    }
                }

                //The candidate is found! Let's check if the action is legit
                if (canDo) {
                    if ((data[0] == 'e') && ((actObj1.byteField[ACTION_MASK]&ENTER)==0)) {
    2adc:	f8 01       	movw	r30, r16
    2ade:	80 81       	ld	r24, Z
    2ae0:	85 36       	cpi	r24, 0x65	; 101
    2ae2:	c9 f4       	brne	.+50     	; 0x2b16 <ProcessInput+0x1a4>
    2ae4:	80 91 e2 38 	lds	r24, 0x38E2	; 0x8038e2 <actObj1.3999+0x8>
    2ae8:	80 fd       	sbrc	r24, 0
    2aea:	1e c0       	rjmp	.+60     	; 0x2b28 <ProcessInput+0x1b6>
    return 0;
}

//
void SetResponse(uint8_t number, uint16_t address, uint16_t length, uint8_t type){
    reactStr[0][number]=address;
    2aec:	8f e9       	ldi	r24, 0x9F	; 159
    2aee:	99 e7       	ldi	r25, 0x79	; 121
    2af0:	80 93 1d 39 	sts	0x391D, r24	; 0x80391d <reactStr+0x2>
    2af4:	90 93 1e 39 	sts	0x391E, r25	; 0x80391e <reactStr+0x3>
    reactStr[1][number]=length;
    2af8:	8e e1       	ldi	r24, 0x1E	; 30
    2afa:	90 e0       	ldi	r25, 0x00	; 0
    2afc:	80 93 5d 39 	sts	0x395D, r24	; 0x80395d <reactStr+0x42>
    2b00:	90 93 5e 39 	sts	0x395E, r25	; 0x80395e <reactStr+0x43>
    reactStr[2][number]=type;
    2b04:	81 e0       	ldi	r24, 0x01	; 1
    2b06:	90 e0       	ldi	r25, 0x00	; 0
    2b08:	80 93 9d 39 	sts	0x399D, r24	; 0x80399d <reactStr+0x82>
    2b0c:	90 93 9e 39 	sts	0x399E, r25	; 0x80399e <reactStr+0x83>
                }

                //The candidate is found! Let's check if the action is legit
                if (canDo) {
                    if ((data[0] == 'e') && ((actObj1.byteField[ACTION_MASK]&ENTER)==0)) {
                        SetResponse(elements++, A_CANTENTER, L_CANTENTER, TEASER);
    2b10:	72 e0       	ldi	r23, 0x02	; 2
    2b12:	77 2e       	mov	r7, r23
    2b14:	1e c7       	rjmp	.+3644   	; 0x3952 <ProcessInput+0xfe0>
                    } else if ((data[0] == 'o') && ((actObj1.byteField[ACTION_MASK]&OPEN)==0)) {
    2b16:	8f 36       	cpi	r24, 0x6F	; 111
    2b18:	39 f4       	brne	.+14     	; 0x2b28 <ProcessInput+0x1b6>
    2b1a:	80 91 e2 38 	lds	r24, 0x38E2	; 0x8038e2 <actObj1.3999+0x8>
    2b1e:	81 fd       	sbrc	r24, 1
    2b20:	03 c0       	rjmp	.+6      	; 0x2b28 <ProcessInput+0x1b6>
    return 0;
}

//
void SetResponse(uint8_t number, uint16_t address, uint16_t length, uint8_t type){
    reactStr[0][number]=address;
    2b22:	84 e8       	ldi	r24, 0x84	; 132
    2b24:	99 e7       	ldi	r25, 0x79	; 121
    2b26:	f9 c4       	rjmp	.+2546   	; 0x351a <ProcessInput+0xba8>
                        SetResponse(elements++, A_CANTENTER, L_CANTENTER, TEASER);
                    } else if ((data[0] == 'o') && ((actObj1.byteField[ACTION_MASK]&OPEN)==0)) {
                        SetResponse(elements++, A_CANTOPEN, L_CANTOPEN, TEASER);
                    
                    //Action legit, permission granted?
                    } else if (CheckState(actObj1.byteField[OPEN_ACL])) {
    2b28:	80 91 e0 38 	lds	r24, 0x38E0	; 0x8038e0 <actObj1.3999+0x6>
    2b2c:	0e 94 a5 0a 	call	0x154a	; 0x154a <CheckState>
    2b30:	e0 91 2c 38 	lds	r30, 0x382C	; 0x80382c <currDepth>
    2b34:	88 23       	and	r24, r24
    2b36:	09 f4       	brne	.+2      	; 0x2b3a <ProcessInput+0x1c8>
    2b38:	49 c0       	rjmp	.+146    	; 0x2bcc <ProcessInput+0x25a>
                            
                        //Yes! Check if we must move forward or backwards.
                        if (route[currDepth+1]) ++currDepth; else --currDepth;
    2b3a:	ae 2f       	mov	r26, r30
    2b3c:	b0 e0       	ldi	r27, 0x00	; 0
    2b3e:	aa 0f       	add	r26, r26
    2b40:	bb 1f       	adc	r27, r27
    2b42:	a3 52       	subi	r26, 0x23	; 35
    2b44:	b6 4c       	sbci	r27, 0xC6	; 198
    2b46:	8d 91       	ld	r24, X+
    2b48:	9c 91       	ld	r25, X
    2b4a:	89 2b       	or	r24, r25
    2b4c:	11 f0       	breq	.+4      	; 0x2b52 <ProcessInput+0x1e0>
    2b4e:	ef 5f       	subi	r30, 0xFF	; 255
    2b50:	01 c0       	rjmp	.+2      	; 0x2b54 <ProcessInput+0x1e2>
    2b52:	e1 50       	subi	r30, 0x01	; 1
    2b54:	e0 93 2c 38 	sts	0x382C, r30	; 0x80382c <currDepth>
                        PopulateObject(route[currDepth], &currObj);
    2b58:	e0 91 2c 38 	lds	r30, 0x382C	; 0x80382c <currDepth>
    2b5c:	f0 e0       	ldi	r31, 0x00	; 0
    2b5e:	ee 0f       	add	r30, r30
    2b60:	ff 1f       	adc	r31, r31
    2b62:	e5 52       	subi	r30, 0x25	; 37
    2b64:	f6 4c       	sbci	r31, 0xC6	; 198
    2b66:	6b e1       	ldi	r22, 0x1B	; 27
    2b68:	7a e3       	ldi	r23, 0x3A	; 58
    2b6a:	80 81       	ld	r24, Z
    2b6c:	91 81       	ldd	r25, Z+1	; 0x01
    2b6e:	53 da       	rcall	.-2906   	; 0x2016 <PopulateObject>
                        SetResponse(elements++, currObj.addrStr[DESC], currObj.lenStr[DESC],GAME);
    2b70:	80 91 37 3a 	lds	r24, 0x3A37	; 0x803a37 <currObj+0x1c>
    2b74:	90 91 38 3a 	lds	r25, 0x3A38	; 0x803a38 <currObj+0x1d>
    return 0;
}

//
void SetResponse(uint8_t number, uint16_t address, uint16_t length, uint8_t type){
    reactStr[0][number]=address;
    2b78:	20 91 29 3a 	lds	r18, 0x3A29	; 0x803a29 <currObj+0xe>
    2b7c:	30 91 2a 3a 	lds	r19, 0x3A2A	; 0x803a2a <currObj+0xf>
    2b80:	20 93 1d 39 	sts	0x391D, r18	; 0x80391d <reactStr+0x2>
    2b84:	30 93 1e 39 	sts	0x391E, r19	; 0x80391e <reactStr+0x3>
    reactStr[1][number]=length;
    2b88:	80 93 5d 39 	sts	0x395D, r24	; 0x80395d <reactStr+0x42>
    2b8c:	90 93 5e 39 	sts	0x395E, r25	; 0x80395e <reactStr+0x43>
    reactStr[2][number]=type;
    2b90:	10 92 9d 39 	sts	0x399D, r1	; 0x80399d <reactStr+0x82>
    2b94:	10 92 9e 39 	sts	0x399E, r1	; 0x80399e <reactStr+0x83>
    return 0;
}

//
void SetResponse(uint8_t number, uint16_t address, uint16_t length, uint8_t type){
    reactStr[0][number]=address;
    2b98:	8b e5       	ldi	r24, 0x5B	; 91
    2b9a:	9a e7       	ldi	r25, 0x7A	; 122
    2b9c:	80 93 1f 39 	sts	0x391F, r24	; 0x80391f <reactStr+0x4>
    2ba0:	90 93 20 39 	sts	0x3920, r25	; 0x803920 <reactStr+0x5>
    reactStr[1][number]=length;
    2ba4:	82 e0       	ldi	r24, 0x02	; 2
    2ba6:	90 e0       	ldi	r25, 0x00	; 0
    2ba8:	80 93 5f 39 	sts	0x395F, r24	; 0x80395f <reactStr+0x44>
    2bac:	90 93 60 39 	sts	0x3960, r25	; 0x803960 <reactStr+0x45>
    reactStr[2][number]=type;
    2bb0:	81 e0       	ldi	r24, 0x01	; 1
    2bb2:	90 e0       	ldi	r25, 0x00	; 0
    2bb4:	80 93 9f 39 	sts	0x399F, r24	; 0x80399f <reactStr+0x84>
    2bb8:	90 93 a0 39 	sts	0x39A0, r25	; 0x8039a0 <reactStr+0x85>
                        //Yes! Check if we must move forward or backwards.
                        if (route[currDepth+1]) ++currDepth; else --currDepth;
                        PopulateObject(route[currDepth], &currObj);
                        SetResponse(elements++, currObj.addrStr[DESC], currObj.lenStr[DESC],GAME);
                        SetResponse(elements++, A_LF, 2, TEASER);
                        effect = currObj.byteField[EFFECTS];
    2bbc:	80 91 1f 3a 	lds	r24, 0x3A1F	; 0x803a1f <currObj+0x4>
    2bc0:	90 e0       	ldi	r25, 0x00	; 0
    2bc2:	80 93 3a 38 	sts	0x383A, r24	; 0x80383a <effect>
    2bc6:	90 93 3b 38 	sts	0x383B, r25	; 0x80383b <effect+0x1>
    2bca:	8d c4       	rjmp	.+2330   	; 0x34e6 <ProcessInput+0xb74>
                                                  
                    //Not granted!
                    } else {
                        route[currDepth+1] = 0;
    2bcc:	f0 e0       	ldi	r31, 0x00	; 0
    2bce:	ee 0f       	add	r30, r30
    2bd0:	ff 1f       	adc	r31, r31
    2bd2:	e3 52       	subi	r30, 0x23	; 35
    2bd4:	f6 4c       	sbci	r31, 0xC6	; 198
    2bd6:	10 82       	st	Z, r1
    2bd8:	11 82       	std	Z+1, r1	; 0x01
                        SetResponse(elements++, actObj1.addrStr[OPEN_ACL_MSG], actObj1.lenStr[OPEN_ACL_MSG], GAME);
    2bda:	80 91 fc 38 	lds	r24, 0x38FC	; 0x8038fc <actObj1.3999+0x22>
    2bde:	90 91 fd 38 	lds	r25, 0x38FD	; 0x8038fd <actObj1.3999+0x23>
    return 0;
}

//
void SetResponse(uint8_t number, uint16_t address, uint16_t length, uint8_t type){
    reactStr[0][number]=address;
    2be2:	20 91 ee 38 	lds	r18, 0x38EE	; 0x8038ee <actObj1.3999+0x14>
    2be6:	30 91 ef 38 	lds	r19, 0x38EF	; 0x8038ef <actObj1.3999+0x15>
    2bea:	20 93 1d 39 	sts	0x391D, r18	; 0x80391d <reactStr+0x2>
    2bee:	30 93 1e 39 	sts	0x391E, r19	; 0x80391e <reactStr+0x3>
    reactStr[1][number]=length;
    2bf2:	80 93 5d 39 	sts	0x395D, r24	; 0x80395d <reactStr+0x42>
    2bf6:	90 93 5e 39 	sts	0x395E, r25	; 0x80395e <reactStr+0x43>
    reactStr[2][number]=type;
    2bfa:	10 92 9d 39 	sts	0x399D, r1	; 0x80399d <reactStr+0x82>
    2bfe:	10 92 9e 39 	sts	0x399E, r1	; 0x80399e <reactStr+0x83>
                                                  
                    //Not granted!
                    } else {
                        route[currDepth+1] = 0;
                        SetResponse(elements++, actObj1.addrStr[OPEN_ACL_MSG], actObj1.lenStr[OPEN_ACL_MSG], GAME);
                        effect = actObj1.effect[0];              
    2c02:	80 91 02 39 	lds	r24, 0x3902	; 0x803902 <actObj1.3999+0x28>
    2c06:	56 c5       	rjmp	.+2732   	; 0x36b4 <ProcessInput+0xd42>
                    SetResponse(elements++, A_DONTSEE, L_DONTSEE, TEASER);                
                }
            }

        //Look around or at objects
        } else if (data[0] == 'l') {
    2c08:	8c 36       	cpi	r24, 0x6C	; 108
    2c0a:	09 f0       	breq	.+2      	; 0x2c0e <ProcessInput+0x29c>
    2c0c:	57 c1       	rjmp	.+686    	; 0x2ebc <ProcessInput+0x54a>
    2c0e:	e0 91 2c 38 	lds	r30, 0x382C	; 0x80382c <currDepth>
            if (inputLen == 1) {
    2c12:	b1 e0       	ldi	r27, 0x01	; 1
    2c14:	fb 12       	cpse	r15, r27
    2c16:	f6 c0       	rjmp	.+492    	; 0x2e04 <ProcessInput+0x492>

                //Show info about this area first
                SetResponse(elements++, currObj.addrStr[DESC], currObj.lenStr[DESC],GAME);
    2c18:	80 91 37 3a 	lds	r24, 0x3A37	; 0x803a37 <currObj+0x1c>
    2c1c:	90 91 38 3a 	lds	r25, 0x3A38	; 0x803a38 <currObj+0x1d>
    return 0;
}

//
void SetResponse(uint8_t number, uint16_t address, uint16_t length, uint8_t type){
    reactStr[0][number]=address;
    2c20:	20 91 29 3a 	lds	r18, 0x3A29	; 0x803a29 <currObj+0xe>
    2c24:	30 91 2a 3a 	lds	r19, 0x3A2A	; 0x803a2a <currObj+0xf>
    2c28:	20 93 1d 39 	sts	0x391D, r18	; 0x80391d <reactStr+0x2>
    2c2c:	30 93 1e 39 	sts	0x391E, r19	; 0x80391e <reactStr+0x3>
    reactStr[1][number]=length;
    2c30:	80 93 5d 39 	sts	0x395D, r24	; 0x80395d <reactStr+0x42>
    2c34:	90 93 5e 39 	sts	0x395E, r25	; 0x80395e <reactStr+0x43>
    reactStr[2][number]=type;
    2c38:	10 92 9d 39 	sts	0x399D, r1	; 0x80399d <reactStr+0x82>
    2c3c:	10 92 9e 39 	sts	0x399E, r1	; 0x80399e <reactStr+0x83>
    return 0;
}

//
void SetResponse(uint8_t number, uint16_t address, uint16_t length, uint8_t type){
    reactStr[0][number]=address;
    2c40:	8b e5       	ldi	r24, 0x5B	; 91
    2c42:	9a e7       	ldi	r25, 0x7A	; 122
    2c44:	80 93 1f 39 	sts	0x391F, r24	; 0x80391f <reactStr+0x4>
    2c48:	90 93 20 39 	sts	0x3920, r25	; 0x803920 <reactStr+0x5>
    reactStr[1][number]=length;
    2c4c:	82 e0       	ldi	r24, 0x02	; 2
    2c4e:	90 e0       	ldi	r25, 0x00	; 0
    2c50:	80 93 5f 39 	sts	0x395F, r24	; 0x80395f <reactStr+0x44>
    2c54:	90 93 60 39 	sts	0x3960, r25	; 0x803960 <reactStr+0x45>
    reactStr[2][number]=type;
    2c58:	81 e0       	ldi	r24, 0x01	; 1
    2c5a:	90 e0       	ldi	r25, 0x00	; 0
    2c5c:	80 93 9f 39 	sts	0x399F, r24	; 0x80399f <reactStr+0x84>
    2c60:	90 93 a0 39 	sts	0x39A0, r25	; 0x8039a0 <reactStr+0x85>
    return 0;
}

//
void SetResponse(uint8_t number, uint16_t address, uint16_t length, uint8_t type){
    reactStr[0][number]=address;
    2c64:	2d ee       	ldi	r18, 0xED	; 237
    2c66:	39 e7       	ldi	r19, 0x79	; 121
    2c68:	20 93 21 39 	sts	0x3921, r18	; 0x803921 <reactStr+0x6>
    2c6c:	30 93 22 39 	sts	0x3922, r19	; 0x803922 <reactStr+0x7>
    reactStr[1][number]=length;
    2c70:	25 e1       	ldi	r18, 0x15	; 21
    2c72:	30 e0       	ldi	r19, 0x00	; 0
    2c74:	20 93 61 39 	sts	0x3961, r18	; 0x803961 <reactStr+0x46>
    2c78:	30 93 62 39 	sts	0x3962, r19	; 0x803962 <reactStr+0x47>
    reactStr[2][number]=type;
    2c7c:	80 93 a1 39 	sts	0x39A1, r24	; 0x8039a1 <reactStr+0x86>
    2c80:	90 93 a2 39 	sts	0x39A2, r25	; 0x8039a2 <reactStr+0x87>
                SetResponse(elements++, currObj.addrStr[DESC], currObj.lenStr[DESC],GAME);
                SetResponse(elements++, A_LF, 2, TEASER);
                SetResponse(elements++, A_LOOK, L_LOOK, TEASER);

                //Check the visible children first
                route[currDepth+1] = 0;
    2c84:	f0 e0       	ldi	r31, 0x00	; 0
    2c86:	ee 0f       	add	r30, r30
    2c88:	ff 1f       	adc	r31, r31
    2c8a:	e3 52       	subi	r30, 0x23	; 35
    2c8c:	f6 4c       	sbci	r31, 0xC6	; 198
    2c8e:	10 82       	st	Z, r1
    2c90:	11 82       	std	Z+1, r1	; 0x01
            if (inputLen == 1) {

                //Show info about this area first
                SetResponse(elements++, currObj.addrStr[DESC], currObj.lenStr[DESC],GAME);
                SetResponse(elements++, A_LF, 2, TEASER);
                SetResponse(elements++, A_LOOK, L_LOOK, TEASER);
    2c92:	84 e0       	ldi	r24, 0x04	; 4
    2c94:	68 2e       	mov	r6, r24
    return 0;
}

//
void SetResponse(uint8_t number, uint16_t address, uint16_t length, uint8_t type){
    reactStr[0][number]=address;
    2c96:	99 e5       	ldi	r25, 0x59	; 89
    2c98:	c9 2e       	mov	r12, r25
    2c9a:	9a e7       	ldi	r25, 0x7A	; 122
    2c9c:	d9 2e       	mov	r13, r25
    reactStr[1][number]=length;
    2c9e:	22 e0       	ldi	r18, 0x02	; 2
    2ca0:	a2 2e       	mov	r10, r18
    2ca2:	b1 2c       	mov	r11, r1
    reactStr[2][number]=type;
    2ca4:	88 24       	eor	r8, r8
    2ca6:	83 94       	inc	r8
    2ca8:	91 2c       	mov	r9, r1
                SetResponse(elements++, A_LOOK, L_LOOK, TEASER);

                //Check the visible children first
                route[currDepth+1] = 0;
                do{
                    route[currDepth+1] = FindChild(route[currDepth], 0, route[currDepth+1]);
    2caa:	80 91 2c 38 	lds	r24, 0x382C	; 0x80382c <currDepth>
    2cae:	90 e0       	ldi	r25, 0x00	; 0
    2cb0:	9c 01       	movw	r18, r24
    2cb2:	22 0f       	add	r18, r18
    2cb4:	33 1f       	adc	r19, r19
    2cb6:	f9 01       	movw	r30, r18
    2cb8:	e3 52       	subi	r30, 0x23	; 35
    2cba:	f6 4c       	sbci	r31, 0xC6	; 198
    2cbc:	7f 01       	movw	r14, r30
    2cbe:	40 81       	ld	r20, Z
    2cc0:	51 81       	ldd	r21, Z+1	; 0x01
    2cc2:	f9 01       	movw	r30, r18
    2cc4:	e5 52       	subi	r30, 0x25	; 37
    2cc6:	f6 4c       	sbci	r31, 0xC6	; 198
    2cc8:	60 e0       	ldi	r22, 0x00	; 0
    2cca:	80 81       	ld	r24, Z
    2ccc:	91 81       	ldd	r25, Z+1	; 0x01
    2cce:	6e da       	rcall	.-2852   	; 0x21ac <FindChild>
    2cd0:	d7 01       	movw	r26, r14
    2cd2:	8d 93       	st	X+, r24
    2cd4:	9c 93       	st	X, r25
                    if (route[currDepth+1]) {
    2cd6:	e0 91 2c 38 	lds	r30, 0x382C	; 0x80382c <currDepth>
    2cda:	f0 e0       	ldi	r31, 0x00	; 0
    2cdc:	ee 0f       	add	r30, r30
    2cde:	ff 1f       	adc	r31, r31
    2ce0:	e3 52       	subi	r30, 0x23	; 35
    2ce2:	f6 4c       	sbci	r31, 0xC6	; 198
    2ce4:	80 81       	ld	r24, Z
    2ce6:	91 81       	ldd	r25, Z+1	; 0x01
    2ce8:	00 97       	sbiw	r24, 0x00	; 0
    2cea:	09 f4       	brne	.+2      	; 0x2cee <ProcessInput+0x37c>
    2cec:	4a c0       	rjmp	.+148    	; 0x2d82 <ProcessInput+0x410>
                        if ((route[currDepth+1] != inventory[0])&&(route[currDepth+1] != inventory[1])) {
    2cee:	20 91 3e 38 	lds	r18, 0x383E	; 0x80383e <inventory>
    2cf2:	30 91 3f 38 	lds	r19, 0x383F	; 0x80383f <inventory+0x1>
    2cf6:	82 17       	cp	r24, r18
    2cf8:	93 07       	cpc	r25, r19
    2cfa:	09 f4       	brne	.+2      	; 0x2cfe <ProcessInput+0x38c>
    2cfc:	42 c0       	rjmp	.+132    	; 0x2d82 <ProcessInput+0x410>
    2cfe:	20 91 40 38 	lds	r18, 0x3840	; 0x803840 <inventory+0x2>
    2d02:	30 91 41 38 	lds	r19, 0x3841	; 0x803841 <inventory+0x3>
    2d06:	82 17       	cp	r24, r18
    2d08:	93 07       	cpc	r25, r19
                            PopulateObject(route[currDepth+1], &actObj1);
    2d0a:	d9 f1       	breq	.+118    	; 0x2d82 <ProcessInput+0x410>
    2d0c:	6a ed       	ldi	r22, 0xDA	; 218
    2d0e:	78 e3       	ldi	r23, 0x38	; 56
    2d10:	82 d9       	rcall	.-3324   	; 0x2016 <PopulateObject>
                            SetResponse(elements++, actObj1.addrStr[NAME], actObj1.lenStr[NAME],GAME);
    2d12:	80 91 f4 38 	lds	r24, 0x38F4	; 0x8038f4 <actObj1.3999+0x1a>
    2d16:	90 91 f5 38 	lds	r25, 0x38F5	; 0x8038f5 <actObj1.3999+0x1b>
    return 0;
}

//
void SetResponse(uint8_t number, uint16_t address, uint16_t length, uint8_t type){
    reactStr[0][number]=address;
    2d1a:	e6 2d       	mov	r30, r6
    2d1c:	f0 e0       	ldi	r31, 0x00	; 0
    2d1e:	df 01       	movw	r26, r30
    2d20:	aa 0f       	add	r26, r26
    2d22:	bb 1f       	adc	r27, r27
    2d24:	a5 5e       	subi	r26, 0xE5	; 229
    2d26:	b6 4c       	sbci	r27, 0xC6	; 198
    2d28:	20 91 e6 38 	lds	r18, 0x38E6	; 0x8038e6 <actObj1.3999+0xc>
    2d2c:	30 91 e7 38 	lds	r19, 0x38E7	; 0x8038e7 <actObj1.3999+0xd>
    2d30:	2d 93       	st	X+, r18
    2d32:	3c 93       	st	X, r19
    reactStr[1][number]=length;
    2d34:	df 01       	movw	r26, r30
    2d36:	aa 0f       	add	r26, r26
    2d38:	bb 1f       	adc	r27, r27
    2d3a:	a5 5a       	subi	r26, 0xA5	; 165
    2d3c:	b6 4c       	sbci	r27, 0xC6	; 198
    2d3e:	8d 93       	st	X+, r24
    2d40:	9c 93       	st	X, r25
    reactStr[2][number]=type;
    2d42:	ee 0f       	add	r30, r30
    2d44:	ff 1f       	adc	r31, r31
    2d46:	e5 56       	subi	r30, 0x65	; 101
    2d48:	f6 4c       	sbci	r31, 0xC6	; 198
    2d4a:	10 82       	st	Z, r1
    2d4c:	11 82       	std	Z+1, r1	; 0x01
    return 0;
}

//
void SetResponse(uint8_t number, uint16_t address, uint16_t length, uint8_t type){
    reactStr[0][number]=address;
    2d4e:	81 e0       	ldi	r24, 0x01	; 1
    2d50:	86 0d       	add	r24, r6
    2d52:	90 e0       	ldi	r25, 0x00	; 0
    2d54:	63 94       	inc	r6
    2d56:	63 94       	inc	r6
    2d58:	fc 01       	movw	r30, r24
    2d5a:	ee 0f       	add	r30, r30
    2d5c:	ff 1f       	adc	r31, r31
    2d5e:	e5 5e       	subi	r30, 0xE5	; 229
    2d60:	f6 4c       	sbci	r31, 0xC6	; 198
    2d62:	c0 82       	st	Z, r12
    2d64:	d1 82       	std	Z+1, r13	; 0x01
    reactStr[1][number]=length;
    2d66:	fc 01       	movw	r30, r24
    2d68:	ee 0f       	add	r30, r30
    2d6a:	ff 1f       	adc	r31, r31
    2d6c:	e5 5a       	subi	r30, 0xA5	; 165
    2d6e:	f6 4c       	sbci	r31, 0xC6	; 198
    2d70:	a0 82       	st	Z, r10
    2d72:	b1 82       	std	Z+1, r11	; 0x01
    reactStr[2][number]=type;
    2d74:	88 0f       	add	r24, r24
    2d76:	99 1f       	adc	r25, r25
    2d78:	fc 01       	movw	r30, r24
    2d7a:	e5 56       	subi	r30, 0x65	; 101
    2d7c:	f6 4c       	sbci	r31, 0xC6	; 198
    2d7e:	80 82       	st	Z, r8
    2d80:	91 82       	std	Z+1, r9	; 0x01
                            PopulateObject(route[currDepth+1], &actObj1);
                            SetResponse(elements++, actObj1.addrStr[NAME], actObj1.lenStr[NAME],GAME);
                            SetResponse(elements++, A_COMMA, L_COMMA, TEASER);
                        }
                    }
                }while (route[currDepth+1]);
    2d82:	20 91 2c 38 	lds	r18, 0x382C	; 0x80382c <currDepth>
    2d86:	82 2f       	mov	r24, r18
    2d88:	90 e0       	ldi	r25, 0x00	; 0
    2d8a:	fc 01       	movw	r30, r24
    2d8c:	ee 0f       	add	r30, r30
    2d8e:	ff 1f       	adc	r31, r31
    2d90:	e3 52       	subi	r30, 0x23	; 35
    2d92:	f6 4c       	sbci	r31, 0xC6	; 198
    2d94:	40 81       	ld	r20, Z
    2d96:	51 81       	ldd	r21, Z+1	; 0x01
    2d98:	45 2b       	or	r20, r21
    2d9a:	09 f0       	breq	.+2      	; 0x2d9e <ProcessInput+0x42c>
    2d9c:	86 cf       	rjmp	.-244    	; 0x2caa <ProcessInput+0x338>

                //Look back if not on level 0
                if (currDepth) {
    2d9e:	22 23       	and	r18, r18
                    PopulateObject(route[currDepth-1], &actObj1);
    2da0:	69 f1       	breq	.+90     	; 0x2dfc <ProcessInput+0x48a>
    2da2:	88 0f       	add	r24, r24
    2da4:	99 1f       	adc	r25, r25
    2da6:	fc 01       	movw	r30, r24
    2da8:	e7 52       	subi	r30, 0x27	; 39
    2daa:	f6 4c       	sbci	r31, 0xC6	; 198
    2dac:	6a ed       	ldi	r22, 0xDA	; 218
    2dae:	78 e3       	ldi	r23, 0x38	; 56
    2db0:	80 81       	ld	r24, Z
    2db2:	91 81       	ldd	r25, Z+1	; 0x01
    2db4:	30 d9       	rcall	.-3488   	; 0x2016 <PopulateObject>
                    SetResponse(elements++, actObj1.addrStr[NAME], actObj1.lenStr[NAME],GAME);
    2db6:	20 91 f4 38 	lds	r18, 0x38F4	; 0x8038f4 <actObj1.3999+0x1a>
    2dba:	30 91 f5 38 	lds	r19, 0x38F5	; 0x8038f5 <actObj1.3999+0x1b>
    2dbe:	77 24       	eor	r7, r7
    2dc0:	73 94       	inc	r7
    2dc2:	76 0c       	add	r7, r6
    return 0;
}

//
void SetResponse(uint8_t number, uint16_t address, uint16_t length, uint8_t type){
    reactStr[0][number]=address;
    2dc4:	86 2d       	mov	r24, r6
    2dc6:	90 e0       	ldi	r25, 0x00	; 0
    2dc8:	fc 01       	movw	r30, r24
    2dca:	ee 0f       	add	r30, r30
    2dcc:	ff 1f       	adc	r31, r31
    2dce:	e5 5e       	subi	r30, 0xE5	; 229
    2dd0:	f6 4c       	sbci	r31, 0xC6	; 198
    2dd2:	40 91 e6 38 	lds	r20, 0x38E6	; 0x8038e6 <actObj1.3999+0xc>
    2dd6:	50 91 e7 38 	lds	r21, 0x38E7	; 0x8038e7 <actObj1.3999+0xd>
    2dda:	40 83       	st	Z, r20
    2ddc:	51 83       	std	Z+1, r21	; 0x01
    reactStr[1][number]=length;
    2dde:	fc 01       	movw	r30, r24
    2de0:	ee 0f       	add	r30, r30
    2de2:	ff 1f       	adc	r31, r31
    2de4:	e5 5a       	subi	r30, 0xA5	; 165
    2de6:	f6 4c       	sbci	r31, 0xC6	; 198
    2de8:	20 83       	st	Z, r18
    2dea:	31 83       	std	Z+1, r19	; 0x01
    reactStr[2][number]=type;
    2dec:	88 0f       	add	r24, r24
    2dee:	99 1f       	adc	r25, r25
    2df0:	fc 01       	movw	r30, r24
    2df2:	e5 56       	subi	r30, 0x65	; 101
    2df4:	f6 4c       	sbci	r31, 0xC6	; 198
    2df6:	10 82       	st	Z, r1
    2df8:	11 82       	std	Z+1, r1	; 0x01
    2dfa:	ab c5       	rjmp	.+2902   	; 0x3952 <ProcessInput+0xfe0>

                //Look back if not on level 0
                if (currDepth) {
                    PopulateObject(route[currDepth-1], &actObj1);
                    SetResponse(elements++, actObj1.addrStr[NAME], actObj1.lenStr[NAME],GAME);
                } else elements-=1;
    2dfc:	77 24       	eor	r7, r7
    2dfe:	7a 94       	dec	r7
    2e00:	76 0c       	add	r7, r6
    2e02:	a7 c5       	rjmp	.+2894   	; 0x3952 <ProcessInput+0xfe0>

            } else {
                route[currDepth+1] = FindChild(route[currDepth], data[1], 0);
    2e04:	ee 2e       	mov	r14, r30
    2e06:	f1 2c       	mov	r15, r1
    2e08:	f7 01       	movw	r30, r14
    2e0a:	ee 0f       	add	r30, r30
    2e0c:	ff 1f       	adc	r31, r31
    2e0e:	e5 52       	subi	r30, 0x25	; 37
    2e10:	f6 4c       	sbci	r31, 0xC6	; 198
    2e12:	40 e0       	ldi	r20, 0x00	; 0
    2e14:	50 e0       	ldi	r21, 0x00	; 0
    2e16:	d8 01       	movw	r26, r16
    2e18:	11 96       	adiw	r26, 0x01	; 1
    2e1a:	6c 91       	ld	r22, X
    2e1c:	80 81       	ld	r24, Z
    2e1e:	91 81       	ldd	r25, Z+1	; 0x01
    2e20:	c5 d9       	rcall	.-3190   	; 0x21ac <FindChild>
    2e22:	f7 01       	movw	r30, r14
    2e24:	ee 0f       	add	r30, r30
    2e26:	ff 1f       	adc	r31, r31
    2e28:	e3 52       	subi	r30, 0x23	; 35
    2e2a:	f6 4c       	sbci	r31, 0xC6	; 198
    2e2c:	80 83       	st	Z, r24
    2e2e:	91 83       	std	Z+1, r25	; 0x01
                if (route[currDepth+1]) {
    2e30:	90 91 2c 38 	lds	r25, 0x382C	; 0x80382c <currDepth>
    2e34:	29 2f       	mov	r18, r25
    2e36:	30 e0       	ldi	r19, 0x00	; 0
    2e38:	f9 01       	movw	r30, r18
    2e3a:	ee 0f       	add	r30, r30
    2e3c:	ff 1f       	adc	r31, r31
    2e3e:	e3 52       	subi	r30, 0x23	; 35
    2e40:	f6 4c       	sbci	r31, 0xC6	; 198
    2e42:	40 81       	ld	r20, Z
    2e44:	51 81       	ldd	r21, Z+1	; 0x01
    2e46:	41 15       	cp	r20, r1
    2e48:	51 05       	cpc	r21, r1
    2e4a:	21 f0       	breq	.+8      	; 0x2e54 <ProcessInput+0x4e2>
                    PopulateObject(route[currDepth+1], &actObj1);
    2e4c:	6a ed       	ldi	r22, 0xDA	; 218
    2e4e:	78 e3       	ldi	r23, 0x38	; 56
    2e50:	ca 01       	movw	r24, r20
    2e52:	1e c0       	rjmp	.+60     	; 0x2e90 <ProcessInput+0x51e>
//TODO: CHECKSTATE -> A_CANTLOOK item
                    SetResponse(elements++, actObj1.addrStr[DESC], actObj1.lenStr[DESC],GAME);   
                } else if (currDepth) {
    2e54:	99 23       	and	r25, r25
    2e56:	09 f4       	brne	.+2      	; 0x2e5a <ProcessInput+0x4e8>
                    if (CheckLetter(route[currDepth-1], data[1])) {
    2e58:	ae c5       	rjmp	.+2908   	; 0x39b6 <ProcessInput+0x1044>
    2e5a:	22 0f       	add	r18, r18
    2e5c:	33 1f       	adc	r19, r19
    2e5e:	f9 01       	movw	r30, r18
    2e60:	e7 52       	subi	r30, 0x27	; 39
    2e62:	f6 4c       	sbci	r31, 0xC6	; 198
    2e64:	d8 01       	movw	r26, r16
    2e66:	11 96       	adiw	r26, 0x01	; 1
    2e68:	6c 91       	ld	r22, X
    2e6a:	80 81       	ld	r24, Z
    2e6c:	91 81       	ldd	r25, Z+1	; 0x01
    2e6e:	4a d9       	rcall	.-3436   	; 0x2104 <CheckLetter>
    2e70:	81 11       	cpse	r24, r1
    2e72:	03 c0       	rjmp	.+6      	; 0x2e7a <ProcessInput+0x508>
}

//The game logic!
uint8_t ProcessInput(uint8_t *data){
    static object_model_t actObj1, actObj2;
    uint8_t elements = 1;
    2e74:	77 24       	eor	r7, r7
    2e76:	73 94       	inc	r7
                    PopulateObject(route[currDepth+1], &actObj1);
//TODO: CHECKSTATE -> A_CANTLOOK item
                    SetResponse(elements++, actObj1.addrStr[DESC], actObj1.lenStr[DESC],GAME);   
                } else if (currDepth) {
                    if (CheckLetter(route[currDepth-1], data[1])) {
                        PopulateObject(route[currDepth-1], &actObj1);
    2e78:	6c c5       	rjmp	.+2776   	; 0x3952 <ProcessInput+0xfe0>
    2e7a:	e0 91 2c 38 	lds	r30, 0x382C	; 0x80382c <currDepth>
    2e7e:	f0 e0       	ldi	r31, 0x00	; 0
    2e80:	ee 0f       	add	r30, r30
    2e82:	ff 1f       	adc	r31, r31
    2e84:	e7 52       	subi	r30, 0x27	; 39
    2e86:	f6 4c       	sbci	r31, 0xC6	; 198
    2e88:	6a ed       	ldi	r22, 0xDA	; 218
    2e8a:	78 e3       	ldi	r23, 0x38	; 56
    2e8c:	80 81       	ld	r24, Z
    2e8e:	91 81       	ldd	r25, Z+1	; 0x01
    2e90:	c2 d8       	rcall	.-3708   	; 0x2016 <PopulateObject>
                        SetResponse(elements++, actObj1.addrStr[DESC], actObj1.lenStr[DESC],GAME);
    2e92:	80 91 f6 38 	lds	r24, 0x38F6	; 0x8038f6 <actObj1.3999+0x1c>
    2e96:	90 91 f7 38 	lds	r25, 0x38F7	; 0x8038f7 <actObj1.3999+0x1d>
    return 0;
}

//
void SetResponse(uint8_t number, uint16_t address, uint16_t length, uint8_t type){
    reactStr[0][number]=address;
    2e9a:	20 91 e8 38 	lds	r18, 0x38E8	; 0x8038e8 <actObj1.3999+0xe>
    2e9e:	30 91 e9 38 	lds	r19, 0x38E9	; 0x8038e9 <actObj1.3999+0xf>
    2ea2:	20 93 1d 39 	sts	0x391D, r18	; 0x80391d <reactStr+0x2>
    2ea6:	30 93 1e 39 	sts	0x391E, r19	; 0x80391e <reactStr+0x3>
    reactStr[1][number]=length;
    2eaa:	80 93 5d 39 	sts	0x395D, r24	; 0x80395d <reactStr+0x42>
    2eae:	90 93 5e 39 	sts	0x395E, r25	; 0x80395e <reactStr+0x43>
    reactStr[2][number]=type;
    2eb2:	10 92 9d 39 	sts	0x399D, r1	; 0x80399d <reactStr+0x82>
    2eb6:	10 92 9e 39 	sts	0x399E, r1	; 0x80399e <reactStr+0x83>
    2eba:	2a ce       	rjmp	.-940    	; 0x2b10 <ProcessInput+0x19e>
                    SetResponse(elements++, A_DONTSEE, L_DONTSEE, TEASER);
                }
            }
        
        //Pick up an object
        } else if (data[0] == 'p') {
    2ebc:	80 37       	cpi	r24, 0x70	; 112
    2ebe:	09 f0       	breq	.+2      	; 0x2ec2 <ProcessInput+0x550>
    2ec0:	96 c0       	rjmp	.+300    	; 0x2fee <ProcessInput+0x67c>
            if (inventory[0]&&inventory[1]) {
    2ec2:	80 91 3e 38 	lds	r24, 0x383E	; 0x80383e <inventory>
    2ec6:	90 91 3f 38 	lds	r25, 0x383F	; 0x80383f <inventory+0x1>
    2eca:	89 2b       	or	r24, r25
    2ecc:	79 f0       	breq	.+30     	; 0x2eec <ProcessInput+0x57a>
    2ece:	80 91 40 38 	lds	r24, 0x3840	; 0x803840 <inventory+0x2>
    2ed2:	90 91 41 38 	lds	r25, 0x3841	; 0x803841 <inventory+0x3>
    2ed6:	89 2b       	or	r24, r25
    2ed8:	49 f0       	breq	.+18     	; 0x2eec <ProcessInput+0x57a>
    return 0;
}

//
void SetResponse(uint8_t number, uint16_t address, uint16_t length, uint8_t type){
    reactStr[0][number]=address;
    2eda:	84 e4       	ldi	r24, 0x44	; 68
    2edc:	98 e7       	ldi	r25, 0x78	; 120
    2ede:	80 93 1d 39 	sts	0x391D, r24	; 0x80391d <reactStr+0x2>
    2ee2:	90 93 1e 39 	sts	0x391E, r25	; 0x80391e <reactStr+0x3>
    reactStr[1][number]=length;
    2ee6:	89 e5       	ldi	r24, 0x59	; 89
    2ee8:	90 e0       	ldi	r25, 0x00	; 0
    2eea:	08 ce       	rjmp	.-1008   	; 0x2afc <ProcessInput+0x18a>
        
        //Pick up an object
        } else if (data[0] == 'p') {
            if (inventory[0]&&inventory[1]) {
                SetResponse(elements++, A_CARRYTWO, L_CARRYTWO, TEASER);
            } else if (inputLen != 2) {
    2eec:	b2 e0       	ldi	r27, 0x02	; 2
    2eee:	fb 12       	cpse	r15, r27
    2ef0:	70 cd       	rjmp	.-1312   	; 0x29d2 <ProcessInput+0x60>
                SetResponse(elements++, A_NOTPOSSIBLE, L_NOTPOSSIBLE, TEASER);
            } else {
                route[currDepth+1] = FindChild(route[currDepth], data[1], 0);
    2ef2:	e0 90 2c 38 	lds	r14, 0x382C	; 0x80382c <currDepth>
    2ef6:	f1 2c       	mov	r15, r1
    2ef8:	f7 01       	movw	r30, r14
    2efa:	ee 0f       	add	r30, r30
    2efc:	ff 1f       	adc	r31, r31
    2efe:	e5 52       	subi	r30, 0x25	; 37
    2f00:	f6 4c       	sbci	r31, 0xC6	; 198
    2f02:	40 e0       	ldi	r20, 0x00	; 0
    2f04:	50 e0       	ldi	r21, 0x00	; 0
    2f06:	d8 01       	movw	r26, r16
    2f08:	11 96       	adiw	r26, 0x01	; 1
    2f0a:	6c 91       	ld	r22, X
    2f0c:	80 81       	ld	r24, Z
    2f0e:	91 81       	ldd	r25, Z+1	; 0x01
    2f10:	4d d9       	rcall	.-3430   	; 0x21ac <FindChild>
    2f12:	f7 01       	movw	r30, r14
    2f14:	ee 0f       	add	r30, r30
    2f16:	ff 1f       	adc	r31, r31
    2f18:	e3 52       	subi	r30, 0x23	; 35
    2f1a:	f6 4c       	sbci	r31, 0xC6	; 198
    2f1c:	80 83       	st	Z, r24
    2f1e:	91 83       	std	Z+1, r25	; 0x01
                if (route[currDepth+1]) {
    2f20:	20 91 2c 38 	lds	r18, 0x382C	; 0x80382c <currDepth>
    2f24:	30 e0       	ldi	r19, 0x00	; 0
    2f26:	2f 5f       	subi	r18, 0xFF	; 255
    2f28:	3f 4f       	sbci	r19, 0xFF	; 255
    2f2a:	22 0f       	add	r18, r18
    2f2c:	33 1f       	adc	r19, r19
    2f2e:	f9 01       	movw	r30, r18
    2f30:	e5 52       	subi	r30, 0x25	; 37
    2f32:	f6 4c       	sbci	r31, 0xC6	; 198
    2f34:	80 81       	ld	r24, Z
    2f36:	91 81       	ldd	r25, Z+1	; 0x01
    2f38:	00 97       	sbiw	r24, 0x00	; 0
    2f3a:	09 f4       	brne	.+2      	; 0x2f3e <ProcessInput+0x5cc>
    2f3c:	ca c3       	rjmp	.+1940   	; 0x36d2 <ProcessInput+0xd60>
                    if ((route[currDepth+1] == inventory[0])||(route[currDepth+1] == inventory[1])) {
    2f3e:	40 91 3e 38 	lds	r20, 0x383E	; 0x80383e <inventory>
    2f42:	50 91 3f 38 	lds	r21, 0x383F	; 0x80383f <inventory+0x1>
    2f46:	84 17       	cp	r24, r20
    2f48:	95 07       	cpc	r25, r21
    2f4a:	39 f0       	breq	.+14     	; 0x2f5a <ProcessInput+0x5e8>
    2f4c:	40 91 40 38 	lds	r20, 0x3840	; 0x803840 <inventory+0x2>
    2f50:	50 91 41 38 	lds	r21, 0x3841	; 0x803841 <inventory+0x3>
    2f54:	84 17       	cp	r24, r20
    2f56:	95 07       	cpc	r25, r21
    2f58:	c1 f4       	brne	.+48     	; 0x2f8a <ProcessInput+0x618>
    return 0;
}

//
void SetResponse(uint8_t number, uint16_t address, uint16_t length, uint8_t type){
    reactStr[0][number]=address;
    2f5a:	8f e1       	ldi	r24, 0x1F	; 31
    2f5c:	98 e7       	ldi	r25, 0x78	; 120
    2f5e:	80 93 1d 39 	sts	0x391D, r24	; 0x80391d <reactStr+0x2>
    2f62:	90 93 1e 39 	sts	0x391E, r25	; 0x80391e <reactStr+0x3>
    reactStr[1][number]=length;
    2f66:	85 e2       	ldi	r24, 0x25	; 37
    2f68:	90 e0       	ldi	r25, 0x00	; 0
    2f6a:	80 93 5d 39 	sts	0x395D, r24	; 0x80395d <reactStr+0x42>
    2f6e:	90 93 5e 39 	sts	0x395E, r25	; 0x80395e <reactStr+0x43>
    reactStr[2][number]=type;
    2f72:	81 e0       	ldi	r24, 0x01	; 1
    2f74:	90 e0       	ldi	r25, 0x00	; 0
    2f76:	80 93 9d 39 	sts	0x399D, r24	; 0x80399d <reactStr+0x82>
    2f7a:	90 93 9e 39 	sts	0x399E, r25	; 0x80399e <reactStr+0x83>
            } else {
                route[currDepth+1] = FindChild(route[currDepth], data[1], 0);
                if (route[currDepth+1]) {
                    if ((route[currDepth+1] == inventory[0])||(route[currDepth+1] == inventory[1])) {
                        SetResponse(elements++, A_ALREADYCARRYING, L_ALREADYCARRYING, TEASER);
                        route[currDepth+1] = 0;
    2f7e:	f9 01       	movw	r30, r18
    2f80:	e5 52       	subi	r30, 0x25	; 37
    2f82:	f6 4c       	sbci	r31, 0xC6	; 198
    2f84:	10 82       	st	Z, r1
    2f86:	11 82       	std	Z+1, r1	; 0x01
                    } else {
                        //Put item in the inventory if possible
                        PopulateObject(route[currDepth+1], &actObj1);  
    2f88:	c3 cd       	rjmp	.-1146   	; 0x2b10 <ProcessInput+0x19e>
    2f8a:	6a ed       	ldi	r22, 0xDA	; 218
    2f8c:	78 e3       	ldi	r23, 0x38	; 56
    2f8e:	43 d8       	rcall	.-3962   	; 0x2016 <PopulateObject>
                        if (CheckState(actObj1.byteField[ACTION_ACL])) {
    2f90:	80 91 e1 38 	lds	r24, 0x38E1	; 0x8038e1 <actObj1.3999+0x7>
    2f94:	0e 94 a5 0a 	call	0x154a	; 0x154a <CheckState>
    2f98:	88 23       	and	r24, r24
    2f9a:	09 f4       	brne	.+2      	; 0x2f9e <ProcessInput+0x62c>
    2f9c:	75 c3       	rjmp	.+1770   	; 0x3688 <ProcessInput+0xd16>
                            if (actObj1.byteField[ITEM_NR]) {
    2f9e:	80 91 e5 38 	lds	r24, 0x38E5	; 0x8038e5 <actObj1.3999+0xb>
    2fa2:	88 23       	and	r24, r24
    2fa4:	09 f4       	brne	.+2      	; 0x2fa8 <ProcessInput+0x636>
    2fa6:	15 cd       	rjmp	.-1494   	; 0x29d2 <ProcessInput+0x60>
                                if (inventory[0]) {
    2fa8:	80 91 3e 38 	lds	r24, 0x383E	; 0x80383e <inventory>
    2fac:	90 91 3f 38 	lds	r25, 0x383F	; 0x80383f <inventory+0x1>
    2fb0:	e0 91 2c 38 	lds	r30, 0x382C	; 0x80382c <currDepth>
                                    inventory[1] = route[currDepth+1];
    2fb4:	f0 e0       	ldi	r31, 0x00	; 0
    2fb6:	ee 0f       	add	r30, r30
    2fb8:	ff 1f       	adc	r31, r31
    2fba:	e3 52       	subi	r30, 0x23	; 35
    2fbc:	f6 4c       	sbci	r31, 0xC6	; 198
                    } else {
                        //Put item in the inventory if possible
                        PopulateObject(route[currDepth+1], &actObj1);  
                        if (CheckState(actObj1.byteField[ACTION_ACL])) {
                            if (actObj1.byteField[ITEM_NR]) {
                                if (inventory[0]) {
    2fbe:	89 2b       	or	r24, r25
    2fc0:	39 f0       	breq	.+14     	; 0x2fd0 <ProcessInput+0x65e>
                                    inventory[1] = route[currDepth+1];
    2fc2:	80 81       	ld	r24, Z
    2fc4:	91 81       	ldd	r25, Z+1	; 0x01
    2fc6:	80 93 40 38 	sts	0x3840, r24	; 0x803840 <inventory+0x2>
    2fca:	90 93 41 38 	sts	0x3841, r25	; 0x803841 <inventory+0x3>
    2fce:	06 c0       	rjmp	.+12     	; 0x2fdc <ProcessInput+0x66a>
                                } else {
                                    inventory[0] = route[currDepth+1];
    2fd0:	80 81       	ld	r24, Z
    2fd2:	91 81       	ldd	r25, Z+1	; 0x01
    2fd4:	80 93 3e 38 	sts	0x383E, r24	; 0x80383e <inventory>
    2fd8:	90 93 3f 38 	sts	0x383F, r25	; 0x80383f <inventory+0x1>
    return 0;
}

//
void SetResponse(uint8_t number, uint16_t address, uint16_t length, uint8_t type){
    reactStr[0][number]=address;
    2fdc:	89 e0       	ldi	r24, 0x09	; 9
    2fde:	98 e7       	ldi	r25, 0x78	; 120
    2fe0:	80 93 1d 39 	sts	0x391D, r24	; 0x80391d <reactStr+0x2>
    2fe4:	90 93 1e 39 	sts	0x391E, r25	; 0x80391e <reactStr+0x3>
    reactStr[1][number]=length;
    2fe8:	86 e1       	ldi	r24, 0x16	; 22
    2fea:	90 e0       	ldi	r25, 0x00	; 0
    2fec:	5e c2       	rjmp	.+1212   	; 0x34aa <ProcessInput+0xb38>
                } else SetResponse(elements++, A_NOSUCHOBJECT, L_NOSUCHOBJECT, TEASER);
            }
        } else

        //Drop item if in inventory
        if (data[0] == 'd') {
    2fee:	84 36       	cpi	r24, 0x64	; 100
    2ff0:	d9 f4       	brne	.+54     	; 0x3028 <ProcessInput+0x6b6>
            if ((inventory[0] == 0)&&(inventory[1] == 0)){
    2ff2:	80 91 3e 38 	lds	r24, 0x383E	; 0x80383e <inventory>
    2ff6:	90 91 3f 38 	lds	r25, 0x383F	; 0x80383f <inventory+0x1>
    2ffa:	00 97       	sbiw	r24, 0x00	; 0
    2ffc:	09 f0       	breq	.+2      	; 0x3000 <ProcessInput+0x68e>
    2ffe:	de c4       	rjmp	.+2492   	; 0x39bc <ProcessInput+0x104a>
    3000:	80 91 40 38 	lds	r24, 0x3840	; 0x803840 <inventory+0x2>
    3004:	90 91 41 38 	lds	r25, 0x3841	; 0x803841 <inventory+0x3>
    3008:	89 2b       	or	r24, r25
    300a:	49 f4       	brne	.+18     	; 0x301e <ProcessInput+0x6ac>
    return 0;
}

//
void SetResponse(uint8_t number, uint16_t address, uint16_t length, uint8_t type){
    reactStr[0][number]=address;
    300c:	83 ee       	ldi	r24, 0xE3	; 227
    300e:	97 e7       	ldi	r25, 0x77	; 119
    3010:	80 93 1d 39 	sts	0x391D, r24	; 0x80391d <reactStr+0x2>
    3014:	90 93 1e 39 	sts	0x391E, r25	; 0x80391e <reactStr+0x3>
    reactStr[1][number]=length;
    3018:	86 e2       	ldi	r24, 0x26	; 38
    301a:	90 e0       	ldi	r25, 0x00	; 0
    301c:	6f cd       	rjmp	.-1314   	; 0x2afc <ProcessInput+0x18a>

        //Drop item if in inventory
        if (data[0] == 'd') {
            if ((inventory[0] == 0)&&(inventory[1] == 0)){
                SetResponse(elements++, A_EMPTYHANDS, L_EMPTYHANDS, TEASER);
            } else if (inputLen != 2) {
    301e:	b2 e0       	ldi	r27, 0x02	; 2
    3020:	fb 16       	cp	r15, r27
    3022:	09 f4       	brne	.+2      	; 0x3026 <ProcessInput+0x6b4>
    3024:	31 c5       	rjmp	.+2658   	; 0x3a88 <ProcessInput+0x1116>
    3026:	d5 cc       	rjmp	.-1622   	; 0x29d2 <ProcessInput+0x60>
                    if (x) SetResponse(elements++, A_NOTCARRYING, L_NOTCARRYING, TEASER);
                }
            }

        //Inventory list
        } else if (data[0] == 'i') {
    3028:	89 36       	cpi	r24, 0x69	; 105
    302a:	09 f0       	breq	.+2      	; 0x302e <ProcessInput+0x6bc>
    302c:	7b c0       	rjmp	.+246    	; 0x3124 <ProcessInput+0x7b2>
            if ((inventory[0] == 0)&&(inventory[1] == 0)){
    302e:	80 91 3e 38 	lds	r24, 0x383E	; 0x80383e <inventory>
    3032:	90 91 3f 38 	lds	r25, 0x383F	; 0x80383f <inventory+0x1>
    3036:	89 2b       	or	r24, r25
    3038:	31 f4       	brne	.+12     	; 0x3046 <ProcessInput+0x6d4>
    303a:	80 91 40 38 	lds	r24, 0x3840	; 0x803840 <inventory+0x2>
    303e:	90 91 41 38 	lds	r25, 0x3841	; 0x803841 <inventory+0x3>
    3042:	89 2b       	or	r24, r25
    3044:	19 f3       	breq	.-58     	; 0x300c <ProcessInput+0x69a>
    return 0;
}

//
void SetResponse(uint8_t number, uint16_t address, uint16_t length, uint8_t type){
    reactStr[0][number]=address;
    3046:	89 e0       	ldi	r24, 0x09	; 9
    3048:	98 e7       	ldi	r25, 0x78	; 120
    304a:	80 93 1d 39 	sts	0x391D, r24	; 0x80391d <reactStr+0x2>
    304e:	90 93 1e 39 	sts	0x391E, r25	; 0x80391e <reactStr+0x3>
    reactStr[1][number]=length;
    3052:	86 e1       	ldi	r24, 0x16	; 22
    3054:	90 e0       	ldi	r25, 0x00	; 0
    3056:	80 93 5d 39 	sts	0x395D, r24	; 0x80395d <reactStr+0x42>
    305a:	90 93 5e 39 	sts	0x395E, r25	; 0x80395e <reactStr+0x43>
    reactStr[2][number]=type;
    305e:	81 e0       	ldi	r24, 0x01	; 1
    3060:	90 e0       	ldi	r25, 0x00	; 0
    3062:	80 93 9d 39 	sts	0x399D, r24	; 0x80399d <reactStr+0x82>
    3066:	90 93 9e 39 	sts	0x399E, r25	; 0x80399e <reactStr+0x83>
    306a:	2e e3       	ldi	r18, 0x3E	; 62
    306c:	e2 2e       	mov	r14, r18
    306e:	28 e3       	ldi	r18, 0x38	; 56
    3070:	f2 2e       	mov	r15, r18
    3072:	32 e4       	ldi	r19, 0x42	; 66
    3074:	63 2e       	mov	r6, r19
    3076:	38 e3       	ldi	r19, 0x38	; 56
    3078:	73 2e       	mov	r7, r19
        //Inventory list
        } else if (data[0] == 'i') {
            if ((inventory[0] == 0)&&(inventory[1] == 0)){
                SetResponse(elements++, A_EMPTYHANDS, L_EMPTYHANDS, TEASER);
            } else {
                SetResponse(elements++, A_NOWCARRING, L_NOWCARRING, TEASER);
    307a:	42 e0       	ldi	r20, 0x02	; 2
    307c:	54 2e       	mov	r5, r20
    return 0;
}

//
void SetResponse(uint8_t number, uint16_t address, uint16_t length, uint8_t type){
    reactStr[0][number]=address;
    307e:	59 e5       	ldi	r21, 0x59	; 89
    3080:	c5 2e       	mov	r12, r21
    3082:	5a e7       	ldi	r21, 0x7A	; 122
    3084:	d5 2e       	mov	r13, r21
    reactStr[1][number]=length;
    3086:	62 e0       	ldi	r22, 0x02	; 2
    3088:	a6 2e       	mov	r10, r22
    308a:	b1 2c       	mov	r11, r1
    reactStr[2][number]=type;
    308c:	88 24       	eor	r8, r8
    308e:	83 94       	inc	r8
    3090:	91 2c       	mov	r9, r1
            } else {
                SetResponse(elements++, A_NOWCARRING, L_NOWCARRING, TEASER);
                //SetResponse(elements++, A_SPACE, L_SPACE, TEASER);
                
                for (uint8_t x=0; x<2; ++x) {
                    if (inventory[x]) {
    3092:	d7 01       	movw	r26, r14
    3094:	8d 91       	ld	r24, X+
    3096:	9d 91       	ld	r25, X+
    3098:	7d 01       	movw	r14, r26
    309a:	00 97       	sbiw	r24, 0x00	; 0
    309c:	d9 f1       	breq	.+118    	; 0x3114 <ProcessInput+0x7a2>
                        PopulateObject(inventory[x], &actObj1);
    309e:	6a ed       	ldi	r22, 0xDA	; 218
    30a0:	78 e3       	ldi	r23, 0x38	; 56
    30a2:	0e 94 0b 10 	call	0x2016	; 0x2016 <PopulateObject>
                        SetResponse(elements++, actObj1.addrStr[NAME], actObj1.lenStr[NAME], GAME);
    30a6:	80 91 f4 38 	lds	r24, 0x38F4	; 0x8038f4 <actObj1.3999+0x1a>
    30aa:	90 91 f5 38 	lds	r25, 0x38F5	; 0x8038f5 <actObj1.3999+0x1b>
    return 0;
}

//
void SetResponse(uint8_t number, uint16_t address, uint16_t length, uint8_t type){
    reactStr[0][number]=address;
    30ae:	e5 2d       	mov	r30, r5
    30b0:	f0 e0       	ldi	r31, 0x00	; 0
    30b2:	df 01       	movw	r26, r30
    30b4:	aa 0f       	add	r26, r26
    30b6:	bb 1f       	adc	r27, r27
    30b8:	a5 5e       	subi	r26, 0xE5	; 229
    30ba:	b6 4c       	sbci	r27, 0xC6	; 198
    30bc:	20 91 e6 38 	lds	r18, 0x38E6	; 0x8038e6 <actObj1.3999+0xc>
    30c0:	30 91 e7 38 	lds	r19, 0x38E7	; 0x8038e7 <actObj1.3999+0xd>
    30c4:	2d 93       	st	X+, r18
    30c6:	3c 93       	st	X, r19
    reactStr[1][number]=length;
    30c8:	df 01       	movw	r26, r30
    30ca:	aa 0f       	add	r26, r26
    30cc:	bb 1f       	adc	r27, r27
    30ce:	a5 5a       	subi	r26, 0xA5	; 165
    30d0:	b6 4c       	sbci	r27, 0xC6	; 198
    30d2:	8d 93       	st	X+, r24
    30d4:	9c 93       	st	X, r25
    reactStr[2][number]=type;
    30d6:	ee 0f       	add	r30, r30
    30d8:	ff 1f       	adc	r31, r31
    30da:	e5 56       	subi	r30, 0x65	; 101
    30dc:	f6 4c       	sbci	r31, 0xC6	; 198
    30de:	10 82       	st	Z, r1
    30e0:	11 82       	std	Z+1, r1	; 0x01
    return 0;
}

//
void SetResponse(uint8_t number, uint16_t address, uint16_t length, uint8_t type){
    reactStr[0][number]=address;
    30e2:	e1 e0       	ldi	r30, 0x01	; 1
    30e4:	e5 0d       	add	r30, r5
    30e6:	f0 e0       	ldi	r31, 0x00	; 0
    30e8:	53 94       	inc	r5
    30ea:	53 94       	inc	r5
    30ec:	df 01       	movw	r26, r30
    30ee:	aa 0f       	add	r26, r26
    30f0:	bb 1f       	adc	r27, r27
    30f2:	a5 5e       	subi	r26, 0xE5	; 229
    30f4:	b6 4c       	sbci	r27, 0xC6	; 198
    30f6:	cd 92       	st	X+, r12
    30f8:	dc 92       	st	X, r13
    reactStr[1][number]=length;
    30fa:	df 01       	movw	r26, r30
    30fc:	aa 0f       	add	r26, r26
    30fe:	bb 1f       	adc	r27, r27
    3100:	a5 5a       	subi	r26, 0xA5	; 165
    3102:	b6 4c       	sbci	r27, 0xC6	; 198
    3104:	ad 92       	st	X+, r10
    3106:	bc 92       	st	X, r11
    reactStr[2][number]=type;
    3108:	ee 0f       	add	r30, r30
    310a:	ff 1f       	adc	r31, r31
    310c:	e5 56       	subi	r30, 0x65	; 101
    310e:	f6 4c       	sbci	r31, 0xC6	; 198
    3110:	80 82       	st	Z, r8
    3112:	91 82       	std	Z+1, r9	; 0x01
                SetResponse(elements++, A_EMPTYHANDS, L_EMPTYHANDS, TEASER);
            } else {
                SetResponse(elements++, A_NOWCARRING, L_NOWCARRING, TEASER);
                //SetResponse(elements++, A_SPACE, L_SPACE, TEASER);
                
                for (uint8_t x=0; x<2; ++x) {
    3114:	6e 14       	cp	r6, r14
    3116:	7f 04       	cpc	r7, r15
    3118:	09 f0       	breq	.+2      	; 0x311c <ProcessInput+0x7aa>
    311a:	bb cf       	rjmp	.-138    	; 0x3092 <ProcessInput+0x720>
                        SetResponse(elements++, actObj1.addrStr[NAME], actObj1.lenStr[NAME], GAME);
                        SetResponse(elements++, A_COMMA, L_COMMA, TEASER);
                        //SetResponse(elements++, A_SPACE, L_SPACE, TEASER);
                    }
                }
                elements -= 1;
    311c:	77 24       	eor	r7, r7
    311e:	7a 94       	dec	r7
    3120:	75 0c       	add	r7, r5
    3122:	17 c4       	rjmp	.+2094   	; 0x3952 <ProcessInput+0xfe0>
            }            
        
        //Talk, use, give, read
        } else if ((data[0] == 't')||(data[0] == 'u')||(data[0] == 'g')||(data[0] == 'r')) {
    3124:	9c e8       	ldi	r25, 0x8C	; 140
    3126:	98 0f       	add	r25, r24
    3128:	92 30       	cpi	r25, 0x02	; 2
    312a:	28 f0       	brcs	.+10     	; 0x3136 <ProcessInput+0x7c4>
    312c:	87 36       	cpi	r24, 0x67	; 103
    312e:	19 f0       	breq	.+6      	; 0x3136 <ProcessInput+0x7c4>
    3130:	82 37       	cpi	r24, 0x72	; 114
    3132:	09 f0       	breq	.+2      	; 0x3136 <ProcessInput+0x7c4>
    3134:	d7 c2       	rjmp	.+1454   	; 0x36e4 <ProcessInput+0xd72>
            if ((inputLen<2)||(inputLen>3)) {
    3136:	8e ef       	ldi	r24, 0xFE	; 254
    3138:	8f 0d       	add	r24, r15
    313a:	82 30       	cpi	r24, 0x02	; 2
    313c:	08 f0       	brcs	.+2      	; 0x3140 <ProcessInput+0x7ce>
    313e:	49 cc       	rjmp	.-1902   	; 0x29d2 <ProcessInput+0x60>
                SetResponse(elements++, A_NOTPOSSIBLE, L_NOTPOSSIBLE, TEASER);                
            
            //Check for visible person or object first
            } else {
                route[currDepth+1] = FindChild(route[currDepth], data[inputLen-1], 0);
    3140:	e0 91 2c 38 	lds	r30, 0x382C	; 0x80382c <currDepth>
    3144:	ce 2e       	mov	r12, r30
    3146:	d1 2c       	mov	r13, r1
    3148:	d8 01       	movw	r26, r16
    314a:	af 0d       	add	r26, r15
    314c:	b1 1d       	adc	r27, r1
    314e:	11 97       	sbiw	r26, 0x01	; 1
    3150:	f6 01       	movw	r30, r12
    3152:	ee 0f       	add	r30, r30
    3154:	ff 1f       	adc	r31, r31
    3156:	e5 52       	subi	r30, 0x25	; 37
    3158:	f6 4c       	sbci	r31, 0xC6	; 198
    315a:	40 e0       	ldi	r20, 0x00	; 0
    315c:	50 e0       	ldi	r21, 0x00	; 0
    315e:	6c 91       	ld	r22, X
    3160:	80 81       	ld	r24, Z
    3162:	91 81       	ldd	r25, Z+1	; 0x01
    3164:	23 d8       	rcall	.-4026   	; 0x21ac <FindChild>
    3166:	f6 01       	movw	r30, r12
    3168:	ee 0f       	add	r30, r30
    316a:	ff 1f       	adc	r31, r31
    316c:	e3 52       	subi	r30, 0x23	; 35
    316e:	f6 4c       	sbci	r31, 0xC6	; 198
    3170:	80 83       	st	Z, r24
    3172:	91 83       	std	Z+1, r25	; 0x01
                if (route[currDepth+1]) {
    3174:	e0 91 2c 38 	lds	r30, 0x382C	; 0x80382c <currDepth>
    3178:	f0 e0       	ldi	r31, 0x00	; 0
    317a:	ee 0f       	add	r30, r30
    317c:	ff 1f       	adc	r31, r31
    317e:	e3 52       	subi	r30, 0x23	; 35
    3180:	f6 4c       	sbci	r31, 0xC6	; 198
    3182:	80 81       	ld	r24, Z
    3184:	91 81       	ldd	r25, Z+1	; 0x01
    3186:	00 97       	sbiw	r24, 0x00	; 0
    3188:	09 f4       	brne	.+2      	; 0x318c <ProcessInput+0x81a>
    318a:	9a c2       	rjmp	.+1332   	; 0x36c0 <ProcessInput+0xd4e>
                    
                    //Give item to person / use item on object 
                    if ((inputLen == 3)&&((data[0] == 'u')||(data[0] == 'g'))) {
    318c:	b3 e0       	ldi	r27, 0x03	; 3
    318e:	fb 12       	cpse	r15, r27
    3190:	78 c1       	rjmp	.+752    	; 0x3482 <ProcessInput+0xb10>
    3192:	f8 01       	movw	r30, r16
    3194:	20 81       	ld	r18, Z
    3196:	25 37       	cpi	r18, 0x75	; 117
    3198:	19 f0       	breq	.+6      	; 0x31a0 <ProcessInput+0x82e>
    319a:	27 36       	cpi	r18, 0x67	; 103
    319c:	09 f0       	breq	.+2      	; 0x31a0 <ProcessInput+0x82e>
    319e:	71 c1       	rjmp	.+738    	; 0x3482 <ProcessInput+0xb10>
    31a0:	61 2c       	mov	r6, r1
    31a2:	77 24       	eor	r7, r7
    31a4:	73 94       	inc	r7
    return 0;
}

//
void SetResponse(uint8_t number, uint16_t address, uint16_t length, uint8_t type){
    reactStr[0][number]=address;
    31a6:	53 e6       	ldi	r21, 0x63	; 99
    31a8:	c5 2e       	mov	r12, r21
    31aa:	59 e7       	ldi	r21, 0x79	; 121
    31ac:	d5 2e       	mov	r13, r21
    reactStr[1][number]=length;
    31ae:	61 e2       	ldi	r22, 0x21	; 33
    31b0:	a6 2e       	mov	r10, r22
    31b2:	b1 2c       	mov	r11, r1
    reactStr[2][number]=type;
    31b4:	88 24       	eor	r8, r8
    31b6:	83 94       	inc	r8
    31b8:	91 2c       	mov	r9, r1
                if (route[currDepth+1]) {
                    
                    //Give item to person / use item on object 
                    if ((inputLen == 3)&&((data[0] == 'u')||(data[0] == 'g'))) {
                        for (uint8_t x=0; x<2; x++) {
                            if (inventory[x]) { 
    31ba:	e6 2c       	mov	r14, r6
    31bc:	f1 2c       	mov	r15, r1
    31be:	c7 01       	movw	r24, r14
    31c0:	88 0f       	add	r24, r24
    31c2:	99 1f       	adc	r25, r25
    31c4:	9c 01       	movw	r18, r24
    31c6:	22 5c       	subi	r18, 0xC2	; 194
    31c8:	37 4c       	sbci	r19, 0xC7	; 199
    31ca:	79 01       	movw	r14, r18
    31cc:	d9 01       	movw	r26, r18
    31ce:	8d 91       	ld	r24, X+
    31d0:	9c 91       	ld	r25, X
    31d2:	00 97       	sbiw	r24, 0x00	; 0
    31d4:	81 f0       	breq	.+32     	; 0x31f6 <ProcessInput+0x884>
                                if (CheckLetter(inventory[x], data[1])) {
    31d6:	f8 01       	movw	r30, r16
    31d8:	61 81       	ldd	r22, Z+1	; 0x01
    31da:	0e 94 82 10 	call	0x2104	; 0x2104 <CheckLetter>
    31de:	88 23       	and	r24, r24
    31e0:	51 f0       	breq	.+20     	; 0x31f6 <ProcessInput+0x884>
                                    PopulateObject(inventory[x], &actObj2);
    31e2:	6f ea       	ldi	r22, 0xAF	; 175
    31e4:	78 e3       	ldi	r23, 0x38	; 56
    31e6:	d7 01       	movw	r26, r14
    31e8:	8d 91       	ld	r24, X+
    31ea:	9c 91       	ld	r25, X
    31ec:	0e 94 0b 10 	call	0x2016	; 0x2016 <PopulateObject>
                                    x = 2;
    31f0:	32 e0       	ldi	r19, 0x02	; 2
    31f2:	63 2e       	mov	r6, r19
    31f4:	1e c0       	rjmp	.+60     	; 0x3232 <ProcessInput+0x8c0>
                                }
                            }
                            if (x == 1) { 
    31f6:	b1 e0       	ldi	r27, 0x01	; 1
    31f8:	6b 12       	cpse	r6, r27
    31fa:	1a c0       	rjmp	.+52     	; 0x3230 <ProcessInput+0x8be>
    return 0;
}

//
void SetResponse(uint8_t number, uint16_t address, uint16_t length, uint8_t type){
    reactStr[0][number]=address;
    31fc:	e7 2d       	mov	r30, r7
    31fe:	f0 e0       	ldi	r31, 0x00	; 0
    3200:	df 01       	movw	r26, r30
    3202:	aa 0f       	add	r26, r26
    3204:	bb 1f       	adc	r27, r27
    3206:	a5 5e       	subi	r26, 0xE5	; 229
    3208:	b6 4c       	sbci	r27, 0xC6	; 198
    320a:	cd 92       	st	X+, r12
    320c:	dc 92       	st	X, r13
    reactStr[1][number]=length;
    320e:	df 01       	movw	r26, r30
    3210:	aa 0f       	add	r26, r26
    3212:	bb 1f       	adc	r27, r27
    3214:	a5 5a       	subi	r26, 0xA5	; 165
    3216:	b6 4c       	sbci	r27, 0xC6	; 198
    3218:	ad 92       	st	X+, r10
    321a:	bc 92       	st	X, r11
    reactStr[2][number]=type;
    321c:	ee 0f       	add	r30, r30
    321e:	ff 1f       	adc	r31, r31
    3220:	e5 56       	subi	r30, 0x65	; 101
    3222:	f6 4c       	sbci	r31, 0xC6	; 198
    3224:	80 82       	st	Z, r8
    3226:	91 82       	std	Z+1, r9	; 0x01
                                    x = 2;
                                }
                            }
                            if (x == 1) { 
                                SetResponse(elements++, A_NOTCARRYING, L_NOTCARRYING, TEASER);
                                data[0] = 0;
    3228:	f8 01       	movw	r30, r16
    322a:	10 82       	st	Z, r1
                                    PopulateObject(inventory[x], &actObj2);
                                    x = 2;
                                }
                            }
                            if (x == 1) { 
                                SetResponse(elements++, A_NOTCARRYING, L_NOTCARRYING, TEASER);
    322c:	73 94       	inc	r7
    322e:	01 c0       	rjmp	.+2      	; 0x3232 <ProcessInput+0x8c0>
    3230:	61 2c       	mov	r6, r1
                route[currDepth+1] = FindChild(route[currDepth], data[inputLen-1], 0);
                if (route[currDepth+1]) {
                    
                    //Give item to person / use item on object 
                    if ((inputLen == 3)&&((data[0] == 'u')||(data[0] == 'g'))) {
                        for (uint8_t x=0; x<2; x++) {
    3232:	63 94       	inc	r6
    3234:	f1 e0       	ldi	r31, 0x01	; 1
    3236:	6f 16       	cp	r6, r31
    3238:	09 f4       	brne	.+2      	; 0x323c <ProcessInput+0x8ca>
    323a:	bf cf       	rjmp	.-130    	; 0x31ba <ProcessInput+0x848>
                                data[0] = 0;
                            }
                        }

                        //Both the item and person/object are found, check if action is legit
                        if (data[0]){
    323c:	d8 01       	movw	r26, r16
    323e:	8c 91       	ld	r24, X
    3240:	88 23       	and	r24, r24
    3242:	09 f4       	brne	.+2      	; 0x3246 <ProcessInput+0x8d4>
    3244:	86 c3       	rjmp	.+1804   	; 0x3952 <ProcessInput+0xfe0>
                            PopulateObject(route[currDepth+1], &actObj1);
    3246:	e0 91 2c 38 	lds	r30, 0x382C	; 0x80382c <currDepth>
    324a:	f0 e0       	ldi	r31, 0x00	; 0
    324c:	ee 0f       	add	r30, r30
    324e:	ff 1f       	adc	r31, r31
    3250:	e3 52       	subi	r30, 0x23	; 35
    3252:	f6 4c       	sbci	r31, 0xC6	; 198
    3254:	6a ed       	ldi	r22, 0xDA	; 218
    3256:	78 e3       	ldi	r23, 0x38	; 56
    3258:	80 81       	ld	r24, Z
    325a:	91 81       	ldd	r25, Z+1	; 0x01
    325c:	0e 94 0b 10 	call	0x2016	; 0x2016 <PopulateObject>

                            //Special game
                            if (actObj1.lenStr[ACTION_STR1] == 1) {
    3260:	e0 90 f8 38 	lds	r14, 0x38F8	; 0x8038f8 <actObj1.3999+0x1e>
    3264:	f0 90 f9 38 	lds	r15, 0x38F9	; 0x8038f9 <actObj1.3999+0x1f>
    3268:	b1 e0       	ldi	r27, 0x01	; 1
    326a:	eb 16       	cp	r14, r27
    326c:	f1 04       	cpc	r15, r1
    326e:	09 f0       	breq	.+2      	; 0x3272 <ProcessInput+0x900>
    3270:	9a c0       	rjmp	.+308    	; 0x33a6 <ProcessInput+0xa34>
                                ExtEERead(actObj1.addrStr[ACTION_STR1], 1, GAME, &data[2]);
    3272:	98 01       	movw	r18, r16
    3274:	2e 5f       	subi	r18, 0xFE	; 254
    3276:	3f 4f       	sbci	r19, 0xFF	; 255
    3278:	40 e0       	ldi	r20, 0x00	; 0
    327a:	61 e0       	ldi	r22, 0x01	; 1
    327c:	80 91 ea 38 	lds	r24, 0x38EA	; 0x8038ea <actObj1.3999+0x10>
    3280:	90 91 eb 38 	lds	r25, 0x38EB	; 0x8038eb <actObj1.3999+0x11>
    3284:	0e 94 00 0f 	call	0x1e00	; 0x1e00 <ExtEERead>
                                if (data[2] == '1') {
    3288:	f8 01       	movw	r30, r16
    328a:	42 81       	ldd	r20, Z+2	; 0x02
    328c:	21 e0       	ldi	r18, 0x01	; 1
    328e:	27 0d       	add	r18, r7
    3290:	87 2d       	mov	r24, r7
    3292:	90 e0       	ldi	r25, 0x00	; 0
    3294:	41 33       	cpi	r20, 0x31	; 49
    3296:	09 f0       	breq	.+2      	; 0x329a <ProcessInput+0x928>
    3298:	6b c0       	rjmp	.+214    	; 0x3370 <ProcessInput+0x9fe>
                                    uint8_t item = actObj2.byteField[ITEM_NR];
    329a:	30 91 ba 38 	lds	r19, 0x38BA	; 0x8038ba <actObj2.4000+0xb>
                                    if ((item < 31)||(item > 34)) {
    329e:	51 ee       	ldi	r21, 0xE1	; 225
    32a0:	53 0f       	add	r21, r19
    return 0;
}

//
void SetResponse(uint8_t number, uint16_t address, uint16_t length, uint8_t type){
    reactStr[0][number]=address;
    32a2:	fc 01       	movw	r30, r24
    32a4:	ee 0f       	add	r30, r30
    32a6:	ff 1f       	adc	r31, r31
    32a8:	e5 5e       	subi	r30, 0xE5	; 229
    32aa:	f6 4c       	sbci	r31, 0xC6	; 198
                            //Special game
                            if (actObj1.lenStr[ACTION_STR1] == 1) {
                                ExtEERead(actObj1.addrStr[ACTION_STR1], 1, GAME, &data[2]);
                                if (data[2] == '1') {
                                    uint8_t item = actObj2.byteField[ITEM_NR];
                                    if ((item < 31)||(item > 34)) {
    32ac:	54 30       	cpi	r21, 0x04	; 4
    32ae:	60 f0       	brcs	.+24     	; 0x32c8 <ProcessInput+0x956>
    return 0;
}

//
void SetResponse(uint8_t number, uint16_t address, uint16_t length, uint8_t type){
    reactStr[0][number]=address;
    32b0:	43 e0       	ldi	r20, 0x03	; 3
    32b2:	59 e7       	ldi	r21, 0x79	; 121
    32b4:	40 83       	st	Z, r20
    32b6:	51 83       	std	Z+1, r21	; 0x01
    reactStr[1][number]=length;
    32b8:	fc 01       	movw	r30, r24
    32ba:	ee 0f       	add	r30, r30
    32bc:	ff 1f       	adc	r31, r31
    32be:	e5 5a       	subi	r30, 0xA5	; 165
    32c0:	f6 4c       	sbci	r31, 0xC6	; 198
    32c2:	4a e1       	ldi	r20, 0x1A	; 26
    32c4:	50 e0       	ldi	r21, 0x00	; 0
    32c6:	64 c0       	rjmp	.+200    	; 0x3390 <ProcessInput+0xa1e>
    return 0;
}

//
void SetResponse(uint8_t number, uint16_t address, uint16_t length, uint8_t type){
    reactStr[0][number]=address;
    32c8:	6d e8       	ldi	r22, 0x8D	; 141
    32ca:	75 e7       	ldi	r23, 0x75	; 117
    32cc:	60 83       	st	Z, r22
    32ce:	71 83       	std	Z+1, r23	; 0x01
    reactStr[1][number]=length;
    32d0:	fc 01       	movw	r30, r24
    32d2:	ee 0f       	add	r30, r30
    32d4:	ff 1f       	adc	r31, r31
    32d6:	e5 5a       	subi	r30, 0xA5	; 165
    32d8:	f6 4c       	sbci	r31, 0xC6	; 198
    32da:	62 eb       	ldi	r22, 0xB2	; 178
    32dc:	70 e0       	ldi	r23, 0x00	; 0
    32de:	60 83       	st	Z, r22
    32e0:	71 83       	std	Z+1, r23	; 0x01
    reactStr[2][number]=type;
    32e2:	88 0f       	add	r24, r24
    32e4:	99 1f       	adc	r25, r25
    32e6:	fc 01       	movw	r30, r24
    32e8:	e5 56       	subi	r30, 0x65	; 101
    32ea:	f6 4c       	sbci	r31, 0xC6	; 198
    32ec:	e0 82       	st	Z, r14
    32ee:	f1 82       	std	Z+1, r15	; 0x01
    return 0;
}

//
void SetResponse(uint8_t number, uint16_t address, uint16_t length, uint8_t type){
    reactStr[0][number]=address;
    32f0:	82 2f       	mov	r24, r18
    32f2:	90 e0       	ldi	r25, 0x00	; 0
    32f4:	fc 01       	movw	r30, r24
    32f6:	ee 0f       	add	r30, r30
    32f8:	ff 1f       	adc	r31, r31
    32fa:	e5 5e       	subi	r30, 0xE5	; 229
    32fc:	f6 4c       	sbci	r31, 0xC6	; 198
    32fe:	6b e5       	ldi	r22, 0x5B	; 91
    3300:	7a e7       	ldi	r23, 0x7A	; 122
    3302:	60 83       	st	Z, r22
    3304:	71 83       	std	Z+1, r23	; 0x01
    reactStr[1][number]=length;
    3306:	fc 01       	movw	r30, r24
    3308:	ee 0f       	add	r30, r30
    330a:	ff 1f       	adc	r31, r31
    330c:	e5 5a       	subi	r30, 0xA5	; 165
    330e:	f6 4c       	sbci	r31, 0xC6	; 198
    3310:	62 e0       	ldi	r22, 0x02	; 2
    3312:	70 e0       	ldi	r23, 0x00	; 0
    3314:	60 83       	st	Z, r22
    3316:	71 83       	std	Z+1, r23	; 0x01
    reactStr[2][number]=type;
    3318:	88 0f       	add	r24, r24
    331a:	99 1f       	adc	r25, r25
    331c:	fc 01       	movw	r30, r24
    331e:	e5 56       	subi	r30, 0x65	; 101
    3320:	f6 4c       	sbci	r31, 0xC6	; 198
    3322:	e0 82       	st	Z, r14
    3324:	f1 82       	std	Z+1, r15	; 0x01
    return 0;
}

//
void SetResponse(uint8_t number, uint16_t address, uint16_t length, uint8_t type){
    reactStr[0][number]=address;
    3326:	82 e0       	ldi	r24, 0x02	; 2
    3328:	87 0d       	add	r24, r7
    332a:	90 e0       	ldi	r25, 0x00	; 0
    332c:	f3 e0       	ldi	r31, 0x03	; 3
    332e:	7f 0e       	add	r7, r31
    3330:	fc 01       	movw	r30, r24
    3332:	ee 0f       	add	r30, r30
    3334:	ff 1f       	adc	r31, r31
    3336:	e5 5e       	subi	r30, 0xE5	; 229
    3338:	f6 4c       	sbci	r31, 0xC6	; 198
    333a:	6f ea       	ldi	r22, 0xAF	; 175
    333c:	78 e7       	ldi	r23, 0x78	; 120
    333e:	60 83       	st	Z, r22
    3340:	71 83       	std	Z+1, r23	; 0x01
    reactStr[1][number]=length;
    3342:	fc 01       	movw	r30, r24
    3344:	ee 0f       	add	r30, r30
    3346:	ff 1f       	adc	r31, r31
    3348:	e5 5a       	subi	r30, 0xA5	; 165
    334a:	f6 4c       	sbci	r31, 0xC6	; 198
    334c:	62 e1       	ldi	r22, 0x12	; 18
    334e:	70 e0       	ldi	r23, 0x00	; 0
    3350:	60 83       	st	Z, r22
    3352:	71 83       	std	Z+1, r23	; 0x01
    reactStr[2][number]=type;
    3354:	88 0f       	add	r24, r24
    3356:	99 1f       	adc	r25, r25
    3358:	fc 01       	movw	r30, r24
    335a:	e5 56       	subi	r30, 0x65	; 101
    335c:	f6 4c       	sbci	r31, 0xC6	; 198
    335e:	e0 82       	st	Z, r14
    3360:	f1 82       	std	Z+1, r15	; 0x01
                                        SetResponse(elements++, A_CANTUSE, L_CANTUSE, TEASER);
                                    } else {
                                        SetResponse(elements++, A_PRIEST, L_PRIEST, TEASER);
                                        SetResponse(elements++, A_LF, 2, TEASER);
                                        SetResponse(elements++, A_RESPONSE, L_RESPONSE, TEASER);
                                        specialInput[0] = '1';
    3362:	40 93 0a 39 	sts	0x390A, r20	; 0x80390a <specialInput>
                                        specialInput[1] = item;
    3366:	30 93 0b 39 	sts	0x390B, r19	; 0x80390b <specialInput+0x1>
                                        specialInput[2] = 0;
    336a:	10 92 0c 39 	sts	0x390C, r1	; 0x80390c <specialInput+0x2>
    336e:	f1 c2       	rjmp	.+1506   	; 0x3952 <ProcessInput+0xfe0>
    return 0;
}

//
void SetResponse(uint8_t number, uint16_t address, uint16_t length, uint8_t type){
    reactStr[0][number]=address;
    3370:	fc 01       	movw	r30, r24
    3372:	ee 0f       	add	r30, r30
    3374:	ff 1f       	adc	r31, r31
    3376:	e5 5e       	subi	r30, 0xE5	; 229
    3378:	f6 4c       	sbci	r31, 0xC6	; 198
    337a:	4f e3       	ldi	r20, 0x3F	; 63
    337c:	56 e7       	ldi	r21, 0x76	; 118
    337e:	40 83       	st	Z, r20
    3380:	51 83       	std	Z+1, r21	; 0x01
    reactStr[1][number]=length;
    3382:	fc 01       	movw	r30, r24
    3384:	ee 0f       	add	r30, r30
    3386:	ff 1f       	adc	r31, r31
    3388:	e5 5a       	subi	r30, 0xA5	; 165
    338a:	f6 4c       	sbci	r31, 0xC6	; 198
    338c:	42 e4       	ldi	r20, 0x42	; 66
    338e:	50 e0       	ldi	r21, 0x00	; 0
    3390:	40 83       	st	Z, r20
    3392:	51 83       	std	Z+1, r21	; 0x01
    reactStr[2][number]=type;
    3394:	88 0f       	add	r24, r24
    3396:	99 1f       	adc	r25, r25
    3398:	fc 01       	movw	r30, r24
    339a:	e5 56       	subi	r30, 0x65	; 101
    339c:	f6 4c       	sbci	r31, 0xC6	; 198
    339e:	e0 82       	st	Z, r14
    33a0:	f1 82       	std	Z+1, r15	; 0x01
                                        specialInput[2] = 0;
                                    }

                                //There should not be another special
                                } else {
                                    SetResponse(elements++, A_ERROR, L_ERROR, TEASER);
    33a2:	72 2e       	mov	r7, r18
    33a4:	d6 c2       	rjmp	.+1452   	; 0x3952 <ProcessInput+0xfe0>
                                }

                            //Normal "use ... on ..." or "give ... to ..." action
                            } else if (actObj1.byteField[ACTION_ITEM] == actObj2.byteField[ITEM_NR]) {
    33a6:	90 91 e3 38 	lds	r25, 0x38E3	; 0x8038e3 <actObj1.3999+0x9>
    33aa:	80 91 ba 38 	lds	r24, 0x38BA	; 0x8038ba <actObj2.4000+0xb>
    33ae:	98 13       	cpse	r25, r24
    33b0:	2f c0       	rjmp	.+94     	; 0x3410 <ProcessInput+0xa9e>
                                SetResponse(elements++, actObj1.addrStr[ACTION_MSG], actObj1.lenStr[ACTION_MSG], GAME);
    33b2:	20 91 00 39 	lds	r18, 0x3900	; 0x803900 <actObj1.3999+0x26>
    33b6:	30 91 01 39 	lds	r19, 0x3901	; 0x803901 <actObj1.3999+0x27>
    33ba:	ff 24       	eor	r15, r15
    33bc:	f3 94       	inc	r15
    33be:	f7 0c       	add	r15, r7
    return 0;
}

//
void SetResponse(uint8_t number, uint16_t address, uint16_t length, uint8_t type){
    reactStr[0][number]=address;
    33c0:	87 2d       	mov	r24, r7
    33c2:	90 e0       	ldi	r25, 0x00	; 0
    33c4:	fc 01       	movw	r30, r24
    33c6:	ee 0f       	add	r30, r30
    33c8:	ff 1f       	adc	r31, r31
    33ca:	e5 5e       	subi	r30, 0xE5	; 229
    33cc:	f6 4c       	sbci	r31, 0xC6	; 198
    33ce:	40 91 f2 38 	lds	r20, 0x38F2	; 0x8038f2 <actObj1.3999+0x18>
    33d2:	50 91 f3 38 	lds	r21, 0x38F3	; 0x8038f3 <actObj1.3999+0x19>
    33d6:	40 83       	st	Z, r20
    33d8:	51 83       	std	Z+1, r21	; 0x01
    reactStr[1][number]=length;
    33da:	fc 01       	movw	r30, r24
    33dc:	ee 0f       	add	r30, r30
    33de:	ff 1f       	adc	r31, r31
    33e0:	e5 5a       	subi	r30, 0xA5	; 165
    33e2:	f6 4c       	sbci	r31, 0xC6	; 198
    33e4:	20 83       	st	Z, r18
    33e6:	31 83       	std	Z+1, r19	; 0x01
    reactStr[2][number]=type;
    33e8:	88 0f       	add	r24, r24
    33ea:	99 1f       	adc	r25, r25
    33ec:	fc 01       	movw	r30, r24
    33ee:	e5 56       	subi	r30, 0x65	; 101
    33f0:	f6 4c       	sbci	r31, 0xC6	; 198
    33f2:	10 82       	st	Z, r1
    33f4:	11 82       	std	Z+1, r1	; 0x01
                                }

                            //Normal "use ... on ..." or "give ... to ..." action
                            } else if (actObj1.byteField[ACTION_ITEM] == actObj2.byteField[ITEM_NR]) {
                                SetResponse(elements++, actObj1.addrStr[ACTION_MSG], actObj1.lenStr[ACTION_MSG], GAME);
                                effect = actObj1.effect[2];
    33f6:	80 91 04 39 	lds	r24, 0x3904	; 0x803904 <actObj1.3999+0x2a>
    33fa:	90 e0       	ldi	r25, 0x00	; 0
    33fc:	80 93 3a 38 	sts	0x383A, r24	; 0x80383a <effect>
    3400:	90 93 3b 38 	sts	0x383B, r25	; 0x80383b <effect+0x1>
                                UpdateState(actObj1.byteField[ACTION_STATE]);
    3404:	80 91 e4 38 	lds	r24, 0x38E4	; 0x8038e4 <actObj1.3999+0xa>
    3408:	0e 94 9b 0a 	call	0x1536	; 0x1536 <UpdateState>
                                    SetResponse(elements++, A_ERROR, L_ERROR, TEASER);
                                }

                            //Normal "use ... on ..." or "give ... to ..." action
                            } else if (actObj1.byteField[ACTION_ITEM] == actObj2.byteField[ITEM_NR]) {
                                SetResponse(elements++, actObj1.addrStr[ACTION_MSG], actObj1.lenStr[ACTION_MSG], GAME);
    340c:	7f 2c       	mov	r7, r15
    340e:	a1 c2       	rjmp	.+1346   	; 0x3952 <ProcessInput+0xfe0>
                                effect = actObj1.effect[2];
                                UpdateState(actObj1.byteField[ACTION_STATE]);
                                
                            } else {
                                if (data[0] == 'u') {
    3410:	d8 01       	movw	r26, r16
    3412:	8c 91       	ld	r24, X
    3414:	85 37       	cpi	r24, 0x75	; 117
    3416:	99 f4       	brne	.+38     	; 0x343e <ProcessInput+0xacc>
    return 0;
}

//
void SetResponse(uint8_t number, uint16_t address, uint16_t length, uint8_t type){
    reactStr[0][number]=address;
    3418:	87 2d       	mov	r24, r7
    341a:	90 e0       	ldi	r25, 0x00	; 0
    341c:	fc 01       	movw	r30, r24
    341e:	ee 0f       	add	r30, r30
    3420:	ff 1f       	adc	r31, r31
    3422:	e5 5e       	subi	r30, 0xE5	; 229
    3424:	f6 4c       	sbci	r31, 0xC6	; 198
    3426:	23 e0       	ldi	r18, 0x03	; 3
    3428:	39 e7       	ldi	r19, 0x79	; 121
    342a:	20 83       	st	Z, r18
    342c:	31 83       	std	Z+1, r19	; 0x01
    reactStr[1][number]=length;
    342e:	fc 01       	movw	r30, r24
    3430:	ee 0f       	add	r30, r30
    3432:	ff 1f       	adc	r31, r31
    3434:	e5 5a       	subi	r30, 0xA5	; 165
    3436:	f6 4c       	sbci	r31, 0xC6	; 198
    3438:	2a e1       	ldi	r18, 0x1A	; 26
    343a:	30 e0       	ldi	r19, 0x00	; 0
    343c:	15 c0       	rjmp	.+42     	; 0x3468 <ProcessInput+0xaf6>
                                UpdateState(actObj1.byteField[ACTION_STATE]);
                                
                            } else {
                                if (data[0] == 'u') {
                                    SetResponse(elements++, A_CANTUSE, L_CANTUSE, TEASER);
                                } else if (data[0] == 'g') {
    343e:	87 36       	cpi	r24, 0x67	; 103
    3440:	09 f0       	breq	.+2      	; 0x3444 <ProcessInput+0xad2>
    3442:	87 c2       	rjmp	.+1294   	; 0x3952 <ProcessInput+0xfe0>
    return 0;
}

//
void SetResponse(uint8_t number, uint16_t address, uint16_t length, uint8_t type){
    reactStr[0][number]=address;
    3444:	87 2d       	mov	r24, r7
    3446:	90 e0       	ldi	r25, 0x00	; 0
    3448:	fc 01       	movw	r30, r24
    344a:	ee 0f       	add	r30, r30
    344c:	ff 1f       	adc	r31, r31
    344e:	e5 5e       	subi	r30, 0xE5	; 229
    3450:	f6 4c       	sbci	r31, 0xC6	; 198
    3452:	2c ed       	ldi	r18, 0xDC	; 220
    3454:	36 e7       	ldi	r19, 0x76	; 118
    3456:	20 83       	st	Z, r18
    3458:	31 83       	std	Z+1, r19	; 0x01
    reactStr[1][number]=length;
    345a:	fc 01       	movw	r30, r24
    345c:	ee 0f       	add	r30, r30
    345e:	ff 1f       	adc	r31, r31
    3460:	e5 5a       	subi	r30, 0xA5	; 165
    3462:	f6 4c       	sbci	r31, 0xC6	; 198
    3464:	28 e2       	ldi	r18, 0x28	; 40
    3466:	30 e0       	ldi	r19, 0x00	; 0
    3468:	20 83       	st	Z, r18
    346a:	31 83       	std	Z+1, r19	; 0x01
    reactStr[2][number]=type;
    346c:	88 0f       	add	r24, r24
    346e:	99 1f       	adc	r25, r25
    3470:	fc 01       	movw	r30, r24
    3472:	e5 56       	subi	r30, 0x65	; 101
    3474:	f6 4c       	sbci	r31, 0xC6	; 198
    3476:	81 e0       	ldi	r24, 0x01	; 1
    3478:	90 e0       	ldi	r25, 0x00	; 0
    347a:	80 83       	st	Z, r24
    347c:	91 83       	std	Z+1, r25	; 0x01
                                
                            } else {
                                if (data[0] == 'u') {
                                    SetResponse(elements++, A_CANTUSE, L_CANTUSE, TEASER);
                                } else if (data[0] == 'g') {
                                    SetResponse(elements++, A_CANTGIVE, L_CANTGIVE, TEASER);                                    
    347e:	73 94       	inc	r7
    3480:	68 c2       	rjmp	.+1232   	; 0x3952 <ProcessInput+0xfe0>
                            }
                        }
                    
                    //Talk to person, read or use object (without item)                          
                    } else {
                        PopulateObject(route[currDepth+1], &actObj1);
    3482:	6a ed       	ldi	r22, 0xDA	; 218
    3484:	78 e3       	ldi	r23, 0x38	; 56
    3486:	0e 94 0b 10 	call	0x2016	; 0x2016 <PopulateObject>
                        if ((data[0] == 't')&&((actObj1.byteField[ACTION_MASK]&TALK) == 0)) {
    348a:	f8 01       	movw	r30, r16
    348c:	80 81       	ld	r24, Z
    348e:	84 37       	cpi	r24, 0x74	; 116
    3490:	69 f5       	brne	.+90     	; 0x34ec <ProcessInput+0xb7a>
    3492:	80 91 e2 38 	lds	r24, 0x38E2	; 0x8038e2 <actObj1.3999+0x8>
    3496:	83 fd       	sbrc	r24, 3
    3498:	4a c0       	rjmp	.+148    	; 0x352e <ProcessInput+0xbbc>
    return 0;
}

//
void SetResponse(uint8_t number, uint16_t address, uint16_t length, uint8_t type){
    reactStr[0][number]=address;
    349a:	8d e1       	ldi	r24, 0x1D	; 29
    349c:	99 e7       	ldi	r25, 0x79	; 121
    349e:	80 93 1d 39 	sts	0x391D, r24	; 0x80391d <reactStr+0x2>
    34a2:	90 93 1e 39 	sts	0x391E, r25	; 0x80391e <reactStr+0x3>
    reactStr[1][number]=length;
    34a6:	8e e1       	ldi	r24, 0x1E	; 30
    34a8:	90 e0       	ldi	r25, 0x00	; 0
    34aa:	80 93 5d 39 	sts	0x395D, r24	; 0x80395d <reactStr+0x42>
    34ae:	90 93 5e 39 	sts	0x395E, r25	; 0x80395e <reactStr+0x43>
    reactStr[2][number]=type;
    34b2:	81 e0       	ldi	r24, 0x01	; 1
    34b4:	90 e0       	ldi	r25, 0x00	; 0
    34b6:	80 93 9d 39 	sts	0x399D, r24	; 0x80399d <reactStr+0x82>
    34ba:	90 93 9e 39 	sts	0x399E, r25	; 0x80399e <reactStr+0x83>
                    //Talk to person, read or use object (without item)                          
                    } else {
                        PopulateObject(route[currDepth+1], &actObj1);
                        if ((data[0] == 't')&&((actObj1.byteField[ACTION_MASK]&TALK) == 0)) {
                            SetResponse(elements++, A_WHYTALK, L_WHYTALK, TEASER);
                            SetResponse(elements++, actObj1.addrStr[NAME], actObj1.lenStr[NAME], GAME);
    34be:	80 91 f4 38 	lds	r24, 0x38F4	; 0x8038f4 <actObj1.3999+0x1a>
    34c2:	90 91 f5 38 	lds	r25, 0x38F5	; 0x8038f5 <actObj1.3999+0x1b>
    return 0;
}

//
void SetResponse(uint8_t number, uint16_t address, uint16_t length, uint8_t type){
    reactStr[0][number]=address;
    34c6:	20 91 e6 38 	lds	r18, 0x38E6	; 0x8038e6 <actObj1.3999+0xc>
    34ca:	30 91 e7 38 	lds	r19, 0x38E7	; 0x8038e7 <actObj1.3999+0xd>
    34ce:	20 93 1f 39 	sts	0x391F, r18	; 0x80391f <reactStr+0x4>
    34d2:	30 93 20 39 	sts	0x3920, r19	; 0x803920 <reactStr+0x5>
    reactStr[1][number]=length;
    34d6:	80 93 5f 39 	sts	0x395F, r24	; 0x80395f <reactStr+0x44>
    34da:	90 93 60 39 	sts	0x3960, r25	; 0x803960 <reactStr+0x45>
    reactStr[2][number]=type;
    34de:	10 92 9f 39 	sts	0x399F, r1	; 0x80399f <reactStr+0x84>
    34e2:	10 92 a0 39 	sts	0x39A0, r1	; 0x8039a0 <reactStr+0x85>
                    //Talk to person, read or use object (without item)                          
                    } else {
                        PopulateObject(route[currDepth+1], &actObj1);
                        if ((data[0] == 't')&&((actObj1.byteField[ACTION_MASK]&TALK) == 0)) {
                            SetResponse(elements++, A_WHYTALK, L_WHYTALK, TEASER);
                            SetResponse(elements++, actObj1.addrStr[NAME], actObj1.lenStr[NAME], GAME);
    34e6:	a3 e0       	ldi	r26, 0x03	; 3
    34e8:	7a 2e       	mov	r7, r26
    34ea:	33 c2       	rjmp	.+1126   	; 0x3952 <ProcessInput+0xfe0>
                        } else if ((data[0] == 'u')&&((actObj1.byteField[ACTION_MASK]&USE) == 0)) {
    34ec:	85 37       	cpi	r24, 0x75	; 117
    34ee:	69 f4       	brne	.+26     	; 0x350a <ProcessInput+0xb98>
    34f0:	80 91 e2 38 	lds	r24, 0x38E2	; 0x8038e2 <actObj1.3999+0x8>
    34f4:	84 fd       	sbrc	r24, 4
    34f6:	1b c0       	rjmp	.+54     	; 0x352e <ProcessInput+0xbbc>
    return 0;
}

//
void SetResponse(uint8_t number, uint16_t address, uint16_t length, uint8_t type){
    reactStr[0][number]=address;
    34f8:	83 e0       	ldi	r24, 0x03	; 3
    34fa:	99 e7       	ldi	r25, 0x79	; 121
    34fc:	80 93 1d 39 	sts	0x391D, r24	; 0x80391d <reactStr+0x2>
    3500:	90 93 1e 39 	sts	0x391E, r25	; 0x80391e <reactStr+0x3>
    reactStr[1][number]=length;
    3504:	8a e1       	ldi	r24, 0x1A	; 26
    3506:	90 e0       	ldi	r25, 0x00	; 0
    3508:	f9 ca       	rjmp	.-2574   	; 0x2afc <ProcessInput+0x18a>
                        if ((data[0] == 't')&&((actObj1.byteField[ACTION_MASK]&TALK) == 0)) {
                            SetResponse(elements++, A_WHYTALK, L_WHYTALK, TEASER);
                            SetResponse(elements++, actObj1.addrStr[NAME], actObj1.lenStr[NAME], GAME);
                        } else if ((data[0] == 'u')&&((actObj1.byteField[ACTION_MASK]&USE) == 0)) {
                            SetResponse(elements++, A_CANTUSE, L_CANTUSE, TEASER);
                        } else if ((data[0] == 'r')&&((actObj1.byteField[ACTION_MASK]&READ) == 0)) {
    350a:	82 37       	cpi	r24, 0x72	; 114
    350c:	69 f4       	brne	.+26     	; 0x3528 <ProcessInput+0xbb6>
    350e:	80 91 e2 38 	lds	r24, 0x38E2	; 0x8038e2 <actObj1.3999+0x8>
    3512:	85 fd       	sbrc	r24, 5
    3514:	0c c0       	rjmp	.+24     	; 0x352e <ProcessInput+0xbbc>
    return 0;
}

//
void SetResponse(uint8_t number, uint16_t address, uint16_t length, uint8_t type){
    reactStr[0][number]=address;
    3516:	88 ee       	ldi	r24, 0xE8	; 232
    3518:	98 e7       	ldi	r25, 0x78	; 120
    351a:	80 93 1d 39 	sts	0x391D, r24	; 0x80391d <reactStr+0x2>
    351e:	90 93 1e 39 	sts	0x391E, r25	; 0x80391e <reactStr+0x3>
    reactStr[1][number]=length;
    3522:	8b e1       	ldi	r24, 0x1B	; 27
    3524:	90 e0       	ldi	r25, 0x00	; 0
    3526:	ea ca       	rjmp	.-2604   	; 0x2afc <ProcessInput+0x18a>
                            SetResponse(elements++, actObj1.addrStr[NAME], actObj1.lenStr[NAME], GAME);
                        } else if ((data[0] == 'u')&&((actObj1.byteField[ACTION_MASK]&USE) == 0)) {
                            SetResponse(elements++, A_CANTUSE, L_CANTUSE, TEASER);
                        } else if ((data[0] == 'r')&&((actObj1.byteField[ACTION_MASK]&READ) == 0)) {
                            SetResponse(elements++, A_CANTREAD, L_CANTREAD, TEASER);
                        } else if (data[0] == 'g'){ 
    3528:	87 36       	cpi	r24, 0x67	; 103
    352a:	09 f4       	brne	.+2      	; 0x352e <ProcessInput+0xbbc>
    352c:	52 ca       	rjmp	.-2908   	; 0x29d2 <ProcessInput+0x60>
                            SetResponse(elements++, A_NOTPOSSIBLE, L_NOTPOSSIBLE, TEASER);  
                        } else {

                            //Special game, not enough characters
                            if (actObj1.lenStr[ACTION_STR1] == 1) {
    352e:	e0 90 f8 38 	lds	r14, 0x38F8	; 0x8038f8 <actObj1.3999+0x1e>
    3532:	f0 90 f9 38 	lds	r15, 0x38F9	; 0x8038f9 <actObj1.3999+0x1f>
    3536:	f1 e0       	ldi	r31, 0x01	; 1
    3538:	ef 16       	cp	r14, r31
    353a:	f1 04       	cpc	r15, r1
    353c:	11 f5       	brne	.+68     	; 0x3582 <ProcessInput+0xc10>
                                ExtEERead(actObj1.addrStr[ACTION_STR1], 1, GAME, &data[2]);
    353e:	98 01       	movw	r18, r16
    3540:	2e 5f       	subi	r18, 0xFE	; 254
    3542:	3f 4f       	sbci	r19, 0xFF	; 255
    3544:	40 e0       	ldi	r20, 0x00	; 0
    3546:	61 e0       	ldi	r22, 0x01	; 1
    3548:	80 91 ea 38 	lds	r24, 0x38EA	; 0x8038ea <actObj1.3999+0x10>
    354c:	90 91 eb 38 	lds	r25, 0x38EB	; 0x8038eb <actObj1.3999+0x11>
    3550:	0e 94 00 0f 	call	0x1e00	; 0x1e00 <ExtEERead>
                                if (data[2] == '1') {
    3554:	d8 01       	movw	r26, r16
    3556:	12 96       	adiw	r26, 0x02	; 2
    3558:	8c 91       	ld	r24, X
    355a:	81 33       	cpi	r24, 0x31	; 49
    355c:	09 f0       	breq	.+2      	; 0x3560 <ProcessInput+0xbee>
    355e:	8a cc       	rjmp	.-1772   	; 0x2e74 <ProcessInput+0x502>
    return 0;
}

//
void SetResponse(uint8_t number, uint16_t address, uint16_t length, uint8_t type){
    reactStr[0][number]=address;
    3560:	82 e6       	ldi	r24, 0x62	; 98
    3562:	95 e7       	ldi	r25, 0x75	; 117
    3564:	80 93 1d 39 	sts	0x391D, r24	; 0x80391d <reactStr+0x2>
    3568:	90 93 1e 39 	sts	0x391E, r25	; 0x80391e <reactStr+0x3>
    reactStr[1][number]=length;
    356c:	8b e2       	ldi	r24, 0x2B	; 43
    356e:	90 e0       	ldi	r25, 0x00	; 0
    3570:	80 93 5d 39 	sts	0x395D, r24	; 0x80395d <reactStr+0x42>
    3574:	90 93 5e 39 	sts	0x395E, r25	; 0x80395e <reactStr+0x43>
    reactStr[2][number]=type;
    3578:	e0 92 9d 39 	sts	0x399D, r14	; 0x80399d <reactStr+0x82>
    357c:	f0 92 9e 39 	sts	0x399E, r15	; 0x80399e <reactStr+0x83>
    3580:	c7 ca       	rjmp	.-2674   	; 0x2b10 <ProcessInput+0x19e>
                                if (data[2] == '1') {
                                    SetResponse(elements++, A_PLEASEOFFER, L_PLEASEOFFER, TEASER);
                                }

                            //General request
                            } else if (actObj1.lenStr[ACTION_STR1]) {
    3582:	e1 14       	cp	r14, r1
    3584:	f1 04       	cpc	r15, r1
    3586:	09 f4       	brne	.+2      	; 0x358a <ProcessInput+0xc18>
    3588:	59 c0       	rjmp	.+178    	; 0x363c <ProcessInput+0xcca>
    return 0;
}

//
void SetResponse(uint8_t number, uint16_t address, uint16_t length, uint8_t type){
    reactStr[0][number]=address;
    358a:	80 91 ea 38 	lds	r24, 0x38EA	; 0x8038ea <actObj1.3999+0x10>
    358e:	90 91 eb 38 	lds	r25, 0x38EB	; 0x8038eb <actObj1.3999+0x11>
    3592:	80 93 1d 39 	sts	0x391D, r24	; 0x80391d <reactStr+0x2>
    3596:	90 93 1e 39 	sts	0x391E, r25	; 0x80391e <reactStr+0x3>
    reactStr[1][number]=length;
    359a:	e0 92 5d 39 	sts	0x395D, r14	; 0x80395d <reactStr+0x42>
    359e:	f0 92 5e 39 	sts	0x395E, r15	; 0x80395e <reactStr+0x43>
    reactStr[2][number]=type;
    35a2:	10 92 9d 39 	sts	0x399D, r1	; 0x80399d <reactStr+0x82>
    35a6:	10 92 9e 39 	sts	0x399E, r1	; 0x80399e <reactStr+0x83>
    return 0;
}

//
void SetResponse(uint8_t number, uint16_t address, uint16_t length, uint8_t type){
    reactStr[0][number]=address;
    35aa:	8b e5       	ldi	r24, 0x5B	; 91
    35ac:	9a e7       	ldi	r25, 0x7A	; 122
    35ae:	80 93 1f 39 	sts	0x391F, r24	; 0x80391f <reactStr+0x4>
    35b2:	90 93 20 39 	sts	0x3920, r25	; 0x803920 <reactStr+0x5>
    reactStr[1][number]=length;
    35b6:	82 e0       	ldi	r24, 0x02	; 2
    35b8:	90 e0       	ldi	r25, 0x00	; 0
    35ba:	80 93 5f 39 	sts	0x395F, r24	; 0x80395f <reactStr+0x44>
    35be:	90 93 60 39 	sts	0x3960, r25	; 0x803960 <reactStr+0x45>
    reactStr[2][number]=type;
    35c2:	81 e0       	ldi	r24, 0x01	; 1
    35c4:	90 e0       	ldi	r25, 0x00	; 0
    35c6:	80 93 9f 39 	sts	0x399F, r24	; 0x80399f <reactStr+0x84>
    35ca:	90 93 a0 39 	sts	0x39A0, r25	; 0x8039a0 <reactStr+0x85>
    return 0;
}

//
void SetResponse(uint8_t number, uint16_t address, uint16_t length, uint8_t type){
    reactStr[0][number]=address;
    35ce:	2f ea       	ldi	r18, 0xAF	; 175
    35d0:	38 e7       	ldi	r19, 0x78	; 120
    35d2:	20 93 21 39 	sts	0x3921, r18	; 0x803921 <reactStr+0x6>
    35d6:	30 93 22 39 	sts	0x3922, r19	; 0x803922 <reactStr+0x7>
    reactStr[1][number]=length;
    35da:	22 e1       	ldi	r18, 0x12	; 18
    35dc:	30 e0       	ldi	r19, 0x00	; 0
    35de:	20 93 61 39 	sts	0x3961, r18	; 0x803961 <reactStr+0x46>
    35e2:	30 93 62 39 	sts	0x3962, r19	; 0x803962 <reactStr+0x47>
    reactStr[2][number]=type;
    35e6:	80 93 a1 39 	sts	0x39A1, r24	; 0x8039a1 <reactStr+0x86>
    35ea:	90 93 a2 39 	sts	0x39A2, r25	; 0x8039a2 <reactStr+0x87>
                            //General request
                            } else if (actObj1.lenStr[ACTION_STR1]) {
                                SetResponse(elements++, actObj1.addrStr[ACTION_STR1], actObj1.lenStr[ACTION_STR1], GAME);
                                SetResponse(elements++, A_LF, 2, TEASER);
                                SetResponse(elements++, A_RESPONSE, L_RESPONSE, TEASER);
                                if (actObj1.lenStr[ACTION_STR2]>(INP_LENGTH-1)) actObj1.lenStr[ACTION_STR2] = (INP_LENGTH-1);
    35ee:	80 91 fa 38 	lds	r24, 0x38FA	; 0x8038fa <actObj1.3999+0x20>
    35f2:	90 91 fb 38 	lds	r25, 0x38FB	; 0x8038fb <actObj1.3999+0x21>
    35f6:	40 97       	sbiw	r24, 0x10	; 16
    35f8:	30 f0       	brcs	.+12     	; 0x3606 <ProcessInput+0xc94>
    35fa:	8f e0       	ldi	r24, 0x0F	; 15
    35fc:	90 e0       	ldi	r25, 0x00	; 0
    35fe:	80 93 fa 38 	sts	0x38FA, r24	; 0x8038fa <actObj1.3999+0x20>
    3602:	90 93 fb 38 	sts	0x38FB, r25	; 0x8038fb <actObj1.3999+0x21>
                                ExtEERead(actObj1.addrStr[ACTION_STR2], actObj1.lenStr[ACTION_STR2], GAME, (uint8_t *)&specialInput[0]);
    3606:	2a e0       	ldi	r18, 0x0A	; 10
    3608:	39 e3       	ldi	r19, 0x39	; 57
    360a:	40 e0       	ldi	r20, 0x00	; 0
    360c:	60 91 fa 38 	lds	r22, 0x38FA	; 0x8038fa <actObj1.3999+0x20>
    3610:	80 91 ec 38 	lds	r24, 0x38EC	; 0x8038ec <actObj1.3999+0x12>
    3614:	90 91 ed 38 	lds	r25, 0x38ED	; 0x8038ed <actObj1.3999+0x13>
    3618:	0e 94 00 0f 	call	0x1e00	; 0x1e00 <ExtEERead>
                                UnflipData(actObj1.lenStr[ACTION_STR2], (uint8_t *)&specialInput[0]);
    361c:	6a e0       	ldi	r22, 0x0A	; 10
    361e:	79 e3       	ldi	r23, 0x39	; 57
    3620:	80 91 fa 38 	lds	r24, 0x38FA	; 0x8038fa <actObj1.3999+0x20>
    3624:	0e 94 f3 0e 	call	0x1de6	; 0x1de6 <UnflipData>
                                specialInput[actObj1.lenStr[ACTION_STR2]] = 0;
    3628:	e0 91 fa 38 	lds	r30, 0x38FA	; 0x8038fa <actObj1.3999+0x20>
    362c:	f0 91 fb 38 	lds	r31, 0x38FB	; 0x8038fb <actObj1.3999+0x21>
    3630:	e6 5f       	subi	r30, 0xF6	; 246
    3632:	f6 4c       	sbci	r31, 0xC6	; 198
    3634:	10 82       	st	Z, r1

                            //General request
                            } else if (actObj1.lenStr[ACTION_STR1]) {
                                SetResponse(elements++, actObj1.addrStr[ACTION_STR1], actObj1.lenStr[ACTION_STR1], GAME);
                                SetResponse(elements++, A_LF, 2, TEASER);
                                SetResponse(elements++, A_RESPONSE, L_RESPONSE, TEASER);
    3636:	f4 e0       	ldi	r31, 0x04	; 4
    3638:	7f 2e       	mov	r7, r31
    363a:	8b c1       	rjmp	.+790    	; 0x3952 <ProcessInput+0xfe0>
                                ExtEERead(actObj1.addrStr[ACTION_STR2], actObj1.lenStr[ACTION_STR2], GAME, (uint8_t *)&specialInput[0]);
                                UnflipData(actObj1.lenStr[ACTION_STR2], (uint8_t *)&specialInput[0]);
                                specialInput[actObj1.lenStr[ACTION_STR2]] = 0;
                            
                            //Normal action    
                            } else if (CheckState(actObj1.byteField[ACTION_ACL])){
    363c:	80 91 e1 38 	lds	r24, 0x38E1	; 0x8038e1 <actObj1.3999+0x7>
    3640:	0e 94 a5 0a 	call	0x154a	; 0x154a <CheckState>
    3644:	88 23       	and	r24, r24
    3646:	01 f1       	breq	.+64     	; 0x3688 <ProcessInput+0xd16>
                                SetResponse(elements++, actObj1.addrStr[ACTION_MSG], actObj1.lenStr[ACTION_MSG], GAME);
    3648:	80 91 00 39 	lds	r24, 0x3900	; 0x803900 <actObj1.3999+0x26>
    364c:	90 91 01 39 	lds	r25, 0x3901	; 0x803901 <actObj1.3999+0x27>
    return 0;
}

//
void SetResponse(uint8_t number, uint16_t address, uint16_t length, uint8_t type){
    reactStr[0][number]=address;
    3650:	20 91 f2 38 	lds	r18, 0x38F2	; 0x8038f2 <actObj1.3999+0x18>
    3654:	30 91 f3 38 	lds	r19, 0x38F3	; 0x8038f3 <actObj1.3999+0x19>
    3658:	20 93 1d 39 	sts	0x391D, r18	; 0x80391d <reactStr+0x2>
    365c:	30 93 1e 39 	sts	0x391E, r19	; 0x80391e <reactStr+0x3>
    reactStr[1][number]=length;
    3660:	80 93 5d 39 	sts	0x395D, r24	; 0x80395d <reactStr+0x42>
    3664:	90 93 5e 39 	sts	0x395E, r25	; 0x80395e <reactStr+0x43>
    reactStr[2][number]=type;
    3668:	10 92 9d 39 	sts	0x399D, r1	; 0x80399d <reactStr+0x82>
    366c:	10 92 9e 39 	sts	0x399E, r1	; 0x80399e <reactStr+0x83>
                                specialInput[actObj1.lenStr[ACTION_STR2]] = 0;
                            
                            //Normal action    
                            } else if (CheckState(actObj1.byteField[ACTION_ACL])){
                                SetResponse(elements++, actObj1.addrStr[ACTION_MSG], actObj1.lenStr[ACTION_MSG], GAME);
                                effect = actObj1.effect[2];
    3670:	80 91 04 39 	lds	r24, 0x3904	; 0x803904 <actObj1.3999+0x2a>
    3674:	90 e0       	ldi	r25, 0x00	; 0
    3676:	80 93 3a 38 	sts	0x383A, r24	; 0x80383a <effect>
    367a:	90 93 3b 38 	sts	0x383B, r25	; 0x80383b <effect+0x1>
                                UpdateState(actObj1.byteField[ACTION_STATE]);
    367e:	80 91 e4 38 	lds	r24, 0x38E4	; 0x8038e4 <actObj1.3999+0xa>
    3682:	0e 94 9b 0a 	call	0x1536	; 0x1536 <UpdateState>
    3686:	44 ca       	rjmp	.-2936   	; 0x2b10 <ProcessInput+0x19e>
                            } else {
                                SetResponse(elements++, actObj1.addrStr[ACTION_ACL_MSG], actObj1.lenStr[ACTION_ACL_MSG], GAME);
    3688:	80 91 fe 38 	lds	r24, 0x38FE	; 0x8038fe <actObj1.3999+0x24>
    368c:	90 91 ff 38 	lds	r25, 0x38FF	; 0x8038ff <actObj1.3999+0x25>
    return 0;
}

//
void SetResponse(uint8_t number, uint16_t address, uint16_t length, uint8_t type){
    reactStr[0][number]=address;
    3690:	20 91 f0 38 	lds	r18, 0x38F0	; 0x8038f0 <actObj1.3999+0x16>
    3694:	30 91 f1 38 	lds	r19, 0x38F1	; 0x8038f1 <actObj1.3999+0x17>
    3698:	20 93 1d 39 	sts	0x391D, r18	; 0x80391d <reactStr+0x2>
    369c:	30 93 1e 39 	sts	0x391E, r19	; 0x80391e <reactStr+0x3>
    reactStr[1][number]=length;
    36a0:	80 93 5d 39 	sts	0x395D, r24	; 0x80395d <reactStr+0x42>
    36a4:	90 93 5e 39 	sts	0x395E, r25	; 0x80395e <reactStr+0x43>
    reactStr[2][number]=type;
    36a8:	10 92 9d 39 	sts	0x399D, r1	; 0x80399d <reactStr+0x82>
    36ac:	10 92 9e 39 	sts	0x399E, r1	; 0x80399e <reactStr+0x83>
                                SetResponse(elements++, actObj1.addrStr[ACTION_MSG], actObj1.lenStr[ACTION_MSG], GAME);
                                effect = actObj1.effect[2];
                                UpdateState(actObj1.byteField[ACTION_STATE]);
                            } else {
                                SetResponse(elements++, actObj1.addrStr[ACTION_ACL_MSG], actObj1.lenStr[ACTION_ACL_MSG], GAME);
                                effect = actObj1.effect[1];
    36b0:	80 91 03 39 	lds	r24, 0x3903	; 0x803903 <actObj1.3999+0x29>
    36b4:	90 e0       	ldi	r25, 0x00	; 0
    36b6:	80 93 3a 38 	sts	0x383A, r24	; 0x80383a <effect>
    36ba:	90 93 3b 38 	sts	0x383B, r25	; 0x80383b <effect+0x1>
    36be:	28 ca       	rjmp	.-2992   	; 0x2b10 <ProcessInput+0x19e>
                        }
                    }

                //Person or object not found
                } else {
                    if ((data[0] == 't')||(data[0] == 'g')){
    36c0:	f8 01       	movw	r30, r16
    36c2:	80 81       	ld	r24, Z
    36c4:	84 37       	cpi	r24, 0x74	; 116
    36c6:	11 f0       	breq	.+4      	; 0x36cc <ProcessInput+0xd5a>
    36c8:	87 36       	cpi	r24, 0x67	; 103
    36ca:	19 f4       	brne	.+6      	; 0x36d2 <ProcessInput+0xd60>
    return 0;
}

//
void SetResponse(uint8_t number, uint16_t address, uint16_t length, uint8_t type){
    reactStr[0][number]=address;
    36cc:	8b e3       	ldi	r24, 0x3B	; 59
    36ce:	99 e7       	ldi	r25, 0x79	; 121
    36d0:	02 c0       	rjmp	.+4      	; 0x36d6 <ProcessInput+0xd64>
    36d2:	8f e4       	ldi	r24, 0x4F	; 79
    36d4:	99 e7       	ldi	r25, 0x79	; 121
    36d6:	80 93 1d 39 	sts	0x391D, r24	; 0x80391d <reactStr+0x2>
    36da:	90 93 1e 39 	sts	0x391E, r25	; 0x80391e <reactStr+0x3>
    reactStr[1][number]=length;
    36de:	84 e1       	ldi	r24, 0x14	; 20
    36e0:	90 e0       	ldi	r25, 0x00	; 0
    36e2:	0c ca       	rjmp	.-3048   	; 0x2afc <ProcessInput+0x18a>
                    }
                }
            }
        
        //Special answer given
        } else if (data[0] == 'a'){
    36e4:	81 36       	cpi	r24, 0x61	; 97
    36e6:	09 f0       	breq	.+2      	; 0x36ea <ProcessInput+0xd78>
    36e8:	c5 cb       	rjmp	.-2166   	; 0x2e74 <ProcessInput+0x502>
            
            //Priest offerings
            if (specialPassed >= 2) {
    36ea:	80 91 09 39 	lds	r24, 0x3909	; 0x803909 <specialPassed>
    36ee:	82 30       	cpi	r24, 0x02	; 2
    36f0:	08 f4       	brcc	.+2      	; 0x36f4 <ProcessInput+0xd82>
    36f2:	bd c0       	rjmp	.+378    	; 0x386e <ProcessInput+0xefc>
                if (data[1] > 0) {
    36f4:	d8 01       	movw	r26, r16
    36f6:	11 96       	adiw	r26, 0x01	; 1
    36f8:	2c 91       	ld	r18, X
    36fa:	22 23       	and	r18, r18
    36fc:	09 f4       	brne	.+2      	; 0x3700 <ProcessInput+0xd8e>
    36fe:	a4 c0       	rjmp	.+328    	; 0x3848 <ProcessInput+0xed6>

                    uint8_t  digit[10] = {0, 0, 0, 0, 0, 0, 0, 0, 0, 0};
    3700:	fe 01       	movw	r30, r28
    3702:	31 96       	adiw	r30, 0x01	; 1
    3704:	7f 01       	movw	r14, r30
    3706:	8a e0       	ldi	r24, 0x0A	; 10
    3708:	df 01       	movw	r26, r30
    370a:	1d 92       	st	X+, r1
    370c:	8a 95       	dec	r24
    370e:	e9 f7       	brne	.-6      	; 0x370a <ProcessInput+0xd98>
                        answer = ((offering  & 2) << 19) + ((offering  & 1) << 8) + \
                        ((element   & 2) << 15) + ((element   & 1) << 4) + \
                        ((kneelings & 2) << 11) + ((kneelings & 1))
                        answer = answer << (3-person)
                    */
                    data[1]-='1';
    3710:	21 53       	subi	r18, 0x31	; 49
    3712:	f8 01       	movw	r30, r16
    3714:	21 83       	std	Z+1, r18	; 0x01
                    data[2]-='1';
    3716:	32 81       	ldd	r19, Z+2	; 0x02
    3718:	31 53       	subi	r19, 0x31	; 49
    371a:	32 83       	std	Z+2, r19	; 0x02
                    if (data[3] == 'a') data[3] = 1;
    371c:	83 81       	ldd	r24, Z+3	; 0x03
    371e:	81 36       	cpi	r24, 0x61	; 97
    3720:	11 f4       	brne	.+4      	; 0x3726 <ProcessInput+0xdb4>
    3722:	81 e0       	ldi	r24, 0x01	; 1
    3724:	08 c0       	rjmp	.+16     	; 0x3736 <ProcessInput+0xdc4>
                    else if (data[3] == 'e') data[3] = 0;
    3726:	85 36       	cpi	r24, 0x65	; 101
    3728:	11 f4       	brne	.+4      	; 0x372e <ProcessInput+0xdbc>
    372a:	13 82       	std	Z+3, r1	; 0x03
    372c:	08 c0       	rjmp	.+16     	; 0x373e <ProcessInput+0xdcc>
                    else if (data[3] == 'f') data[3] = 3;
    372e:	86 36       	cpi	r24, 0x66	; 102
    3730:	21 f4       	brne	.+8      	; 0x373a <ProcessInput+0xdc8>
    3732:	83 e0       	ldi	r24, 0x03	; 3
    3734:	f8 01       	movw	r30, r16
    3736:	83 83       	std	Z+3, r24	; 0x03
    3738:	02 c0       	rjmp	.+4      	; 0x373e <ProcessInput+0xdcc>
                    else data[3] = 2;
    373a:	82 e0       	ldi	r24, 0x02	; 2
    373c:	83 83       	std	Z+3, r24	; 0x03

                    if (data[1] & 2) answer += (1UL << 20);
    373e:	21 fd       	sbrc	r18, 1
    3740:	04 c0       	rjmp	.+8      	; 0x374a <ProcessInput+0xdd8>
            //Priest offerings
            if (specialPassed >= 2) {
                if (data[1] > 0) {

                    uint8_t  digit[10] = {0, 0, 0, 0, 0, 0, 0, 0, 0, 0};
                    uint32_t answer = 0;
    3742:	80 e0       	ldi	r24, 0x00	; 0
    3744:	90 e0       	ldi	r25, 0x00	; 0
    3746:	dc 01       	movw	r26, r24
    3748:	04 c0       	rjmp	.+8      	; 0x3752 <ProcessInput+0xde0>
                    if (data[3] == 'a') data[3] = 1;
                    else if (data[3] == 'e') data[3] = 0;
                    else if (data[3] == 'f') data[3] = 3;
                    else data[3] = 2;

                    if (data[1] & 2) answer += (1UL << 20);
    374a:	80 e0       	ldi	r24, 0x00	; 0
    374c:	90 e0       	ldi	r25, 0x00	; 0
    374e:	a0 e1       	ldi	r26, 0x10	; 16
    3750:	b0 e0       	ldi	r27, 0x00	; 0
                    if (data[1] & 1) answer += (1 << 8);
    3752:	20 ff       	sbrs	r18, 0
    3754:	03 c0       	rjmp	.+6      	; 0x375c <ProcessInput+0xdea>
    3756:	9f 5f       	subi	r25, 0xFF	; 255
    3758:	af 4f       	sbci	r26, 0xFF	; 255
    375a:	bf 4f       	sbci	r27, 0xFF	; 255
                    if (data[3] & 2) answer += (1UL << 16);
    375c:	f8 01       	movw	r30, r16
    375e:	23 81       	ldd	r18, Z+3	; 0x03
    3760:	21 fd       	sbrc	r18, 1
    3762:	11 96       	adiw	r26, 0x01	; 1
                    if (data[3] & 1) answer += (1 << 4);
    3764:	20 ff       	sbrs	r18, 0
    3766:	03 c0       	rjmp	.+6      	; 0x376e <ProcessInput+0xdfc>
    3768:	40 96       	adiw	r24, 0x10	; 16
    376a:	a1 1d       	adc	r26, r1
    376c:	b1 1d       	adc	r27, r1
                    if (data[2] & 2) answer += (1 << 12);
    376e:	31 ff       	sbrs	r19, 1
    3770:	03 c0       	rjmp	.+6      	; 0x3778 <ProcessInput+0xe06>
    3772:	90 5f       	subi	r25, 0xF0	; 240
    3774:	af 4f       	sbci	r26, 0xFF	; 255
    3776:	bf 4f       	sbci	r27, 0xFF	; 255
                    if (data[2] & 1) answer += 1;
    3778:	30 ff       	sbrs	r19, 0
    377a:	03 c0       	rjmp	.+6      	; 0x3782 <ProcessInput+0xe10>
    377c:	01 96       	adiw	r24, 0x01	; 1
    377e:	a1 1d       	adc	r26, r1
    3780:	b1 1d       	adc	r27, r1
                    answer <<= (4 - whoami);            
    3782:	40 91 3d 38 	lds	r20, 0x383D	; 0x80383d <whoami>
    3786:	24 e0       	ldi	r18, 0x04	; 4
    3788:	30 e0       	ldi	r19, 0x00	; 0
    378a:	24 1b       	sub	r18, r20
    378c:	31 09       	sbc	r19, r1
    378e:	bc 01       	movw	r22, r24
    3790:	cd 01       	movw	r24, r26
    3792:	04 c0       	rjmp	.+8      	; 0x379c <ProcessInput+0xe2a>
    3794:	66 0f       	add	r22, r22
    3796:	77 1f       	adc	r23, r23
    3798:	88 1f       	adc	r24, r24
    379a:	99 1f       	adc	r25, r25
    379c:	2a 95       	dec	r18
    379e:	d2 f7       	brpl	.-12     	; 0x3794 <ProcessInput+0xe22>
    return 0;
}

//
void SetResponse(uint8_t number, uint16_t address, uint16_t length, uint8_t type){
    reactStr[0][number]=address;
    37a0:	25 e0       	ldi	r18, 0x05	; 5
    37a2:	35 e7       	ldi	r19, 0x75	; 117
    37a4:	20 93 1d 39 	sts	0x391D, r18	; 0x80391d <reactStr+0x2>
    37a8:	30 93 1e 39 	sts	0x391E, r19	; 0x80391e <reactStr+0x3>
    reactStr[1][number]=length;
    37ac:	20 e2       	ldi	r18, 0x20	; 32
    37ae:	30 e0       	ldi	r19, 0x00	; 0
    37b0:	20 93 5d 39 	sts	0x395D, r18	; 0x80395d <reactStr+0x42>
    37b4:	30 93 5e 39 	sts	0x395E, r19	; 0x80395e <reactStr+0x43>
    reactStr[2][number]=type;
    37b8:	21 e0       	ldi	r18, 0x01	; 1
    37ba:	30 e0       	ldi	r19, 0x00	; 0
    37bc:	20 93 9d 39 	sts	0x399D, r18	; 0x80399d <reactStr+0x82>
    37c0:	30 93 9e 39 	sts	0x399E, r19	; 0x80399e <reactStr+0x83>
                    answer <<= (4 - whoami);            

                    SetResponse(elements++, A_YOURPART, L_YOURPART, TEASER);
                    
                    //Set up sending out number
                    for (n=9; n>=0; --n) {
    37c4:	59 e0       	ldi	r21, 0x09	; 9
                        digit[n] = answer % 10;
    37c6:	b5 2e       	mov	r11, r21
    37c8:	ea e0       	ldi	r30, 0x0A	; 10
    37ca:	4e 2e       	mov	r4, r30
    37cc:	51 2c       	mov	r5, r1
    37ce:	61 2c       	mov	r6, r1
    37d0:	71 2c       	mov	r7, r1
    37d2:	67 01       	movw	r12, r14
    37d4:	cb 0c       	add	r12, r11
    37d6:	d1 1c       	adc	r13, r1
    37d8:	a3 01       	movw	r20, r6
    37da:	92 01       	movw	r18, r4
    37dc:	b5 d2       	rcall	.+1386   	; 0x3d48 <__udivmodsi4>
    37de:	d6 01       	movw	r26, r12
    37e0:	6c 93       	st	X, r22
                        answer /= 10;
    37e2:	b9 01       	movw	r22, r18
    37e4:	ca 01       	movw	r24, r20
                        if (answer == 0) break;
    37e6:	61 15       	cp	r22, r1
    37e8:	71 05       	cpc	r23, r1
    37ea:	81 05       	cpc	r24, r1
    37ec:	91 05       	cpc	r25, r1
    37ee:	51 f4       	brne	.+20     	; 0x3804 <ProcessInput+0xe92>
    37f0:	2b e1       	ldi	r18, 0x1B	; 27
    37f2:	c2 2e       	mov	r12, r18
    37f4:	29 e3       	ldi	r18, 0x39	; 57
    37f6:	d2 2e       	mov	r13, r18
    37f8:	32 e0       	ldi	r19, 0x02	; 2
    37fa:	73 2e       	mov	r7, r19
}

//
void SetResponse(uint8_t number, uint16_t address, uint16_t length, uint8_t type){
    reactStr[0][number]=address;
    reactStr[1][number]=length;
    37fc:	88 24       	eor	r8, r8
    37fe:	83 94       	inc	r8
    3800:	91 2c       	mov	r9, r1
    3802:	02 c0       	rjmp	.+4      	; 0x3808 <ProcessInput+0xe96>
                    answer <<= (4 - whoami);            

                    SetResponse(elements++, A_YOURPART, L_YOURPART, TEASER);
                    
                    //Set up sending out number
                    for (n=9; n>=0; --n) {
    3804:	ba 94       	dec	r11
                        digit[n] = answer % 10;
                        answer /= 10;
                        if (answer == 0) break;
                    }
    3806:	e5 cf       	rjmp	.-54     	; 0x37d2 <ProcessInput+0xe60>
    3808:	f2 e0       	ldi	r31, 0x02	; 2
    380a:	cf 0e       	add	r12, r31
    380c:	d1 1c       	adc	r13, r1
                    for (; n<10; ++n) {
    380e:	29 e0       	ldi	r18, 0x09	; 9
    3810:	2b 15       	cp	r18, r11
    3812:	08 f4       	brcc	.+2      	; 0x3816 <ProcessInput+0xea4>
    3814:	9c c0       	rjmp	.+312    	; 0x394e <ProcessInput+0xfdc>
                        SetResponse(elements++, A_DIGITS+digit[n], 1, TEASER);
    3816:	73 94       	inc	r7
    3818:	f7 01       	movw	r30, r14
    381a:	eb 0d       	add	r30, r11
    381c:	f1 1d       	adc	r31, r1
    return 0;
}

//
void SetResponse(uint8_t number, uint16_t address, uint16_t length, uint8_t type){
    reactStr[0][number]=address;
    381e:	80 81       	ld	r24, Z
    3820:	90 e0       	ldi	r25, 0x00	; 0
    3822:	8e 52       	subi	r24, 0x2E	; 46
    3824:	9b 48       	sbci	r25, 0x8B	; 139
    3826:	f6 01       	movw	r30, r12
    3828:	82 83       	std	Z+2, r24	; 0x02
    382a:	93 83       	std	Z+3, r25	; 0x03
    reactStr[1][number]=length;
    382c:	ee 5b       	subi	r30, 0xBE	; 190
    382e:	ff 4f       	sbci	r31, 0xFF	; 255
    3830:	80 82       	st	Z, r8
    3832:	91 82       	std	Z+1, r9	; 0x01
    reactStr[2][number]=type;
    3834:	e0 5c       	subi	r30, 0xC0	; 192
    3836:	ff 4f       	sbci	r31, 0xFF	; 255
    3838:	80 82       	st	Z, r8
    383a:	91 82       	std	Z+1, r9	; 0x01
                        answer /= 10;
                        if (answer == 0) break;
                    }
                    for (; n<10; ++n) {
                        SetResponse(elements++, A_DIGITS+digit[n], 1, TEASER);
                        UpdateState(actObj1.byteField[ACTION_STATE]);
    383c:	80 91 e4 38 	lds	r24, 0x38E4	; 0x8038e4 <actObj1.3999+0xa>
    3840:	0e 94 9b 0a 	call	0x1536	; 0x1536 <UpdateState>
                    for (n=9; n>=0; --n) {
                        digit[n] = answer % 10;
                        answer /= 10;
                        if (answer == 0) break;
                    }
                    for (; n<10; ++n) {
    3844:	b3 94       	inc	r11
    3846:	e0 cf       	rjmp	.-64     	; 0x3808 <ProcessInput+0xe96>
    return 0;
}

//
void SetResponse(uint8_t number, uint16_t address, uint16_t length, uint8_t type){
    reactStr[0][number]=address;
    3848:	85 e2       	ldi	r24, 0x25	; 37
    384a:	95 e7       	ldi	r25, 0x75	; 117
    384c:	80 93 1d 39 	sts	0x391D, r24	; 0x80391d <reactStr+0x2>
    3850:	90 93 1e 39 	sts	0x391E, r25	; 0x80391e <reactStr+0x3>
    reactStr[1][number]=length;
    3854:	8d e3       	ldi	r24, 0x3D	; 61
    3856:	90 e0       	ldi	r25, 0x00	; 0
    3858:	80 93 5d 39 	sts	0x395D, r24	; 0x80395d <reactStr+0x42>
    385c:	90 93 5e 39 	sts	0x395E, r25	; 0x80395e <reactStr+0x43>
    reactStr[2][number]=type;
    3860:	81 e0       	ldi	r24, 0x01	; 1
    3862:	90 e0       	ldi	r25, 0x00	; 0
    3864:	80 93 9d 39 	sts	0x399D, r24	; 0x80399d <reactStr+0x82>
    3868:	90 93 9e 39 	sts	0x399E, r25	; 0x80399e <reactStr+0x83>
    386c:	6e c0       	rjmp	.+220    	; 0x394a <ProcessInput+0xfd8>
    386e:	e0 91 2c 38 	lds	r30, 0x382C	; 0x80382c <currDepth>
                    SetResponse(elements++, A_BADOFFERING, L_BADOFFERING, TEASER);
                }
            
            //Other questions    
            } else if (specialPassed == 1) {
                PopulateObject(route[currDepth+1], &actObj1);
    3872:	f0 e0       	ldi	r31, 0x00	; 0
    3874:	ee 0f       	add	r30, r30
    3876:	ff 1f       	adc	r31, r31
    3878:	e3 52       	subi	r30, 0x23	; 35
    387a:	f6 4c       	sbci	r31, 0xC6	; 198
    387c:	6a ed       	ldi	r22, 0xDA	; 218
    387e:	78 e3       	ldi	r23, 0x38	; 56
                } else {
                    SetResponse(elements++, A_BADOFFERING, L_BADOFFERING, TEASER);
                }
            
            //Other questions    
            } else if (specialPassed == 1) {
    3880:	81 30       	cpi	r24, 0x01	; 1
    3882:	09 f0       	breq	.+2      	; 0x3886 <ProcessInput+0xf14>
    3884:	46 c0       	rjmp	.+140    	; 0x3912 <ProcessInput+0xfa0>
                PopulateObject(route[currDepth+1], &actObj1);
    3886:	80 81       	ld	r24, Z
    3888:	91 81       	ldd	r25, Z+1	; 0x01
    388a:	0e 94 0b 10 	call	0x2016	; 0x2016 <PopulateObject>
                if (CheckState(actObj1.byteField[ACTION_ACL])){
    388e:	80 91 e1 38 	lds	r24, 0x38E1	; 0x8038e1 <actObj1.3999+0x7>
    3892:	0e 94 a5 0a 	call	0x154a	; 0x154a <CheckState>
    3896:	88 23       	and	r24, r24
    3898:	01 f1       	breq	.+64     	; 0x38da <ProcessInput+0xf68>
                    SetResponse(elements++, actObj1.addrStr[ACTION_MSG], actObj1.lenStr[ACTION_MSG], GAME);
    389a:	80 91 00 39 	lds	r24, 0x3900	; 0x803900 <actObj1.3999+0x26>
    389e:	90 91 01 39 	lds	r25, 0x3901	; 0x803901 <actObj1.3999+0x27>
    return 0;
}

//
void SetResponse(uint8_t number, uint16_t address, uint16_t length, uint8_t type){
    reactStr[0][number]=address;
    38a2:	20 91 f2 38 	lds	r18, 0x38F2	; 0x8038f2 <actObj1.3999+0x18>
    38a6:	30 91 f3 38 	lds	r19, 0x38F3	; 0x8038f3 <actObj1.3999+0x19>
    38aa:	20 93 1d 39 	sts	0x391D, r18	; 0x80391d <reactStr+0x2>
    38ae:	30 93 1e 39 	sts	0x391E, r19	; 0x80391e <reactStr+0x3>
    reactStr[1][number]=length;
    38b2:	80 93 5d 39 	sts	0x395D, r24	; 0x80395d <reactStr+0x42>
    38b6:	90 93 5e 39 	sts	0x395E, r25	; 0x80395e <reactStr+0x43>
    reactStr[2][number]=type;
    38ba:	10 92 9d 39 	sts	0x399D, r1	; 0x80399d <reactStr+0x82>
    38be:	10 92 9e 39 	sts	0x399E, r1	; 0x80399e <reactStr+0x83>
            //Other questions    
            } else if (specialPassed == 1) {
                PopulateObject(route[currDepth+1], &actObj1);
                if (CheckState(actObj1.byteField[ACTION_ACL])){
                    SetResponse(elements++, actObj1.addrStr[ACTION_MSG], actObj1.lenStr[ACTION_MSG], GAME);
                    effect = actObj1.effect[2];
    38c2:	80 91 04 39 	lds	r24, 0x3904	; 0x803904 <actObj1.3999+0x2a>
    38c6:	90 e0       	ldi	r25, 0x00	; 0
    38c8:	80 93 3a 38 	sts	0x383A, r24	; 0x80383a <effect>
    38cc:	90 93 3b 38 	sts	0x383B, r25	; 0x80383b <effect+0x1>
                    UpdateState(actObj1.byteField[ACTION_STATE]);
    38d0:	80 91 e4 38 	lds	r24, 0x38E4	; 0x8038e4 <actObj1.3999+0xa>
    38d4:	0e 94 9b 0a 	call	0x1536	; 0x1536 <UpdateState>
    38d8:	38 c0       	rjmp	.+112    	; 0x394a <ProcessInput+0xfd8>
                } else {
                    SetResponse(elements++, actObj1.addrStr[ACTION_ACL_MSG], actObj1.lenStr[ACTION_ACL_MSG], GAME);
    38da:	80 91 fe 38 	lds	r24, 0x38FE	; 0x8038fe <actObj1.3999+0x24>
    38de:	90 91 ff 38 	lds	r25, 0x38FF	; 0x8038ff <actObj1.3999+0x25>
    return 0;
}

//
void SetResponse(uint8_t number, uint16_t address, uint16_t length, uint8_t type){
    reactStr[0][number]=address;
    38e2:	20 91 f0 38 	lds	r18, 0x38F0	; 0x8038f0 <actObj1.3999+0x16>
    38e6:	30 91 f1 38 	lds	r19, 0x38F1	; 0x8038f1 <actObj1.3999+0x17>
    38ea:	20 93 1d 39 	sts	0x391D, r18	; 0x80391d <reactStr+0x2>
    38ee:	30 93 1e 39 	sts	0x391E, r19	; 0x80391e <reactStr+0x3>
    reactStr[1][number]=length;
    38f2:	80 93 5d 39 	sts	0x395D, r24	; 0x80395d <reactStr+0x42>
    38f6:	90 93 5e 39 	sts	0x395E, r25	; 0x80395e <reactStr+0x43>
    reactStr[2][number]=type;
    38fa:	10 92 9d 39 	sts	0x399D, r1	; 0x80399d <reactStr+0x82>
    38fe:	10 92 9e 39 	sts	0x399E, r1	; 0x80399e <reactStr+0x83>
                    SetResponse(elements++, actObj1.addrStr[ACTION_MSG], actObj1.lenStr[ACTION_MSG], GAME);
                    effect = actObj1.effect[2];
                    UpdateState(actObj1.byteField[ACTION_STATE]);
                } else {
                    SetResponse(elements++, actObj1.addrStr[ACTION_ACL_MSG], actObj1.lenStr[ACTION_ACL_MSG], GAME);
                    effect = actObj1.effect[1];
    3902:	80 91 03 39 	lds	r24, 0x3903	; 0x803903 <actObj1.3999+0x29>
    3906:	90 e0       	ldi	r25, 0x00	; 0
    3908:	80 93 3a 38 	sts	0x383A, r24	; 0x80383a <effect>
    390c:	90 93 3b 38 	sts	0x383B, r25	; 0x80383b <effect+0x1>
    3910:	1c c0       	rjmp	.+56     	; 0x394a <ProcessInput+0xfd8>
                }

            } else {
                PopulateObject(route[currDepth+1], &actObj1);
    3912:	80 81       	ld	r24, Z
    3914:	91 81       	ldd	r25, Z+1	; 0x01
    3916:	0e 94 0b 10 	call	0x2016	; 0x2016 <PopulateObject>
    return 0;
}

//
void SetResponse(uint8_t number, uint16_t address, uint16_t length, uint8_t type){
    reactStr[0][number]=address;
    391a:	8d e9       	ldi	r24, 0x9D	; 157
    391c:	98 e7       	ldi	r25, 0x78	; 120
    391e:	80 93 1d 39 	sts	0x391D, r24	; 0x80391d <reactStr+0x2>
    3922:	90 93 1e 39 	sts	0x391E, r25	; 0x80391e <reactStr+0x3>
    reactStr[1][number]=length;
    3926:	82 e1       	ldi	r24, 0x12	; 18
    3928:	90 e0       	ldi	r25, 0x00	; 0
    392a:	80 93 5d 39 	sts	0x395D, r24	; 0x80395d <reactStr+0x42>
    392e:	90 93 5e 39 	sts	0x395E, r25	; 0x80395e <reactStr+0x43>
    reactStr[2][number]=type;
    3932:	81 e0       	ldi	r24, 0x01	; 1
    3934:	90 e0       	ldi	r25, 0x00	; 0
    3936:	80 93 9d 39 	sts	0x399D, r24	; 0x80399d <reactStr+0x82>
    393a:	90 93 9e 39 	sts	0x399E, r25	; 0x80399e <reactStr+0x83>
                }

            } else {
                PopulateObject(route[currDepth+1], &actObj1);
                SetResponse(elements++, A_INCORRECT, L_INCORRECT, TEASER);
                PunishmentTime = getClock();
    393e:	0e 94 54 0d 	call	0x1aa8	; 0x1aa8 <getClock>
    3942:	80 93 07 39 	sts	0x3907, r24	; 0x803907 <PunishmentTime>
    3946:	90 93 08 39 	sts	0x3908, r25	; 0x803908 <PunishmentTime+0x1>
                    effect = actObj1.effect[1];
                }

            } else {
                PopulateObject(route[currDepth+1], &actObj1);
                SetResponse(elements++, A_INCORRECT, L_INCORRECT, TEASER);
    394a:	82 e0       	ldi	r24, 0x02	; 2
    394c:	78 2e       	mov	r7, r24
                PunishmentTime = getClock();
            }
            specialInput[0] = 0;
    394e:	10 92 0a 39 	sts	0x390A, r1	; 0x80390a <specialInput>
    return 0;
}

//
void SetResponse(uint8_t number, uint16_t address, uint16_t length, uint8_t type){
    reactStr[0][number]=address;
    3952:	8b e5       	ldi	r24, 0x5B	; 91
    3954:	9a e7       	ldi	r25, 0x7A	; 122
    3956:	80 93 1b 39 	sts	0x391B, r24	; 0x80391b <reactStr>
    395a:	90 93 1c 39 	sts	0x391C, r25	; 0x80391c <reactStr+0x1>
    reactStr[1][number]=length;
    395e:	82 e0       	ldi	r24, 0x02	; 2
    3960:	90 e0       	ldi	r25, 0x00	; 0
    3962:	80 93 5b 39 	sts	0x395B, r24	; 0x80395b <reactStr+0x40>
    3966:	90 93 5c 39 	sts	0x395C, r25	; 0x80395c <reactStr+0x41>
    reactStr[2][number]=type;
    396a:	81 e0       	ldi	r24, 0x01	; 1
    396c:	90 e0       	ldi	r25, 0x00	; 0
    396e:	80 93 9b 39 	sts	0x399B, r24	; 0x80399b <reactStr+0x80>
    3972:	90 93 9c 39 	sts	0x399C, r25	; 0x80399c <reactStr+0x81>
               
        }
            
        //Input handled
        SetResponse(0, A_LF, 2, TEASER);
        if (specialInput[0]) responseList = elements; else responseList = SetStandardResponse(elements);
    3976:	80 91 0a 39 	lds	r24, 0x390A	; 0x80390a <specialInput>
    397a:	88 23       	and	r24, r24
    397c:	19 f0       	breq	.+6      	; 0x3984 <ProcessInput+0x1012>
    397e:	70 92 1a 39 	sts	0x391A, r7	; 0x80391a <responseList>
    3982:	9a c0       	rjmp	.+308    	; 0x3ab8 <ProcessInput+0x1146>
    3984:	87 2d       	mov	r24, r7
    3986:	12 c0       	rjmp	.+36     	; 0x39ac <ProcessInput+0x103a>
    return 0;
}

//
void SetResponse(uint8_t number, uint16_t address, uint16_t length, uint8_t type){
    reactStr[0][number]=address;
    3988:	8b e5       	ldi	r24, 0x5B	; 91
    398a:	9a e7       	ldi	r25, 0x7A	; 122
    398c:	80 93 1b 39 	sts	0x391B, r24	; 0x80391b <reactStr>
    3990:	90 93 1c 39 	sts	0x391C, r25	; 0x80391c <reactStr+0x1>
    reactStr[1][number]=length;
    3994:	82 e0       	ldi	r24, 0x02	; 2
    3996:	90 e0       	ldi	r25, 0x00	; 0
    3998:	80 93 5b 39 	sts	0x395B, r24	; 0x80395b <reactStr+0x40>
    399c:	90 93 5c 39 	sts	0x395C, r25	; 0x80395c <reactStr+0x41>
    reactStr[2][number]=type;
    39a0:	81 e0       	ldi	r24, 0x01	; 1
    39a2:	90 e0       	ldi	r25, 0x00	; 0
    39a4:	80 93 9b 39 	sts	0x399B, r24	; 0x80399b <reactStr+0x80>
    39a8:	90 93 9c 39 	sts	0x399C, r25	; 0x80399c <reactStr+0x81>
        SetResponse(0, A_LF, 2, TEASER);
        if (specialInput[0]) responseList = elements; else responseList = SetStandardResponse(elements);

    } else {
        SetResponse(0, A_LF, 2, TEASER);
        responseList = SetStandardResponse(1);
    39ac:	0e 94 8f 0f 	call	0x1f1e	; 0x1f1e <SetStandardResponse>
    39b0:	80 93 1a 39 	sts	0x391A, r24	; 0x80391a <responseList>
    return 0;
}

//
void SetResponse(uint8_t number, uint16_t address, uint16_t length, uint8_t type){
    reactStr[0][number]=address;
    39b4:	81 c0       	rjmp	.+258    	; 0x3ab8 <ProcessInput+0x1146>
    39b6:	83 ed       	ldi	r24, 0xD3	; 211
    39b8:	99 e7       	ldi	r25, 0x79	; 121

        //Drop item if in inventory
        if (data[0] == 'd') {
            if ((inventory[0] == 0)&&(inventory[1] == 0)){
                SetResponse(elements++, A_EMPTYHANDS, L_EMPTYHANDS, TEASER);
            } else if (inputLen != 2) {
    39ba:	a0 cd       	rjmp	.-1216   	; 0x34fc <ProcessInput+0xb8a>
    39bc:	b2 e0       	ldi	r27, 0x02	; 2
    39be:	fb 12       	cpse	r15, r27
    39c0:	08 c8       	rjmp	.-4080   	; 0x29d2 <ProcessInput+0x60>
                SetResponse(elements++, A_NOTPOSSIBLE, L_NOTPOSSIBLE, TEASER);
            } else {
                for (uint8_t x=0; x<2; ++x) {
                    if (inventory[x]) {
                        if (CheckLetter(inventory[x], data[1])) {
    39c2:	d8 01       	movw	r26, r16
    39c4:	11 96       	adiw	r26, 0x01	; 1
    39c6:	6c 91       	ld	r22, X
    39c8:	0e 94 82 10 	call	0x2104	; 0x2104 <CheckLetter>
    39cc:	88 23       	and	r24, r24
    39ce:	09 f4       	brne	.+2      	; 0x39d2 <ProcessInput+0x1060>
    39d0:	5b c0       	rjmp	.+182    	; 0x3a88 <ProcessInput+0x1116>
                SetResponse(elements++, A_EMPTYHANDS, L_EMPTYHANDS, TEASER);
            } else if (inputLen != 2) {
                SetResponse(elements++, A_NOTPOSSIBLE, L_NOTPOSSIBLE, TEASER);
            } else {
                for (uint8_t x=0; x<2; ++x) {
                    if (inventory[x]) {
    39d2:	80 e0       	ldi	r24, 0x00	; 0
    39d4:	90 e0       	ldi	r25, 0x00	; 0
                        if (CheckLetter(inventory[x], data[1])) {
                            PopulateObject(inventory[x], &actObj1);
    39d6:	88 0f       	add	r24, r24
    39d8:	99 1f       	adc	r25, r25
    39da:	9c 01       	movw	r18, r24
    39dc:	22 5c       	subi	r18, 0xC2	; 194
    39de:	37 4c       	sbci	r19, 0xC7	; 199
    39e0:	79 01       	movw	r14, r18
    39e2:	6a ed       	ldi	r22, 0xDA	; 218
    39e4:	78 e3       	ldi	r23, 0x38	; 56
    39e6:	d9 01       	movw	r26, r18
    39e8:	8d 91       	ld	r24, X+
    39ea:	9c 91       	ld	r25, X
    39ec:	0e 94 0b 10 	call	0x2016	; 0x2016 <PopulateObject>
    return 0;
}

//
void SetResponse(uint8_t number, uint16_t address, uint16_t length, uint8_t type){
    reactStr[0][number]=address;
    39f0:	83 ed       	ldi	r24, 0xD3	; 211
    39f2:	97 e7       	ldi	r25, 0x77	; 119
    39f4:	80 93 1d 39 	sts	0x391D, r24	; 0x80391d <reactStr+0x2>
    39f8:	90 93 1e 39 	sts	0x391E, r25	; 0x80391e <reactStr+0x3>
    reactStr[1][number]=length;
    39fc:	80 e1       	ldi	r24, 0x10	; 16
    39fe:	90 e0       	ldi	r25, 0x00	; 0
    3a00:	80 93 5d 39 	sts	0x395D, r24	; 0x80395d <reactStr+0x42>
    3a04:	90 93 5e 39 	sts	0x395E, r25	; 0x80395e <reactStr+0x43>
    reactStr[2][number]=type;
    3a08:	81 e0       	ldi	r24, 0x01	; 1
    3a0a:	90 e0       	ldi	r25, 0x00	; 0
    3a0c:	80 93 9d 39 	sts	0x399D, r24	; 0x80399d <reactStr+0x82>
    3a10:	90 93 9e 39 	sts	0x399E, r25	; 0x80399e <reactStr+0x83>
                for (uint8_t x=0; x<2; ++x) {
                    if (inventory[x]) {
                        if (CheckLetter(inventory[x], data[1])) {
                            PopulateObject(inventory[x], &actObj1);
                            SetResponse(elements++, A_DROPPING, L_DROPPING, TEASER);
                            SetResponse(elements++, actObj1.addrStr[NAME], actObj1.lenStr[NAME], GAME);
    3a14:	20 91 f4 38 	lds	r18, 0x38F4	; 0x8038f4 <actObj1.3999+0x1a>
    3a18:	30 91 f5 38 	lds	r19, 0x38F5	; 0x8038f5 <actObj1.3999+0x1b>
    return 0;
}

//
void SetResponse(uint8_t number, uint16_t address, uint16_t length, uint8_t type){
    reactStr[0][number]=address;
    3a1c:	40 91 e6 38 	lds	r20, 0x38E6	; 0x8038e6 <actObj1.3999+0xc>
    3a20:	50 91 e7 38 	lds	r21, 0x38E7	; 0x8038e7 <actObj1.3999+0xd>
    3a24:	40 93 1f 39 	sts	0x391F, r20	; 0x80391f <reactStr+0x4>
    3a28:	50 93 20 39 	sts	0x3920, r21	; 0x803920 <reactStr+0x5>
    reactStr[1][number]=length;
    3a2c:	20 93 5f 39 	sts	0x395F, r18	; 0x80395f <reactStr+0x44>
    3a30:	30 93 60 39 	sts	0x3960, r19	; 0x803960 <reactStr+0x45>
    reactStr[2][number]=type;
    3a34:	10 92 9f 39 	sts	0x399F, r1	; 0x80399f <reactStr+0x84>
    3a38:	10 92 a0 39 	sts	0x39A0, r1	; 0x8039a0 <reactStr+0x85>
    return 0;
}

//
void SetResponse(uint8_t number, uint16_t address, uint16_t length, uint8_t type){
    reactStr[0][number]=address;
    3a3c:	2b e5       	ldi	r18, 0x5B	; 91
    3a3e:	3a e7       	ldi	r19, 0x7A	; 122
    3a40:	20 93 21 39 	sts	0x3921, r18	; 0x803921 <reactStr+0x6>
    3a44:	30 93 22 39 	sts	0x3922, r19	; 0x803922 <reactStr+0x7>
    reactStr[1][number]=length;
    3a48:	22 e0       	ldi	r18, 0x02	; 2
    3a4a:	30 e0       	ldi	r19, 0x00	; 0
    3a4c:	20 93 61 39 	sts	0x3961, r18	; 0x803961 <reactStr+0x46>
    3a50:	30 93 62 39 	sts	0x3962, r19	; 0x803962 <reactStr+0x47>
    reactStr[2][number]=type;
    3a54:	80 93 a1 39 	sts	0x39A1, r24	; 0x8039a1 <reactStr+0x86>
    3a58:	90 93 a2 39 	sts	0x39A2, r25	; 0x8039a2 <reactStr+0x87>
    return 0;
}

//
void SetResponse(uint8_t number, uint16_t address, uint16_t length, uint8_t type){
    reactStr[0][number]=address;
    3a5c:	26 e9       	ldi	r18, 0x96	; 150
    3a5e:	37 e7       	ldi	r19, 0x77	; 119
    3a60:	20 93 23 39 	sts	0x3923, r18	; 0x803923 <reactStr+0x8>
    3a64:	30 93 24 39 	sts	0x3924, r19	; 0x803924 <reactStr+0x9>
    reactStr[1][number]=length;
    3a68:	2d e3       	ldi	r18, 0x3D	; 61
    3a6a:	30 e0       	ldi	r19, 0x00	; 0
    3a6c:	20 93 63 39 	sts	0x3963, r18	; 0x803963 <reactStr+0x48>
    3a70:	30 93 64 39 	sts	0x3964, r19	; 0x803964 <reactStr+0x49>
    reactStr[2][number]=type;
    3a74:	80 93 a3 39 	sts	0x39A3, r24	; 0x8039a3 <reactStr+0x88>
    3a78:	90 93 a4 39 	sts	0x39A4, r25	; 0x8039a4 <reactStr+0x89>
                            PopulateObject(inventory[x], &actObj1);
                            SetResponse(elements++, A_DROPPING, L_DROPPING, TEASER);
                            SetResponse(elements++, actObj1.addrStr[NAME], actObj1.lenStr[NAME], GAME);
                            SetResponse(elements++, A_LF, 2, TEASER);
                            SetResponse(elements++, A_RETURNING, L_RETURNING, TEASER);
                            inventory[x] = 0;
    3a7c:	f7 01       	movw	r30, r14
    3a7e:	10 82       	st	Z, r1
    3a80:	11 82       	std	Z+1, r1	; 0x01
                        if (CheckLetter(inventory[x], data[1])) {
                            PopulateObject(inventory[x], &actObj1);
                            SetResponse(elements++, A_DROPPING, L_DROPPING, TEASER);
                            SetResponse(elements++, actObj1.addrStr[NAME], actObj1.lenStr[NAME], GAME);
                            SetResponse(elements++, A_LF, 2, TEASER);
                            SetResponse(elements++, A_RETURNING, L_RETURNING, TEASER);
    3a82:	f5 e0       	ldi	r31, 0x05	; 5
    3a84:	7f 2e       	mov	r7, r31
                            inventory[x] = 0;
                            break;
    3a86:	65 cf       	rjmp	.-310    	; 0x3952 <ProcessInput+0xfe0>
                SetResponse(elements++, A_EMPTYHANDS, L_EMPTYHANDS, TEASER);
            } else if (inputLen != 2) {
                SetResponse(elements++, A_NOTPOSSIBLE, L_NOTPOSSIBLE, TEASER);
            } else {
                for (uint8_t x=0; x<2; ++x) {
                    if (inventory[x]) {
    3a88:	80 91 40 38 	lds	r24, 0x3840	; 0x803840 <inventory+0x2>
    3a8c:	90 91 41 38 	lds	r25, 0x3841	; 0x803841 <inventory+0x3>
    3a90:	00 97       	sbiw	r24, 0x00	; 0
    3a92:	49 f0       	breq	.+18     	; 0x3aa6 <ProcessInput+0x1134>
                        if (CheckLetter(inventory[x], data[1])) {
    3a94:	f8 01       	movw	r30, r16
    3a96:	61 81       	ldd	r22, Z+1	; 0x01
    3a98:	0e 94 82 10 	call	0x2104	; 0x2104 <CheckLetter>
    3a9c:	88 23       	and	r24, r24
    3a9e:	19 f0       	breq	.+6      	; 0x3aa6 <ProcessInput+0x1134>
                SetResponse(elements++, A_EMPTYHANDS, L_EMPTYHANDS, TEASER);
            } else if (inputLen != 2) {
                SetResponse(elements++, A_NOTPOSSIBLE, L_NOTPOSSIBLE, TEASER);
            } else {
                for (uint8_t x=0; x<2; ++x) {
                    if (inventory[x]) {
    3aa0:	81 e0       	ldi	r24, 0x01	; 1
    3aa2:	90 e0       	ldi	r25, 0x00	; 0
    3aa4:	98 cf       	rjmp	.-208    	; 0x39d6 <ProcessInput+0x1064>
    return 0;
}

//
void SetResponse(uint8_t number, uint16_t address, uint16_t length, uint8_t type){
    reactStr[0][number]=address;
    3aa6:	83 e6       	ldi	r24, 0x63	; 99
    3aa8:	99 e7       	ldi	r25, 0x79	; 121
    3aaa:	80 93 1d 39 	sts	0x391D, r24	; 0x80391d <reactStr+0x2>
    3aae:	90 93 1e 39 	sts	0x391E, r25	; 0x80391e <reactStr+0x3>
    reactStr[1][number]=length;
    3ab2:	81 e2       	ldi	r24, 0x21	; 33
    3ab4:	90 e0       	ldi	r25, 0x00	; 0
    3ab6:	22 c8       	rjmp	.-4028   	; 0x2afc <ProcessInput+0x18a>
    } else {
        SetResponse(0, A_LF, 2, TEASER);
        responseList = SetStandardResponse(1);
    }

    data[0] = 0;
    3ab8:	d8 01       	movw	r26, r16
    3aba:	1c 92       	st	X, r1
    serRxDone = 0;
    3abc:	10 92 44 38 	sts	0x3844, r1	; 0x803844 <serRxDone>
    RXCNT = 0;    
    3ac0:	1d ba       	out	0x1d, r1	; 29
    return 0;
}
    3ac2:	80 e0       	ldi	r24, 0x00	; 0
    3ac4:	2a 96       	adiw	r28, 0x0a	; 10
    3ac6:	cd bf       	out	0x3d, r28	; 61
    3ac8:	de bf       	out	0x3e, r29	; 62
    3aca:	df 91       	pop	r29
    3acc:	cf 91       	pop	r28
    3ace:	1f 91       	pop	r17
    3ad0:	0f 91       	pop	r16
    3ad2:	ff 90       	pop	r15
    3ad4:	ef 90       	pop	r14
    3ad6:	df 90       	pop	r13
    3ad8:	cf 90       	pop	r12
    3ada:	bf 90       	pop	r11
    3adc:	af 90       	pop	r10
    3ade:	9f 90       	pop	r9
    3ae0:	8f 90       	pop	r8
    3ae2:	7f 90       	pop	r7
    3ae4:	6f 90       	pop	r6
    3ae6:	5f 90       	pop	r5
    3ae8:	4f 90       	pop	r4
    3aea:	08 95       	ret

00003aec <TextAdventure>:


//MAIN GAME STRUCTURE
uint8_t TextAdventure(){
    3aec:	cf 93       	push	r28
    static uint8_t serInput[RXLEN];
    uint16_t PunishmentCount;
    
    /* Count down PunishmentTime on WING LEDs */
    if (PunishmentTime != 0) {
    3aee:	80 91 07 39 	lds	r24, 0x3907	; 0x803907 <PunishmentTime>
    3af2:	90 91 08 39 	lds	r25, 0x3908	; 0x803908 <PunishmentTime+0x1>
    3af6:	89 2b       	or	r24, r25
    3af8:	09 f1       	breq	.+66     	; 0x3b3c <TextAdventure+0x50>
        PunishmentCount = getClock();
    3afa:	0e 94 54 0d 	call	0x1aa8	; 0x1aa8 <getClock>
        if (PunishmentCount < PunishmentTime)
    3afe:	20 91 07 39 	lds	r18, 0x3907	; 0x803907 <PunishmentTime>
    3b02:	30 91 08 39 	lds	r19, 0x3908	; 0x803908 <PunishmentTime+0x1>
    3b06:	82 17       	cp	r24, r18
    3b08:	93 07       	cpc	r25, r19
    3b0a:	08 f4       	brcc	.+2      	; 0x3b0e <TextAdventure+0x22>
            PunishmentCount += 256 * 60;
    3b0c:	94 5c       	subi	r25, 0xC4	; 196
        PunishmentCount -= PunishmentTime;
    3b0e:	ac 01       	movw	r20, r24
    3b10:	42 1b       	sub	r20, r18
    3b12:	53 0b       	sbc	r21, r19
    3b14:	9a 01       	movw	r18, r20
        if (PunishmentCount > 10) {
    3b16:	4b 30       	cpi	r20, 0x0B	; 11
    3b18:	51 05       	cpc	r21, r1
    3b1a:	30 f0       	brcs	.+12     	; 0x3b28 <TextAdventure+0x3c>
            PunishmentTime = 0;
    3b1c:	10 92 07 39 	sts	0x3907, r1	; 0x803907 <PunishmentTime>
    3b20:	10 92 08 39 	sts	0x3908, r1	; 0x803908 <PunishmentTime+0x1>
            PunishmentCount = 10;
    3b24:	2a e0       	ldi	r18, 0x0A	; 10
    3b26:	30 e0       	ldi	r19, 0x00	; 0
        }
        if (gameNow == TEXT ) {
    3b28:	80 91 3c 38 	lds	r24, 0x383C	; 0x80383c <gameNow>
    3b2c:	81 11       	cpse	r24, r1
    3b2e:	06 c0       	rjmp	.+12     	; 0x3b3c <TextAdventure+0x50>
            WingBar(10-PunishmentCount,5-PunishmentCount);
    3b30:	65 e0       	ldi	r22, 0x05	; 5
    3b32:	62 1b       	sub	r22, r18
    3b34:	8a e0       	ldi	r24, 0x0A	; 10
    3b36:	82 1b       	sub	r24, r18
    3b38:	0e 94 7e 0b 	call	0x16fc	; 0x16fc <WingBar>
        }
    }

    //Still sending data to serial?
    if (CheckSend()) return 1;
    3b3c:	0e 94 61 11 	call	0x22c2	; 0x22c2 <CheckSend>
    3b40:	88 23       	and	r24, r24
    3b42:	11 f0       	breq	.+4      	; 0x3b48 <TextAdventure+0x5c>
    3b44:	c1 e0       	ldi	r28, 0x01	; 1
    3b46:	18 c0       	rjmp	.+48     	; 0x3b78 <TextAdventure+0x8c>

    //Not sending? Process next response part to send, if any.
    if (CheckResponse()) return 1;        
    3b48:	0e 94 cf 11 	call	0x239e	; 0x239e <CheckResponse>
    3b4c:	c8 2f       	mov	r28, r24
    3b4e:	81 11       	cpse	r24, r1
    3b50:	f9 cf       	rjmp	.-14     	; 0x3b44 <TextAdventure+0x58>

    if (PunishmentTime == 0) {
    3b52:	80 91 07 39 	lds	r24, 0x3907	; 0x803907 <PunishmentTime>
    3b56:	90 91 08 39 	lds	r25, 0x3908	; 0x803908 <PunishmentTime+0x1>
    3b5a:	89 2b       	or	r24, r25
    3b5c:	69 f4       	brne	.+26     	; 0x3b78 <TextAdventure+0x8c>
        //No responses to send, check if there is user input.
        if (CheckInput(&serInput[0])) return 2; 
    3b5e:	8e e6       	ldi	r24, 0x6E	; 110
    3b60:	98 e3       	ldi	r25, 0x38	; 56
    3b62:	0e 94 16 12 	call	0x242c	; 0x242c <CheckInput>
    3b66:	c8 2f       	mov	r28, r24
    3b68:	81 11       	cpse	r24, r1
    3b6a:	05 c0       	rjmp	.+10     	; 0x3b76 <TextAdventure+0x8a>

        //Input found, process and save (changes only)
        ProcessInput(&serInput[0]);
    3b6c:	8e e6       	ldi	r24, 0x6E	; 110
    3b6e:	98 e3       	ldi	r25, 0x38	; 56
    3b70:	0e 94 b9 14 	call	0x2972	; 0x2972 <ProcessInput>
    3b74:	01 c0       	rjmp	.+2      	; 0x3b78 <TextAdventure+0x8c>
    //Not sending? Process next response part to send, if any.
    if (CheckResponse()) return 1;        

    if (PunishmentTime == 0) {
        //No responses to send, check if there is user input.
        if (CheckInput(&serInput[0])) return 2; 
    3b76:	c2 e0       	ldi	r28, 0x02	; 2
        //Input found, process and save (changes only)
        ProcessInput(&serInput[0]);
    }

    return 0;
}
    3b78:	8c 2f       	mov	r24, r28
    3b7a:	cf 91       	pop	r28
    3b7c:	08 95       	ret

00003b7e <main>:


//This is where it begins, inits first and main program in while(1) loop.
int main(void)
{
    Setup();
    3b7e:	0e 94 7c 05 	call	0xaf8	; 0xaf8 <Setup>

    SerSpeed(0xff);
    3b82:	8f ef       	ldi	r24, 0xFF	; 255
    3b84:	0e 94 ec 08 	call	0x11d8	; 0x11d8 <SerSpeed>
    3b88:	aa ec       	ldi	r26, 0xCA	; 202
    3b8a:	bd eb       	ldi	r27, 0xBD	; 189
    ////Turn on LEDs on low setting to check for interrupt glitches

    //"Hacker"
    for (uint8_t n=0; n<6; n++){
        iLED[HCKR[R][n]] = 1;
    3b8c:	81 e0       	ldi	r24, 0x01	; 1
    3b8e:	ed 91       	ld	r30, X+
    3b90:	f0 e0       	ldi	r31, 0x00	; 0
    3b92:	e6 53       	subi	r30, 0x36	; 54
    3b94:	f5 4c       	sbci	r31, 0xC5	; 197
    3b96:	80 83       	st	Z, r24
        iLED[HCKR[G][n]] = 1;
    3b98:	15 96       	adiw	r26, 0x05	; 5
    3b9a:	ec 91       	ld	r30, X
    3b9c:	15 97       	sbiw	r26, 0x05	; 5
    3b9e:	f0 e0       	ldi	r31, 0x00	; 0
    3ba0:	e6 53       	subi	r30, 0x36	; 54
    3ba2:	f5 4c       	sbci	r31, 0xC5	; 197
    3ba4:	80 83       	st	Z, r24

    SerSpeed(0xff);
    ////Turn on LEDs on low setting to check for interrupt glitches

    //"Hacker"
    for (uint8_t n=0; n<6; n++){
    3ba6:	2d eb       	ldi	r18, 0xBD	; 189
    3ba8:	a0 3d       	cpi	r26, 0xD0	; 208
    3baa:	b2 07       	cpc	r27, r18
    3bac:	81 f7       	brne	.-32     	; 0x3b8e <main+0x10>
    3bae:	ec eb       	ldi	r30, 0xBC	; 188
    3bb0:	fd eb       	ldi	r31, 0xBD	; 189
        iLED[HCKR[G][n]] = 1;
    }

    //"Wings"
    for (uint8_t n=0; n<5; n++){
        iLED[WING[L][n]] = 1;
    3bb2:	91 e0       	ldi	r25, 0x01	; 1
    3bb4:	ef 01       	movw	r28, r30
    3bb6:	a5 81       	ldd	r26, Z+5	; 0x05
    3bb8:	b0 e0       	ldi	r27, 0x00	; 0
    3bba:	a6 53       	subi	r26, 0x36	; 54
    3bbc:	b5 4c       	sbci	r27, 0xC5	; 197
    3bbe:	81 e0       	ldi	r24, 0x01	; 1
    3bc0:	9c 93       	st	X, r25
    3bc2:	31 96       	adiw	r30, 0x01	; 1
        iLED[WING[R][n]] = 1;
    3bc4:	a8 81       	ld	r26, Y
    3bc6:	b0 e0       	ldi	r27, 0x00	; 0
    3bc8:	a6 53       	subi	r26, 0x36	; 54
    3bca:	b5 4c       	sbci	r27, 0xC5	; 197
    3bcc:	9c 93       	st	X, r25
        iLED[HCKR[R][n]] = 1;
        iLED[HCKR[G][n]] = 1;
    }

    //"Wings"
    for (uint8_t n=0; n<5; n++){
    3bce:	2d eb       	ldi	r18, 0xBD	; 189
    3bd0:	e1 3c       	cpi	r30, 0xC1	; 193
    3bd2:	f2 07       	cpc	r31, r18
    3bd4:	79 f7       	brne	.-34     	; 0x3bb4 <main+0x36>
        iLED[WING[L][n]] = 1;
        iLED[WING[R][n]] = 1;
    }

    //"Others"
    iLED[EYE[G][R]] = 1;
    3bd6:	e0 91 c8 bd 	lds	r30, 0xBDC8	; 0x80bdc8 <__bss_end+0x82ae>
    3bda:	f0 e0       	ldi	r31, 0x00	; 0
    3bdc:	e6 53       	subi	r30, 0x36	; 54
    3bde:	f5 4c       	sbci	r31, 0xC5	; 197
    3be0:	80 83       	st	Z, r24
    iLED[EYE[G][L]] = 1;
    3be2:	e0 91 c9 bd 	lds	r30, 0xBDC9	; 0x80bdc9 <__bss_end+0x82af>
    3be6:	f0 e0       	ldi	r31, 0x00	; 0
    3be8:	e6 53       	subi	r30, 0x36	; 54
    3bea:	f5 4c       	sbci	r31, 0xC5	; 197
    3bec:	80 83       	st	Z, r24
    iLED[EYE[R][R]] = 1;
    3bee:	e0 91 c6 bd 	lds	r30, 0xBDC6	; 0x80bdc6 <__bss_end+0x82ac>
    3bf2:	f0 e0       	ldi	r31, 0x00	; 0
    3bf4:	e6 53       	subi	r30, 0x36	; 54
    3bf6:	f5 4c       	sbci	r31, 0xC5	; 197
    3bf8:	80 83       	st	Z, r24
    iLED[EYE[R][L]] = 1;
    3bfa:	e0 91 c7 bd 	lds	r30, 0xBDC7	; 0x80bdc7 <__bss_end+0x82ad>
    3bfe:	f0 e0       	ldi	r31, 0x00	; 0
    3c00:	e6 53       	subi	r30, 0x36	; 54
    3c02:	f5 4c       	sbci	r31, 0xC5	; 197
    3c04:	80 83       	st	Z, r24
    iLED[SCARAB[R]] = 1;
    3c06:	e0 91 ba bd 	lds	r30, 0xBDBA	; 0x80bdba <__bss_end+0x82a0>
    3c0a:	f0 e0       	ldi	r31, 0x00	; 0
    3c0c:	e6 53       	subi	r30, 0x36	; 54
    3c0e:	f5 4c       	sbci	r31, 0xC5	; 197
    3c10:	80 83       	st	Z, r24
    iLED[SCARAB[G]] = 1;
    3c12:	e0 91 bb bd 	lds	r30, 0xBDBB	; 0x80bdbb <__bss_end+0x82a1>
    3c16:	f0 e0       	ldi	r31, 0x00	; 0
    3c18:	e6 53       	subi	r30, 0x36	; 54
    3c1a:	f5 4c       	sbci	r31, 0xC5	; 197
    3c1c:	80 83       	st	Z, r24
    iLED[BADGER] = 1;
    3c1e:	e0 91 b9 bd 	lds	r30, 0xBDB9	; 0x80bdb9 <__bss_end+0x829f>
    3c22:	f0 e0       	ldi	r31, 0x00	; 0
    3c24:	e6 53       	subi	r30, 0x36	; 54
    3c26:	f5 4c       	sbci	r31, 0xC5	; 197
    3c28:	80 83       	st	Z, r24
    iLED[CAT] = 1;
    3c2a:	e0 91 b8 bd 	lds	r30, 0xBDB8	; 0x80bdb8 <__bss_end+0x829e>
    3c2e:	f0 e0       	ldi	r31, 0x00	; 0
    3c30:	e6 53       	subi	r30, 0x36	; 54
    3c32:	f5 4c       	sbci	r31, 0xC5	; 197
    3c34:	80 83       	st	Z, r24

    LoadGameState();
    3c36:	0e 94 ec 0a 	call	0x15d8	; 0x15d8 <LoadGameState>
    effect = 0x013f;
    3c3a:	8f e3       	ldi	r24, 0x3F	; 63
    3c3c:	91 e0       	ldi	r25, 0x01	; 1
    3c3e:	80 93 3a 38 	sts	0x383A, r24	; 0x80383a <effect>
    3c42:	90 93 3b 38 	sts	0x383B, r25	; 0x80383b <effect+0x1>
            SaveGameState();

            //Check light sensor status (added hysteresis to preserve writing cycles to internal EEPROM)
            if (adcPhot < 10) WriteStatusBit(116, 1);
            if (adcPhot > 100) WriteStatusBit(116, 0);
            dimValue = 0 - QSINE[31-(adcPhot>>7)];
    3c46:	cf e1       	ldi	r28, 0x1F	; 31
    3c48:	d0 e0       	ldi	r29, 0x00	; 0

    LoadGameState();
    effect = 0x013f;

    while (TRUE) {
        if (GenerateAudio()) {
    3c4a:	0e 94 0f 0c 	call	0x181e	; 0x181e <GenerateAudio>
    3c4e:	88 23       	and	r24, r24
    3c50:	e1 f3       	breq	.-8      	; 0x3c4a <main+0xcc>
            buttonState = CheckButtons(buttonState);
    3c52:	80 91 09 38 	lds	r24, 0x3809	; 0x803809 <buttonState>
    3c56:	0e 94 1b 09 	call	0x1236	; 0x1236 <CheckButtons>
    3c5a:	80 93 09 38 	sts	0x3809, r24	; 0x803809 <buttonState>
            buttonMark = 0;
    3c5e:	10 92 42 38 	sts	0x3842, r1	; 0x803842 <buttonMark>

            if (VREF_CTRLA == 0x12) SelectAuIn(); else SelectTSens();
    3c62:	80 91 a0 00 	lds	r24, 0x00A0	; 0x8000a0 <__TEXT_REGION_LENGTH__+0x7000a0>
    3c66:	82 31       	cpi	r24, 0x12	; 18
    3c68:	19 f4       	brne	.+6      	; 0x3c70 <main+0xf2>
    3c6a:	0e 94 0c 09 	call	0x1218	; 0x1218 <SelectAuIn>
    3c6e:	02 c0       	rjmp	.+4      	; 0x3c74 <main+0xf6>
    3c70:	0e 94 fd 08 	call	0x11fa	; 0x11fa <SelectTSens>

            GenerateBlinks();
    3c74:	0e 94 a0 0b 	call	0x1740	; 0x1740 <GenerateBlinks>

            //Main game, to complete: Finish sub-game MagnetMaze and MakeFriends too.
            TextAdventure();
    3c78:	39 df       	rcall	.-398    	; 0x3aec <TextAdventure>

            //Other games & user interaction checks
            MagnetMaze();
    3c7a:	0e 94 70 04 	call	0x8e0	; 0x8e0 <MagnetMaze>
            LanyardCode();
    3c7e:	0e 94 31 03 	call	0x662	; 0x662 <LanyardCode>
            BastetDictates();
    3c82:	0e 94 db 0d 	call	0x1bb6	; 0x1bb6 <BastetDictates>
            MakeFriends();
    3c86:	0e 94 7a 00 	call	0xf4	; 0xf4 <MakeFriends>

            //Save progress
            SaveGameState();
    3c8a:	0e 94 fa 09 	call	0x13f4	; 0x13f4 <SaveGameState>

            //Check light sensor status (added hysteresis to preserve writing cycles to internal EEPROM)
            if (adcPhot < 10) WriteStatusBit(116, 1);
    3c8e:	80 91 bd 3a 	lds	r24, 0x3ABD	; 0x803abd <adcPhot>
    3c92:	90 91 be 3a 	lds	r25, 0x3ABE	; 0x803abe <adcPhot+0x1>
    3c96:	0a 97       	sbiw	r24, 0x0a	; 10
    3c98:	20 f4       	brcc	.+8      	; 0x3ca2 <main+0x124>
    3c9a:	61 e0       	ldi	r22, 0x01	; 1
    3c9c:	84 e7       	ldi	r24, 0x74	; 116
    3c9e:	0e 94 81 0a 	call	0x1502	; 0x1502 <WriteStatusBit>
            if (adcPhot > 100) WriteStatusBit(116, 0);
    3ca2:	80 91 bd 3a 	lds	r24, 0x3ABD	; 0x803abd <adcPhot>
    3ca6:	90 91 be 3a 	lds	r25, 0x3ABE	; 0x803abe <adcPhot+0x1>
    3caa:	85 36       	cpi	r24, 0x65	; 101
    3cac:	91 05       	cpc	r25, r1
    3cae:	20 f0       	brcs	.+8      	; 0x3cb8 <main+0x13a>
    3cb0:	60 e0       	ldi	r22, 0x00	; 0
    3cb2:	84 e7       	ldi	r24, 0x74	; 116
    3cb4:	0e 94 81 0a 	call	0x1502	; 0x1502 <WriteStatusBit>
            dimValue = 0 - QSINE[31-(adcPhot>>7)];
    3cb8:	80 91 bd 3a 	lds	r24, 0x3ABD	; 0x803abd <adcPhot>
    3cbc:	90 91 be 3a 	lds	r25, 0x3ABE	; 0x803abe <adcPhot+0x1>
    3cc0:	88 0f       	add	r24, r24
    3cc2:	89 2f       	mov	r24, r25
    3cc4:	88 1f       	adc	r24, r24
    3cc6:	99 0b       	sbc	r25, r25
    3cc8:	91 95       	neg	r25
    3cca:	fe 01       	movw	r30, r28
    3ccc:	e8 1b       	sub	r30, r24
    3cce:	f9 0b       	sbc	r31, r25
    3cd0:	ea 52       	subi	r30, 0x2A	; 42
    3cd2:	f2 44       	sbci	r31, 0x42	; 66
    3cd4:	80 81       	ld	r24, Z
    3cd6:	81 95       	neg	r24
    3cd8:	80 93 0b 38 	sts	0x380B, r24	; 0x80380b <dimValue>

            //Check temperature
            HotSummer();
    3cdc:	0e 94 19 0b 	call	0x1632	; 0x1632 <HotSummer>
    3ce0:	b4 cf       	rjmp	.-152    	; 0x3c4a <main+0xcc>

00003ce2 <__udivmodqi4>:
    3ce2:	99 1b       	sub	r25, r25
    3ce4:	79 e0       	ldi	r23, 0x09	; 9
    3ce6:	04 c0       	rjmp	.+8      	; 0x3cf0 <__udivmodqi4_ep>

00003ce8 <__udivmodqi4_loop>:
    3ce8:	99 1f       	adc	r25, r25
    3cea:	96 17       	cp	r25, r22
    3cec:	08 f0       	brcs	.+2      	; 0x3cf0 <__udivmodqi4_ep>
    3cee:	96 1b       	sub	r25, r22

00003cf0 <__udivmodqi4_ep>:
    3cf0:	88 1f       	adc	r24, r24
    3cf2:	7a 95       	dec	r23
    3cf4:	c9 f7       	brne	.-14     	; 0x3ce8 <__udivmodqi4_loop>
    3cf6:	80 95       	com	r24
    3cf8:	08 95       	ret

00003cfa <__udivmodhi4>:
    3cfa:	aa 1b       	sub	r26, r26
    3cfc:	bb 1b       	sub	r27, r27
    3cfe:	51 e1       	ldi	r21, 0x11	; 17
    3d00:	07 c0       	rjmp	.+14     	; 0x3d10 <__udivmodhi4_ep>

00003d02 <__udivmodhi4_loop>:
    3d02:	aa 1f       	adc	r26, r26
    3d04:	bb 1f       	adc	r27, r27
    3d06:	a6 17       	cp	r26, r22
    3d08:	b7 07       	cpc	r27, r23
    3d0a:	10 f0       	brcs	.+4      	; 0x3d10 <__udivmodhi4_ep>
    3d0c:	a6 1b       	sub	r26, r22
    3d0e:	b7 0b       	sbc	r27, r23

00003d10 <__udivmodhi4_ep>:
    3d10:	88 1f       	adc	r24, r24
    3d12:	99 1f       	adc	r25, r25
    3d14:	5a 95       	dec	r21
    3d16:	a9 f7       	brne	.-22     	; 0x3d02 <__udivmodhi4_loop>
    3d18:	80 95       	com	r24
    3d1a:	90 95       	com	r25
    3d1c:	bc 01       	movw	r22, r24
    3d1e:	cd 01       	movw	r24, r26
    3d20:	08 95       	ret

00003d22 <__divmodhi4>:
    3d22:	97 fb       	bst	r25, 7
    3d24:	07 2e       	mov	r0, r23
    3d26:	16 f4       	brtc	.+4      	; 0x3d2c <__divmodhi4+0xa>
    3d28:	00 94       	com	r0
    3d2a:	06 d0       	rcall	.+12     	; 0x3d38 <__divmodhi4_neg1>
    3d2c:	77 fd       	sbrc	r23, 7
    3d2e:	08 d0       	rcall	.+16     	; 0x3d40 <__divmodhi4_neg2>
    3d30:	e4 df       	rcall	.-56     	; 0x3cfa <__udivmodhi4>
    3d32:	07 fc       	sbrc	r0, 7
    3d34:	05 d0       	rcall	.+10     	; 0x3d40 <__divmodhi4_neg2>
    3d36:	3e f4       	brtc	.+14     	; 0x3d46 <__divmodhi4_exit>

00003d38 <__divmodhi4_neg1>:
    3d38:	90 95       	com	r25
    3d3a:	81 95       	neg	r24
    3d3c:	9f 4f       	sbci	r25, 0xFF	; 255
    3d3e:	08 95       	ret

00003d40 <__divmodhi4_neg2>:
    3d40:	70 95       	com	r23
    3d42:	61 95       	neg	r22
    3d44:	7f 4f       	sbci	r23, 0xFF	; 255

00003d46 <__divmodhi4_exit>:
    3d46:	08 95       	ret

00003d48 <__udivmodsi4>:
    3d48:	a1 e2       	ldi	r26, 0x21	; 33
    3d4a:	1a 2e       	mov	r1, r26
    3d4c:	aa 1b       	sub	r26, r26
    3d4e:	bb 1b       	sub	r27, r27
    3d50:	fd 01       	movw	r30, r26
    3d52:	0d c0       	rjmp	.+26     	; 0x3d6e <__udivmodsi4_ep>

00003d54 <__udivmodsi4_loop>:
    3d54:	aa 1f       	adc	r26, r26
    3d56:	bb 1f       	adc	r27, r27
    3d58:	ee 1f       	adc	r30, r30
    3d5a:	ff 1f       	adc	r31, r31
    3d5c:	a2 17       	cp	r26, r18
    3d5e:	b3 07       	cpc	r27, r19
    3d60:	e4 07       	cpc	r30, r20
    3d62:	f5 07       	cpc	r31, r21
    3d64:	20 f0       	brcs	.+8      	; 0x3d6e <__udivmodsi4_ep>
    3d66:	a2 1b       	sub	r26, r18
    3d68:	b3 0b       	sbc	r27, r19
    3d6a:	e4 0b       	sbc	r30, r20
    3d6c:	f5 0b       	sbc	r31, r21

00003d6e <__udivmodsi4_ep>:
    3d6e:	66 1f       	adc	r22, r22
    3d70:	77 1f       	adc	r23, r23
    3d72:	88 1f       	adc	r24, r24
    3d74:	99 1f       	adc	r25, r25
    3d76:	1a 94       	dec	r1
    3d78:	69 f7       	brne	.-38     	; 0x3d54 <__udivmodsi4_loop>
    3d7a:	60 95       	com	r22
    3d7c:	70 95       	com	r23
    3d7e:	80 95       	com	r24
    3d80:	90 95       	com	r25
    3d82:	9b 01       	movw	r18, r22
    3d84:	ac 01       	movw	r20, r24
    3d86:	bd 01       	movw	r22, r26
    3d88:	cf 01       	movw	r24, r30
    3d8a:	08 95       	ret

00003d8c <_exit>:
    3d8c:	f8 94       	cli

00003d8e <__stop_program>:
    3d8e:	ff cf       	rjmp	.-2      	; 0x3d8e <__stop_program>
