
ISR_IO.elf:     file format elf32-avr

Sections:
Idx Name          Size      VMA       LMA       File off  Algn
  0 .data         00000090  00803800  00001b1c  00001bd0  2**0
                  CONTENTS, ALLOC, LOAD, DATA
  1 .text         00001ade  00000000  00000000  000000b4  2**1
                  CONTENTS, ALLOC, LOAD, READONLY, CODE
  2 .rodata       0000003e  00009ade  00001ade  00001b92  2**0
                  CONTENTS, ALLOC, LOAD, READONLY, DATA
  3 .bss          0000027f  00803890  00803890  00001c60  2**0
                  ALLOC
  4 .comment      00000030  00000000  00000000  00001c60  2**0
                  CONTENTS, READONLY
  5 .note.gnu.avr.deviceinfo 00000040  00000000  00000000  00001c90  2**2
                  CONTENTS, READONLY
  6 .debug_aranges 00000248  00000000  00000000  00001cd0  2**0
                  CONTENTS, READONLY, DEBUGGING
  7 .debug_info   00004080  00000000  00000000  00001f18  2**0
                  CONTENTS, READONLY, DEBUGGING
  8 .debug_abbrev 000022b9  00000000  00000000  00005f98  2**0
                  CONTENTS, READONLY, DEBUGGING
  9 .debug_line   00001dd7  00000000  00000000  00008251  2**0
                  CONTENTS, READONLY, DEBUGGING
 10 .debug_frame  00000748  00000000  00000000  0000a028  2**2
                  CONTENTS, READONLY, DEBUGGING
 11 .debug_str    000016cd  00000000  00000000  0000a770  2**0
                  CONTENTS, READONLY, DEBUGGING
 12 .debug_loc    00002167  00000000  00000000  0000be3d  2**0
                  CONTENTS, READONLY, DEBUGGING
 13 .debug_ranges 00000270  00000000  00000000  0000dfa4  2**0
                  CONTENTS, READONLY, DEBUGGING

Disassembly of section .text:

00000000 <__vectors>:
       0:	3d c0       	rjmp	.+122    	; 0x7c <__ctors_end>
       2:	00 00       	nop
       4:	58 c0       	rjmp	.+176    	; 0xb6 <__bad_interrupt>
       6:	00 00       	nop
       8:	56 c0       	rjmp	.+172    	; 0xb6 <__bad_interrupt>
       a:	00 00       	nop
       c:	54 c0       	rjmp	.+168    	; 0xb6 <__bad_interrupt>
       e:	00 00       	nop
      10:	52 c0       	rjmp	.+164    	; 0xb6 <__bad_interrupt>
      12:	00 00       	nop
      14:	50 c0       	rjmp	.+160    	; 0xb6 <__bad_interrupt>
      16:	00 00       	nop
      18:	5b c4       	rjmp	.+2230   	; 0x8d0 <__vector_6>
      1a:	00 00       	nop
      1c:	ae c4       	rjmp	.+2396   	; 0x97a <__vector_7>
      1e:	00 00       	nop
      20:	af c2       	rjmp	.+1374   	; 0x580 <__vector_8>
      22:	00 00       	nop
      24:	48 c0       	rjmp	.+144    	; 0xb6 <__bad_interrupt>
      26:	00 00       	nop
      28:	46 c0       	rjmp	.+140    	; 0xb6 <__bad_interrupt>
      2a:	00 00       	nop
      2c:	44 c0       	rjmp	.+136    	; 0xb6 <__bad_interrupt>
      2e:	00 00       	nop
      30:	42 c0       	rjmp	.+132    	; 0xb6 <__bad_interrupt>
      32:	00 00       	nop
      34:	f9 c2       	rjmp	.+1522   	; 0x628 <__vector_13>
      36:	00 00       	nop
      38:	2a c3       	rjmp	.+1620   	; 0x68e <__vector_14>
      3a:	00 00       	nop
      3c:	3c c0       	rjmp	.+120    	; 0xb6 <__bad_interrupt>
      3e:	00 00       	nop
      40:	3a c0       	rjmp	.+116    	; 0xb6 <__bad_interrupt>
      42:	00 00       	nop
      44:	38 c0       	rjmp	.+112    	; 0xb6 <__bad_interrupt>
      46:	00 00       	nop
      48:	36 c0       	rjmp	.+108    	; 0xb6 <__bad_interrupt>
      4a:	00 00       	nop
      4c:	34 c0       	rjmp	.+104    	; 0xb6 <__bad_interrupt>
      4e:	00 00       	nop
      50:	c1 c3       	rjmp	.+1922   	; 0x7d4 <__vector_20>
      52:	00 00       	nop
      54:	30 c0       	rjmp	.+96     	; 0xb6 <__bad_interrupt>
      56:	00 00       	nop
      58:	eb c3       	rjmp	.+2006   	; 0x830 <__vector_22>
      5a:	00 00       	nop
      5c:	2c c0       	rjmp	.+88     	; 0xb6 <__bad_interrupt>
      5e:	00 00       	nop
      60:	2a c0       	rjmp	.+84     	; 0xb6 <__bad_interrupt>
      62:	00 00       	nop
      64:	28 c0       	rjmp	.+80     	; 0xb6 <__bad_interrupt>
      66:	00 00       	nop
      68:	26 c0       	rjmp	.+76     	; 0xb6 <__bad_interrupt>
      6a:	00 00       	nop
      6c:	63 c3       	rjmp	.+1734   	; 0x734 <__vector_27>
      6e:	00 00       	nop
      70:	95 c3       	rjmp	.+1834   	; 0x79c <__vector_28>
      72:	00 00       	nop
      74:	20 c0       	rjmp	.+64     	; 0xb6 <__bad_interrupt>
      76:	00 00       	nop
      78:	1e c0       	rjmp	.+60     	; 0xb6 <__bad_interrupt>
	...

0000007c <__ctors_end>:
      7c:	11 24       	eor	r1, r1
      7e:	1f be       	out	0x3f, r1	; 63
      80:	cf ef       	ldi	r28, 0xFF	; 255
      82:	cd bf       	out	0x3d, r28	; 61
      84:	df e3       	ldi	r29, 0x3F	; 63
      86:	de bf       	out	0x3e, r29	; 62

00000088 <__do_copy_data>:
      88:	18 e3       	ldi	r17, 0x38	; 56
      8a:	a0 e0       	ldi	r26, 0x00	; 0
      8c:	b8 e3       	ldi	r27, 0x38	; 56
      8e:	ec e1       	ldi	r30, 0x1C	; 28
      90:	fb e1       	ldi	r31, 0x1B	; 27
      92:	02 c0       	rjmp	.+4      	; 0x98 <__do_copy_data+0x10>
      94:	05 90       	lpm	r0, Z+
      96:	0d 92       	st	X+, r0
      98:	a0 39       	cpi	r26, 0x90	; 144
      9a:	b1 07       	cpc	r27, r17
      9c:	d9 f7       	brne	.-10     	; 0x94 <__do_copy_data+0xc>

0000009e <__do_clear_bss>:
      9e:	2b e3       	ldi	r18, 0x3B	; 59
      a0:	a0 e9       	ldi	r26, 0x90	; 144
      a2:	b8 e3       	ldi	r27, 0x38	; 56
      a4:	01 c0       	rjmp	.+2      	; 0xa8 <.do_clear_bss_start>

000000a6 <.do_clear_bss_loop>:
      a6:	1d 92       	st	X+, r1

000000a8 <.do_clear_bss_start>:
      a8:	af 30       	cpi	r26, 0x0F	; 15
      aa:	b2 07       	cpc	r27, r18
      ac:	e1 f7       	brne	.-8      	; 0xa6 <.do_clear_bss_loop>
      ae:	0e 94 c7 0c 	call	0x198e	; 0x198e <main>
      b2:	0c 94 6d 0d 	jmp	0x1ada	; 0x1ada <_exit>

000000b6 <__bad_interrupt>:
      b6:	a4 cf       	rjmp	.-184    	; 0x0 <__vectors>

000000b8 <I2C_init>:
// the Atmel device documentation mentions a special command for repeated start TWI_MCMD_REPSTART_gc,
// but this is not used in Atmel's demo code, so we don't use it either

void I2C_rep_start(uint8_t shifted_addr)						    // send repeated start, device_addr + LSB set if READ
{
	TWI0.MADDR = shifted_addr;	
      b8:	81 e0       	ldi	r24, 0x01	; 1
      ba:	80 93 22 04 	sts	0x0422, r24	; 0x800422 <__TEXT_REGION_LENGTH__+0x700422>
      be:	e6 e2       	ldi	r30, 0x26	; 38
      c0:	f4 e0       	ldi	r31, 0x04	; 4
      c2:	80 83       	st	Z, r24
      c4:	10 92 30 04 	sts	0x0430, r1	; 0x800430 <__TEXT_REGION_LENGTH__+0x700430>
      c8:	a1 e2       	ldi	r26, 0x21	; 33
      ca:	b4 e0       	ldi	r27, 0x04	; 4
      cc:	92 e0       	ldi	r25, 0x02	; 2
      ce:	9c 93       	st	X, r25
      d0:	90 83       	st	Z, r25
      d2:	10 92 31 04 	sts	0x0431, r1	; 0x800431 <__TEXT_REGION_LENGTH__+0x700431>
      d6:	e0 e1       	ldi	r30, 0x10	; 16
      d8:	f8 e0       	ldi	r31, 0x08	; 8
      da:	9d e2       	ldi	r25, 0x2D	; 45
      dc:	96 83       	std	Z+6, r25	; 0x06
      de:	98 e0       	ldi	r25, 0x08	; 8
      e0:	94 83       	std	Z+4, r25	; 0x04
      e2:	83 83       	std	Z+3, r24	; 0x03
      e4:	8c 93       	st	X, r24
      e6:	85 81       	ldd	r24, Z+5	; 0x05
      e8:	81 60       	ori	r24, 0x01	; 1
      ea:	85 83       	std	Z+5, r24	; 0x05
      ec:	85 81       	ldd	r24, Z+5	; 0x05
      ee:	84 6c       	ori	r24, 0xC4	; 196
      f0:	85 83       	std	Z+5, r24	; 0x05
      f2:	08 95       	ret

000000f4 <I2C_recover>:
      f4:	e0 e1       	ldi	r30, 0x10	; 16
      f6:	f8 e0       	ldi	r31, 0x08	; 8
      f8:	84 81       	ldd	r24, Z+4	; 0x04
      fa:	88 60       	ori	r24, 0x08	; 8
      fc:	84 83       	std	Z+4, r24	; 0x04
      fe:	13 82       	std	Z+3, r1	; 0x03
     100:	82 e0       	ldi	r24, 0x02	; 2
     102:	80 93 22 04 	sts	0x0422, r24	; 0x800422 <__TEXT_REGION_LENGTH__+0x700422>
     106:	89 e0       	ldi	r24, 0x09	; 9
     108:	a1 e2       	ldi	r26, 0x21	; 33
     10a:	b4 e0       	ldi	r27, 0x04	; 4
     10c:	91 e0       	ldi	r25, 0x01	; 1
     10e:	e2 e2       	ldi	r30, 0x22	; 34
     110:	f4 e0       	ldi	r31, 0x04	; 4
     112:	9c 93       	st	X, r25
     114:	20 e1       	ldi	r18, 0x10	; 16
     116:	2a 95       	dec	r18
     118:	f1 f7       	brne	.-4      	; 0x116 <I2C_recover+0x22>
     11a:	00 c0       	rjmp	.+0      	; 0x11c <I2C_recover+0x28>
     11c:	90 83       	st	Z, r25
     11e:	20 e1       	ldi	r18, 0x10	; 16
     120:	2a 95       	dec	r18
     122:	f1 f7       	brne	.-4      	; 0x120 <I2C_recover+0x2c>
     124:	00 c0       	rjmp	.+0      	; 0x126 <I2C_recover+0x32>
     126:	81 50       	subi	r24, 0x01	; 1
     128:	a1 f7       	brne	.-24     	; 0x112 <I2C_recover+0x1e>
     12a:	e0 e1       	ldi	r30, 0x10	; 16
     12c:	f8 e0       	ldi	r31, 0x08	; 8
     12e:	28 e0       	ldi	r18, 0x08	; 8
     130:	24 83       	std	Z+4, r18	; 0x04
     132:	81 e0       	ldi	r24, 0x01	; 1
     134:	83 83       	std	Z+3, r24	; 0x03
     136:	a1 e2       	ldi	r26, 0x21	; 33
     138:	b4 e0       	ldi	r27, 0x04	; 4
     13a:	92 e0       	ldi	r25, 0x02	; 2
     13c:	9c 93       	st	X, r25
     13e:	95 81       	ldd	r25, Z+5	; 0x05
     140:	91 60       	ori	r25, 0x01	; 1
     142:	95 83       	std	Z+5, r25	; 0x05
     144:	95 81       	ldd	r25, Z+5	; 0x05
     146:	94 6c       	ori	r25, 0xC4	; 196
     148:	95 83       	std	Z+5, r25	; 0x05
     14a:	24 83       	std	Z+4, r18	; 0x04
     14c:	83 83       	std	Z+3, r24	; 0x03
     14e:	8c 93       	st	X, r24
     150:	85 81       	ldd	r24, Z+5	; 0x05
     152:	81 60       	ori	r24, 0x01	; 1
     154:	85 83       	std	Z+5, r24	; 0x05
     156:	85 81       	ldd	r24, Z+5	; 0x05
     158:	84 6c       	ori	r24, 0xC4	; 196
     15a:	85 83       	std	Z+5, r24	; 0x05
     15c:	08 95       	ret

0000015e <I2C_start>:
     15e:	28 2f       	mov	r18, r24
     160:	e0 e1       	ldi	r30, 0x10	; 16
     162:	f8 e0       	ldi	r31, 0x08	; 8
     164:	95 81       	ldd	r25, Z+5	; 0x05
     166:	90 6c       	ori	r25, 0xC0	; 192
     168:	95 83       	std	Z+5, r25	; 0x05
     16a:	95 81       	ldd	r25, Z+5	; 0x05
     16c:	89 2f       	mov	r24, r25
     16e:	84 70       	andi	r24, 0x04	; 4
     170:	92 fd       	sbrc	r25, 2
     172:	03 c0       	rjmp	.+6      	; 0x17a <I2C_start+0x1c>
     174:	20 93 17 08 	sts	0x0817, r18	; 0x800817 <__TEXT_REGION_LENGTH__+0x700817>
     178:	08 95       	ret
     17a:	84 e0       	ldi	r24, 0x04	; 4
     17c:	08 95       	ret

0000017e <I2C_wait_ACK>:
     17e:	8c e0       	ldi	r24, 0x0C	; 12
     180:	80 93 46 3a 	sts	0x3A46, r24	; 0x803a46 <timeout_I2C>
     184:	e0 e1       	ldi	r30, 0x10	; 16
     186:	f8 e0       	ldi	r31, 0x08	; 8
     188:	04 c0       	rjmp	.+8      	; 0x192 <I2C_wait_ACK+0x14>
     18a:	80 91 46 3a 	lds	r24, 0x3A46	; 0x803a46 <timeout_I2C>
     18e:	88 23       	and	r24, r24
     190:	b9 f0       	breq	.+46     	; 0x1c0 <I2C_wait_ACK+0x42>
     192:	85 81       	ldd	r24, Z+5	; 0x05
     194:	88 23       	and	r24, r24
     196:	1c f0       	brlt	.+6      	; 0x19e <I2C_wait_ACK+0x20>
     198:	85 81       	ldd	r24, Z+5	; 0x05
     19a:	86 ff       	sbrs	r24, 6
     19c:	f6 cf       	rjmp	.-20     	; 0x18a <I2C_wait_ACK+0xc>
     19e:	e0 e1       	ldi	r30, 0x10	; 16
     1a0:	f8 e0       	ldi	r31, 0x08	; 8
     1a2:	85 81       	ldd	r24, Z+5	; 0x05
     1a4:	80 6c       	ori	r24, 0xC0	; 192
     1a6:	85 83       	std	Z+5, r24	; 0x05
     1a8:	85 81       	ldd	r24, Z+5	; 0x05
     1aa:	82 fd       	sbrc	r24, 2
     1ac:	0b c0       	rjmp	.+22     	; 0x1c4 <I2C_wait_ACK+0x46>
     1ae:	80 91 15 08 	lds	r24, 0x0815	; 0x800815 <__TEXT_REGION_LENGTH__+0x700815>
     1b2:	83 fd       	sbrc	r24, 3
     1b4:	09 c0       	rjmp	.+18     	; 0x1c8 <I2C_wait_ACK+0x4a>
     1b6:	80 91 15 08 	lds	r24, 0x0815	; 0x800815 <__TEXT_REGION_LENGTH__+0x700815>
     1ba:	82 95       	swap	r24
     1bc:	81 70       	andi	r24, 0x01	; 1
     1be:	08 95       	ret
     1c0:	8f ef       	ldi	r24, 0xFF	; 255
     1c2:	08 95       	ret
     1c4:	84 e0       	ldi	r24, 0x04	; 4
     1c6:	08 95       	ret
     1c8:	82 e0       	ldi	r24, 0x02	; 2
     1ca:	08 95       	ret

000001cc <I2C_read>:
}

uint8_t	I2C_read(uint8_t *data, uint8_t ack_flag)					// read data, ack_flag 0: send ACK, 1: send NACK, returns status
{
     1cc:	dc 01       	movw	r26, r24
	timeout_I2C = READ_TIMEOUT;										// reset timeout counter, will be decremented by LED matrix interrupt
     1ce:	9c e0       	ldi	r25, 0x0C	; 12
     1d0:	90 93 46 3a 	sts	0x3A46, r25	; 0x803a46 <timeout_I2C>
	if ((TWI0.MSTATUS & TWI_BUSSTATE_gm) == TWI_BUSSTATE_OWNER_gc)	// if master controls bus
     1d4:	90 91 15 08 	lds	r25, 0x0815	; 0x800815 <__TEXT_REGION_LENGTH__+0x700815>
     1d8:	89 2f       	mov	r24, r25
     1da:	83 70       	andi	r24, 0x03	; 3
     1dc:	82 30       	cpi	r24, 0x02	; 2
     1de:	39 f0       	breq	.+14     	; 0x1ee <I2C_read+0x22>
		else		TWI0.MCTRLB |= TWI_ACKACT_NACK_gc;				// setup NACK (last byte read)
		*data = TWI0.MDATA;
		if (ack_flag == 0) TWI0.MCTRLB |= TWI_MCMD_RECVTRANS_gc;	// send ACK, more bytes to follow					
		return 0;
	}
	else return 8;													// master does not control bus
     1e0:	88 e0       	ldi	r24, 0x08	; 8
     1e2:	08 95       	ret
	timeout_I2C = READ_TIMEOUT;										// reset timeout counter, will be decremented by LED matrix interrupt
	if ((TWI0.MSTATUS & TWI_BUSSTATE_gm) == TWI_BUSSTATE_OWNER_gc)	// if master controls bus
	{		
		while (!(TWI0.MSTATUS & TWI_RIF_bm))						// wait for RIF set (data byte received)
		{
			if (!(timeout_I2C)) return 0xff;			            // return timeout error
     1e4:	90 91 46 3a 	lds	r25, 0x3A46	; 0x803a46 <timeout_I2C>
     1e8:	91 11       	cpse	r25, r1
     1ea:	03 c0       	rjmp	.+6      	; 0x1f2 <I2C_read+0x26>
     1ec:	2a c0       	rjmp	.+84     	; 0x242 <I2C_read+0x76>
uint8_t	I2C_read(uint8_t *data, uint8_t ack_flag)					// read data, ack_flag 0: send ACK, 1: send NACK, returns status
{
	timeout_I2C = READ_TIMEOUT;										// reset timeout counter, will be decremented by LED matrix interrupt
	if ((TWI0.MSTATUS & TWI_BUSSTATE_gm) == TWI_BUSSTATE_OWNER_gc)	// if master controls bus
	{		
		while (!(TWI0.MSTATUS & TWI_RIF_bm))						// wait for RIF set (data byte received)
     1ee:	e0 e1       	ldi	r30, 0x10	; 16
     1f0:	f8 e0       	ldi	r31, 0x08	; 8
     1f2:	95 81       	ldd	r25, Z+5	; 0x05
     1f4:	99 23       	and	r25, r25
     1f6:	b4 f7       	brge	.-20     	; 0x1e4 <I2C_read+0x18>
		{
			if (!(timeout_I2C)) return 0xff;			            // return timeout error
		}
		TWI0.MSTATUS |= (TWI_RIF_bm | TWI_WIF_bm);					// clear Read and Write interrupt flags	
     1f8:	e0 e1       	ldi	r30, 0x10	; 16
     1fa:	f8 e0       	ldi	r31, 0x08	; 8
     1fc:	95 81       	ldd	r25, Z+5	; 0x05
     1fe:	90 6c       	ori	r25, 0xC0	; 192
     200:	95 83       	std	Z+5, r25	; 0x05
		if (TWI0.MSTATUS & TWI_BUSERR_bm) return 4;					// Bus Error, abort
     202:	95 81       	ldd	r25, Z+5	; 0x05
     204:	92 fd       	sbrc	r25, 2
     206:	1f c0       	rjmp	.+62     	; 0x246 <I2C_read+0x7a>
		if (TWI0.MSTATUS & TWI_ARBLOST_bm) return 2;				// Arbitration Lost, abort
     208:	90 91 15 08 	lds	r25, 0x0815	; 0x800815 <__TEXT_REGION_LENGTH__+0x700815>
     20c:	93 fd       	sbrc	r25, 3
     20e:	1e c0       	rjmp	.+60     	; 0x24c <I2C_read+0x80>
		if (TWI0.MSTATUS & TWI_RXACK_bm) return 1;					// Slave replied with NACK, abort				
     210:	90 91 15 08 	lds	r25, 0x0815	; 0x800815 <__TEXT_REGION_LENGTH__+0x700815>
     214:	89 2f       	mov	r24, r25
     216:	80 71       	andi	r24, 0x10	; 16
     218:	94 fd       	sbrc	r25, 4
     21a:	17 c0       	rjmp	.+46     	; 0x24a <I2C_read+0x7e>
		if (ack_flag == 0) TWI0.MCTRLB &= ~(1 << TWI_ACKACT_bp);	// setup ACK
     21c:	61 11       	cpse	r22, r1
     21e:	09 c0       	rjmp	.+18     	; 0x232 <I2C_read+0x66>
     220:	94 81       	ldd	r25, Z+4	; 0x04
     222:	9b 7f       	andi	r25, 0xFB	; 251
     224:	94 83       	std	Z+4, r25	; 0x04
		else		TWI0.MCTRLB |= TWI_ACKACT_NACK_gc;				// setup NACK (last byte read)
		*data = TWI0.MDATA;
     226:	90 85       	ldd	r25, Z+8	; 0x08
     228:	9c 93       	st	X, r25
		if (ack_flag == 0) TWI0.MCTRLB |= TWI_MCMD_RECVTRANS_gc;	// send ACK, more bytes to follow					
     22a:	94 81       	ldd	r25, Z+4	; 0x04
     22c:	92 60       	ori	r25, 0x02	; 2
     22e:	94 83       	std	Z+4, r25	; 0x04
     230:	08 95       	ret
		TWI0.MSTATUS |= (TWI_RIF_bm | TWI_WIF_bm);					// clear Read and Write interrupt flags	
		if (TWI0.MSTATUS & TWI_BUSERR_bm) return 4;					// Bus Error, abort
		if (TWI0.MSTATUS & TWI_ARBLOST_bm) return 2;				// Arbitration Lost, abort
		if (TWI0.MSTATUS & TWI_RXACK_bm) return 1;					// Slave replied with NACK, abort				
		if (ack_flag == 0) TWI0.MCTRLB &= ~(1 << TWI_ACKACT_bp);	// setup ACK
		else		TWI0.MCTRLB |= TWI_ACKACT_NACK_gc;				// setup NACK (last byte read)
     232:	e0 e1       	ldi	r30, 0x10	; 16
     234:	f8 e0       	ldi	r31, 0x08	; 8
     236:	94 81       	ldd	r25, Z+4	; 0x04
     238:	94 60       	ori	r25, 0x04	; 4
     23a:	94 83       	std	Z+4, r25	; 0x04
		*data = TWI0.MDATA;
     23c:	90 85       	ldd	r25, Z+8	; 0x08
     23e:	9c 93       	st	X, r25
     240:	08 95       	ret
	timeout_I2C = READ_TIMEOUT;										// reset timeout counter, will be decremented by LED matrix interrupt
	if ((TWI0.MSTATUS & TWI_BUSSTATE_gm) == TWI_BUSSTATE_OWNER_gc)	// if master controls bus
	{		
		while (!(TWI0.MSTATUS & TWI_RIF_bm))						// wait for RIF set (data byte received)
		{
			if (!(timeout_I2C)) return 0xff;			            // return timeout error
     242:	8f ef       	ldi	r24, 0xFF	; 255
     244:	08 95       	ret
		}
		TWI0.MSTATUS |= (TWI_RIF_bm | TWI_WIF_bm);					// clear Read and Write interrupt flags	
		if (TWI0.MSTATUS & TWI_BUSERR_bm) return 4;					// Bus Error, abort
     246:	84 e0       	ldi	r24, 0x04	; 4
     248:	08 95       	ret
		if (TWI0.MSTATUS & TWI_ARBLOST_bm) return 2;				// Arbitration Lost, abort
		if (TWI0.MSTATUS & TWI_RXACK_bm) return 1;					// Slave replied with NACK, abort				
     24a:	81 e0       	ldi	r24, 0x01	; 1
		*data = TWI0.MDATA;
		if (ack_flag == 0) TWI0.MCTRLB |= TWI_MCMD_RECVTRANS_gc;	// send ACK, more bytes to follow					
		return 0;
	}
	else return 8;													// master does not control bus
}
     24c:	08 95       	ret

0000024e <I2C_write>:

uint8_t I2C_write(uint8_t *data)									// write data, return status
{
     24e:	fc 01       	movw	r30, r24
	timeout_I2C = WRITE_TIMEOUT;									// reset timeout counter, will be decremented by LED matrix interrupt
     250:	9c e0       	ldi	r25, 0x0C	; 12
     252:	90 93 46 3a 	sts	0x3A46, r25	; 0x803a46 <timeout_I2C>
	if ((TWI0.MSTATUS & TWI_BUSSTATE_gm) == TWI_BUSSTATE_OWNER_gc)	// if master controls bus
     256:	90 91 15 08 	lds	r25, 0x0815	; 0x800815 <__TEXT_REGION_LENGTH__+0x700815>
     25a:	93 70       	andi	r25, 0x03	; 3
     25c:	92 30       	cpi	r25, 0x02	; 2
     25e:	b1 f4       	brne	.+44     	; 0x28c <I2C_write+0x3e>
	{
		TWI0.MDATA = *data;		
     260:	80 81       	ld	r24, Z
     262:	80 93 18 08 	sts	0x0818, r24	; 0x800818 <__TEXT_REGION_LENGTH__+0x700818>
		while (!(TWI0.MSTATUS & TWI_WIF_bm))						// wait until WIF set, status register contains ACK/NACK bit
     266:	e0 e1       	ldi	r30, 0x10	; 16
     268:	f8 e0       	ldi	r31, 0x08	; 8
     26a:	04 c0       	rjmp	.+8      	; 0x274 <I2C_write+0x26>
		{
			if (!(timeout_I2C)) return 0xff;			            // return timeout error
     26c:	80 91 46 3a 	lds	r24, 0x3A46	; 0x803a46 <timeout_I2C>
     270:	88 23       	and	r24, r24
     272:	71 f0       	breq	.+28     	; 0x290 <I2C_write+0x42>
{
	timeout_I2C = WRITE_TIMEOUT;									// reset timeout counter, will be decremented by LED matrix interrupt
	if ((TWI0.MSTATUS & TWI_BUSSTATE_gm) == TWI_BUSSTATE_OWNER_gc)	// if master controls bus
	{
		TWI0.MDATA = *data;		
		while (!(TWI0.MSTATUS & TWI_WIF_bm))						// wait until WIF set, status register contains ACK/NACK bit
     274:	85 81       	ldd	r24, Z+5	; 0x05
     276:	86 ff       	sbrs	r24, 6
     278:	f9 cf       	rjmp	.-14     	; 0x26c <I2C_write+0x1e>
		{
			if (!(timeout_I2C)) return 0xff;			            // return timeout error
		}
		if (TWI0.MSTATUS & TWI_BUSERR_bm) return 4;					// Bus Error, abort
     27a:	80 91 15 08 	lds	r24, 0x0815	; 0x800815 <__TEXT_REGION_LENGTH__+0x700815>
     27e:	82 fd       	sbrc	r24, 2
     280:	09 c0       	rjmp	.+18     	; 0x294 <I2C_write+0x46>
		if (TWI0.MSTATUS & TWI_RXACK_bm) return 1;					// Slave replied with NACK, abort
     282:	80 91 15 08 	lds	r24, 0x0815	; 0x800815 <__TEXT_REGION_LENGTH__+0x700815>
	if ((TWI0.MSTATUS & TWI_BUSSTATE_gm) == TWI_BUSSTATE_OWNER_gc)	// if master controls bus
	{
		TWI0.MDATA = *data;		
		while (!(TWI0.MSTATUS & TWI_WIF_bm))						// wait until WIF set, status register contains ACK/NACK bit
		{
			if (!(timeout_I2C)) return 0xff;			            // return timeout error
     286:	82 95       	swap	r24
     288:	81 70       	andi	r24, 0x01	; 1
     28a:	08 95       	ret
		}
		if (TWI0.MSTATUS & TWI_BUSERR_bm) return 4;					// Bus Error, abort
		if (TWI0.MSTATUS & TWI_RXACK_bm) return 1;					// Slave replied with NACK, abort
		return 0;													// no error	
	}
	else return 8;													// master does not control bus
     28c:	88 e0       	ldi	r24, 0x08	; 8
     28e:	08 95       	ret
	if ((TWI0.MSTATUS & TWI_BUSSTATE_gm) == TWI_BUSSTATE_OWNER_gc)	// if master controls bus
	{
		TWI0.MDATA = *data;		
		while (!(TWI0.MSTATUS & TWI_WIF_bm))						// wait until WIF set, status register contains ACK/NACK bit
		{
			if (!(timeout_I2C)) return 0xff;			            // return timeout error
     290:	8f ef       	ldi	r24, 0xFF	; 255
     292:	08 95       	ret
		}
		if (TWI0.MSTATUS & TWI_BUSERR_bm) return 4;					// Bus Error, abort
     294:	84 e0       	ldi	r24, 0x04	; 4
		if (TWI0.MSTATUS & TWI_RXACK_bm) return 1;					// Slave replied with NACK, abort
		return 0;													// no error	
	}
	else return 8;													// master does not control bus
}
     296:	08 95       	ret

00000298 <I2C_stop>:

void I2C_stop()
{
	TWI0.MCTRLB |= TWI_MCMD_STOP_gc;
     298:	e0 e1       	ldi	r30, 0x10	; 16
     29a:	f8 e0       	ldi	r31, 0x08	; 8
     29c:	84 81       	ldd	r24, Z+4	; 0x04
     29e:	83 60       	ori	r24, 0x03	; 3
     2a0:	84 83       	std	Z+4, r24	; 0x04
     2a2:	08 95       	ret

000002a4 <I2C_read_bytes>:
// addr_ptr		address of first array element to transfer
// slave reg	starting slave register
// num_bytes	number of bytes to transfer

uint8_t	I2C_read_bytes(uint8_t slave_addr, uint8_t *reg_ptr, uint8_t reg_len, uint8_t *dat_ptr, uint8_t dat_len)
{
     2a4:	cf 92       	push	r12
     2a6:	df 92       	push	r13
     2a8:	ef 92       	push	r14
     2aa:	ff 92       	push	r15
     2ac:	0f 93       	push	r16
     2ae:	1f 93       	push	r17
     2b0:	cf 93       	push	r28
     2b2:	df 93       	push	r29
     2b4:	eb 01       	movw	r28, r22
     2b6:	c4 2e       	mov	r12, r20
     2b8:	79 01       	movw	r14, r18
	uint8_t status;
	if (dat_len > MAX_LEN) dat_len = MAX_LEN;
	status = I2C_start(slave_addr << 1);							// slave write address, LSB 0
     2ba:	18 2f       	mov	r17, r24
     2bc:	11 0f       	add	r17, r17
     2be:	81 2f       	mov	r24, r17
     2c0:	4e df       	rcall	.-356    	; 0x15e <I2C_start>
	if (status != 0) goto error;
     2c2:	81 11       	cpse	r24, r1
	status = I2C_wait_ACK();										// wait for slave ACK
     2c4:	3c c0       	rjmp	.+120    	; 0x33e <I2C_read_bytes+0x9a>
     2c6:	5b df       	rcall	.-330    	; 0x17e <I2C_wait_ACK>
	if (status == 1) {
     2c8:	81 30       	cpi	r24, 0x01	; 1
		I2C_stop();													// NACK, abort
     2ca:	19 f4       	brne	.+6      	; 0x2d2 <I2C_read_bytes+0x2e>
     2cc:	e5 df       	rcall	.-54     	; 0x298 <I2C_stop>
		return 1;
     2ce:	81 e0       	ldi	r24, 0x01	; 1
     2d0:	38 c0       	rjmp	.+112    	; 0x342 <I2C_read_bytes+0x9e>
	}
	if (status != 0) goto error;
     2d2:	81 11       	cpse	r24, r1
     2d4:	34 c0       	rjmp	.+104    	; 0x33e <I2C_read_bytes+0x9a>
    while(reg_len > 0){
     2d6:	cc 20       	and	r12, r12
     2d8:	79 f0       	breq	.+30     	; 0x2f8 <I2C_read_bytes+0x54>
     2da:	ca 94       	dec	r12
     2dc:	d1 2c       	mov	r13, r1
     2de:	8f ef       	ldi	r24, 0xFF	; 255
     2e0:	c8 1a       	sub	r12, r24
     2e2:	d8 0a       	sbc	r13, r24
     2e4:	cc 0e       	add	r12, r28
	    status = I2C_write(reg_ptr);    							// send slave start register
     2e6:	dd 1e       	adc	r13, r29
     2e8:	ce 01       	movw	r24, r28
     2ea:	b1 df       	rcall	.-158    	; 0x24e <I2C_write>
	    if (status != 0) goto error;
     2ec:	81 11       	cpse	r24, r1
     2ee:	27 c0       	rjmp	.+78     	; 0x33e <I2C_read_bytes+0x9a>
        ++reg_ptr;
     2f0:	21 96       	adiw	r28, 0x01	; 1
	if (status == 1) {
		I2C_stop();													// NACK, abort
		return 1;
	}
	if (status != 0) goto error;
    while(reg_len > 0){
     2f2:	cc 16       	cp	r12, r28
     2f4:	dd 06       	cpc	r13, r29
     2f6:	c1 f7       	brne	.-16     	; 0x2e8 <I2C_read_bytes+0x44>
     2f8:	01 34       	cpi	r16, 0x41	; 65
     2fa:	08 f0       	brcs	.+2      	; 0x2fe <I2C_read_bytes+0x5a>
     2fc:	00 e4       	ldi	r16, 0x40	; 64
	    status = I2C_write(reg_ptr);    							// send slave start register
	    if (status != 0) goto error;
        ++reg_ptr;
        --reg_len;
    }
	I2C_rep_start((slave_addr << 1) + 1);							// slave read address, LSB 1
     2fe:	1f 5f       	subi	r17, 0xFF	; 255
// the Atmel device documentation mentions a special command for repeated start TWI_MCMD_REPSTART_gc,
// but this is not used in Atmel's demo code, so we don't use it either

void I2C_rep_start(uint8_t shifted_addr)						    // send repeated start, device_addr + LSB set if READ
{
	TWI0.MADDR = shifted_addr;	
     300:	10 93 17 08 	sts	0x0817, r17	; 0x800817 <__TEXT_REGION_LENGTH__+0x700817>
	    if (status != 0) goto error;
        ++reg_ptr;
        --reg_len;
    }
	I2C_rep_start((slave_addr << 1) + 1);							// slave read address, LSB 1
	while (dat_len > 1) {
     304:	02 30       	cpi	r16, 0x02	; 2
     306:	90 f0       	brcs	.+36     	; 0x32c <I2C_read_bytes+0x88>
     308:	02 50       	subi	r16, 0x02	; 2
     30a:	c0 2f       	mov	r28, r16
     30c:	d0 e0       	ldi	r29, 0x00	; 0
     30e:	21 96       	adiw	r28, 0x01	; 1
     310:	ce 0d       	add	r28, r14
		status = I2C_read(dat_ptr, 0);								// first bytes, send ACK
     312:	df 1d       	adc	r29, r15
     314:	60 e0       	ldi	r22, 0x00	; 0
     316:	c7 01       	movw	r24, r14
     318:	59 df       	rcall	.-334    	; 0x1cc <I2C_read>
		if (status != 0) goto error;
     31a:	81 11       	cpse	r24, r1
     31c:	10 c0       	rjmp	.+32     	; 0x33e <I2C_read_bytes+0x9a>
		++dat_ptr;
     31e:	8f ef       	ldi	r24, 0xFF	; 255
     320:	e8 1a       	sub	r14, r24
     322:	f8 0a       	sbc	r15, r24
	    if (status != 0) goto error;
        ++reg_ptr;
        --reg_len;
    }
	I2C_rep_start((slave_addr << 1) + 1);							// slave read address, LSB 1
	while (dat_len > 1) {
     324:	ec 16       	cp	r14, r28
     326:	fd 06       	cpc	r15, r29
     328:	a9 f7       	brne	.-22     	; 0x314 <I2C_read_bytes+0x70>
     32a:	01 c0       	rjmp	.+2      	; 0x32e <I2C_read_bytes+0x8a>
		status = I2C_read(dat_ptr, 0);								// first bytes, send ACK
		if (status != 0) goto error;
		++dat_ptr;
		--dat_len;
	}
	status = I2C_read(dat_ptr, 1);									// single or last byte, send NACK
     32c:	e7 01       	movw	r28, r14
     32e:	61 e0       	ldi	r22, 0x01	; 1
     330:	ce 01       	movw	r24, r28
	if (status != 0) goto error;
     332:	4c df       	rcall	.-360    	; 0x1cc <I2C_read>
     334:	81 11       	cpse	r24, r1
	I2C_stop();
     336:	03 c0       	rjmp	.+6      	; 0x33e <I2C_read_bytes+0x9a>
     338:	af df       	rcall	.-162    	; 0x298 <I2C_stop>
	return 0;
     33a:	80 e0       	ldi	r24, 0x00	; 0
     33c:	02 c0       	rjmp	.+4      	; 0x342 <I2C_read_bytes+0x9e>
	
error:
	I2C_recover();													// clock out possibly stuck slave, reset master
     33e:	da de       	rcall	.-588    	; 0xf4 <I2C_recover>
     340:	8f ef       	ldi	r24, 0xFF	; 255
	return 0xff;													// flag error
     342:	df 91       	pop	r29
}
     344:	cf 91       	pop	r28
     346:	1f 91       	pop	r17
     348:	0f 91       	pop	r16
     34a:	ff 90       	pop	r15
     34c:	ef 90       	pop	r14
     34e:	df 90       	pop	r13
     350:	cf 90       	pop	r12
     352:	08 95       	ret

00000354 <Setup>:
     354:	cf 93       	push	r28
// Select "audio" input (0-2.5V)
void SelectAuIn(){
     VREF_CTRLA   = 0x22;    //0x22 for audio in/out (2.5V), 0x12 for temperature in, audio out (1.1V/2.5V)
     ADC0_CTRLA   &= ~(ADC_RESSEL_bm);
     ADC0_MUXPOS  = 0x07;    //Audio in: AIN7 at (0x07), Temperature: Internal sensor at (0x1E)
     adc0Chg = 1;
     356:	df 93       	push	r29
     358:	f8 94       	cli
     35a:	88 ed       	ldi	r24, 0xD8	; 216
     35c:	84 bf       	out	0x34, r24	; 52
     35e:	c1 e0       	ldi	r28, 0x01	; 1
     360:	c0 93 61 00 	sts	0x0061, r28	; 0x800061 <__TEXT_REGION_LENGTH__+0x700061>
     364:	8a e4       	ldi	r24, 0x4A	; 74
     366:	80 93 00 04 	sts	0x0400, r24	; 0x800400 <__TEXT_REGION_LENGTH__+0x700400>
     36a:	8c e7       	ldi	r24, 0x7C	; 124
     36c:	80 93 20 04 	sts	0x0420, r24	; 0x800420 <__TEXT_REGION_LENGTH__+0x700420>
     370:	9f e3       	ldi	r25, 0x3F	; 63
     372:	90 93 40 04 	sts	0x0440, r25	; 0x800440 <__TEXT_REGION_LENGTH__+0x700440>
     376:	e0 e5       	ldi	r30, 0x50	; 80
     378:	f4 e0       	ldi	r31, 0x04	; 4
     37a:	80 81       	ld	r24, Z
     37c:	80 68       	ori	r24, 0x80	; 128
     37e:	80 83       	st	Z, r24
     380:	e1 e5       	ldi	r30, 0x51	; 81
     382:	f4 e0       	ldi	r31, 0x04	; 4
     384:	80 81       	ld	r24, Z
     386:	80 68       	ori	r24, 0x80	; 128
     388:	80 83       	st	Z, r24
     38a:	e2 e5       	ldi	r30, 0x52	; 82
     38c:	f4 e0       	ldi	r31, 0x04	; 4
     38e:	80 81       	ld	r24, Z
     390:	80 68       	ori	r24, 0x80	; 128
     392:	80 83       	st	Z, r24
     394:	e3 e5       	ldi	r30, 0x53	; 83
     396:	f4 e0       	ldi	r31, 0x04	; 4
     398:	80 81       	ld	r24, Z
     39a:	80 68       	ori	r24, 0x80	; 128
     39c:	80 83       	st	Z, r24
     39e:	e4 e5       	ldi	r30, 0x54	; 84
     3a0:	f4 e0       	ldi	r31, 0x04	; 4
     3a2:	80 81       	ld	r24, Z
     3a4:	80 68       	ori	r24, 0x80	; 128
     3a6:	80 83       	st	Z, r24
     3a8:	e5 e5       	ldi	r30, 0x55	; 85
     3aa:	f4 e0       	ldi	r31, 0x04	; 4
     3ac:	80 81       	ld	r24, Z
     3ae:	80 68       	ori	r24, 0x80	; 128
     3b0:	80 83       	st	Z, r24
     3b2:	e2 e3       	ldi	r30, 0x32	; 50
     3b4:	f4 e0       	ldi	r31, 0x04	; 4
     3b6:	80 81       	ld	r24, Z
     3b8:	80 68       	ori	r24, 0x80	; 128
     3ba:	80 83       	st	Z, r24
     3bc:	e3 e3       	ldi	r30, 0x33	; 51
     3be:	f4 e0       	ldi	r31, 0x04	; 4
     3c0:	80 81       	ld	r24, Z
     3c2:	80 68       	ori	r24, 0x80	; 128
     3c4:	80 83       	st	Z, r24
     3c6:	e4 e3       	ldi	r30, 0x34	; 52
     3c8:	f4 e0       	ldi	r31, 0x04	; 4
     3ca:	80 81       	ld	r24, Z
     3cc:	80 68       	ori	r24, 0x80	; 128
     3ce:	80 83       	st	Z, r24
     3d0:	e5 e3       	ldi	r30, 0x35	; 53
     3d2:	f4 e0       	ldi	r31, 0x04	; 4
     3d4:	80 81       	ld	r24, Z
     3d6:	80 68       	ori	r24, 0x80	; 128
     3d8:	80 83       	st	Z, r24
     3da:	e6 e3       	ldi	r30, 0x36	; 54
     3dc:	f4 e0       	ldi	r31, 0x04	; 4
     3de:	80 81       	ld	r24, Z
     3e0:	80 68       	ori	r24, 0x80	; 128
     3e2:	80 83       	st	Z, r24
     3e4:	c0 93 01 02 	sts	0x0201, r28	; 0x800201 <__TEXT_REGION_LENGTH__+0x700201>
     3e8:	d2 e0       	ldi	r29, 0x02	; 2
     3ea:	d0 93 05 04 	sts	0x0405, r29	; 0x800405 <__TEXT_REGION_LENGTH__+0x700405>
     3ee:	2b e5       	ldi	r18, 0x5B	; 91
     3f0:	31 e0       	ldi	r19, 0x01	; 1
     3f2:	20 93 08 08 	sts	0x0808, r18	; 0x800808 <__TEXT_REGION_LENGTH__+0x700808>
     3f6:	30 93 09 08 	sts	0x0809, r19	; 0x800809 <__TEXT_REGION_LENGTH__+0x700809>
     3fa:	80 ea       	ldi	r24, 0xA0	; 160
     3fc:	80 93 05 08 	sts	0x0805, r24	; 0x800805 <__TEXT_REGION_LENGTH__+0x700805>
     400:	80 ec       	ldi	r24, 0xC0	; 192
     402:	80 93 06 08 	sts	0x0806, r24	; 0x800806 <__TEXT_REGION_LENGTH__+0x700806>
     406:	83 e0       	ldi	r24, 0x03	; 3
     408:	80 93 07 08 	sts	0x0807, r24	; 0x800807 <__TEXT_REGION_LENGTH__+0x700807>
     40c:	1c ba       	out	0x1c, r1	; 28
     40e:	1d ba       	out	0x1d, r1	; 29
     410:	1e ba       	out	0x1e, r1	; 30
     412:	1f ba       	out	0x1f, r1	; 31
     414:	c0 93 03 0a 	sts	0x0A03, r28	; 0x800a03 <__TEXT_REGION_LENGTH__+0x700a03>
     418:	e0 e0       	ldi	r30, 0x00	; 0
     41a:	fa e0       	ldi	r31, 0x0A	; 10
     41c:	88 e0       	ldi	r24, 0x08	; 8
     41e:	80 83       	st	Z, r24
     420:	90 93 02 02 	sts	0x0202, r25	; 0x800202 <__TEXT_REGION_LENGTH__+0x700202>
     424:	87 e7       	ldi	r24, 0x77	; 119
     426:	80 93 01 0a 	sts	0x0A01, r24	; 0x800a01 <__TEXT_REGION_LENGTH__+0x700a01>
     42a:	c0 93 0a 0a 	sts	0x0A0A, r28	; 0x800a0a <__TEXT_REGION_LENGTH__+0x700a0a>
     42e:	8b e0       	ldi	r24, 0x0B	; 11
     430:	80 93 05 0a 	sts	0x0A05, r24	; 0x800a05 <__TEXT_REGION_LENGTH__+0x700a05>
     434:	80 81       	ld	r24, Z
     436:	81 60       	ori	r24, 0x01	; 1
     438:	80 83       	st	Z, r24
     43a:	85 e0       	ldi	r24, 0x05	; 5
     43c:	80 93 40 0a 	sts	0x0A40, r24	; 0x800a40 <__TEXT_REGION_LENGTH__+0x700a40>
     440:	10 92 41 0a 	sts	0x0A41, r1	; 0x800a41 <__TEXT_REGION_LENGTH__+0x700a41>
     444:	8f ef       	ldi	r24, 0xFF	; 255
     446:	91 e0       	ldi	r25, 0x01	; 1
     448:	80 93 4c 0a 	sts	0x0A4C, r24	; 0x800a4c <__TEXT_REGION_LENGTH__+0x700a4c>
     44c:	90 93 4d 0a 	sts	0x0A4D, r25	; 0x800a4d <__TEXT_REGION_LENGTH__+0x700a4d>
     450:	10 92 45 0a 	sts	0x0A45, r1	; 0x800a45 <__TEXT_REGION_LENGTH__+0x700a45>
     454:	c0 93 50 0a 	sts	0x0A50, r28	; 0x800a50 <__TEXT_REGION_LENGTH__+0x700a50>
     458:	10 92 51 0a 	sts	0x0A51, r1	; 0x800a51 <__TEXT_REGION_LENGTH__+0x700a51>
     45c:	8b e8       	ldi	r24, 0x8B	; 139
     45e:	93 e0       	ldi	r25, 0x03	; 3
     460:	80 93 5c 0a 	sts	0x0A5C, r24	; 0x800a5c <__TEXT_REGION_LENGTH__+0x700a5c>
     464:	90 93 5d 0a 	sts	0x0A5D, r25	; 0x800a5d <__TEXT_REGION_LENGTH__+0x700a5d>
     468:	c0 93 55 0a 	sts	0x0A55, r28	; 0x800a55 <__TEXT_REGION_LENGTH__+0x700a55>
     46c:	25 de       	rcall	.-950    	; 0xb8 <I2C_init>
     46e:	82 e1       	ldi	r24, 0x12	; 18
     470:	80 93 a0 00 	sts	0x00A0, r24	; 0x8000a0 <__TEXT_REGION_LENGTH__+0x7000a0>
     474:	80 e2       	ldi	r24, 0x20	; 32
     476:	80 93 a2 00 	sts	0x00A2, r24	; 0x8000a2 <__TEXT_REGION_LENGTH__+0x7000a2>
     47a:	c0 93 a1 00 	sts	0x00A1, r28	; 0x8000a1 <__TEXT_REGION_LENGTH__+0x7000a1>
     47e:	e0 e0       	ldi	r30, 0x00	; 0
     480:	f6 e0       	ldi	r31, 0x06	; 6
     482:	86 e0       	ldi	r24, 0x06	; 6
     484:	80 83       	st	Z, r24
     486:	84 e4       	ldi	r24, 0x44	; 68
     488:	80 93 02 06 	sts	0x0602, r24	; 0x800602 <__TEXT_REGION_LENGTH__+0x700602>
     48c:	8e e1       	ldi	r24, 0x1E	; 30
     48e:	80 93 06 06 	sts	0x0606, r24	; 0x800606 <__TEXT_REGION_LENGTH__+0x700606>
     492:	c0 93 0a 06 	sts	0x060A, r28	; 0x80060a <__TEXT_REGION_LENGTH__+0x70060a>
     496:	80 81       	ld	r24, Z
     498:	81 60       	ori	r24, 0x01	; 1
     49a:	80 83       	st	Z, r24
     49c:	c0 93 08 06 	sts	0x0608, r28	; 0x800608 <__TEXT_REGION_LENGTH__+0x700608>
     4a0:	e0 e4       	ldi	r30, 0x40	; 64
     4a2:	f6 e0       	ldi	r31, 0x06	; 6
     4a4:	10 82       	st	Z, r1
     4a6:	d0 93 41 06 	sts	0x0641, r29	; 0x800641 <__TEXT_REGION_LENGTH__+0x700641>
     4aa:	82 e5       	ldi	r24, 0x52	; 82
     4ac:	80 93 42 06 	sts	0x0642, r24	; 0x800642 <__TEXT_REGION_LENGTH__+0x700642>
     4b0:	84 e0       	ldi	r24, 0x04	; 4
     4b2:	80 93 45 06 	sts	0x0645, r24	; 0x800645 <__TEXT_REGION_LENGTH__+0x700645>
     4b6:	80 93 46 06 	sts	0x0646, r24	; 0x800646 <__TEXT_REGION_LENGTH__+0x700646>
     4ba:	c0 93 4a 06 	sts	0x064A, r28	; 0x80064a <__TEXT_REGION_LENGTH__+0x70064a>
     4be:	80 81       	ld	r24, Z
     4c0:	81 60       	ori	r24, 0x01	; 1
     4c2:	80 83       	st	Z, r24
     4c4:	c0 93 48 06 	sts	0x0648, r28	; 0x800648 <__TEXT_REGION_LENGTH__+0x700648>
     4c8:	e0 ea       	ldi	r30, 0xA0	; 160
     4ca:	f6 e0       	ldi	r31, 0x06	; 6
     4cc:	80 e4       	ldi	r24, 0x40	; 64
     4ce:	80 83       	st	Z, r24
     4d0:	80 e8       	ldi	r24, 0x80	; 128
     4d2:	80 93 a1 06 	sts	0x06A1, r24	; 0x8006a1 <__TEXT_REGION_LENGTH__+0x7006a1>
     4d6:	80 81       	ld	r24, Z
     4d8:	81 60       	ori	r24, 0x01	; 1
     4da:	80 83       	st	Z, r24
     4dc:	e1 e4       	ldi	r30, 0x41	; 65
     4de:	f1 e0       	ldi	r31, 0x01	; 1
     4e0:	80 81       	ld	r24, Z
     4e2:	80 fd       	sbrc	r24, 0
     4e4:	fd cf       	rjmp	.-6      	; 0x4e0 <__LOCK_REGION_LENGTH__+0xe0>
     4e6:	80 e3       	ldi	r24, 0x30	; 48
     4e8:	80 93 40 01 	sts	0x0140, r24	; 0x800140 <__TEXT_REGION_LENGTH__+0x700140>
     4ec:	10 92 47 01 	sts	0x0147, r1	; 0x800147 <__TEXT_REGION_LENGTH__+0x700147>
     4f0:	e1 e4       	ldi	r30, 0x41	; 65
     4f2:	f1 e0       	ldi	r31, 0x01	; 1
     4f4:	80 81       	ld	r24, Z
     4f6:	82 fd       	sbrc	r24, 2
     4f8:	fd cf       	rjmp	.-6      	; 0x4f4 <__LOCK_REGION_LENGTH__+0xf4>
     4fa:	ea e4       	ldi	r30, 0x4A	; 74
     4fc:	f1 e0       	ldi	r31, 0x01	; 1
     4fe:	80 e0       	ldi	r24, 0x00	; 0
     500:	98 e7       	ldi	r25, 0x78	; 120
     502:	80 83       	st	Z, r24
     504:	91 83       	std	Z+1, r25	; 0x01
     506:	80 91 48 01 	lds	r24, 0x0148	; 0x800148 <__TEXT_REGION_LENGTH__+0x700148>
     50a:	90 91 49 01 	lds	r25, 0x0149	; 0x800149 <__TEXT_REGION_LENGTH__+0x700149>
     50e:	60 81       	ld	r22, Z
     510:	71 81       	ldd	r23, Z+1	; 0x01
     512:	82 96       	adiw	r24, 0x22	; 34
     514:	0e 94 4a 0d 	call	0x1a94	; 0x1a94 <__udivmodhi4>
     518:	80 93 ec 3a 	sts	0x3AEC, r24	; 0x803aec <tmp16bit>
     51c:	90 93 ed 3a 	sts	0x3AED, r25	; 0x803aed <tmp16bit+0x1>
     520:	e1 e4       	ldi	r30, 0x41	; 65
     522:	f1 e0       	ldi	r31, 0x01	; 1
     524:	80 81       	ld	r24, Z
     526:	83 fd       	sbrc	r24, 3
     528:	fd cf       	rjmp	.-6      	; 0x524 <__LOCK_REGION_LENGTH__+0x124>
     52a:	80 91 ec 3a 	lds	r24, 0x3AEC	; 0x803aec <tmp16bit>
     52e:	90 91 ed 3a 	lds	r25, 0x3AED	; 0x803aed <tmp16bit+0x1>
     532:	80 93 4c 01 	sts	0x014C, r24	; 0x80014c <__TEXT_REGION_LENGTH__+0x70014c>
     536:	90 93 4d 01 	sts	0x014D, r25	; 0x80014d <__TEXT_REGION_LENGTH__+0x70014d>
     53a:	83 e0       	ldi	r24, 0x03	; 3
     53c:	80 93 42 01 	sts	0x0142, r24	; 0x800142 <__TEXT_REGION_LENGTH__+0x700142>
     540:	81 e0       	ldi	r24, 0x01	; 1
     542:	80 93 52 01 	sts	0x0152, r24	; 0x800152 <__TEXT_REGION_LENGTH__+0x700152>
     546:	88 e0       	ldi	r24, 0x08	; 8
     548:	80 93 50 01 	sts	0x0150, r24	; 0x800150 <__TEXT_REGION_LENGTH__+0x700150>
     54c:	e1 e4       	ldi	r30, 0x41	; 65
     54e:	f1 e0       	ldi	r31, 0x01	; 1
     550:	80 81       	ld	r24, Z
     552:	80 fd       	sbrc	r24, 0
     554:	fd cf       	rjmp	.-6      	; 0x550 <__LOCK_REGION_LENGTH__+0x150>
     556:	e0 e4       	ldi	r30, 0x40	; 64
     558:	f1 e0       	ldi	r31, 0x01	; 1
     55a:	80 81       	ld	r24, Z
     55c:	81 60       	ori	r24, 0x01	; 1
     55e:	80 83       	st	Z, r24
     560:	e0 e5       	ldi	r30, 0x50	; 80
     562:	f1 e0       	ldi	r31, 0x01	; 1
     564:	80 81       	ld	r24, Z
     566:	81 60       	ori	r24, 0x01	; 1
     568:	80 83       	st	Z, r24
     56a:	e7 e5       	ldi	r30, 0x57	; 87
     56c:	fa e3       	ldi	r31, 0x3A	; 58
     56e:	10 82       	st	Z, r1
     570:	e0 93 9b 3a 	sts	0x3A9B, r30	; 0x803a9b <serTxAddr>
     574:	f0 93 9c 3a 	sts	0x3A9C, r31	; 0x803a9c <serTxAddr+0x1>
     578:	78 94       	sei
     57a:	df 91       	pop	r29
     57c:	cf 91       	pop	r28
     57e:	08 95       	ret

00000580 <__vector_8>:
     580:	1f 92       	push	r1
     582:	0f 92       	push	r0
     584:	0f b6       	in	r0, 0x3f	; 63
     586:	0f 92       	push	r0
     588:	11 24       	eor	r1, r1
     58a:	8f 93       	push	r24
     58c:	9f 93       	push	r25
     58e:	af 93       	push	r26
     590:	bf 93       	push	r27
     592:	ef 93       	push	r30
     594:	ff 93       	push	r31
     596:	87 e0       	ldi	r24, 0x07	; 7
     598:	80 93 46 04 	sts	0x0446, r24	; 0x800446 <__TEXT_REGION_LENGTH__+0x700446>
     59c:	84 e4       	ldi	r24, 0x44	; 68
     59e:	80 93 26 04 	sts	0x0426, r24	; 0x800426 <__TEXT_REGION_LENGTH__+0x700426>
     5a2:	ec b3       	in	r30, 0x1c	; 28
     5a4:	f0 e0       	ldi	r31, 0x00	; 0
     5a6:	ee 0f       	add	r30, r30
     5a8:	ff 1f       	adc	r31, r31
     5aa:	ee 0f       	add	r30, r30
     5ac:	ff 1f       	adc	r31, r31
     5ae:	ee 0f       	add	r30, r30
     5b0:	ff 1f       	adc	r31, r31
     5b2:	ee 53       	subi	r30, 0x3E	; 62
     5b4:	f5 4c       	sbci	r31, 0xC5	; 197
     5b6:	a8 e2       	ldi	r26, 0x28	; 40
     5b8:	ba e0       	ldi	r27, 0x0A	; 10
     5ba:	96 e0       	ldi	r25, 0x06	; 6
     5bc:	81 91       	ld	r24, Z+
     5be:	8d 93       	st	X+, r24
     5c0:	9a 95       	dec	r25
     5c2:	e1 f7       	brne	.-8      	; 0x5bc <__vector_8+0x3c>
     5c4:	8b e0       	ldi	r24, 0x0B	; 11
     5c6:	80 93 05 0a 	sts	0x0A05, r24	; 0x800a05 <__TEXT_REGION_LENGTH__+0x700a05>
     5ca:	8c b3       	in	r24, 0x1c	; 28
     5cc:	83 30       	cpi	r24, 0x03	; 3
     5ce:	58 f4       	brcc	.+22     	; 0x5e6 <__vector_8+0x66>
     5d0:	8c b3       	in	r24, 0x1c	; 28
     5d2:	91 e0       	ldi	r25, 0x01	; 1
     5d4:	01 c0       	rjmp	.+2      	; 0x5d8 <__vector_8+0x58>
     5d6:	99 0f       	add	r25, r25
     5d8:	8a 95       	dec	r24
     5da:	ea f7       	brpl	.-6      	; 0x5d6 <__vector_8+0x56>
     5dc:	99 b9       	out	0x09, r25	; 9
     5de:	8c b3       	in	r24, 0x1c	; 28
     5e0:	83 95       	inc	r24
     5e2:	8c bb       	out	0x1c, r24	; 28
     5e4:	0a c0       	rjmp	.+20     	; 0x5fa <__vector_8+0x7a>
     5e6:	8c b3       	in	r24, 0x1c	; 28
     5e8:	83 30       	cpi	r24, 0x03	; 3
     5ea:	21 f4       	brne	.+8      	; 0x5f4 <__vector_8+0x74>
     5ec:	2a 9a       	sbi	0x05, 2	; 5
     5ee:	83 95       	inc	r24
     5f0:	8c bb       	out	0x1c, r24	; 28
     5f2:	03 c0       	rjmp	.+6      	; 0x5fa <__vector_8+0x7a>
     5f4:	2e 9a       	sbi	0x05, 6	; 5
     5f6:	88 27       	eor	r24, r24
     5f8:	8c bb       	out	0x1c, r24	; 28
     5fa:	80 91 46 3a 	lds	r24, 0x3A46	; 0x803a46 <timeout_I2C>
     5fe:	88 23       	and	r24, r24
     600:	29 f0       	breq	.+10     	; 0x60c <__vector_8+0x8c>
     602:	80 91 46 3a 	lds	r24, 0x3A46	; 0x803a46 <timeout_I2C>
     606:	81 50       	subi	r24, 0x01	; 1
     608:	80 93 46 3a 	sts	0x3A46, r24	; 0x803a46 <timeout_I2C>
     60c:	8f ef       	ldi	r24, 0xFF	; 255
     60e:	80 93 0b 0a 	sts	0x0A0B, r24	; 0x800a0b <__TEXT_REGION_LENGTH__+0x700a0b>
     612:	ff 91       	pop	r31
     614:	ef 91       	pop	r30
     616:	bf 91       	pop	r27
     618:	af 91       	pop	r26
     61a:	9f 91       	pop	r25
     61c:	8f 91       	pop	r24
     61e:	0f 90       	pop	r0
     620:	0f be       	out	0x3f, r0	; 63
     622:	0f 90       	pop	r0
     624:	1f 90       	pop	r1
     626:	18 95       	reti

00000628 <__vector_13>:
     628:	1f 92       	push	r1
     62a:	0f 92       	push	r0
     62c:	0f b6       	in	r0, 0x3f	; 63
     62e:	0f 92       	push	r0
     630:	11 24       	eor	r1, r1
     632:	8f 93       	push	r24
     634:	9f 93       	push	r25
     636:	ef 93       	push	r30
     638:	ff 93       	push	r31
     63a:	e0 91 9b 3a 	lds	r30, 0x3A9B	; 0x803a9b <serTxAddr>
     63e:	f0 91 9c 3a 	lds	r31, 0x3A9C	; 0x803a9c <serTxAddr+0x1>
     642:	80 81       	ld	r24, Z
     644:	88 23       	and	r24, r24
     646:	91 f0       	breq	.+36     	; 0x66c <__vector_13+0x44>
     648:	80 81       	ld	r24, Z
     64a:	80 93 02 08 	sts	0x0802, r24	; 0x800802 <__TEXT_REGION_LENGTH__+0x700802>
     64e:	80 91 9b 3a 	lds	r24, 0x3A9B	; 0x803a9b <serTxAddr>
     652:	90 91 9c 3a 	lds	r25, 0x3A9C	; 0x803a9c <serTxAddr+0x1>
     656:	01 96       	adiw	r24, 0x01	; 1
     658:	80 93 9b 3a 	sts	0x3A9B, r24	; 0x803a9b <serTxAddr>
     65c:	90 93 9c 3a 	sts	0x3A9C, r25	; 0x803a9c <serTxAddr+0x1>
     660:	e5 e0       	ldi	r30, 0x05	; 5
     662:	f8 e0       	ldi	r31, 0x08	; 8
     664:	80 81       	ld	r24, Z
     666:	80 62       	ori	r24, 0x20	; 32
     668:	80 83       	st	Z, r24
     66a:	05 c0       	rjmp	.+10     	; 0x676 <__vector_13+0x4e>
     66c:	81 e0       	ldi	r24, 0x01	; 1
     66e:	80 93 04 38 	sts	0x3804, r24	; 0x803804 <serTxDone>
     672:	10 92 45 0a 	sts	0x0A45, r1	; 0x800a45 <__TEXT_REGION_LENGTH__+0x700a45>
     676:	81 e0       	ldi	r24, 0x01	; 1
     678:	80 93 46 0a 	sts	0x0A46, r24	; 0x800a46 <__TEXT_REGION_LENGTH__+0x700a46>
     67c:	ff 91       	pop	r31
     67e:	ef 91       	pop	r30
     680:	9f 91       	pop	r25
     682:	8f 91       	pop	r24
     684:	0f 90       	pop	r0
     686:	0f be       	out	0x3f, r0	; 63
     688:	0f 90       	pop	r0
     68a:	1f 90       	pop	r1
     68c:	18 95       	reti

0000068e <__vector_14>:
     68e:	1f 92       	push	r1
     690:	0f 92       	push	r0
     692:	0f b6       	in	r0, 0x3f	; 63
     694:	0f 92       	push	r0
     696:	11 24       	eor	r1, r1
     698:	2f 93       	push	r18
     69a:	3f 93       	push	r19
     69c:	4f 93       	push	r20
     69e:	8f 93       	push	r24
     6a0:	9f 93       	push	r25
     6a2:	ef 93       	push	r30
     6a4:	ff 93       	push	r31
     6a6:	e0 91 02 38 	lds	r30, 0x3802	; 0x803802 <auSmpAddr>
     6aa:	f0 91 03 38 	lds	r31, 0x3803	; 0x803803 <auSmpAddr+0x1>
     6ae:	80 81       	ld	r24, Z
     6b0:	81 11       	cpse	r24, r1
     6b2:	08 c0       	rjmp	.+16     	; 0x6c4 <__vector_14+0x36>
     6b4:	80 91 00 38 	lds	r24, 0x3800	; 0x803800 <__data_start>
     6b8:	90 91 01 38 	lds	r25, 0x3801	; 0x803801 <__data_start+0x1>
     6bc:	80 93 02 38 	sts	0x3802, r24	; 0x803802 <auSmpAddr>
     6c0:	90 93 03 38 	sts	0x3803, r25	; 0x803803 <auSmpAddr+0x1>
     6c4:	e0 91 02 38 	lds	r30, 0x3802	; 0x803802 <auSmpAddr>
     6c8:	f0 91 03 38 	lds	r31, 0x3803	; 0x803803 <auSmpAddr+0x1>
     6cc:	80 81       	ld	r24, Z
     6ce:	88 23       	and	r24, r24
     6d0:	e1 f0       	breq	.+56     	; 0x70a <__vector_14+0x7c>
     6d2:	20 81       	ld	r18, Z
     6d4:	40 91 98 3a 	lds	r20, 0x3A98	; 0x803a98 <auVolume>
     6d8:	30 e0       	ldi	r19, 0x00	; 0
     6da:	2f 57       	subi	r18, 0x7F	; 127
     6dc:	31 09       	sbc	r19, r1
     6de:	42 9f       	mul	r20, r18
     6e0:	c0 01       	movw	r24, r0
     6e2:	43 9f       	mul	r20, r19
     6e4:	90 0d       	add	r25, r0
     6e6:	11 24       	eor	r1, r1
     6e8:	89 2f       	mov	r24, r25
     6ea:	99 0f       	add	r25, r25
     6ec:	99 0b       	sbc	r25, r25
     6ee:	80 58       	subi	r24, 0x80	; 128
     6f0:	9f 4f       	sbci	r25, 0xFF	; 255
     6f2:	80 93 a1 06 	sts	0x06A1, r24	; 0x8006a1 <__TEXT_REGION_LENGTH__+0x7006a1>
     6f6:	80 91 02 38 	lds	r24, 0x3802	; 0x803802 <auSmpAddr>
     6fa:	90 91 03 38 	lds	r25, 0x3803	; 0x803803 <auSmpAddr+0x1>
     6fe:	01 96       	adiw	r24, 0x01	; 1
     700:	80 93 02 38 	sts	0x3802, r24	; 0x803802 <auSmpAddr>
     704:	90 93 03 38 	sts	0x3803, r25	; 0x803803 <auSmpAddr+0x1>
     708:	06 c0       	rjmp	.+12     	; 0x716 <__vector_14+0x88>
     70a:	80 e8       	ldi	r24, 0x80	; 128
     70c:	80 93 a1 06 	sts	0x06A1, r24	; 0x8006a1 <__TEXT_REGION_LENGTH__+0x7006a1>
     710:	81 e0       	ldi	r24, 0x01	; 1
     712:	80 93 ea 3a 	sts	0x3AEA, r24	; 0x803aea <auPlayDone>
     716:	81 e0       	ldi	r24, 0x01	; 1
     718:	80 93 56 0a 	sts	0x0A56, r24	; 0x800a56 <__TEXT_REGION_LENGTH__+0x700a56>
     71c:	ff 91       	pop	r31
     71e:	ef 91       	pop	r30
     720:	9f 91       	pop	r25
     722:	8f 91       	pop	r24
     724:	4f 91       	pop	r20
     726:	3f 91       	pop	r19
     728:	2f 91       	pop	r18
     72a:	0f 90       	pop	r0
     72c:	0f be       	out	0x3f, r0	; 63
     72e:	0f 90       	pop	r0
     730:	1f 90       	pop	r1
     732:	18 95       	reti

00000734 <__vector_27>:
     734:	1f 92       	push	r1
     736:	0f 92       	push	r0
     738:	0f b6       	in	r0, 0x3f	; 63
     73a:	0f 92       	push	r0
     73c:	11 24       	eor	r1, r1
     73e:	8f 93       	push	r24
     740:	ef 93       	push	r30
     742:	ff 93       	push	r31
     744:	80 91 97 38 	lds	r24, 0x3897	; 0x803897 <serRxDone>
     748:	81 11       	cpse	r24, r1
     74a:	1d c0       	rjmp	.+58     	; 0x786 <__vector_27+0x52>
     74c:	ed b3       	in	r30, 0x1d	; 29
     74e:	f0 e0       	ldi	r31, 0x00	; 0
     750:	80 91 00 08 	lds	r24, 0x0800	; 0x800800 <__TEXT_REGION_LENGTH__+0x700800>
     754:	e9 5a       	subi	r30, 0xA9	; 169
     756:	f5 4c       	sbci	r31, 0xC5	; 197
     758:	80 83       	st	Z, r24
     75a:	ed b3       	in	r30, 0x1d	; 29
     75c:	f0 e0       	ldi	r31, 0x00	; 0
     75e:	e9 5a       	subi	r30, 0xA9	; 169
     760:	f5 4c       	sbci	r31, 0xC5	; 197
     762:	80 81       	ld	r24, Z
     764:	8a 30       	cpi	r24, 0x0A	; 10
     766:	49 f4       	brne	.+18     	; 0x77a <__vector_27+0x46>
     768:	ed b3       	in	r30, 0x1d	; 29
     76a:	f0 e0       	ldi	r31, 0x00	; 0
     76c:	e9 5a       	subi	r30, 0xA9	; 169
     76e:	f5 4c       	sbci	r31, 0xC5	; 197
     770:	10 82       	st	Z, r1
     772:	81 e0       	ldi	r24, 0x01	; 1
     774:	80 93 97 38 	sts	0x3897, r24	; 0x803897 <serRxDone>
     778:	06 c0       	rjmp	.+12     	; 0x786 <__vector_27+0x52>
     77a:	8d b3       	in	r24, 0x1d	; 29
     77c:	80 34       	cpi	r24, 0x40	; 64
     77e:	18 f4       	brcc	.+6      	; 0x786 <__vector_27+0x52>
     780:	8d b3       	in	r24, 0x1d	; 29
     782:	8f 5f       	subi	r24, 0xFF	; 255
     784:	8d bb       	out	0x1d, r24	; 29
     786:	80 e8       	ldi	r24, 0x80	; 128
     788:	80 93 04 08 	sts	0x0804, r24	; 0x800804 <__TEXT_REGION_LENGTH__+0x700804>
     78c:	ff 91       	pop	r31
     78e:	ef 91       	pop	r30
     790:	8f 91       	pop	r24
     792:	0f 90       	pop	r0
     794:	0f be       	out	0x3f, r0	; 63
     796:	0f 90       	pop	r0
     798:	1f 90       	pop	r1
     79a:	18 95       	reti

0000079c <__vector_28>:
     79c:	1f 92       	push	r1
     79e:	0f 92       	push	r0
     7a0:	0f b6       	in	r0, 0x3f	; 63
     7a2:	0f 92       	push	r0
     7a4:	11 24       	eor	r1, r1
     7a6:	8f 93       	push	r24
     7a8:	ef 93       	push	r30
     7aa:	ff 93       	push	r31
     7ac:	10 92 4a 0a 	sts	0x0A4A, r1	; 0x800a4a <__TEXT_REGION_LENGTH__+0x700a4a>
     7b0:	10 92 4b 0a 	sts	0x0A4B, r1	; 0x800a4b <__TEXT_REGION_LENGTH__+0x700a4b>
     7b4:	81 e0       	ldi	r24, 0x01	; 1
     7b6:	80 93 45 0a 	sts	0x0A45, r24	; 0x800a45 <__TEXT_REGION_LENGTH__+0x700a45>
     7ba:	e5 e0       	ldi	r30, 0x05	; 5
     7bc:	f8 e0       	ldi	r31, 0x08	; 8
     7be:	80 81       	ld	r24, Z
     7c0:	8f 7d       	andi	r24, 0xDF	; 223
     7c2:	80 83       	st	Z, r24
     7c4:	ff 91       	pop	r31
     7c6:	ef 91       	pop	r30
     7c8:	8f 91       	pop	r24
     7ca:	0f 90       	pop	r0
     7cc:	0f be       	out	0x3f, r0	; 63
     7ce:	0f 90       	pop	r0
     7d0:	1f 90       	pop	r1
     7d2:	18 95       	reti

000007d4 <__vector_20>:
     7d4:	1f 92       	push	r1
     7d6:	0f 92       	push	r0
     7d8:	0f b6       	in	r0, 0x3f	; 63
     7da:	0f 92       	push	r0
     7dc:	11 24       	eor	r1, r1
     7de:	8f 93       	push	r24
     7e0:	ef 93       	push	r30
     7e2:	ff 93       	push	r31
     7e4:	80 91 90 38 	lds	r24, 0x3890	; 0x803890 <__data_end>
     7e8:	81 11       	cpse	r24, r1
     7ea:	15 c0       	rjmp	.+42     	; 0x816 <__vector_20+0x42>
     7ec:	8e b3       	in	r24, 0x1e	; 30
     7ee:	8f 5f       	subi	r24, 0xFF	; 255
     7f0:	8f 71       	andi	r24, 0x1F	; 31
     7f2:	8e bb       	out	0x1e, r24	; 30
     7f4:	80 91 06 06 	lds	r24, 0x0606	; 0x800606 <__TEXT_REGION_LENGTH__+0x700606>
     7f8:	8e 31       	cpi	r24, 0x1E	; 30
     7fa:	29 f4       	brne	.+10     	; 0x806 <__vector_20+0x32>
     7fc:	80 91 10 06 	lds	r24, 0x0610	; 0x800610 <__TEXT_REGION_LENGTH__+0x700610>
     800:	80 93 eb 3a 	sts	0x3AEB, r24	; 0x803aeb <adcTemp>
     804:	0a c0       	rjmp	.+20     	; 0x81a <__vector_20+0x46>
     806:	ee b3       	in	r30, 0x1e	; 30
     808:	f0 e0       	ldi	r31, 0x00	; 0
     80a:	80 91 10 06 	lds	r24, 0x0610	; 0x800610 <__TEXT_REGION_LENGTH__+0x700610>
     80e:	ee 55       	subi	r30, 0x5E	; 94
     810:	f5 4c       	sbci	r31, 0xC5	; 197
     812:	80 83       	st	Z, r24
     814:	02 c0       	rjmp	.+4      	; 0x81a <__vector_20+0x46>
     816:	10 92 90 38 	sts	0x3890, r1	; 0x803890 <__data_end>
     81a:	81 e0       	ldi	r24, 0x01	; 1
     81c:	80 93 0b 06 	sts	0x060B, r24	; 0x80060b <__TEXT_REGION_LENGTH__+0x70060b>
     820:	ff 91       	pop	r31
     822:	ef 91       	pop	r30
     824:	8f 91       	pop	r24
     826:	0f 90       	pop	r0
     828:	0f be       	out	0x3f, r0	; 63
     82a:	0f 90       	pop	r0
     82c:	1f 90       	pop	r1
     82e:	18 95       	reti

00000830 <__vector_22>:
     830:	1f 92       	push	r1
     832:	0f 92       	push	r0
     834:	0f b6       	in	r0, 0x3f	; 63
     836:	0f 92       	push	r0
     838:	11 24       	eor	r1, r1
     83a:	8f 93       	push	r24
     83c:	9f 93       	push	r25
     83e:	80 91 46 06 	lds	r24, 0x0646	; 0x800646 <__TEXT_REGION_LENGTH__+0x700646>
     842:	81 11       	cpse	r24, r1
     844:	0c c0       	rjmp	.+24     	; 0x85e <__vector_22+0x2e>
     846:	80 91 50 06 	lds	r24, 0x0650	; 0x800650 <__TEXT_REGION_LENGTH__+0x700650>
     84a:	90 91 51 06 	lds	r25, 0x0651	; 0x800651 <__TEXT_REGION_LENGTH__+0x700651>
     84e:	80 93 9f 3a 	sts	0x3A9F, r24	; 0x803a9f <adcPhot>
     852:	90 93 a0 3a 	sts	0x3AA0, r25	; 0x803aa0 <adcPhot+0x1>
     856:	81 e0       	ldi	r24, 0x01	; 1
     858:	80 93 46 06 	sts	0x0646, r24	; 0x800646 <__TEXT_REGION_LENGTH__+0x700646>
     85c:	23 c0       	rjmp	.+70     	; 0x8a4 <__vector_22+0x74>
     85e:	80 91 46 06 	lds	r24, 0x0646	; 0x800646 <__TEXT_REGION_LENGTH__+0x700646>
     862:	81 30       	cpi	r24, 0x01	; 1
     864:	79 f4       	brne	.+30     	; 0x884 <__vector_22+0x54>
     866:	88 e0       	ldi	r24, 0x08	; 8
     868:	80 93 06 04 	sts	0x0406, r24	; 0x800406 <__TEXT_REGION_LENGTH__+0x700406>
     86c:	80 91 50 06 	lds	r24, 0x0650	; 0x800650 <__TEXT_REGION_LENGTH__+0x700650>
     870:	90 91 51 06 	lds	r25, 0x0651	; 0x800651 <__TEXT_REGION_LENGTH__+0x700651>
     874:	80 93 9d 3a 	sts	0x3A9D, r24	; 0x803a9d <adcHall>
     878:	90 93 9e 3a 	sts	0x3A9E, r25	; 0x803a9e <adcHall+0x1>
     87c:	84 e0       	ldi	r24, 0x04	; 4
     87e:	80 93 46 06 	sts	0x0646, r24	; 0x800646 <__TEXT_REGION_LENGTH__+0x700646>
     882:	10 c0       	rjmp	.+32     	; 0x8a4 <__vector_22+0x74>
     884:	80 91 50 06 	lds	r24, 0x0650	; 0x800650 <__TEXT_REGION_LENGTH__+0x700650>
     888:	90 91 51 06 	lds	r25, 0x0651	; 0x800651 <__TEXT_REGION_LENGTH__+0x700651>
     88c:	80 93 99 3a 	sts	0x3A99, r24	; 0x803a99 <adcBtns>
     890:	90 93 9a 3a 	sts	0x3A9A, r25	; 0x803a9a <adcBtns+0x1>
     894:	8f b3       	in	r24, 0x1f	; 31
     896:	8f 30       	cpi	r24, 0x0F	; 15
     898:	29 f4       	brne	.+10     	; 0x8a4 <__vector_22+0x74>
     89a:	10 92 46 06 	sts	0x0646, r1	; 0x800646 <__TEXT_REGION_LENGTH__+0x700646>
     89e:	88 e0       	ldi	r24, 0x08	; 8
     8a0:	80 93 05 04 	sts	0x0405, r24	; 0x800405 <__TEXT_REGION_LENGTH__+0x700405>
     8a4:	8f b3       	in	r24, 0x1f	; 31
     8a6:	90 e0       	ldi	r25, 0x00	; 0
     8a8:	01 96       	adiw	r24, 0x01	; 1
     8aa:	8f 70       	andi	r24, 0x0F	; 15
     8ac:	90 78       	andi	r25, 0x80	; 128
     8ae:	99 23       	and	r25, r25
     8b0:	24 f4       	brge	.+8      	; 0x8ba <__vector_22+0x8a>
     8b2:	01 97       	sbiw	r24, 0x01	; 1
     8b4:	80 6f       	ori	r24, 0xF0	; 240
     8b6:	9f 6f       	ori	r25, 0xFF	; 255
     8b8:	01 96       	adiw	r24, 0x01	; 1
     8ba:	8f bb       	out	0x1f, r24	; 31
     8bc:	81 e0       	ldi	r24, 0x01	; 1
     8be:	80 93 4b 06 	sts	0x064B, r24	; 0x80064b <__TEXT_REGION_LENGTH__+0x70064b>
     8c2:	9f 91       	pop	r25
     8c4:	8f 91       	pop	r24
     8c6:	0f 90       	pop	r0
     8c8:	0f be       	out	0x3f, r0	; 63
     8ca:	0f 90       	pop	r0
     8cc:	1f 90       	pop	r1
     8ce:	18 95       	reti

000008d0 <__vector_6>:
     8d0:	1f 92       	push	r1
     8d2:	0f 92       	push	r0
     8d4:	0f b6       	in	r0, 0x3f	; 63
     8d6:	0f 92       	push	r0
     8d8:	11 24       	eor	r1, r1
     8da:	5f 93       	push	r21
     8dc:	6f 93       	push	r22
     8de:	7f 93       	push	r23
     8e0:	8f 93       	push	r24
     8e2:	9f 93       	push	r25
     8e4:	af 93       	push	r26
     8e6:	bf 93       	push	r27
     8e8:	ef 93       	push	r30
     8ea:	ff 93       	push	r31
     8ec:	80 91 43 01 	lds	r24, 0x0143	; 0x800143 <__TEXT_REGION_LENGTH__+0x700143>
     8f0:	81 ff       	sbrs	r24, 1
     8f2:	29 c0       	rjmp	.+82     	; 0x946 <__vector_6+0x76>
     8f4:	80 91 95 38 	lds	r24, 0x3895	; 0x803895 <buttonMark>
     8f8:	8f 3f       	cpi	r24, 0xFF	; 255
     8fa:	29 f0       	breq	.+10     	; 0x906 <__vector_6+0x36>
     8fc:	80 91 95 38 	lds	r24, 0x3895	; 0x803895 <buttonMark>
     900:	8f 5f       	subi	r24, 0xFF	; 255
     902:	80 93 95 38 	sts	0x3895, r24	; 0x803895 <buttonMark>
     906:	80 91 48 01 	lds	r24, 0x0148	; 0x800148 <__TEXT_REGION_LENGTH__+0x700148>
     90a:	90 91 49 01 	lds	r25, 0x0149	; 0x800149 <__TEXT_REGION_LENGTH__+0x700149>
     90e:	60 91 4a 01 	lds	r22, 0x014A	; 0x80014a <__TEXT_REGION_LENGTH__+0x70014a>
     912:	70 91 4b 01 	lds	r23, 0x014B	; 0x80014b <__TEXT_REGION_LENGTH__+0x70014b>
     916:	82 96       	adiw	r24, 0x22	; 34
     918:	0e 94 4a 0d 	call	0x1a94	; 0x1a94 <__udivmodhi4>
     91c:	80 93 ec 3a 	sts	0x3AEC, r24	; 0x803aec <tmp16bit>
     920:	90 93 ed 3a 	sts	0x3AED, r25	; 0x803aed <tmp16bit+0x1>
     924:	e1 e4       	ldi	r30, 0x41	; 65
     926:	f1 e0       	ldi	r31, 0x01	; 1
     928:	80 81       	ld	r24, Z
     92a:	83 fd       	sbrc	r24, 3
     92c:	fd cf       	rjmp	.-6      	; 0x928 <__vector_6+0x58>
     92e:	80 91 ec 3a 	lds	r24, 0x3AEC	; 0x803aec <tmp16bit>
     932:	90 91 ed 3a 	lds	r25, 0x3AED	; 0x803aed <tmp16bit+0x1>
     936:	80 93 4c 01 	sts	0x014C, r24	; 0x80014c <__TEXT_REGION_LENGTH__+0x70014c>
     93a:	90 93 4d 01 	sts	0x014D, r25	; 0x80014d <__TEXT_REGION_LENGTH__+0x70014d>
     93e:	82 e0       	ldi	r24, 0x02	; 2
     940:	80 93 43 01 	sts	0x0143, r24	; 0x800143 <__TEXT_REGION_LENGTH__+0x700143>
     944:	0c c0       	rjmp	.+24     	; 0x95e <__vector_6+0x8e>
     946:	80 91 96 38 	lds	r24, 0x3896	; 0x803896 <minuteMark>
     94a:	8f 3f       	cpi	r24, 0xFF	; 255
     94c:	29 f0       	breq	.+10     	; 0x958 <__vector_6+0x88>
     94e:	80 91 96 38 	lds	r24, 0x3896	; 0x803896 <minuteMark>
     952:	8f 5f       	subi	r24, 0xFF	; 255
     954:	80 93 96 38 	sts	0x3896, r24	; 0x803896 <minuteMark>
     958:	81 e0       	ldi	r24, 0x01	; 1
     95a:	80 93 43 01 	sts	0x0143, r24	; 0x800143 <__TEXT_REGION_LENGTH__+0x700143>
     95e:	ff 91       	pop	r31
     960:	ef 91       	pop	r30
     962:	bf 91       	pop	r27
     964:	af 91       	pop	r26
     966:	9f 91       	pop	r25
     968:	8f 91       	pop	r24
     96a:	7f 91       	pop	r23
     96c:	6f 91       	pop	r22
     96e:	5f 91       	pop	r21
     970:	0f 90       	pop	r0
     972:	0f be       	out	0x3f, r0	; 63
     974:	0f 90       	pop	r0
     976:	1f 90       	pop	r1
     978:	18 95       	reti

0000097a <__vector_7>:
     97a:	1f 92       	push	r1
     97c:	0f 92       	push	r0
     97e:	0f b6       	in	r0, 0x3f	; 63
     980:	0f 92       	push	r0
     982:	11 24       	eor	r1, r1
     984:	8f 93       	push	r24
     986:	81 e0       	ldi	r24, 0x01	; 1
     988:	80 93 48 06 	sts	0x0648, r24	; 0x800648 <__TEXT_REGION_LENGTH__+0x700648>
     98c:	80 93 53 01 	sts	0x0153, r24	; 0x800153 <__TEXT_REGION_LENGTH__+0x700153>
     990:	8f 91       	pop	r24
     992:	0f 90       	pop	r0
     994:	0f be       	out	0x3f, r0	; 63
     996:	0f 90       	pop	r0
     998:	1f 90       	pop	r1
     99a:	18 95       	reti

0000099c <EERead>:
     99c:	e2 e0       	ldi	r30, 0x02	; 2
     99e:	f0 e1       	ldi	r31, 0x10	; 16
     9a0:	90 81       	ld	r25, Z
     9a2:	91 fd       	sbrc	r25, 1
     9a4:	fd cf       	rjmp	.-6      	; 0x9a0 <EERead+0x4>
     9a6:	44 23       	and	r20, r20
     9a8:	59 f0       	breq	.+22     	; 0x9c0 <EERead+0x24>
     9aa:	a6 2f       	mov	r26, r22
     9ac:	b7 2f       	mov	r27, r23
     9ae:	48 0f       	add	r20, r24
     9b0:	e8 2f       	mov	r30, r24
     9b2:	f0 e0       	ldi	r31, 0x00	; 0
     9b4:	fc 5e       	subi	r31, 0xEC	; 236
     9b6:	90 81       	ld	r25, Z
     9b8:	9d 93       	st	X+, r25
     9ba:	8f 5f       	subi	r24, 0xFF	; 255
     9bc:	48 13       	cpse	r20, r24
     9be:	f8 cf       	rjmp	.-16     	; 0x9b0 <EERead+0x14>
     9c0:	08 95       	ret

000009c2 <EEWrite>:
     9c2:	ff 92       	push	r15
     9c4:	0f 93       	push	r16
     9c6:	1f 93       	push	r17
     9c8:	cf 93       	push	r28
     9ca:	df 93       	push	r29
     9cc:	e8 2f       	mov	r30, r24
     9ce:	44 23       	and	r20, r20
     9d0:	79 f1       	breq	.+94     	; 0xa30 <EEWrite+0x6e>
     9d2:	c2 e0       	ldi	r28, 0x02	; 2
     9d4:	d0 e1       	ldi	r29, 0x10	; 16
     9d6:	3d e9       	ldi	r19, 0x9D	; 157
     9d8:	00 e0       	ldi	r16, 0x00	; 0
     9da:	10 e1       	ldi	r17, 0x10	; 16
     9dc:	54 e0       	ldi	r21, 0x04	; 4
     9de:	0f 2e       	mov	r0, r31
     9e0:	f3 e0       	ldi	r31, 0x03	; 3
     9e2:	ff 2e       	mov	r15, r31
     9e4:	f0 2d       	mov	r31, r0
     9e6:	88 81       	ld	r24, Y
     9e8:	81 fd       	sbrc	r24, 1
     9ea:	fd cf       	rjmp	.-6      	; 0x9e6 <EEWrite+0x24>
     9ec:	34 bf       	out	0x34, r19	; 52
     9ee:	d8 01       	movw	r26, r16
     9f0:	5c 93       	st	X, r21
     9f2:	44 23       	and	r20, r20
     9f4:	91 f0       	breq	.+36     	; 0xa1a <EEWrite+0x58>
     9f6:	2e 2f       	mov	r18, r30
     9f8:	2f 71       	andi	r18, 0x1F	; 31
     9fa:	91 e0       	ldi	r25, 0x01	; 1
     9fc:	9e 0f       	add	r25, r30
     9fe:	6f 5f       	subi	r22, 0xFF	; 255
     a00:	7f 4f       	sbci	r23, 0xFF	; 255
     a02:	db 01       	movw	r26, r22
     a04:	11 97       	sbiw	r26, 0x01	; 1
     a06:	8c 91       	ld	r24, X
     a08:	f0 e0       	ldi	r31, 0x00	; 0
     a0a:	fc 5e       	subi	r31, 0xEC	; 236
     a0c:	80 83       	st	Z, r24
     a0e:	41 50       	subi	r20, 0x01	; 1
     a10:	21 f0       	breq	.+8      	; 0xa1a <EEWrite+0x58>
     a12:	e9 2f       	mov	r30, r25
     a14:	2f 31       	cpi	r18, 0x1F	; 31
     a16:	79 f7       	brne	.-34     	; 0x9f6 <EEWrite+0x34>
     a18:	0f c0       	rjmp	.+30     	; 0xa38 <EEWrite+0x76>
     a1a:	8d e9       	ldi	r24, 0x9D	; 157
     a1c:	84 bf       	out	0x34, r24	; 52
     a1e:	83 e0       	ldi	r24, 0x03	; 3
     a20:	80 93 00 10 	sts	0x1000, r24	; 0x801000 <__TEXT_REGION_LENGTH__+0x701000>
     a24:	80 91 02 10 	lds	r24, 0x1002	; 0x801002 <__TEXT_REGION_LENGTH__+0x701002>
     a28:	82 fb       	bst	r24, 2
     a2a:	88 27       	eor	r24, r24
     a2c:	80 f9       	bld	r24, 0
     a2e:	0c c0       	rjmp	.+24     	; 0xa48 <EEWrite+0x86>
     a30:	80 e0       	ldi	r24, 0x00	; 0
     a32:	0a c0       	rjmp	.+20     	; 0xa48 <EEWrite+0x86>
     a34:	81 e0       	ldi	r24, 0x01	; 1
     a36:	08 c0       	rjmp	.+16     	; 0xa48 <EEWrite+0x86>
     a38:	34 bf       	out	0x34, r19	; 52
     a3a:	f8 01       	movw	r30, r16
     a3c:	f0 82       	st	Z, r15
     a3e:	88 81       	ld	r24, Y
     a40:	82 fd       	sbrc	r24, 2
     a42:	f8 cf       	rjmp	.-16     	; 0xa34 <EEWrite+0x72>
     a44:	e9 2f       	mov	r30, r25
     a46:	cf cf       	rjmp	.-98     	; 0x9e6 <EEWrite+0x24>
     a48:	df 91       	pop	r29
     a4a:	cf 91       	pop	r28
     a4c:	1f 91       	pop	r17
     a4e:	0f 91       	pop	r16
     a50:	ff 90       	pop	r15
     a52:	08 95       	ret

00000a54 <SerSend>:
     a54:	9c 01       	movw	r18, r24
     a56:	90 91 04 38 	lds	r25, 0x3804	; 0x803804 <serTxDone>
     a5a:	99 23       	and	r25, r25
     a5c:	59 f0       	breq	.+22     	; 0xa74 <SerSend+0x20>
     a5e:	20 93 9b 3a 	sts	0x3A9B, r18	; 0x803a9b <serTxAddr>
     a62:	30 93 9c 3a 	sts	0x3A9C, r19	; 0x803a9c <serTxAddr+0x1>
     a66:	10 92 04 38 	sts	0x3804, r1	; 0x803804 <serTxDone>
     a6a:	81 e0       	ldi	r24, 0x01	; 1
     a6c:	80 93 45 0a 	sts	0x0A45, r24	; 0x800a45 <__TEXT_REGION_LENGTH__+0x700a45>
     a70:	80 e0       	ldi	r24, 0x00	; 0
     a72:	08 95       	ret
     a74:	81 e0       	ldi	r24, 0x01	; 1
     a76:	08 95       	ret

00000a78 <SerSpeed>:
     a78:	28 2f       	mov	r18, r24
     a7a:	81 11       	cpse	r24, r1
     a7c:	01 c0       	rjmp	.+2      	; 0xa80 <SerSpeed+0x8>
     a7e:	21 e0       	ldi	r18, 0x01	; 1
     a80:	8f ef       	ldi	r24, 0xFF	; 255
     a82:	90 e0       	ldi	r25, 0x00	; 0
     a84:	82 1b       	sub	r24, r18
     a86:	91 09       	sbc	r25, r1
     a88:	98 2f       	mov	r25, r24
     a8a:	88 27       	eor	r24, r24
     a8c:	81 50       	subi	r24, 0x01	; 1
     a8e:	9f 4f       	sbci	r25, 0xFF	; 255
     a90:	80 93 4c 0a 	sts	0x0A4C, r24	; 0x800a4c <__TEXT_REGION_LENGTH__+0x700a4c>
     a94:	90 93 4d 0a 	sts	0x0A4D, r25	; 0x800a4d <__TEXT_REGION_LENGTH__+0x700a4d>
     a98:	08 95       	ret

00000a9a <CheckButtons>:
};

// Returns button combination (4LSB) and number of consecutive times this combination is detected. First read should always be ignored! 
uint8_t CheckButtons(uint8_t previousValue){
    uint8_t bADC = (uint8_t)(adcBtns>>4);
     a9a:	20 91 99 3a 	lds	r18, 0x3A99	; 0x803a99 <adcBtns>
     a9e:	30 91 9a 3a 	lds	r19, 0x3A9A	; 0x803a9a <adcBtns+0x1>
    uint8_t bNibble = 0x0F;     //MSB to LSB: Bottom left, top left, top right, bottom right, 0F is error
    
    switch(bADC){
     aa2:	32 95       	swap	r19
     aa4:	22 95       	swap	r18
     aa6:	2f 70       	andi	r18, 0x0F	; 15
     aa8:	23 27       	eor	r18, r19
     aaa:	3f 70       	andi	r19, 0x0F	; 15
     aac:	23 27       	eor	r18, r19
     aae:	33 27       	eor	r19, r19
     ab0:	2c 35       	cpi	r18, 0x5C	; 92
     ab2:	31 05       	cpc	r19, r1
     ab4:	d0 f4       	brcc	.+52     	; 0xaea <CheckButtons+0x50>
     ab6:	23 35       	cpi	r18, 0x53	; 83
     ab8:	31 05       	cpc	r19, r1
     aba:	98 f5       	brcc	.+102    	; 0xb22 <CheckButtons+0x88>
     abc:	22 33       	cpi	r18, 0x32	; 50
     abe:	31 05       	cpc	r19, r1
     ac0:	50 f4       	brcc	.+20     	; 0xad6 <CheckButtons+0x3c>
     ac2:	2d 32       	cpi	r18, 0x2D	; 45
     ac4:	31 05       	cpc	r19, r1
     ac6:	48 f5       	brcc	.+82     	; 0xb1a <CheckButtons+0x80>
     ac8:	23 52       	subi	r18, 0x23	; 35
     aca:	31 09       	sbc	r19, r1
     acc:	25 30       	cpi	r18, 0x05	; 5
     ace:	31 05       	cpc	r19, r1
     ad0:	08 f4       	brcc	.+2      	; 0xad4 <CheckButtons+0x3a>
     ad2:	42 c0       	rjmp	.+132    	; 0xb58 <CheckButtons+0xbe>
     ad4:	2e c0       	rjmp	.+92     	; 0xb32 <CheckButtons+0x98>
     ad6:	27 33       	cpi	r18, 0x37	; 55
     ad8:	31 05       	cpc	r19, r1
     ada:	08 f4       	brcc	.+2      	; 0xade <CheckButtons+0x44>
     adc:	3f c0       	rjmp	.+126    	; 0xb5c <CheckButtons+0xc2>
     ade:	2e 53       	subi	r18, 0x3E	; 62
     ae0:	31 09       	sbc	r19, r1
     ae2:	27 30       	cpi	r18, 0x07	; 7
     ae4:	31 05       	cpc	r19, r1
     ae6:	d8 f0       	brcs	.+54     	; 0xb1e <CheckButtons+0x84>
     ae8:	24 c0       	rjmp	.+72     	; 0xb32 <CheckButtons+0x98>
     aea:	2a 38       	cpi	r18, 0x8A	; 138
     aec:	31 05       	cpc	r19, r1
     aee:	48 f4       	brcc	.+18     	; 0xb02 <CheckButtons+0x68>
     af0:	29 37       	cpi	r18, 0x79	; 121
     af2:	31 05       	cpc	r19, r1
     af4:	d0 f4       	brcc	.+52     	; 0xb2a <CheckButtons+0x90>
     af6:	23 56       	subi	r18, 0x63	; 99
     af8:	31 09       	sbc	r19, r1
     afa:	2b 30       	cpi	r18, 0x0B	; 11
     afc:	31 05       	cpc	r19, r1
     afe:	98 f0       	brcs	.+38     	; 0xb26 <CheckButtons+0x8c>
     b00:	18 c0       	rjmp	.+48     	; 0xb32 <CheckButtons+0x98>
     b02:	22 3a       	cpi	r18, 0xA2	; 162
     b04:	31 05       	cpc	r19, r1
     b06:	a8 f0       	brcs	.+42     	; 0xb32 <CheckButtons+0x98>
     b08:	2b 3b       	cpi	r18, 0xBB	; 187
     b0a:	31 05       	cpc	r19, r1
     b0c:	80 f0       	brcs	.+32     	; 0xb2e <CheckButtons+0x94>
     b0e:	20 5f       	subi	r18, 0xF0	; 240
     b10:	31 09       	sbc	r19, r1
     b12:	20 31       	cpi	r18, 0x10	; 16
     b14:	31 05       	cpc	r19, r1
     b16:	d8 f0       	brcs	.+54     	; 0xb4e <CheckButtons+0xb4>
     b18:	0c c0       	rjmp	.+24     	; 0xb32 <CheckButtons+0x98>
        case 35 ... 39:          //37: Both left
        bNibble = 0b1100;
        break;

        case 45 ... 49:          //47: Both bottom
        bNibble = 0b1001;
     b1a:	99 e0       	ldi	r25, 0x09	; 9
     b1c:	20 c0       	rjmp	.+64     	; 0xb5e <CheckButtons+0xc4>
        case 50 ... 54:          //52: Bottom left
        bNibble = 0b1000;
        break;

        case 62 ... 68:          //65: Both top
        bNibble = 0b0110;
     b1e:	96 e0       	ldi	r25, 0x06	; 6
        break;
     b20:	1e c0       	rjmp	.+60     	; 0xb5e <CheckButtons+0xc4>

        case 83 ... 91:          //87: Top left
        bNibble = 0b0100;
     b22:	94 e0       	ldi	r25, 0x04	; 4
        break;
     b24:	1c c0       	rjmp	.+56     	; 0xb5e <CheckButtons+0xc4>

        case 99 ... 109:         //104: Both right
        bNibble = 0b0011;
     b26:	93 e0       	ldi	r25, 0x03	; 3
        break;
     b28:	1a c0       	rjmp	.+52     	; 0xb5e <CheckButtons+0xc4>

        case 121 ... 137:        //129: Top right
        bNibble = 0b0010;
     b2a:	92 e0       	ldi	r25, 0x02	; 2
        break;
     b2c:	18 c0       	rjmp	.+48     	; 0xb5e <CheckButtons+0xc4>

        case 162 ... 186:        //174: Bottom right
        bNibble = 0b0001;
     b2e:	91 e0       	ldi	r25, 0x01	; 1
        break;
     b30:	16 c0       	rjmp	.+44     	; 0xb5e <CheckButtons+0xc4>
        case 240 ... 255:        //255: No button pressed
        bNibble = 0b0000;
        break;
    }

    if ((previousValue&0x0F)==bNibble){
     b32:	98 2f       	mov	r25, r24
     b34:	9f 70       	andi	r25, 0x0F	; 15
     b36:	9f 30       	cpi	r25, 0x0F	; 15
     b38:	41 f4       	brne	.+16     	; 0xb4a <CheckButtons+0xb0>
        if ((previousValue&0xF0) < 0xF0) previousValue += 0x10; //Same value? Increase time nibble
     b3a:	28 2f       	mov	r18, r24
     b3c:	20 7f       	andi	r18, 0xF0	; 240
     b3e:	30 e0       	ldi	r19, 0x00	; 0
     b40:	20 3f       	cpi	r18, 0xF0	; 240
     b42:	31 05       	cpc	r19, r1
     b44:	8c f4       	brge	.+34     	; 0xb68 <CheckButtons+0xce>
     b46:	80 5f       	subi	r24, 0xF0	; 240
     b48:	08 95       	ret
};

// Returns button combination (4LSB) and number of consecutive times this combination is detected. First read should always be ignored! 
uint8_t CheckButtons(uint8_t previousValue){
    uint8_t bADC = (uint8_t)(adcBtns>>4);
    uint8_t bNibble = 0x0F;     //MSB to LSB: Bottom left, top left, top right, bottom right, 0F is error
     b4a:	8f e0       	ldi	r24, 0x0F	; 15
     b4c:	08 95       	ret
        case 240 ... 255:        //255: No button pressed
        bNibble = 0b0000;
        break;
    }

    if ((previousValue&0x0F)==bNibble){
     b4e:	98 2f       	mov	r25, r24
     b50:	9f 70       	andi	r25, 0x0F	; 15
     b52:	99 f3       	breq	.-26     	; 0xb3a <CheckButtons+0xa0>
        if ((previousValue&0xF0) < 0xF0) previousValue += 0x10; //Same value? Increase time nibble
        return previousValue;       
    } else if (bNibble == 0) return 0xFF; //Buttons released, 0xFF triggers readout, previousValue holds last button value.
     b54:	8f ef       	ldi	r24, 0xFF	; 255
     b56:	08 95       	ret
        case 28 ... 32:         //30: All buttons pressed
        bNibble = 0b1111;
        break;

        case 35 ... 39:          //37: Both left
        bNibble = 0b1100;
     b58:	9c e0       	ldi	r25, 0x0C	; 12
     b5a:	01 c0       	rjmp	.+2      	; 0xb5e <CheckButtons+0xc4>
        case 45 ... 49:          //47: Both bottom
        bNibble = 0b1001;
        break;

        case 50 ... 54:          //52: Bottom left
        bNibble = 0b1000;
     b5c:	98 e0       	ldi	r25, 0x08	; 8
        case 240 ... 255:        //255: No button pressed
        bNibble = 0b0000;
        break;
    }

    if ((previousValue&0x0F)==bNibble){
     b5e:	28 2f       	mov	r18, r24
     b60:	2f 70       	andi	r18, 0x0F	; 15
     b62:	92 17       	cp	r25, r18
     b64:	51 f3       	breq	.-44     	; 0xb3a <CheckButtons+0xa0>
     b66:	89 2f       	mov	r24, r25
        if ((previousValue&0xF0) < 0xF0) previousValue += 0x10; //Same value? Increase time nibble
        return previousValue;       
    } else if (bNibble == 0) return 0xFF; //Buttons released, 0xFF triggers readout, previousValue holds last button value.
              else return bNibble;  //New value  
}
     b68:	08 95       	ret

00000b6a <lfsr>:

uint8_t lfsr(){
    static uint16_t state = 0xd401;
    state ^= (state << 13);
     b6a:	80 91 85 38 	lds	r24, 0x3885	; 0x803885 <state.3860>
     b6e:	90 91 86 38 	lds	r25, 0x3886	; 0x803886 <state.3860+0x1>
     b72:	9c 01       	movw	r18, r24
     b74:	32 2f       	mov	r19, r18
     b76:	22 27       	eor	r18, r18
     b78:	32 95       	swap	r19
     b7a:	33 0f       	add	r19, r19
     b7c:	30 7e       	andi	r19, 0xE0	; 224
     b7e:	82 27       	eor	r24, r18
     b80:	93 27       	eor	r25, r19
    state ^= (state >> 9);
     b82:	9c 01       	movw	r18, r24
     b84:	23 2f       	mov	r18, r19
     b86:	33 27       	eor	r19, r19
     b88:	26 95       	lsr	r18
     b8a:	82 27       	eor	r24, r18
     b8c:	93 27       	eor	r25, r19
    state ^= (state << 7);
     b8e:	9c 01       	movw	r18, r24
     b90:	36 95       	lsr	r19
     b92:	32 2f       	mov	r19, r18
     b94:	22 27       	eor	r18, r18
     b96:	37 95       	ror	r19
     b98:	27 95       	ror	r18
     b9a:	82 27       	eor	r24, r18
     b9c:	93 27       	eor	r25, r19
     b9e:	80 93 85 38 	sts	0x3885, r24	; 0x803885 <state.3860>
     ba2:	90 93 86 38 	sts	0x3886, r25	; 0x803886 <state.3860+0x1>
    return (state & 0xff);
}
     ba6:	08 95       	ret

00000ba8 <floatSpeed>:

void floatSpeed(uint8_t bits, uint16_t min, uint16_t max){
     ba8:	df 92       	push	r13
     baa:	ef 92       	push	r14
     bac:	ff 92       	push	r15
     bae:	0f 93       	push	r16
     bb0:	1f 93       	push	r17
     bb2:	cf 93       	push	r28
     bb4:	df 93       	push	r29
     bb6:	e6 2e       	mov	r14, r22
     bb8:	f7 2e       	mov	r15, r23
     bba:	8a 01       	movw	r16, r20
    uint16_t val = TCB1_CCMP;
     bbc:	c0 91 5c 0a 	lds	r28, 0x0A5C	; 0x800a5c <__TEXT_REGION_LENGTH__+0x700a5c>
     bc0:	d0 91 5d 0a 	lds	r29, 0x0A5D	; 0x800a5d <__TEXT_REGION_LENGTH__+0x700a5d>
    bits = mask[(bits-1)&0x07];
     bc4:	e8 2f       	mov	r30, r24
     bc6:	f0 e0       	ldi	r31, 0x00	; 0
     bc8:	31 97       	sbiw	r30, 0x01	; 1
     bca:	e7 70       	andi	r30, 0x07	; 7
     bcc:	ff 27       	eor	r31, r31
     bce:	e9 57       	subi	r30, 0x79	; 121
     bd0:	f7 4c       	sbci	r31, 0xC7	; 199
     bd2:	d0 80       	ld	r13, Z
    val += (lfsr()&bits);
     bd4:	ca df       	rcall	.-108    	; 0xb6a <lfsr>
     bd6:	8d 21       	and	r24, r13
     bd8:	c8 0f       	add	r28, r24
     bda:	d1 1d       	adc	r29, r1
    val -= (lfsr()&bits);
     bdc:	c6 df       	rcall	.-116    	; 0xb6a <lfsr>
     bde:	8d 21       	and	r24, r13
     be0:	c8 1b       	sub	r28, r24
     be2:	d1 09       	sbc	r29, r1
     be4:	0c 17       	cp	r16, r28
     be6:	1d 07       	cpc	r17, r29
     be8:	08 f4       	brcc	.+2      	; 0xbec <floatSpeed+0x44>
     bea:	e8 01       	movw	r28, r16
     bec:	8e 2d       	mov	r24, r14
     bee:	9f 2d       	mov	r25, r15
     bf0:	8c 17       	cp	r24, r28
     bf2:	9d 07       	cpc	r25, r29
     bf4:	08 f4       	brcc	.+2      	; 0xbf8 <floatSpeed+0x50>
     bf6:	ce 01       	movw	r24, r28
     bf8:	80 93 5c 0a 	sts	0x0A5C, r24	; 0x800a5c <__TEXT_REGION_LENGTH__+0x700a5c>
    if (val > max) val = max;    //0x038B is normal rate, for wind we need to be a bit slower
    if (val < min) val = min;  
    TCB1_CCMP = val;
     bfc:	90 93 5d 0a 	sts	0x0A5D, r25	; 0x800a5d <__TEXT_REGION_LENGTH__+0x700a5d>
     c00:	df 91       	pop	r29
}
     c02:	cf 91       	pop	r28
     c04:	1f 91       	pop	r17
     c06:	0f 91       	pop	r16
     c08:	ff 90       	pop	r15
     c0a:	ef 90       	pop	r14
     c0c:	df 90       	pop	r13
     c0e:	08 95       	ret

00000c10 <floatAround>:
     c10:	0f 93       	push	r16

uint8_t floatAround(uint8_t sample, uint8_t bits, uint8_t min, uint8_t max){
     c12:	1f 93       	push	r17
     c14:	cf 93       	push	r28
     c16:	df 93       	push	r29
     c18:	c8 2f       	mov	r28, r24
     c1a:	04 2f       	mov	r16, r20
     c1c:	12 2f       	mov	r17, r18
    bits = mask[(bits-1)&0x07];
     c1e:	e6 2f       	mov	r30, r22
     c20:	f0 e0       	ldi	r31, 0x00	; 0
     c22:	31 97       	sbiw	r30, 0x01	; 1
     c24:	e7 70       	andi	r30, 0x07	; 7
     c26:	ff 27       	eor	r31, r31
     c28:	e9 57       	subi	r30, 0x79	; 121
     c2a:	f7 4c       	sbci	r31, 0xC7	; 199
     c2c:	d0 81       	ld	r29, Z
    sample += lfsr()&bits;
     c2e:	9d df       	rcall	.-198    	; 0xb6a <lfsr>
     c30:	8d 23       	and	r24, r29
     c32:	c8 0f       	add	r28, r24
    sample -= lfsr()&bits;
     c34:	9a df       	rcall	.-204    	; 0xb6a <lfsr>
     c36:	8d 23       	and	r24, r29
     c38:	c8 1b       	sub	r28, r24
     c3a:	8c 2f       	mov	r24, r28
     c3c:	11 23       	and	r17, r17
    if (max){
     c3e:	41 f0       	breq	.+16     	; 0xc50 <floatAround+0x40>
     c40:	9c 2f       	mov	r25, r28
     c42:	1c 17       	cp	r17, r28
     c44:	08 f4       	brcc	.+2      	; 0xc48 <floatAround+0x38>
     c46:	91 2f       	mov	r25, r17
     c48:	80 2f       	mov	r24, r16
     c4a:	09 17       	cp	r16, r25
     c4c:	08 f4       	brcc	.+2      	; 0xc50 <floatAround+0x40>
     c4e:	89 2f       	mov	r24, r25
     c50:	df 91       	pop	r29
        if (sample > max) sample = max;
        if (sample < min) sample = min;
    }
    return sample;
}
     c52:	cf 91       	pop	r28
     c54:	1f 91       	pop	r17
     c56:	0f 91       	pop	r16
     c58:	08 95       	ret

00000c5a <SaveGameState>:
     c5a:	cf 92       	push	r12

//Save changed data to EEPROM
uint8_t SaveGameState(){
     c5c:	df 92       	push	r13
     c5e:	ff 92       	push	r15
     c60:	0f 93       	push	r16
     c62:	1f 93       	push	r17
     c64:	cf 93       	push	r28
     c66:	df 93       	push	r29
     c68:	cd b7       	in	r28, 0x3d	; 61
     c6a:	de b7       	in	r29, 0x3e	; 62
     c6c:	60 97       	sbiw	r28, 0x10	; 16
     c6e:	cd bf       	out	0x3d, r28	; 61
     c70:	de bf       	out	0x3e, r29	; 62
    uint8_t gameCheck[16];
    EERead(0, &gameCheck[0], 16);
     c72:	40 e1       	ldi	r20, 0x10	; 16
     c74:	be 01       	movw	r22, r28
     c76:	6f 5f       	subi	r22, 0xFF	; 255
     c78:	7f 4f       	sbci	r23, 0xFF	; 255
     c7a:	80 e0       	ldi	r24, 0x00	; 0
     c7c:	8f de       	rcall	.-738    	; 0x99c <EERead>
     c7e:	07 e4       	ldi	r16, 0x47	; 71
     c80:	1a e3       	ldi	r17, 0x3A	; 58
     c82:	ce 01       	movw	r24, r28
     c84:	01 96       	adiw	r24, 0x01	; 1
     c86:	6c 01       	movw	r12, r24
    for (uint8_t x=0; x<16; ++x){
     c88:	f1 2c       	mov	r15, r1
        if (gameState[x] != gameCheck[x]){
     c8a:	f6 01       	movw	r30, r12
     c8c:	81 91       	ld	r24, Z+
     c8e:	6f 01       	movw	r12, r30
     c90:	f8 01       	movw	r30, r16
     c92:	90 81       	ld	r25, Z
     c94:	98 17       	cp	r25, r24
     c96:	31 f0       	breq	.+12     	; 0xca4 <SaveGameState+0x4a>
            if (EEWrite(x, &gameState[x], 1)) return 1;
     c98:	41 e0       	ldi	r20, 0x01	; 1
     c9a:	b8 01       	movw	r22, r16
     c9c:	8f 2d       	mov	r24, r15
     c9e:	91 de       	rcall	.-734    	; 0x9c2 <EEWrite>
     ca0:	81 11       	cpse	r24, r1
     ca2:	08 c0       	rjmp	.+16     	; 0xcb4 <SaveGameState+0x5a>

//Save changed data to EEPROM
uint8_t SaveGameState(){
    uint8_t gameCheck[16];
    EERead(0, &gameCheck[0], 16);
    for (uint8_t x=0; x<16; ++x){
     ca4:	f3 94       	inc	r15
     ca6:	0f 5f       	subi	r16, 0xFF	; 255
     ca8:	1f 4f       	sbci	r17, 0xFF	; 255
     caa:	f0 e1       	ldi	r31, 0x10	; 16
     cac:	ff 12       	cpse	r15, r31
     cae:	ed cf       	rjmp	.-38     	; 0xc8a <SaveGameState+0x30>
        if (gameState[x] != gameCheck[x]){
            if (EEWrite(x, &gameState[x], 1)) return 1;
        }
    }
    return 0;
     cb0:	80 e0       	ldi	r24, 0x00	; 0
     cb2:	01 c0       	rjmp	.+2      	; 0xcb6 <SaveGameState+0x5c>
uint8_t SaveGameState(){
    uint8_t gameCheck[16];
    EERead(0, &gameCheck[0], 16);
    for (uint8_t x=0; x<16; ++x){
        if (gameState[x] != gameCheck[x]){
            if (EEWrite(x, &gameState[x], 1)) return 1;
     cb4:	81 e0       	ldi	r24, 0x01	; 1
        }
    }
    return 0;
}
     cb6:	60 96       	adiw	r28, 0x10	; 16
     cb8:	cd bf       	out	0x3d, r28	; 61
     cba:	de bf       	out	0x3e, r29	; 62
     cbc:	df 91       	pop	r29
     cbe:	cf 91       	pop	r28
     cc0:	1f 91       	pop	r17
     cc2:	0f 91       	pop	r16
     cc4:	ff 90       	pop	r15
     cc6:	df 90       	pop	r13
     cc8:	cf 90       	pop	r12
     cca:	08 95       	ret

00000ccc <ReadStatusBit>:

uint8_t ReadStatusBit(uint8_t number){
    number &= 0x3f;
    if (gameState[number>>3] & (1<<(number&7))) return 1; else return 0;
     ccc:	e8 2f       	mov	r30, r24
     cce:	ef 73       	andi	r30, 0x3F	; 63
     cd0:	e6 95       	lsr	r30
     cd2:	e6 95       	lsr	r30
     cd4:	e6 95       	lsr	r30
     cd6:	f0 e0       	ldi	r31, 0x00	; 0
     cd8:	e9 5b       	subi	r30, 0xB9	; 185
     cda:	f5 4c       	sbci	r31, 0xC5	; 197
     cdc:	20 81       	ld	r18, Z
     cde:	30 e0       	ldi	r19, 0x00	; 0
     ce0:	87 70       	andi	r24, 0x07	; 7
     ce2:	a9 01       	movw	r20, r18
     ce4:	02 c0       	rjmp	.+4      	; 0xcea <ReadStatusBit+0x1e>
     ce6:	55 95       	asr	r21
     ce8:	47 95       	ror	r20
     cea:	8a 95       	dec	r24
     cec:	e2 f7       	brpl	.-8      	; 0xce6 <ReadStatusBit+0x1a>
     cee:	ca 01       	movw	r24, r20
}
     cf0:	81 70       	andi	r24, 0x01	; 1
     cf2:	08 95       	ret

00000cf4 <WriteStatusBit>:

void WriteStatusBit(uint8_t number, uint8_t state){
    number &= 0x3f;
     cf4:	e8 2f       	mov	r30, r24
     cf6:	ef 73       	andi	r30, 0x3F	; 63
    if (state) gameState[number>>3] |= 1<<(number&7);
     cf8:	66 23       	and	r22, r22
     cfa:	a1 f0       	breq	.+40     	; 0xd24 <WriteStatusBit+0x30>
     cfc:	e6 95       	lsr	r30
     cfe:	e6 95       	lsr	r30
     d00:	e6 95       	lsr	r30
     d02:	f0 e0       	ldi	r31, 0x00	; 0
     d04:	e9 5b       	subi	r30, 0xB9	; 185
     d06:	f5 4c       	sbci	r31, 0xC5	; 197
     d08:	87 70       	andi	r24, 0x07	; 7
     d0a:	21 e0       	ldi	r18, 0x01	; 1
     d0c:	30 e0       	ldi	r19, 0x00	; 0
     d0e:	a9 01       	movw	r20, r18
     d10:	02 c0       	rjmp	.+4      	; 0xd16 <WriteStatusBit+0x22>
     d12:	44 0f       	add	r20, r20
     d14:	55 1f       	adc	r21, r21
     d16:	8a 95       	dec	r24
     d18:	e2 f7       	brpl	.-8      	; 0xd12 <WriteStatusBit+0x1e>
     d1a:	ca 01       	movw	r24, r20
     d1c:	90 81       	ld	r25, Z
     d1e:	89 2b       	or	r24, r25
     d20:	80 83       	st	Z, r24
     d22:	08 95       	ret
    else gameState[number>>3] &= ~(1<<(number&7));
     d24:	e6 95       	lsr	r30
     d26:	e6 95       	lsr	r30
     d28:	e6 95       	lsr	r30
     d2a:	f0 e0       	ldi	r31, 0x00	; 0
     d2c:	e9 5b       	subi	r30, 0xB9	; 185
     d2e:	f5 4c       	sbci	r31, 0xC5	; 197
     d30:	87 70       	andi	r24, 0x07	; 7
     d32:	21 e0       	ldi	r18, 0x01	; 1
     d34:	30 e0       	ldi	r19, 0x00	; 0
     d36:	a9 01       	movw	r20, r18
     d38:	02 c0       	rjmp	.+4      	; 0xd3e <WriteStatusBit+0x4a>
     d3a:	44 0f       	add	r20, r20
     d3c:	55 1f       	adc	r21, r21
     d3e:	8a 95       	dec	r24
     d40:	e2 f7       	brpl	.-8      	; 0xd3a <WriteStatusBit+0x46>
     d42:	ca 01       	movw	r24, r20
     d44:	80 95       	com	r24
     d46:	90 81       	ld	r25, Z
     d48:	89 23       	and	r24, r25
     d4a:	80 83       	st	Z, r24
     d4c:	08 95       	ret

00000d4e <Reset>:
}

void Reset(){
     d4e:	e7 e4       	ldi	r30, 0x47	; 71
     d50:	fa e3       	ldi	r31, 0x3A	; 58
     d52:	87 e5       	ldi	r24, 0x57	; 87
     d54:	9a e3       	ldi	r25, 0x3A	; 58
    //# 110   set to 1 by FW if badge UUID mod 4 == 0
    //# 111   set to 1 by FW if badge UUID mod 4 == 1
    //# 112   set to 1 by FW if badge UUID mod 4 == 2
    //# 113   set to 1 by FW if badge UUID mod 4 == 3
    for (uint8_t x=0; x<sizeof(gameState); ++x){
        gameState[x] = 0;
     d56:	11 92       	st	Z+, r1
    //Reset game progress (all zeroes) and load some bits:
    //# 110   set to 1 by FW if badge UUID mod 4 == 0
    //# 111   set to 1 by FW if badge UUID mod 4 == 1
    //# 112   set to 1 by FW if badge UUID mod 4 == 2
    //# 113   set to 1 by FW if badge UUID mod 4 == 3
    for (uint8_t x=0; x<sizeof(gameState); ++x){
     d58:	8e 17       	cp	r24, r30
     d5a:	9f 07       	cpc	r25, r31
     d5c:	e1 f7       	brne	.-8      	; 0xd56 <Reset+0x8>
     d5e:	e3 e0       	ldi	r30, 0x03	; 3
     d60:	f1 e1       	ldi	r31, 0x11	; 17
     d62:	80 e0       	ldi	r24, 0x00	; 0
    uint8_t *serNum;
    serNum = (uint8_t*)&SIGROW_SERNUM0;
    
    //Give out a number 0..3, calculated using serial number fields
    for (uint8_t x=0; x<10; ++x){
        id += *serNum;
     d64:	91 91       	ld	r25, Z+
     d66:	89 0f       	add	r24, r25
    uint8_t id = 0;
    uint8_t *serNum;
    serNum = (uint8_t*)&SIGROW_SERNUM0;
    
    //Give out a number 0..3, calculated using serial number fields
    for (uint8_t x=0; x<10; ++x){
     d68:	ed 30       	cpi	r30, 0x0D	; 13
     d6a:	91 e1       	ldi	r25, 0x11	; 17
     d6c:	f9 07       	cpc	r31, r25
     d6e:	d1 f7       	brne	.-12     	; 0xd64 <Reset+0x16>
        id += *serNum;
        ++serNum;
    }
    id %= 4;
     d70:	83 70       	andi	r24, 0x03	; 3

    //Write bit in gameState location 110..113
    if (id == 0) WriteStatusBit(110, 1);
     d72:	31 f4       	brne	.+12     	; 0xd80 <Reset+0x32>
    if (gameState[number>>3] & (1<<(number&7))) return 1; else return 0;
}

void WriteStatusBit(uint8_t number, uint8_t state){
    number &= 0x3f;
    if (state) gameState[number>>3] |= 1<<(number&7);
     d74:	e7 e4       	ldi	r30, 0x47	; 71
     d76:	fa e3       	ldi	r31, 0x3A	; 58
     d78:	85 81       	ldd	r24, Z+5	; 0x05
     d7a:	80 64       	ori	r24, 0x40	; 64
     d7c:	85 83       	std	Z+5, r24	; 0x05
     d7e:	17 c0       	rjmp	.+46     	; 0xdae <Reset+0x60>
    }
    id %= 4;

    //Write bit in gameState location 110..113
    if (id == 0) WriteStatusBit(110, 1);
    else if (id == 1) WriteStatusBit(111, 1);
     d80:	81 30       	cpi	r24, 0x01	; 1
     d82:	31 f4       	brne	.+12     	; 0xd90 <Reset+0x42>
    if (gameState[number>>3] & (1<<(number&7))) return 1; else return 0;
}

void WriteStatusBit(uint8_t number, uint8_t state){
    number &= 0x3f;
    if (state) gameState[number>>3] |= 1<<(number&7);
     d84:	e7 e4       	ldi	r30, 0x47	; 71
     d86:	fa e3       	ldi	r31, 0x3A	; 58
     d88:	85 81       	ldd	r24, Z+5	; 0x05
     d8a:	80 68       	ori	r24, 0x80	; 128
     d8c:	85 83       	std	Z+5, r24	; 0x05
     d8e:	0f c0       	rjmp	.+30     	; 0xdae <Reset+0x60>
    id %= 4;

    //Write bit in gameState location 110..113
    if (id == 0) WriteStatusBit(110, 1);
    else if (id == 1) WriteStatusBit(111, 1);
    else if (id == 2) WriteStatusBit(112, 1);
     d90:	82 30       	cpi	r24, 0x02	; 2
     d92:	31 f4       	brne	.+12     	; 0xda0 <Reset+0x52>
    if (gameState[number>>3] & (1<<(number&7))) return 1; else return 0;
}

void WriteStatusBit(uint8_t number, uint8_t state){
    number &= 0x3f;
    if (state) gameState[number>>3] |= 1<<(number&7);
     d94:	e7 e4       	ldi	r30, 0x47	; 71
     d96:	fa e3       	ldi	r31, 0x3A	; 58
     d98:	86 81       	ldd	r24, Z+6	; 0x06
     d9a:	81 60       	ori	r24, 0x01	; 1
     d9c:	86 83       	std	Z+6, r24	; 0x06
     d9e:	07 c0       	rjmp	.+14     	; 0xdae <Reset+0x60>

    //Write bit in gameState location 110..113
    if (id == 0) WriteStatusBit(110, 1);
    else if (id == 1) WriteStatusBit(111, 1);
    else if (id == 2) WriteStatusBit(112, 1);
    else if (id == 3) WriteStatusBit(113, 1);
     da0:	83 30       	cpi	r24, 0x03	; 3
     da2:	29 f4       	brne	.+10     	; 0xdae <Reset+0x60>
    if (gameState[number>>3] & (1<<(number&7))) return 1; else return 0;
}

void WriteStatusBit(uint8_t number, uint8_t state){
    number &= 0x3f;
    if (state) gameState[number>>3] |= 1<<(number&7);
     da4:	e7 e4       	ldi	r30, 0x47	; 71
     da6:	fa e3       	ldi	r31, 0x3A	; 58
     da8:	86 81       	ldd	r24, Z+6	; 0x06
     daa:	82 60       	ori	r24, 0x02	; 2
     dac:	86 83       	std	Z+6, r24	; 0x06
     dae:	e7 e4       	ldi	r30, 0x47	; 71
     db0:	fa e3       	ldi	r31, 0x3A	; 58
     db2:	80 81       	ld	r24, Z
     db4:	81 60       	ori	r24, 0x01	; 1
     db6:	80 83       	st	Z, r24
     db8:	08 95       	ret

00000dba <GenerateAudio>:
    WriteStatusBit(0, 1);
}

//void setupSound(uint8_t number){

void GenerateAudio(){
     dba:	0f 93       	push	r16
     dbc:	1f 93       	push	r17
     dbe:	cf 93       	push	r28
     dc0:	df 93       	push	r29
    static uint8_t auBuffer[128] = {0x80, 0};
    //auRepAddr = &auBuffer[0];

    //Audio for text adventure
    if ((effect&0xff00)==0) {
     dc2:	80 91 93 38 	lds	r24, 0x3893	; 0x803893 <effect>
     dc6:	90 91 94 38 	lds	r25, 0x3894	; 0x803894 <effect+0x1>
     dca:	88 27       	eor	r24, r24
     dcc:	89 2b       	or	r24, r25
     dce:	09 f0       	breq	.+2      	; 0xdd2 <GenerateAudio+0x18>
     dd0:	68 c0       	rjmp	.+208    	; 0xea2 <GenerateAudio+0xe8>

        //Silence
        if ((effect&0xE0)==0){
     dd2:	80 91 93 38 	lds	r24, 0x3893	; 0x803893 <effect>
     dd6:	90 91 94 38 	lds	r25, 0x3894	; 0x803894 <effect+0x1>
     dda:	80 7e       	andi	r24, 0xE0	; 224
     ddc:	99 27       	eor	r25, r25
     dde:	89 2b       	or	r24, r25
     de0:	39 f4       	brne	.+14     	; 0xdf0 <GenerateAudio+0x36>
            auRepAddr = zero;
     de2:	80 91 91 38 	lds	r24, 0x3891	; 0x803891 <zero>
     de6:	90 e0       	ldi	r25, 0x00	; 0
     de8:	80 93 00 38 	sts	0x3800, r24	; 0x803800 <__data_start>
     dec:	90 93 01 38 	sts	0x3801, r25	; 0x803801 <__data_start+0x1>
        }

        //Bad (buzzer)
        if ((effect&0xE0)==32){
     df0:	80 91 93 38 	lds	r24, 0x3893	; 0x803893 <effect>
     df4:	90 91 94 38 	lds	r25, 0x3894	; 0x803894 <effect+0x1>

        }

        //Good (bell)
        if ((effect&0xE0)==64){
     df8:	80 91 93 38 	lds	r24, 0x3893	; 0x803893 <effect>
     dfc:	90 91 94 38 	lds	r25, 0x3894	; 0x803894 <effect+0x1>
            //auBuffer = 
        }

        //Rain storm with whistling wind
        if ((effect&0xE0)==96){
     e00:	80 91 93 38 	lds	r24, 0x3893	; 0x803893 <effect>
     e04:	90 91 94 38 	lds	r25, 0x3894	; 0x803894 <effect+0x1>
     e08:	80 7e       	andi	r24, 0xE0	; 224
     e0a:	99 27       	eor	r25, r25
     e0c:	80 36       	cpi	r24, 0x60	; 96
     e0e:	91 05       	cpc	r25, r1
     e10:	09 f0       	breq	.+2      	; 0xe14 <GenerateAudio+0x5a>
     e12:	3b c0       	rjmp	.+118    	; 0xe8a <GenerateAudio+0xd0>
            auBuffer[6]= 0;        
     e14:	e5 e0       	ldi	r30, 0x05	; 5
     e16:	f8 e3       	ldi	r31, 0x38	; 56
     e18:	16 82       	std	Z+6, r1	; 0x06
            auRepAddr = &auBuffer[0];
     e1a:	e0 93 00 38 	sts	0x3800, r30	; 0x803800 <__data_start>
     e1e:	f0 93 01 38 	sts	0x3801, r31	; 0x803801 <__data_start+0x1>
     e22:	8f 01       	movw	r16, r30

            //Noise is to be generated fast, outside of buttonMark loop
            for (uint8_t x=1; x<6; ++x){
     e24:	c1 e0       	ldi	r28, 0x01	; 1
                if (x%3) auBuffer[x] = floatAround(0x80, 5, 0x01, 0x00);
     e26:	db ea       	ldi	r29, 0xAB	; 171
     e28:	cd 9f       	mul	r28, r29
     e2a:	81 2d       	mov	r24, r1
     e2c:	11 24       	eor	r1, r1
     e2e:	86 95       	lsr	r24
     e30:	98 2f       	mov	r25, r24
     e32:	99 0f       	add	r25, r25
     e34:	89 0f       	add	r24, r25
     e36:	c8 17       	cp	r28, r24
     e38:	39 f0       	breq	.+14     	; 0xe48 <GenerateAudio+0x8e>
     e3a:	20 e0       	ldi	r18, 0x00	; 0
     e3c:	41 e0       	ldi	r20, 0x01	; 1
     e3e:	65 e0       	ldi	r22, 0x05	; 5
     e40:	80 e8       	ldi	r24, 0x80	; 128
     e42:	e6 de       	rcall	.-564    	; 0xc10 <floatAround>
     e44:	f8 01       	movw	r30, r16
     e46:	81 83       	std	Z+1, r24	; 0x01
        if ((effect&0xE0)==96){
            auBuffer[6]= 0;        
            auRepAddr = &auBuffer[0];

            //Noise is to be generated fast, outside of buttonMark loop
            for (uint8_t x=1; x<6; ++x){
     e48:	cf 5f       	subi	r28, 0xFF	; 255
     e4a:	0f 5f       	subi	r16, 0xFF	; 255
     e4c:	1f 4f       	sbci	r17, 0xFF	; 255
     e4e:	c6 30       	cpi	r28, 0x06	; 6
     e50:	59 f7       	brne	.-42     	; 0xe28 <GenerateAudio+0x6e>
                if (x%3) auBuffer[x] = floatAround(0x80, 5, 0x01, 0x00);
            }

            if (buttonMark){
     e52:	80 91 95 38 	lds	r24, 0x3895	; 0x803895 <buttonMark>
     e56:	88 23       	and	r24, r24
     e58:	c1 f0       	breq	.+48     	; 0xe8a <GenerateAudio+0xd0>
                //"Floating" speed for howl (and noise, but that's hardly audible)
                floatSpeed(5, 0x0280, 0x0400);
     e5a:	40 e0       	ldi	r20, 0x00	; 0
     e5c:	54 e0       	ldi	r21, 0x04	; 4
     e5e:	60 e8       	ldi	r22, 0x80	; 128
     e60:	72 e0       	ldi	r23, 0x02	; 2
     e62:	85 e0       	ldi	r24, 0x05	; 5
     e64:	a1 de       	rcall	.-702    	; 0xba8 <floatSpeed>
            
                //"Floating" volume and wind howl during 8 bit rainstorm needs some randomness
                auVolume = floatAround(auVolume, 2, 0x10, 0xA0);
     e66:	80 91 98 3a 	lds	r24, 0x3A98	; 0x803a98 <auVolume>
     e6a:	20 ea       	ldi	r18, 0xA0	; 160
     e6c:	40 e1       	ldi	r20, 0x10	; 16
     e6e:	62 e0       	ldi	r22, 0x02	; 2
     e70:	cf de       	rcall	.-610    	; 0xc10 <floatAround>
     e72:	80 93 98 3a 	sts	0x3A98, r24	; 0x803a98 <auVolume>
                auBuffer[0] = floatAround(auBuffer[0], 2, 0x70, 0x90);
     e76:	c5 e0       	ldi	r28, 0x05	; 5
     e78:	d8 e3       	ldi	r29, 0x38	; 56
     e7a:	20 e9       	ldi	r18, 0x90	; 144
     e7c:	40 e7       	ldi	r20, 0x70	; 112
     e7e:	62 e0       	ldi	r22, 0x02	; 2
     e80:	88 81       	ld	r24, Y
     e82:	c6 de       	rcall	.-628    	; 0xc10 <floatAround>
     e84:	88 83       	st	Y, r24
                auBuffer[3] = 0xFF-auBuffer[0];  //Inverse value of wind[0] produces a whistle
     e86:	80 95       	com	r24
     e88:	8b 83       	std	Y+3, r24	; 0x03
            }
        }

        //Footsteps
        if ((effect&0xE0)==128){
     e8a:	80 91 93 38 	lds	r24, 0x3893	; 0x803893 <effect>
     e8e:	90 91 94 38 	lds	r25, 0x3894	; 0x803894 <effect+0x1>

        }

        //Knocking
        if ((effect&0xE0)==160){
     e92:	80 91 93 38 	lds	r24, 0x3893	; 0x803893 <effect>
     e96:	90 91 94 38 	lds	r25, 0x3894	; 0x803894 <effect+0x1>

        }

        //Scream
        if ((effect&0xE0)==192){
     e9a:	80 91 93 38 	lds	r24, 0x3893	; 0x803893 <effect>
     e9e:	90 91 94 38 	lds	r25, 0x3894	; 0x803894 <effect+0x1>

        //Rain storm with whistling wind
        else {
        }
    }
     ea2:	df 91       	pop	r29
     ea4:	cf 91       	pop	r28
     ea6:	1f 91       	pop	r17
     ea8:	0f 91       	pop	r16
     eaa:	08 95       	ret

00000eac <BastetDictates>:

// Main game loop
uint8_t BastetDictates(){
  
    return 0;
}
     eac:	80 e0       	ldi	r24, 0x00	; 0
     eae:	08 95       	ret

00000eb0 <DecryptData>:
    uint8_t clearBit = num & STATUS_BITS;
    num &= (STATUS_BITS-1);
    if (clearBit) {
        WriteStatusBit(num, 0);
    } else {
        WriteStatusBit(num, 1);
     eb0:	cf 93       	push	r28
     eb2:	df 93       	push	r29
     eb4:	dc 01       	movw	r26, r24
     eb6:	e9 01       	movw	r28, r18
     eb8:	66 23       	and	r22, r22
     eba:	a9 f0       	breq	.+42     	; 0xee6 <DecryptData+0x36>
     ebc:	50 e0       	ldi	r21, 0x00	; 0
     ebe:	44 0f       	add	r20, r20
     ec0:	55 1f       	adc	r21, r21
     ec2:	44 0f       	add	r20, r20
     ec4:	55 1f       	adc	r21, r21
     ec6:	44 0f       	add	r20, r20
     ec8:	55 1f       	adc	r21, r21
     eca:	44 5f       	subi	r20, 0xF4	; 244
     ecc:	54 46       	sbci	r21, 0x64	; 100
     ece:	fd 01       	movw	r30, r26
     ed0:	e7 70       	andi	r30, 0x07	; 7
     ed2:	ff 27       	eor	r31, r31
     ed4:	e4 0f       	add	r30, r20
     ed6:	f5 1f       	adc	r31, r21
     ed8:	88 81       	ld	r24, Y
     eda:	90 81       	ld	r25, Z
     edc:	98 27       	eor	r25, r24
     ede:	99 93       	st	Y+, r25
     ee0:	11 96       	adiw	r26, 0x01	; 1
     ee2:	61 50       	subi	r22, 0x01	; 1
     ee4:	a1 f7       	brne	.-24     	; 0xece <DecryptData+0x1e>
     ee6:	df 91       	pop	r29
     ee8:	cf 91       	pop	r28
     eea:	08 95       	ret

00000eec <ExtEERead>:
     eec:	af 92       	push	r10
     eee:	bf 92       	push	r11
     ef0:	cf 92       	push	r12
     ef2:	df 92       	push	r13
     ef4:	ef 92       	push	r14
     ef6:	ff 92       	push	r15
     ef8:	0f 93       	push	r16
     efa:	1f 93       	push	r17
     efc:	cf 93       	push	r28
     efe:	df 93       	push	r29
     f00:	00 d0       	rcall	.+0      	; 0xf02 <ExtEERead+0x16>
     f02:	cd b7       	in	r28, 0x3d	; 61
     f04:	de b7       	in	r29, 0x3e	; 62
     f06:	d6 2e       	mov	r13, r22
     f08:	c4 2e       	mov	r12, r20
     f0a:	59 01       	movw	r10, r18
     f0c:	7c 01       	movw	r14, r24
     f0e:	e8 94       	clt
     f10:	f7 f8       	bld	r15, 7
     f12:	f9 82       	std	Y+1, r15	; 0x01
     f14:	ea 82       	std	Y+2, r14	; 0x02
     f16:	06 2f       	mov	r16, r22
     f18:	42 e0       	ldi	r20, 0x02	; 2
     f1a:	be 01       	movw	r22, r28
     f1c:	6f 5f       	subi	r22, 0xFF	; 255
     f1e:	7f 4f       	sbci	r23, 0xFF	; 255
     f20:	80 e5       	ldi	r24, 0x50	; 80
     f22:	c0 d9       	rcall	.-3200   	; 0x2a4 <I2C_read_bytes>
     f24:	18 2f       	mov	r17, r24
     f26:	81 11       	cpse	r24, r1
     f28:	05 c0       	rjmp	.+10     	; 0xf34 <ExtEERead+0x48>
     f2a:	95 01       	movw	r18, r10
     f2c:	4c 2d       	mov	r20, r12
     f2e:	6d 2d       	mov	r22, r13
     f30:	c7 01       	movw	r24, r14
     f32:	be df       	rcall	.-132    	; 0xeb0 <DecryptData>
     f34:	81 2f       	mov	r24, r17
     f36:	0f 90       	pop	r0
     f38:	0f 90       	pop	r0
     f3a:	df 91       	pop	r29
     f3c:	cf 91       	pop	r28
     f3e:	1f 91       	pop	r17
     f40:	0f 91       	pop	r16
     f42:	ff 90       	pop	r15
     f44:	ef 90       	pop	r14
     f46:	df 90       	pop	r13
     f48:	cf 90       	pop	r12
     f4a:	bf 90       	pop	r11
     f4c:	af 90       	pop	r10
     f4e:	08 95       	ret

00000f50 <ClearTxAfter>:
     f50:	8f 5f       	subi	r24, 0xFF	; 255
     f52:	88 30       	cpi	r24, 0x08	; 8
     f54:	40 f4       	brcc	.+16     	; 0xf66 <ClearTxAfter+0x16>
     f56:	e8 2f       	mov	r30, r24
     f58:	f0 e0       	ldi	r31, 0x00	; 0
     f5a:	e3 5d       	subi	r30, 0xD3	; 211
     f5c:	f5 4c       	sbci	r31, 0xC5	; 197
     f5e:	10 82       	st	Z, r1
     f60:	8f 5f       	subi	r24, 0xFF	; 255
     f62:	88 30       	cpi	r24, 0x08	; 8
     f64:	c1 f7       	brne	.-16     	; 0xf56 <ClearTxAfter+0x6>
     f66:	08 95       	ret

00000f68 <StartsWith>:
     f68:	fc 01       	movw	r30, r24
     f6a:	90 81       	ld	r25, Z
     f6c:	91 11       	cpse	r25, r1
     f6e:	07 c0       	rjmp	.+14     	; 0xf7e <StartsWith+0x16>
     f70:	81 e0       	ldi	r24, 0x01	; 1
     f72:	08 95       	ret
     f74:	81 e0       	ldi	r24, 0x01	; 1
     f76:	92 17       	cp	r25, r18
     f78:	39 f0       	breq	.+14     	; 0xf88 <StartsWith+0x20>
     f7a:	80 e0       	ldi	r24, 0x00	; 0
     f7c:	08 95       	ret
     f7e:	fb 01       	movw	r30, r22
     f80:	20 81       	ld	r18, Z
     f82:	21 11       	cpse	r18, r1
     f84:	f7 cf       	rjmp	.-18     	; 0xf74 <StartsWith+0xc>
     f86:	81 e0       	ldi	r24, 0x01	; 1
     f88:	08 95       	ret

00000f8a <PrepareSending>:
     f8a:	cf 93       	push	r28
     f8c:	df 93       	push	r29
     f8e:	fb 01       	movw	r30, r22
     f90:	30 97       	sbiw	r30, 0x00	; 0
     f92:	81 f4       	brne	.+32     	; 0xfb4 <PrepareSending+0x2a>
     f94:	24 c0       	rjmp	.+72     	; 0xfde <PrepareSending+0x54>
     f96:	89 93       	st	Y+, r24
     f98:	99 93       	st	Y+, r25
     f9a:	2d 93       	st	X+, r18
     f9c:	81 50       	subi	r24, 0x01	; 1
     f9e:	9f 4f       	sbci	r25, 0xFF	; 255
     fa0:	ef 5f       	subi	r30, 0xFF	; 255
     fa2:	f1 09       	sbc	r31, r1
     fa4:	5f 5f       	subi	r21, 0xFF	; 255
     fa6:	57 30       	cpi	r21, 0x07	; 7
     fa8:	29 f1       	breq	.+74     	; 0xff4 <PrepareSending+0x6a>
     faa:	ef 3f       	cpi	r30, 0xFF	; 255
     fac:	f1 05       	cpc	r31, r1
     fae:	09 f0       	breq	.+2      	; 0xfb2 <PrepareSending+0x28>
     fb0:	90 f7       	brcc	.-28     	; 0xf96 <PrepareSending+0xc>
     fb2:	23 c0       	rjmp	.+70     	; 0xffa <PrepareSending+0x70>
     fb4:	6f 3f       	cpi	r22, 0xFF	; 255
     fb6:	71 05       	cpc	r23, r1
     fb8:	f9 f0       	breq	.+62     	; 0xff8 <PrepareSending+0x6e>
     fba:	f0 f0       	brcs	.+60     	; 0xff8 <PrepareSending+0x6e>
     fbc:	80 93 35 3a 	sts	0x3A35, r24	; 0x803a35 <txAddrList>
     fc0:	90 93 36 3a 	sts	0x3A36, r25	; 0x803a36 <txAddrList+0x1>
     fc4:	2f ef       	ldi	r18, 0xFF	; 255
     fc6:	20 93 2d 3a 	sts	0x3A2D, r18	; 0x803a2d <txStrLen>
     fca:	81 50       	subi	r24, 0x01	; 1
     fcc:	9f 4f       	sbci	r25, 0xFF	; 255
     fce:	ef 5f       	subi	r30, 0xFF	; 255
     fd0:	f1 09       	sbc	r31, r1
     fd2:	c7 e3       	ldi	r28, 0x37	; 55
     fd4:	da e3       	ldi	r29, 0x3A	; 58
     fd6:	ae e2       	ldi	r26, 0x2E	; 46
     fd8:	ba e3       	ldi	r27, 0x3A	; 58
     fda:	51 e0       	ldi	r21, 0x01	; 1
     fdc:	e6 cf       	rjmp	.-52     	; 0xfaa <PrepareSending+0x20>
     fde:	10 92 35 3a 	sts	0x3A35, r1	; 0x803a35 <txAddrList>
     fe2:	10 92 36 3a 	sts	0x3A36, r1	; 0x803a36 <txAddrList+0x1>
     fe6:	50 e0       	ldi	r21, 0x00	; 0
     fe8:	85 2f       	mov	r24, r21
     fea:	b2 df       	rcall	.-156    	; 0xf50 <ClearTxAfter>
     fec:	10 92 2c 3a 	sts	0x3A2C, r1	; 0x803a2c <txAddrNow>
     ff0:	80 e0       	ldi	r24, 0x00	; 0
     ff2:	24 c0       	rjmp	.+72     	; 0x103c <PrepareSending+0xb2>
     ff4:	81 e0       	ldi	r24, 0x01	; 1
     ff6:	22 c0       	rjmp	.+68     	; 0x103c <PrepareSending+0xb2>
     ff8:	50 e0       	ldi	r21, 0x00	; 0
     ffa:	25 2f       	mov	r18, r21
     ffc:	30 e0       	ldi	r19, 0x00	; 0
     ffe:	d9 01       	movw	r26, r18
    1000:	aa 0f       	add	r26, r26
    1002:	bb 1f       	adc	r27, r27
    1004:	ab 5c       	subi	r26, 0xCB	; 203
    1006:	b5 4c       	sbci	r27, 0xC5	; 197
    1008:	8d 93       	st	X+, r24
    100a:	9c 93       	st	X, r25
    100c:	e9 01       	movw	r28, r18
    100e:	c3 5d       	subi	r28, 0xD3	; 211
    1010:	d5 4c       	sbci	r29, 0xC5	; 197
    1012:	9f 01       	movw	r18, r30
    1014:	a1 e8       	ldi	r26, 0x81	; 129
    1016:	b0 e8       	ldi	r27, 0x80	; 128
    1018:	51 d5       	rcall	.+2722   	; 0x1abc <__umulhisi3>
    101a:	88 0f       	add	r24, r24
    101c:	89 2f       	mov	r24, r25
    101e:	88 1f       	adc	r24, r24
    1020:	99 0b       	sbc	r25, r25
    1022:	91 95       	neg	r25
    1024:	6f ef       	ldi	r22, 0xFF	; 255
    1026:	68 9f       	mul	r22, r24
    1028:	90 01       	movw	r18, r0
    102a:	69 9f       	mul	r22, r25
    102c:	30 0d       	add	r19, r0
    102e:	11 24       	eor	r1, r1
    1030:	e2 1b       	sub	r30, r18
    1032:	f3 0b       	sbc	r31, r19
    1034:	e8 83       	st	Y, r30
    1036:	40 93 2b 3a 	sts	0x3A2B, r20	; 0x803a2b <txTypeNow>
    103a:	d6 cf       	rjmp	.-84     	; 0xfe8 <PrepareSending+0x5e>
    103c:	df 91       	pop	r29
    103e:	cf 91       	pop	r28
    1040:	08 95       	ret

00001042 <SetStandardResponse>:
    1042:	e3 e0       	ldi	r30, 0x03	; 3
    1044:	f9 e3       	ldi	r31, 0x39	; 57
    1046:	6a e8       	ldi	r22, 0x8A	; 138
    1048:	7a e7       	ldi	r23, 0x7A	; 122
    104a:	60 83       	st	Z, r22
    104c:	71 83       	std	Z+1, r23	; 0x01
    104e:	81 e0       	ldi	r24, 0x01	; 1
    1050:	90 e0       	ldi	r25, 0x00	; 0
    1052:	80 93 43 39 	sts	0x3943, r24	; 0x803943 <reactStr+0x40>
    1056:	90 93 44 39 	sts	0x3944, r25	; 0x803944 <reactStr+0x41>
    105a:	80 93 83 39 	sts	0x3983, r24	; 0x803983 <reactStr+0x80>
    105e:	90 93 84 39 	sts	0x3984, r25	; 0x803984 <reactStr+0x81>
    1062:	28 e8       	ldi	r18, 0x88	; 136
    1064:	3a e7       	ldi	r19, 0x7A	; 122
    1066:	22 83       	std	Z+2, r18	; 0x02
    1068:	33 83       	std	Z+3, r19	; 0x03
    106a:	22 e0       	ldi	r18, 0x02	; 2
    106c:	30 e0       	ldi	r19, 0x00	; 0
    106e:	20 93 45 39 	sts	0x3945, r18	; 0x803945 <reactStr+0x42>
    1072:	30 93 46 39 	sts	0x3946, r19	; 0x803946 <reactStr+0x43>
    1076:	80 93 85 39 	sts	0x3985, r24	; 0x803985 <reactStr+0x82>
    107a:	90 93 86 39 	sts	0x3986, r25	; 0x803986 <reactStr+0x83>
    107e:	41 e6       	ldi	r20, 0x61	; 97
    1080:	55 e7       	ldi	r21, 0x75	; 117
    1082:	44 83       	std	Z+4, r20	; 0x04
    1084:	55 83       	std	Z+5, r21	; 0x05
    1086:	80 93 47 39 	sts	0x3947, r24	; 0x803947 <reactStr+0x44>
    108a:	90 93 48 39 	sts	0x3948, r25	; 0x803948 <reactStr+0x45>
    108e:	80 93 87 39 	sts	0x3987, r24	; 0x803987 <reactStr+0x84>
    1092:	90 93 88 39 	sts	0x3988, r25	; 0x803988 <reactStr+0x85>
    1096:	60 87       	std	Z+8, r22	; 0x08
    1098:	71 87       	std	Z+9, r23	; 0x09
    109a:	80 93 4b 39 	sts	0x394B, r24	; 0x80394b <reactStr+0x48>
    109e:	90 93 4c 39 	sts	0x394C, r25	; 0x80394c <reactStr+0x49>
    10a2:	80 93 8b 39 	sts	0x398B, r24	; 0x80398b <reactStr+0x88>
    10a6:	90 93 8c 39 	sts	0x398C, r25	; 0x80398c <reactStr+0x89>
    10aa:	6b e8       	ldi	r22, 0x8B	; 139
    10ac:	7a e7       	ldi	r23, 0x7A	; 122
    10ae:	62 87       	std	Z+10, r22	; 0x0a
    10b0:	73 87       	std	Z+11, r23	; 0x0b
    10b2:	6b e0       	ldi	r22, 0x0B	; 11
    10b4:	70 e0       	ldi	r23, 0x00	; 0
    10b6:	60 93 4d 39 	sts	0x394D, r22	; 0x80394d <reactStr+0x4a>
    10ba:	70 93 4e 39 	sts	0x394E, r23	; 0x80394e <reactStr+0x4b>
    10be:	80 93 8d 39 	sts	0x398D, r24	; 0x80398d <reactStr+0x8a>
    10c2:	90 93 8e 39 	sts	0x398E, r25	; 0x80398e <reactStr+0x8b>
    10c6:	44 87       	std	Z+12, r20	; 0x0c
    10c8:	55 87       	std	Z+13, r21	; 0x0d
    10ca:	20 93 4f 39 	sts	0x394F, r18	; 0x80394f <reactStr+0x4c>
    10ce:	30 93 50 39 	sts	0x3950, r19	; 0x803950 <reactStr+0x4d>
    10d2:	80 93 8f 39 	sts	0x398F, r24	; 0x80398f <reactStr+0x8c>
    10d6:	90 93 90 39 	sts	0x3990, r25	; 0x803990 <reactStr+0x8d>
    10da:	08 95       	ret

000010dc <PopulateObject>:
    10dc:	6f 92       	push	r6
    10de:	7f 92       	push	r7
    10e0:	8f 92       	push	r8
    10e2:	9f 92       	push	r9
    10e4:	af 92       	push	r10
    10e6:	bf 92       	push	r11
    10e8:	cf 92       	push	r12
    10ea:	df 92       	push	r13
    10ec:	ef 92       	push	r14
    10ee:	ff 92       	push	r15
    10f0:	0f 93       	push	r16
    10f2:	1f 93       	push	r17
    10f4:	cf 93       	push	r28
    10f6:	df 93       	push	r29
    10f8:	cd b7       	in	r28, 0x3d	; 61
    10fa:	de b7       	in	r29, 0x3e	; 62
    10fc:	2c 97       	sbiw	r28, 0x0c	; 12
    10fe:	cd bf       	out	0x3d, r28	; 61
    1100:	de bf       	out	0x3e, r29	; 62
    1102:	8c 01       	movw	r16, r24
    1104:	5b 01       	movw	r10, r22
    1106:	9e 01       	movw	r18, r28
    1108:	2f 5f       	subi	r18, 0xFF	; 255
    110a:	3f 4f       	sbci	r19, 0xFF	; 255
    110c:	40 e0       	ldi	r20, 0x00	; 0
    110e:	6c e0       	ldi	r22, 0x0C	; 12
    1110:	80 96       	adiw	r24, 0x20	; 32
    1112:	ec de       	rcall	.-552    	; 0xeec <ExtEERead>
    1114:	89 81       	ldd	r24, Y+1	; 0x01
    1116:	90 e0       	ldi	r25, 0x00	; 0
    1118:	98 2f       	mov	r25, r24
    111a:	88 27       	eor	r24, r24
    111c:	2a 81       	ldd	r18, Y+2	; 0x02
    111e:	82 2b       	or	r24, r18
    1120:	80 96       	adiw	r24, 0x20	; 32
    1122:	f5 01       	movw	r30, r10
    1124:	80 83       	st	Z, r24
    1126:	91 83       	std	Z+1, r25	; 0x01
    1128:	8b 81       	ldd	r24, Y+3	; 0x03
    112a:	90 e0       	ldi	r25, 0x00	; 0
    112c:	98 2f       	mov	r25, r24
    112e:	88 27       	eor	r24, r24
    1130:	2c 81       	ldd	r18, Y+4	; 0x04
    1132:	82 2b       	or	r24, r18
    1134:	80 96       	adiw	r24, 0x20	; 32
    1136:	82 83       	std	Z+2, r24	; 0x02
    1138:	93 83       	std	Z+3, r25	; 0x03
    113a:	fe 01       	movw	r30, r28
    113c:	35 96       	adiw	r30, 0x05	; 5
    113e:	d5 01       	movw	r26, r10
    1140:	14 96       	adiw	r26, 0x04	; 4
    1142:	9e 01       	movw	r18, r28
    1144:	23 5f       	subi	r18, 0xF3	; 243
    1146:	3f 4f       	sbci	r19, 0xFF	; 255
    1148:	81 91       	ld	r24, Z+
    114a:	8d 93       	st	X+, r24
    114c:	e2 17       	cp	r30, r18
    114e:	f3 07       	cpc	r31, r19
    1150:	d9 f7       	brne	.-10     	; 0x1148 <PopulateObject+0x6c>
    1152:	38 01       	movw	r6, r16
    1154:	fc e2       	ldi	r31, 0x2C	; 44
    1156:	6f 0e       	add	r6, r31
    1158:	71 1c       	adc	r7, r1
    115a:	03 5d       	subi	r16, 0xD3	; 211
    115c:	1f 4f       	sbci	r17, 0xFF	; 255
    115e:	f5 01       	movw	r30, r10
    1160:	04 87       	std	Z+12, r16	; 0x0c
    1162:	15 87       	std	Z+13, r17	; 0x0d
    1164:	65 01       	movw	r12, r10
    1166:	fe e0       	ldi	r31, 0x0E	; 14
    1168:	cf 0e       	add	r12, r31
    116a:	d1 1c       	adc	r13, r1
    116c:	45 01       	movw	r8, r10
    116e:	8a e1       	ldi	r24, 0x1A	; 26
    1170:	88 0e       	add	r8, r24
    1172:	91 1c       	adc	r9, r1
    1174:	73 01       	movw	r14, r6
    1176:	02 c0       	rjmp	.+4      	; 0x117c <PopulateObject+0xa0>
    1178:	78 01       	movw	r14, r16
    117a:	38 01       	movw	r6, r16
    117c:	83 01       	movw	r16, r6
    117e:	9e 01       	movw	r18, r28
    1180:	2f 5f       	subi	r18, 0xFF	; 255
    1182:	3f 4f       	sbci	r19, 0xFF	; 255
    1184:	40 e0       	ldi	r20, 0x00	; 0
    1186:	61 e0       	ldi	r22, 0x01	; 1
    1188:	c8 01       	movw	r24, r16
    118a:	b0 de       	rcall	.-672    	; 0xeec <ExtEERead>
    118c:	89 81       	ldd	r24, Y+1	; 0x01
    118e:	98 01       	movw	r18, r16
    1190:	28 0f       	add	r18, r24
    1192:	31 1d       	adc	r19, r1
    1194:	89 01       	movw	r16, r18
    1196:	0f 5f       	subi	r16, 0xFF	; 255
    1198:	1f 4f       	sbci	r17, 0xFF	; 255
    119a:	12 f0       	brmi	.+4      	; 0x11a0 <PopulateObject+0xc4>
    119c:	8f 3f       	cpi	r24, 0xFF	; 255
    119e:	79 f3       	breq	.-34     	; 0x117e <PopulateObject+0xa2>
    11a0:	e0 94       	com	r14
    11a2:	f0 94       	com	r15
    11a4:	e0 0e       	add	r14, r16
    11a6:	f1 1e       	adc	r15, r17
    11a8:	e8 94       	clt
    11aa:	f7 f8       	bld	r15, 7
    11ac:	f6 01       	movw	r30, r12
    11ae:	e4 86       	std	Z+12, r14	; 0x0c
    11b0:	f5 86       	std	Z+13, r15	; 0x0d
    11b2:	3f 77       	andi	r19, 0x7F	; 127
    11b4:	21 93       	st	Z+, r18
    11b6:	31 93       	st	Z+, r19
    11b8:	6f 01       	movw	r12, r30
    11ba:	e8 15       	cp	r30, r8
    11bc:	f9 05       	cpc	r31, r9
    11be:	e1 f6       	brne	.-72     	; 0x1178 <PopulateObject+0x9c>
    11c0:	06 19       	sub	r16, r6
    11c2:	17 09       	sbc	r17, r7
    11c4:	1f 77       	andi	r17, 0x7F	; 127
    11c6:	f5 01       	movw	r30, r10
    11c8:	06 a3       	std	Z+38, r16	; 0x26
    11ca:	17 a3       	std	Z+39, r17	; 0x27
    11cc:	2c 96       	adiw	r28, 0x0c	; 12
    11ce:	cd bf       	out	0x3d, r28	; 61
    11d0:	de bf       	out	0x3e, r29	; 62
    11d2:	df 91       	pop	r29
    11d4:	cf 91       	pop	r28
    11d6:	1f 91       	pop	r17
    11d8:	0f 91       	pop	r16
    11da:	ff 90       	pop	r15
    11dc:	ef 90       	pop	r14
    11de:	df 90       	pop	r13
    11e0:	cf 90       	pop	r12
    11e2:	bf 90       	pop	r11
    11e4:	af 90       	pop	r10
    11e6:	9f 90       	pop	r9
    11e8:	8f 90       	pop	r8
    11ea:	7f 90       	pop	r7
    11ec:	6f 90       	pop	r6
    11ee:	08 95       	ret

000011f0 <GetState>:
    }
}

//Returns the state of the bit on position "num"
uint8_t GetState(uint8_t num){
    if ((num)&&(num<STATUS_BITS)){
    11f0:	18 16       	cp	r1, r24
    11f2:	14 f4       	brge	.+4      	; 0x11f8 <GetState+0x8>
        return ReadStatusBit(num);
    11f4:	6b cd       	rjmp	.-1322   	; 0xccc <ReadStatusBit>
    11f6:	08 95       	ret
    }
    return 1;
    11f8:	81 e0       	ldi	r24, 0x01	; 1
}
    11fa:	08 95       	ret

000011fc <CheckState>:

//Checks if state of bit BBBBbbb matches with v (inverted) bit
uint8_t CheckState(uint8_t num){
    11fc:	cf 93       	push	r28
    11fe:	c8 2f       	mov	r28, r24
    return (GetState(num&(STATUS_BITS-1)) == (1-(num&STATUS_BITS))); 
    1200:	8f 77       	andi	r24, 0x7F	; 127
    1202:	f6 df       	rcall	.-20     	; 0x11f0 <GetState>
    1204:	c0 78       	andi	r28, 0x80	; 128
    1206:	41 e0       	ldi	r20, 0x01	; 1
    1208:	50 e0       	ldi	r21, 0x00	; 0
    120a:	4c 1b       	sub	r20, r28
    120c:	51 09       	sbc	r21, r1
    120e:	28 2f       	mov	r18, r24
    1210:	30 e0       	ldi	r19, 0x00	; 0
    1212:	81 e0       	ldi	r24, 0x01	; 1
    1214:	42 17       	cp	r20, r18
    1216:	53 07       	cpc	r21, r19
    1218:	09 f0       	breq	.+2      	; 0x121c <CheckState+0x20>
    121a:	80 e0       	ldi	r24, 0x00	; 0
}
    121c:	cf 91       	pop	r28
    121e:	08 95       	ret

00001220 <CheckLetter>:

//
uint8_t CheckLetter(uint16_t child, uint8_t letter){
    1220:	cf 92       	push	r12
    1222:	df 92       	push	r13
    1224:	ef 92       	push	r14
    1226:	ff 92       	push	r15
    1228:	0f 93       	push	r16
    122a:	1f 93       	push	r17
    122c:	cf 93       	push	r28
    122e:	df 93       	push	r29
    1230:	cd b7       	in	r28, 0x3d	; 61
    1232:	de b7       	in	r29, 0x3e	; 62
    1234:	a0 97       	sbiw	r28, 0x20	; 32
    1236:	cd bf       	out	0x3d, r28	; 61
    1238:	de bf       	out	0x3e, r29	; 62
    123a:	c6 2e       	mov	r12, r22
    
    uint8_t found = 0;
    uint8_t data[32];

    child += L_BOILER;
    123c:	7c 01       	movw	r14, r24
    123e:	20 e2       	ldi	r18, 0x20	; 32
    1240:	e2 0e       	add	r14, r18
    1242:	f1 1c       	adc	r15, r1
    ExtEERead(child+OFF_STRINGFLDS, 1, GAME, &data[0]);
    1244:	9e 01       	movw	r18, r28
    1246:	2f 5f       	subi	r18, 0xFF	; 255
    1248:	3f 4f       	sbci	r19, 0xFF	; 255
    124a:	40 e0       	ldi	r20, 0x00	; 0
    124c:	61 e0       	ldi	r22, 0x01	; 1
    124e:	8c 96       	adiw	r24, 0x2c	; 44
    1250:	4d de       	rcall	.-870    	; 0xeec <ExtEERead>
    uint8_t x = data[0];
    1252:	09 81       	ldd	r16, Y+1	; 0x01

    while (x){
    1254:	00 23       	and	r16, r16
    1256:	59 f1       	breq	.+86     	; 0x12ae <CheckLetter+0x8e>
    1258:	d1 2c       	mov	r13, r1
        uint8_t max = (x>32)?32:x;
    125a:	10 2f       	mov	r17, r16
    125c:	01 32       	cpi	r16, 0x21	; 33
    125e:	08 f0       	brcs	.+2      	; 0x1262 <CheckLetter+0x42>
    1260:	10 e2       	ldi	r17, 0x20	; 32
        ExtEERead(child+OFF_STRINGFLDS+1, max, GAME, &data[0]);
    1262:	9e 01       	movw	r18, r28
    1264:	2f 5f       	subi	r18, 0xFF	; 255
    1266:	3f 4f       	sbci	r19, 0xFF	; 255
    1268:	40 e0       	ldi	r20, 0x00	; 0
    126a:	61 2f       	mov	r22, r17
    126c:	c7 01       	movw	r24, r14
    126e:	0d 96       	adiw	r24, 0x0d	; 13
    1270:	3d de       	rcall	.-902    	; 0xeec <ExtEERead>
        for (uint8_t y=0; y<max; ++y){
    1272:	11 23       	and	r17, r17
    1274:	b1 f0       	breq	.+44     	; 0x12a2 <CheckLetter+0x82>
            if (found){
    1276:	dd 20       	and	r13, r13
    1278:	59 f0       	breq	.+22     	; 0x1290 <CheckLetter+0x70>
    uint8_t x = data[0];

    while (x){
        uint8_t max = (x>32)?32:x;
        ExtEERead(child+OFF_STRINGFLDS+1, max, GAME, &data[0]);
        for (uint8_t y=0; y<max; ++y){
    127a:	80 e0       	ldi	r24, 0x00	; 0
            if (found){
                if ((data[y]|0x20) == letter) return 1; else return 0;
    127c:	fe 01       	movw	r30, r28
    127e:	e8 0f       	add	r30, r24
    1280:	f1 1d       	adc	r31, r1
    1282:	91 81       	ldd	r25, Z+1	; 0x01
    1284:	90 62       	ori	r25, 0x20	; 32
    1286:	81 e0       	ldi	r24, 0x01	; 1
    1288:	9c 15       	cp	r25, r12
    128a:	c9 f0       	breq	.+50     	; 0x12be <CheckLetter+0x9e>
    128c:	80 e0       	ldi	r24, 0x00	; 0
    128e:	17 c0       	rjmp	.+46     	; 0x12be <CheckLetter+0x9e>
    1290:	fe 01       	movw	r30, r28
    1292:	31 96       	adiw	r30, 0x01	; 1

    while (x){
        uint8_t max = (x>32)?32:x;
        ExtEERead(child+OFF_STRINGFLDS+1, max, GAME, &data[0]);
        for (uint8_t y=0; y<max; ++y){
            if (found){
    1294:	80 e0       	ldi	r24, 0x00	; 0
                if ((data[y]|0x20) == letter) return 1; else return 0;
            }
            if (data[y] == '[') found = 1;
    1296:	91 91       	ld	r25, Z+
    1298:	9b 35       	cpi	r25, 0x5B	; 91
    129a:	59 f0       	breq	.+22     	; 0x12b2 <CheckLetter+0x92>
    uint8_t x = data[0];

    while (x){
        uint8_t max = (x>32)?32:x;
        ExtEERead(child+OFF_STRINGFLDS+1, max, GAME, &data[0]);
        for (uint8_t y=0; y<max; ++y){
    129c:	8f 5f       	subi	r24, 0xFF	; 255
    129e:	18 13       	cpse	r17, r24
    12a0:	fa cf       	rjmp	.-12     	; 0x1296 <CheckLetter+0x76>
            if (found){
                if ((data[y]|0x20) == letter) return 1; else return 0;
            }
            if (data[y] == '[') found = 1;
        }
        child += max;
    12a2:	e1 0e       	add	r14, r17
    12a4:	f1 1c       	adc	r15, r1
        x -= max;
    12a6:	01 1b       	sub	r16, r17

    child += L_BOILER;
    ExtEERead(child+OFF_STRINGFLDS, 1, GAME, &data[0]);
    uint8_t x = data[0];

    while (x){
    12a8:	c1 f6       	brne	.-80     	; 0x125a <CheckLetter+0x3a>
            if (data[y] == '[') found = 1;
        }
        child += max;
        x -= max;
    }
    return 0;
    12aa:	80 e0       	ldi	r24, 0x00	; 0
    12ac:	08 c0       	rjmp	.+16     	; 0x12be <CheckLetter+0x9e>
    12ae:	80 e0       	ldi	r24, 0x00	; 0
    12b0:	06 c0       	rjmp	.+12     	; 0x12be <CheckLetter+0x9e>
    uint8_t x = data[0];

    while (x){
        uint8_t max = (x>32)?32:x;
        ExtEERead(child+OFF_STRINGFLDS+1, max, GAME, &data[0]);
        for (uint8_t y=0; y<max; ++y){
    12b2:	8f 5f       	subi	r24, 0xFF	; 255
    12b4:	81 17       	cp	r24, r17
    12b6:	10 f3       	brcs	.-60     	; 0x127c <CheckLetter+0x5c>
            if (found){
                if ((data[y]|0x20) == letter) return 1; else return 0;
            }
            if (data[y] == '[') found = 1;
    12b8:	dd 24       	eor	r13, r13
    12ba:	d3 94       	inc	r13
    12bc:	f2 cf       	rjmp	.-28     	; 0x12a2 <CheckLetter+0x82>
        }
        child += max;
        x -= max;
    }
    return 0;
}
    12be:	a0 96       	adiw	r28, 0x20	; 32
    12c0:	cd bf       	out	0x3d, r28	; 61
    12c2:	de bf       	out	0x3e, r29	; 62
    12c4:	df 91       	pop	r29
    12c6:	cf 91       	pop	r28
    12c8:	1f 91       	pop	r17
    12ca:	0f 91       	pop	r16
    12cc:	ff 90       	pop	r15
    12ce:	ef 90       	pop	r14
    12d0:	df 90       	pop	r13
    12d2:	cf 90       	pop	r12
    12d4:	08 95       	ret

000012d6 <FindChild>:

//Returns the child's address if the child is visible and the search letter matches
uint16_t FindChild(uint16_t parent, uint8_t letter){
    12d6:	df 92       	push	r13
    12d8:	ef 92       	push	r14
    12da:	ff 92       	push	r15
    12dc:	0f 93       	push	r16
    12de:	1f 93       	push	r17
    12e0:	cf 93       	push	r28
    12e2:	df 93       	push	r29
    12e4:	00 d0       	rcall	.+0      	; 0x12e6 <FindChild+0x10>
    12e6:	00 d0       	rcall	.+0      	; 0x12e8 <FindChild+0x12>
    12e8:	cd b7       	in	r28, 0x3d	; 61
    12ea:	de b7       	in	r29, 0x3e	; 62
    12ec:	d6 2e       	mov	r13, r22
    
    uint16_t child = parent;
    uint8_t data[4];

    ExtEERead(child+L_BOILER, 4, GAME, &data[0]);
    12ee:	9e 01       	movw	r18, r28
    12f0:	2f 5f       	subi	r18, 0xFF	; 255
    12f2:	3f 4f       	sbci	r19, 0xFF	; 255
    12f4:	40 e0       	ldi	r20, 0x00	; 0
    12f6:	64 e0       	ldi	r22, 0x04	; 4
    12f8:	80 96       	adiw	r24, 0x20	; 32
    12fa:	f8 dd       	rcall	.-1040   	; 0xeec <ExtEERead>
    parent = (data[0]<<8|data[1]);    //Next object on parent level
    12fc:	e9 80       	ldd	r14, Y+1	; 0x01
    12fe:	f1 2c       	mov	r15, r1
    1300:	fe 2c       	mov	r15, r14
    1302:	ee 24       	eor	r14, r14
    1304:	8a 81       	ldd	r24, Y+2	; 0x02
    1306:	e8 2a       	or	r14, r24
    child =  (data[2]<<8|data[3]);    //First object on child level
    1308:	0b 81       	ldd	r16, Y+3	; 0x03
    130a:	10 e0       	ldi	r17, 0x00	; 0
    130c:	10 2f       	mov	r17, r16
    130e:	00 27       	eor	r16, r16
    1310:	8c 81       	ldd	r24, Y+4	; 0x04
    1312:	08 2b       	or	r16, r24

    //As long as the child is within the parent's range
    while (parent>child){
    1314:	0e 15       	cp	r16, r14
    1316:	1f 05       	cpc	r17, r15
    1318:	28 f5       	brcc	.+74     	; 0x1364 <FindChild+0x8e>

        //Find out if the found child is visible and check letter
        ExtEERead(child+OFF_BYTEFLDS+VISIBLE_ACL+L_BOILER, 1, GAME, &data[0]);
    131a:	9e 01       	movw	r18, r28
    131c:	2f 5f       	subi	r18, 0xFF	; 255
    131e:	3f 4f       	sbci	r19, 0xFF	; 255
    1320:	40 e0       	ldi	r20, 0x00	; 0
    1322:	61 e0       	ldi	r22, 0x01	; 1
    1324:	c8 01       	movw	r24, r16
    1326:	85 96       	adiw	r24, 0x25	; 37
    1328:	e1 dd       	rcall	.-1086   	; 0xeec <ExtEERead>
        if (CheckState(data[0])) {
    132a:	89 81       	ldd	r24, Y+1	; 0x01
    132c:	67 df       	rcall	.-306    	; 0x11fc <CheckState>
    132e:	88 23       	and	r24, r24
    1330:	29 f0       	breq	.+10     	; 0x133c <FindChild+0x66>
            if (CheckLetter(child, letter)) return child;
    1332:	6d 2d       	mov	r22, r13
    1334:	c8 01       	movw	r24, r16
    1336:	74 df       	rcall	.-280    	; 0x1220 <CheckLetter>
    1338:	81 11       	cpse	r24, r1
    133a:	17 c0       	rjmp	.+46     	; 0x136a <FindChild+0x94>
    133c:	9e 01       	movw	r18, r28
        }

        //Not visible or name not right
        ExtEERead(child+L_BOILER, 2, GAME, &data[0]);
    133e:	2f 5f       	subi	r18, 0xFF	; 255
    1340:	3f 4f       	sbci	r19, 0xFF	; 255
    1342:	40 e0       	ldi	r20, 0x00	; 0
    1344:	62 e0       	ldi	r22, 0x02	; 2
    1346:	c8 01       	movw	r24, r16
    1348:	80 96       	adiw	r24, 0x20	; 32
    134a:	d0 dd       	rcall	.-1120   	; 0xeec <ExtEERead>
    134c:	09 81       	ldd	r16, Y+1	; 0x01
        child = (data[0]<<8|data[1]);    //Next object on child level
    134e:	10 e0       	ldi	r17, 0x00	; 0
    1350:	10 2f       	mov	r17, r16
    1352:	00 27       	eor	r16, r16
    1354:	8a 81       	ldd	r24, Y+2	; 0x02
    1356:	08 2b       	or	r16, r24
    1358:	0e 15       	cp	r16, r14
    ExtEERead(child+L_BOILER, 4, GAME, &data[0]);
    parent = (data[0]<<8|data[1]);    //Next object on parent level
    child =  (data[2]<<8|data[3]);    //First object on child level

    //As long as the child is within the parent's range
    while (parent>child){
    135a:	1f 05       	cpc	r17, r15
    135c:	f0 f2       	brcs	.-68     	; 0x131a <FindChild+0x44>
    135e:	80 e0       	ldi	r24, 0x00	; 0

        //Not visible or name not right
        ExtEERead(child+L_BOILER, 2, GAME, &data[0]);
        child = (data[0]<<8|data[1]);    //Next object on child level
        
    } return 0;
    1360:	90 e0       	ldi	r25, 0x00	; 0
    1362:	05 c0       	rjmp	.+10     	; 0x136e <FindChild+0x98>
    1364:	80 e0       	ldi	r24, 0x00	; 0
    1366:	90 e0       	ldi	r25, 0x00	; 0
    1368:	02 c0       	rjmp	.+4      	; 0x136e <FindChild+0x98>
    136a:	80 2f       	mov	r24, r16
    136c:	91 2f       	mov	r25, r17
    136e:	24 96       	adiw	r28, 0x04	; 4
}
    1370:	cd bf       	out	0x3d, r28	; 61
    1372:	de bf       	out	0x3e, r29	; 62
    1374:	df 91       	pop	r29
    1376:	cf 91       	pop	r28
    1378:	1f 91       	pop	r17
    137a:	0f 91       	pop	r16
    137c:	ff 90       	pop	r15
    137e:	ef 90       	pop	r14
    1380:	df 90       	pop	r13
    1382:	08 95       	ret

00001384 <InpOkChk>:
    1384:	9f e9       	ldi	r25, 0x9F	; 159

//
uint8_t InpOkChk(uint8_t test){
    if ((test>='a')&&(test<='z')) return 1;
    1386:	98 0f       	add	r25, r24
    1388:	9a 31       	cpi	r25, 0x1A	; 26
    138a:	38 f0       	brcs	.+14     	; 0x139a <InpOkChk+0x16>
    138c:	90 ed       	ldi	r25, 0xD0	; 208
    138e:	98 0f       	add	r25, r24
    1390:	81 e0       	ldi	r24, 0x01	; 1
    1392:	9a 30       	cpi	r25, 0x0A	; 10
    1394:	18 f0       	brcs	.+6      	; 0x139c <InpOkChk+0x18>
    1396:	80 e0       	ldi	r24, 0x00	; 0
    1398:	08 95       	ret
    139a:	81 e0       	ldi	r24, 0x01	; 1
    if ((test>='0')&&(test<='9')) return 1;
    return 0;
}
    139c:	08 95       	ret

0000139e <CleanInput>:

//Cleans input of garbage and returns length of cleaned input "o->d2  !\0" becomes "od2\0"
uint8_t CleanInput(uint8_t *data){
    139e:	0f 93       	push	r16
    13a0:	1f 93       	push	r17
    13a2:	cf 93       	push	r28
    13a4:	df 93       	push	r29
    13a6:	8c 01       	movw	r16, r24
    uint8_t cnt = 0;
    for (uint8_t x=0; data[x]!=0; ++x){
    13a8:	fc 01       	movw	r30, r24
    13aa:	80 81       	ld	r24, Z
    13ac:	88 23       	and	r24, r24
    13ae:	91 f0       	breq	.+36     	; 0x13d4 <CleanInput+0x36>
    13b0:	c0 e0       	ldi	r28, 0x00	; 0
    13b2:	d0 e0       	ldi	r29, 0x00	; 0
        data[cnt] = data[x];
    13b4:	d8 01       	movw	r26, r16
    13b6:	ad 0f       	add	r26, r29
    13b8:	b1 1d       	adc	r27, r1
    13ba:	8c 93       	st	X, r24
        if (InpOkChk(data[x])) ++cnt;
    13bc:	80 81       	ld	r24, Z
    13be:	e2 df       	rcall	.-60     	; 0x1384 <InpOkChk>
    13c0:	81 11       	cpse	r24, r1
    13c2:	df 5f       	subi	r29, 0xFF	; 255
}

//Cleans input of garbage and returns length of cleaned input "o->d2  !\0" becomes "od2\0"
uint8_t CleanInput(uint8_t *data){
    uint8_t cnt = 0;
    for (uint8_t x=0; data[x]!=0; ++x){
    13c4:	cf 5f       	subi	r28, 0xFF	; 255
    13c6:	f8 01       	movw	r30, r16
    13c8:	ec 0f       	add	r30, r28
    13ca:	f1 1d       	adc	r31, r1
    13cc:	80 81       	ld	r24, Z
    13ce:	81 11       	cpse	r24, r1
    13d0:	f1 cf       	rjmp	.-30     	; 0x13b4 <CleanInput+0x16>
    13d2:	01 c0       	rjmp	.+2      	; 0x13d6 <CleanInput+0x38>
    return 0;
}

//Cleans input of garbage and returns length of cleaned input "o->d2  !\0" becomes "od2\0"
uint8_t CleanInput(uint8_t *data){
    uint8_t cnt = 0;
    13d4:	d0 e0       	ldi	r29, 0x00	; 0
    for (uint8_t x=0; data[x]!=0; ++x){
        data[cnt] = data[x];
        if (InpOkChk(data[x])) ++cnt;
    }
    data[cnt] = 0;
    13d6:	f8 01       	movw	r30, r16
    13d8:	ed 0f       	add	r30, r29
    13da:	f1 1d       	adc	r31, r1
    13dc:	10 82       	st	Z, r1
    return cnt;
}
    13de:	8d 2f       	mov	r24, r29
    13e0:	df 91       	pop	r29
    13e2:	cf 91       	pop	r28
    13e4:	1f 91       	pop	r17
    13e6:	0f 91       	pop	r16
    13e8:	08 95       	ret

000013ea <CheckSend>:

//Send routine, optimized for low memory usage
uint8_t CheckSend(){
    13ea:	cf 93       	push	r28
    static uint8_t txPart;
    uint8_t EEreadLength=0;

    //Check if more string(part)s have to be sent to the serial output if previous send operation is completed
    if ((txAddrNow < TXLISTLEN) && serTxDone){
    13ec:	80 91 2c 3a 	lds	r24, 0x3A2C	; 0x803a2c <txAddrNow>
    13f0:	88 30       	cpi	r24, 0x08	; 8
    13f2:	d8 f5       	brcc	.+118    	; 0x146a <CheckSend+0x80>
    13f4:	90 91 04 38 	lds	r25, 0x3804	; 0x803804 <serTxDone>
    13f8:	99 23       	and	r25, r25
    13fa:	b9 f1       	breq	.+110    	; 0x146a <CheckSend+0x80>
        if (txPart < txStrLen[txAddrNow]){
    13fc:	28 2f       	mov	r18, r24
    13fe:	30 e0       	ldi	r19, 0x00	; 0
    1400:	f9 01       	movw	r30, r18
    1402:	e3 5d       	subi	r30, 0xD3	; 211
    1404:	f5 4c       	sbci	r31, 0xC5	; 197
    1406:	e0 81       	ld	r30, Z
    1408:	90 91 01 39 	lds	r25, 0x3901	; 0x803901 <txPart.3905>
    140c:	9e 17       	cp	r25, r30
    140e:	30 f5       	brcc	.+76     	; 0x145c <CheckSend+0x72>
            EEreadLength = txStrLen[txAddrNow]-txPart;
    1410:	ce 2f       	mov	r28, r30
    1412:	c9 1b       	sub	r28, r25
    1414:	c1 32       	cpi	r28, 0x21	; 33
    1416:	08 f0       	brcs	.+2      	; 0x141a <CheckSend+0x30>
    1418:	c0 e2       	ldi	r28, 0x20	; 32
            if (EEreadLength>=TXLEN) EEreadLength = TXLEN-1;
            ExtEERead(txAddrList[txAddrNow]+txPart, EEreadLength, txTypeNow, &txBuffer[0]);
    141a:	22 0f       	add	r18, r18
    141c:	33 1f       	adc	r19, r19
    141e:	f9 01       	movw	r30, r18
    1420:	eb 5c       	subi	r30, 0xCB	; 203
    1422:	f5 4c       	sbci	r31, 0xC5	; 197
    1424:	01 90       	ld	r0, Z+
    1426:	f0 81       	ld	r31, Z
    1428:	e0 2d       	mov	r30, r0
    142a:	2e ee       	ldi	r18, 0xEE	; 238
    142c:	3a e3       	ldi	r19, 0x3A	; 58
    142e:	40 91 2b 3a 	lds	r20, 0x3A2B	; 0x803a2b <txTypeNow>
    1432:	6c 2f       	mov	r22, r28
    1434:	df 01       	movw	r26, r30
    1436:	a9 0f       	add	r26, r25
    1438:	b1 1d       	adc	r27, r1
    143a:	cd 01       	movw	r24, r26
    143c:	57 dd       	rcall	.-1362   	; 0xeec <ExtEERead>
            txPart += EEreadLength;
    143e:	80 91 01 39 	lds	r24, 0x3901	; 0x803901 <txPart.3905>
    1442:	8c 0f       	add	r24, r28
    1444:	80 93 01 39 	sts	0x3901, r24	; 0x803901 <txPart.3905>
            txBuffer[EEreadLength] = 0; //Add string terminator after piece to send to plug memory leak
    1448:	ec 2f       	mov	r30, r28
    144a:	f0 e0       	ldi	r31, 0x00	; 0
    144c:	e2 51       	subi	r30, 0x12	; 18
    144e:	f5 4c       	sbci	r31, 0xC5	; 197
    1450:	10 82       	st	Z, r1
            SerSend(&txBuffer[0]);
    1452:	8e ee       	ldi	r24, 0xEE	; 238
    1454:	9a e3       	ldi	r25, 0x3A	; 58
    1456:	fe da       	rcall	.-2564   	; 0xa54 <SerSend>
        } else {
            txPart = 0;
            ++txAddrNow;
        }
    } else if (serTxDone) return 0; //All is sent!
    return 1; //Still sending, do not change the data in the tx variables
    1458:	81 e0       	ldi	r24, 0x01	; 1
    145a:	0c c0       	rjmp	.+24     	; 0x1474 <CheckSend+0x8a>
            ExtEERead(txAddrList[txAddrNow]+txPart, EEreadLength, txTypeNow, &txBuffer[0]);
            txPart += EEreadLength;
            txBuffer[EEreadLength] = 0; //Add string terminator after piece to send to plug memory leak
            SerSend(&txBuffer[0]);
        } else {
            txPart = 0;
    145c:	10 92 01 39 	sts	0x3901, r1	; 0x803901 <txPart.3905>
            ++txAddrNow;
    1460:	8f 5f       	subi	r24, 0xFF	; 255
    1462:	80 93 2c 3a 	sts	0x3A2C, r24	; 0x803a2c <txAddrNow>
        }
    } else if (serTxDone) return 0; //All is sent!
    return 1; //Still sending, do not change the data in the tx variables
    1466:	81 e0       	ldi	r24, 0x01	; 1
    1468:	05 c0       	rjmp	.+10     	; 0x1474 <CheckSend+0x8a>
            SerSend(&txBuffer[0]);
        } else {
            txPart = 0;
            ++txAddrNow;
        }
    } else if (serTxDone) return 0; //All is sent!
    146a:	90 91 04 38 	lds	r25, 0x3804	; 0x803804 <serTxDone>
    146e:	81 e0       	ldi	r24, 0x01	; 1
    1470:	91 11       	cpse	r25, r1
    1472:	80 e0       	ldi	r24, 0x00	; 0
    return 1; //Still sending, do not change the data in the tx variables
}
    1474:	cf 91       	pop	r28
    1476:	08 95       	ret

00001478 <CheckInput>:

//User input check (and validation)
uint8_t CheckInput(uint8_t *data){
    1478:	ef 92       	push	r14
    147a:	ff 92       	push	r15
    147c:	0f 93       	push	r16
    147e:	1f 93       	push	r17
    1480:	cf 93       	push	r28
    1482:	df 93       	push	r29
    1484:	cd b7       	in	r28, 0x3d	; 61
    1486:	de b7       	in	r29, 0x3e	; 62
    1488:	2a 97       	sbiw	r28, 0x0a	; 10
    148a:	cd bf       	out	0x3d, r28	; 61
    148c:	de bf       	out	0x3e, r29	; 62
    148e:	8c 01       	movw	r16, r24
    
    //Load game data after reboot
    if (currDepth == 0xff) {
    1490:	80 91 8f 38 	lds	r24, 0x388F	; 0x80388f <currDepth>
    1494:	8f 3f       	cpi	r24, 0xFF	; 255
    1496:	21 f5       	brne	.+72     	; 0x14e0 <CheckInput+0x68>
        //Load things from EEPROM
        EERead(0, &gameState[0], 16);   //Load game status bits from EEPROM
    1498:	40 e1       	ldi	r20, 0x10	; 16
    149a:	67 e4       	ldi	r22, 0x47	; 71
    149c:	7a e3       	ldi	r23, 0x3A	; 58
    149e:	80 e0       	ldi	r24, 0x00	; 0
    14a0:	7d da       	rcall	.-2822   	; 0x99c <EERead>
    14a2:	0f 2e       	mov	r0, r31
    14a4:	fe e6       	ldi	r31, 0x6E	; 110
    14a6:	ef 2e       	mov	r14, r31
    14a8:	f0 2d       	mov	r31, r0

        //idSet can be used to detect cheating. After cheating idSet will be 0, with a virgin badge idSet will be 3.
        uint8_t idSet = 0;
    14aa:	f1 2c       	mov	r15, r1
        for (uint8_t x=0; x<4; ++x){
            idSet += ReadStatusBit(110+x);
    14ac:	8e 2d       	mov	r24, r14
    14ae:	0e dc       	rcall	.-2020   	; 0xccc <ReadStatusBit>
    14b0:	f8 0e       	add	r15, r24
    14b2:	e3 94       	inc	r14
        //Load things from EEPROM
        EERead(0, &gameState[0], 16);   //Load game status bits from EEPROM

        //idSet can be used to detect cheating. After cheating idSet will be 0, with a virgin badge idSet will be 3.
        uint8_t idSet = 0;
        for (uint8_t x=0; x<4; ++x){
    14b4:	82 e7       	ldi	r24, 0x72	; 114
    14b6:	e8 12       	cpse	r14, r24
    14b8:	f9 cf       	rjmp	.-14     	; 0x14ac <CheckInput+0x34>
            idSet += ReadStatusBit(110+x);
        }

        if (idSet == 1) {
    14ba:	e1 e0       	ldi	r30, 0x01	; 1
    14bc:	fe 16       	cp	r15, r30
    14be:	31 f0       	breq	.+12     	; 0x14cc <CheckInput+0x54>
            ;
        } else if (idSet == 3) {
    14c0:	f3 e0       	ldi	r31, 0x03	; 3
    14c2:	ff 12       	cpse	r15, r31
            //TODO: Test all functions program (for badge check during sweatshop), skip if already passed (save result + temperature calibration in EEPROM location)
            Reset();
    14c4:	02 c0       	rjmp	.+4      	; 0x14ca <CheckInput+0x52>
        } else {
            //Data not as expected, cheated or corrupted memory
            Reset();
    14c6:	43 dc       	rcall	.-1914   	; 0xd4e <Reset>
    14c8:	01 c0       	rjmp	.+2      	; 0x14cc <CheckInput+0x54>
        }

        //Start at first location
        SetStandardResponse();
    14ca:	41 dc       	rcall	.-1918   	; 0xd4e <Reset>
    14cc:	ba dd       	rcall	.-1164   	; 0x1042 <SetStandardResponse>
        PopulateObject(route[0], &currObj);
    14ce:	63 e0       	ldi	r22, 0x03	; 3
    14d0:	7a e3       	ldi	r23, 0x3A	; 58
    14d2:	80 91 c3 39 	lds	r24, 0x39C3	; 0x8039c3 <route>
    14d6:	90 91 c4 39 	lds	r25, 0x39C4	; 0x8039c4 <route+0x1>
    14da:	00 de       	rcall	.-1024   	; 0x10dc <PopulateObject>
        currDepth = 0;
    14dc:	10 92 8f 38 	sts	0x388F, r1	; 0x80388f <currDepth>
    }

    //Play an effect if configured 
    if ((effect < 0xFF) && (effect ^ currObj.byteField[EFFECTS])){
    14e0:	80 91 93 38 	lds	r24, 0x3893	; 0x803893 <effect>
    14e4:	90 91 94 38 	lds	r25, 0x3894	; 0x803894 <effect+0x1>
    14e8:	8f 3f       	cpi	r24, 0xFF	; 255
    14ea:	91 05       	cpc	r25, r1
    14ec:	d0 f4       	brcc	.+52     	; 0x1522 <CheckInput+0xaa>
    14ee:	80 91 07 3a 	lds	r24, 0x3A07	; 0x803a07 <currObj+0x4>
    14f2:	90 e0       	ldi	r25, 0x00	; 0
    14f4:	20 91 93 38 	lds	r18, 0x3893	; 0x803893 <effect>
    14f8:	30 91 94 38 	lds	r19, 0x3894	; 0x803894 <effect+0x1>
    14fc:	82 17       	cp	r24, r18
    14fe:	93 07       	cpc	r25, r19
    1500:	81 f0       	breq	.+32     	; 0x1522 <CheckInput+0xaa>
        effect = currObj.byteField[EFFECTS];
    1502:	80 93 93 38 	sts	0x3893, r24	; 0x803893 <effect>
    1506:	90 93 94 38 	sts	0x3894, r25	; 0x803894 <effect+0x1>
        auStart = ((effect&0xE0)>0);
    150a:	80 91 93 38 	lds	r24, 0x3893	; 0x803893 <effect>
    150e:	90 91 94 38 	lds	r25, 0x3894	; 0x803894 <effect+0x1>
    1512:	80 7e       	andi	r24, 0xE0	; 224
    1514:	99 27       	eor	r25, r25
    1516:	21 e0       	ldi	r18, 0x01	; 1
    1518:	89 2b       	or	r24, r25
    151a:	09 f4       	brne	.+2      	; 0x151e <CheckInput+0xa6>
    151c:	20 e0       	ldi	r18, 0x00	; 0
    151e:	20 93 92 38 	sts	0x3892, r18	; 0x803892 <auStart>
    }

    if (serRxDone){
    1522:	80 91 97 38 	lds	r24, 0x3897	; 0x803897 <serRxDone>
    1526:	88 23       	and	r24, r24
    1528:	09 f4       	brne	.+2      	; 0x152c <CheckInput+0xb4>
    152a:	90 c0       	rjmp	.+288    	; 0x164c <CheckInput+0x1d4>
        //Read up to the \0 character and convert to lower case.
        for (uint8_t x=0; serRx[x]!=0; ++x){
    152c:	80 91 57 3a 	lds	r24, 0x3A57	; 0x803a57 <serRx>
    1530:	88 23       	and	r24, r24
    1532:	51 f1       	breq	.+84     	; 0x1588 <CheckInput+0x110>
    1534:	80 e0       	ldi	r24, 0x00	; 0
    1536:	90 e0       	ldi	r25, 0x00	; 0
    1538:	20 e0       	ldi	r18, 0x00	; 0
            if ((serRx[x]<'A')||(serRx[x]>'Z')) data[x]=serRx[x]; else data[x]=serRx[x]|0x20;
    153a:	fc 01       	movw	r30, r24
    153c:	e9 5a       	subi	r30, 0xA9	; 169
    153e:	f5 4c       	sbci	r31, 0xC5	; 197
    1540:	30 81       	ld	r19, Z
    1542:	31 34       	cpi	r19, 0x41	; 65
    1544:	30 f0       	brcs	.+12     	; 0x1552 <CheckInput+0xda>
    1546:	fc 01       	movw	r30, r24
    1548:	e9 5a       	subi	r30, 0xA9	; 169
    154a:	f5 4c       	sbci	r31, 0xC5	; 197
    154c:	30 81       	ld	r19, Z
    154e:	3b 35       	cpi	r19, 0x5B	; 91
    1550:	48 f0       	brcs	.+18     	; 0x1564 <CheckInput+0xec>
    1552:	fc 01       	movw	r30, r24
    1554:	e9 5a       	subi	r30, 0xA9	; 169
    1556:	f5 4c       	sbci	r31, 0xC5	; 197
    1558:	80 81       	ld	r24, Z
    155a:	f8 01       	movw	r30, r16
    155c:	e2 0f       	add	r30, r18
    155e:	f1 1d       	adc	r31, r1
    1560:	80 83       	st	Z, r24
    1562:	09 c0       	rjmp	.+18     	; 0x1576 <CheckInput+0xfe>
    1564:	fc 01       	movw	r30, r24
    1566:	e9 5a       	subi	r30, 0xA9	; 169
    1568:	f5 4c       	sbci	r31, 0xC5	; 197
    156a:	80 81       	ld	r24, Z
    156c:	f8 01       	movw	r30, r16
    156e:	e2 0f       	add	r30, r18
    1570:	f1 1d       	adc	r31, r1
    1572:	80 62       	ori	r24, 0x20	; 32
    1574:	80 83       	st	Z, r24
        auStart = ((effect&0xE0)>0);
    }

    if (serRxDone){
        //Read up to the \0 character and convert to lower case.
        for (uint8_t x=0; serRx[x]!=0; ++x){
    1576:	2f 5f       	subi	r18, 0xFF	; 255
    1578:	82 2f       	mov	r24, r18
    157a:	90 e0       	ldi	r25, 0x00	; 0
    157c:	fc 01       	movw	r30, r24
    157e:	e9 5a       	subi	r30, 0xA9	; 169
    1580:	f5 4c       	sbci	r31, 0xC5	; 197
    1582:	30 81       	ld	r19, Z
    1584:	31 11       	cpse	r19, r1
    1586:	d9 cf       	rjmp	.-78     	; 0x153a <CheckInput+0xc2>
            if ((serRx[x]<'A')||(serRx[x]>'Z')) data[x]=serRx[x]; else data[x]=serRx[x]|0x20;
        }

        //No text
        if (serRx[0] == 0){
    1588:	80 91 57 3a 	lds	r24, 0x3A57	; 0x803a57 <serRx>
    158c:	81 11       	cpse	r24, r1
    158e:	07 c0       	rjmp	.+14     	; 0x159e <CheckInput+0x126>
            data[0] = 0;
    1590:	f8 01       	movw	r30, r16
    1592:	10 82       	st	Z, r1
            RXCNT = 0;
    1594:	1d ba       	out	0x1d, r1	; 29
            serRxDone = 0;
    1596:	10 92 97 38 	sts	0x3897, r1	; 0x803897 <serRxDone>
            return 1;
    159a:	81 e0       	ldi	r24, 0x01	; 1
    159c:	58 c0       	rjmp	.+176    	; 0x164e <CheckInput+0x1d6>
        }

        //Help text
        if ((data[0] == '?')||(data[0] == 'h')){
    159e:	f8 01       	movw	r30, r16
    15a0:	80 81       	ld	r24, Z
    15a2:	8f 33       	cpi	r24, 0x3F	; 63
    15a4:	11 f0       	breq	.+4      	; 0x15aa <CheckInput+0x132>
    15a6:	88 36       	cpi	r24, 0x68	; 104
    15a8:	b9 f4       	brne	.+46     	; 0x15d8 <CheckInput+0x160>
            //Put help pointers/lengths in tx list
            reactStr[0][MSG] = A_HELP;
    15aa:	81 eb       	ldi	r24, 0xB1	; 177
    15ac:	9b e7       	ldi	r25, 0x7B	; 123
    15ae:	80 93 11 39 	sts	0x3911, r24	; 0x803911 <reactStr+0xe>
    15b2:	90 93 12 39 	sts	0x3912, r25	; 0x803912 <reactStr+0xf>
            reactStr[1][MSG] = L_HELP;
    15b6:	8f e4       	ldi	r24, 0x4F	; 79
    15b8:	94 e0       	ldi	r25, 0x04	; 4
    15ba:	80 93 51 39 	sts	0x3951, r24	; 0x803951 <reactStr+0x4e>
    15be:	90 93 52 39 	sts	0x3952, r25	; 0x803952 <reactStr+0x4f>
            reactStr[2][MSG] = TEASER;
    15c2:	81 e0       	ldi	r24, 0x01	; 1
    15c4:	90 e0       	ldi	r25, 0x00	; 0
    15c6:	80 93 91 39 	sts	0x3991, r24	; 0x803991 <reactStr+0x8e>
    15ca:	90 93 92 39 	sts	0x3992, r25	; 0x803992 <reactStr+0x8f>
            actionList = MSG+1;
    15ce:	88 e0       	ldi	r24, 0x08	; 8
    15d0:	80 93 02 39 	sts	0x3902, r24	; 0x803902 <actionList>

            return 1;
    15d4:	81 e0       	ldi	r24, 0x01	; 1
    15d6:	3b c0       	rjmp	.+118    	; 0x164e <CheckInput+0x1d6>
        }

        //Quit text
        if (data[0] == 'q'){
    15d8:	81 37       	cpi	r24, 0x71	; 113
    15da:	b9 f4       	brne	.+46     	; 0x160a <CheckInput+0x192>
            //Put quit pointers/lengths in tx list
            reactStr[0][MSG] = A_QUIT;
    15dc:	84 e3       	ldi	r24, 0x34	; 52
    15de:	9a e7       	ldi	r25, 0x7A	; 122
    15e0:	80 93 11 39 	sts	0x3911, r24	; 0x803911 <reactStr+0xe>
    15e4:	90 93 12 39 	sts	0x3912, r25	; 0x803912 <reactStr+0xf>
            reactStr[1][MSG] = L_QUIT;
    15e8:	84 e5       	ldi	r24, 0x54	; 84
    15ea:	90 e0       	ldi	r25, 0x00	; 0
    15ec:	80 93 51 39 	sts	0x3951, r24	; 0x803951 <reactStr+0x4e>
    15f0:	90 93 52 39 	sts	0x3952, r25	; 0x803952 <reactStr+0x4f>
            reactStr[2][MSG] = TEASER;
    15f4:	81 e0       	ldi	r24, 0x01	; 1
    15f6:	90 e0       	ldi	r25, 0x00	; 0
    15f8:	80 93 91 39 	sts	0x3991, r24	; 0x803991 <reactStr+0x8e>
    15fc:	90 93 92 39 	sts	0x3992, r25	; 0x803992 <reactStr+0x8f>
            actionList = MSG+1;
    1600:	88 e0       	ldi	r24, 0x08	; 8
    1602:	80 93 02 39 	sts	0x3902, r24	; 0x803902 <actionList>
            return 1;
    1606:	81 e0       	ldi	r24, 0x01	; 1
        }

        //Cheat = reset badge!
        if (StartsWith(&data[0], "iddqd")){
    1608:	22 c0       	rjmp	.+68     	; 0x164e <CheckInput+0x1d6>
    160a:	6c ef       	ldi	r22, 0xFC	; 252
    160c:	7a e9       	ldi	r23, 0x9A	; 154
    160e:	c8 01       	movw	r24, r16
    1610:	ab dc       	rcall	.-1706   	; 0xf68 <StartsWith>
    1612:	88 23       	and	r24, r24
    1614:	e1 f0       	breq	.+56     	; 0x164e <CheckInput+0x1d6>
            
            //Reset game data by wiping the UUID bits
            for (uint8_t x=0; x<4; ++x){
                WriteStatusBit(110+x, 0);
    1616:	1e e6       	ldi	r17, 0x6E	; 110
    1618:	60 e0       	ldi	r22, 0x00	; 0
    161a:	81 2f       	mov	r24, r17
    161c:	6b db       	rcall	.-2346   	; 0xcf4 <WriteStatusBit>
    161e:	1f 5f       	subi	r17, 0xFF	; 255

        //Cheat = reset badge!
        if (StartsWith(&data[0], "iddqd")){
            
            //Reset game data by wiping the UUID bits
            for (uint8_t x=0; x<4; ++x){
    1620:	12 37       	cpi	r17, 0x72	; 114
    1622:	d1 f7       	brne	.-12     	; 0x1618 <CheckInput+0x1a0>
                WriteStatusBit(110+x, 0);
            }
            SaveGameState();
    1624:	1a db       	rcall	.-2508   	; 0xc5a <SaveGameState>
    1626:	8a e0       	ldi	r24, 0x0A	; 10

            uint8_t cheat[] = "Cheater! ";
    1628:	e2 e0       	ldi	r30, 0x02	; 2
    162a:	fb e9       	ldi	r31, 0x9B	; 155
    162c:	de 01       	movw	r26, r28
    162e:	11 96       	adiw	r26, 0x01	; 1
    1630:	01 90       	ld	r0, Z+
    1632:	0d 92       	st	X+, r0
    1634:	8a 95       	dec	r24
    1636:	e1 f7       	brne	.-8      	; 0x1630 <CheckInput+0x1b8>
            SerSpeed(60);
    1638:	8c e3       	ldi	r24, 0x3C	; 60
    163a:	1e da       	rcall	.-3012   	; 0xa78 <SerSpeed>
    163c:	80 91 04 38 	lds	r24, 0x3804	; 0x803804 <serTxDone>
            while(1){
                if (serTxDone) SerSend(&cheat[0]);
    1640:	88 23       	and	r24, r24
    1642:	e1 f3       	breq	.-8      	; 0x163c <CheckInput+0x1c4>
    1644:	ce 01       	movw	r24, r28
    1646:	01 96       	adiw	r24, 0x01	; 1
    1648:	05 da       	rcall	.-3062   	; 0xa54 <SerSend>
    164a:	f8 cf       	rjmp	.-16     	; 0x163c <CheckInput+0x1c4>
    164c:	81 e0       	ldi	r24, 0x01	; 1
    164e:	2a 96       	adiw	r28, 0x0a	; 10
        //Data received, but not any of the commands above
        return 0;
    }

    //Serial input not available yet
    return 1;
    1650:	cd bf       	out	0x3d, r28	; 61
}
    1652:	de bf       	out	0x3e, r29	; 62
    1654:	df 91       	pop	r29
    1656:	cf 91       	pop	r28
    1658:	1f 91       	pop	r17
    165a:	0f 91       	pop	r16
    165c:	ff 90       	pop	r15
    165e:	ef 90       	pop	r14
    1660:	08 95       	ret

00001662 <ProcessInput>:
    1662:	0f 93       	push	r16
    1664:	1f 93       	push	r17

//The game logic!
uint8_t ProcessInput(uint8_t *data){
    1666:	cf 93       	push	r28
    1668:	df 93       	push	r29
    166a:	ec 01       	movw	r28, r24
//    enum {NAME, DESC, ACTION_STR1, ACTION_STR2, OPEN_ACL_MSG, ACTION_ACL_MSG, ACTION_MSG};
    static object_model_t actObj1, actObj2;

    CleanInput(&data[0]);
    166c:	98 de       	rcall	.-720    	; 0x139e <CleanInput>
    uint8_t inputLen = CleanInput(&data[0]);
    166e:	ce 01       	movw	r24, r28
    1670:	96 de       	rcall	.-724    	; 0x139e <CleanInput>

    if (inputLen) {
    1672:	88 23       	and	r24, r24
    1674:	09 f4       	brne	.+2      	; 0x1678 <ProcessInput+0x16>
    1676:	36 c1       	rjmp	.+620    	; 0x18e4 <ProcessInput+0x282>
        if (data[0] == 'x'){
    1678:	98 81       	ld	r25, Y
    167a:	98 37       	cpi	r25, 0x78	; 120
    167c:	09 f0       	breq	.+2      	; 0x1680 <ProcessInput+0x1e>
    167e:	64 c0       	rjmp	.+200    	; 0x1748 <ProcessInput+0xe6>

            //Standing in the Lobby?
            if ((route[currDepth] == 0)||(currDepth == 0)){
    1680:	80 91 8f 38 	lds	r24, 0x388F	; 0x80388f <currDepth>
    1684:	e8 2f       	mov	r30, r24
    1686:	f0 e0       	ldi	r31, 0x00	; 0
    1688:	ee 0f       	add	r30, r30
    168a:	ff 1f       	adc	r31, r31
    168c:	ed 53       	subi	r30, 0x3D	; 61
    168e:	f6 4c       	sbci	r31, 0xC6	; 198
    1690:	20 81       	ld	r18, Z
    1692:	31 81       	ldd	r19, Z+1	; 0x01
    1694:	23 2b       	or	r18, r19
    1696:	11 f0       	breq	.+4      	; 0x169c <ProcessInput+0x3a>
    1698:	81 11       	cpse	r24, r1
    169a:	16 c0       	rjmp	.+44     	; 0x16c8 <ProcessInput+0x66>
                reactStr[0][MSG]=A_NOTPOSSIBLE;
    169c:	82 eb       	ldi	r24, 0xB2	; 178
    169e:	96 e7       	ldi	r25, 0x76	; 118
    16a0:	80 93 11 39 	sts	0x3911, r24	; 0x803911 <reactStr+0xe>
    16a4:	90 93 12 39 	sts	0x3912, r25	; 0x803912 <reactStr+0xf>
                reactStr[1][MSG]=L_NOTPOSSIBLE;
    16a8:	8b e1       	ldi	r24, 0x1B	; 27
    16aa:	90 e0       	ldi	r25, 0x00	; 0
    16ac:	80 93 51 39 	sts	0x3951, r24	; 0x803951 <reactStr+0x4e>
    16b0:	90 93 52 39 	sts	0x3952, r25	; 0x803952 <reactStr+0x4f>
                reactStr[2][MSG]=TEASER;
    16b4:	81 e0       	ldi	r24, 0x01	; 1
    16b6:	90 e0       	ldi	r25, 0x00	; 0
    16b8:	80 93 91 39 	sts	0x3991, r24	; 0x803991 <reactStr+0x8e>
    16bc:	90 93 92 39 	sts	0x3992, r25	; 0x803992 <reactStr+0x8f>
                actionList = MSG+1;
    16c0:	88 e0       	ldi	r24, 0x08	; 8
    16c2:	80 93 02 39 	sts	0x3902, r24	; 0x803902 <actionList>
    16c6:	f2 c0       	rjmp	.+484    	; 0x18ac <ProcessInput+0x24a>
            
            //Is there a way to go back?
            } else if (CheckState(currObj.byteField[OPEN_ACL])){
    16c8:	80 91 09 3a 	lds	r24, 0x3A09	; 0x803a09 <currObj+0x6>
    16cc:	97 dd       	rcall	.-1234   	; 0x11fc <CheckState>
    16ce:	88 23       	and	r24, r24
    16d0:	29 f1       	breq	.+74     	; 0x171c <ProcessInput+0xba>
                --currDepth;
    16d2:	e0 91 8f 38 	lds	r30, 0x388F	; 0x80388f <currDepth>
    16d6:	e1 50       	subi	r30, 0x01	; 1
    16d8:	e0 93 8f 38 	sts	0x388F, r30	; 0x80388f <currDepth>
                PopulateObject(route[currDepth], &currObj);
    16dc:	f0 e0       	ldi	r31, 0x00	; 0
    16de:	ee 0f       	add	r30, r30
    16e0:	ff 1f       	adc	r31, r31
    16e2:	ed 53       	subi	r30, 0x3D	; 61
    16e4:	f6 4c       	sbci	r31, 0xC6	; 198
    16e6:	63 e0       	ldi	r22, 0x03	; 3
    16e8:	7a e3       	ldi	r23, 0x3A	; 58
    16ea:	80 81       	ld	r24, Z
    16ec:	91 81       	ldd	r25, Z+1	; 0x01
    16ee:	f6 dc       	rcall	.-1556   	; 0x10dc <PopulateObject>
                reactStr[0][MSG]=currObj.addrStr[NAME];
    16f0:	e3 e0       	ldi	r30, 0x03	; 3
    16f2:	fa e3       	ldi	r31, 0x3A	; 58
    16f4:	84 85       	ldd	r24, Z+12	; 0x0c
    16f6:	95 85       	ldd	r25, Z+13	; 0x0d
    16f8:	80 93 11 39 	sts	0x3911, r24	; 0x803911 <reactStr+0xe>
    16fc:	90 93 12 39 	sts	0x3912, r25	; 0x803912 <reactStr+0xf>
                reactStr[1][MSG]=currObj.lenStr[NAME];
    1700:	82 8d       	ldd	r24, Z+26	; 0x1a
    1702:	93 8d       	ldd	r25, Z+27	; 0x1b
    1704:	80 93 51 39 	sts	0x3951, r24	; 0x803951 <reactStr+0x4e>
    1708:	90 93 52 39 	sts	0x3952, r25	; 0x803952 <reactStr+0x4f>
                reactStr[2][MSG]=GAME;             
    170c:	10 92 91 39 	sts	0x3991, r1	; 0x803991 <reactStr+0x8e>
    1710:	10 92 92 39 	sts	0x3992, r1	; 0x803992 <reactStr+0x8f>
                actionList = MSG+1;
    1714:	88 e0       	ldi	r24, 0x08	; 8
    1716:	80 93 02 39 	sts	0x3902, r24	; 0x803902 <actionList>
    171a:	c8 c0       	rjmp	.+400    	; 0x18ac <ProcessInput+0x24a>
            
            //No way out, print denied message of location
            } else {
                reactStr[0][MSG]=currObj.addrStr[OPEN_ACL_MSG];
    171c:	e3 e0       	ldi	r30, 0x03	; 3
    171e:	fa e3       	ldi	r31, 0x3A	; 58
    1720:	84 89       	ldd	r24, Z+20	; 0x14
    1722:	95 89       	ldd	r25, Z+21	; 0x15
    1724:	80 93 11 39 	sts	0x3911, r24	; 0x803911 <reactStr+0xe>
    1728:	90 93 12 39 	sts	0x3912, r25	; 0x803912 <reactStr+0xf>
                reactStr[1][MSG]=currObj.lenStr[OPEN_ACL_MSG];
    172c:	82 a1       	ldd	r24, Z+34	; 0x22
    172e:	93 a1       	ldd	r25, Z+35	; 0x23
    1730:	80 93 51 39 	sts	0x3951, r24	; 0x803951 <reactStr+0x4e>
    1734:	90 93 52 39 	sts	0x3952, r25	; 0x803952 <reactStr+0x4f>
                reactStr[2][MSG]=GAME;                
    1738:	10 92 91 39 	sts	0x3991, r1	; 0x803991 <reactStr+0x8e>
    173c:	10 92 92 39 	sts	0x3992, r1	; 0x803992 <reactStr+0x8f>
                actionList = MSG+1;
    1740:	88 e0       	ldi	r24, 0x08	; 8
    1742:	80 93 02 39 	sts	0x3902, r24	; 0x803902 <actionList>
    1746:	b2 c0       	rjmp	.+356    	; 0x18ac <ProcessInput+0x24a>
            }   
            
        } else if ((data[0] == 'e')||(data[0] == 'o')) {
    1748:	95 36       	cpi	r25, 0x65	; 101
    174a:	19 f0       	breq	.+6      	; 0x1752 <ProcessInput+0xf0>
    174c:	9f 36       	cpi	r25, 0x6F	; 111
    174e:	09 f0       	breq	.+2      	; 0x1752 <ProcessInput+0xf0>
    1750:	ad c0       	rjmp	.+346    	; 0x18ac <ProcessInput+0x24a>
                
            //Not possible, too many/little characters
            if (inputLen != 2){
    1752:	82 30       	cpi	r24, 0x02	; 2
    1754:	b1 f0       	breq	.+44     	; 0x1782 <ProcessInput+0x120>
                reactStr[0][MSG]=A_NOTPOSSIBLE;
    1756:	82 eb       	ldi	r24, 0xB2	; 178
    1758:	96 e7       	ldi	r25, 0x76	; 118
    175a:	80 93 11 39 	sts	0x3911, r24	; 0x803911 <reactStr+0xe>
    175e:	90 93 12 39 	sts	0x3912, r25	; 0x803912 <reactStr+0xf>
                reactStr[1][MSG]=L_NOTPOSSIBLE;
    1762:	8b e1       	ldi	r24, 0x1B	; 27
    1764:	90 e0       	ldi	r25, 0x00	; 0
    1766:	80 93 51 39 	sts	0x3951, r24	; 0x803951 <reactStr+0x4e>
    176a:	90 93 52 39 	sts	0x3952, r25	; 0x803952 <reactStr+0x4f>
                reactStr[2][MSG]=TEASER;
    176e:	81 e0       	ldi	r24, 0x01	; 1
    1770:	90 e0       	ldi	r25, 0x00	; 0
    1772:	80 93 91 39 	sts	0x3991, r24	; 0x803991 <reactStr+0x8e>
    1776:	90 93 92 39 	sts	0x3992, r25	; 0x803992 <reactStr+0x8f>
                actionList = MSG+1;
    177a:	88 e0       	ldi	r24, 0x08	; 8
    177c:	80 93 02 39 	sts	0x3902, r24	; 0x803902 <actionList>
    1780:	95 c0       	rjmp	.+298    	; 0x18ac <ProcessInput+0x24a>
            } else {
                uint8_t canDo = 0;
                route[currDepth+1] = FindChild(route[currDepth], data[1]);
    1782:	00 91 8f 38 	lds	r16, 0x388F	; 0x80388f <currDepth>
    1786:	10 e0       	ldi	r17, 0x00	; 0
    1788:	f8 01       	movw	r30, r16
    178a:	ee 0f       	add	r30, r30
    178c:	ff 1f       	adc	r31, r31
    178e:	ed 53       	subi	r30, 0x3D	; 61
    1790:	f6 4c       	sbci	r31, 0xC6	; 198
    1792:	69 81       	ldd	r22, Y+1	; 0x01
    1794:	80 81       	ld	r24, Z
    1796:	91 81       	ldd	r25, Z+1	; 0x01
    1798:	9e dd       	rcall	.-1220   	; 0x12d6 <FindChild>
    179a:	00 0f       	add	r16, r16
    179c:	11 1f       	adc	r17, r17
    179e:	f8 01       	movw	r30, r16
    17a0:	eb 53       	subi	r30, 0x3B	; 59
    17a2:	f6 4c       	sbci	r31, 0xC6	; 198
    17a4:	80 83       	st	Z, r24
    17a6:	91 83       	std	Z+1, r25	; 0x01
                    
                //Child found?
                if (route[currDepth+1]) {
    17a8:	90 91 8f 38 	lds	r25, 0x388F	; 0x80388f <currDepth>
    17ac:	29 2f       	mov	r18, r25
    17ae:	30 e0       	ldi	r19, 0x00	; 0
    17b0:	f9 01       	movw	r30, r18
    17b2:	ee 0f       	add	r30, r30
    17b4:	ff 1f       	adc	r31, r31
    17b6:	eb 53       	subi	r30, 0x3B	; 59
    17b8:	f6 4c       	sbci	r31, 0xC6	; 198
    17ba:	40 81       	ld	r20, Z
    17bc:	51 81       	ldd	r21, Z+1	; 0x01
    17be:	41 15       	cp	r20, r1
    17c0:	51 05       	cpc	r21, r1
                    PopulateObject(route[currDepth+1], &actObj1);
    17c2:	29 f0       	breq	.+10     	; 0x17ce <ProcessInput+0x16c>
    17c4:	69 ed       	ldi	r22, 0xD9	; 217
    17c6:	78 e3       	ldi	r23, 0x38	; 56
    17c8:	ca 01       	movw	r24, r20
    17ca:	88 dc       	rcall	.-1776   	; 0x10dc <PopulateObject>
    17cc:	16 c0       	rjmp	.+44     	; 0x17fa <ProcessInput+0x198>
                    canDo = 1;
                //No child, maybe a step back, letter ok?
                } else if (currDepth) {
    17ce:	99 23       	and	r25, r25
    17d0:	09 f4       	brne	.+2      	; 0x17d4 <ProcessInput+0x172>
    17d2:	57 c0       	rjmp	.+174    	; 0x1882 <ProcessInput+0x220>
                    PopulateObject(route[currDepth-1], &actObj1);
    17d4:	22 0f       	add	r18, r18
    17d6:	33 1f       	adc	r19, r19
    17d8:	f9 01       	movw	r30, r18
    17da:	ef 53       	subi	r30, 0x3F	; 63
    17dc:	f6 4c       	sbci	r31, 0xC6	; 198
    17de:	69 ed       	ldi	r22, 0xD9	; 217
    17e0:	78 e3       	ldi	r23, 0x38	; 56
    17e2:	80 81       	ld	r24, Z
    17e4:	91 81       	ldd	r25, Z+1	; 0x01
                    if (CheckLetter(actObj1.addrStr[NAME], data[1])) {
    17e6:	7a dc       	rcall	.-1804   	; 0x10dc <PopulateObject>
    17e8:	69 81       	ldd	r22, Y+1	; 0x01
    17ea:	80 91 e5 38 	lds	r24, 0x38E5	; 0x8038e5 <actObj1.3928+0xc>
    17ee:	90 91 e6 38 	lds	r25, 0x38E6	; 0x8038e6 <actObj1.3928+0xd>
    17f2:	16 dd       	rcall	.-1492   	; 0x1220 <CheckLetter>
                        canDo = 1; 
                    }
                }

                //The candidate is found! Let's check if the action is legit
                if (canDo) {
    17f4:	88 23       	and	r24, r24
    17f6:	09 f4       	brne	.+2      	; 0x17fa <ProcessInput+0x198>
    17f8:	44 c0       	rjmp	.+136    	; 0x1882 <ProcessInput+0x220>
                    uint8_t bEnter = (data[0] == 'e');
                    if ((actObj1.byteField[ACTION_MASK]&(bEnter?ENTER:OPEN))==0) {
    17fa:	80 91 e1 38 	lds	r24, 0x38E1	; 0x8038e1 <actObj1.3928+0x8>
    17fe:	98 81       	ld	r25, Y
    1800:	95 36       	cpi	r25, 0x65	; 101
    1802:	09 f0       	breq	.+2      	; 0x1806 <ProcessInput+0x1a4>
    1804:	69 c0       	rjmp	.+210    	; 0x18d8 <ProcessInput+0x276>
    1806:	6b c0       	rjmp	.+214    	; 0x18de <ProcessInput+0x27c>
                        reactStr[0][MSG]=bEnter?A_CANTENTER:A_CANTOPEN;
                        reactStr[1][MSG]=bEnter?L_CANTENTER:L_CANTOPEN;
    1808:	80 93 51 39 	sts	0x3951, r24	; 0x803951 <reactStr+0x4e>
    180c:	90 93 52 39 	sts	0x3952, r25	; 0x803952 <reactStr+0x4f>
                        reactStr[2][MSG]=TEASER;
    1810:	81 e0       	ldi	r24, 0x01	; 1
    1812:	90 e0       	ldi	r25, 0x00	; 0
    1814:	80 93 91 39 	sts	0x3991, r24	; 0x803991 <reactStr+0x8e>
    1818:	90 93 92 39 	sts	0x3992, r25	; 0x803992 <reactStr+0x8f>
                        actionList = MSG+1;
    181c:	88 e0       	ldi	r24, 0x08	; 8
    181e:	80 93 02 39 	sts	0x3902, r24	; 0x803902 <actionList>
                        
                    //Action legit, permission granted?
                    } else if (CheckState(actObj1.byteField[OPEN_ACL])) {
    1822:	44 c0       	rjmp	.+136    	; 0x18ac <ProcessInput+0x24a>
    1824:	80 91 df 38 	lds	r24, 0x38DF	; 0x8038df <actObj1.3928+0x6>
    1828:	e9 dc       	rcall	.-1582   	; 0x11fc <CheckState>
    182a:	88 23       	and	r24, r24
    182c:	01 f1       	breq	.+64     	; 0x186e <ProcessInput+0x20c>
                            
                        //Yes! Check if we must move forward or backwards.
                        if (route[currDepth+1]) ++currDepth; else --currDepth;
    182e:	80 91 8f 38 	lds	r24, 0x388F	; 0x80388f <currDepth>
    1832:	e8 2f       	mov	r30, r24
    1834:	f0 e0       	ldi	r31, 0x00	; 0
    1836:	ee 0f       	add	r30, r30
    1838:	ff 1f       	adc	r31, r31
    183a:	eb 53       	subi	r30, 0x3B	; 59
    183c:	f6 4c       	sbci	r31, 0xC6	; 198
    183e:	20 81       	ld	r18, Z
    1840:	31 81       	ldd	r19, Z+1	; 0x01
    1842:	23 2b       	or	r18, r19
    1844:	21 f0       	breq	.+8      	; 0x184e <ProcessInput+0x1ec>
    1846:	8f 5f       	subi	r24, 0xFF	; 255
    1848:	80 93 8f 38 	sts	0x388F, r24	; 0x80388f <currDepth>
    184c:	03 c0       	rjmp	.+6      	; 0x1854 <ProcessInput+0x1f2>
    184e:	81 50       	subi	r24, 0x01	; 1
    1850:	80 93 8f 38 	sts	0x388F, r24	; 0x80388f <currDepth>
                        PopulateObject(route[currDepth], &currObj);
    1854:	e0 91 8f 38 	lds	r30, 0x388F	; 0x80388f <currDepth>
    1858:	f0 e0       	ldi	r31, 0x00	; 0
    185a:	ee 0f       	add	r30, r30
    185c:	ff 1f       	adc	r31, r31
    185e:	ed 53       	subi	r30, 0x3D	; 61
    1860:	f6 4c       	sbci	r31, 0xC6	; 198
    1862:	63 e0       	ldi	r22, 0x03	; 3
    1864:	7a e3       	ldi	r23, 0x3A	; 58
    1866:	80 81       	ld	r24, Z
    1868:	91 81       	ldd	r25, Z+1	; 0x01
    186a:	38 dc       	rcall	.-1936   	; 0x10dc <PopulateObject>
    186c:	1f c0       	rjmp	.+62     	; 0x18ac <ProcessInput+0x24a>
                          
                    //Not granted!
                    } else {
                        route[currDepth+1] = 0;
    186e:	e0 91 8f 38 	lds	r30, 0x388F	; 0x80388f <currDepth>
    1872:	f0 e0       	ldi	r31, 0x00	; 0
    1874:	ee 0f       	add	r30, r30
    1876:	ff 1f       	adc	r31, r31
    1878:	eb 53       	subi	r30, 0x3B	; 59
    187a:	f6 4c       	sbci	r31, 0xC6	; 198
    187c:	10 82       	st	Z, r1
    187e:	11 82       	std	Z+1, r1	; 0x01
    1880:	15 c0       	rjmp	.+42     	; 0x18ac <ProcessInput+0x24a>
                    }

                //No candidate
                } else {
                    reactStr[0][MSG]=A_DONTSEE;
    1882:	82 e0       	ldi	r24, 0x02	; 2
    1884:	9a e7       	ldi	r25, 0x7A	; 122
    1886:	80 93 11 39 	sts	0x3911, r24	; 0x803911 <reactStr+0xe>
    188a:	90 93 12 39 	sts	0x3912, r25	; 0x803912 <reactStr+0xf>
                    reactStr[1][MSG]=L_DONTSEE;
    188e:	8a e1       	ldi	r24, 0x1A	; 26
    1890:	90 e0       	ldi	r25, 0x00	; 0
    1892:	80 93 51 39 	sts	0x3951, r24	; 0x803951 <reactStr+0x4e>
    1896:	90 93 52 39 	sts	0x3952, r25	; 0x803952 <reactStr+0x4f>
                    reactStr[2][MSG]=TEASER;
    189a:	81 e0       	ldi	r24, 0x01	; 1
    189c:	90 e0       	ldi	r25, 0x00	; 0
    189e:	80 93 91 39 	sts	0x3991, r24	; 0x803991 <reactStr+0x8e>
    18a2:	90 93 92 39 	sts	0x3992, r25	; 0x803992 <reactStr+0x8f>
                    actionList = MSG+1;                }
    18a6:	88 e0       	ldi	r24, 0x08	; 8
    18a8:	80 93 02 39 	sts	0x3902, r24	; 0x803902 <actionList>
                
        }
            
        //Input handled
        //data[0] = 0;
        serRxDone = 0;
    18ac:	10 92 97 38 	sts	0x3897, r1	; 0x803897 <serRxDone>
        RXCNT = 0;
    18b0:	1d ba       	out	0x1d, r1	; 29
    }
    
    return 0;
    18b2:	18 c0       	rjmp	.+48     	; 0x18e4 <ProcessInput+0x282>

                //The candidate is found! Let's check if the action is legit
                if (canDo) {
                    uint8_t bEnter = (data[0] == 'e');
                    if ((actObj1.byteField[ACTION_MASK]&(bEnter?ENTER:OPEN))==0) {
                        reactStr[0][MSG]=bEnter?A_CANTENTER:A_CANTOPEN;
    18b4:	83 eb       	ldi	r24, 0xB3	; 179
    18b6:	99 e7       	ldi	r25, 0x79	; 121
    18b8:	80 93 11 39 	sts	0x3911, r24	; 0x803911 <reactStr+0xe>
    18bc:	90 93 12 39 	sts	0x3912, r25	; 0x803912 <reactStr+0xf>
                        reactStr[1][MSG]=bEnter?L_CANTENTER:L_CANTOPEN;
    18c0:	8b e1       	ldi	r24, 0x1B	; 27
    18c2:	90 e0       	ldi	r25, 0x00	; 0
    18c4:	a1 cf       	rjmp	.-190    	; 0x1808 <ProcessInput+0x1a6>

                //The candidate is found! Let's check if the action is legit
                if (canDo) {
                    uint8_t bEnter = (data[0] == 'e');
                    if ((actObj1.byteField[ACTION_MASK]&(bEnter?ENTER:OPEN))==0) {
                        reactStr[0][MSG]=bEnter?A_CANTENTER:A_CANTOPEN;
    18c6:	8e ec       	ldi	r24, 0xCE	; 206
    18c8:	99 e7       	ldi	r25, 0x79	; 121
    18ca:	80 93 11 39 	sts	0x3911, r24	; 0x803911 <reactStr+0xe>
    18ce:	90 93 12 39 	sts	0x3912, r25	; 0x803912 <reactStr+0xf>
                        reactStr[1][MSG]=bEnter?L_CANTENTER:L_CANTOPEN;
    18d2:	8e e1       	ldi	r24, 0x1E	; 30
    18d4:	90 e0       	ldi	r25, 0x00	; 0
    18d6:	98 cf       	rjmp	.-208    	; 0x1808 <ProcessInput+0x1a6>
                }

                //The candidate is found! Let's check if the action is legit
                if (canDo) {
                    uint8_t bEnter = (data[0] == 'e');
                    if ((actObj1.byteField[ACTION_MASK]&(bEnter?ENTER:OPEN))==0) {
    18d8:	81 ff       	sbrs	r24, 1
    18da:	ec cf       	rjmp	.-40     	; 0x18b4 <ProcessInput+0x252>
    18dc:	a3 cf       	rjmp	.-186    	; 0x1824 <ProcessInput+0x1c2>
    18de:	80 ff       	sbrs	r24, 0
    18e0:	f2 cf       	rjmp	.-28     	; 0x18c6 <ProcessInput+0x264>
    18e2:	a0 cf       	rjmp	.-192    	; 0x1824 <ProcessInput+0x1c2>
        serRxDone = 0;
        RXCNT = 0;
    }
    
    return 0;
}
    18e4:	80 e0       	ldi	r24, 0x00	; 0
    18e6:	df 91       	pop	r29
    18e8:	cf 91       	pop	r28
    18ea:	1f 91       	pop	r17
    18ec:	0f 91       	pop	r16
    18ee:	08 95       	ret

000018f0 <TextAdventure>:


// Main game loop
uint8_t TextAdventure(){
    18f0:	cf 93       	push	r28
    18f2:	df 93       	push	r29
    static uint8_t serInput[RXLEN];
    if (CheckSend()) return 1;                      //Still sending data to serial output, return 1
    18f4:	7a dd       	rcall	.-1292   	; 0x13ea <CheckSend>
    18f6:	c8 2f       	mov	r28, r24
    18f8:	81 11       	cpse	r24, r1
    18fa:	42 c0       	rjmp	.+132    	; 0x1980 <TextAdventure+0x90>

    //Process responses to send
    if (actionList){
    18fc:	d0 91 02 39 	lds	r29, 0x3902	; 0x803902 <actionList>
    1900:	dd 23       	and	r29, r29
    1902:	99 f1       	breq	.+102    	; 0x196a <TextAdventure+0x7a>
        --actionList;
    1904:	d1 50       	subi	r29, 0x01	; 1
    1906:	d0 93 02 39 	sts	0x3902, r29	; 0x803902 <actionList>
        if (actionList == MSG_LOC) {
    190a:	d3 30       	cpi	r29, 0x03	; 3
    190c:	49 f4       	brne	.+18     	; 0x1920 <TextAdventure+0x30>
            PrepareSending(currObj.addrStr[NAME], currObj.lenStr[NAME], GAME);
    190e:	e3 e0       	ldi	r30, 0x03	; 3
    1910:	fa e3       	ldi	r31, 0x3A	; 58
    1912:	62 8d       	ldd	r22, Z+26	; 0x1a
    1914:	73 8d       	ldd	r23, Z+27	; 0x1b
    1916:	40 e0       	ldi	r20, 0x00	; 0
    1918:	84 85       	ldd	r24, Z+12	; 0x0c
    191a:	95 85       	ldd	r25, Z+13	; 0x0d
    191c:	36 db       	rcall	.-2452   	; 0xf8a <PrepareSending>
    191e:	33 c0       	rjmp	.+102    	; 0x1986 <TextAdventure+0x96>
        } else PrepareSending(reactStr[0][actionList], reactStr[1][actionList], reactStr[2][actionList]);
    1920:	8d 2f       	mov	r24, r29
    1922:	90 e0       	ldi	r25, 0x00	; 0
    1924:	dc 01       	movw	r26, r24
    1926:	aa 0f       	add	r26, r26
    1928:	bb 1f       	adc	r27, r27
    192a:	ad 57       	subi	r26, 0x7D	; 125
    192c:	b6 4c       	sbci	r27, 0xC6	; 198
    192e:	fc 01       	movw	r30, r24
    1930:	ee 0f       	add	r30, r30
    1932:	ff 1f       	adc	r31, r31
    1934:	ed 5b       	subi	r30, 0xBD	; 189
    1936:	f6 4c       	sbci	r31, 0xC6	; 198
    1938:	60 81       	ld	r22, Z
    193a:	71 81       	ldd	r23, Z+1	; 0x01
    193c:	88 0f       	add	r24, r24
    193e:	99 1f       	adc	r25, r25
    1940:	fc 01       	movw	r30, r24
    1942:	ed 5f       	subi	r30, 0xFD	; 253
    1944:	f6 4c       	sbci	r31, 0xC6	; 198
    1946:	4c 91       	ld	r20, X
    1948:	80 81       	ld	r24, Z
    194a:	91 81       	ldd	r25, Z+1	; 0x01
    194c:	1e db       	rcall	.-2500   	; 0xf8a <PrepareSending>
        if (actionList == 0) {
    194e:	d1 11       	cpse	r29, r1
    1950:	1a c0       	rjmp	.+52     	; 0x1986 <TextAdventure+0x96>
            effect = currObj.byteField[EFFECTS];
    1952:	80 91 07 3a 	lds	r24, 0x3A07	; 0x803a07 <currObj+0x4>
    1956:	90 e0       	ldi	r25, 0x00	; 0
    1958:	80 93 93 38 	sts	0x3893, r24	; 0x803893 <effect>
    195c:	90 93 94 38 	sts	0x3894, r25	; 0x803894 <effect+0x1>
            RXCNT = 0;
    1960:	1d ba       	out	0x1d, r1	; 29
            serRxDone = 0;
    1962:	10 92 97 38 	sts	0x3897, r1	; 0x803897 <serRxDone>
    //Input found, process and save (changes only)
    } else {
        ProcessInput(&serInput[0]);                     //Check which response to generate and fill tx arrays
        SaveGameState();                                //Check if things are changed, write to EEPROM
    }
    return 0;
    1966:	cd 2f       	mov	r28, r29
            RXCNT = 0;
            serRxDone = 0;
        }
    
    //No responses to send, check if there is user input.
    } else if (CheckInput(&serInput[0])) {
    1968:	0e c0       	rjmp	.+28     	; 0x1986 <TextAdventure+0x96>
    196a:	88 e9       	ldi	r24, 0x98	; 152
    196c:	98 e3       	ldi	r25, 0x38	; 56
    196e:	84 dd       	rcall	.-1272   	; 0x1478 <CheckInput>
    1970:	c8 2f       	mov	r28, r24
    1972:	81 11       	cpse	r24, r1
        return 2; //No valid input

    //Input found, process and save (changes only)
    } else {
        ProcessInput(&serInput[0]);                     //Check which response to generate and fill tx arrays
    1974:	07 c0       	rjmp	.+14     	; 0x1984 <TextAdventure+0x94>
    1976:	88 e9       	ldi	r24, 0x98	; 152
    1978:	98 e3       	ldi	r25, 0x38	; 56
    197a:	73 de       	rcall	.-794    	; 0x1662 <ProcessInput>
        SaveGameState();                                //Check if things are changed, write to EEPROM
    197c:	6e d9       	rcall	.-3364   	; 0xc5a <SaveGameState>
    197e:	03 c0       	rjmp	.+6      	; 0x1986 <TextAdventure+0x96>
    1980:	c1 e0       	ldi	r28, 0x01	; 1


// Main game loop
uint8_t TextAdventure(){
    static uint8_t serInput[RXLEN];
    if (CheckSend()) return 1;                      //Still sending data to serial output, return 1
    1982:	01 c0       	rjmp	.+2      	; 0x1986 <TextAdventure+0x96>
    1984:	c2 e0       	ldi	r28, 0x02	; 2
            serRxDone = 0;
        }
    
    //No responses to send, check if there is user input.
    } else if (CheckInput(&serInput[0])) {
        return 2; //No valid input
    1986:	8c 2f       	mov	r24, r28
    } else {
        ProcessInput(&serInput[0]);                     //Check which response to generate and fill tx arrays
        SaveGameState();                                //Check if things are changed, write to EEPROM
    }
    return 0;
    1988:	df 91       	pop	r29
    198a:	cf 91       	pop	r28
    198c:	08 95       	ret

0000198e <main>:
    198e:	0e 94 aa 01 	call	0x354	; 0x354 <Setup>

    //SerSpeed(1);
    //unsigned char strTest[]="\aHckerHotel2020 badge pest!\b\b\b\b\bt\n";
    //SerSend(&strTest[0]);

    SerSpeed(255);
    1992:	8f ef       	ldi	r24, 0xFF	; 255
    1994:	71 d8       	rcall	.-3870   	; 0xa78 <SerSpeed>
    1996:	a0 ef       	ldi	r26, 0xF0	; 240
    1998:	ba e9       	ldi	r27, 0x9A	; 154
    199a:	26 ef       	ldi	r18, 0xF6	; 246
    199c:	3a e9       	ldi	r19, 0x9A	; 154

    ////Turn on LEDs on low setting to check for interrupt glitches

    //"Hacker"
    for (uint8_t n=0; n<6; n++){
        iLED[HCKR[R][n]] = 1;
    199e:	81 e0       	ldi	r24, 0x01	; 1
    19a0:	ed 91       	ld	r30, X+
    19a2:	f0 e0       	ldi	r31, 0x00	; 0
    19a4:	ee 53       	subi	r30, 0x3E	; 62
    19a6:	f5 4c       	sbci	r31, 0xC5	; 197
    19a8:	80 83       	st	Z, r24
        iLED[HCKR[G][n]] = 1;
    19aa:	15 96       	adiw	r26, 0x05	; 5
    19ac:	ec 91       	ld	r30, X
    19ae:	15 97       	sbiw	r26, 0x05	; 5
    19b0:	f0 e0       	ldi	r31, 0x00	; 0
    19b2:	ee 53       	subi	r30, 0x3E	; 62
    19b4:	f5 4c       	sbci	r31, 0xC5	; 197
    19b6:	80 83       	st	Z, r24
    SerSpeed(255);

    ////Turn on LEDs on low setting to check for interrupt glitches

    //"Hacker"
    for (uint8_t n=0; n<6; n++){
    19b8:	a2 17       	cp	r26, r18
    19ba:	b3 07       	cpc	r27, r19
    19bc:	89 f7       	brne	.-30     	; 0x19a0 <main+0x12>
    19be:	e2 ee       	ldi	r30, 0xE2	; 226
    19c0:	fa e9       	ldi	r31, 0x9A	; 154
    19c2:	27 ee       	ldi	r18, 0xE7	; 231
    19c4:	3a e9       	ldi	r19, 0x9A	; 154
        iLED[HCKR[G][n]] = 1;
    }

    //"Wings"
    for (uint8_t n=0; n<5; n++){
        iLED[WING[L][n]] = 1;
    19c6:	81 e0       	ldi	r24, 0x01	; 1
    19c8:	ef 01       	movw	r28, r30
    19ca:	a5 81       	ldd	r26, Z+5	; 0x05
    19cc:	b0 e0       	ldi	r27, 0x00	; 0
    19ce:	ae 53       	subi	r26, 0x3E	; 62
    19d0:	b5 4c       	sbci	r27, 0xC5	; 197
    19d2:	8c 93       	st	X, r24
    19d4:	31 96       	adiw	r30, 0x01	; 1
        iLED[WING[R][n]] = 1;
    19d6:	a8 81       	ld	r26, Y
    19d8:	b0 e0       	ldi	r27, 0x00	; 0
    19da:	ae 53       	subi	r26, 0x3E	; 62
    19dc:	b5 4c       	sbci	r27, 0xC5	; 197
    19de:	8c 93       	st	X, r24
        iLED[HCKR[R][n]] = 1;
        iLED[HCKR[G][n]] = 1;
    }

    //"Wings"
    for (uint8_t n=0; n<5; n++){
    19e0:	e2 17       	cp	r30, r18
    19e2:	f3 07       	cpc	r31, r19
    19e4:	89 f7       	brne	.-30     	; 0x19c8 <main+0x3a>
        iLED[WING[L][n]] = 1;
        iLED[WING[R][n]] = 1;
    }    

    //"Others"
    iLED[EYE[G][R]] = 1;
    19e6:	ac ee       	ldi	r26, 0xEC	; 236
    19e8:	ba e9       	ldi	r27, 0x9A	; 154
    19ea:	12 96       	adiw	r26, 0x02	; 2
    19ec:	ec 91       	ld	r30, X
    19ee:	12 97       	sbiw	r26, 0x02	; 2
    19f0:	f0 e0       	ldi	r31, 0x00	; 0
    19f2:	ee 53       	subi	r30, 0x3E	; 62
    19f4:	f5 4c       	sbci	r31, 0xC5	; 197
    19f6:	81 e0       	ldi	r24, 0x01	; 1
    19f8:	80 83       	st	Z, r24
    iLED[EYE[G][L]] = 1;
    19fa:	13 96       	adiw	r26, 0x03	; 3
    19fc:	ec 91       	ld	r30, X
    19fe:	13 97       	sbiw	r26, 0x03	; 3
    1a00:	f0 e0       	ldi	r31, 0x00	; 0
    1a02:	ee 53       	subi	r30, 0x3E	; 62
    1a04:	f5 4c       	sbci	r31, 0xC5	; 197
    1a06:	80 83       	st	Z, r24
    iLED[EYE[R][R]] = 1;
    1a08:	ec 91       	ld	r30, X
    1a0a:	f0 e0       	ldi	r31, 0x00	; 0
    1a0c:	ee 53       	subi	r30, 0x3E	; 62
    1a0e:	f5 4c       	sbci	r31, 0xC5	; 197
    1a10:	80 83       	st	Z, r24
    iLED[EYE[R][L]] = 1;
    1a12:	11 96       	adiw	r26, 0x01	; 1
    1a14:	ec 91       	ld	r30, X
    1a16:	f0 e0       	ldi	r31, 0x00	; 0
    1a18:	ee 53       	subi	r30, 0x3E	; 62
    1a1a:	f5 4c       	sbci	r31, 0xC5	; 197
    1a1c:	80 83       	st	Z, r24
    iLED[GEM[R]] = 1;
    1a1e:	a0 ee       	ldi	r26, 0xE0	; 224
    1a20:	ba e9       	ldi	r27, 0x9A	; 154
    1a22:	ec 91       	ld	r30, X
    1a24:	f0 e0       	ldi	r31, 0x00	; 0
    1a26:	ee 53       	subi	r30, 0x3E	; 62
    1a28:	f5 4c       	sbci	r31, 0xC5	; 197
    1a2a:	80 83       	st	Z, r24
    iLED[GEM[G]] = 1;
    1a2c:	11 96       	adiw	r26, 0x01	; 1
    1a2e:	ec 91       	ld	r30, X
    1a30:	f0 e0       	ldi	r31, 0x00	; 0
    1a32:	ee 53       	subi	r30, 0x3E	; 62
    1a34:	f5 4c       	sbci	r31, 0xC5	; 197
    1a36:	80 83       	st	Z, r24
    iLED[RAT] = 1;
    1a38:	e0 91 df 9a 	lds	r30, 0x9ADF	; 0x809adf <__bss_end+0x5fd0>
    1a3c:	f0 e0       	ldi	r31, 0x00	; 0
    1a3e:	ee 53       	subi	r30, 0x3E	; 62
    1a40:	f5 4c       	sbci	r31, 0xC5	; 197
    1a42:	80 83       	st	Z, r24
    iLED[CAT] = 1;
    1a44:	e0 91 de 9a 	lds	r30, 0x9ADE	; 0x809ade <__bss_end+0x5fcf>
    1a48:	f0 e0       	ldi	r31, 0x00	; 0
    1a4a:	ee 53       	subi	r30, 0x3E	; 62
    1a4c:	f5 4c       	sbci	r31, 0xC5	; 197

    while (1)
    {
        GenerateAudio();
    1a4e:	80 83       	st	Z, r24
    1a50:	b4 d9       	rcall	.-3224   	; 0xdba <GenerateAudio>

        if (buttonMark){
    1a52:	80 91 95 38 	lds	r24, 0x3895	; 0x803895 <buttonMark>
    1a56:	88 23       	and	r24, r24
    1a58:	d9 f3       	breq	.-10     	; 0x1a50 <main+0xc2>
            buttonState = CheckButtons(buttonState);
    1a5a:	80 91 45 3a 	lds	r24, 0x3A45	; 0x803a45 <buttonState>
    1a5e:	1d d8       	rcall	.-4038   	; 0xa9a <CheckButtons>
    1a60:	80 93 45 3a 	sts	0x3A45, r24	; 0x803a45 <buttonState>
            buttonMark = 0;
    1a64:	10 92 95 38 	sts	0x3895, r1	; 0x803895 <buttonMark>
            
            //GenerateLEDshow();        

            TextAdventure();
    1a68:	43 df       	rcall	.-378    	; 0x18f0 <TextAdventure>
          
            //Other games & user interaction checks
            //MagnetMaze();
            BastetDictates();
    1a6a:	20 da       	rcall	.-3008   	; 0xeac <BastetDictates>
    1a6c:	80 91 9f 3a 	lds	r24, 0x3A9F	; 0x803a9f <adcPhot>
            //MasterMind-ishThing(); //Not sure if to be implemented
            //LanyardCode();
            //MakeFriends();
             
            //Check light sensor status (added hysteresis to preserve writing cycles to internal EEPROM)
            if (adcPhot < 10) WriteStatusBit(116, 1);
    1a70:	90 91 a0 3a 	lds	r25, 0x3AA0	; 0x803aa0 <adcPhot+0x1>
    1a74:	0a 97       	sbiw	r24, 0x0a	; 10
    1a76:	18 f4       	brcc	.+6      	; 0x1a7e <main+0xf0>
    1a78:	61 e0       	ldi	r22, 0x01	; 1
    1a7a:	84 e7       	ldi	r24, 0x74	; 116
    1a7c:	3b d9       	rcall	.-3466   	; 0xcf4 <WriteStatusBit>
    1a7e:	80 91 9f 3a 	lds	r24, 0x3A9F	; 0x803a9f <adcPhot>
            if (adcPhot > 100) WriteStatusBit(116, 0);
    1a82:	90 91 a0 3a 	lds	r25, 0x3AA0	; 0x803aa0 <adcPhot+0x1>
    1a86:	85 36       	cpi	r24, 0x65	; 101
    1a88:	91 05       	cpc	r25, r1
    1a8a:	10 f3       	brcs	.-60     	; 0x1a50 <main+0xc2>
    1a8c:	60 e0       	ldi	r22, 0x00	; 0
    1a8e:	84 e7       	ldi	r24, 0x74	; 116
    1a90:	31 d9       	rcall	.-3486   	; 0xcf4 <WriteStatusBit>
    1a92:	de cf       	rjmp	.-68     	; 0x1a50 <main+0xc2>

00001a94 <__udivmodhi4>:
    1a94:	aa 1b       	sub	r26, r26
    1a96:	bb 1b       	sub	r27, r27
    1a98:	51 e1       	ldi	r21, 0x11	; 17
    1a9a:	07 c0       	rjmp	.+14     	; 0x1aaa <__udivmodhi4_ep>

00001a9c <__udivmodhi4_loop>:
    1a9c:	aa 1f       	adc	r26, r26
    1a9e:	bb 1f       	adc	r27, r27
    1aa0:	a6 17       	cp	r26, r22
    1aa2:	b7 07       	cpc	r27, r23
    1aa4:	10 f0       	brcs	.+4      	; 0x1aaa <__udivmodhi4_ep>
    1aa6:	a6 1b       	sub	r26, r22
    1aa8:	b7 0b       	sbc	r27, r23

00001aaa <__udivmodhi4_ep>:
    1aaa:	88 1f       	adc	r24, r24
    1aac:	99 1f       	adc	r25, r25
    1aae:	5a 95       	dec	r21
    1ab0:	a9 f7       	brne	.-22     	; 0x1a9c <__udivmodhi4_loop>
    1ab2:	80 95       	com	r24
    1ab4:	90 95       	com	r25
    1ab6:	bc 01       	movw	r22, r24
    1ab8:	cd 01       	movw	r24, r26
    1aba:	08 95       	ret

00001abc <__umulhisi3>:
    1abc:	a2 9f       	mul	r26, r18
    1abe:	b0 01       	movw	r22, r0
    1ac0:	b3 9f       	mul	r27, r19
    1ac2:	c0 01       	movw	r24, r0
    1ac4:	a3 9f       	mul	r26, r19
    1ac6:	70 0d       	add	r23, r0
    1ac8:	81 1d       	adc	r24, r1
    1aca:	11 24       	eor	r1, r1
    1acc:	91 1d       	adc	r25, r1
    1ace:	b2 9f       	mul	r27, r18
    1ad0:	70 0d       	add	r23, r0
    1ad2:	81 1d       	adc	r24, r1
    1ad4:	11 24       	eor	r1, r1
    1ad6:	91 1d       	adc	r25, r1
    1ad8:	08 95       	ret

00001ada <_exit>:
    1ada:	f8 94       	cli

00001adc <__stop_program>:
    1adc:	ff cf       	rjmp	.-2      	; 0x1adc <__stop_program>
