
ISR_IO.elf:     file format elf32-avr

Sections:
Idx Name          Size      VMA       LMA       File off  Algn
  0 .data         00000090  00803800  000021b2  00002266  2**0
                  CONTENTS, ALLOC, LOAD, DATA
  1 .text         00002174  00000000  00000000  000000b4  2**1
                  CONTENTS, ALLOC, LOAD, READONLY, CODE
  2 .rodata       0000003e  0000a174  00002174  00002228  2**0
                  CONTENTS, ALLOC, LOAD, READONLY, DATA
  3 .bss          00000289  00803890  00803890  000022f6  2**0
                  ALLOC
  4 .comment      00000030  00000000  00000000  000022f6  2**0
                  CONTENTS, READONLY
  5 .note.gnu.avr.deviceinfo 00000040  00000000  00000000  00002328  2**2
                  CONTENTS, READONLY
  6 .debug_aranges 00000260  00000000  00000000  00002368  2**0
                  CONTENTS, READONLY, DEBUGGING
  7 .debug_info   00004bbc  00000000  00000000  000025c8  2**0
                  CONTENTS, READONLY, DEBUGGING
  8 .debug_abbrev 0000222a  00000000  00000000  00007184  2**0
                  CONTENTS, READONLY, DEBUGGING
  9 .debug_line   000021fc  00000000  00000000  000093ae  2**0
                  CONTENTS, READONLY, DEBUGGING
 10 .debug_frame  00000748  00000000  00000000  0000b5ac  2**2
                  CONTENTS, READONLY, DEBUGGING
 11 .debug_str    00001711  00000000  00000000  0000bcf4  2**0
                  CONTENTS, READONLY, DEBUGGING
 12 .debug_loc    00002126  00000000  00000000  0000d405  2**0
                  CONTENTS, READONLY, DEBUGGING
 13 .debug_ranges 00000330  00000000  00000000  0000f52b  2**0
                  CONTENTS, READONLY, DEBUGGING

Disassembly of section .text:

00000000 <__vectors>:
       0:	3d c0       	rjmp	.+122    	; 0x7c <__ctors_end>
       2:	00 00       	nop
       4:	58 c0       	rjmp	.+176    	; 0xb6 <__bad_interrupt>
       6:	00 00       	nop
       8:	56 c0       	rjmp	.+172    	; 0xb6 <__bad_interrupt>
       a:	00 00       	nop
       c:	54 c0       	rjmp	.+168    	; 0xb6 <__bad_interrupt>
       e:	00 00       	nop
      10:	52 c0       	rjmp	.+164    	; 0xb6 <__bad_interrupt>
      12:	00 00       	nop
      14:	50 c0       	rjmp	.+160    	; 0xb6 <__bad_interrupt>
      16:	00 00       	nop
      18:	5b c4       	rjmp	.+2230   	; 0x8d0 <__vector_6>
      1a:	00 00       	nop
      1c:	a9 c4       	rjmp	.+2386   	; 0x970 <__vector_7>
      1e:	00 00       	nop
      20:	af c2       	rjmp	.+1374   	; 0x580 <__vector_8>
      22:	00 00       	nop
      24:	48 c0       	rjmp	.+144    	; 0xb6 <__bad_interrupt>
      26:	00 00       	nop
      28:	46 c0       	rjmp	.+140    	; 0xb6 <__bad_interrupt>
      2a:	00 00       	nop
      2c:	44 c0       	rjmp	.+136    	; 0xb6 <__bad_interrupt>
      2e:	00 00       	nop
      30:	42 c0       	rjmp	.+132    	; 0xb6 <__bad_interrupt>
      32:	00 00       	nop
      34:	f9 c2       	rjmp	.+1522   	; 0x628 <__vector_13>
      36:	00 00       	nop
      38:	2a c3       	rjmp	.+1620   	; 0x68e <__vector_14>
      3a:	00 00       	nop
      3c:	3c c0       	rjmp	.+120    	; 0xb6 <__bad_interrupt>
      3e:	00 00       	nop
      40:	3a c0       	rjmp	.+116    	; 0xb6 <__bad_interrupt>
      42:	00 00       	nop
      44:	38 c0       	rjmp	.+112    	; 0xb6 <__bad_interrupt>
      46:	00 00       	nop
      48:	36 c0       	rjmp	.+108    	; 0xb6 <__bad_interrupt>
      4a:	00 00       	nop
      4c:	34 c0       	rjmp	.+104    	; 0xb6 <__bad_interrupt>
      4e:	00 00       	nop
      50:	c1 c3       	rjmp	.+1922   	; 0x7d4 <__vector_20>
      52:	00 00       	nop
      54:	30 c0       	rjmp	.+96     	; 0xb6 <__bad_interrupt>
      56:	00 00       	nop
      58:	eb c3       	rjmp	.+2006   	; 0x830 <__vector_22>
      5a:	00 00       	nop
      5c:	2c c0       	rjmp	.+88     	; 0xb6 <__bad_interrupt>
      5e:	00 00       	nop
      60:	2a c0       	rjmp	.+84     	; 0xb6 <__bad_interrupt>
      62:	00 00       	nop
      64:	28 c0       	rjmp	.+80     	; 0xb6 <__bad_interrupt>
      66:	00 00       	nop
      68:	26 c0       	rjmp	.+76     	; 0xb6 <__bad_interrupt>
      6a:	00 00       	nop
      6c:	63 c3       	rjmp	.+1734   	; 0x734 <__vector_27>
      6e:	00 00       	nop
      70:	95 c3       	rjmp	.+1834   	; 0x79c <__vector_28>
      72:	00 00       	nop
      74:	20 c0       	rjmp	.+64     	; 0xb6 <__bad_interrupt>
      76:	00 00       	nop
      78:	1e c0       	rjmp	.+60     	; 0xb6 <__bad_interrupt>
	...

0000007c <__ctors_end>:
      7c:	11 24       	eor	r1, r1
      7e:	1f be       	out	0x3f, r1	; 63
      80:	cf ef       	ldi	r28, 0xFF	; 255
      82:	cd bf       	out	0x3d, r28	; 61
      84:	df e3       	ldi	r29, 0x3F	; 63
      86:	de bf       	out	0x3e, r29	; 62

00000088 <__do_copy_data>:
      88:	18 e3       	ldi	r17, 0x38	; 56
      8a:	a0 e0       	ldi	r26, 0x00	; 0
      8c:	b8 e3       	ldi	r27, 0x38	; 56
      8e:	e2 eb       	ldi	r30, 0xB2	; 178
      90:	f1 e2       	ldi	r31, 0x21	; 33
      92:	02 c0       	rjmp	.+4      	; 0x98 <__do_copy_data+0x10>
      94:	05 90       	lpm	r0, Z+
      96:	0d 92       	st	X+, r0
      98:	a0 39       	cpi	r26, 0x90	; 144
      9a:	b1 07       	cpc	r27, r17
      9c:	d9 f7       	brne	.-10     	; 0x94 <__do_copy_data+0xc>

0000009e <__do_clear_bss>:
      9e:	2b e3       	ldi	r18, 0x3B	; 59
      a0:	a0 e9       	ldi	r26, 0x90	; 144
      a2:	b8 e3       	ldi	r27, 0x38	; 56
      a4:	01 c0       	rjmp	.+2      	; 0xa8 <.do_clear_bss_start>

000000a6 <.do_clear_bss_loop>:
      a6:	1d 92       	st	X+, r1

000000a8 <.do_clear_bss_start>:
      a8:	a9 31       	cpi	r26, 0x19	; 25
      aa:	b2 07       	cpc	r27, r18
      ac:	e1 f7       	brne	.-8      	; 0xa6 <.do_clear_bss_loop>
      ae:	0e 94 09 10 	call	0x2012	; 0x2012 <main>
      b2:	0c 94 b8 10 	jmp	0x2170	; 0x2170 <_exit>

000000b6 <__bad_interrupt>:
      b6:	a4 cf       	rjmp	.-184    	; 0x0 <__vectors>

000000b8 <I2C_init>:

#define NOP() asm volatile(" nop \r\n")

void I2C_init(void)
{
	PORTB_DIRCLR = 0b00000001;	                                    // SCL = PB0, tri-stated high, avoids glitch
      b8:	81 e0       	ldi	r24, 0x01	; 1
      ba:	80 93 22 04 	sts	0x0422, r24	; 0x800422 <__TEXT_REGION_LENGTH__+0x700422>
    PORTB_OUTCLR = 0b00000001;							
      be:	e6 e2       	ldi	r30, 0x26	; 38
      c0:	f4 e0       	ldi	r31, 0x04	; 4
      c2:	80 83       	st	Z, r24
    PORTB_PIN0CTRL = 0;
      c4:	10 92 30 04 	sts	0x0430, r1	; 0x800430 <__TEXT_REGION_LENGTH__+0x700430>
	PORTB_DIRSET = 0b00000010;                                      // SDA = PB1
      c8:	a1 e2       	ldi	r26, 0x21	; 33
      ca:	b4 e0       	ldi	r27, 0x04	; 4
      cc:	92 e0       	ldi	r25, 0x02	; 2
      ce:	9c 93       	st	X, r25
	PORTB_OUTCLR = 0b00000010;
      d0:	90 83       	st	Z, r25
    PORTB_PIN1CTRL = 0;
      d2:	10 92 31 04 	sts	0x0431, r1	; 0x800431 <__TEXT_REGION_LENGTH__+0x700431>

	
	TWI0.MBAUD = (uint8_t) TWI0_BAUD(100000, 0);					// set MBAUD register, TWI0_BAUD macro calculates parameter for 100 kHz
      d6:	e0 e1       	ldi	r30, 0x10	; 16
      d8:	f8 e0       	ldi	r31, 0x08	; 8
      da:	9d e2       	ldi	r25, 0x2D	; 45
      dc:	96 83       	std	Z+6, r25	; 0x06
	TWI0.MCTRLB = TWI_FLUSH_bm;										// clear the internal state of the master
      de:	98 e0       	ldi	r25, 0x08	; 8
      e0:	94 83       	std	Z+4, r25	; 0x04
	TWI0.MCTRLA =	  1 << TWI_ENABLE_bp							// Enable TWI Master: enabled
      e2:	83 83       	std	Z+3, r24	; 0x03
					| 0 << TWI_RIEN_bp								// Read Interrupt Enable: disabled
					| 0 << TWI_SMEN_bp								// Smart Mode Enable: disabled
					| TWI_TIMEOUT_DISABLED_gc						// Bus Timeout Disabled (inoperative, see errata)
					| 0 << TWI_WIEN_bp;								// Write Interrupt Enable: disabled

	PORTB_DIRSET = 0b00000001;	
      e4:	8c 93       	st	X, r24
	
	TWI0.MSTATUS |= TWI_BUSSTATE_IDLE_gc;							// force bus idle
      e6:	85 81       	ldd	r24, Z+5	; 0x05
      e8:	81 60       	ori	r24, 0x01	; 1
      ea:	85 83       	std	Z+5, r24	; 0x05
	TWI0.MSTATUS |= (TWI_RIF_bm | TWI_WIF_bm | TWI_BUSERR_bm);		// clear flags	
      ec:	85 81       	ldd	r24, Z+5	; 0x05
      ee:	84 6c       	ori	r24, 0xC4	; 196
      f0:	85 83       	std	Z+5, r24	; 0x05
      f2:	08 95       	ret

000000f4 <I2C_recover>:
}

void I2C_recover(void)												// clock out I2C bus if in invalid state (e.g. after incomplete transaction)
{
	uint8_t	i;
	TWI0.MCTRLB |= TWI_FLUSH_bm;									// clear the internal state of the master
      f4:	e0 e1       	ldi	r30, 0x10	; 16
      f6:	f8 e0       	ldi	r31, 0x08	; 8
      f8:	84 81       	ldd	r24, Z+4	; 0x04
      fa:	88 60       	ori	r24, 0x08	; 8
      fc:	84 83       	std	Z+4, r24	; 0x04
	TWI0.MCTRLA = 0;												// disable TWI Master
      fe:	13 82       	std	Z+3, r1	; 0x03
	PORTB_DIRCLR = 0b00000010;      								// SDA tri-stated high
     100:	82 e0       	ldi	r24, 0x02	; 2
     102:	80 93 22 04 	sts	0x0422, r24	; 0x800422 <__TEXT_REGION_LENGTH__+0x700422>
	for (i = 0; i < 9; i++)											// SCL, 9 x bit-banging
     106:	80 e0       	ldi	r24, 0x00	; 0
     108:	0e c0       	rjmp	.+28     	; 0x126 <I2C_recover+0x32>
	{
		PORTB_DIRSET = 0b00000001;			        				// 5 us low
     10a:	91 e0       	ldi	r25, 0x01	; 1
     10c:	90 93 21 04 	sts	0x0421, r25	; 0x800421 <__TEXT_REGION_LENGTH__+0x700421>
	#else
		//round up by default
		__ticks_dc = (uint32_t)(ceil(fabs(__tmp)));
	#endif

	__builtin_avr_delay_cycles(__ticks_dc);
     110:	20 e1       	ldi	r18, 0x10	; 16
     112:	2a 95       	dec	r18
     114:	f1 f7       	brne	.-4      	; 0x112 <I2C_recover+0x1e>
     116:	00 c0       	rjmp	.+0      	; 0x118 <I2C_recover+0x24>
		_delay_us(5);
		PORTB_DIRCLR = 0b00000001;      							// 5 us tri-stated high
     118:	90 93 22 04 	sts	0x0422, r25	; 0x800422 <__TEXT_REGION_LENGTH__+0x700422>
     11c:	90 e1       	ldi	r25, 0x10	; 16
     11e:	9a 95       	dec	r25
     120:	f1 f7       	brne	.-4      	; 0x11e <I2C_recover+0x2a>
     122:	00 c0       	rjmp	.+0      	; 0x124 <I2C_recover+0x30>
{
	uint8_t	i;
	TWI0.MCTRLB |= TWI_FLUSH_bm;									// clear the internal state of the master
	TWI0.MCTRLA = 0;												// disable TWI Master
	PORTB_DIRCLR = 0b00000010;      								// SDA tri-stated high
	for (i = 0; i < 9; i++)											// SCL, 9 x bit-banging
     124:	8f 5f       	subi	r24, 0xFF	; 255
     126:	89 30       	cpi	r24, 0x09	; 9
     128:	80 f3       	brcs	.-32     	; 0x10a <I2C_recover+0x16>
	
// re-enable master twice
// for unknown reasons the master might get stuck if re-enabled only once
// second re-enable will fail if SDA not enabled beforehand

	TWI0.MCTRLB = TWI_FLUSH_bm;										// clear the internal state of the master
     12a:	e0 e1       	ldi	r30, 0x10	; 16
     12c:	f8 e0       	ldi	r31, 0x08	; 8
     12e:	28 e0       	ldi	r18, 0x08	; 8
     130:	24 83       	std	Z+4, r18	; 0x04
	TWI0.MCTRLA =	  1 << TWI_ENABLE_bp							// Enable TWI Master: enabled
     132:	81 e0       	ldi	r24, 0x01	; 1
     134:	83 83       	std	Z+3, r24	; 0x03
					| 0 << TWI_RIEN_bp								// Read Interrupt Enable: disabled
					| 0 << TWI_SMEN_bp								// Smart Mode Enable: disabled
					| TWI_TIMEOUT_DISABLED_gc						// Bus Timeout Disabled (inoperative, see errata)
					| 0 << TWI_WIEN_bp;								// Write Interrupt Enable: disabled			

	PORTB_DIRSET = 0b00000010;	
     136:	a1 e2       	ldi	r26, 0x21	; 33
     138:	b4 e0       	ldi	r27, 0x04	; 4
     13a:	92 e0       	ldi	r25, 0x02	; 2
     13c:	9c 93       	st	X, r25

	TWI0.MSTATUS |= TWI_BUSSTATE_IDLE_gc;							// force bus idle
     13e:	95 81       	ldd	r25, Z+5	; 0x05
     140:	91 60       	ori	r25, 0x01	; 1
     142:	95 83       	std	Z+5, r25	; 0x05
	TWI0.MSTATUS |= (TWI_RIF_bm | TWI_WIF_bm | TWI_BUSERR_bm);		// clear flags
     144:	95 81       	ldd	r25, Z+5	; 0x05
     146:	94 6c       	ori	r25, 0xC4	; 196
     148:	95 83       	std	Z+5, r25	; 0x05

	TWI0.MCTRLB = TWI_FLUSH_bm;										// clear the internal state of the master (glitch on SDA)
     14a:	24 83       	std	Z+4, r18	; 0x04
	TWI0.MCTRLA =	  1 << TWI_ENABLE_bp							// Enable TWI Master: enabled
     14c:	83 83       	std	Z+3, r24	; 0x03
					| 0 << TWI_RIEN_bp								// Read Interrupt Enable: disabled
					| 0 << TWI_SMEN_bp								// Smart Mode Enable: disabled
					| TWI_TIMEOUT_DISABLED_gc						// Bus Timeout Disabled (inoperative, see errata)
					| 0 << TWI_WIEN_bp;								// Write Interrupt Enable: disabled

	PORTB_DIRSET = 0b00000001;
     14e:	8c 93       	st	X, r24

	TWI0.MSTATUS |= TWI_BUSSTATE_IDLE_gc;							// force bus idle
     150:	85 81       	ldd	r24, Z+5	; 0x05
     152:	81 60       	ori	r24, 0x01	; 1
     154:	85 83       	std	Z+5, r24	; 0x05
	TWI0.MSTATUS |= (TWI_RIF_bm | TWI_WIF_bm | TWI_BUSERR_bm);		// clear flags
     156:	85 81       	ldd	r24, Z+5	; 0x05
     158:	84 6c       	ori	r24, 0xC4	; 196
     15a:	85 83       	std	Z+5, r24	; 0x05
     15c:	08 95       	ret

0000015e <I2C_start>:
}

uint8_t I2C_start(uint8_t shifted_addr)								// device_addr + LSB set if READ
{
     15e:	28 2f       	mov	r18, r24
	TWI0.MSTATUS |= (TWI_RIF_bm | TWI_WIF_bm);						// clear Read and Write interrupt flags
     160:	e0 e1       	ldi	r30, 0x10	; 16
     162:	f8 e0       	ldi	r31, 0x08	; 8
     164:	95 81       	ldd	r25, Z+5	; 0x05
     166:	90 6c       	ori	r25, 0xC0	; 192
     168:	95 83       	std	Z+5, r25	; 0x05
	if (TWI0.MSTATUS & TWI_BUSERR_bm) return 4;						// Bus Error, abort
     16a:	95 81       	ldd	r25, Z+5	; 0x05
     16c:	89 2f       	mov	r24, r25
     16e:	84 70       	andi	r24, 0x04	; 4
     170:	92 fd       	sbrc	r25, 2
     172:	03 c0       	rjmp	.+6      	; 0x17a <I2C_start+0x1c>
	TWI0.MADDR = shifted_addr;
     174:	20 93 17 08 	sts	0x0817, r18	; 0x800817 <__TEXT_REGION_LENGTH__+0x700817>
	return 0;
     178:	08 95       	ret
}

uint8_t I2C_start(uint8_t shifted_addr)								// device_addr + LSB set if READ
{
	TWI0.MSTATUS |= (TWI_RIF_bm | TWI_WIF_bm);						// clear Read and Write interrupt flags
	if (TWI0.MSTATUS & TWI_BUSERR_bm) return 4;						// Bus Error, abort
     17a:	84 e0       	ldi	r24, 0x04	; 4
	TWI0.MADDR = shifted_addr;
	return 0;
}
     17c:	08 95       	ret

0000017e <I2C_wait_ACK>:

uint8_t I2C_wait_ACK(void)											// wait for slave response after start of Master Write
{
	timeout_I2C = ADDR_TIMEOUT;												// reset timeout counter, will be decremented by LED matrix interrupt
     17e:	8c e0       	ldi	r24, 0x0C	; 12
     180:	80 93 4c 3a 	sts	0x3A4C, r24	; 0x803a4c <timeout_I2C>
	while (!(TWI0.MSTATUS & TWI_RIF_bm) && !(TWI0.MSTATUS & TWI_WIF_bm))	// wait for RIF or WIF set
     184:	04 c0       	rjmp	.+8      	; 0x18e <I2C_wait_ACK+0x10>
	{
		if (!(timeout_I2C)) return 0xff;				            // return timeout error
     186:	80 91 4c 3a 	lds	r24, 0x3A4C	; 0x803a4c <timeout_I2C>
     18a:	88 23       	and	r24, r24
     18c:	e1 f0       	breq	.+56     	; 0x1c6 <I2C_wait_ACK+0x48>
}

uint8_t I2C_wait_ACK(void)											// wait for slave response after start of Master Write
{
	timeout_I2C = ADDR_TIMEOUT;												// reset timeout counter, will be decremented by LED matrix interrupt
	while (!(TWI0.MSTATUS & TWI_RIF_bm) && !(TWI0.MSTATUS & TWI_WIF_bm))	// wait for RIF or WIF set
     18e:	80 91 15 08 	lds	r24, 0x0815	; 0x800815 <__TEXT_REGION_LENGTH__+0x700815>
     192:	88 23       	and	r24, r24
     194:	24 f0       	brlt	.+8      	; 0x19e <I2C_wait_ACK+0x20>
     196:	80 91 15 08 	lds	r24, 0x0815	; 0x800815 <__TEXT_REGION_LENGTH__+0x700815>
     19a:	86 ff       	sbrs	r24, 6
     19c:	f4 cf       	rjmp	.-24     	; 0x186 <I2C_wait_ACK+0x8>
	{
		if (!(timeout_I2C)) return 0xff;				            // return timeout error
	}
	TWI0.MSTATUS |= (TWI_RIF_bm | TWI_WIF_bm);						// clear Read and Write interrupt flags
     19e:	e0 e1       	ldi	r30, 0x10	; 16
     1a0:	f8 e0       	ldi	r31, 0x08	; 8
     1a2:	85 81       	ldd	r24, Z+5	; 0x05
     1a4:	80 6c       	ori	r24, 0xC0	; 192
     1a6:	85 83       	std	Z+5, r24	; 0x05
	if (TWI0.MSTATUS & TWI_BUSERR_bm) return 4;						// Bus Error, abort
     1a8:	85 81       	ldd	r24, Z+5	; 0x05
     1aa:	82 fd       	sbrc	r24, 2
     1ac:	0e c0       	rjmp	.+28     	; 0x1ca <I2C_wait_ACK+0x4c>
	if (TWI0.MSTATUS & TWI_ARBLOST_bm) return 2;					// Arbitration Lost, abort
     1ae:	80 91 15 08 	lds	r24, 0x0815	; 0x800815 <__TEXT_REGION_LENGTH__+0x700815>
     1b2:	83 fd       	sbrc	r24, 3
     1b4:	0c c0       	rjmp	.+24     	; 0x1ce <I2C_wait_ACK+0x50>
	if (TWI0.MSTATUS & TWI_RXACK_bm) return 1;						// Slave replied with NACK, abort
     1b6:	90 91 15 08 	lds	r25, 0x0815	; 0x800815 <__TEXT_REGION_LENGTH__+0x700815>
     1ba:	89 2f       	mov	r24, r25
     1bc:	80 71       	andi	r24, 0x10	; 16
     1be:	94 ff       	sbrs	r25, 4
     1c0:	07 c0       	rjmp	.+14     	; 0x1d0 <I2C_wait_ACK+0x52>
     1c2:	81 e0       	ldi	r24, 0x01	; 1
     1c4:	08 95       	ret
uint8_t I2C_wait_ACK(void)											// wait for slave response after start of Master Write
{
	timeout_I2C = ADDR_TIMEOUT;												// reset timeout counter, will be decremented by LED matrix interrupt
	while (!(TWI0.MSTATUS & TWI_RIF_bm) && !(TWI0.MSTATUS & TWI_WIF_bm))	// wait for RIF or WIF set
	{
		if (!(timeout_I2C)) return 0xff;				            // return timeout error
     1c6:	8f ef       	ldi	r24, 0xFF	; 255
     1c8:	08 95       	ret
	}
	TWI0.MSTATUS |= (TWI_RIF_bm | TWI_WIF_bm);						// clear Read and Write interrupt flags
	if (TWI0.MSTATUS & TWI_BUSERR_bm) return 4;						// Bus Error, abort
     1ca:	84 e0       	ldi	r24, 0x04	; 4
     1cc:	08 95       	ret
	if (TWI0.MSTATUS & TWI_ARBLOST_bm) return 2;					// Arbitration Lost, abort
     1ce:	82 e0       	ldi	r24, 0x02	; 2
	if (TWI0.MSTATUS & TWI_RXACK_bm) return 1;						// Slave replied with NACK, abort
	return 0;														// no error
}
     1d0:	08 95       	ret

000001d2 <I2C_rep_start>:
// the Atmel device documentation mentions a special command for repeated start TWI_MCMD_REPSTART_gc,
// but this is not used in Atmel's demo code, so we don't use it either

void I2C_rep_start(uint8_t shifted_addr)						    // send repeated start, device_addr + LSB set if READ
{
	TWI0.MADDR = shifted_addr;	
     1d2:	80 93 17 08 	sts	0x0817, r24	; 0x800817 <__TEXT_REGION_LENGTH__+0x700817>
     1d6:	08 95       	ret

000001d8 <I2C_read>:
}

uint8_t	I2C_read(uint8_t *data, uint8_t ack_flag)					// read data, ack_flag 0: send ACK, 1: send NACK, returns status
{
     1d8:	fc 01       	movw	r30, r24
	timeout_I2C = READ_TIMEOUT;										// reset timeout counter, will be decremented by LED matrix interrupt
     1da:	9c e0       	ldi	r25, 0x0C	; 12
     1dc:	90 93 4c 3a 	sts	0x3A4C, r25	; 0x803a4c <timeout_I2C>
	if ((TWI0.MSTATUS & TWI_BUSSTATE_gm) == TWI_BUSSTATE_OWNER_gc)	// if master controls bus
     1e0:	90 91 15 08 	lds	r25, 0x0815	; 0x800815 <__TEXT_REGION_LENGTH__+0x700815>
     1e4:	89 2f       	mov	r24, r25
     1e6:	83 70       	andi	r24, 0x03	; 3
     1e8:	82 30       	cpi	r24, 0x02	; 2
     1ea:	31 f0       	breq	.+12     	; 0x1f8 <I2C_read+0x20>
		else		TWI0.MCTRLB |= TWI_ACKACT_NACK_gc;				// setup NACK (last byte read)
		*data = TWI0.MDATA;
		if (ack_flag == 0) TWI0.MCTRLB |= TWI_MCMD_RECVTRANS_gc;	// send ACK, more bytes to follow					
		return 0;
	}
	else return 8;													// master does not control bus
     1ec:	88 e0       	ldi	r24, 0x08	; 8
     1ee:	08 95       	ret
	timeout_I2C = READ_TIMEOUT;										// reset timeout counter, will be decremented by LED matrix interrupt
	if ((TWI0.MSTATUS & TWI_BUSSTATE_gm) == TWI_BUSSTATE_OWNER_gc)	// if master controls bus
	{		
		while (!(TWI0.MSTATUS & TWI_RIF_bm))						// wait for RIF set (data byte received)
		{
			if (!(timeout_I2C)) return 0xff;			            // return timeout error
     1f0:	90 91 4c 3a 	lds	r25, 0x3A4C	; 0x803a4c <timeout_I2C>
     1f4:	99 23       	and	r25, r25
     1f6:	c1 f1       	breq	.+112    	; 0x268 <I2C_read+0x90>
uint8_t	I2C_read(uint8_t *data, uint8_t ack_flag)					// read data, ack_flag 0: send ACK, 1: send NACK, returns status
{
	timeout_I2C = READ_TIMEOUT;										// reset timeout counter, will be decremented by LED matrix interrupt
	if ((TWI0.MSTATUS & TWI_BUSSTATE_gm) == TWI_BUSSTATE_OWNER_gc)	// if master controls bus
	{		
		while (!(TWI0.MSTATUS & TWI_RIF_bm))						// wait for RIF set (data byte received)
     1f8:	90 91 15 08 	lds	r25, 0x0815	; 0x800815 <__TEXT_REGION_LENGTH__+0x700815>
     1fc:	99 23       	and	r25, r25
     1fe:	c4 f7       	brge	.-16     	; 0x1f0 <I2C_read+0x18>
		{
			if (!(timeout_I2C)) return 0xff;			            // return timeout error
		}
		TWI0.MSTATUS |= (TWI_RIF_bm | TWI_WIF_bm);					// clear Read and Write interrupt flags	
     200:	a0 e1       	ldi	r26, 0x10	; 16
     202:	b8 e0       	ldi	r27, 0x08	; 8
     204:	15 96       	adiw	r26, 0x05	; 5
     206:	9c 91       	ld	r25, X
     208:	15 97       	sbiw	r26, 0x05	; 5
     20a:	90 6c       	ori	r25, 0xC0	; 192
     20c:	15 96       	adiw	r26, 0x05	; 5
     20e:	9c 93       	st	X, r25
     210:	15 97       	sbiw	r26, 0x05	; 5
		if (TWI0.MSTATUS & TWI_BUSERR_bm) return 4;					// Bus Error, abort
     212:	15 96       	adiw	r26, 0x05	; 5
     214:	9c 91       	ld	r25, X
     216:	15 97       	sbiw	r26, 0x05	; 5
     218:	92 fd       	sbrc	r25, 2
     21a:	28 c0       	rjmp	.+80     	; 0x26c <I2C_read+0x94>
		if (TWI0.MSTATUS & TWI_ARBLOST_bm) return 2;				// Arbitration Lost, abort
     21c:	90 91 15 08 	lds	r25, 0x0815	; 0x800815 <__TEXT_REGION_LENGTH__+0x700815>
     220:	93 fd       	sbrc	r25, 3
     222:	27 c0       	rjmp	.+78     	; 0x272 <I2C_read+0x9a>
		if (TWI0.MSTATUS & TWI_RXACK_bm) return 1;					// Slave replied with NACK, abort				
     224:	90 91 15 08 	lds	r25, 0x0815	; 0x800815 <__TEXT_REGION_LENGTH__+0x700815>
     228:	89 2f       	mov	r24, r25
     22a:	80 71       	andi	r24, 0x10	; 16
     22c:	94 fd       	sbrc	r25, 4
     22e:	20 c0       	rjmp	.+64     	; 0x270 <I2C_read+0x98>
		if (ack_flag == 0) TWI0.MCTRLB &= ~(1 << TWI_ACKACT_bp);	// setup ACK
     230:	61 11       	cpse	r22, r1
     232:	07 c0       	rjmp	.+14     	; 0x242 <I2C_read+0x6a>
     234:	14 96       	adiw	r26, 0x04	; 4
     236:	9c 91       	ld	r25, X
     238:	14 97       	sbiw	r26, 0x04	; 4
     23a:	9b 7f       	andi	r25, 0xFB	; 251
     23c:	14 96       	adiw	r26, 0x04	; 4
     23e:	9c 93       	st	X, r25
     240:	08 c0       	rjmp	.+16     	; 0x252 <I2C_read+0x7a>
		else		TWI0.MCTRLB |= TWI_ACKACT_NACK_gc;				// setup NACK (last byte read)
     242:	a0 e1       	ldi	r26, 0x10	; 16
     244:	b8 e0       	ldi	r27, 0x08	; 8
     246:	14 96       	adiw	r26, 0x04	; 4
     248:	9c 91       	ld	r25, X
     24a:	14 97       	sbiw	r26, 0x04	; 4
     24c:	94 60       	ori	r25, 0x04	; 4
     24e:	14 96       	adiw	r26, 0x04	; 4
     250:	9c 93       	st	X, r25
		*data = TWI0.MDATA;
     252:	90 91 18 08 	lds	r25, 0x0818	; 0x800818 <__TEXT_REGION_LENGTH__+0x700818>
     256:	90 83       	st	Z, r25
		if (ack_flag == 0) TWI0.MCTRLB |= TWI_MCMD_RECVTRANS_gc;	// send ACK, more bytes to follow					
     258:	61 11       	cpse	r22, r1
     25a:	0b c0       	rjmp	.+22     	; 0x272 <I2C_read+0x9a>
     25c:	e0 e1       	ldi	r30, 0x10	; 16
     25e:	f8 e0       	ldi	r31, 0x08	; 8
     260:	94 81       	ldd	r25, Z+4	; 0x04
     262:	92 60       	ori	r25, 0x02	; 2
     264:	94 83       	std	Z+4, r25	; 0x04
     266:	08 95       	ret
	timeout_I2C = READ_TIMEOUT;										// reset timeout counter, will be decremented by LED matrix interrupt
	if ((TWI0.MSTATUS & TWI_BUSSTATE_gm) == TWI_BUSSTATE_OWNER_gc)	// if master controls bus
	{		
		while (!(TWI0.MSTATUS & TWI_RIF_bm))						// wait for RIF set (data byte received)
		{
			if (!(timeout_I2C)) return 0xff;			            // return timeout error
     268:	8f ef       	ldi	r24, 0xFF	; 255
     26a:	08 95       	ret
		}
		TWI0.MSTATUS |= (TWI_RIF_bm | TWI_WIF_bm);					// clear Read and Write interrupt flags	
		if (TWI0.MSTATUS & TWI_BUSERR_bm) return 4;					// Bus Error, abort
     26c:	84 e0       	ldi	r24, 0x04	; 4
     26e:	08 95       	ret
		if (TWI0.MSTATUS & TWI_ARBLOST_bm) return 2;				// Arbitration Lost, abort
		if (TWI0.MSTATUS & TWI_RXACK_bm) return 1;					// Slave replied with NACK, abort				
     270:	81 e0       	ldi	r24, 0x01	; 1
		*data = TWI0.MDATA;
		if (ack_flag == 0) TWI0.MCTRLB |= TWI_MCMD_RECVTRANS_gc;	// send ACK, more bytes to follow					
		return 0;
	}
	else return 8;													// master does not control bus
}
     272:	08 95       	ret

00000274 <I2C_write>:

uint8_t I2C_write(uint8_t *data)									// write data, return status
{
     274:	fc 01       	movw	r30, r24
	timeout_I2C = WRITE_TIMEOUT;									// reset timeout counter, will be decremented by LED matrix interrupt
     276:	9c e0       	ldi	r25, 0x0C	; 12
     278:	90 93 4c 3a 	sts	0x3A4C, r25	; 0x803a4c <timeout_I2C>
	if ((TWI0.MSTATUS & TWI_BUSSTATE_gm) == TWI_BUSSTATE_OWNER_gc)	// if master controls bus
     27c:	90 91 15 08 	lds	r25, 0x0815	; 0x800815 <__TEXT_REGION_LENGTH__+0x700815>
     280:	93 70       	andi	r25, 0x03	; 3
     282:	92 30       	cpi	r25, 0x02	; 2
     284:	c1 f4       	brne	.+48     	; 0x2b6 <I2C_write+0x42>
	{
		TWI0.MDATA = *data;		
     286:	80 81       	ld	r24, Z
     288:	80 93 18 08 	sts	0x0818, r24	; 0x800818 <__TEXT_REGION_LENGTH__+0x700818>
		while (!(TWI0.MSTATUS & TWI_WIF_bm))						// wait until WIF set, status register contains ACK/NACK bit
     28c:	04 c0       	rjmp	.+8      	; 0x296 <I2C_write+0x22>
		{
			if (!(timeout_I2C)) return 0xff;			            // return timeout error
     28e:	80 91 4c 3a 	lds	r24, 0x3A4C	; 0x803a4c <timeout_I2C>
     292:	88 23       	and	r24, r24
     294:	91 f0       	breq	.+36     	; 0x2ba <I2C_write+0x46>
{
	timeout_I2C = WRITE_TIMEOUT;									// reset timeout counter, will be decremented by LED matrix interrupt
	if ((TWI0.MSTATUS & TWI_BUSSTATE_gm) == TWI_BUSSTATE_OWNER_gc)	// if master controls bus
	{
		TWI0.MDATA = *data;		
		while (!(TWI0.MSTATUS & TWI_WIF_bm))						// wait until WIF set, status register contains ACK/NACK bit
     296:	80 91 15 08 	lds	r24, 0x0815	; 0x800815 <__TEXT_REGION_LENGTH__+0x700815>
     29a:	86 ff       	sbrs	r24, 6
     29c:	f8 cf       	rjmp	.-16     	; 0x28e <I2C_write+0x1a>
		{
			if (!(timeout_I2C)) return 0xff;			            // return timeout error
		}
		if (TWI0.MSTATUS & TWI_BUSERR_bm) return 4;					// Bus Error, abort
     29e:	80 91 15 08 	lds	r24, 0x0815	; 0x800815 <__TEXT_REGION_LENGTH__+0x700815>
     2a2:	82 fd       	sbrc	r24, 2
     2a4:	0c c0       	rjmp	.+24     	; 0x2be <I2C_write+0x4a>
		if (TWI0.MSTATUS & TWI_RXACK_bm) return 1;					// Slave replied with NACK, abort
     2a6:	90 91 15 08 	lds	r25, 0x0815	; 0x800815 <__TEXT_REGION_LENGTH__+0x700815>
     2aa:	89 2f       	mov	r24, r25
     2ac:	80 71       	andi	r24, 0x10	; 16
     2ae:	94 ff       	sbrs	r25, 4
     2b0:	07 c0       	rjmp	.+14     	; 0x2c0 <I2C_write+0x4c>
     2b2:	81 e0       	ldi	r24, 0x01	; 1
     2b4:	08 95       	ret
		return 0;													// no error	
	}
	else return 8;													// master does not control bus
     2b6:	88 e0       	ldi	r24, 0x08	; 8
     2b8:	08 95       	ret
	if ((TWI0.MSTATUS & TWI_BUSSTATE_gm) == TWI_BUSSTATE_OWNER_gc)	// if master controls bus
	{
		TWI0.MDATA = *data;		
		while (!(TWI0.MSTATUS & TWI_WIF_bm))						// wait until WIF set, status register contains ACK/NACK bit
		{
			if (!(timeout_I2C)) return 0xff;			            // return timeout error
     2ba:	8f ef       	ldi	r24, 0xFF	; 255
     2bc:	08 95       	ret
		}
		if (TWI0.MSTATUS & TWI_BUSERR_bm) return 4;					// Bus Error, abort
     2be:	84 e0       	ldi	r24, 0x04	; 4
		if (TWI0.MSTATUS & TWI_RXACK_bm) return 1;					// Slave replied with NACK, abort
		return 0;													// no error	
	}
	else return 8;													// master does not control bus
}
     2c0:	08 95       	ret

000002c2 <I2C_stop>:

void I2C_stop()
{
	TWI0.MCTRLB |= TWI_MCMD_STOP_gc;
     2c2:	e0 e1       	ldi	r30, 0x10	; 16
     2c4:	f8 e0       	ldi	r31, 0x08	; 8
     2c6:	84 81       	ldd	r24, Z+4	; 0x04
     2c8:	83 60       	ori	r24, 0x03	; 3
     2ca:	84 83       	std	Z+4, r24	; 0x04
     2cc:	08 95       	ret

000002ce <I2C_read_bytes>:
// addr_ptr		address of first array element to transfer
// slave reg	starting slave register
// num_bytes	number of bytes to transfer

uint8_t	I2C_read_bytes(uint8_t slave_addr, uint8_t *reg_ptr, uint8_t reg_len, uint8_t *dat_ptr, uint8_t dat_len)
{
     2ce:	cf 92       	push	r12
     2d0:	df 92       	push	r13
     2d2:	ef 92       	push	r14
     2d4:	ff 92       	push	r15
     2d6:	0f 93       	push	r16
     2d8:	cf 93       	push	r28
     2da:	df 93       	push	r29
     2dc:	7b 01       	movw	r14, r22
     2de:	c4 2f       	mov	r28, r20
     2e0:	69 01       	movw	r12, r18
	uint8_t status;
	if (dat_len > MAX_LEN) dat_len = MAX_LEN;
     2e2:	01 34       	cpi	r16, 0x41	; 65
     2e4:	08 f0       	brcs	.+2      	; 0x2e8 <I2C_read_bytes+0x1a>
     2e6:	00 e4       	ldi	r16, 0x40	; 64
	status = I2C_start(slave_addr << 1);							// slave write address, LSB 0
     2e8:	d8 2f       	mov	r29, r24
     2ea:	dd 0f       	add	r29, r29
     2ec:	8d 2f       	mov	r24, r29
     2ee:	37 df       	rcall	.-402    	; 0x15e <I2C_start>
	if (status != 0) goto error;
     2f0:	81 11       	cpse	r24, r1
	status = I2C_wait_ACK();										// wait for slave ACK
     2f2:	2a c0       	rjmp	.+84     	; 0x348 <I2C_read_bytes+0x7a>
     2f4:	44 df       	rcall	.-376    	; 0x17e <I2C_wait_ACK>
	if (status == 1) {
     2f6:	81 30       	cpi	r24, 0x01	; 1
		I2C_stop();													// NACK, abort
     2f8:	19 f4       	brne	.+6      	; 0x300 <I2C_read_bytes+0x32>
     2fa:	e3 df       	rcall	.-58     	; 0x2c2 <I2C_stop>
		return 1;
     2fc:	81 e0       	ldi	r24, 0x01	; 1
     2fe:	26 c0       	rjmp	.+76     	; 0x34c <I2C_read_bytes+0x7e>
	}
	if (status != 0) goto error;
     300:	81 11       	cpse	r24, r1
     302:	22 c0       	rjmp	.+68     	; 0x348 <I2C_read_bytes+0x7a>
    while(reg_len > 0){
	    status = I2C_write(reg_ptr);    							// send slave start register
     304:	08 c0       	rjmp	.+16     	; 0x316 <I2C_read_bytes+0x48>
     306:	c7 01       	movw	r24, r14
     308:	b5 df       	rcall	.-150    	; 0x274 <I2C_write>
	    if (status != 0) goto error;
     30a:	81 11       	cpse	r24, r1
     30c:	1d c0       	rjmp	.+58     	; 0x348 <I2C_read_bytes+0x7a>
        ++reg_ptr;
     30e:	8f ef       	ldi	r24, 0xFF	; 255
     310:	e8 1a       	sub	r14, r24
     312:	f8 0a       	sbc	r15, r24
        --reg_len;
     314:	c1 50       	subi	r28, 0x01	; 1
	if (status == 1) {
		I2C_stop();													// NACK, abort
		return 1;
	}
	if (status != 0) goto error;
    while(reg_len > 0){
     316:	c1 11       	cpse	r28, r1
	    status = I2C_write(reg_ptr);    							// send slave start register
	    if (status != 0) goto error;
        ++reg_ptr;
        --reg_len;
    }
	I2C_rep_start((slave_addr << 1) + 1);							// slave read address, LSB 1
     318:	f6 cf       	rjmp	.-20     	; 0x306 <I2C_read_bytes+0x38>
     31a:	81 e0       	ldi	r24, 0x01	; 1
     31c:	8d 0f       	add	r24, r29
	while (dat_len > 1) {
     31e:	59 df       	rcall	.-334    	; 0x1d2 <I2C_rep_start>
		status = I2C_read(dat_ptr, 0);								// first bytes, send ACK
     320:	09 c0       	rjmp	.+18     	; 0x334 <I2C_read_bytes+0x66>
     322:	60 e0       	ldi	r22, 0x00	; 0
     324:	c6 01       	movw	r24, r12
     326:	58 df       	rcall	.-336    	; 0x1d8 <I2C_read>
		if (status != 0) goto error;
     328:	81 11       	cpse	r24, r1
     32a:	0e c0       	rjmp	.+28     	; 0x348 <I2C_read_bytes+0x7a>
		++dat_ptr;
     32c:	8f ef       	ldi	r24, 0xFF	; 255
     32e:	c8 1a       	sub	r12, r24
		--dat_len;
     330:	d8 0a       	sbc	r13, r24
	    if (status != 0) goto error;
        ++reg_ptr;
        --reg_len;
    }
	I2C_rep_start((slave_addr << 1) + 1);							// slave read address, LSB 1
	while (dat_len > 1) {
     332:	01 50       	subi	r16, 0x01	; 1
		status = I2C_read(dat_ptr, 0);								// first bytes, send ACK
		if (status != 0) goto error;
		++dat_ptr;
		--dat_len;
	}
	status = I2C_read(dat_ptr, 1);									// single or last byte, send NACK
     334:	02 30       	cpi	r16, 0x02	; 2
     336:	a8 f7       	brcc	.-22     	; 0x322 <I2C_read_bytes+0x54>
     338:	61 e0       	ldi	r22, 0x01	; 1
	if (status != 0) goto error;
     33a:	c6 01       	movw	r24, r12
     33c:	4d df       	rcall	.-358    	; 0x1d8 <I2C_read>
	I2C_stop();
     33e:	81 11       	cpse	r24, r1
     340:	03 c0       	rjmp	.+6      	; 0x348 <I2C_read_bytes+0x7a>
	return 0;
     342:	bf df       	rcall	.-130    	; 0x2c2 <I2C_stop>
     344:	80 e0       	ldi	r24, 0x00	; 0
	
error:
	I2C_recover();													// clock out possibly stuck slave, reset master
     346:	02 c0       	rjmp	.+4      	; 0x34c <I2C_read_bytes+0x7e>
     348:	d5 de       	rcall	.-598    	; 0xf4 <I2C_recover>
	return 0xff;													// flag error
     34a:	8f ef       	ldi	r24, 0xFF	; 255
}
     34c:	df 91       	pop	r29
     34e:	cf 91       	pop	r28
     350:	0f 91       	pop	r16
     352:	ff 90       	pop	r15
     354:	ef 90       	pop	r14
     356:	df 90       	pop	r13
     358:	cf 90       	pop	r12
     35a:	08 95       	ret

0000035c <Setup>:
// Select "audio" input (0-2.5V)
void SelectAuIn(){
     VREF_CTRLA   = 0x22;    //0x22 for audio in/out (2.5V), 0x12 for temperature in, audio out (1.1V/2.5V)
     ADC0_CTRLA   &= ~(ADC_RESSEL_bm);
     ADC0_MUXPOS  = 0x07;    //Audio in: AIN7 at (0x07), Temperature: Internal sensor at (0x1E)
     adc0Chg = 1;
     35c:	cf 93       	push	r28
     35e:	df 93       	push	r29
     360:	f8 94       	cli
     362:	88 ed       	ldi	r24, 0xD8	; 216
     364:	84 bf       	out	0x34, r24	; 52
     366:	c1 e0       	ldi	r28, 0x01	; 1
     368:	c0 93 61 00 	sts	0x0061, r28	; 0x800061 <__TEXT_REGION_LENGTH__+0x700061>
     36c:	8a e4       	ldi	r24, 0x4A	; 74
     36e:	80 93 00 04 	sts	0x0400, r24	; 0x800400 <__TEXT_REGION_LENGTH__+0x700400>
     372:	8c e7       	ldi	r24, 0x7C	; 124
     374:	80 93 20 04 	sts	0x0420, r24	; 0x800420 <__TEXT_REGION_LENGTH__+0x700420>
     378:	9f e3       	ldi	r25, 0x3F	; 63
     37a:	90 93 40 04 	sts	0x0440, r25	; 0x800440 <__TEXT_REGION_LENGTH__+0x700440>
     37e:	e0 e5       	ldi	r30, 0x50	; 80
     380:	f4 e0       	ldi	r31, 0x04	; 4
     382:	80 81       	ld	r24, Z
     384:	80 68       	ori	r24, 0x80	; 128
     386:	80 83       	st	Z, r24
     388:	e1 e5       	ldi	r30, 0x51	; 81
     38a:	f4 e0       	ldi	r31, 0x04	; 4
     38c:	80 81       	ld	r24, Z
     38e:	80 68       	ori	r24, 0x80	; 128
     390:	80 83       	st	Z, r24
     392:	e2 e5       	ldi	r30, 0x52	; 82
     394:	f4 e0       	ldi	r31, 0x04	; 4
     396:	80 81       	ld	r24, Z
     398:	80 68       	ori	r24, 0x80	; 128
     39a:	80 83       	st	Z, r24
     39c:	e3 e5       	ldi	r30, 0x53	; 83
     39e:	f4 e0       	ldi	r31, 0x04	; 4
     3a0:	80 81       	ld	r24, Z
     3a2:	80 68       	ori	r24, 0x80	; 128
     3a4:	80 83       	st	Z, r24
     3a6:	e4 e5       	ldi	r30, 0x54	; 84
     3a8:	f4 e0       	ldi	r31, 0x04	; 4
     3aa:	80 81       	ld	r24, Z
     3ac:	80 68       	ori	r24, 0x80	; 128
     3ae:	80 83       	st	Z, r24
     3b0:	e5 e5       	ldi	r30, 0x55	; 85
     3b2:	f4 e0       	ldi	r31, 0x04	; 4
     3b4:	80 81       	ld	r24, Z
     3b6:	80 68       	ori	r24, 0x80	; 128
     3b8:	80 83       	st	Z, r24
     3ba:	e2 e3       	ldi	r30, 0x32	; 50
     3bc:	f4 e0       	ldi	r31, 0x04	; 4
     3be:	80 81       	ld	r24, Z
     3c0:	80 68       	ori	r24, 0x80	; 128
     3c2:	80 83       	st	Z, r24
     3c4:	e3 e3       	ldi	r30, 0x33	; 51
     3c6:	f4 e0       	ldi	r31, 0x04	; 4
     3c8:	80 81       	ld	r24, Z
     3ca:	80 68       	ori	r24, 0x80	; 128
     3cc:	80 83       	st	Z, r24
     3ce:	e4 e3       	ldi	r30, 0x34	; 52
     3d0:	f4 e0       	ldi	r31, 0x04	; 4
     3d2:	80 81       	ld	r24, Z
     3d4:	80 68       	ori	r24, 0x80	; 128
     3d6:	80 83       	st	Z, r24
     3d8:	e5 e3       	ldi	r30, 0x35	; 53
     3da:	f4 e0       	ldi	r31, 0x04	; 4
     3dc:	80 81       	ld	r24, Z
     3de:	80 68       	ori	r24, 0x80	; 128
     3e0:	80 83       	st	Z, r24
     3e2:	e6 e3       	ldi	r30, 0x36	; 54
     3e4:	f4 e0       	ldi	r31, 0x04	; 4
     3e6:	80 81       	ld	r24, Z
     3e8:	80 68       	ori	r24, 0x80	; 128
     3ea:	80 83       	st	Z, r24
     3ec:	c0 93 01 02 	sts	0x0201, r28	; 0x800201 <__TEXT_REGION_LENGTH__+0x700201>
     3f0:	d2 e0       	ldi	r29, 0x02	; 2
     3f2:	d0 93 05 04 	sts	0x0405, r29	; 0x800405 <__TEXT_REGION_LENGTH__+0x700405>
     3f6:	2b e5       	ldi	r18, 0x5B	; 91
     3f8:	31 e0       	ldi	r19, 0x01	; 1
     3fa:	20 93 08 08 	sts	0x0808, r18	; 0x800808 <__TEXT_REGION_LENGTH__+0x700808>
     3fe:	30 93 09 08 	sts	0x0809, r19	; 0x800809 <__TEXT_REGION_LENGTH__+0x700809>
     402:	80 ea       	ldi	r24, 0xA0	; 160
     404:	80 93 05 08 	sts	0x0805, r24	; 0x800805 <__TEXT_REGION_LENGTH__+0x700805>
     408:	80 ec       	ldi	r24, 0xC0	; 192
     40a:	80 93 06 08 	sts	0x0806, r24	; 0x800806 <__TEXT_REGION_LENGTH__+0x700806>
     40e:	83 e0       	ldi	r24, 0x03	; 3
     410:	80 93 07 08 	sts	0x0807, r24	; 0x800807 <__TEXT_REGION_LENGTH__+0x700807>
     414:	1c ba       	out	0x1c, r1	; 28
     416:	1d ba       	out	0x1d, r1	; 29
     418:	1e ba       	out	0x1e, r1	; 30
     41a:	1f ba       	out	0x1f, r1	; 31
     41c:	c0 93 03 0a 	sts	0x0A03, r28	; 0x800a03 <__TEXT_REGION_LENGTH__+0x700a03>
     420:	e0 e0       	ldi	r30, 0x00	; 0
     422:	fa e0       	ldi	r31, 0x0A	; 10
     424:	88 e0       	ldi	r24, 0x08	; 8
     426:	80 83       	st	Z, r24
     428:	90 93 02 02 	sts	0x0202, r25	; 0x800202 <__TEXT_REGION_LENGTH__+0x700202>
     42c:	87 e7       	ldi	r24, 0x77	; 119
     42e:	80 93 01 0a 	sts	0x0A01, r24	; 0x800a01 <__TEXT_REGION_LENGTH__+0x700a01>
     432:	c0 93 0a 0a 	sts	0x0A0A, r28	; 0x800a0a <__TEXT_REGION_LENGTH__+0x700a0a>
     436:	8b e0       	ldi	r24, 0x0B	; 11
     438:	80 93 05 0a 	sts	0x0A05, r24	; 0x800a05 <__TEXT_REGION_LENGTH__+0x700a05>
     43c:	80 81       	ld	r24, Z
     43e:	81 60       	ori	r24, 0x01	; 1
     440:	80 83       	st	Z, r24
     442:	85 e0       	ldi	r24, 0x05	; 5
     444:	80 93 40 0a 	sts	0x0A40, r24	; 0x800a40 <__TEXT_REGION_LENGTH__+0x700a40>
     448:	10 92 41 0a 	sts	0x0A41, r1	; 0x800a41 <__TEXT_REGION_LENGTH__+0x700a41>
     44c:	8f ef       	ldi	r24, 0xFF	; 255
     44e:	91 e0       	ldi	r25, 0x01	; 1
     450:	80 93 4c 0a 	sts	0x0A4C, r24	; 0x800a4c <__TEXT_REGION_LENGTH__+0x700a4c>
     454:	90 93 4d 0a 	sts	0x0A4D, r25	; 0x800a4d <__TEXT_REGION_LENGTH__+0x700a4d>
     458:	10 92 45 0a 	sts	0x0A45, r1	; 0x800a45 <__TEXT_REGION_LENGTH__+0x700a45>
     45c:	c0 93 50 0a 	sts	0x0A50, r28	; 0x800a50 <__TEXT_REGION_LENGTH__+0x700a50>
     460:	10 92 51 0a 	sts	0x0A51, r1	; 0x800a51 <__TEXT_REGION_LENGTH__+0x700a51>
     464:	8b e8       	ldi	r24, 0x8B	; 139
     466:	93 e0       	ldi	r25, 0x03	; 3
     468:	80 93 5c 0a 	sts	0x0A5C, r24	; 0x800a5c <__TEXT_REGION_LENGTH__+0x700a5c>
     46c:	90 93 5d 0a 	sts	0x0A5D, r25	; 0x800a5d <__TEXT_REGION_LENGTH__+0x700a5d>
     470:	c0 93 55 0a 	sts	0x0A55, r28	; 0x800a55 <__TEXT_REGION_LENGTH__+0x700a55>
     474:	21 de       	rcall	.-958    	; 0xb8 <I2C_init>
     476:	82 e1       	ldi	r24, 0x12	; 18
     478:	80 93 a0 00 	sts	0x00A0, r24	; 0x8000a0 <__TEXT_REGION_LENGTH__+0x7000a0>
     47c:	80 e2       	ldi	r24, 0x20	; 32
     47e:	80 93 a2 00 	sts	0x00A2, r24	; 0x8000a2 <__TEXT_REGION_LENGTH__+0x7000a2>
     482:	c0 93 a1 00 	sts	0x00A1, r28	; 0x8000a1 <__TEXT_REGION_LENGTH__+0x7000a1>
     486:	e0 e0       	ldi	r30, 0x00	; 0
     488:	f6 e0       	ldi	r31, 0x06	; 6
     48a:	86 e0       	ldi	r24, 0x06	; 6
     48c:	80 83       	st	Z, r24
     48e:	84 e4       	ldi	r24, 0x44	; 68
     490:	80 93 02 06 	sts	0x0602, r24	; 0x800602 <__TEXT_REGION_LENGTH__+0x700602>
     494:	8e e1       	ldi	r24, 0x1E	; 30
     496:	80 93 06 06 	sts	0x0606, r24	; 0x800606 <__TEXT_REGION_LENGTH__+0x700606>
     49a:	c0 93 0a 06 	sts	0x060A, r28	; 0x80060a <__TEXT_REGION_LENGTH__+0x70060a>
     49e:	80 81       	ld	r24, Z
     4a0:	81 60       	ori	r24, 0x01	; 1
     4a2:	80 83       	st	Z, r24
     4a4:	c0 93 08 06 	sts	0x0608, r28	; 0x800608 <__TEXT_REGION_LENGTH__+0x700608>
     4a8:	e0 e4       	ldi	r30, 0x40	; 64
     4aa:	f6 e0       	ldi	r31, 0x06	; 6
     4ac:	10 82       	st	Z, r1
     4ae:	d0 93 41 06 	sts	0x0641, r29	; 0x800641 <__TEXT_REGION_LENGTH__+0x700641>
     4b2:	82 e5       	ldi	r24, 0x52	; 82
     4b4:	80 93 42 06 	sts	0x0642, r24	; 0x800642 <__TEXT_REGION_LENGTH__+0x700642>
     4b8:	84 e0       	ldi	r24, 0x04	; 4
     4ba:	80 93 45 06 	sts	0x0645, r24	; 0x800645 <__TEXT_REGION_LENGTH__+0x700645>
     4be:	80 93 46 06 	sts	0x0646, r24	; 0x800646 <__TEXT_REGION_LENGTH__+0x700646>
     4c2:	c0 93 4a 06 	sts	0x064A, r28	; 0x80064a <__TEXT_REGION_LENGTH__+0x70064a>
     4c6:	80 81       	ld	r24, Z
     4c8:	81 60       	ori	r24, 0x01	; 1
     4ca:	80 83       	st	Z, r24
     4cc:	c0 93 48 06 	sts	0x0648, r28	; 0x800648 <__TEXT_REGION_LENGTH__+0x700648>
     4d0:	e0 ea       	ldi	r30, 0xA0	; 160
     4d2:	f6 e0       	ldi	r31, 0x06	; 6
     4d4:	80 e4       	ldi	r24, 0x40	; 64
     4d6:	80 83       	st	Z, r24
     4d8:	80 e8       	ldi	r24, 0x80	; 128
     4da:	80 93 a1 06 	sts	0x06A1, r24	; 0x8006a1 <__TEXT_REGION_LENGTH__+0x7006a1>
     4de:	80 81       	ld	r24, Z
     4e0:	81 60       	ori	r24, 0x01	; 1
     4e2:	80 83       	st	Z, r24
     4e4:	80 91 41 01 	lds	r24, 0x0141	; 0x800141 <__TEXT_REGION_LENGTH__+0x700141>
     4e8:	80 fd       	sbrc	r24, 0
     4ea:	fc cf       	rjmp	.-8      	; 0x4e4 <__LOCK_REGION_LENGTH__+0xe4>
     4ec:	80 e3       	ldi	r24, 0x30	; 48
     4ee:	80 93 40 01 	sts	0x0140, r24	; 0x800140 <__TEXT_REGION_LENGTH__+0x700140>
     4f2:	10 92 47 01 	sts	0x0147, r1	; 0x800147 <__TEXT_REGION_LENGTH__+0x700147>
     4f6:	80 91 41 01 	lds	r24, 0x0141	; 0x800141 <__TEXT_REGION_LENGTH__+0x700141>
     4fa:	82 fd       	sbrc	r24, 2
     4fc:	fc cf       	rjmp	.-8      	; 0x4f6 <__LOCK_REGION_LENGTH__+0xf6>
     4fe:	ea e4       	ldi	r30, 0x4A	; 74
     500:	f1 e0       	ldi	r31, 0x01	; 1
     502:	80 e0       	ldi	r24, 0x00	; 0
     504:	98 e7       	ldi	r25, 0x78	; 120
     506:	80 83       	st	Z, r24
     508:	91 83       	std	Z+1, r25	; 0x01
     50a:	80 91 48 01 	lds	r24, 0x0148	; 0x800148 <__TEXT_REGION_LENGTH__+0x700148>
     50e:	90 91 49 01 	lds	r25, 0x0149	; 0x800149 <__TEXT_REGION_LENGTH__+0x700149>
     512:	82 96       	adiw	r24, 0x22	; 34
     514:	60 81       	ld	r22, Z
     516:	71 81       	ldd	r23, Z+1	; 0x01
     518:	0e 94 95 10 	call	0x212a	; 0x212a <__udivmodhi4>
     51c:	80 93 f6 3a 	sts	0x3AF6, r24	; 0x803af6 <tmp16bit>
     520:	90 93 f7 3a 	sts	0x3AF7, r25	; 0x803af7 <tmp16bit+0x1>
     524:	80 91 41 01 	lds	r24, 0x0141	; 0x800141 <__TEXT_REGION_LENGTH__+0x700141>
     528:	83 fd       	sbrc	r24, 3
     52a:	fc cf       	rjmp	.-8      	; 0x524 <__LOCK_REGION_LENGTH__+0x124>
     52c:	80 91 f6 3a 	lds	r24, 0x3AF6	; 0x803af6 <tmp16bit>
     530:	90 91 f7 3a 	lds	r25, 0x3AF7	; 0x803af7 <tmp16bit+0x1>
     534:	80 93 4c 01 	sts	0x014C, r24	; 0x80014c <__TEXT_REGION_LENGTH__+0x70014c>
     538:	90 93 4d 01 	sts	0x014D, r25	; 0x80014d <__TEXT_REGION_LENGTH__+0x70014d>
     53c:	83 e0       	ldi	r24, 0x03	; 3
     53e:	80 93 42 01 	sts	0x0142, r24	; 0x800142 <__TEXT_REGION_LENGTH__+0x700142>
     542:	81 e0       	ldi	r24, 0x01	; 1
     544:	80 93 52 01 	sts	0x0152, r24	; 0x800152 <__TEXT_REGION_LENGTH__+0x700152>
     548:	88 e0       	ldi	r24, 0x08	; 8
     54a:	80 93 50 01 	sts	0x0150, r24	; 0x800150 <__TEXT_REGION_LENGTH__+0x700150>
     54e:	80 91 41 01 	lds	r24, 0x0141	; 0x800141 <__TEXT_REGION_LENGTH__+0x700141>
     552:	80 fd       	sbrc	r24, 0
     554:	fc cf       	rjmp	.-8      	; 0x54e <__LOCK_REGION_LENGTH__+0x14e>
     556:	e0 e4       	ldi	r30, 0x40	; 64
     558:	f1 e0       	ldi	r31, 0x01	; 1
     55a:	80 81       	ld	r24, Z
     55c:	81 60       	ori	r24, 0x01	; 1
     55e:	80 83       	st	Z, r24
     560:	e0 e5       	ldi	r30, 0x50	; 80
     562:	f1 e0       	ldi	r31, 0x01	; 1
     564:	80 81       	ld	r24, Z
     566:	81 60       	ori	r24, 0x01	; 1
     568:	80 83       	st	Z, r24
     56a:	e1 e6       	ldi	r30, 0x61	; 97
     56c:	fa e3       	ldi	r31, 0x3A	; 58
     56e:	10 82       	st	Z, r1
     570:	e0 93 a5 3a 	sts	0x3AA5, r30	; 0x803aa5 <serTxAddr>
     574:	f0 93 a6 3a 	sts	0x3AA6, r31	; 0x803aa6 <serTxAddr+0x1>
     578:	78 94       	sei
     57a:	df 91       	pop	r29
     57c:	cf 91       	pop	r28
     57e:	08 95       	ret

00000580 <__vector_8>:
     580:	1f 92       	push	r1
     582:	0f 92       	push	r0
     584:	0f b6       	in	r0, 0x3f	; 63
     586:	0f 92       	push	r0
     588:	11 24       	eor	r1, r1
     58a:	8f 93       	push	r24
     58c:	9f 93       	push	r25
     58e:	af 93       	push	r26
     590:	bf 93       	push	r27
     592:	ef 93       	push	r30
     594:	ff 93       	push	r31
     596:	87 e0       	ldi	r24, 0x07	; 7
     598:	80 93 46 04 	sts	0x0446, r24	; 0x800446 <__TEXT_REGION_LENGTH__+0x700446>
     59c:	84 e4       	ldi	r24, 0x44	; 68
     59e:	80 93 26 04 	sts	0x0426, r24	; 0x800426 <__TEXT_REGION_LENGTH__+0x700426>
     5a2:	ec b3       	in	r30, 0x1c	; 28
     5a4:	f0 e0       	ldi	r31, 0x00	; 0
     5a6:	ee 0f       	add	r30, r30
     5a8:	ff 1f       	adc	r31, r31
     5aa:	ee 0f       	add	r30, r30
     5ac:	ff 1f       	adc	r31, r31
     5ae:	ee 0f       	add	r30, r30
     5b0:	ff 1f       	adc	r31, r31
     5b2:	e4 53       	subi	r30, 0x34	; 52
     5b4:	f5 4c       	sbci	r31, 0xC5	; 197
     5b6:	a8 e2       	ldi	r26, 0x28	; 40
     5b8:	ba e0       	ldi	r27, 0x0A	; 10
     5ba:	96 e0       	ldi	r25, 0x06	; 6
     5bc:	81 91       	ld	r24, Z+
     5be:	8d 93       	st	X+, r24
     5c0:	9a 95       	dec	r25
     5c2:	e1 f7       	brne	.-8      	; 0x5bc <__vector_8+0x3c>
     5c4:	8b e0       	ldi	r24, 0x0B	; 11
     5c6:	80 93 05 0a 	sts	0x0A05, r24	; 0x800a05 <__TEXT_REGION_LENGTH__+0x700a05>
     5ca:	8c b3       	in	r24, 0x1c	; 28
     5cc:	83 30       	cpi	r24, 0x03	; 3
     5ce:	58 f4       	brcc	.+22     	; 0x5e6 <__vector_8+0x66>
     5d0:	8c b3       	in	r24, 0x1c	; 28
     5d2:	91 e0       	ldi	r25, 0x01	; 1
     5d4:	01 c0       	rjmp	.+2      	; 0x5d8 <__vector_8+0x58>
     5d6:	99 0f       	add	r25, r25
     5d8:	8a 95       	dec	r24
     5da:	ea f7       	brpl	.-6      	; 0x5d6 <__vector_8+0x56>
     5dc:	99 b9       	out	0x09, r25	; 9
     5de:	8c b3       	in	r24, 0x1c	; 28
     5e0:	83 95       	inc	r24
     5e2:	8c bb       	out	0x1c, r24	; 28
     5e4:	0a c0       	rjmp	.+20     	; 0x5fa <__vector_8+0x7a>
     5e6:	8c b3       	in	r24, 0x1c	; 28
     5e8:	83 30       	cpi	r24, 0x03	; 3
     5ea:	21 f4       	brne	.+8      	; 0x5f4 <__vector_8+0x74>
     5ec:	2a 9a       	sbi	0x05, 2	; 5
     5ee:	83 95       	inc	r24
     5f0:	8c bb       	out	0x1c, r24	; 28
     5f2:	03 c0       	rjmp	.+6      	; 0x5fa <__vector_8+0x7a>
     5f4:	2e 9a       	sbi	0x05, 6	; 5
     5f6:	88 27       	eor	r24, r24
     5f8:	8c bb       	out	0x1c, r24	; 28
     5fa:	80 91 4c 3a 	lds	r24, 0x3A4C	; 0x803a4c <timeout_I2C>
     5fe:	88 23       	and	r24, r24
     600:	29 f0       	breq	.+10     	; 0x60c <__vector_8+0x8c>
     602:	80 91 4c 3a 	lds	r24, 0x3A4C	; 0x803a4c <timeout_I2C>
     606:	81 50       	subi	r24, 0x01	; 1
     608:	80 93 4c 3a 	sts	0x3A4C, r24	; 0x803a4c <timeout_I2C>
     60c:	8f ef       	ldi	r24, 0xFF	; 255
     60e:	80 93 0b 0a 	sts	0x0A0B, r24	; 0x800a0b <__TEXT_REGION_LENGTH__+0x700a0b>
     612:	ff 91       	pop	r31
     614:	ef 91       	pop	r30
     616:	bf 91       	pop	r27
     618:	af 91       	pop	r26
     61a:	9f 91       	pop	r25
     61c:	8f 91       	pop	r24
     61e:	0f 90       	pop	r0
     620:	0f be       	out	0x3f, r0	; 63
     622:	0f 90       	pop	r0
     624:	1f 90       	pop	r1
     626:	18 95       	reti

00000628 <__vector_13>:
     628:	1f 92       	push	r1
     62a:	0f 92       	push	r0
     62c:	0f b6       	in	r0, 0x3f	; 63
     62e:	0f 92       	push	r0
     630:	11 24       	eor	r1, r1
     632:	8f 93       	push	r24
     634:	9f 93       	push	r25
     636:	ef 93       	push	r30
     638:	ff 93       	push	r31
     63a:	e0 91 a5 3a 	lds	r30, 0x3AA5	; 0x803aa5 <serTxAddr>
     63e:	f0 91 a6 3a 	lds	r31, 0x3AA6	; 0x803aa6 <serTxAddr+0x1>
     642:	80 81       	ld	r24, Z
     644:	88 23       	and	r24, r24
     646:	91 f0       	breq	.+36     	; 0x66c <__vector_13+0x44>
     648:	80 81       	ld	r24, Z
     64a:	80 93 02 08 	sts	0x0802, r24	; 0x800802 <__TEXT_REGION_LENGTH__+0x700802>
     64e:	80 91 a5 3a 	lds	r24, 0x3AA5	; 0x803aa5 <serTxAddr>
     652:	90 91 a6 3a 	lds	r25, 0x3AA6	; 0x803aa6 <serTxAddr+0x1>
     656:	01 96       	adiw	r24, 0x01	; 1
     658:	80 93 a5 3a 	sts	0x3AA5, r24	; 0x803aa5 <serTxAddr>
     65c:	90 93 a6 3a 	sts	0x3AA6, r25	; 0x803aa6 <serTxAddr+0x1>
     660:	e5 e0       	ldi	r30, 0x05	; 5
     662:	f8 e0       	ldi	r31, 0x08	; 8
     664:	80 81       	ld	r24, Z
     666:	80 62       	ori	r24, 0x20	; 32
     668:	80 83       	st	Z, r24
     66a:	05 c0       	rjmp	.+10     	; 0x676 <__vector_13+0x4e>
     66c:	81 e0       	ldi	r24, 0x01	; 1
     66e:	80 93 04 38 	sts	0x3804, r24	; 0x803804 <serTxDone>
     672:	10 92 45 0a 	sts	0x0A45, r1	; 0x800a45 <__TEXT_REGION_LENGTH__+0x700a45>
     676:	81 e0       	ldi	r24, 0x01	; 1
     678:	80 93 46 0a 	sts	0x0A46, r24	; 0x800a46 <__TEXT_REGION_LENGTH__+0x700a46>
     67c:	ff 91       	pop	r31
     67e:	ef 91       	pop	r30
     680:	9f 91       	pop	r25
     682:	8f 91       	pop	r24
     684:	0f 90       	pop	r0
     686:	0f be       	out	0x3f, r0	; 63
     688:	0f 90       	pop	r0
     68a:	1f 90       	pop	r1
     68c:	18 95       	reti

0000068e <__vector_14>:
     68e:	1f 92       	push	r1
     690:	0f 92       	push	r0
     692:	0f b6       	in	r0, 0x3f	; 63
     694:	0f 92       	push	r0
     696:	11 24       	eor	r1, r1
     698:	2f 93       	push	r18
     69a:	3f 93       	push	r19
     69c:	4f 93       	push	r20
     69e:	8f 93       	push	r24
     6a0:	9f 93       	push	r25
     6a2:	ef 93       	push	r30
     6a4:	ff 93       	push	r31
     6a6:	e0 91 02 38 	lds	r30, 0x3802	; 0x803802 <auSmpAddr>
     6aa:	f0 91 03 38 	lds	r31, 0x3803	; 0x803803 <auSmpAddr+0x1>
     6ae:	80 81       	ld	r24, Z
     6b0:	81 11       	cpse	r24, r1
     6b2:	08 c0       	rjmp	.+16     	; 0x6c4 <__vector_14+0x36>
     6b4:	80 91 00 38 	lds	r24, 0x3800	; 0x803800 <__data_start>
     6b8:	90 91 01 38 	lds	r25, 0x3801	; 0x803801 <__data_start+0x1>
     6bc:	80 93 02 38 	sts	0x3802, r24	; 0x803802 <auSmpAddr>
     6c0:	90 93 03 38 	sts	0x3803, r25	; 0x803803 <auSmpAddr+0x1>
     6c4:	e0 91 02 38 	lds	r30, 0x3802	; 0x803802 <auSmpAddr>
     6c8:	f0 91 03 38 	lds	r31, 0x3803	; 0x803803 <auSmpAddr+0x1>
     6cc:	80 81       	ld	r24, Z
     6ce:	88 23       	and	r24, r24
     6d0:	e1 f0       	breq	.+56     	; 0x70a <__vector_14+0x7c>
     6d2:	20 81       	ld	r18, Z
     6d4:	30 e0       	ldi	r19, 0x00	; 0
     6d6:	2f 57       	subi	r18, 0x7F	; 127
     6d8:	31 09       	sbc	r19, r1
     6da:	40 91 a2 3a 	lds	r20, 0x3AA2	; 0x803aa2 <auVolume>
     6de:	42 9f       	mul	r20, r18
     6e0:	c0 01       	movw	r24, r0
     6e2:	43 9f       	mul	r20, r19
     6e4:	90 0d       	add	r25, r0
     6e6:	11 24       	eor	r1, r1
     6e8:	89 2f       	mov	r24, r25
     6ea:	99 0f       	add	r25, r25
     6ec:	99 0b       	sbc	r25, r25
     6ee:	80 58       	subi	r24, 0x80	; 128
     6f0:	9f 4f       	sbci	r25, 0xFF	; 255
     6f2:	80 93 a1 06 	sts	0x06A1, r24	; 0x8006a1 <__TEXT_REGION_LENGTH__+0x7006a1>
     6f6:	80 91 02 38 	lds	r24, 0x3802	; 0x803802 <auSmpAddr>
     6fa:	90 91 03 38 	lds	r25, 0x3803	; 0x803803 <auSmpAddr+0x1>
     6fe:	01 96       	adiw	r24, 0x01	; 1
     700:	80 93 02 38 	sts	0x3802, r24	; 0x803802 <auSmpAddr>
     704:	90 93 03 38 	sts	0x3803, r25	; 0x803803 <auSmpAddr+0x1>
     708:	06 c0       	rjmp	.+12     	; 0x716 <__vector_14+0x88>
     70a:	80 e8       	ldi	r24, 0x80	; 128
     70c:	80 93 a1 06 	sts	0x06A1, r24	; 0x8006a1 <__TEXT_REGION_LENGTH__+0x7006a1>
     710:	81 e0       	ldi	r24, 0x01	; 1
     712:	80 93 f4 3a 	sts	0x3AF4, r24	; 0x803af4 <auPlayDone>
     716:	81 e0       	ldi	r24, 0x01	; 1
     718:	80 93 56 0a 	sts	0x0A56, r24	; 0x800a56 <__TEXT_REGION_LENGTH__+0x700a56>
     71c:	ff 91       	pop	r31
     71e:	ef 91       	pop	r30
     720:	9f 91       	pop	r25
     722:	8f 91       	pop	r24
     724:	4f 91       	pop	r20
     726:	3f 91       	pop	r19
     728:	2f 91       	pop	r18
     72a:	0f 90       	pop	r0
     72c:	0f be       	out	0x3f, r0	; 63
     72e:	0f 90       	pop	r0
     730:	1f 90       	pop	r1
     732:	18 95       	reti

00000734 <__vector_27>:
     734:	1f 92       	push	r1
     736:	0f 92       	push	r0
     738:	0f b6       	in	r0, 0x3f	; 63
     73a:	0f 92       	push	r0
     73c:	11 24       	eor	r1, r1
     73e:	8f 93       	push	r24
     740:	ef 93       	push	r30
     742:	ff 93       	push	r31
     744:	80 91 9c 38 	lds	r24, 0x389C	; 0x80389c <serRxDone>
     748:	81 11       	cpse	r24, r1
     74a:	1d c0       	rjmp	.+58     	; 0x786 <__vector_27+0x52>
     74c:	ed b3       	in	r30, 0x1d	; 29
     74e:	f0 e0       	ldi	r31, 0x00	; 0
     750:	80 91 00 08 	lds	r24, 0x0800	; 0x800800 <__TEXT_REGION_LENGTH__+0x700800>
     754:	ef 59       	subi	r30, 0x9F	; 159
     756:	f5 4c       	sbci	r31, 0xC5	; 197
     758:	80 83       	st	Z, r24
     75a:	ed b3       	in	r30, 0x1d	; 29
     75c:	f0 e0       	ldi	r31, 0x00	; 0
     75e:	ef 59       	subi	r30, 0x9F	; 159
     760:	f5 4c       	sbci	r31, 0xC5	; 197
     762:	80 81       	ld	r24, Z
     764:	8a 30       	cpi	r24, 0x0A	; 10
     766:	49 f4       	brne	.+18     	; 0x77a <__vector_27+0x46>
     768:	ed b3       	in	r30, 0x1d	; 29
     76a:	f0 e0       	ldi	r31, 0x00	; 0
     76c:	ef 59       	subi	r30, 0x9F	; 159
     76e:	f5 4c       	sbci	r31, 0xC5	; 197
     770:	10 82       	st	Z, r1
     772:	81 e0       	ldi	r24, 0x01	; 1
     774:	80 93 9c 38 	sts	0x389C, r24	; 0x80389c <serRxDone>
     778:	06 c0       	rjmp	.+12     	; 0x786 <__vector_27+0x52>
     77a:	8d b3       	in	r24, 0x1d	; 29
     77c:	80 34       	cpi	r24, 0x40	; 64
     77e:	18 f4       	brcc	.+6      	; 0x786 <__vector_27+0x52>
     780:	8d b3       	in	r24, 0x1d	; 29
     782:	8f 5f       	subi	r24, 0xFF	; 255
     784:	8d bb       	out	0x1d, r24	; 29
     786:	80 e8       	ldi	r24, 0x80	; 128
     788:	80 93 04 08 	sts	0x0804, r24	; 0x800804 <__TEXT_REGION_LENGTH__+0x700804>
     78c:	ff 91       	pop	r31
     78e:	ef 91       	pop	r30
     790:	8f 91       	pop	r24
     792:	0f 90       	pop	r0
     794:	0f be       	out	0x3f, r0	; 63
     796:	0f 90       	pop	r0
     798:	1f 90       	pop	r1
     79a:	18 95       	reti

0000079c <__vector_28>:
     79c:	1f 92       	push	r1
     79e:	0f 92       	push	r0
     7a0:	0f b6       	in	r0, 0x3f	; 63
     7a2:	0f 92       	push	r0
     7a4:	11 24       	eor	r1, r1
     7a6:	8f 93       	push	r24
     7a8:	ef 93       	push	r30
     7aa:	ff 93       	push	r31
     7ac:	10 92 4a 0a 	sts	0x0A4A, r1	; 0x800a4a <__TEXT_REGION_LENGTH__+0x700a4a>
     7b0:	10 92 4b 0a 	sts	0x0A4B, r1	; 0x800a4b <__TEXT_REGION_LENGTH__+0x700a4b>
     7b4:	81 e0       	ldi	r24, 0x01	; 1
     7b6:	80 93 45 0a 	sts	0x0A45, r24	; 0x800a45 <__TEXT_REGION_LENGTH__+0x700a45>
     7ba:	e5 e0       	ldi	r30, 0x05	; 5
     7bc:	f8 e0       	ldi	r31, 0x08	; 8
     7be:	80 81       	ld	r24, Z
     7c0:	8f 7d       	andi	r24, 0xDF	; 223
     7c2:	80 83       	st	Z, r24
     7c4:	ff 91       	pop	r31
     7c6:	ef 91       	pop	r30
     7c8:	8f 91       	pop	r24
     7ca:	0f 90       	pop	r0
     7cc:	0f be       	out	0x3f, r0	; 63
     7ce:	0f 90       	pop	r0
     7d0:	1f 90       	pop	r1
     7d2:	18 95       	reti

000007d4 <__vector_20>:
     7d4:	1f 92       	push	r1
     7d6:	0f 92       	push	r0
     7d8:	0f b6       	in	r0, 0x3f	; 63
     7da:	0f 92       	push	r0
     7dc:	11 24       	eor	r1, r1
     7de:	8f 93       	push	r24
     7e0:	ef 93       	push	r30
     7e2:	ff 93       	push	r31
     7e4:	80 91 90 38 	lds	r24, 0x3890	; 0x803890 <__data_end>
     7e8:	81 11       	cpse	r24, r1
     7ea:	15 c0       	rjmp	.+42     	; 0x816 <__vector_20+0x42>
     7ec:	8e b3       	in	r24, 0x1e	; 30
     7ee:	8f 5f       	subi	r24, 0xFF	; 255
     7f0:	8f 71       	andi	r24, 0x1F	; 31
     7f2:	8e bb       	out	0x1e, r24	; 30
     7f4:	80 91 06 06 	lds	r24, 0x0606	; 0x800606 <__TEXT_REGION_LENGTH__+0x700606>
     7f8:	8e 31       	cpi	r24, 0x1E	; 30
     7fa:	29 f4       	brne	.+10     	; 0x806 <__vector_20+0x32>
     7fc:	80 91 10 06 	lds	r24, 0x0610	; 0x800610 <__TEXT_REGION_LENGTH__+0x700610>
     800:	80 93 f5 3a 	sts	0x3AF5, r24	; 0x803af5 <adcTemp>
     804:	0a c0       	rjmp	.+20     	; 0x81a <__vector_20+0x46>
     806:	ee b3       	in	r30, 0x1e	; 30
     808:	f0 e0       	ldi	r31, 0x00	; 0
     80a:	80 91 10 06 	lds	r24, 0x0610	; 0x800610 <__TEXT_REGION_LENGTH__+0x700610>
     80e:	e4 55       	subi	r30, 0x54	; 84
     810:	f5 4c       	sbci	r31, 0xC5	; 197
     812:	80 83       	st	Z, r24
     814:	02 c0       	rjmp	.+4      	; 0x81a <__vector_20+0x46>
     816:	10 92 90 38 	sts	0x3890, r1	; 0x803890 <__data_end>
     81a:	81 e0       	ldi	r24, 0x01	; 1
     81c:	80 93 0b 06 	sts	0x060B, r24	; 0x80060b <__TEXT_REGION_LENGTH__+0x70060b>
     820:	ff 91       	pop	r31
     822:	ef 91       	pop	r30
     824:	8f 91       	pop	r24
     826:	0f 90       	pop	r0
     828:	0f be       	out	0x3f, r0	; 63
     82a:	0f 90       	pop	r0
     82c:	1f 90       	pop	r1
     82e:	18 95       	reti

00000830 <__vector_22>:
     830:	1f 92       	push	r1
     832:	0f 92       	push	r0
     834:	0f b6       	in	r0, 0x3f	; 63
     836:	0f 92       	push	r0
     838:	11 24       	eor	r1, r1
     83a:	8f 93       	push	r24
     83c:	9f 93       	push	r25
     83e:	80 91 46 06 	lds	r24, 0x0646	; 0x800646 <__TEXT_REGION_LENGTH__+0x700646>
     842:	81 11       	cpse	r24, r1
     844:	0c c0       	rjmp	.+24     	; 0x85e <__vector_22+0x2e>
     846:	80 91 50 06 	lds	r24, 0x0650	; 0x800650 <__TEXT_REGION_LENGTH__+0x700650>
     84a:	90 91 51 06 	lds	r25, 0x0651	; 0x800651 <__TEXT_REGION_LENGTH__+0x700651>
     84e:	80 93 a9 3a 	sts	0x3AA9, r24	; 0x803aa9 <adcPhot>
     852:	90 93 aa 3a 	sts	0x3AAA, r25	; 0x803aaa <adcPhot+0x1>
     856:	81 e0       	ldi	r24, 0x01	; 1
     858:	80 93 46 06 	sts	0x0646, r24	; 0x800646 <__TEXT_REGION_LENGTH__+0x700646>
     85c:	23 c0       	rjmp	.+70     	; 0x8a4 <__vector_22+0x74>
     85e:	80 91 46 06 	lds	r24, 0x0646	; 0x800646 <__TEXT_REGION_LENGTH__+0x700646>
     862:	81 30       	cpi	r24, 0x01	; 1
     864:	79 f4       	brne	.+30     	; 0x884 <__vector_22+0x54>
     866:	88 e0       	ldi	r24, 0x08	; 8
     868:	80 93 06 04 	sts	0x0406, r24	; 0x800406 <__TEXT_REGION_LENGTH__+0x700406>
     86c:	80 91 50 06 	lds	r24, 0x0650	; 0x800650 <__TEXT_REGION_LENGTH__+0x700650>
     870:	90 91 51 06 	lds	r25, 0x0651	; 0x800651 <__TEXT_REGION_LENGTH__+0x700651>
     874:	80 93 a7 3a 	sts	0x3AA7, r24	; 0x803aa7 <adcHall>
     878:	90 93 a8 3a 	sts	0x3AA8, r25	; 0x803aa8 <adcHall+0x1>
     87c:	84 e0       	ldi	r24, 0x04	; 4
     87e:	80 93 46 06 	sts	0x0646, r24	; 0x800646 <__TEXT_REGION_LENGTH__+0x700646>
     882:	10 c0       	rjmp	.+32     	; 0x8a4 <__vector_22+0x74>
     884:	80 91 50 06 	lds	r24, 0x0650	; 0x800650 <__TEXT_REGION_LENGTH__+0x700650>
     888:	90 91 51 06 	lds	r25, 0x0651	; 0x800651 <__TEXT_REGION_LENGTH__+0x700651>
     88c:	80 93 a3 3a 	sts	0x3AA3, r24	; 0x803aa3 <adcBtns>
     890:	90 93 a4 3a 	sts	0x3AA4, r25	; 0x803aa4 <adcBtns+0x1>
     894:	8f b3       	in	r24, 0x1f	; 31
     896:	8f 30       	cpi	r24, 0x0F	; 15
     898:	29 f4       	brne	.+10     	; 0x8a4 <__vector_22+0x74>
     89a:	10 92 46 06 	sts	0x0646, r1	; 0x800646 <__TEXT_REGION_LENGTH__+0x700646>
     89e:	88 e0       	ldi	r24, 0x08	; 8
     8a0:	80 93 05 04 	sts	0x0405, r24	; 0x800405 <__TEXT_REGION_LENGTH__+0x700405>
     8a4:	8f b3       	in	r24, 0x1f	; 31
     8a6:	90 e0       	ldi	r25, 0x00	; 0
     8a8:	01 96       	adiw	r24, 0x01	; 1
     8aa:	8f 70       	andi	r24, 0x0F	; 15
     8ac:	90 78       	andi	r25, 0x80	; 128
     8ae:	99 23       	and	r25, r25
     8b0:	24 f4       	brge	.+8      	; 0x8ba <__vector_22+0x8a>
     8b2:	01 97       	sbiw	r24, 0x01	; 1
     8b4:	80 6f       	ori	r24, 0xF0	; 240
     8b6:	9f 6f       	ori	r25, 0xFF	; 255
     8b8:	01 96       	adiw	r24, 0x01	; 1
     8ba:	8f bb       	out	0x1f, r24	; 31
     8bc:	81 e0       	ldi	r24, 0x01	; 1
     8be:	80 93 4b 06 	sts	0x064B, r24	; 0x80064b <__TEXT_REGION_LENGTH__+0x70064b>
     8c2:	9f 91       	pop	r25
     8c4:	8f 91       	pop	r24
     8c6:	0f 90       	pop	r0
     8c8:	0f be       	out	0x3f, r0	; 63
     8ca:	0f 90       	pop	r0
     8cc:	1f 90       	pop	r1
     8ce:	18 95       	reti

000008d0 <__vector_6>:
     8d0:	1f 92       	push	r1
     8d2:	0f 92       	push	r0
     8d4:	0f b6       	in	r0, 0x3f	; 63
     8d6:	0f 92       	push	r0
     8d8:	11 24       	eor	r1, r1
     8da:	5f 93       	push	r21
     8dc:	6f 93       	push	r22
     8de:	7f 93       	push	r23
     8e0:	8f 93       	push	r24
     8e2:	9f 93       	push	r25
     8e4:	af 93       	push	r26
     8e6:	bf 93       	push	r27
     8e8:	80 91 43 01 	lds	r24, 0x0143	; 0x800143 <__TEXT_REGION_LENGTH__+0x700143>
     8ec:	81 ff       	sbrs	r24, 1
     8ee:	28 c0       	rjmp	.+80     	; 0x940 <__vector_6+0x70>
     8f0:	80 91 9a 38 	lds	r24, 0x389A	; 0x80389a <buttonMark>
     8f4:	8f 3f       	cpi	r24, 0xFF	; 255
     8f6:	29 f0       	breq	.+10     	; 0x902 <__vector_6+0x32>
     8f8:	80 91 9a 38 	lds	r24, 0x389A	; 0x80389a <buttonMark>
     8fc:	8f 5f       	subi	r24, 0xFF	; 255
     8fe:	80 93 9a 38 	sts	0x389A, r24	; 0x80389a <buttonMark>
     902:	80 91 48 01 	lds	r24, 0x0148	; 0x800148 <__TEXT_REGION_LENGTH__+0x700148>
     906:	90 91 49 01 	lds	r25, 0x0149	; 0x800149 <__TEXT_REGION_LENGTH__+0x700149>
     90a:	82 96       	adiw	r24, 0x22	; 34
     90c:	60 91 4a 01 	lds	r22, 0x014A	; 0x80014a <__TEXT_REGION_LENGTH__+0x70014a>
     910:	70 91 4b 01 	lds	r23, 0x014B	; 0x80014b <__TEXT_REGION_LENGTH__+0x70014b>
     914:	0e 94 95 10 	call	0x212a	; 0x212a <__udivmodhi4>
     918:	80 93 f6 3a 	sts	0x3AF6, r24	; 0x803af6 <tmp16bit>
     91c:	90 93 f7 3a 	sts	0x3AF7, r25	; 0x803af7 <tmp16bit+0x1>
     920:	80 91 41 01 	lds	r24, 0x0141	; 0x800141 <__TEXT_REGION_LENGTH__+0x700141>
     924:	83 fd       	sbrc	r24, 3
     926:	fc cf       	rjmp	.-8      	; 0x920 <__vector_6+0x50>
     928:	80 91 f6 3a 	lds	r24, 0x3AF6	; 0x803af6 <tmp16bit>
     92c:	90 91 f7 3a 	lds	r25, 0x3AF7	; 0x803af7 <tmp16bit+0x1>
     930:	80 93 4c 01 	sts	0x014C, r24	; 0x80014c <__TEXT_REGION_LENGTH__+0x70014c>
     934:	90 93 4d 01 	sts	0x014D, r25	; 0x80014d <__TEXT_REGION_LENGTH__+0x70014d>
     938:	82 e0       	ldi	r24, 0x02	; 2
     93a:	80 93 43 01 	sts	0x0143, r24	; 0x800143 <__TEXT_REGION_LENGTH__+0x700143>
     93e:	0c c0       	rjmp	.+24     	; 0x958 <__vector_6+0x88>
     940:	80 91 9b 38 	lds	r24, 0x389B	; 0x80389b <minuteMark>
     944:	8f 3f       	cpi	r24, 0xFF	; 255
     946:	29 f0       	breq	.+10     	; 0x952 <__vector_6+0x82>
     948:	80 91 9b 38 	lds	r24, 0x389B	; 0x80389b <minuteMark>
     94c:	8f 5f       	subi	r24, 0xFF	; 255
     94e:	80 93 9b 38 	sts	0x389B, r24	; 0x80389b <minuteMark>
     952:	81 e0       	ldi	r24, 0x01	; 1
     954:	80 93 43 01 	sts	0x0143, r24	; 0x800143 <__TEXT_REGION_LENGTH__+0x700143>
     958:	bf 91       	pop	r27
     95a:	af 91       	pop	r26
     95c:	9f 91       	pop	r25
     95e:	8f 91       	pop	r24
     960:	7f 91       	pop	r23
     962:	6f 91       	pop	r22
     964:	5f 91       	pop	r21
     966:	0f 90       	pop	r0
     968:	0f be       	out	0x3f, r0	; 63
     96a:	0f 90       	pop	r0
     96c:	1f 90       	pop	r1
     96e:	18 95       	reti

00000970 <__vector_7>:
     970:	1f 92       	push	r1
     972:	0f 92       	push	r0
     974:	0f b6       	in	r0, 0x3f	; 63
     976:	0f 92       	push	r0
     978:	11 24       	eor	r1, r1
     97a:	8f 93       	push	r24
     97c:	81 e0       	ldi	r24, 0x01	; 1
     97e:	80 93 48 06 	sts	0x0648, r24	; 0x800648 <__TEXT_REGION_LENGTH__+0x700648>
     982:	80 93 53 01 	sts	0x0153, r24	; 0x800153 <__TEXT_REGION_LENGTH__+0x700153>
     986:	8f 91       	pop	r24
     988:	0f 90       	pop	r0
     98a:	0f be       	out	0x3f, r0	; 63
     98c:	0f 90       	pop	r0
     98e:	1f 90       	pop	r1
     990:	18 95       	reti

00000992 <EERead>:
     992:	db 01       	movw	r26, r22
     994:	90 91 02 10 	lds	r25, 0x1002	; 0x801002 <__TEXT_REGION_LENGTH__+0x701002>
     998:	91 fd       	sbrc	r25, 1
     99a:	fc cf       	rjmp	.-8      	; 0x994 <EERead+0x2>
     99c:	08 c0       	rjmp	.+16     	; 0x9ae <EERead+0x1c>
     99e:	e8 2f       	mov	r30, r24
     9a0:	f0 e0       	ldi	r31, 0x00	; 0
     9a2:	fc 5e       	subi	r31, 0xEC	; 236
     9a4:	90 81       	ld	r25, Z
     9a6:	9c 93       	st	X, r25
     9a8:	41 50       	subi	r20, 0x01	; 1
     9aa:	11 96       	adiw	r26, 0x01	; 1
     9ac:	8f 5f       	subi	r24, 0xFF	; 255
     9ae:	41 11       	cpse	r20, r1
     9b0:	f6 cf       	rjmp	.-20     	; 0x99e <EERead+0xc>
     9b2:	08 95       	ret

000009b4 <EEWrite>:
     9b4:	db 01       	movw	r26, r22
     9b6:	25 c0       	rjmp	.+74     	; 0xa02 <EEWrite+0x4e>
     9b8:	90 91 02 10 	lds	r25, 0x1002	; 0x801002 <__TEXT_REGION_LENGTH__+0x701002>
     9bc:	91 fd       	sbrc	r25, 1
     9be:	fc cf       	rjmp	.-8      	; 0x9b8 <EEWrite+0x4>
     9c0:	9d e9       	ldi	r25, 0x9D	; 157
     9c2:	94 bf       	out	0x34, r25	; 52
     9c4:	94 e0       	ldi	r25, 0x04	; 4
     9c6:	90 93 00 10 	sts	0x1000, r25	; 0x801000 <__TEXT_REGION_LENGTH__+0x701000>
     9ca:	20 e0       	ldi	r18, 0x00	; 0
     9cc:	0d c0       	rjmp	.+26     	; 0x9e8 <EEWrite+0x34>
     9ce:	98 2f       	mov	r25, r24
     9d0:	9f 71       	andi	r25, 0x1F	; 31
     9d2:	9f 31       	cpi	r25, 0x1F	; 31
     9d4:	09 f4       	brne	.+2      	; 0x9d8 <EEWrite+0x24>
     9d6:	21 e0       	ldi	r18, 0x01	; 1
     9d8:	e8 2f       	mov	r30, r24
     9da:	f0 e0       	ldi	r31, 0x00	; 0
     9dc:	fc 5e       	subi	r31, 0xEC	; 236
     9de:	9c 91       	ld	r25, X
     9e0:	90 83       	st	Z, r25
     9e2:	41 50       	subi	r20, 0x01	; 1
     9e4:	11 96       	adiw	r26, 0x01	; 1
     9e6:	8f 5f       	subi	r24, 0xFF	; 255
     9e8:	44 23       	and	r20, r20
     9ea:	11 f0       	breq	.+4      	; 0x9f0 <EEWrite+0x3c>
     9ec:	22 23       	and	r18, r18
     9ee:	79 f3       	breq	.-34     	; 0x9ce <EEWrite+0x1a>
     9f0:	9d e9       	ldi	r25, 0x9D	; 157
     9f2:	94 bf       	out	0x34, r25	; 52
     9f4:	93 e0       	ldi	r25, 0x03	; 3
     9f6:	90 93 00 10 	sts	0x1000, r25	; 0x801000 <__TEXT_REGION_LENGTH__+0x701000>
     9fa:	90 91 02 10 	lds	r25, 0x1002	; 0x801002 <__TEXT_REGION_LENGTH__+0x701002>
     9fe:	92 fd       	sbrc	r25, 2
     a00:	04 c0       	rjmp	.+8      	; 0xa0a <EEWrite+0x56>
     a02:	41 11       	cpse	r20, r1
     a04:	d9 cf       	rjmp	.-78     	; 0x9b8 <EEWrite+0x4>
     a06:	80 e0       	ldi	r24, 0x00	; 0
     a08:	08 95       	ret
     a0a:	81 e0       	ldi	r24, 0x01	; 1
     a0c:	08 95       	ret

00000a0e <SerSend>:
     a0e:	9c 01       	movw	r18, r24
     a10:	90 91 04 38 	lds	r25, 0x3804	; 0x803804 <serTxDone>
     a14:	99 23       	and	r25, r25
     a16:	59 f0       	breq	.+22     	; 0xa2e <SerSend+0x20>
     a18:	20 93 a5 3a 	sts	0x3AA5, r18	; 0x803aa5 <serTxAddr>
     a1c:	30 93 a6 3a 	sts	0x3AA6, r19	; 0x803aa6 <serTxAddr+0x1>
     a20:	10 92 04 38 	sts	0x3804, r1	; 0x803804 <serTxDone>
     a24:	81 e0       	ldi	r24, 0x01	; 1
     a26:	80 93 45 0a 	sts	0x0A45, r24	; 0x800a45 <__TEXT_REGION_LENGTH__+0x700a45>
     a2a:	80 e0       	ldi	r24, 0x00	; 0
     a2c:	08 95       	ret
     a2e:	81 e0       	ldi	r24, 0x01	; 1
     a30:	08 95       	ret

00000a32 <SerSpeed>:
     a32:	81 11       	cpse	r24, r1
     a34:	01 c0       	rjmp	.+2      	; 0xa38 <SerSpeed+0x6>
     a36:	81 e0       	ldi	r24, 0x01	; 1
     a38:	20 e0       	ldi	r18, 0x00	; 0
     a3a:	30 e0       	ldi	r19, 0x00	; 0
     a3c:	38 2f       	mov	r19, r24
     a3e:	30 95       	com	r19
     a40:	21 50       	subi	r18, 0x01	; 1
     a42:	3f 4f       	sbci	r19, 0xFF	; 255
     a44:	20 93 4c 0a 	sts	0x0A4C, r18	; 0x800a4c <__TEXT_REGION_LENGTH__+0x700a4c>
     a48:	30 93 4d 0a 	sts	0x0A4D, r19	; 0x800a4d <__TEXT_REGION_LENGTH__+0x700a4d>
     a4c:	08 95       	ret

00000a4e <CheckButtons>:
};

// Returns button combination (4LSB) and number of consecutive times this combination is detected. First read should always be ignored! 
uint8_t CheckButtons(uint8_t previousValue){
    uint8_t bADC = (uint8_t)(adcBtns>>4);
     a4e:	20 91 a3 3a 	lds	r18, 0x3AA3	; 0x803aa3 <adcBtns>
     a52:	30 91 a4 3a 	lds	r19, 0x3AA4	; 0x803aa4 <adcBtns+0x1>
     a56:	32 95       	swap	r19
     a58:	22 95       	swap	r18
     a5a:	2f 70       	andi	r18, 0x0F	; 15
     a5c:	23 27       	eor	r18, r19
     a5e:	3f 70       	andi	r19, 0x0F	; 15
     a60:	23 27       	eor	r18, r19
    uint8_t bNibble = 0x0F;     //MSB to LSB: Bottom left, top left, top right, bottom right, 0F is error
    
    switch(bADC){
     a62:	33 27       	eor	r19, r19
     a64:	2c 35       	cpi	r18, 0x5C	; 92
     a66:	31 05       	cpc	r19, r1
     a68:	c0 f4       	brcc	.+48     	; 0xa9a <CheckButtons+0x4c>
     a6a:	23 35       	cpi	r18, 0x53	; 83
     a6c:	31 05       	cpc	r19, r1
     a6e:	a0 f5       	brcc	.+104    	; 0xad8 <CheckButtons+0x8a>
     a70:	22 33       	cpi	r18, 0x32	; 50
     a72:	31 05       	cpc	r19, r1
     a74:	48 f4       	brcc	.+18     	; 0xa88 <CheckButtons+0x3a>
     a76:	2d 32       	cpi	r18, 0x2D	; 45
     a78:	31 05       	cpc	r19, r1
     a7a:	40 f5       	brcc	.+80     	; 0xacc <CheckButtons+0x7e>
     a7c:	23 52       	subi	r18, 0x23	; 35
     a7e:	31 09       	sbc	r19, r1
     a80:	25 30       	cpi	r18, 0x05	; 5
     a82:	31 05       	cpc	r19, r1
     a84:	98 f1       	brcs	.+102    	; 0xaec <CheckButtons+0x9e>
     a86:	20 c0       	rjmp	.+64     	; 0xac8 <CheckButtons+0x7a>
     a88:	27 33       	cpi	r18, 0x37	; 55
     a8a:	31 05       	cpc	r19, r1
     a8c:	08 f1       	brcs	.+66     	; 0xad0 <CheckButtons+0x82>
     a8e:	2e 53       	subi	r18, 0x3E	; 62
     a90:	31 09       	sbc	r19, r1
     a92:	27 30       	cpi	r18, 0x07	; 7
     a94:	31 05       	cpc	r19, r1
     a96:	f0 f0       	brcs	.+60     	; 0xad4 <CheckButtons+0x86>
     a98:	17 c0       	rjmp	.+46     	; 0xac8 <CheckButtons+0x7a>
     a9a:	2a 38       	cpi	r18, 0x8A	; 138
     a9c:	31 05       	cpc	r19, r1
     a9e:	48 f4       	brcc	.+18     	; 0xab2 <CheckButtons+0x64>
     aa0:	29 37       	cpi	r18, 0x79	; 121
     aa2:	31 05       	cpc	r19, r1
     aa4:	e8 f4       	brcc	.+58     	; 0xae0 <CheckButtons+0x92>
     aa6:	23 56       	subi	r18, 0x63	; 99
     aa8:	31 09       	sbc	r19, r1
     aaa:	2b 30       	cpi	r18, 0x0B	; 11
     aac:	31 05       	cpc	r19, r1
     aae:	b0 f0       	brcs	.+44     	; 0xadc <CheckButtons+0x8e>
     ab0:	0b c0       	rjmp	.+22     	; 0xac8 <CheckButtons+0x7a>
     ab2:	22 3a       	cpi	r18, 0xA2	; 162
     ab4:	31 05       	cpc	r19, r1
     ab6:	40 f0       	brcs	.+16     	; 0xac8 <CheckButtons+0x7a>
     ab8:	2b 3b       	cpi	r18, 0xBB	; 187
     aba:	31 05       	cpc	r19, r1
     abc:	98 f0       	brcs	.+38     	; 0xae4 <CheckButtons+0x96>
     abe:	20 5f       	subi	r18, 0xF0	; 240
     ac0:	31 09       	sbc	r19, r1
     ac2:	20 31       	cpi	r18, 0x10	; 16
     ac4:	31 05       	cpc	r19, r1
     ac6:	80 f0       	brcs	.+32     	; 0xae8 <CheckButtons+0x9a>
};

// Returns button combination (4LSB) and number of consecutive times this combination is detected. First read should always be ignored! 
uint8_t CheckButtons(uint8_t previousValue){
    uint8_t bADC = (uint8_t)(adcBtns>>4);
    uint8_t bNibble = 0x0F;     //MSB to LSB: Bottom left, top left, top right, bottom right, 0F is error
     ac8:	9f e0       	ldi	r25, 0x0F	; 15
     aca:	11 c0       	rjmp	.+34     	; 0xaee <CheckButtons+0xa0>
        case 35 ... 39:          //37: Both left
        bNibble = 0b1100;
        break;

        case 45 ... 49:          //47: Both bottom
        bNibble = 0b1001;
     acc:	99 e0       	ldi	r25, 0x09	; 9
        break;
     ace:	0f c0       	rjmp	.+30     	; 0xaee <CheckButtons+0xa0>

        case 50 ... 54:          //52: Bottom left
        bNibble = 0b1000;
     ad0:	98 e0       	ldi	r25, 0x08	; 8
        break;
     ad2:	0d c0       	rjmp	.+26     	; 0xaee <CheckButtons+0xa0>

        case 62 ... 68:          //65: Both top
        bNibble = 0b0110;
     ad4:	96 e0       	ldi	r25, 0x06	; 6
        break;
     ad6:	0b c0       	rjmp	.+22     	; 0xaee <CheckButtons+0xa0>

        case 83 ... 91:          //87: Top left
        bNibble = 0b0100;
     ad8:	94 e0       	ldi	r25, 0x04	; 4
        break;
     ada:	09 c0       	rjmp	.+18     	; 0xaee <CheckButtons+0xa0>

        case 99 ... 109:         //104: Both right
        bNibble = 0b0011;
     adc:	93 e0       	ldi	r25, 0x03	; 3
        break;
     ade:	07 c0       	rjmp	.+14     	; 0xaee <CheckButtons+0xa0>

        case 121 ... 137:        //129: Top right
        bNibble = 0b0010;
     ae0:	92 e0       	ldi	r25, 0x02	; 2
        break;
     ae2:	05 c0       	rjmp	.+10     	; 0xaee <CheckButtons+0xa0>

        case 162 ... 186:        //174: Bottom right
        bNibble = 0b0001;
     ae4:	91 e0       	ldi	r25, 0x01	; 1
        break;
     ae6:	03 c0       	rjmp	.+6      	; 0xaee <CheckButtons+0xa0>

        case 240 ... 255:        //255: No button pressed
        bNibble = 0b0000;
     ae8:	90 e0       	ldi	r25, 0x00	; 0
        break;
     aea:	01 c0       	rjmp	.+2      	; 0xaee <CheckButtons+0xa0>
        case 28 ... 32:         //30: All buttons pressed
        bNibble = 0b1111;
        break;

        case 35 ... 39:          //37: Both left
        bNibble = 0b1100;
     aec:	9c e0       	ldi	r25, 0x0C	; 12
        case 240 ... 255:        //255: No button pressed
        bNibble = 0b0000;
        break;
    }

    if ((previousValue&0x0F)==bNibble){
     aee:	28 2f       	mov	r18, r24
     af0:	2f 70       	andi	r18, 0x0F	; 15
     af2:	92 13       	cpse	r25, r18
     af4:	08 c0       	rjmp	.+16     	; 0xb06 <CheckButtons+0xb8>
        if ((previousValue&0xF0) < 0xF0) previousValue += 0x10; //Same value? Increase time nibble
     af6:	28 2f       	mov	r18, r24
     af8:	20 7f       	andi	r18, 0xF0	; 240
     afa:	30 e0       	ldi	r19, 0x00	; 0
     afc:	20 3f       	cpi	r18, 0xF0	; 240
     afe:	31 05       	cpc	r19, r1
     b00:	3c f4       	brge	.+14     	; 0xb10 <CheckButtons+0xc2>
     b02:	80 5f       	subi	r24, 0xF0	; 240
     b04:	08 95       	ret
        return previousValue;       
    } else if (bNibble == 0) return 0xFF; //Buttons released, 0xFF triggers readout, previousValue holds last button value.
     b06:	91 11       	cpse	r25, r1
     b08:	02 c0       	rjmp	.+4      	; 0xb0e <CheckButtons+0xc0>
     b0a:	8f ef       	ldi	r24, 0xFF	; 255
     b0c:	08 95       	ret
              else return bNibble;  //New value  
     b0e:	89 2f       	mov	r24, r25
}
     b10:	08 95       	ret

00000b12 <lfsr>:

uint8_t lfsr(){
    static uint16_t state = 0xd401;
    state ^= (state << 13);
     b12:	20 91 85 38 	lds	r18, 0x3885	; 0x803885 <state.3863>
     b16:	30 91 86 38 	lds	r19, 0x3886	; 0x803886 <state.3863+0x1>
     b1a:	c9 01       	movw	r24, r18
     b1c:	98 2f       	mov	r25, r24
     b1e:	88 27       	eor	r24, r24
     b20:	92 95       	swap	r25
     b22:	99 0f       	add	r25, r25
     b24:	90 7e       	andi	r25, 0xE0	; 224
     b26:	82 27       	eor	r24, r18
     b28:	93 27       	eor	r25, r19
    state ^= (state >> 9);
     b2a:	9c 01       	movw	r18, r24
     b2c:	23 2f       	mov	r18, r19
     b2e:	33 27       	eor	r19, r19
     b30:	26 95       	lsr	r18
     b32:	82 27       	eor	r24, r18
     b34:	93 27       	eor	r25, r19
    state ^= (state << 7);
     b36:	9c 01       	movw	r18, r24
     b38:	36 95       	lsr	r19
     b3a:	32 2f       	mov	r19, r18
     b3c:	22 27       	eor	r18, r18
     b3e:	37 95       	ror	r19
     b40:	27 95       	ror	r18
     b42:	82 27       	eor	r24, r18
     b44:	93 27       	eor	r25, r19
     b46:	80 93 85 38 	sts	0x3885, r24	; 0x803885 <state.3863>
     b4a:	90 93 86 38 	sts	0x3886, r25	; 0x803886 <state.3863+0x1>
    return (state & 0xff);
}
     b4e:	08 95       	ret

00000b50 <floatSpeed>:

void floatSpeed(uint8_t bits, uint16_t min, uint16_t max){
     b50:	df 92       	push	r13
     b52:	ef 92       	push	r14
     b54:	ff 92       	push	r15
     b56:	0f 93       	push	r16
     b58:	1f 93       	push	r17
     b5a:	cf 93       	push	r28
     b5c:	df 93       	push	r29
     b5e:	8b 01       	movw	r16, r22
     b60:	7a 01       	movw	r14, r20
    uint16_t val = TCB1_CCMP;
     b62:	c0 91 5c 0a 	lds	r28, 0x0A5C	; 0x800a5c <__TEXT_REGION_LENGTH__+0x700a5c>
     b66:	d0 91 5d 0a 	lds	r29, 0x0A5D	; 0x800a5d <__TEXT_REGION_LENGTH__+0x700a5d>
    bits = mask[(bits-1)&0x07];
     b6a:	e8 2f       	mov	r30, r24
     b6c:	f0 e0       	ldi	r31, 0x00	; 0
     b6e:	31 97       	sbiw	r30, 0x01	; 1
     b70:	e7 70       	andi	r30, 0x07	; 7
     b72:	ff 27       	eor	r31, r31
     b74:	e9 57       	subi	r30, 0x79	; 121
     b76:	f7 4c       	sbci	r31, 0xC7	; 199
     b78:	d0 80       	ld	r13, Z
    val += (lfsr()&bits);
     b7a:	cb df       	rcall	.-106    	; 0xb12 <lfsr>
     b7c:	8d 21       	and	r24, r13
     b7e:	c8 0f       	add	r28, r24
     b80:	d1 1d       	adc	r29, r1
    val -= (lfsr()&bits);
     b82:	c7 df       	rcall	.-114    	; 0xb12 <lfsr>
     b84:	8d 21       	and	r24, r13
     b86:	c8 1b       	sub	r28, r24
     b88:	d1 09       	sbc	r29, r1
     b8a:	ec 16       	cp	r14, r28
    if (val > max) val = max;    //0x038B is normal rate, for wind we need to be a bit slower
     b8c:	fd 06       	cpc	r15, r29
     b8e:	08 f0       	brcs	.+2      	; 0xb92 <floatSpeed+0x42>
     b90:	7e 01       	movw	r14, r28

void floatSpeed(uint8_t bits, uint16_t min, uint16_t max){
    uint16_t val = TCB1_CCMP;
    bits = mask[(bits-1)&0x07];
    val += (lfsr()&bits);
    val -= (lfsr()&bits);
     b92:	e0 16       	cp	r14, r16
    if (val > max) val = max;    //0x038B is normal rate, for wind we need to be a bit slower
    if (val < min) val = min;  
     b94:	f1 06       	cpc	r15, r17
     b96:	08 f4       	brcc	.+2      	; 0xb9a <floatSpeed+0x4a>
     b98:	78 01       	movw	r14, r16
     b9a:	e0 92 5c 0a 	sts	0x0A5C, r14	; 0x800a5c <__TEXT_REGION_LENGTH__+0x700a5c>
    TCB1_CCMP = val;
     b9e:	f0 92 5d 0a 	sts	0x0A5D, r15	; 0x800a5d <__TEXT_REGION_LENGTH__+0x700a5d>
     ba2:	df 91       	pop	r29
}
     ba4:	cf 91       	pop	r28
     ba6:	1f 91       	pop	r17
     ba8:	0f 91       	pop	r16
     baa:	ff 90       	pop	r15
     bac:	ef 90       	pop	r14
     bae:	df 90       	pop	r13
     bb0:	08 95       	ret

00000bb2 <floatAround>:
     bb2:	0f 93       	push	r16

uint8_t floatAround(uint8_t sample, uint8_t bits, uint8_t min, uint8_t max){
     bb4:	1f 93       	push	r17
     bb6:	cf 93       	push	r28
     bb8:	df 93       	push	r29
     bba:	c8 2f       	mov	r28, r24
     bbc:	04 2f       	mov	r16, r20
     bbe:	12 2f       	mov	r17, r18
    bits = mask[(bits-1)&0x07];
     bc0:	e6 2f       	mov	r30, r22
     bc2:	f0 e0       	ldi	r31, 0x00	; 0
     bc4:	31 97       	sbiw	r30, 0x01	; 1
     bc6:	e7 70       	andi	r30, 0x07	; 7
     bc8:	ff 27       	eor	r31, r31
     bca:	e9 57       	subi	r30, 0x79	; 121
     bcc:	f7 4c       	sbci	r31, 0xC7	; 199
     bce:	d0 81       	ld	r29, Z
    sample += lfsr()&bits;
     bd0:	a0 df       	rcall	.-192    	; 0xb12 <lfsr>
     bd2:	8d 23       	and	r24, r29
     bd4:	c8 0f       	add	r28, r24
    sample -= lfsr()&bits;
     bd6:	9d df       	rcall	.-198    	; 0xb12 <lfsr>
     bd8:	8d 23       	and	r24, r29
     bda:	c8 1b       	sub	r28, r24
     bdc:	8c 2f       	mov	r24, r28
     bde:	11 23       	and	r17, r17
    if (max){
     be0:	31 f0       	breq	.+12     	; 0xbee <floatAround+0x3c>
     be2:	1c 17       	cp	r17, r28
        if (sample > max) sample = max;
     be4:	08 f4       	brcc	.+2      	; 0xbe8 <floatAround+0x36>
     be6:	81 2f       	mov	r24, r17
     be8:	80 17       	cp	r24, r16
        if (sample < min) sample = min;
     bea:	08 f4       	brcc	.+2      	; 0xbee <floatAround+0x3c>
     bec:	80 2f       	mov	r24, r16
     bee:	df 91       	pop	r29
    }
    return sample;
}
     bf0:	cf 91       	pop	r28
     bf2:	1f 91       	pop	r17
     bf4:	0f 91       	pop	r16
     bf6:	08 95       	ret

00000bf8 <SaveGameState>:
     bf8:	1f 93       	push	r17

//Save changed data to EEPROM
uint8_t SaveGameState(){
     bfa:	cf 93       	push	r28
     bfc:	df 93       	push	r29
     bfe:	cd b7       	in	r28, 0x3d	; 61
     c00:	de b7       	in	r29, 0x3e	; 62
     c02:	64 97       	sbiw	r28, 0x14	; 20
     c04:	cd bf       	out	0x3d, r28	; 61
     c06:	de bf       	out	0x3e, r29	; 62
    uint8_t gameCheck[BOOTCHK];

    //Read all data up to the boot/check result address from EEPROM
    EERead(0, &gameCheck[0], BOOTCHK);
     c08:	44 e1       	ldi	r20, 0x14	; 20
     c0a:	be 01       	movw	r22, r28
     c0c:	6f 5f       	subi	r22, 0xFF	; 255
     c0e:	7f 4f       	sbci	r23, 0xFF	; 255
     c10:	80 e0       	ldi	r24, 0x00	; 0
     c12:	bf de       	rcall	.-642    	; 0x992 <EERead>

    //Check game status bits
    for (uint8_t x=0; x<STATLEN; ++x){
     c14:	10 e0       	ldi	r17, 0x00	; 0
     c16:	17 c0       	rjmp	.+46     	; 0xc46 <SaveGameState+0x4e>
        if (gameState[x] != gameCheck[x]){
     c18:	61 2f       	mov	r22, r17
     c1a:	70 e0       	ldi	r23, 0x00	; 0
     c1c:	fb 01       	movw	r30, r22
     c1e:	e3 5b       	subi	r30, 0xB3	; 179
     c20:	f5 4c       	sbci	r31, 0xC5	; 197
     c22:	90 81       	ld	r25, Z
     c24:	e1 e0       	ldi	r30, 0x01	; 1
     c26:	f0 e0       	ldi	r31, 0x00	; 0
     c28:	ec 0f       	add	r30, r28
     c2a:	fd 1f       	adc	r31, r29
     c2c:	e6 0f       	add	r30, r22
     c2e:	f7 1f       	adc	r31, r23
     c30:	80 81       	ld	r24, Z
     c32:	98 17       	cp	r25, r24
     c34:	39 f0       	breq	.+14     	; 0xc44 <SaveGameState+0x4c>
            if (EEWrite(x, &gameState[x], 1)) return 1;
     c36:	63 5b       	subi	r22, 0xB3	; 179
     c38:	75 4c       	sbci	r23, 0xC5	; 197
     c3a:	41 e0       	ldi	r20, 0x01	; 1
     c3c:	81 2f       	mov	r24, r17
     c3e:	ba de       	rcall	.-652    	; 0x9b4 <EEWrite>
     c40:	81 11       	cpse	r24, r1
     c42:	39 c0       	rjmp	.+114    	; 0xcb6 <SaveGameState+0xbe>

    //Read all data up to the boot/check result address from EEPROM
    EERead(0, &gameCheck[0], BOOTCHK);

    //Check game status bits
    for (uint8_t x=0; x<STATLEN; ++x){
     c44:	1f 5f       	subi	r17, 0xFF	; 255
     c46:	10 31       	cpi	r17, 0x10	; 16
     c48:	38 f3       	brcs	.-50     	; 0xc18 <SaveGameState+0x20>
            if (EEWrite(x, &gameState[x], 1)) return 1;
        }
    }

    //Check the inventory too
    gameState[INVADDR] = (uint8_t)(inventory[0]>>8);
     c4a:	a6 e9       	ldi	r26, 0x96	; 150
     c4c:	b8 e3       	ldi	r27, 0x38	; 56
     c4e:	2d 91       	ld	r18, X+
     c50:	3c 91       	ld	r19, X
     c52:	11 97       	sbiw	r26, 0x01	; 1
     c54:	ed e4       	ldi	r30, 0x4D	; 77
     c56:	fa e3       	ldi	r31, 0x3A	; 58
     c58:	30 8b       	std	Z+16, r19	; 0x10
    gameState[INVADDR+1] = (uint8_t)(inventory[0]&0xff);
     c5a:	21 8b       	std	Z+17, r18	; 0x11
    gameState[INVADDR+2] = (uint8_t)(inventory[1]>>8);
     c5c:	12 96       	adiw	r26, 0x02	; 2
     c5e:	8c 91       	ld	r24, X
     c60:	12 97       	sbiw	r26, 0x02	; 2
     c62:	13 96       	adiw	r26, 0x03	; 3
     c64:	9c 91       	ld	r25, X
     c66:	92 8b       	std	Z+18, r25	; 0x12
    gameState[INVADDR+3] = (uint8_t)(inventory[1]&0xff);
     c68:	83 8b       	std	Z+19, r24	; 0x13
    if (inventory[0] != (gameCheck[INVADDR]<<8|gameCheck[INVADDR+1])) {
     c6a:	89 89       	ldd	r24, Y+17	; 0x11
     c6c:	90 e0       	ldi	r25, 0x00	; 0
     c6e:	98 2f       	mov	r25, r24
     c70:	88 27       	eor	r24, r24
     c72:	4a 89       	ldd	r20, Y+18	; 0x12
     c74:	84 2b       	or	r24, r20
     c76:	28 17       	cp	r18, r24
     c78:	39 07       	cpc	r19, r25
     c7a:	39 f0       	breq	.+14     	; 0xc8a <SaveGameState+0x92>
        if (EEWrite(INVADDR, &gameState[INVADDR], 2)) return 1;
     c7c:	42 e0       	ldi	r20, 0x02	; 2
     c7e:	6d e5       	ldi	r22, 0x5D	; 93
     c80:	7a e3       	ldi	r23, 0x3A	; 58
     c82:	80 e1       	ldi	r24, 0x10	; 16
     c84:	97 de       	rcall	.-722    	; 0x9b4 <EEWrite>
     c86:	81 11       	cpse	r24, r1
     c88:	18 c0       	rjmp	.+48     	; 0xcba <SaveGameState+0xc2>
    }
    if (inventory[1] != (gameCheck[INVADDR+2]<<8|gameCheck[INVADDR+3])) {
     c8a:	20 91 98 38 	lds	r18, 0x3898	; 0x803898 <inventory+0x2>
     c8e:	30 91 99 38 	lds	r19, 0x3899	; 0x803899 <inventory+0x3>
     c92:	8b 89       	ldd	r24, Y+19	; 0x13
     c94:	90 e0       	ldi	r25, 0x00	; 0
     c96:	98 2f       	mov	r25, r24
     c98:	88 27       	eor	r24, r24
     c9a:	4c 89       	ldd	r20, Y+20	; 0x14
     c9c:	84 2b       	or	r24, r20
     c9e:	28 17       	cp	r18, r24
     ca0:	39 07       	cpc	r19, r25
     ca2:	69 f0       	breq	.+26     	; 0xcbe <SaveGameState+0xc6>
        if (EEWrite(INVADDR+2, &gameState[INVADDR+2], 2)) return 1;
     ca4:	42 e0       	ldi	r20, 0x02	; 2
     ca6:	6f e5       	ldi	r22, 0x5F	; 95
     ca8:	7a e3       	ldi	r23, 0x3A	; 58
     caa:	82 e1       	ldi	r24, 0x12	; 18
     cac:	83 de       	rcall	.-762    	; 0x9b4 <EEWrite>
     cae:	88 23       	and	r24, r24
     cb0:	39 f0       	breq	.+14     	; 0xcc0 <SaveGameState+0xc8>
     cb2:	81 e0       	ldi	r24, 0x01	; 1
     cb4:	05 c0       	rjmp	.+10     	; 0xcc0 <SaveGameState+0xc8>
    EERead(0, &gameCheck[0], BOOTCHK);

    //Check game status bits
    for (uint8_t x=0; x<STATLEN; ++x){
        if (gameState[x] != gameCheck[x]){
            if (EEWrite(x, &gameState[x], 1)) return 1;
     cb6:	81 e0       	ldi	r24, 0x01	; 1
     cb8:	03 c0       	rjmp	.+6      	; 0xcc0 <SaveGameState+0xc8>
    gameState[INVADDR] = (uint8_t)(inventory[0]>>8);
    gameState[INVADDR+1] = (uint8_t)(inventory[0]&0xff);
    gameState[INVADDR+2] = (uint8_t)(inventory[1]>>8);
    gameState[INVADDR+3] = (uint8_t)(inventory[1]&0xff);
    if (inventory[0] != (gameCheck[INVADDR]<<8|gameCheck[INVADDR+1])) {
        if (EEWrite(INVADDR, &gameState[INVADDR], 2)) return 1;
     cba:	81 e0       	ldi	r24, 0x01	; 1
     cbc:	01 c0       	rjmp	.+2      	; 0xcc0 <SaveGameState+0xc8>
    }
    if (inventory[1] != (gameCheck[INVADDR+2]<<8|gameCheck[INVADDR+3])) {
        if (EEWrite(INVADDR+2, &gameState[INVADDR+2], 2)) return 1;
    }

    return 0;
     cbe:	80 e0       	ldi	r24, 0x00	; 0
}
     cc0:	64 96       	adiw	r28, 0x14	; 20
     cc2:	cd bf       	out	0x3d, r28	; 61
     cc4:	de bf       	out	0x3e, r29	; 62
     cc6:	df 91       	pop	r29
     cc8:	cf 91       	pop	r28
     cca:	1f 91       	pop	r17
     ccc:	08 95       	ret

00000cce <ReadStatusBit>:

uint8_t ReadStatusBit(uint8_t number){
    number &= 0x7f;
     cce:	e8 2f       	mov	r30, r24
     cd0:	ef 77       	andi	r30, 0x7F	; 127
    if (gameState[number>>3] & (1<<(number&7))) return 1; else return 0;
     cd2:	e6 95       	lsr	r30
     cd4:	e6 95       	lsr	r30
     cd6:	e6 95       	lsr	r30
     cd8:	f0 e0       	ldi	r31, 0x00	; 0
     cda:	e3 5b       	subi	r30, 0xB3	; 179
     cdc:	f5 4c       	sbci	r31, 0xC5	; 197
     cde:	90 81       	ld	r25, Z
     ce0:	28 2f       	mov	r18, r24
     ce2:	27 70       	andi	r18, 0x07	; 7
     ce4:	89 2f       	mov	r24, r25
     ce6:	90 e0       	ldi	r25, 0x00	; 0
     ce8:	02 c0       	rjmp	.+4      	; 0xcee <ReadStatusBit+0x20>
     cea:	95 95       	asr	r25
     cec:	87 95       	ror	r24
     cee:	2a 95       	dec	r18
     cf0:	e2 f7       	brpl	.-8      	; 0xcea <ReadStatusBit+0x1c>
     cf2:	80 ff       	sbrs	r24, 0
     cf4:	02 c0       	rjmp	.+4      	; 0xcfa <ReadStatusBit+0x2c>
     cf6:	81 e0       	ldi	r24, 0x01	; 1
     cf8:	08 95       	ret
     cfa:	80 e0       	ldi	r24, 0x00	; 0
}
     cfc:	08 95       	ret

00000cfe <WriteStatusBit>:

void WriteStatusBit(uint8_t number, uint8_t state){
    number &= 0x7f;
     cfe:	e8 2f       	mov	r30, r24
     d00:	ef 77       	andi	r30, 0x7F	; 127
    if (state) gameState[number>>3] |= 1<<(number&7);
     d02:	66 23       	and	r22, r22
     d04:	a1 f0       	breq	.+40     	; 0xd2e <WriteStatusBit+0x30>
     d06:	e6 95       	lsr	r30
     d08:	e6 95       	lsr	r30
     d0a:	e6 95       	lsr	r30
     d0c:	f0 e0       	ldi	r31, 0x00	; 0
     d0e:	87 70       	andi	r24, 0x07	; 7
     d10:	21 e0       	ldi	r18, 0x01	; 1
     d12:	30 e0       	ldi	r19, 0x00	; 0
     d14:	a9 01       	movw	r20, r18
     d16:	02 c0       	rjmp	.+4      	; 0xd1c <WriteStatusBit+0x1e>
     d18:	44 0f       	add	r20, r20
     d1a:	55 1f       	adc	r21, r21
     d1c:	8a 95       	dec	r24
     d1e:	e2 f7       	brpl	.-8      	; 0xd18 <WriteStatusBit+0x1a>
     d20:	ca 01       	movw	r24, r20
     d22:	e3 5b       	subi	r30, 0xB3	; 179
     d24:	f5 4c       	sbci	r31, 0xC5	; 197
     d26:	90 81       	ld	r25, Z
     d28:	89 2b       	or	r24, r25
     d2a:	80 83       	st	Z, r24
     d2c:	08 95       	ret
    else gameState[number>>3] &= ~(1<<(number&7));
     d2e:	e6 95       	lsr	r30
     d30:	e6 95       	lsr	r30
     d32:	e6 95       	lsr	r30
     d34:	f0 e0       	ldi	r31, 0x00	; 0
     d36:	87 70       	andi	r24, 0x07	; 7
     d38:	21 e0       	ldi	r18, 0x01	; 1
     d3a:	30 e0       	ldi	r19, 0x00	; 0
     d3c:	a9 01       	movw	r20, r18
     d3e:	02 c0       	rjmp	.+4      	; 0xd44 <WriteStatusBit+0x46>
     d40:	44 0f       	add	r20, r20
     d42:	55 1f       	adc	r21, r21
     d44:	8a 95       	dec	r24
     d46:	e2 f7       	brpl	.-8      	; 0xd40 <WriteStatusBit+0x42>
     d48:	ca 01       	movw	r24, r20
     d4a:	e3 5b       	subi	r30, 0xB3	; 179
     d4c:	f5 4c       	sbci	r31, 0xC5	; 197
     d4e:	80 95       	com	r24
     d50:	90 81       	ld	r25, Z
     d52:	89 23       	and	r24, r25
     d54:	80 83       	st	Z, r24
     d56:	08 95       	ret

00000d58 <getID>:
    //Give out a number 0..3, calculated using serial number fields
    uint8_t id = 0;
    uint8_t *serNum;
    serNum = (uint8_t*)&SIGROW_SERNUM0;

    for (uint8_t x=0; x<10; ++x){
     d58:	90 e0       	ldi	r25, 0x00	; 0

uint8_t getID(){
    //Give out a number 0..3, calculated using serial number fields
    uint8_t id = 0;
    uint8_t *serNum;
    serNum = (uint8_t*)&SIGROW_SERNUM0;
     d5a:	e3 e0       	ldi	r30, 0x03	; 3
     d5c:	f1 e1       	ldi	r31, 0x11	; 17
    else gameState[number>>3] &= ~(1<<(number&7));
}

uint8_t getID(){
    //Give out a number 0..3, calculated using serial number fields
    uint8_t id = 0;
     d5e:	80 e0       	ldi	r24, 0x00	; 0
    uint8_t *serNum;
    serNum = (uint8_t*)&SIGROW_SERNUM0;

    for (uint8_t x=0; x<10; ++x){
     d60:	03 c0       	rjmp	.+6      	; 0xd68 <getID+0x10>
        id += *serNum;
     d62:	21 91       	ld	r18, Z+
     d64:	82 0f       	add	r24, r18
    //Give out a number 0..3, calculated using serial number fields
    uint8_t id = 0;
    uint8_t *serNum;
    serNum = (uint8_t*)&SIGROW_SERNUM0;

    for (uint8_t x=0; x<10; ++x){
     d66:	9f 5f       	subi	r25, 0xFF	; 255
     d68:	9a 30       	cpi	r25, 0x0A	; 10
     d6a:	d8 f3       	brcs	.-10     	; 0xd62 <getID+0xa>
        id += *serNum;
        ++serNum;
    }
    id %= 4;
     d6c:	83 70       	andi	r24, 0x03	; 3
    whoami = id+1;
     d6e:	8f 5f       	subi	r24, 0xFF	; 255
     d70:	80 93 95 38 	sts	0x3895, r24	; 0x803895 <whoami>
    return whoami;
}
     d74:	08 95       	ret

00000d76 <Reset>:
    //Reset game progress (all zeroes) and load some bits:
    //# 110   set to 1 by FW if badge UUID mod 4 == 0
    //# 111   set to 1 by FW if badge UUID mod 4 == 1
    //# 112   set to 1 by FW if badge UUID mod 4 == 2
    //# 113   set to 1 by FW if badge UUID mod 4 == 3
    for (uint8_t x=0; x<sizeof(gameState); ++x){
     d76:	80 e0       	ldi	r24, 0x00	; 0
     d78:	06 c0       	rjmp	.+12     	; 0xd86 <Reset+0x10>
        gameState[x] = 0;
     d7a:	e8 2f       	mov	r30, r24
     d7c:	f0 e0       	ldi	r31, 0x00	; 0
     d7e:	e3 5b       	subi	r30, 0xB3	; 179
     d80:	f5 4c       	sbci	r31, 0xC5	; 197
     d82:	10 82       	st	Z, r1
    //Reset game progress (all zeroes) and load some bits:
    //# 110   set to 1 by FW if badge UUID mod 4 == 0
    //# 111   set to 1 by FW if badge UUID mod 4 == 1
    //# 112   set to 1 by FW if badge UUID mod 4 == 2
    //# 113   set to 1 by FW if badge UUID mod 4 == 3
    for (uint8_t x=0; x<sizeof(gameState); ++x){
     d84:	8f 5f       	subi	r24, 0xFF	; 255
     d86:	84 31       	cpi	r24, 0x14	; 20
     d88:	c0 f3       	brcs	.-16     	; 0xd7a <Reset+0x4>
        gameState[x] = 0;
    }

    uint8_t id = getID();
     d8a:	e6 df       	rcall	.-52     	; 0xd58 <getID>

    //Write bit in gameState location 110..113
    if (id == 0) WriteStatusBit(110, 1);
     d8c:	81 11       	cpse	r24, r1
     d8e:	04 c0       	rjmp	.+8      	; 0xd98 <Reset+0x22>
     d90:	61 e0       	ldi	r22, 0x01	; 1
     d92:	8e e6       	ldi	r24, 0x6E	; 110
     d94:	b4 df       	rcall	.-152    	; 0xcfe <WriteStatusBit>
     d96:	11 c0       	rjmp	.+34     	; 0xdba <Reset+0x44>
    else if (id == 1) WriteStatusBit(111, 1);
     d98:	81 30       	cpi	r24, 0x01	; 1
     d9a:	21 f4       	brne	.+8      	; 0xda4 <Reset+0x2e>
     d9c:	61 e0       	ldi	r22, 0x01	; 1
     d9e:	8f e6       	ldi	r24, 0x6F	; 111
     da0:	ae df       	rcall	.-164    	; 0xcfe <WriteStatusBit>
     da2:	0b c0       	rjmp	.+22     	; 0xdba <Reset+0x44>
    else if (id == 2) WriteStatusBit(112, 1);
     da4:	82 30       	cpi	r24, 0x02	; 2
     da6:	21 f4       	brne	.+8      	; 0xdb0 <Reset+0x3a>
     da8:	61 e0       	ldi	r22, 0x01	; 1
     daa:	80 e7       	ldi	r24, 0x70	; 112
     dac:	a8 df       	rcall	.-176    	; 0xcfe <WriteStatusBit>
     dae:	05 c0       	rjmp	.+10     	; 0xdba <Reset+0x44>
    else if (id == 3) WriteStatusBit(113, 1);
     db0:	83 30       	cpi	r24, 0x03	; 3
     db2:	19 f4       	brne	.+6      	; 0xdba <Reset+0x44>
     db4:	61 e0       	ldi	r22, 0x01	; 1
     db6:	81 e7       	ldi	r24, 0x71	; 113

    //Write bit 0, must always be 1!
    WriteStatusBit(0, 1);
     db8:	a2 df       	rcall	.-188    	; 0xcfe <WriteStatusBit>
     dba:	61 e0       	ldi	r22, 0x01	; 1
     dbc:	80 e0       	ldi	r24, 0x00	; 0
     dbe:	9f cf       	rjmp	.-194    	; 0xcfe <WriteStatusBit>
     dc0:	08 95       	ret

00000dc2 <GenerateAudio>:
}

//void setupSound(uint8_t number){

void GenerateAudio(){
     dc2:	0f 93       	push	r16
     dc4:	1f 93       	push	r17
     dc6:	cf 93       	push	r28
     dc8:	df 93       	push	r29
    static uint8_t auBuffer[128] = {0x80, 0};
    //auRepAddr = &auBuffer[0];

    //Audio for text adventure
    if ((effect&0xff00)==0) {
     dca:	80 91 93 38 	lds	r24, 0x3893	; 0x803893 <effect>
     dce:	90 91 94 38 	lds	r25, 0x3894	; 0x803894 <effect+0x1>
     dd2:	88 27       	eor	r24, r24
     dd4:	89 2b       	or	r24, r25
     dd6:	09 f0       	breq	.+2      	; 0xdda <GenerateAudio+0x18>
     dd8:	69 c0       	rjmp	.+210    	; 0xeac <GenerateAudio+0xea>

        //Silence
        if ((effect&0xE0)==0){
     dda:	80 91 93 38 	lds	r24, 0x3893	; 0x803893 <effect>
     dde:	90 91 94 38 	lds	r25, 0x3894	; 0x803894 <effect+0x1>
     de2:	80 7e       	andi	r24, 0xE0	; 224
     de4:	99 27       	eor	r25, r25
     de6:	89 2b       	or	r24, r25
     de8:	31 f4       	brne	.+12     	; 0xdf6 <GenerateAudio+0x34>
            auRepAddr = &zero;
     dea:	81 e9       	ldi	r24, 0x91	; 145
     dec:	98 e3       	ldi	r25, 0x38	; 56
     dee:	80 93 00 38 	sts	0x3800, r24	; 0x803800 <__data_start>
     df2:	90 93 01 38 	sts	0x3801, r25	; 0x803801 <__data_start+0x1>
        }

        //Bad (buzzer)
        if ((effect&0xE0)==32){
     df6:	80 91 93 38 	lds	r24, 0x3893	; 0x803893 <effect>
     dfa:	90 91 94 38 	lds	r25, 0x3894	; 0x803894 <effect+0x1>

        }

        //Good (bell)
        if ((effect&0xE0)==64){
     dfe:	80 91 93 38 	lds	r24, 0x3893	; 0x803893 <effect>
     e02:	90 91 94 38 	lds	r25, 0x3894	; 0x803894 <effect+0x1>
            //auBuffer = 
        }

        //Rain storm with whistling wind
        if ((effect&0xE0)==96){
     e06:	80 91 93 38 	lds	r24, 0x3893	; 0x803893 <effect>
     e0a:	90 91 94 38 	lds	r25, 0x3894	; 0x803894 <effect+0x1>
     e0e:	80 7e       	andi	r24, 0xE0	; 224
     e10:	99 27       	eor	r25, r25
     e12:	80 36       	cpi	r24, 0x60	; 96
     e14:	91 05       	cpc	r25, r1
     e16:	09 f0       	breq	.+2      	; 0xe1a <GenerateAudio+0x58>
     e18:	3d c0       	rjmp	.+122    	; 0xe94 <GenerateAudio+0xd2>
            auBuffer[6]= 0;        
     e1a:	e5 e0       	ldi	r30, 0x05	; 5
     e1c:	f8 e3       	ldi	r31, 0x38	; 56
     e1e:	16 82       	std	Z+6, r1	; 0x06
            auRepAddr = &auBuffer[0];
     e20:	e0 93 00 38 	sts	0x3800, r30	; 0x803800 <__data_start>
     e24:	f0 93 01 38 	sts	0x3801, r31	; 0x803801 <__data_start+0x1>

            //Noise is to be generated fast, outside of buttonMark loop
            for (uint8_t x=1; x<6; ++x){
     e28:	c1 e0       	ldi	r28, 0x01	; 1
     e2a:	16 c0       	rjmp	.+44     	; 0xe58 <GenerateAudio+0x96>
                if (x%3) auBuffer[x] = floatAround(0x80, 5, 0x01, 0x00);
     e2c:	8b ea       	ldi	r24, 0xAB	; 171
     e2e:	c8 9f       	mul	r28, r24
     e30:	81 2d       	mov	r24, r1
     e32:	11 24       	eor	r1, r1
     e34:	86 95       	lsr	r24
     e36:	98 2f       	mov	r25, r24
     e38:	99 0f       	add	r25, r25
     e3a:	89 0f       	add	r24, r25
     e3c:	c8 17       	cp	r28, r24
     e3e:	59 f0       	breq	.+22     	; 0xe56 <GenerateAudio+0x94>
     e40:	0c 2f       	mov	r16, r28
     e42:	10 e0       	ldi	r17, 0x00	; 0
     e44:	20 e0       	ldi	r18, 0x00	; 0
     e46:	41 e0       	ldi	r20, 0x01	; 1
     e48:	65 e0       	ldi	r22, 0x05	; 5
     e4a:	80 e8       	ldi	r24, 0x80	; 128
     e4c:	b2 de       	rcall	.-668    	; 0xbb2 <floatAround>
     e4e:	f8 01       	movw	r30, r16
     e50:	eb 5f       	subi	r30, 0xFB	; 251
     e52:	f7 4c       	sbci	r31, 0xC7	; 199
     e54:	80 83       	st	Z, r24
        if ((effect&0xE0)==96){
            auBuffer[6]= 0;        
            auRepAddr = &auBuffer[0];

            //Noise is to be generated fast, outside of buttonMark loop
            for (uint8_t x=1; x<6; ++x){
     e56:	cf 5f       	subi	r28, 0xFF	; 255
     e58:	c6 30       	cpi	r28, 0x06	; 6
     e5a:	40 f3       	brcs	.-48     	; 0xe2c <GenerateAudio+0x6a>
                if (x%3) auBuffer[x] = floatAround(0x80, 5, 0x01, 0x00);
            }

            if (buttonMark){
     e5c:	80 91 9a 38 	lds	r24, 0x389A	; 0x80389a <buttonMark>
     e60:	88 23       	and	r24, r24
     e62:	c1 f0       	breq	.+48     	; 0xe94 <GenerateAudio+0xd2>
                //"Floating" speed for howl (and noise, but that's hardly audible)
                floatSpeed(5, 0x0280, 0x0400);
     e64:	40 e0       	ldi	r20, 0x00	; 0
     e66:	54 e0       	ldi	r21, 0x04	; 4
     e68:	60 e8       	ldi	r22, 0x80	; 128
     e6a:	72 e0       	ldi	r23, 0x02	; 2
     e6c:	85 e0       	ldi	r24, 0x05	; 5
     e6e:	70 de       	rcall	.-800    	; 0xb50 <floatSpeed>
            
                //"Floating" volume and wind howl during 8 bit rainstorm needs some randomness
                auVolume = floatAround(auVolume, 2, 0x10, 0xA0);
     e70:	80 91 a2 3a 	lds	r24, 0x3AA2	; 0x803aa2 <auVolume>
     e74:	20 ea       	ldi	r18, 0xA0	; 160
     e76:	40 e1       	ldi	r20, 0x10	; 16
     e78:	62 e0       	ldi	r22, 0x02	; 2
     e7a:	9b de       	rcall	.-714    	; 0xbb2 <floatAround>
     e7c:	80 93 a2 3a 	sts	0x3AA2, r24	; 0x803aa2 <auVolume>
                auBuffer[0] = floatAround(auBuffer[0], 2, 0x70, 0x90);
     e80:	c5 e0       	ldi	r28, 0x05	; 5
     e82:	d8 e3       	ldi	r29, 0x38	; 56
     e84:	20 e9       	ldi	r18, 0x90	; 144
     e86:	40 e7       	ldi	r20, 0x70	; 112
     e88:	62 e0       	ldi	r22, 0x02	; 2
     e8a:	88 81       	ld	r24, Y
     e8c:	92 de       	rcall	.-732    	; 0xbb2 <floatAround>
     e8e:	88 83       	st	Y, r24
                auBuffer[3] = 0xFF-auBuffer[0];  //Inverse value of wind[0] produces a whistle
     e90:	80 95       	com	r24
     e92:	8b 83       	std	Y+3, r24	; 0x03
            }
        }

        //Footsteps
        if ((effect&0xE0)==128){
     e94:	80 91 93 38 	lds	r24, 0x3893	; 0x803893 <effect>
     e98:	90 91 94 38 	lds	r25, 0x3894	; 0x803894 <effect+0x1>

        }

        //Knocking
        if ((effect&0xE0)==160){
     e9c:	80 91 93 38 	lds	r24, 0x3893	; 0x803893 <effect>
     ea0:	90 91 94 38 	lds	r25, 0x3894	; 0x803894 <effect+0x1>

        }

        //Scream
        if ((effect&0xE0)==192){
     ea4:	80 91 93 38 	lds	r24, 0x3893	; 0x803893 <effect>
     ea8:	90 91 94 38 	lds	r25, 0x3894	; 0x803894 <effect+0x1>

        //Rain storm with whistling wind
        else {
        }
    }
     eac:	df 91       	pop	r29
     eae:	cf 91       	pop	r28
     eb0:	1f 91       	pop	r17
     eb2:	0f 91       	pop	r16
     eb4:	08 95       	ret

00000eb6 <BastetDictates>:

// Main game loop
uint8_t BastetDictates(){
  
    return 0;
}
     eb6:	80 e0       	ldi	r24, 0x00	; 0
     eb8:	08 95       	ret

00000eba <DecryptData>:
    uint8_t clearBit = num & STATUS_BITS;
    num &= (STATUS_BITS-1);
    if (clearBit) {
        WriteStatusBit(num, 0);
    } else {
        WriteStatusBit(num, 1);
     eba:	cf 93       	push	r28
     ebc:	df 93       	push	r29
     ebe:	ec 01       	movw	r28, r24
     ec0:	17 c0       	rjmp	.+46     	; 0xef0 <DecryptData+0x36>
     ec2:	e4 2f       	mov	r30, r20
     ec4:	f0 e0       	ldi	r31, 0x00	; 0
     ec6:	de 01       	movw	r26, r28
     ec8:	a7 70       	andi	r26, 0x07	; 7
     eca:	bb 27       	eor	r27, r27
     ecc:	ee 0f       	add	r30, r30
     ece:	ff 1f       	adc	r31, r31
     ed0:	ee 0f       	add	r30, r30
     ed2:	ff 1f       	adc	r31, r31
     ed4:	ee 0f       	add	r30, r30
     ed6:	ff 1f       	adc	r31, r31
     ed8:	ee 55       	subi	r30, 0x5E	; 94
     eda:	fe 45       	sbci	r31, 0x5E	; 94
     edc:	ea 0f       	add	r30, r26
     ede:	fb 1f       	adc	r31, r27
     ee0:	90 81       	ld	r25, Z
     ee2:	f9 01       	movw	r30, r18
     ee4:	80 81       	ld	r24, Z
     ee6:	98 27       	eor	r25, r24
     ee8:	91 93       	st	Z+, r25
     eea:	9f 01       	movw	r18, r30
     eec:	21 96       	adiw	r28, 0x01	; 1
     eee:	61 50       	subi	r22, 0x01	; 1
     ef0:	61 11       	cpse	r22, r1
     ef2:	e7 cf       	rjmp	.-50     	; 0xec2 <DecryptData+0x8>
     ef4:	df 91       	pop	r29
     ef6:	cf 91       	pop	r28
     ef8:	08 95       	ret

00000efa <ExtEERead>:
     efa:	bf 92       	push	r11
     efc:	cf 92       	push	r12
     efe:	df 92       	push	r13
     f00:	ef 92       	push	r14
     f02:	ff 92       	push	r15
     f04:	0f 93       	push	r16
     f06:	1f 93       	push	r17
     f08:	cf 93       	push	r28
     f0a:	df 93       	push	r29
     f0c:	00 d0       	rcall	.+0      	; 0xf0e <ExtEERead+0x14>
     f0e:	cd b7       	in	r28, 0x3d	; 61
     f10:	de b7       	in	r29, 0x3e	; 62
     f12:	16 2f       	mov	r17, r22
     f14:	b4 2e       	mov	r11, r20
     f16:	69 01       	movw	r12, r18
     f18:	7c 01       	movw	r14, r24
     f1a:	e8 94       	clt
     f1c:	f7 f8       	bld	r15, 7
     f1e:	f9 82       	std	Y+1, r15	; 0x01
     f20:	ea 82       	std	Y+2, r14	; 0x02
     f22:	06 2f       	mov	r16, r22
     f24:	42 e0       	ldi	r20, 0x02	; 2
     f26:	be 01       	movw	r22, r28
     f28:	6f 5f       	subi	r22, 0xFF	; 255
     f2a:	7f 4f       	sbci	r23, 0xFF	; 255
     f2c:	80 e5       	ldi	r24, 0x50	; 80
     f2e:	cf d9       	rcall	.-3170   	; 0x2ce <I2C_read_bytes>
     f30:	81 11       	cpse	r24, r1
     f32:	06 c0       	rjmp	.+12     	; 0xf40 <ExtEERead+0x46>
     f34:	96 01       	movw	r18, r12
     f36:	4b 2d       	mov	r20, r11
     f38:	61 2f       	mov	r22, r17
     f3a:	c7 01       	movw	r24, r14
     f3c:	be df       	rcall	.-132    	; 0xeba <DecryptData>
     f3e:	80 e0       	ldi	r24, 0x00	; 0
     f40:	0f 90       	pop	r0
     f42:	0f 90       	pop	r0
     f44:	df 91       	pop	r29
     f46:	cf 91       	pop	r28
     f48:	1f 91       	pop	r17
     f4a:	0f 91       	pop	r16
     f4c:	ff 90       	pop	r15
     f4e:	ef 90       	pop	r14
     f50:	df 90       	pop	r13
     f52:	cf 90       	pop	r12
     f54:	bf 90       	pop	r11
     f56:	08 95       	ret

00000f58 <ClearTxAfter>:
     f58:	8f 5f       	subi	r24, 0xFF	; 255
     f5a:	06 c0       	rjmp	.+12     	; 0xf68 <ClearTxAfter+0x10>
     f5c:	e8 2f       	mov	r30, r24
     f5e:	f0 e0       	ldi	r31, 0x00	; 0
     f60:	ed 5c       	subi	r30, 0xCD	; 205
     f62:	f5 4c       	sbci	r31, 0xC5	; 197
     f64:	10 82       	st	Z, r1
     f66:	8f 5f       	subi	r24, 0xFF	; 255
     f68:	88 30       	cpi	r24, 0x08	; 8
     f6a:	c0 f3       	brcs	.-16     	; 0xf5c <ClearTxAfter+0x4>
     f6c:	08 95       	ret

00000f6e <StartsWith>:
     f6e:	fc 01       	movw	r30, r24
     f70:	90 81       	ld	r25, Z
     f72:	91 11       	cpse	r25, r1
     f74:	0c c0       	rjmp	.+24     	; 0xf8e <StartsWith+0x20>
     f76:	81 e0       	ldi	r24, 0x01	; 1
     f78:	08 95       	ret
     f7a:	98 13       	cpse	r25, r24
     f7c:	0e c0       	rjmp	.+28     	; 0xf9a <StartsWith+0x2c>
     f7e:	91 81       	ldd	r25, Z+1	; 0x01
     f80:	db 01       	movw	r26, r22
     f82:	11 96       	adiw	r26, 0x01	; 1
     f84:	8c 91       	ld	r24, X
     f86:	98 13       	cpse	r25, r24
     f88:	0a c0       	rjmp	.+20     	; 0xf9e <StartsWith+0x30>
     f8a:	81 e0       	ldi	r24, 0x01	; 1
     f8c:	08 95       	ret
     f8e:	db 01       	movw	r26, r22
     f90:	8c 91       	ld	r24, X
     f92:	81 11       	cpse	r24, r1
     f94:	f2 cf       	rjmp	.-28     	; 0xf7a <StartsWith+0xc>
     f96:	81 e0       	ldi	r24, 0x01	; 1
     f98:	08 95       	ret
     f9a:	80 e0       	ldi	r24, 0x00	; 0
     f9c:	08 95       	ret
     f9e:	80 e0       	ldi	r24, 0x00	; 0
     fa0:	08 95       	ret

00000fa2 <PrepareSending>:
     fa2:	cf 93       	push	r28
     fa4:	df 93       	push	r29
     fa6:	eb 01       	movw	r28, r22
     fa8:	20 97       	sbiw	r28, 0x00	; 0
     faa:	b9 f4       	brne	.+46     	; 0xfda <PrepareSending+0x38>
     fac:	41 c0       	rjmp	.+130    	; 0x1030 <PrepareSending+0x8e>
     fae:	25 2f       	mov	r18, r21
     fb0:	30 e0       	ldi	r19, 0x00	; 0
     fb2:	f9 01       	movw	r30, r18
     fb4:	ee 0f       	add	r30, r30
     fb6:	ff 1f       	adc	r31, r31
     fb8:	e5 5c       	subi	r30, 0xC5	; 197
     fba:	f5 4c       	sbci	r31, 0xC5	; 197
     fbc:	80 83       	st	Z, r24
     fbe:	91 83       	std	Z+1, r25	; 0x01
     fc0:	f9 01       	movw	r30, r18
     fc2:	ed 5c       	subi	r30, 0xCD	; 205
     fc4:	f5 4c       	sbci	r31, 0xC5	; 197
     fc6:	6f ef       	ldi	r22, 0xFF	; 255
     fc8:	60 83       	st	Z, r22
     fca:	81 50       	subi	r24, 0x01	; 1
     fcc:	9f 4f       	sbci	r25, 0xFF	; 255
     fce:	cf 5f       	subi	r28, 0xFF	; 255
     fd0:	d1 09       	sbc	r29, r1
     fd2:	5f 5f       	subi	r21, 0xFF	; 255
     fd4:	57 30       	cpi	r21, 0x07	; 7
     fd6:	11 f4       	brne	.+4      	; 0xfdc <PrepareSending+0x3a>
     fd8:	36 c0       	rjmp	.+108    	; 0x1046 <PrepareSending+0xa4>
     fda:	50 e0       	ldi	r21, 0x00	; 0
     fdc:	cf 3f       	cpi	r28, 0xFF	; 255
     fde:	d1 05       	cpc	r29, r1
     fe0:	09 f0       	breq	.+2      	; 0xfe4 <PrepareSending+0x42>
     fe2:	28 f7       	brcc	.-54     	; 0xfae <PrepareSending+0xc>
     fe4:	e5 2f       	mov	r30, r21
     fe6:	f0 e0       	ldi	r31, 0x00	; 0
     fe8:	df 01       	movw	r26, r30
     fea:	aa 0f       	add	r26, r26
     fec:	bb 1f       	adc	r27, r27
     fee:	a5 5c       	subi	r26, 0xC5	; 197
     ff0:	b5 4c       	sbci	r27, 0xC5	; 197
     ff2:	8d 93       	st	X+, r24
     ff4:	9c 93       	st	X, r25
     ff6:	9e 01       	movw	r18, r28
     ff8:	a1 e8       	ldi	r26, 0x81	; 129
     ffa:	b0 e8       	ldi	r27, 0x80	; 128
     ffc:	0e 94 a9 10 	call	0x2152	; 0x2152 <__umulhisi3>
    1000:	88 0f       	add	r24, r24
    1002:	89 2f       	mov	r24, r25
    1004:	88 1f       	adc	r24, r24
    1006:	99 0b       	sbc	r25, r25
    1008:	91 95       	neg	r25
    100a:	6f ef       	ldi	r22, 0xFF	; 255
    100c:	68 9f       	mul	r22, r24
    100e:	90 01       	movw	r18, r0
    1010:	69 9f       	mul	r22, r25
    1012:	30 0d       	add	r19, r0
    1014:	11 24       	eor	r1, r1
    1016:	ce 01       	movw	r24, r28
    1018:	82 1b       	sub	r24, r18
    101a:	93 0b       	sbc	r25, r19
    101c:	ed 5c       	subi	r30, 0xCD	; 205
    101e:	f5 4c       	sbci	r31, 0xC5	; 197
    1020:	80 83       	st	Z, r24
    1022:	cf 3f       	cpi	r28, 0xFF	; 255
    1024:	d1 05       	cpc	r29, r1
    1026:	09 f0       	breq	.+2      	; 0x102a <PrepareSending+0x88>
    1028:	80 f4       	brcc	.+32     	; 0x104a <PrepareSending+0xa8>
    102a:	40 93 31 3a 	sts	0x3A31, r20	; 0x803a31 <txTypeNow>
    102e:	05 c0       	rjmp	.+10     	; 0x103a <PrepareSending+0x98>
    1030:	10 92 3b 3a 	sts	0x3A3B, r1	; 0x803a3b <txAddrList>
    1034:	10 92 3c 3a 	sts	0x3A3C, r1	; 0x803a3c <txAddrList+0x1>
    1038:	50 e0       	ldi	r21, 0x00	; 0
    103a:	85 2f       	mov	r24, r21
    103c:	8d df       	rcall	.-230    	; 0xf58 <ClearTxAfter>
    103e:	10 92 32 3a 	sts	0x3A32, r1	; 0x803a32 <txAddrNow>
    1042:	80 e0       	ldi	r24, 0x00	; 0
    1044:	03 c0       	rjmp	.+6      	; 0x104c <PrepareSending+0xaa>
    1046:	81 e0       	ldi	r24, 0x01	; 1
    1048:	01 c0       	rjmp	.+2      	; 0x104c <PrepareSending+0xaa>
    104a:	81 e0       	ldi	r24, 0x01	; 1
    104c:	df 91       	pop	r29
    104e:	cf 91       	pop	r28
    1050:	08 95       	ret

00001052 <SetResponse>:
    1052:	90 e0       	ldi	r25, 0x00	; 0
    1054:	fc 01       	movw	r30, r24
    1056:	ee 0f       	add	r30, r30
    1058:	ff 1f       	adc	r31, r31
    105a:	e7 5f       	subi	r30, 0xF7	; 247
    105c:	f6 4c       	sbci	r31, 0xC6	; 198
    105e:	60 83       	st	Z, r22
    1060:	71 83       	std	Z+1, r23	; 0x01
    1062:	fc 01       	movw	r30, r24
    1064:	b0 96       	adiw	r30, 0x20	; 32
    1066:	ee 0f       	add	r30, r30
    1068:	ff 1f       	adc	r31, r31
    106a:	e7 5f       	subi	r30, 0xF7	; 247
    106c:	f6 4c       	sbci	r31, 0xC6	; 198
    106e:	40 83       	st	Z, r20
    1070:	51 83       	std	Z+1, r21	; 0x01
    1072:	fc 01       	movw	r30, r24
    1074:	e0 5c       	subi	r30, 0xC0	; 192
    1076:	ff 4f       	sbci	r31, 0xFF	; 255
    1078:	ee 0f       	add	r30, r30
    107a:	ff 1f       	adc	r31, r31
    107c:	e7 5f       	subi	r30, 0xF7	; 247
    107e:	f6 4c       	sbci	r31, 0xC6	; 198
    1080:	30 e0       	ldi	r19, 0x00	; 0
    1082:	20 83       	st	Z, r18
    1084:	31 83       	std	Z+1, r19	; 0x01
    1086:	08 95       	ret

00001088 <SetStandardResponse>:
    1088:	1f 93       	push	r17
    108a:	cf 93       	push	r28
    108c:	df 93       	push	r29
    108e:	c8 2f       	mov	r28, r24
    1090:	d1 e0       	ldi	r29, 0x01	; 1
    1092:	d8 0f       	add	r29, r24
    1094:	21 e0       	ldi	r18, 0x01	; 1
    1096:	41 e0       	ldi	r20, 0x01	; 1
    1098:	50 e0       	ldi	r21, 0x00	; 0
    109a:	66 e8       	ldi	r22, 0x86	; 134
    109c:	7a e7       	ldi	r23, 0x7A	; 122
    109e:	d9 df       	rcall	.-78     	; 0x1052 <SetResponse>
    10a0:	12 e0       	ldi	r17, 0x02	; 2
    10a2:	1c 0f       	add	r17, r28
    10a4:	21 e0       	ldi	r18, 0x01	; 1
    10a6:	4b e0       	ldi	r20, 0x0B	; 11
    10a8:	50 e0       	ldi	r21, 0x00	; 0
    10aa:	6b e8       	ldi	r22, 0x8B	; 139
    10ac:	7a e7       	ldi	r23, 0x7A	; 122
    10ae:	8d 2f       	mov	r24, r29
    10b0:	d0 df       	rcall	.-96     	; 0x1052 <SetResponse>
    10b2:	d3 e0       	ldi	r29, 0x03	; 3
    10b4:	dc 0f       	add	r29, r28
    10b6:	21 e0       	ldi	r18, 0x01	; 1
    10b8:	41 e0       	ldi	r20, 0x01	; 1
    10ba:	50 e0       	ldi	r21, 0x00	; 0
    10bc:	6a e8       	ldi	r22, 0x8A	; 138
    10be:	7a e7       	ldi	r23, 0x7A	; 122
    10c0:	81 2f       	mov	r24, r17
    10c2:	c7 df       	rcall	.-114    	; 0x1052 <SetResponse>
    10c4:	ed 2f       	mov	r30, r29
    10c6:	f0 e0       	ldi	r31, 0x00	; 0
    10c8:	ee 0f       	add	r30, r30
    10ca:	ff 1f       	adc	r31, r31
    10cc:	e7 5f       	subi	r30, 0xF7	; 247
    10ce:	f6 4c       	sbci	r31, 0xC6	; 198
    10d0:	80 ef       	ldi	r24, 0xF0	; 240
    10d2:	9f ef       	ldi	r25, 0xFF	; 255
    10d4:	80 83       	st	Z, r24
    10d6:	91 83       	std	Z+1, r25	; 0x01
    10d8:	15 e0       	ldi	r17, 0x05	; 5
    10da:	1c 0f       	add	r17, r28
    10dc:	21 e0       	ldi	r18, 0x01	; 1
    10de:	41 e0       	ldi	r20, 0x01	; 1
    10e0:	50 e0       	ldi	r21, 0x00	; 0
    10e2:	66 e8       	ldi	r22, 0x86	; 134
    10e4:	7a e7       	ldi	r23, 0x7A	; 122
    10e6:	84 e0       	ldi	r24, 0x04	; 4
    10e8:	8c 0f       	add	r24, r28
    10ea:	b3 df       	rcall	.-154    	; 0x1052 <SetResponse>
    10ec:	d6 e0       	ldi	r29, 0x06	; 6
    10ee:	dc 0f       	add	r29, r28
    10f0:	21 e0       	ldi	r18, 0x01	; 1
    10f2:	42 e0       	ldi	r20, 0x02	; 2
    10f4:	50 e0       	ldi	r21, 0x00	; 0
    10f6:	62 e8       	ldi	r22, 0x82	; 130
    10f8:	7a e7       	ldi	r23, 0x7A	; 122
    10fa:	81 2f       	mov	r24, r17
    10fc:	aa df       	rcall	.-172    	; 0x1052 <SetResponse>
    10fe:	c9 5f       	subi	r28, 0xF9	; 249
    1100:	21 e0       	ldi	r18, 0x01	; 1
    1102:	41 e0       	ldi	r20, 0x01	; 1
    1104:	50 e0       	ldi	r21, 0x00	; 0
    1106:	6a e8       	ldi	r22, 0x8A	; 138
    1108:	7a e7       	ldi	r23, 0x7A	; 122
    110a:	8d 2f       	mov	r24, r29
    110c:	a2 df       	rcall	.-188    	; 0x1052 <SetResponse>
    110e:	8c 2f       	mov	r24, r28
    1110:	df 91       	pop	r29
    1112:	cf 91       	pop	r28
    1114:	1f 91       	pop	r17
    1116:	08 95       	ret

00001118 <PopulateObject>:
    1118:	df 92       	push	r13
    111a:	ef 92       	push	r14
    111c:	ff 92       	push	r15
    111e:	0f 93       	push	r16
    1120:	1f 93       	push	r17
    1122:	cf 93       	push	r28
    1124:	df 93       	push	r29
    1126:	cd b7       	in	r28, 0x3d	; 61
    1128:	de b7       	in	r29, 0x3e	; 62
    112a:	2c 97       	sbiw	r28, 0x0c	; 12
    112c:	cd bf       	out	0x3d, r28	; 61
    112e:	de bf       	out	0x3e, r29	; 62
    1130:	7c 01       	movw	r14, r24
    1132:	8b 01       	movw	r16, r22
    1134:	9e 01       	movw	r18, r28
    1136:	2f 5f       	subi	r18, 0xFF	; 255
    1138:	3f 4f       	sbci	r19, 0xFF	; 255
    113a:	40 e0       	ldi	r20, 0x00	; 0
    113c:	6c e0       	ldi	r22, 0x0C	; 12
    113e:	80 96       	adiw	r24, 0x20	; 32
    1140:	dc de       	rcall	.-584    	; 0xefa <ExtEERead>
    1142:	89 81       	ldd	r24, Y+1	; 0x01
    1144:	90 e0       	ldi	r25, 0x00	; 0
    1146:	98 2f       	mov	r25, r24
    1148:	88 27       	eor	r24, r24
    114a:	2a 81       	ldd	r18, Y+2	; 0x02
    114c:	82 2b       	or	r24, r18
    114e:	80 96       	adiw	r24, 0x20	; 32
    1150:	f8 01       	movw	r30, r16
    1152:	80 83       	st	Z, r24
    1154:	91 83       	std	Z+1, r25	; 0x01
    1156:	8b 81       	ldd	r24, Y+3	; 0x03
    1158:	90 e0       	ldi	r25, 0x00	; 0
    115a:	98 2f       	mov	r25, r24
    115c:	88 27       	eor	r24, r24
    115e:	2c 81       	ldd	r18, Y+4	; 0x04
    1160:	82 2b       	or	r24, r18
    1162:	80 96       	adiw	r24, 0x20	; 32
    1164:	82 83       	std	Z+2, r24	; 0x02
    1166:	93 83       	std	Z+3, r25	; 0x03
    1168:	20 e0       	ldi	r18, 0x00	; 0
    116a:	10 c0       	rjmp	.+32     	; 0x118c <PopulateObject+0x74>
    116c:	82 2f       	mov	r24, r18
    116e:	90 e0       	ldi	r25, 0x00	; 0
    1170:	fc 01       	movw	r30, r24
    1172:	34 96       	adiw	r30, 0x04	; 4
    1174:	41 e0       	ldi	r20, 0x01	; 1
    1176:	50 e0       	ldi	r21, 0x00	; 0
    1178:	4c 0f       	add	r20, r28
    117a:	5d 1f       	adc	r21, r29
    117c:	e4 0f       	add	r30, r20
    117e:	f5 1f       	adc	r31, r21
    1180:	30 81       	ld	r19, Z
    1182:	f8 01       	movw	r30, r16
    1184:	e8 0f       	add	r30, r24
    1186:	f9 1f       	adc	r31, r25
    1188:	34 83       	std	Z+4, r19	; 0x04
    118a:	2f 5f       	subi	r18, 0xFF	; 255
    118c:	28 30       	cpi	r18, 0x08	; 8
    118e:	70 f3       	brcs	.-36     	; 0x116c <PopulateObject+0x54>
    1190:	5c e2       	ldi	r21, 0x2C	; 44
    1192:	e5 0e       	add	r14, r21
    1194:	f1 1c       	adc	r15, r1
    1196:	d1 2c       	mov	r13, r1
    1198:	25 c0       	rjmp	.+74     	; 0x11e4 <PopulateObject+0xcc>
    119a:	9e 01       	movw	r18, r28
    119c:	2f 5f       	subi	r18, 0xFF	; 255
    119e:	3f 4f       	sbci	r19, 0xFF	; 255
    11a0:	40 e0       	ldi	r20, 0x00	; 0
    11a2:	62 e0       	ldi	r22, 0x02	; 2
    11a4:	c7 01       	movw	r24, r14
    11a6:	a9 de       	rcall	.-686    	; 0xefa <ExtEERead>
    11a8:	29 81       	ldd	r18, Y+1	; 0x01
    11aa:	30 e0       	ldi	r19, 0x00	; 0
    11ac:	32 2f       	mov	r19, r18
    11ae:	22 27       	eor	r18, r18
    11b0:	8a 81       	ldd	r24, Y+2	; 0x02
    11b2:	28 2b       	or	r18, r24
    11b4:	4d 2d       	mov	r20, r13
    11b6:	50 e0       	ldi	r21, 0x00	; 0
    11b8:	fa 01       	movw	r30, r20
    11ba:	3d 96       	adiw	r30, 0x0d	; 13
    11bc:	ee 0f       	add	r30, r30
    11be:	ff 1f       	adc	r31, r31
    11c0:	e0 0f       	add	r30, r16
    11c2:	f1 1f       	adc	r31, r17
    11c4:	20 83       	st	Z, r18
    11c6:	31 83       	std	Z+1, r19	; 0x01
    11c8:	82 e0       	ldi	r24, 0x02	; 2
    11ca:	e8 0e       	add	r14, r24
    11cc:	f1 1c       	adc	r15, r1
    11ce:	fa 01       	movw	r30, r20
    11d0:	36 96       	adiw	r30, 0x06	; 6
    11d2:	ee 0f       	add	r30, r30
    11d4:	ff 1f       	adc	r31, r31
    11d6:	e0 0f       	add	r30, r16
    11d8:	f1 1f       	adc	r31, r17
    11da:	e0 82       	st	Z, r14
    11dc:	f1 82       	std	Z+1, r15	; 0x01
    11de:	e2 0e       	add	r14, r18
    11e0:	f3 1e       	adc	r15, r19
    11e2:	d3 94       	inc	r13
    11e4:	e6 e0       	ldi	r30, 0x06	; 6
    11e6:	ed 15       	cp	r30, r13
    11e8:	c0 f6       	brcc	.-80     	; 0x119a <PopulateObject+0x82>
    11ea:	2c 96       	adiw	r28, 0x0c	; 12
    11ec:	cd bf       	out	0x3d, r28	; 61
    11ee:	de bf       	out	0x3e, r29	; 62
    11f0:	df 91       	pop	r29
    11f2:	cf 91       	pop	r28
    11f4:	1f 91       	pop	r17
    11f6:	0f 91       	pop	r16
    11f8:	ff 90       	pop	r15
    11fa:	ef 90       	pop	r14
    11fc:	df 90       	pop	r13
    11fe:	08 95       	ret

00001200 <GetState>:
    }
}

//Returns the state of the bit on position "num"
uint8_t GetState(uint8_t num){
    if ((num)&&(num<STATUS_BITS)){
    1200:	9f ef       	ldi	r25, 0xFF	; 255
    1202:	98 0f       	add	r25, r24
    1204:	9f 39       	cpi	r25, 0x9F	; 159
    1206:	10 f4       	brcc	.+4      	; 0x120c <GetState+0xc>
        return ReadStatusBit(num);
    1208:	62 cd       	rjmp	.-1340   	; 0xcce <ReadStatusBit>
    120a:	08 95       	ret
    }
    return 1;
    120c:	81 e0       	ldi	r24, 0x01	; 1
}
    120e:	08 95       	ret

00001210 <CheckState>:

//Checks if state of bit BBBBbbb matches with v (inverted) bit
uint8_t CheckState(uint8_t num){
    1210:	cf 93       	push	r28
    1212:	c8 2f       	mov	r28, r24
    return (GetState(num&(STATUS_BITS-1)) == (1-(num&STATUS_BITS))); 
    1214:	8f 79       	andi	r24, 0x9F	; 159
    1216:	f4 df       	rcall	.-24     	; 0x1200 <GetState>
    1218:	c0 7a       	andi	r28, 0xA0	; 160
    121a:	21 e0       	ldi	r18, 0x01	; 1
    121c:	30 e0       	ldi	r19, 0x00	; 0
    121e:	2c 1b       	sub	r18, r28
    1220:	31 09       	sbc	r19, r1
    1222:	48 2f       	mov	r20, r24
    1224:	50 e0       	ldi	r21, 0x00	; 0
    1226:	81 e0       	ldi	r24, 0x01	; 1
    1228:	42 17       	cp	r20, r18
    122a:	53 07       	cpc	r21, r19
    122c:	09 f0       	breq	.+2      	; 0x1230 <CheckState+0x20>
    122e:	80 e0       	ldi	r24, 0x00	; 0
}
    1230:	cf 91       	pop	r28
    1232:	08 95       	ret

00001234 <CheckLetter>:

//Check if the entered letter corresponds with a name
uint8_t CheckLetter(uint16_t object, uint8_t letter){
    1234:	cf 92       	push	r12
    1236:	df 92       	push	r13
    1238:	ef 92       	push	r14
    123a:	ff 92       	push	r15
    123c:	0f 93       	push	r16
    123e:	1f 93       	push	r17
    1240:	cf 93       	push	r28
    1242:	df 93       	push	r29
    1244:	cd b7       	in	r28, 0x3d	; 61
    1246:	de b7       	in	r29, 0x3e	; 62
    1248:	a0 97       	sbiw	r28, 0x20	; 32
    124a:	cd bf       	out	0x3d, r28	; 61
    124c:	de bf       	out	0x3e, r29	; 62
    124e:	e6 2e       	mov	r14, r22
    
    uint8_t found = 0;
    uint8_t data[32];

    object += L_BOILER;
    1250:	6c 01       	movw	r12, r24
    1252:	20 e2       	ldi	r18, 0x20	; 32
    1254:	c2 0e       	add	r12, r18
    1256:	d1 1c       	adc	r13, r1
    ExtEERead(object+OFF_STRINGFLDS, 2, GAME, &data[0]);
    1258:	9e 01       	movw	r18, r28
    125a:	2f 5f       	subi	r18, 0xFF	; 255
    125c:	3f 4f       	sbci	r19, 0xFF	; 255
    125e:	40 e0       	ldi	r20, 0x00	; 0
    1260:	62 e0       	ldi	r22, 0x02	; 2
    1262:	8c 96       	adiw	r24, 0x2c	; 44
    1264:	4a de       	rcall	.-876    	; 0xefa <ExtEERead>
    uint8_t x = data[1]; //Assuming a name is not longer than 255 characters.
    1266:	fa 80       	ldd	r15, Y+2	; 0x02
}

//Check if the entered letter corresponds with a name
uint8_t CheckLetter(uint16_t object, uint8_t letter){
    
    uint8_t found = 0;
    1268:	00 e0       	ldi	r16, 0x00	; 0

    object += L_BOILER;
    ExtEERead(object+OFF_STRINGFLDS, 2, GAME, &data[0]);
    uint8_t x = data[1]; //Assuming a name is not longer than 255 characters.

    while (x){
    126a:	2d c0       	rjmp	.+90     	; 0x12c6 <CheckLetter+0x92>
        uint8_t max = (x>32)?32:x;
    126c:	1f 2d       	mov	r17, r15
    126e:	80 e2       	ldi	r24, 0x20	; 32
    1270:	8f 15       	cp	r24, r15
    1272:	08 f4       	brcc	.+2      	; 0x1276 <CheckLetter+0x42>
    1274:	10 e2       	ldi	r17, 0x20	; 32
        ExtEERead(object+OFF_STRINGFLDS+1, max, GAME, &data[0]);
    1276:	9e 01       	movw	r18, r28
    1278:	2f 5f       	subi	r18, 0xFF	; 255
    127a:	3f 4f       	sbci	r19, 0xFF	; 255
    127c:	40 e0       	ldi	r20, 0x00	; 0
    127e:	61 2f       	mov	r22, r17
    1280:	c6 01       	movw	r24, r12
    1282:	0d 96       	adiw	r24, 0x0d	; 13
    1284:	3a de       	rcall	.-908    	; 0xefa <ExtEERead>
        for (uint8_t y=0; y<max; ++y){
    1286:	80 e0       	ldi	r24, 0x00	; 0
    1288:	19 c0       	rjmp	.+50     	; 0x12bc <CheckLetter+0x88>
            if (found){
    128a:	00 23       	and	r16, r16
    128c:	61 f0       	breq	.+24     	; 0x12a6 <CheckLetter+0x72>
                if ((data[y]|0x20) == letter) return 1; else return 0;
    128e:	e1 e0       	ldi	r30, 0x01	; 1
    1290:	f0 e0       	ldi	r31, 0x00	; 0
    1292:	ec 0f       	add	r30, r28
    1294:	fd 1f       	adc	r31, r29
    1296:	e8 0f       	add	r30, r24
    1298:	f1 1d       	adc	r31, r1
    129a:	80 81       	ld	r24, Z
    129c:	80 62       	ori	r24, 0x20	; 32
    129e:	8e 11       	cpse	r24, r14
    12a0:	16 c0       	rjmp	.+44     	; 0x12ce <CheckLetter+0x9a>
    12a2:	81 e0       	ldi	r24, 0x01	; 1
    12a4:	15 c0       	rjmp	.+42     	; 0x12d0 <CheckLetter+0x9c>
            }
            if (data[y] == '[') found = 1;
    12a6:	e1 e0       	ldi	r30, 0x01	; 1
    12a8:	f0 e0       	ldi	r31, 0x00	; 0
    12aa:	ec 0f       	add	r30, r28
    12ac:	fd 1f       	adc	r31, r29
    12ae:	e8 0f       	add	r30, r24
    12b0:	f1 1d       	adc	r31, r1
    12b2:	90 81       	ld	r25, Z
    12b4:	9b 35       	cpi	r25, 0x5B	; 91
    12b6:	09 f4       	brne	.+2      	; 0x12ba <CheckLetter+0x86>
    12b8:	01 e0       	ldi	r16, 0x01	; 1
    uint8_t x = data[1]; //Assuming a name is not longer than 255 characters.

    while (x){
        uint8_t max = (x>32)?32:x;
        ExtEERead(object+OFF_STRINGFLDS+1, max, GAME, &data[0]);
        for (uint8_t y=0; y<max; ++y){
    12ba:	8f 5f       	subi	r24, 0xFF	; 255
    12bc:	81 17       	cp	r24, r17
    12be:	28 f3       	brcs	.-54     	; 0x128a <CheckLetter+0x56>
            if (found){
                if ((data[y]|0x20) == letter) return 1; else return 0;
            }
            if (data[y] == '[') found = 1;
        }
        object += max;
    12c0:	c1 0e       	add	r12, r17
    12c2:	d1 1c       	adc	r13, r1
        x -= max;
    12c4:	f1 1a       	sub	r15, r17

    object += L_BOILER;
    ExtEERead(object+OFF_STRINGFLDS, 2, GAME, &data[0]);
    uint8_t x = data[1]; //Assuming a name is not longer than 255 characters.

    while (x){
    12c6:	f1 10       	cpse	r15, r1
    12c8:	d1 cf       	rjmp	.-94     	; 0x126c <CheckLetter+0x38>
            if (data[y] == '[') found = 1;
        }
        object += max;
        x -= max;
    }
    return 0;
    12ca:	80 e0       	ldi	r24, 0x00	; 0
    12cc:	01 c0       	rjmp	.+2      	; 0x12d0 <CheckLetter+0x9c>
    while (x){
        uint8_t max = (x>32)?32:x;
        ExtEERead(object+OFF_STRINGFLDS+1, max, GAME, &data[0]);
        for (uint8_t y=0; y<max; ++y){
            if (found){
                if ((data[y]|0x20) == letter) return 1; else return 0;
    12ce:	80 e0       	ldi	r24, 0x00	; 0
        }
        object += max;
        x -= max;
    }
    return 0;
}
    12d0:	a0 96       	adiw	r28, 0x20	; 32
    12d2:	cd bf       	out	0x3d, r28	; 61
    12d4:	de bf       	out	0x3e, r29	; 62
    12d6:	df 91       	pop	r29
    12d8:	cf 91       	pop	r28
    12da:	1f 91       	pop	r17
    12dc:	0f 91       	pop	r16
    12de:	ff 90       	pop	r15
    12e0:	ef 90       	pop	r14
    12e2:	df 90       	pop	r13
    12e4:	cf 90       	pop	r12
    12e6:	08 95       	ret

000012e8 <FindChild>:

//Returns the child's address if the child is visible and the search letter matches
uint16_t FindChild(uint16_t parent, uint8_t letter, uint16_t start){
    12e8:	bf 92       	push	r11
    12ea:	cf 92       	push	r12
    12ec:	df 92       	push	r13
    12ee:	ef 92       	push	r14
    12f0:	ff 92       	push	r15
    12f2:	0f 93       	push	r16
    12f4:	1f 93       	push	r17
    12f6:	cf 93       	push	r28
    12f8:	df 93       	push	r29
    12fa:	00 d0       	rcall	.+0      	; 0x12fc <FindChild+0x14>
    12fc:	00 d0       	rcall	.+0      	; 0x12fe <FindChild+0x16>
    12fe:	cd b7       	in	r28, 0x3d	; 61
    1300:	de b7       	in	r29, 0x3e	; 62
    1302:	b6 2e       	mov	r11, r22
    1304:	6a 01       	movw	r12, r20
    
    uint16_t child = parent;
    uint8_t data[4];

    ExtEERead(child+L_BOILER, 4, GAME, &data[0]);
    1306:	9e 01       	movw	r18, r28
    1308:	2f 5f       	subi	r18, 0xFF	; 255
    130a:	3f 4f       	sbci	r19, 0xFF	; 255
    130c:	40 e0       	ldi	r20, 0x00	; 0
    130e:	64 e0       	ldi	r22, 0x04	; 4
    1310:	80 96       	adiw	r24, 0x20	; 32
    1312:	f3 dd       	rcall	.-1050   	; 0xefa <ExtEERead>
    parent = (data[0]<<8|data[1]);    //Next object on parent level
    1314:	e9 80       	ldd	r14, Y+1	; 0x01
    1316:	f1 2c       	mov	r15, r1
    1318:	fe 2c       	mov	r15, r14
    131a:	ee 24       	eor	r14, r14
    131c:	8a 81       	ldd	r24, Y+2	; 0x02
    131e:	e8 2a       	or	r14, r24
    child =  (data[2]<<8|data[3]);    //First object on child level
    1320:	0b 81       	ldd	r16, Y+3	; 0x03
    1322:	10 e0       	ldi	r17, 0x00	; 0
    1324:	10 2f       	mov	r17, r16
    1326:	00 27       	eor	r16, r16
    1328:	8c 81       	ldd	r24, Y+4	; 0x04
    132a:	08 2b       	or	r16, r24

    //As long as the child is within the parent's range
    while (parent>child){
    132c:	26 c0       	rjmp	.+76     	; 0x137a <FindChild+0x92>

        //If child's address is higher than the start address, perform search for letter
        if (child>start){
    132e:	c0 16       	cp	r12, r16
    1330:	d1 06       	cpc	r13, r17
    1332:	a8 f4       	brcc	.+42     	; 0x135e <FindChild+0x76>
            ExtEERead(child+OFF_BYTEFLDS+VISIBLE_ACL+L_BOILER, 1, GAME, &data[0]);
    1334:	9e 01       	movw	r18, r28
    1336:	2f 5f       	subi	r18, 0xFF	; 255
    1338:	3f 4f       	sbci	r19, 0xFF	; 255
    133a:	40 e0       	ldi	r20, 0x00	; 0
    133c:	61 e0       	ldi	r22, 0x01	; 1
    133e:	c8 01       	movw	r24, r16
    1340:	85 96       	adiw	r24, 0x25	; 37
    1342:	db dd       	rcall	.-1098   	; 0xefa <ExtEERead>
            if ((data[0] == 0)||(CheckState(data[0]))) {
    1344:	89 81       	ldd	r24, Y+1	; 0x01
    1346:	88 23       	and	r24, r24
    1348:	19 f0       	breq	.+6      	; 0x1350 <FindChild+0x68>
    134a:	62 df       	rcall	.-316    	; 0x1210 <CheckState>
    134c:	88 23       	and	r24, r24
    134e:	39 f0       	breq	.+14     	; 0x135e <FindChild+0x76>
                if ((letter == 0)||(CheckLetter(child, letter))) return child;
    1350:	bb 20       	and	r11, r11
    1352:	c9 f0       	breq	.+50     	; 0x1386 <FindChild+0x9e>
    1354:	6b 2d       	mov	r22, r11
    1356:	c8 01       	movw	r24, r16
    1358:	6d df       	rcall	.-294    	; 0x1234 <CheckLetter>
    135a:	81 11       	cpse	r24, r1
    135c:	17 c0       	rjmp	.+46     	; 0x138c <FindChild+0xa4>
            }
        }

        //Not visible or name not right
        ExtEERead(child+L_BOILER, 2, GAME, &data[0]);
    135e:	9e 01       	movw	r18, r28
    1360:	2f 5f       	subi	r18, 0xFF	; 255
    1362:	3f 4f       	sbci	r19, 0xFF	; 255
    1364:	40 e0       	ldi	r20, 0x00	; 0
    1366:	62 e0       	ldi	r22, 0x02	; 2
    1368:	c8 01       	movw	r24, r16
    136a:	80 96       	adiw	r24, 0x20	; 32
    136c:	c6 dd       	rcall	.-1140   	; 0xefa <ExtEERead>
        child = (data[0]<<8|data[1]);    //Next object on child level
    136e:	09 81       	ldd	r16, Y+1	; 0x01
    1370:	10 e0       	ldi	r17, 0x00	; 0
    1372:	10 2f       	mov	r17, r16
    1374:	00 27       	eor	r16, r16
    1376:	8a 81       	ldd	r24, Y+2	; 0x02
    1378:	08 2b       	or	r16, r24
    ExtEERead(child+L_BOILER, 4, GAME, &data[0]);
    parent = (data[0]<<8|data[1]);    //Next object on parent level
    child =  (data[2]<<8|data[3]);    //First object on child level

    //As long as the child is within the parent's range
    while (parent>child){
    137a:	0e 15       	cp	r16, r14
    137c:	1f 05       	cpc	r17, r15
    137e:	b8 f2       	brcs	.-82     	; 0x132e <FindChild+0x46>

        //Not visible or name not right
        ExtEERead(child+L_BOILER, 2, GAME, &data[0]);
        child = (data[0]<<8|data[1]);    //Next object on child level
        
    } return 0;
    1380:	80 e0       	ldi	r24, 0x00	; 0
    1382:	90 e0       	ldi	r25, 0x00	; 0
    1384:	05 c0       	rjmp	.+10     	; 0x1390 <FindChild+0xa8>

        //If child's address is higher than the start address, perform search for letter
        if (child>start){
            ExtEERead(child+OFF_BYTEFLDS+VISIBLE_ACL+L_BOILER, 1, GAME, &data[0]);
            if ((data[0] == 0)||(CheckState(data[0]))) {
                if ((letter == 0)||(CheckLetter(child, letter))) return child;
    1386:	80 2f       	mov	r24, r16
    1388:	91 2f       	mov	r25, r17
    138a:	02 c0       	rjmp	.+4      	; 0x1390 <FindChild+0xa8>
    138c:	80 2f       	mov	r24, r16
    138e:	91 2f       	mov	r25, r17
        //Not visible or name not right
        ExtEERead(child+L_BOILER, 2, GAME, &data[0]);
        child = (data[0]<<8|data[1]);    //Next object on child level
        
    } return 0;
}
    1390:	24 96       	adiw	r28, 0x04	; 4
    1392:	cd bf       	out	0x3d, r28	; 61
    1394:	de bf       	out	0x3e, r29	; 62
    1396:	df 91       	pop	r29
    1398:	cf 91       	pop	r28
    139a:	1f 91       	pop	r17
    139c:	0f 91       	pop	r16
    139e:	ff 90       	pop	r15
    13a0:	ef 90       	pop	r14
    13a2:	df 90       	pop	r13
    13a4:	cf 90       	pop	r12
    13a6:	bf 90       	pop	r11
    13a8:	08 95       	ret

000013aa <InpOkChk>:

//Allow only a(A) to z(Z) and 0 to 9 as input
uint8_t InpOkChk(uint8_t test){
    if ((test>='a')&&(test<='z')) return 1;
    13aa:	9f e9       	ldi	r25, 0x9F	; 159
    13ac:	98 0f       	add	r25, r24
    13ae:	9a 31       	cpi	r25, 0x1A	; 26
    13b0:	28 f0       	brcs	.+10     	; 0x13bc <InpOkChk+0x12>
    if ((test>='0')&&(test<='9')) return 1;
    13b2:	80 53       	subi	r24, 0x30	; 48
    13b4:	8a 30       	cpi	r24, 0x0A	; 10
    13b6:	20 f4       	brcc	.+8      	; 0x13c0 <InpOkChk+0x16>
    13b8:	81 e0       	ldi	r24, 0x01	; 1
    13ba:	08 95       	ret
    } return 0;
}

//Allow only a(A) to z(Z) and 0 to 9 as input
uint8_t InpOkChk(uint8_t test){
    if ((test>='a')&&(test<='z')) return 1;
    13bc:	81 e0       	ldi	r24, 0x01	; 1
    13be:	08 95       	ret
    if ((test>='0')&&(test<='9')) return 1;
    return 0;
    13c0:	80 e0       	ldi	r24, 0x00	; 0
}
    13c2:	08 95       	ret

000013c4 <CleanInput>:

//Cleans input of garbage and returns length of cleaned input "o->d2  !\0" becomes "od2\0"
uint8_t CleanInput(uint8_t *data){
    13c4:	0f 93       	push	r16
    13c6:	1f 93       	push	r17
    13c8:	cf 93       	push	r28
    13ca:	df 93       	push	r29
    13cc:	8c 01       	movw	r16, r24
    uint8_t cnt = 0;
    for (uint8_t x=0; data[x]!=0; ++x){
    13ce:	c0 e0       	ldi	r28, 0x00	; 0
    return 0;
}

//Cleans input of garbage and returns length of cleaned input "o->d2  !\0" becomes "od2\0"
uint8_t CleanInput(uint8_t *data){
    uint8_t cnt = 0;
    13d0:	d0 e0       	ldi	r29, 0x00	; 0
    for (uint8_t x=0; data[x]!=0; ++x){
    13d2:	09 c0       	rjmp	.+18     	; 0x13e6 <CleanInput+0x22>
        data[cnt] = data[x];
    13d4:	d8 01       	movw	r26, r16
    13d6:	ad 0f       	add	r26, r29
    13d8:	b1 1d       	adc	r27, r1
    13da:	8c 93       	st	X, r24
        if (InpOkChk(data[x])) ++cnt;
    13dc:	80 81       	ld	r24, Z
    13de:	e5 df       	rcall	.-54     	; 0x13aa <InpOkChk>
    13e0:	81 11       	cpse	r24, r1
    13e2:	df 5f       	subi	r29, 0xFF	; 255
}

//Cleans input of garbage and returns length of cleaned input "o->d2  !\0" becomes "od2\0"
uint8_t CleanInput(uint8_t *data){
    uint8_t cnt = 0;
    for (uint8_t x=0; data[x]!=0; ++x){
    13e4:	cf 5f       	subi	r28, 0xFF	; 255
    13e6:	f8 01       	movw	r30, r16
    13e8:	ec 0f       	add	r30, r28
    13ea:	f1 1d       	adc	r31, r1
    13ec:	80 81       	ld	r24, Z
    13ee:	81 11       	cpse	r24, r1
    13f0:	f1 cf       	rjmp	.-30     	; 0x13d4 <CleanInput+0x10>
        data[cnt] = data[x];
        if (InpOkChk(data[x])) ++cnt;
    }
    data[cnt] = 0;
    13f2:	f8 01       	movw	r30, r16
    13f4:	ed 0f       	add	r30, r29
    13f6:	f1 1d       	adc	r31, r1
    13f8:	10 82       	st	Z, r1
    return cnt;
}
    13fa:	8d 2f       	mov	r24, r29
    13fc:	df 91       	pop	r29
    13fe:	cf 91       	pop	r28
    1400:	1f 91       	pop	r17
    1402:	0f 91       	pop	r16
    1404:	08 95       	ret

00001406 <CheckSend>:

//Send routine, optimized for low memory usage
uint8_t CheckSend(){
    1406:	cf 93       	push	r28
    static uint8_t txPart;
    uint8_t EEreadLength=0;

    //Check if more string(part)s have to be sent to the serial output if previous send operation is completed
    if ((txAddrNow < TXLISTLEN) && serTxDone){
    1408:	80 91 32 3a 	lds	r24, 0x3A32	; 0x803a32 <txAddrNow>
    140c:	88 30       	cpi	r24, 0x08	; 8
    140e:	08 f0       	brcs	.+2      	; 0x1412 <CheckSend+0xc>
    1410:	45 c0       	rjmp	.+138    	; 0x149c <CheckSend+0x96>
    1412:	90 91 04 38 	lds	r25, 0x3804	; 0x803804 <serTxDone>
    1416:	99 23       	and	r25, r25
    1418:	09 f4       	brne	.+2      	; 0x141c <CheckSend+0x16>
    141a:	40 c0       	rjmp	.+128    	; 0x149c <CheckSend+0x96>
        if (txStrLen[txAddrNow] == 0){
    141c:	28 2f       	mov	r18, r24
    141e:	30 e0       	ldi	r19, 0x00	; 0
    1420:	f9 01       	movw	r30, r18
    1422:	ed 5c       	subi	r30, 0xCD	; 205
    1424:	f5 4c       	sbci	r31, 0xC5	; 197
    1426:	e0 81       	ld	r30, Z
    1428:	e1 11       	cpse	r30, r1
    142a:	07 c0       	rjmp	.+14     	; 0x143a <CheckSend+0x34>
            txPart = 0;
    142c:	10 92 07 39 	sts	0x3907, r1	; 0x803907 <txPart.3913>
            txAddrNow = TXLISTLEN;
    1430:	88 e0       	ldi	r24, 0x08	; 8
    1432:	80 93 32 3a 	sts	0x3A32, r24	; 0x803a32 <txAddrNow>
        } else {
            txPart = 0;
            ++txAddrNow;
        }
    } else if (serTxDone) return 0; //All is sent!
    return 1; //Still sending, do not change the data in the tx variables
    1436:	81 e0       	ldi	r24, 0x01	; 1
    1438:	38 c0       	rjmp	.+112    	; 0x14aa <CheckSend+0xa4>
    //Check if more string(part)s have to be sent to the serial output if previous send operation is completed
    if ((txAddrNow < TXLISTLEN) && serTxDone){
        if (txStrLen[txAddrNow] == 0){
            txPart = 0;
            txAddrNow = TXLISTLEN;
        } else if (txPart < txStrLen[txAddrNow]){
    143a:	90 91 07 39 	lds	r25, 0x3907	; 0x803907 <txPart.3913>
    143e:	9e 17       	cp	r25, r30
    1440:	30 f5       	brcc	.+76     	; 0x148e <CheckSend+0x88>
            EEreadLength = txStrLen[txAddrNow]-txPart;
    1442:	ce 2f       	mov	r28, r30
    1444:	c9 1b       	sub	r28, r25
            if (EEreadLength>=TXLEN) EEreadLength = TXLEN-1;
    1446:	c1 32       	cpi	r28, 0x21	; 33
    1448:	08 f0       	brcs	.+2      	; 0x144c <CheckSend+0x46>
    144a:	c0 e2       	ldi	r28, 0x20	; 32
            ExtEERead(txAddrList[txAddrNow]+txPart, EEreadLength, txTypeNow, &txBuffer[0]);
    144c:	22 0f       	add	r18, r18
    144e:	33 1f       	adc	r19, r19
    1450:	f9 01       	movw	r30, r18
    1452:	e5 5c       	subi	r30, 0xC5	; 197
    1454:	f5 4c       	sbci	r31, 0xC5	; 197
    1456:	01 90       	ld	r0, Z+
    1458:	f0 81       	ld	r31, Z
    145a:	e0 2d       	mov	r30, r0
    145c:	28 ef       	ldi	r18, 0xF8	; 248
    145e:	3a e3       	ldi	r19, 0x3A	; 58
    1460:	40 91 31 3a 	lds	r20, 0x3A31	; 0x803a31 <txTypeNow>
    1464:	6c 2f       	mov	r22, r28
    1466:	df 01       	movw	r26, r30
    1468:	a9 0f       	add	r26, r25
    146a:	b1 1d       	adc	r27, r1
    146c:	cd 01       	movw	r24, r26
    146e:	45 dd       	rcall	.-1398   	; 0xefa <ExtEERead>
            txPart += EEreadLength;
    1470:	80 91 07 39 	lds	r24, 0x3907	; 0x803907 <txPart.3913>
    1474:	8c 0f       	add	r24, r28
    1476:	80 93 07 39 	sts	0x3907, r24	; 0x803907 <txPart.3913>
            txBuffer[EEreadLength] = 0; //Add string terminator after piece to send to plug memory leak
    147a:	ec 2f       	mov	r30, r28
    147c:	f0 e0       	ldi	r31, 0x00	; 0
    147e:	e8 50       	subi	r30, 0x08	; 8
    1480:	f5 4c       	sbci	r31, 0xC5	; 197
    1482:	10 82       	st	Z, r1
            SerSend(&txBuffer[0]);
    1484:	88 ef       	ldi	r24, 0xF8	; 248
    1486:	9a e3       	ldi	r25, 0x3A	; 58
    1488:	c2 da       	rcall	.-2684   	; 0xa0e <SerSend>
        } else {
            txPart = 0;
            ++txAddrNow;
        }
    } else if (serTxDone) return 0; //All is sent!
    return 1; //Still sending, do not change the data in the tx variables
    148a:	81 e0       	ldi	r24, 0x01	; 1
    148c:	0e c0       	rjmp	.+28     	; 0x14aa <CheckSend+0xa4>
            ExtEERead(txAddrList[txAddrNow]+txPart, EEreadLength, txTypeNow, &txBuffer[0]);
            txPart += EEreadLength;
            txBuffer[EEreadLength] = 0; //Add string terminator after piece to send to plug memory leak
            SerSend(&txBuffer[0]);
        } else {
            txPart = 0;
    148e:	10 92 07 39 	sts	0x3907, r1	; 0x803907 <txPart.3913>
            ++txAddrNow;
    1492:	8f 5f       	subi	r24, 0xFF	; 255
    1494:	80 93 32 3a 	sts	0x3A32, r24	; 0x803a32 <txAddrNow>
        }
    } else if (serTxDone) return 0; //All is sent!
    return 1; //Still sending, do not change the data in the tx variables
    1498:	81 e0       	ldi	r24, 0x01	; 1
    149a:	07 c0       	rjmp	.+14     	; 0x14aa <CheckSend+0xa4>
            SerSend(&txBuffer[0]);
        } else {
            txPart = 0;
            ++txAddrNow;
        }
    } else if (serTxDone) return 0; //All is sent!
    149c:	80 91 04 38 	lds	r24, 0x3804	; 0x803804 <serTxDone>
    14a0:	88 23       	and	r24, r24
    14a2:	11 f0       	breq	.+4      	; 0x14a8 <CheckSend+0xa2>
    14a4:	80 e0       	ldi	r24, 0x00	; 0
    14a6:	01 c0       	rjmp	.+2      	; 0x14aa <CheckSend+0xa4>
    return 1; //Still sending, do not change the data in the tx variables
    14a8:	81 e0       	ldi	r24, 0x01	; 1
}
    14aa:	cf 91       	pop	r28
    14ac:	08 95       	ret

000014ae <CheckResponse>:

//Send another part of the response and play the effect afterwards
uint8_t CheckResponse(){
    static uint8_t number = 0;
    if (responseList){
    14ae:	80 91 08 39 	lds	r24, 0x3908	; 0x803908 <responseList>
    14b2:	88 23       	and	r24, r24
    14b4:	09 f4       	brne	.+2      	; 0x14b8 <CheckResponse+0xa>
    14b6:	44 c0       	rjmp	.+136    	; 0x1540 <CheckResponse+0x92>
        --responseList;
    14b8:	80 91 08 39 	lds	r24, 0x3908	; 0x803908 <responseList>
    14bc:	81 50       	subi	r24, 0x01	; 1
    14be:	80 93 08 39 	sts	0x3908, r24	; 0x803908 <responseList>
        if (reactStr[0][number] == CURR_LOC) {
    14c2:	20 91 06 39 	lds	r18, 0x3906	; 0x803906 <number.3917>
    14c6:	30 e0       	ldi	r19, 0x00	; 0
    14c8:	f9 01       	movw	r30, r18
    14ca:	ee 0f       	add	r30, r30
    14cc:	ff 1f       	adc	r31, r31
    14ce:	e7 5f       	subi	r30, 0xF7	; 247
    14d0:	f6 4c       	sbci	r31, 0xC6	; 198
    14d2:	80 81       	ld	r24, Z
    14d4:	91 81       	ldd	r25, Z+1	; 0x01
    14d6:	80 3f       	cpi	r24, 0xF0	; 240
    14d8:	4f ef       	ldi	r20, 0xFF	; 255
    14da:	94 07       	cpc	r25, r20
    14dc:	49 f4       	brne	.+18     	; 0x14f0 <CheckResponse+0x42>
            PrepareSending(currObj.addrStr[NAME], currObj.lenStr[NAME], GAME);
    14de:	e9 e0       	ldi	r30, 0x09	; 9
    14e0:	fa e3       	ldi	r31, 0x3A	; 58
    14e2:	62 8d       	ldd	r22, Z+26	; 0x1a
    14e4:	73 8d       	ldd	r23, Z+27	; 0x1b
    14e6:	40 e0       	ldi	r20, 0x00	; 0
    14e8:	84 85       	ldd	r24, Z+12	; 0x0c
    14ea:	95 85       	ldd	r25, Z+13	; 0x0d
    14ec:	5a dd       	rcall	.-1356   	; 0xfa2 <PrepareSending>
    14ee:	11 c0       	rjmp	.+34     	; 0x1512 <CheckResponse+0x64>
        } else {
            PrepareSending(reactStr[0][number], reactStr[1][number], reactStr[2][number]);
    14f0:	f9 01       	movw	r30, r18
    14f2:	e0 5c       	subi	r30, 0xC0	; 192
    14f4:	ff 4f       	sbci	r31, 0xFF	; 255
    14f6:	ee 0f       	add	r30, r30
    14f8:	ff 1f       	adc	r31, r31
    14fa:	e7 5f       	subi	r30, 0xF7	; 247
    14fc:	f6 4c       	sbci	r31, 0xC6	; 198
    14fe:	40 81       	ld	r20, Z
    1500:	f9 01       	movw	r30, r18
    1502:	b0 96       	adiw	r30, 0x20	; 32
    1504:	ee 0f       	add	r30, r30
    1506:	ff 1f       	adc	r31, r31
    1508:	e7 5f       	subi	r30, 0xF7	; 247
    150a:	f6 4c       	sbci	r31, 0xC6	; 198
    150c:	60 81       	ld	r22, Z
    150e:	71 81       	ldd	r23, Z+1	; 0x01
    1510:	48 dd       	rcall	.-1392   	; 0xfa2 <PrepareSending>
        }
        ++number;
    1512:	80 91 06 39 	lds	r24, 0x3906	; 0x803906 <number.3917>
    1516:	8f 5f       	subi	r24, 0xFF	; 255
    1518:	80 93 06 39 	sts	0x3906, r24	; 0x803906 <number.3917>

        if (responseList == 0) {
    151c:	80 91 08 39 	lds	r24, 0x3908	; 0x803908 <responseList>
    1520:	81 11       	cpse	r24, r1
    1522:	0d c0       	rjmp	.+26     	; 0x153e <CheckResponse+0x90>
            effect = currObj.byteField[EFFECTS];
    1524:	20 91 0d 3a 	lds	r18, 0x3A0D	; 0x803a0d <currObj+0x4>
    1528:	30 e0       	ldi	r19, 0x00	; 0
    152a:	20 93 93 38 	sts	0x3893, r18	; 0x803893 <effect>
    152e:	30 93 94 38 	sts	0x3894, r19	; 0x803894 <effect+0x1>
            RXCNT = 0;
    1532:	1d ba       	out	0x1d, r1	; 29
            serRxDone = 0;
    1534:	10 92 9c 38 	sts	0x389C, r1	; 0x80389c <serRxDone>
            number = 0;
    1538:	10 92 06 39 	sts	0x3906, r1	; 0x803906 <number.3917>
            return 0;
    153c:	08 95       	ret
        }
        return 1;
    153e:	81 e0       	ldi	r24, 0x01	; 1
    }
    return 0;
}
    1540:	08 95       	ret

00001542 <CheckInput>:

//User input check (and validation)
uint8_t CheckInput(uint8_t *data){
    1542:	ef 92       	push	r14
    1544:	ff 92       	push	r15
    1546:	0f 93       	push	r16
    1548:	1f 93       	push	r17
    154a:	cf 93       	push	r28
    154c:	df 93       	push	r29
    154e:	cd b7       	in	r28, 0x3d	; 61
    1550:	de b7       	in	r29, 0x3e	; 62
    1552:	2a 97       	sbiw	r28, 0x0a	; 10
    1554:	cd bf       	out	0x3d, r28	; 61
    1556:	de bf       	out	0x3e, r29	; 62
    1558:	8c 01       	movw	r16, r24
    
    //Load game data after reboot
    if (currDepth == 0xff) {
    155a:	80 91 8f 38 	lds	r24, 0x388F	; 0x80388f <currDepth>
    155e:	8f 3f       	cpi	r24, 0xFF	; 255
    1560:	09 f0       	breq	.+2      	; 0x1564 <CheckInput+0x22>
    1562:	57 c0       	rjmp	.+174    	; 0x1612 <CheckInput+0xd0>
        //Load things from EEPROM
        EERead(0, &gameState[0], BOOTCHK);   //Load game status bits from EEPROM
    1564:	44 e1       	ldi	r20, 0x14	; 20
    1566:	6d e4       	ldi	r22, 0x4D	; 77
    1568:	7a e3       	ldi	r23, 0x3A	; 58
    156a:	80 e0       	ldi	r24, 0x00	; 0
    156c:	12 da       	rcall	.-3036   	; 0x992 <EERead>
        inventory[0] = (gameState[INVADDR]<<8|gameState[INVADDR+1]);
    156e:	ed e4       	ldi	r30, 0x4D	; 77
    1570:	fa e3       	ldi	r31, 0x3A	; 58
    1572:	80 89       	ldd	r24, Z+16	; 0x10
    1574:	90 e0       	ldi	r25, 0x00	; 0
    1576:	98 2f       	mov	r25, r24
    1578:	88 27       	eor	r24, r24
    157a:	21 89       	ldd	r18, Z+17	; 0x11
    157c:	82 2b       	or	r24, r18
    157e:	a6 e9       	ldi	r26, 0x96	; 150
    1580:	b8 e3       	ldi	r27, 0x38	; 56
    1582:	8d 93       	st	X+, r24
    1584:	9c 93       	st	X, r25
    1586:	11 97       	sbiw	r26, 0x01	; 1
        inventory[1] = (gameState[INVADDR+2]<<8|gameState[INVADDR+3]);
    1588:	82 89       	ldd	r24, Z+18	; 0x12
    158a:	90 e0       	ldi	r25, 0x00	; 0
    158c:	98 2f       	mov	r25, r24
    158e:	88 27       	eor	r24, r24
    1590:	23 89       	ldd	r18, Z+19	; 0x13
    1592:	82 2b       	or	r24, r18
    1594:	12 96       	adiw	r26, 0x02	; 2
    1596:	8d 93       	st	X+, r24
    1598:	9c 93       	st	X, r25
    159a:	13 97       	sbiw	r26, 0x03	; 3

        uint8_t idSet = 0;
        for (uint8_t x=0; x<4; ++x){
    159c:	f1 2c       	mov	r15, r1
        //Load things from EEPROM
        EERead(0, &gameState[0], BOOTCHK);   //Load game status bits from EEPROM
        inventory[0] = (gameState[INVADDR]<<8|gameState[INVADDR+1]);
        inventory[1] = (gameState[INVADDR+2]<<8|gameState[INVADDR+3]);

        uint8_t idSet = 0;
    159e:	e1 2c       	mov	r14, r1
        for (uint8_t x=0; x<4; ++x){
    15a0:	05 c0       	rjmp	.+10     	; 0x15ac <CheckInput+0x6a>
            idSet += ReadStatusBit(110+x);
    15a2:	8e e6       	ldi	r24, 0x6E	; 110
    15a4:	8f 0d       	add	r24, r15
    15a6:	93 db       	rcall	.-2266   	; 0xcce <ReadStatusBit>
    15a8:	e8 0e       	add	r14, r24
        EERead(0, &gameState[0], BOOTCHK);   //Load game status bits from EEPROM
        inventory[0] = (gameState[INVADDR]<<8|gameState[INVADDR+1]);
        inventory[1] = (gameState[INVADDR+2]<<8|gameState[INVADDR+3]);

        uint8_t idSet = 0;
        for (uint8_t x=0; x<4; ++x){
    15aa:	f3 94       	inc	r15
    15ac:	83 e0       	ldi	r24, 0x03	; 3
    15ae:	8f 15       	cp	r24, r15
    15b0:	c0 f7       	brcc	.-16     	; 0x15a2 <CheckInput+0x60>
            idSet += ReadStatusBit(110+x);
        }

        //Check if badge is reset (cheated!)
        if (idSet == 0) {
    15b2:	e1 10       	cpse	r14, r1
            Reset();
    15b4:	02 c0       	rjmp	.+4      	; 0x15ba <CheckInput+0x78>
    15b6:	df db       	rcall	.-2114   	; 0xd76 <Reset>
        } else getID();
    15b8:	01 c0       	rjmp	.+2      	; 0x15bc <CheckInput+0x7a>
    15ba:	ce db       	rcall	.-2148   	; 0xd58 <getID>

        //Start at first location
        PopulateObject(route[0], &currObj);
    15bc:	69 e0       	ldi	r22, 0x09	; 9
    15be:	7a e3       	ldi	r23, 0x3A	; 58
    15c0:	80 91 c9 39 	lds	r24, 0x39C9	; 0x8039c9 <route>
    15c4:	90 91 ca 39 	lds	r25, 0x39CA	; 0x8039ca <route+0x1>
    15c8:	a7 dd       	rcall	.-1202   	; 0x1118 <PopulateObject>
        currDepth = 0;
    15ca:	10 92 8f 38 	sts	0x388F, r1	; 0x80388f <currDepth>

        //Play an effect if configured
        if ((effect < 0x0100) && (effect ^ currObj.byteField[EFFECTS])){
    15ce:	80 91 93 38 	lds	r24, 0x3893	; 0x803893 <effect>
    15d2:	90 91 94 38 	lds	r25, 0x3894	; 0x803894 <effect+0x1>
    15d6:	8f 3f       	cpi	r24, 0xFF	; 255
    15d8:	91 05       	cpc	r25, r1
    15da:	09 f0       	breq	.+2      	; 0x15de <CheckInput+0x9c>
    15dc:	d0 f4       	brcc	.+52     	; 0x1612 <CheckInput+0xd0>
    15de:	80 91 0d 3a 	lds	r24, 0x3A0D	; 0x803a0d <currObj+0x4>
    15e2:	90 e0       	ldi	r25, 0x00	; 0
    15e4:	20 91 93 38 	lds	r18, 0x3893	; 0x803893 <effect>
    15e8:	30 91 94 38 	lds	r19, 0x3894	; 0x803894 <effect+0x1>
    15ec:	82 17       	cp	r24, r18
    15ee:	93 07       	cpc	r25, r19
    15f0:	81 f0       	breq	.+32     	; 0x1612 <CheckInput+0xd0>
            effect = currObj.byteField[EFFECTS];
    15f2:	80 93 93 38 	sts	0x3893, r24	; 0x803893 <effect>
    15f6:	90 93 94 38 	sts	0x3894, r25	; 0x803894 <effect+0x1>
            auStart = ((effect&0xE0)>0);
    15fa:	80 91 93 38 	lds	r24, 0x3893	; 0x803893 <effect>
    15fe:	90 91 94 38 	lds	r25, 0x3894	; 0x803894 <effect+0x1>
    1602:	80 7e       	andi	r24, 0xE0	; 224
    1604:	99 27       	eor	r25, r25
    1606:	21 e0       	ldi	r18, 0x01	; 1
    1608:	89 2b       	or	r24, r25
    160a:	09 f4       	brne	.+2      	; 0x160e <CheckInput+0xcc>
    160c:	20 e0       	ldi	r18, 0x00	; 0
    160e:	20 93 92 38 	sts	0x3892, r18	; 0x803892 <auStart>
        }
    }

    if (serRxDone){
    1612:	80 91 9c 38 	lds	r24, 0x389C	; 0x80389c <serRxDone>
    1616:	81 11       	cpse	r24, r1
    1618:	2f c0       	rjmp	.+94     	; 0x1678 <CheckInput+0x136>
        //Data received, but not any of the commands above
        return 0;
    }

    //Serial input not available yet
    return 1;
    161a:	81 e0       	ldi	r24, 0x01	; 1
    161c:	d7 c0       	rjmp	.+430    	; 0x17cc <CheckInput+0x28a>
    }

    if (serRxDone){
        //Read up to the \0 character and convert to lower case.
        for (uint8_t x=0; x<RXLEN; ++x){
            if ((serRx[x]<'A')||(serRx[x]>'Z')) data[x]=serRx[x]; else data[x]=serRx[x]|0x20;
    161e:	28 2f       	mov	r18, r24
    1620:	30 e0       	ldi	r19, 0x00	; 0
    1622:	f9 01       	movw	r30, r18
    1624:	ef 59       	subi	r30, 0x9F	; 159
    1626:	f5 4c       	sbci	r31, 0xC5	; 197
    1628:	90 81       	ld	r25, Z
    162a:	91 34       	cpi	r25, 0x41	; 65
    162c:	30 f0       	brcs	.+12     	; 0x163a <CheckInput+0xf8>
    162e:	f9 01       	movw	r30, r18
    1630:	ef 59       	subi	r30, 0x9F	; 159
    1632:	f5 4c       	sbci	r31, 0xC5	; 197
    1634:	90 81       	ld	r25, Z
    1636:	9b 35       	cpi	r25, 0x5B	; 91
    1638:	48 f0       	brcs	.+18     	; 0x164c <CheckInput+0x10a>
    163a:	f9 01       	movw	r30, r18
    163c:	ef 59       	subi	r30, 0x9F	; 159
    163e:	f5 4c       	sbci	r31, 0xC5	; 197
    1640:	90 81       	ld	r25, Z
    1642:	f8 01       	movw	r30, r16
    1644:	e8 0f       	add	r30, r24
    1646:	f1 1d       	adc	r31, r1
    1648:	90 83       	st	Z, r25
    164a:	09 c0       	rjmp	.+18     	; 0x165e <CheckInput+0x11c>
    164c:	f8 01       	movw	r30, r16
    164e:	e8 0f       	add	r30, r24
    1650:	f1 1d       	adc	r31, r1
    1652:	d9 01       	movw	r26, r18
    1654:	af 59       	subi	r26, 0x9F	; 159
    1656:	b5 4c       	sbci	r27, 0xC5	; 197
    1658:	9c 91       	ld	r25, X
    165a:	90 62       	ori	r25, 0x20	; 32
    165c:	90 83       	st	Z, r25
            if (serRx[x] == 0) {
    165e:	f9 01       	movw	r30, r18
    1660:	ef 59       	subi	r30, 0x9F	; 159
    1662:	f5 4c       	sbci	r31, 0xC5	; 197
    1664:	90 81       	ld	r25, Z
    1666:	91 11       	cpse	r25, r1
    1668:	05 c0       	rjmp	.+10     	; 0x1674 <CheckInput+0x132>
                data[x] = 0;
    166a:	f8 01       	movw	r30, r16
    166c:	e8 0f       	add	r30, r24
    166e:	f1 1d       	adc	r31, r1
    1670:	10 82       	st	Z, r1
                break;
    1672:	05 c0       	rjmp	.+10     	; 0x167e <CheckInput+0x13c>
        }
    }

    if (serRxDone){
        //Read up to the \0 character and convert to lower case.
        for (uint8_t x=0; x<RXLEN; ++x){
    1674:	8f 5f       	subi	r24, 0xFF	; 255
    1676:	01 c0       	rjmp	.+2      	; 0x167a <CheckInput+0x138>
    1678:	80 e0       	ldi	r24, 0x00	; 0
    167a:	81 34       	cpi	r24, 0x41	; 65
    167c:	80 f2       	brcs	.-96     	; 0x161e <CheckInput+0xdc>
                break;
            }
        }

        //No text
        if (serRx[0] == 0){
    167e:	80 91 61 3a 	lds	r24, 0x3A61	; 0x803a61 <serRx>
    1682:	81 11       	cpse	r24, r1
    1684:	07 c0       	rjmp	.+14     	; 0x1694 <CheckInput+0x152>
            data[0] = 0;
    1686:	f8 01       	movw	r30, r16
    1688:	10 82       	st	Z, r1
            RXCNT = 0;
    168a:	1d ba       	out	0x1d, r1	; 29
            serRxDone = 0;
    168c:	10 92 9c 38 	sts	0x389C, r1	; 0x80389c <serRxDone>
            return 1;
    1690:	81 e0       	ldi	r24, 0x01	; 1
    1692:	9c c0       	rjmp	.+312    	; 0x17cc <CheckInput+0x28a>
        }

        //Help text
        if ((data[0] == '?')||(data[0] == 'h')){
    1694:	f8 01       	movw	r30, r16
    1696:	80 81       	ld	r24, Z
    1698:	8f 33       	cpi	r24, 0x3F	; 63
    169a:	11 f0       	breq	.+4      	; 0x16a0 <CheckInput+0x15e>
    169c:	88 36       	cpi	r24, 0x68	; 104
    169e:	69 f4       	brne	.+26     	; 0x16ba <CheckInput+0x178>
            SetResponse(0, A_HELP, L_HELP, TEASER);
    16a0:	21 e0       	ldi	r18, 0x01	; 1
    16a2:	4f e4       	ldi	r20, 0x4F	; 79
    16a4:	54 e0       	ldi	r21, 0x04	; 4
    16a6:	61 eb       	ldi	r22, 0xB1	; 177
    16a8:	7b e7       	ldi	r23, 0x7B	; 123
    16aa:	80 e0       	ldi	r24, 0x00	; 0
            responseList = SetStandardResponse(1);
    16ac:	d2 dc       	rcall	.-1628   	; 0x1052 <SetResponse>
    16ae:	81 e0       	ldi	r24, 0x01	; 1
    16b0:	eb dc       	rcall	.-1578   	; 0x1088 <SetStandardResponse>
    16b2:	80 93 08 39 	sts	0x3908, r24	; 0x803908 <responseList>
            return 1;
    16b6:	81 e0       	ldi	r24, 0x01	; 1
    16b8:	89 c0       	rjmp	.+274    	; 0x17cc <CheckInput+0x28a>
        }        
        
        //Alphabet text
        if (data[0] == 'a'){
    16ba:	81 36       	cpi	r24, 0x61	; 97
            SetResponse(0, A_ALPHABET, L_ALPHABET, TEASER);
    16bc:	69 f4       	brne	.+26     	; 0x16d8 <CheckInput+0x196>
    16be:	21 e0       	ldi	r18, 0x01	; 1
    16c0:	4b e1       	ldi	r20, 0x1B	; 27
    16c2:	51 e0       	ldi	r21, 0x01	; 1
    16c4:	66 e9       	ldi	r22, 0x96	; 150
    16c6:	7a e7       	ldi	r23, 0x7A	; 122
    16c8:	80 e0       	ldi	r24, 0x00	; 0
            responseList = SetStandardResponse(1);
    16ca:	c3 dc       	rcall	.-1658   	; 0x1052 <SetResponse>
    16cc:	81 e0       	ldi	r24, 0x01	; 1
    16ce:	dc dc       	rcall	.-1608   	; 0x1088 <SetStandardResponse>
    16d0:	80 93 08 39 	sts	0x3908, r24	; 0x803908 <responseList>
            return 1;
    16d4:	81 e0       	ldi	r24, 0x01	; 1
    16d6:	7a c0       	rjmp	.+244    	; 0x17cc <CheckInput+0x28a>
        }

        //Whoami text
        if (data[0] == 'w'){
    16d8:	87 37       	cpi	r24, 0x77	; 119
    16da:	09 f0       	breq	.+2      	; 0x16de <CheckInput+0x19c>
            SetResponse(0, A_HELLO, L_HELLO, TEASER);
    16dc:	44 c0       	rjmp	.+136    	; 0x1766 <CheckInput+0x224>
    16de:	21 e0       	ldi	r18, 0x01	; 1
    16e0:	42 e1       	ldi	r20, 0x12	; 18
    16e2:	50 e0       	ldi	r21, 0x00	; 0
    16e4:	67 ef       	ldi	r22, 0xF7	; 247
    16e6:	76 e7       	ldi	r23, 0x76	; 118
    16e8:	80 e0       	ldi	r24, 0x00	; 0
            if (whoami == 1) {
    16ea:	b3 dc       	rcall	.-1690   	; 0x1052 <SetResponse>
    16ec:	80 91 95 38 	lds	r24, 0x3895	; 0x803895 <whoami>
    16f0:	81 30       	cpi	r24, 0x01	; 1
                SetResponse(1, A_ANUBIS, L_ANUBIS, TEASER);
    16f2:	39 f4       	brne	.+14     	; 0x1702 <CheckInput+0x1c0>
    16f4:	21 e0       	ldi	r18, 0x01	; 1
    16f6:	46 e0       	ldi	r20, 0x06	; 6
    16f8:	50 e0       	ldi	r21, 0x00	; 0
    16fa:	61 ef       	ldi	r22, 0xF1	; 241
    16fc:	76 e7       	ldi	r23, 0x76	; 118
    16fe:	a9 dc       	rcall	.-1710   	; 0x1052 <SetResponse>
            } else if (whoami == 2) {
    1700:	25 c0       	rjmp	.+74     	; 0x174c <CheckInput+0x20a>
    1702:	82 30       	cpi	r24, 0x02	; 2
                SetResponse(1, A_BES, L_BES, TEASER);
    1704:	41 f4       	brne	.+16     	; 0x1716 <CheckInput+0x1d4>
    1706:	21 e0       	ldi	r18, 0x01	; 1
    1708:	43 e0       	ldi	r20, 0x03	; 3
    170a:	50 e0       	ldi	r21, 0x00	; 0
    170c:	6e ee       	ldi	r22, 0xEE	; 238
    170e:	76 e7       	ldi	r23, 0x76	; 118
    1710:	81 e0       	ldi	r24, 0x01	; 1
    1712:	9f dc       	rcall	.-1730   	; 0x1052 <SetResponse>
            } else if (whoami == 3) {
    1714:	1b c0       	rjmp	.+54     	; 0x174c <CheckInput+0x20a>
    1716:	83 30       	cpi	r24, 0x03	; 3
                SetResponse(1, A_KHONSU, L_KHONSU, TEASER);
    1718:	41 f4       	brne	.+16     	; 0x172a <CheckInput+0x1e8>
    171a:	21 e0       	ldi	r18, 0x01	; 1
    171c:	46 e0       	ldi	r20, 0x06	; 6
    171e:	50 e0       	ldi	r21, 0x00	; 0
    1720:	68 ee       	ldi	r22, 0xE8	; 232
    1722:	76 e7       	ldi	r23, 0x76	; 118
    1724:	81 e0       	ldi	r24, 0x01	; 1
    1726:	95 dc       	rcall	.-1750   	; 0x1052 <SetResponse>
            } else if (whoami == 4) {
    1728:	11 c0       	rjmp	.+34     	; 0x174c <CheckInput+0x20a>
    172a:	84 30       	cpi	r24, 0x04	; 4
                SetResponse(1, A_THOTH, L_THOTH, TEASER);
    172c:	41 f4       	brne	.+16     	; 0x173e <CheckInput+0x1fc>
    172e:	21 e0       	ldi	r18, 0x01	; 1
    1730:	45 e0       	ldi	r20, 0x05	; 5
    1732:	50 e0       	ldi	r21, 0x00	; 0
    1734:	63 ee       	ldi	r22, 0xE3	; 227
    1736:	76 e7       	ldi	r23, 0x76	; 118
    1738:	81 e0       	ldi	r24, 0x01	; 1
    173a:	8b dc       	rcall	.-1770   	; 0x1052 <SetResponse>
            } else {
                SetResponse(1, A_ERROR, L_ERROR, TEASER);
    173c:	07 c0       	rjmp	.+14     	; 0x174c <CheckInput+0x20a>
    173e:	21 e0       	ldi	r18, 0x01	; 1
    1740:	42 e4       	ldi	r20, 0x42	; 66
    1742:	50 e0       	ldi	r21, 0x00	; 0
    1744:	6c e6       	ldi	r22, 0x6C	; 108
    1746:	76 e7       	ldi	r23, 0x76	; 118
    1748:	81 e0       	ldi	r24, 0x01	; 1
            }
            SetResponse(2, A_PLEASED, L_PLEASED, TEASER);
    174a:	83 dc       	rcall	.-1786   	; 0x1052 <SetResponse>
    174c:	21 e0       	ldi	r18, 0x01	; 1
    174e:	4a e1       	ldi	r20, 0x1A	; 26
    1750:	50 e0       	ldi	r21, 0x00	; 0
    1752:	69 ec       	ldi	r22, 0xC9	; 201
    1754:	76 e7       	ldi	r23, 0x76	; 118
    1756:	82 e0       	ldi	r24, 0x02	; 2
            responseList = SetStandardResponse(3);
    1758:	7c dc       	rcall	.-1800   	; 0x1052 <SetResponse>
    175a:	83 e0       	ldi	r24, 0x03	; 3
    175c:	95 dc       	rcall	.-1750   	; 0x1088 <SetStandardResponse>
    175e:	80 93 08 39 	sts	0x3908, r24	; 0x803908 <responseList>
            return 1;
    1762:	81 e0       	ldi	r24, 0x01	; 1
        }

        //Quit text
        if (data[0] == 'q'){
    1764:	33 c0       	rjmp	.+102    	; 0x17cc <CheckInput+0x28a>
            SetResponse(0, A_QUIT, L_QUIT, TEASER);
    1766:	81 37       	cpi	r24, 0x71	; 113
    1768:	69 f4       	brne	.+26     	; 0x1784 <CheckInput+0x242>
    176a:	21 e0       	ldi	r18, 0x01	; 1
    176c:	44 e5       	ldi	r20, 0x54	; 84
    176e:	50 e0       	ldi	r21, 0x00	; 0
    1770:	6e e2       	ldi	r22, 0x2E	; 46
    1772:	7a e7       	ldi	r23, 0x7A	; 122
            responseList = SetStandardResponse(1);
    1774:	80 e0       	ldi	r24, 0x00	; 0
    1776:	6d dc       	rcall	.-1830   	; 0x1052 <SetResponse>
    1778:	81 e0       	ldi	r24, 0x01	; 1
    177a:	86 dc       	rcall	.-1780   	; 0x1088 <SetStandardResponse>
            return 1;
    177c:	80 93 08 39 	sts	0x3908, r24	; 0x803908 <responseList>
        }

        //Cheat = reset badge!
        if (StartsWith(&data[0], "iddqd")){
    1780:	81 e0       	ldi	r24, 0x01	; 1
    1782:	24 c0       	rjmp	.+72     	; 0x17cc <CheckInput+0x28a>
    1784:	62 e9       	ldi	r22, 0x92	; 146
    1786:	71 ea       	ldi	r23, 0xA1	; 161
    1788:	c8 01       	movw	r24, r16
    178a:	f1 db       	rcall	.-2078   	; 0xf6e <StartsWith>
    178c:	81 11       	cpse	r24, r1
    178e:	07 c0       	rjmp	.+14     	; 0x179e <CheckInput+0x25c>
            
            //Reset game data by wiping the UUID bits
            for (uint8_t x=0; x<4; ++x){
                WriteStatusBit(110+x, 0);
    1790:	1d c0       	rjmp	.+58     	; 0x17cc <CheckInput+0x28a>
    1792:	60 e0       	ldi	r22, 0x00	; 0
    1794:	8e e6       	ldi	r24, 0x6E	; 110
    1796:	81 0f       	add	r24, r17

        //Cheat = reset badge!
        if (StartsWith(&data[0], "iddqd")){
            
            //Reset game data by wiping the UUID bits
            for (uint8_t x=0; x<4; ++x){
    1798:	b2 da       	rcall	.-2716   	; 0xcfe <WriteStatusBit>
    179a:	1f 5f       	subi	r17, 0xFF	; 255
    179c:	01 c0       	rjmp	.+2      	; 0x17a0 <CheckInput+0x25e>
    179e:	10 e0       	ldi	r17, 0x00	; 0
                WriteStatusBit(110+x, 0);
            }
            SaveGameState();
    17a0:	14 30       	cpi	r17, 0x04	; 4
    17a2:	b8 f3       	brcs	.-18     	; 0x1792 <CheckInput+0x250>

            uint8_t cheat[] = "Cheater! ";
    17a4:	29 da       	rcall	.-2990   	; 0xbf8 <SaveGameState>
    17a6:	8a e0       	ldi	r24, 0x0A	; 10
    17a8:	e8 e9       	ldi	r30, 0x98	; 152
    17aa:	f1 ea       	ldi	r31, 0xA1	; 161
    17ac:	de 01       	movw	r26, r28
    17ae:	11 96       	adiw	r26, 0x01	; 1
    17b0:	01 90       	ld	r0, Z+
    17b2:	0d 92       	st	X+, r0
    17b4:	8a 95       	dec	r24
            SerSpeed(60);
    17b6:	e1 f7       	brne	.-8      	; 0x17b0 <CheckInput+0x26e>
    17b8:	8c e3       	ldi	r24, 0x3C	; 60
    17ba:	3b d9       	rcall	.-3466   	; 0xa32 <SerSpeed>
            while(1){
                if (serTxDone) SerSend(&cheat[0]);
    17bc:	80 91 04 38 	lds	r24, 0x3804	; 0x803804 <serTxDone>
    17c0:	88 23       	and	r24, r24
    17c2:	e1 f3       	breq	.-8      	; 0x17bc <CheckInput+0x27a>
    17c4:	ce 01       	movw	r24, r28
    17c6:	01 96       	adiw	r24, 0x01	; 1
    17c8:	22 d9       	rcall	.-3516   	; 0xa0e <SerSend>
    17ca:	f8 cf       	rjmp	.-16     	; 0x17bc <CheckInput+0x27a>
    17cc:	2a 96       	adiw	r28, 0x0a	; 10
        return 0;
    }

    //Serial input not available yet
    return 1;
}
    17ce:	cd bf       	out	0x3d, r28	; 61
    17d0:	de bf       	out	0x3e, r29	; 62
    17d2:	df 91       	pop	r29
    17d4:	cf 91       	pop	r28
    17d6:	1f 91       	pop	r17
    17d8:	0f 91       	pop	r16
    17da:	ff 90       	pop	r15
    17dc:	ef 90       	pop	r14
    17de:	08 95       	ret

000017e0 <ProcessInput>:
    17e0:	af 92       	push	r10

//The game logic!
uint8_t ProcessInput(uint8_t *data){
    17e2:	bf 92       	push	r11
    17e4:	cf 92       	push	r12
    17e6:	df 92       	push	r13
    17e8:	ff 92       	push	r15
    17ea:	0f 93       	push	r16
    17ec:	1f 93       	push	r17
    17ee:	cf 93       	push	r28
    17f0:	df 93       	push	r29
    17f2:	1f 92       	push	r1
    17f4:	cd b7       	in	r28, 0x3d	; 61
    17f6:	de b7       	in	r29, 0x3e	; 62
    17f8:	8c 01       	movw	r16, r24
//    enum {NAME, DESC, ACTION_STR1, ACTION_STR2, OPEN_ACL_MSG, ACTION_ACL_MSG, ACTION_MSG};
    static object_model_t actObj1, actObj2;
    uint8_t elements = 0;

    CleanInput(&data[0]);
    17fa:	e4 dd       	rcall	.-1080   	; 0x13c4 <CleanInput>
    uint8_t inputLen = CleanInput(&data[0]);
    17fc:	c8 01       	movw	r24, r16
    17fe:	e2 dd       	rcall	.-1084   	; 0x13c4 <CleanInput>

    if (inputLen) {
    1800:	88 23       	and	r24, r24
    1802:	09 f4       	brne	.+2      	; 0x1806 <ProcessInput+0x26>
    1804:	df c3       	rjmp	.+1982   	; 0x1fc4 <ProcessInput+0x7e4>

        //eXit to previous location
        if (data[0] == 'x'){
    1806:	d8 01       	movw	r26, r16
    1808:	9c 91       	ld	r25, X
    180a:	98 37       	cpi	r25, 0x78	; 120
    180c:	d1 f5       	brne	.+116    	; 0x1882 <ProcessInput+0xa2>

            //Standing in the Lobby?
            if ((route[currDepth] == 0)||(currDepth == 0)){
    180e:	80 91 8f 38 	lds	r24, 0x388F	; 0x80388f <currDepth>
    1812:	e8 2f       	mov	r30, r24
    1814:	f0 e0       	ldi	r31, 0x00	; 0
    1816:	ee 0f       	add	r30, r30
    1818:	ff 1f       	adc	r31, r31
    181a:	e7 53       	subi	r30, 0x37	; 55
    181c:	f6 4c       	sbci	r31, 0xC6	; 198
    181e:	20 81       	ld	r18, Z
    1820:	31 81       	ldd	r19, Z+1	; 0x01
    1822:	23 2b       	or	r18, r19
    1824:	11 f0       	breq	.+4      	; 0x182a <ProcessInput+0x4a>
    1826:	81 11       	cpse	r24, r1
    1828:	0a c0       	rjmp	.+20     	; 0x183e <ProcessInput+0x5e>
                SetResponse(elements++, A_NOTPOSSIBLE, L_NOTPOSSIBLE, TEASER);
    182a:	21 e0       	ldi	r18, 0x01	; 1
    182c:	4b e1       	ldi	r20, 0x1B	; 27
    182e:	50 e0       	ldi	r21, 0x00	; 0
    1830:	6e ea       	ldi	r22, 0xAE	; 174
    1832:	76 e7       	ldi	r23, 0x76	; 118
    1834:	80 e0       	ldi	r24, 0x00	; 0
    1836:	0d dc       	rcall	.-2022   	; 0x1052 <SetResponse>
    1838:	dd 24       	eor	r13, r13
    183a:	d3 94       	inc	r13
    183c:	ba c3       	rjmp	.+1908   	; 0x1fb2 <ProcessInput+0x7d2>
            
            //Is there a way to go back?
            } else if (CheckState(currObj.byteField[OPEN_ACL])){
    183e:	80 91 0f 3a 	lds	r24, 0x3A0F	; 0x803a0f <currObj+0x6>
    1842:	e6 dc       	rcall	.-1588   	; 0x1210 <CheckState>
    1844:	88 23       	and	r24, r24
    1846:	89 f0       	breq	.+34     	; 0x186a <ProcessInput+0x8a>
    1848:	e0 91 8f 38 	lds	r30, 0x388F	; 0x80388f <currDepth>
                --currDepth;
    184c:	e1 50       	subi	r30, 0x01	; 1
    184e:	e0 93 8f 38 	sts	0x388F, r30	; 0x80388f <currDepth>
    1852:	f0 e0       	ldi	r31, 0x00	; 0
                PopulateObject(route[currDepth], &currObj);
    1854:	ee 0f       	add	r30, r30
    1856:	ff 1f       	adc	r31, r31
    1858:	e7 53       	subi	r30, 0x37	; 55
    185a:	f6 4c       	sbci	r31, 0xC6	; 198
    185c:	69 e0       	ldi	r22, 0x09	; 9
    185e:	7a e3       	ldi	r23, 0x3A	; 58
    1860:	80 81       	ld	r24, Z
    1862:	91 81       	ldd	r25, Z+1	; 0x01
    1864:	59 dc       	rcall	.-1870   	; 0x1118 <PopulateObject>
    1866:	d1 2c       	mov	r13, r1

//The game logic!
uint8_t ProcessInput(uint8_t *data){
//    enum {NAME, DESC, ACTION_STR1, ACTION_STR2, OPEN_ACL_MSG, ACTION_ACL_MSG, ACTION_MSG};
    static object_model_t actObj1, actObj2;
    uint8_t elements = 0;
    1868:	a4 c3       	rjmp	.+1864   	; 0x1fb2 <ProcessInput+0x7d2>
    186a:	e9 e0       	ldi	r30, 0x09	; 9
                --currDepth;
                PopulateObject(route[currDepth], &currObj);
            
            //No way out, print denied message of location
            } else {
                SetResponse(elements++, currObj.addrStr[OPEN_ACL_MSG], currObj.lenStr[OPEN_ACL_MSG], GAME);               
    186c:	fa e3       	ldi	r31, 0x3A	; 58
    186e:	42 a1       	ldd	r20, Z+34	; 0x22
    1870:	53 a1       	ldd	r21, Z+35	; 0x23
    1872:	64 89       	ldd	r22, Z+20	; 0x14
    1874:	75 89       	ldd	r23, Z+21	; 0x15
    1876:	20 e0       	ldi	r18, 0x00	; 0
    1878:	80 e0       	ldi	r24, 0x00	; 0
    187a:	eb db       	rcall	.-2090   	; 0x1052 <SetResponse>
    187c:	dd 24       	eor	r13, r13
    187e:	d3 94       	inc	r13
    1880:	98 c3       	rjmp	.+1840   	; 0x1fb2 <ProcessInput+0x7d2>
    1882:	95 36       	cpi	r25, 0x65	; 101
            }   
        
        //Enter locations or Open objects    
        } else if ((data[0] == 'e')||(data[0] == 'o')) {
    1884:	19 f0       	breq	.+6      	; 0x188c <ProcessInput+0xac>
    1886:	9f 36       	cpi	r25, 0x6F	; 111
    1888:	09 f0       	breq	.+2      	; 0x188c <ProcessInput+0xac>
    188a:	cc c0       	rjmp	.+408    	; 0x1a24 <ProcessInput+0x244>
    188c:	82 30       	cpi	r24, 0x02	; 2
                
            //Not possible, too many/little characters
            if (inputLen != 2){
    188e:	51 f0       	breq	.+20     	; 0x18a4 <ProcessInput+0xc4>
    1890:	21 e0       	ldi	r18, 0x01	; 1
                SetResponse(elements++, A_NOTPOSSIBLE, L_NOTPOSSIBLE, TEASER);
    1892:	4b e1       	ldi	r20, 0x1B	; 27
    1894:	50 e0       	ldi	r21, 0x00	; 0
    1896:	6e ea       	ldi	r22, 0xAE	; 174
    1898:	76 e7       	ldi	r23, 0x76	; 118
    189a:	80 e0       	ldi	r24, 0x00	; 0
    189c:	da db       	rcall	.-2124   	; 0x1052 <SetResponse>
    189e:	dd 24       	eor	r13, r13
    18a0:	d3 94       	inc	r13
    18a2:	87 c3       	rjmp	.+1806   	; 0x1fb2 <ProcessInput+0x7d2>
    18a4:	80 91 8f 38 	lds	r24, 0x388F	; 0x80388f <currDepth>
            } else {
                uint8_t canDo = 0;
                route[currDepth+1] = FindChild(route[currDepth], data[1], 0);
    18a8:	90 e0       	ldi	r25, 0x00	; 0
    18aa:	6c 01       	movw	r12, r24
    18ac:	bf ef       	ldi	r27, 0xFF	; 255
    18ae:	cb 1a       	sub	r12, r27
    18b0:	db 0a       	sbc	r13, r27
    18b2:	88 0f       	add	r24, r24
    18b4:	99 1f       	adc	r25, r25
    18b6:	fc 01       	movw	r30, r24
    18b8:	e7 53       	subi	r30, 0x37	; 55
    18ba:	f6 4c       	sbci	r31, 0xC6	; 198
    18bc:	40 e0       	ldi	r20, 0x00	; 0
    18be:	50 e0       	ldi	r21, 0x00	; 0
    18c0:	d8 01       	movw	r26, r16
    18c2:	11 96       	adiw	r26, 0x01	; 1
    18c4:	6c 91       	ld	r22, X
    18c6:	80 81       	ld	r24, Z
    18c8:	91 81       	ldd	r25, Z+1	; 0x01
    18ca:	0e dd       	rcall	.-1508   	; 0x12e8 <FindChild>
    18cc:	f6 01       	movw	r30, r12
    18ce:	ee 0f       	add	r30, r30
    18d0:	ff 1f       	adc	r31, r31
    18d2:	e7 53       	subi	r30, 0x37	; 55
    18d4:	f6 4c       	sbci	r31, 0xC6	; 198
    18d6:	80 83       	st	Z, r24
    18d8:	91 83       	std	Z+1, r25	; 0x01
    18da:	90 91 8f 38 	lds	r25, 0x388F	; 0x80388f <currDepth>
                    
                //Child found?
                if (route[currDepth+1]) {
    18de:	29 2f       	mov	r18, r25
    18e0:	30 e0       	ldi	r19, 0x00	; 0
    18e2:	f9 01       	movw	r30, r18
    18e4:	31 96       	adiw	r30, 0x01	; 1
    18e6:	ee 0f       	add	r30, r30
    18e8:	ff 1f       	adc	r31, r31
    18ea:	e7 53       	subi	r30, 0x37	; 55
    18ec:	f6 4c       	sbci	r31, 0xC6	; 198
    18ee:	40 81       	ld	r20, Z
    18f0:	51 81       	ldd	r21, Z+1	; 0x01
    18f2:	41 15       	cp	r20, r1
    18f4:	51 05       	cpc	r21, r1
    18f6:	31 f0       	breq	.+12     	; 0x1904 <ProcessInput+0x124>
                    PopulateObject(route[currDepth+1], &actObj1);
    18f8:	6e ed       	ldi	r22, 0xDE	; 222
    18fa:	78 e3       	ldi	r23, 0x38	; 56
    18fc:	ca 01       	movw	r24, r20
    18fe:	0c dc       	rcall	.-2024   	; 0x1118 <PopulateObject>
    1900:	81 e0       	ldi	r24, 0x01	; 1
                    canDo = 1;
    1902:	1a c0       	rjmp	.+52     	; 0x1938 <ProcessInput+0x158>
    1904:	99 23       	and	r25, r25
                //No child, maybe a step back, letter ok?
                } else if (currDepth) {
    1906:	a9 f0       	breq	.+42     	; 0x1932 <ProcessInput+0x152>
    1908:	f9 01       	movw	r30, r18
                    PopulateObject(route[currDepth-1], &actObj1);
    190a:	31 97       	sbiw	r30, 0x01	; 1
    190c:	ee 0f       	add	r30, r30
    190e:	ff 1f       	adc	r31, r31
    1910:	e7 53       	subi	r30, 0x37	; 55
    1912:	f6 4c       	sbci	r31, 0xC6	; 198
    1914:	6e ed       	ldi	r22, 0xDE	; 222
    1916:	78 e3       	ldi	r23, 0x38	; 56
    1918:	80 81       	ld	r24, Z
    191a:	91 81       	ldd	r25, Z+1	; 0x01
    191c:	fd db       	rcall	.-2054   	; 0x1118 <PopulateObject>
                    if (CheckLetter(actObj1.addrStr[NAME], data[1])) {
    191e:	f8 01       	movw	r30, r16
    1920:	61 81       	ldd	r22, Z+1	; 0x01
    1922:	80 91 ea 38 	lds	r24, 0x38EA	; 0x8038ea <actObj1.3939+0xc>
    1926:	90 91 eb 38 	lds	r25, 0x38EB	; 0x8038eb <actObj1.3939+0xd>
    192a:	84 dc       	rcall	.-1784   	; 0x1234 <CheckLetter>
    192c:	81 11       	cpse	r24, r1
    192e:	03 c0       	rjmp	.+6      	; 0x1936 <ProcessInput+0x156>
    1930:	03 c0       	rjmp	.+6      	; 0x1938 <ProcessInput+0x158>
    1932:	80 e0       	ldi	r24, 0x00	; 0
                
            //Not possible, too many/little characters
            if (inputLen != 2){
                SetResponse(elements++, A_NOTPOSSIBLE, L_NOTPOSSIBLE, TEASER);
            } else {
                uint8_t canDo = 0;
    1934:	01 c0       	rjmp	.+2      	; 0x1938 <ProcessInput+0x158>
    1936:	81 e0       	ldi	r24, 0x01	; 1
                    canDo = 1;
                //No child, maybe a step back, letter ok?
                } else if (currDepth) {
                    PopulateObject(route[currDepth-1], &actObj1);
                    if (CheckLetter(actObj1.addrStr[NAME], data[1])) {
                        canDo = 1; 
    1938:	88 23       	and	r24, r24
                    }
                }

                //The candidate is found! Let's check if the action is legit
                if (canDo) {
    193a:	09 f4       	brne	.+2      	; 0x193e <ProcessInput+0x15e>
    193c:	69 c0       	rjmp	.+210    	; 0x1a10 <ProcessInput+0x230>
    193e:	d8 01       	movw	r26, r16
                    volatile uint8_t bEnter = (data[0] == 'e');
    1940:	9c 91       	ld	r25, X
    1942:	81 e0       	ldi	r24, 0x01	; 1
    1944:	95 36       	cpi	r25, 0x65	; 101
    1946:	09 f0       	breq	.+2      	; 0x194a <ProcessInput+0x16a>
    1948:	80 e0       	ldi	r24, 0x00	; 0
    194a:	89 83       	std	Y+1, r24	; 0x01
    194c:	80 91 e6 38 	lds	r24, 0x38E6	; 0x8038e6 <actObj1.3939+0x8>
                    if ((actObj1.byteField[ACTION_MASK]&(bEnter?ENTER:OPEN))==0) {
    1950:	90 e0       	ldi	r25, 0x00	; 0
    1952:	29 81       	ldd	r18, Y+1	; 0x01
    1954:	22 23       	and	r18, r18
    1956:	19 f0       	breq	.+6      	; 0x195e <ProcessInput+0x17e>
    1958:	21 e0       	ldi	r18, 0x01	; 1
    195a:	30 e0       	ldi	r19, 0x00	; 0
    195c:	02 c0       	rjmp	.+4      	; 0x1962 <ProcessInput+0x182>
    195e:	22 e0       	ldi	r18, 0x02	; 2
    1960:	30 e0       	ldi	r19, 0x00	; 0
    1962:	82 23       	and	r24, r18
    1964:	93 23       	and	r25, r19
    1966:	89 2b       	or	r24, r25
    1968:	b1 f4       	brne	.+44     	; 0x1996 <ProcessInput+0x1b6>
    196a:	89 81       	ldd	r24, Y+1	; 0x01
                        SetResponse(elements++, bEnter?A_CANTENTER:A_CANTOPEN, bEnter?L_CANTENTER:L_CANTOPEN, TEASER);
    196c:	88 23       	and	r24, r24
    196e:	19 f0       	breq	.+6      	; 0x1976 <ProcessInput+0x196>
    1970:	4e e1       	ldi	r20, 0x1E	; 30
    1972:	50 e0       	ldi	r21, 0x00	; 0
    1974:	02 c0       	rjmp	.+4      	; 0x197a <ProcessInput+0x19a>
    1976:	4b e1       	ldi	r20, 0x1B	; 27
    1978:	50 e0       	ldi	r21, 0x00	; 0
    197a:	89 81       	ldd	r24, Y+1	; 0x01
    197c:	88 23       	and	r24, r24
    197e:	19 f0       	breq	.+6      	; 0x1986 <ProcessInput+0x1a6>
    1980:	6a ec       	ldi	r22, 0xCA	; 202
    1982:	79 e7       	ldi	r23, 0x79	; 121
    1984:	02 c0       	rjmp	.+4      	; 0x198a <ProcessInput+0x1aa>
    1986:	6f ea       	ldi	r22, 0xAF	; 175
    1988:	79 e7       	ldi	r23, 0x79	; 121
    198a:	21 e0       	ldi	r18, 0x01	; 1
    198c:	80 e0       	ldi	r24, 0x00	; 0
    198e:	61 db       	rcall	.-2366   	; 0x1052 <SetResponse>
    1990:	dd 24       	eor	r13, r13
    1992:	d3 94       	inc	r13
    1994:	0e c3       	rjmp	.+1564   	; 0x1fb2 <ProcessInput+0x7d2>
                        
                    //Action legit, permission granted?
                    } else if (CheckState(actObj1.byteField[OPEN_ACL])) {
    1996:	80 91 e4 38 	lds	r24, 0x38E4	; 0x8038e4 <actObj1.3939+0x6>
    199a:	3a dc       	rcall	.-1932   	; 0x1210 <CheckState>
    199c:	88 23       	and	r24, r24
    199e:	11 f1       	breq	.+68     	; 0x19e4 <ProcessInput+0x204>
    19a0:	80 91 8f 38 	lds	r24, 0x388F	; 0x80388f <currDepth>
                            
                        //Yes! Check if we must move forward or backwards.
                        if (route[currDepth+1]) ++currDepth; else --currDepth;
    19a4:	e8 2f       	mov	r30, r24
    19a6:	f0 e0       	ldi	r31, 0x00	; 0
    19a8:	31 96       	adiw	r30, 0x01	; 1
    19aa:	ee 0f       	add	r30, r30
    19ac:	ff 1f       	adc	r31, r31
    19ae:	e7 53       	subi	r30, 0x37	; 55
    19b0:	f6 4c       	sbci	r31, 0xC6	; 198
    19b2:	20 81       	ld	r18, Z
    19b4:	31 81       	ldd	r19, Z+1	; 0x01
    19b6:	23 2b       	or	r18, r19
    19b8:	21 f0       	breq	.+8      	; 0x19c2 <ProcessInput+0x1e2>
    19ba:	8f 5f       	subi	r24, 0xFF	; 255
    19bc:	80 93 8f 38 	sts	0x388F, r24	; 0x80388f <currDepth>
    19c0:	03 c0       	rjmp	.+6      	; 0x19c8 <ProcessInput+0x1e8>
    19c2:	81 50       	subi	r24, 0x01	; 1
    19c4:	80 93 8f 38 	sts	0x388F, r24	; 0x80388f <currDepth>
                        PopulateObject(route[currDepth], &currObj);
    19c8:	e0 91 8f 38 	lds	r30, 0x388F	; 0x80388f <currDepth>
    19cc:	f0 e0       	ldi	r31, 0x00	; 0
    19ce:	ee 0f       	add	r30, r30
    19d0:	ff 1f       	adc	r31, r31
    19d2:	e7 53       	subi	r30, 0x37	; 55
    19d4:	f6 4c       	sbci	r31, 0xC6	; 198
    19d6:	69 e0       	ldi	r22, 0x09	; 9
    19d8:	7a e3       	ldi	r23, 0x3A	; 58
    19da:	80 81       	ld	r24, Z
    19dc:	91 81       	ldd	r25, Z+1	; 0x01
    19de:	9c db       	rcall	.-2248   	; 0x1118 <PopulateObject>
    19e0:	d1 2c       	mov	r13, r1

//The game logic!
uint8_t ProcessInput(uint8_t *data){
//    enum {NAME, DESC, ACTION_STR1, ACTION_STR2, OPEN_ACL_MSG, ACTION_ACL_MSG, ACTION_MSG};
    static object_model_t actObj1, actObj2;
    uint8_t elements = 0;
    19e2:	e7 c2       	rjmp	.+1486   	; 0x1fb2 <ProcessInput+0x7d2>
    19e4:	e0 91 8f 38 	lds	r30, 0x388F	; 0x80388f <currDepth>
                        if (route[currDepth+1]) ++currDepth; else --currDepth;
                        PopulateObject(route[currDepth], &currObj);
                                                  
                    //Not granted!
                    } else {
                        route[currDepth+1] = 0;
    19e8:	f0 e0       	ldi	r31, 0x00	; 0
    19ea:	31 96       	adiw	r30, 0x01	; 1
    19ec:	ee 0f       	add	r30, r30
    19ee:	ff 1f       	adc	r31, r31
    19f0:	e7 53       	subi	r30, 0x37	; 55
    19f2:	f6 4c       	sbci	r31, 0xC6	; 198
    19f4:	10 82       	st	Z, r1
    19f6:	11 82       	std	Z+1, r1	; 0x01
                        SetResponse(elements++, currObj.addrStr[OPEN_ACL_MSG], currObj.lenStr[OPEN_ACL_MSG], GAME);                
    19f8:	e9 e0       	ldi	r30, 0x09	; 9
    19fa:	fa e3       	ldi	r31, 0x3A	; 58
    19fc:	42 a1       	ldd	r20, Z+34	; 0x22
    19fe:	53 a1       	ldd	r21, Z+35	; 0x23
    1a00:	64 89       	ldd	r22, Z+20	; 0x14
    1a02:	75 89       	ldd	r23, Z+21	; 0x15
    1a04:	20 e0       	ldi	r18, 0x00	; 0
    1a06:	80 e0       	ldi	r24, 0x00	; 0
    1a08:	24 db       	rcall	.-2488   	; 0x1052 <SetResponse>
    1a0a:	dd 24       	eor	r13, r13
    1a0c:	d3 94       	inc	r13
    1a0e:	d1 c2       	rjmp	.+1442   	; 0x1fb2 <ProcessInput+0x7d2>
                    }

                //No candidate
                } else {
                    SetResponse(elements++, A_DONTSEE, L_DONTSEE, TEASER);                
    1a10:	21 e0       	ldi	r18, 0x01	; 1
    1a12:	4a e1       	ldi	r20, 0x1A	; 26
    1a14:	50 e0       	ldi	r21, 0x00	; 0
    1a16:	6e ef       	ldi	r22, 0xFE	; 254
    1a18:	79 e7       	ldi	r23, 0x79	; 121
    1a1a:	80 e0       	ldi	r24, 0x00	; 0
    1a1c:	1a db       	rcall	.-2508   	; 0x1052 <SetResponse>
    1a1e:	dd 24       	eor	r13, r13
    1a20:	d3 94       	inc	r13
    1a22:	c7 c2       	rjmp	.+1422   	; 0x1fb2 <ProcessInput+0x7d2>
                }
            }

        //Look around or at objects
        } else if (data[0] == 'l') {
    1a24:	9c 36       	cpi	r25, 0x6C	; 108
    1a26:	09 f0       	breq	.+2      	; 0x1a2a <ProcessInput+0x24a>
    1a28:	11 c1       	rjmp	.+546    	; 0x1c4c <ProcessInput+0x46c>
            if (inputLen == 1) {
    1a2a:	81 30       	cpi	r24, 0x01	; 1
    1a2c:	09 f0       	breq	.+2      	; 0x1a30 <ProcessInput+0x250>

                //Show info about this area first
                SetResponse(elements++, currObj.addrStr[DESC], currObj.lenStr[DESC],GAME);
    1a2e:	a0 c0       	rjmp	.+320    	; 0x1b70 <ProcessInput+0x390>
    1a30:	e9 e0       	ldi	r30, 0x09	; 9
    1a32:	fa e3       	ldi	r31, 0x3A	; 58
    1a34:	44 8d       	ldd	r20, Z+28	; 0x1c
    1a36:	55 8d       	ldd	r21, Z+29	; 0x1d
    1a38:	66 85       	ldd	r22, Z+14	; 0x0e
    1a3a:	77 85       	ldd	r23, Z+15	; 0x0f
    1a3c:	20 e0       	ldi	r18, 0x00	; 0
    1a3e:	80 e0       	ldi	r24, 0x00	; 0
                SetResponse(elements++, A_LF, 1, TEASER);
    1a40:	08 db       	rcall	.-2544   	; 0x1052 <SetResponse>
    1a42:	21 e0       	ldi	r18, 0x01	; 1
    1a44:	41 e0       	ldi	r20, 0x01	; 1
    1a46:	50 e0       	ldi	r21, 0x00	; 0
    1a48:	66 e8       	ldi	r22, 0x86	; 134
    1a4a:	7a e7       	ldi	r23, 0x7A	; 122
    1a4c:	81 e0       	ldi	r24, 0x01	; 1
    1a4e:	01 db       	rcall	.-2558   	; 0x1052 <SetResponse>
                SetResponse(elements++, A_LOOK, L_LOOK, TEASER);
    1a50:	21 e0       	ldi	r18, 0x01	; 1
    1a52:	46 e1       	ldi	r20, 0x16	; 22
    1a54:	50 e0       	ldi	r21, 0x00	; 0
    1a56:	68 e1       	ldi	r22, 0x18	; 24
    1a58:	7a e7       	ldi	r23, 0x7A	; 122
    1a5a:	82 e0       	ldi	r24, 0x02	; 2
    1a5c:	fa da       	rcall	.-2572   	; 0x1052 <SetResponse>
    1a5e:	e0 91 8f 38 	lds	r30, 0x388F	; 0x80388f <currDepth>
                //SetResponse(elements++, A_SPACE, L_SPACE, TEASER);

                //Check the visible children first
                route[currDepth+1] = 0;
    1a62:	f0 e0       	ldi	r31, 0x00	; 0
    1a64:	31 96       	adiw	r30, 0x01	; 1
    1a66:	ee 0f       	add	r30, r30
    1a68:	ff 1f       	adc	r31, r31
    1a6a:	e7 53       	subi	r30, 0x37	; 55
    1a6c:	f6 4c       	sbci	r31, 0xC6	; 198
    1a6e:	10 82       	st	Z, r1
    1a70:	11 82       	std	Z+1, r1	; 0x01
    1a72:	0f 2e       	mov	r0, r31
            if (inputLen == 1) {

                //Show info about this area first
                SetResponse(elements++, currObj.addrStr[DESC], currObj.lenStr[DESC],GAME);
                SetResponse(elements++, A_LF, 1, TEASER);
                SetResponse(elements++, A_LOOK, L_LOOK, TEASER);
    1a74:	f3 e0       	ldi	r31, 0x03	; 3
    1a76:	ff 2e       	mov	r15, r31
    1a78:	f0 2d       	mov	r31, r0
    1a7a:	80 91 8f 38 	lds	r24, 0x388F	; 0x80388f <currDepth>
                //SetResponse(elements++, A_SPACE, L_SPACE, TEASER);

                //Check the visible children first
                route[currDepth+1] = 0;
                do{
                    route[currDepth+1] = FindChild(route[currDepth], 0, route[currDepth+1]);
    1a7e:	90 e0       	ldi	r25, 0x00	; 0
    1a80:	6c 01       	movw	r12, r24
    1a82:	bf ef       	ldi	r27, 0xFF	; 255
    1a84:	cb 1a       	sub	r12, r27
    1a86:	db 0a       	sbc	r13, r27
    1a88:	96 01       	movw	r18, r12
    1a8a:	22 0f       	add	r18, r18
    1a8c:	33 1f       	adc	r19, r19
    1a8e:	f9 01       	movw	r30, r18
    1a90:	e7 53       	subi	r30, 0x37	; 55
    1a92:	f6 4c       	sbci	r31, 0xC6	; 198
    1a94:	6f 01       	movw	r12, r30
    1a96:	40 81       	ld	r20, Z
    1a98:	51 81       	ldd	r21, Z+1	; 0x01
    1a9a:	88 0f       	add	r24, r24
    1a9c:	99 1f       	adc	r25, r25
    1a9e:	fc 01       	movw	r30, r24
    1aa0:	e7 53       	subi	r30, 0x37	; 55
    1aa2:	f6 4c       	sbci	r31, 0xC6	; 198
    1aa4:	60 e0       	ldi	r22, 0x00	; 0
    1aa6:	80 81       	ld	r24, Z
    1aa8:	91 81       	ldd	r25, Z+1	; 0x01
    1aaa:	1e dc       	rcall	.-1988   	; 0x12e8 <FindChild>
    1aac:	d6 01       	movw	r26, r12
    1aae:	8d 93       	st	X+, r24
    1ab0:	9c 93       	st	X, r25
    1ab2:	e0 91 8f 38 	lds	r30, 0x388F	; 0x80388f <currDepth>
                    if (route[currDepth+1]) {
    1ab6:	f0 e0       	ldi	r31, 0x00	; 0
    1ab8:	31 96       	adiw	r30, 0x01	; 1
    1aba:	ee 0f       	add	r30, r30
    1abc:	ff 1f       	adc	r31, r31
    1abe:	e7 53       	subi	r30, 0x37	; 55
    1ac0:	f6 4c       	sbci	r31, 0xC6	; 198
    1ac2:	80 81       	ld	r24, Z
    1ac4:	91 81       	ldd	r25, Z+1	; 0x01
    1ac6:	00 97       	sbiw	r24, 0x00	; 0
    1ac8:	21 f1       	breq	.+72     	; 0x1b12 <ProcessInput+0x332>
                        if ((route[currDepth+1] != inventory[0])&&(route[currDepth+1] != inventory[1])) {
    1aca:	20 91 96 38 	lds	r18, 0x3896	; 0x803896 <inventory>
    1ace:	30 91 97 38 	lds	r19, 0x3897	; 0x803897 <inventory+0x1>
    1ad2:	82 17       	cp	r24, r18
    1ad4:	93 07       	cpc	r25, r19
    1ad6:	e9 f0       	breq	.+58     	; 0x1b12 <ProcessInput+0x332>
    1ad8:	20 91 98 38 	lds	r18, 0x3898	; 0x803898 <inventory+0x2>
    1adc:	30 91 99 38 	lds	r19, 0x3899	; 0x803899 <inventory+0x3>
    1ae0:	82 17       	cp	r24, r18
    1ae2:	93 07       	cpc	r25, r19
                            PopulateObject(route[currDepth+1], &actObj1);
    1ae4:	b1 f0       	breq	.+44     	; 0x1b12 <ProcessInput+0x332>
    1ae6:	6e ed       	ldi	r22, 0xDE	; 222
    1ae8:	78 e3       	ldi	r23, 0x38	; 56
                            SetResponse(elements++, actObj1.addrStr[NAME], actObj1.lenStr[NAME],GAME);
    1aea:	16 db       	rcall	.-2516   	; 0x1118 <PopulateObject>
    1aec:	ee ed       	ldi	r30, 0xDE	; 222
    1aee:	f8 e3       	ldi	r31, 0x38	; 56
    1af0:	42 8d       	ldd	r20, Z+26	; 0x1a
    1af2:	53 8d       	ldd	r21, Z+27	; 0x1b
    1af4:	64 85       	ldd	r22, Z+12	; 0x0c
    1af6:	75 85       	ldd	r23, Z+13	; 0x0d
    1af8:	20 e0       	ldi	r18, 0x00	; 0
    1afa:	8f 2d       	mov	r24, r15
    1afc:	aa da       	rcall	.-2732   	; 0x1052 <SetResponse>
                            SetResponse(elements++, A_COMMA, L_COMMA, TEASER);
    1afe:	21 e0       	ldi	r18, 0x01	; 1
    1b00:	42 e0       	ldi	r20, 0x02	; 2
    1b02:	50 e0       	ldi	r21, 0x00	; 0
    1b04:	64 e8       	ldi	r22, 0x84	; 132
    1b06:	7a e7       	ldi	r23, 0x7A	; 122
    1b08:	81 e0       	ldi	r24, 0x01	; 1
    1b0a:	8f 0d       	add	r24, r15
    1b0c:	f3 94       	inc	r15
    1b0e:	f3 94       	inc	r15
    1b10:	a0 da       	rcall	.-2752   	; 0x1052 <SetResponse>
    1b12:	20 91 8f 38 	lds	r18, 0x388F	; 0x80388f <currDepth>
                            //SetResponse(elements++, A_SPACE, L_SPACE, TEASER);
                        }
                    }
                }while (route[currDepth+1]);
    1b16:	82 2f       	mov	r24, r18
    1b18:	90 e0       	ldi	r25, 0x00	; 0
    1b1a:	fc 01       	movw	r30, r24
    1b1c:	31 96       	adiw	r30, 0x01	; 1
    1b1e:	ee 0f       	add	r30, r30
    1b20:	ff 1f       	adc	r31, r31
    1b22:	e7 53       	subi	r30, 0x37	; 55
    1b24:	f6 4c       	sbci	r31, 0xC6	; 198
    1b26:	40 81       	ld	r20, Z
    1b28:	51 81       	ldd	r21, Z+1	; 0x01
    1b2a:	45 2b       	or	r20, r21
    1b2c:	09 f0       	breq	.+2      	; 0x1b30 <ProcessInput+0x350>
    1b2e:	a5 cf       	rjmp	.-182    	; 0x1a7a <ProcessInput+0x29a>

                //Look back if not on level 0
                if (currDepth) {
    1b30:	22 23       	and	r18, r18
                    PopulateObject(route[currDepth-1], &actObj1);
    1b32:	c1 f0       	breq	.+48     	; 0x1b64 <ProcessInput+0x384>
    1b34:	fc 01       	movw	r30, r24
    1b36:	31 97       	sbiw	r30, 0x01	; 1
    1b38:	ee 0f       	add	r30, r30
    1b3a:	ff 1f       	adc	r31, r31
    1b3c:	e7 53       	subi	r30, 0x37	; 55
    1b3e:	f6 4c       	sbci	r31, 0xC6	; 198
    1b40:	6e ed       	ldi	r22, 0xDE	; 222
    1b42:	78 e3       	ldi	r23, 0x38	; 56
    1b44:	80 81       	ld	r24, Z
    1b46:	91 81       	ldd	r25, Z+1	; 0x01
    1b48:	e7 da       	rcall	.-2610   	; 0x1118 <PopulateObject>
                    SetResponse(elements++, actObj1.addrStr[NAME], actObj1.lenStr[NAME],GAME);
    1b4a:	dd 24       	eor	r13, r13
    1b4c:	d3 94       	inc	r13
    1b4e:	df 0c       	add	r13, r15
    1b50:	ee ed       	ldi	r30, 0xDE	; 222
    1b52:	f8 e3       	ldi	r31, 0x38	; 56
    1b54:	42 8d       	ldd	r20, Z+26	; 0x1a
    1b56:	53 8d       	ldd	r21, Z+27	; 0x1b
    1b58:	64 85       	ldd	r22, Z+12	; 0x0c
    1b5a:	75 85       	ldd	r23, Z+13	; 0x0d
    1b5c:	20 e0       	ldi	r18, 0x00	; 0
    1b5e:	8f 2d       	mov	r24, r15
    1b60:	78 da       	rcall	.-2832   	; 0x1052 <SetResponse>
    1b62:	27 c2       	rjmp	.+1102   	; 0x1fb2 <ProcessInput+0x7d2>
    1b64:	0f 2e       	mov	r0, r31
                } else elements-=2;
    1b66:	fe ef       	ldi	r31, 0xFE	; 254
    1b68:	df 2e       	mov	r13, r31
    1b6a:	f0 2d       	mov	r31, r0
    1b6c:	df 0c       	add	r13, r15
    1b6e:	21 c2       	rjmp	.+1090   	; 0x1fb2 <ProcessInput+0x7d2>

            } else {
                route[currDepth+1] = FindChild(route[currDepth], data[1], 0);
    1b70:	80 91 8f 38 	lds	r24, 0x388F	; 0x80388f <currDepth>
    1b74:	90 e0       	ldi	r25, 0x00	; 0
    1b76:	6c 01       	movw	r12, r24
    1b78:	bf ef       	ldi	r27, 0xFF	; 255
    1b7a:	cb 1a       	sub	r12, r27
    1b7c:	db 0a       	sbc	r13, r27
    1b7e:	88 0f       	add	r24, r24
    1b80:	99 1f       	adc	r25, r25
    1b82:	fc 01       	movw	r30, r24
    1b84:	e7 53       	subi	r30, 0x37	; 55
    1b86:	f6 4c       	sbci	r31, 0xC6	; 198
    1b88:	40 e0       	ldi	r20, 0x00	; 0
    1b8a:	50 e0       	ldi	r21, 0x00	; 0
    1b8c:	d8 01       	movw	r26, r16
    1b8e:	11 96       	adiw	r26, 0x01	; 1
    1b90:	6c 91       	ld	r22, X
    1b92:	80 81       	ld	r24, Z
    1b94:	91 81       	ldd	r25, Z+1	; 0x01
    1b96:	a8 db       	rcall	.-2224   	; 0x12e8 <FindChild>
    1b98:	f6 01       	movw	r30, r12
    1b9a:	ee 0f       	add	r30, r30
    1b9c:	ff 1f       	adc	r31, r31
    1b9e:	e7 53       	subi	r30, 0x37	; 55
    1ba0:	f6 4c       	sbci	r31, 0xC6	; 198
    1ba2:	80 83       	st	Z, r24
    1ba4:	91 83       	std	Z+1, r25	; 0x01
                if (route[currDepth+1]) {
    1ba6:	90 91 8f 38 	lds	r25, 0x388F	; 0x80388f <currDepth>
    1baa:	29 2f       	mov	r18, r25
    1bac:	30 e0       	ldi	r19, 0x00	; 0
    1bae:	f9 01       	movw	r30, r18
    1bb0:	31 96       	adiw	r30, 0x01	; 1
    1bb2:	ee 0f       	add	r30, r30
    1bb4:	ff 1f       	adc	r31, r31
    1bb6:	e7 53       	subi	r30, 0x37	; 55
    1bb8:	f6 4c       	sbci	r31, 0xC6	; 198
    1bba:	40 81       	ld	r20, Z
    1bbc:	51 81       	ldd	r21, Z+1	; 0x01
    1bbe:	41 15       	cp	r20, r1
    1bc0:	51 05       	cpc	r21, r1
                    PopulateObject(route[currDepth+1], &actObj1);
    1bc2:	81 f0       	breq	.+32     	; 0x1be4 <ProcessInput+0x404>
    1bc4:	6e ed       	ldi	r22, 0xDE	; 222
    1bc6:	78 e3       	ldi	r23, 0x38	; 56
    1bc8:	ca 01       	movw	r24, r20
                    SetResponse(elements++, actObj1.addrStr[DESC], actObj1.lenStr[DESC],GAME);   
    1bca:	a6 da       	rcall	.-2740   	; 0x1118 <PopulateObject>
    1bcc:	ee ed       	ldi	r30, 0xDE	; 222
    1bce:	f8 e3       	ldi	r31, 0x38	; 56
    1bd0:	44 8d       	ldd	r20, Z+28	; 0x1c
    1bd2:	55 8d       	ldd	r21, Z+29	; 0x1d
    1bd4:	66 85       	ldd	r22, Z+14	; 0x0e
    1bd6:	77 85       	ldd	r23, Z+15	; 0x0f
    1bd8:	20 e0       	ldi	r18, 0x00	; 0
    1bda:	80 e0       	ldi	r24, 0x00	; 0
    1bdc:	3a da       	rcall	.-2956   	; 0x1052 <SetResponse>
    1bde:	dd 24       	eor	r13, r13
    1be0:	d3 94       	inc	r13
    1be2:	e7 c1       	rjmp	.+974    	; 0x1fb2 <ProcessInput+0x7d2>
                } else if (currDepth) {
    1be4:	99 23       	and	r25, r25
                    if (CheckLetter(route[currDepth-1], data[1])) {
    1be6:	41 f1       	breq	.+80     	; 0x1c38 <ProcessInput+0x458>
    1be8:	f9 01       	movw	r30, r18
    1bea:	31 97       	sbiw	r30, 0x01	; 1
    1bec:	ee 0f       	add	r30, r30
    1bee:	ff 1f       	adc	r31, r31
    1bf0:	e7 53       	subi	r30, 0x37	; 55
    1bf2:	f6 4c       	sbci	r31, 0xC6	; 198
    1bf4:	d8 01       	movw	r26, r16
    1bf6:	11 96       	adiw	r26, 0x01	; 1
    1bf8:	6c 91       	ld	r22, X
    1bfa:	80 81       	ld	r24, Z
    1bfc:	91 81       	ldd	r25, Z+1	; 0x01
    1bfe:	1a db       	rcall	.-2508   	; 0x1234 <CheckLetter>
    1c00:	88 23       	and	r24, r24
    1c02:	09 f4       	brne	.+2      	; 0x1c06 <ProcessInput+0x426>
                        PopulateObject(route[currDepth-1], &actObj1);
    1c04:	d3 c1       	rjmp	.+934    	; 0x1fac <ProcessInput+0x7cc>
    1c06:	e0 91 8f 38 	lds	r30, 0x388F	; 0x80388f <currDepth>
    1c0a:	f0 e0       	ldi	r31, 0x00	; 0
    1c0c:	31 97       	sbiw	r30, 0x01	; 1
    1c0e:	ee 0f       	add	r30, r30
    1c10:	ff 1f       	adc	r31, r31
    1c12:	e7 53       	subi	r30, 0x37	; 55
    1c14:	f6 4c       	sbci	r31, 0xC6	; 198
    1c16:	6e ed       	ldi	r22, 0xDE	; 222
    1c18:	78 e3       	ldi	r23, 0x38	; 56
    1c1a:	80 81       	ld	r24, Z
    1c1c:	91 81       	ldd	r25, Z+1	; 0x01
                        SetResponse(elements++, actObj1.addrStr[DESC], actObj1.lenStr[DESC],GAME);
    1c1e:	7c da       	rcall	.-2824   	; 0x1118 <PopulateObject>
    1c20:	ee ed       	ldi	r30, 0xDE	; 222
    1c22:	f8 e3       	ldi	r31, 0x38	; 56
    1c24:	44 8d       	ldd	r20, Z+28	; 0x1c
    1c26:	55 8d       	ldd	r21, Z+29	; 0x1d
    1c28:	66 85       	ldd	r22, Z+14	; 0x0e
    1c2a:	77 85       	ldd	r23, Z+15	; 0x0f
    1c2c:	20 e0       	ldi	r18, 0x00	; 0
    1c2e:	80 e0       	ldi	r24, 0x00	; 0
    1c30:	10 da       	rcall	.-3040   	; 0x1052 <SetResponse>
    1c32:	dd 24       	eor	r13, r13
    1c34:	d3 94       	inc	r13
    1c36:	bd c1       	rjmp	.+890    	; 0x1fb2 <ProcessInput+0x7d2>
                    }
                } else {
                    SetResponse(elements++, A_DONTSEE, L_DONTSEE, TEASER);
    1c38:	21 e0       	ldi	r18, 0x01	; 1
    1c3a:	4a e1       	ldi	r20, 0x1A	; 26
    1c3c:	50 e0       	ldi	r21, 0x00	; 0
    1c3e:	6e ef       	ldi	r22, 0xFE	; 254
    1c40:	79 e7       	ldi	r23, 0x79	; 121
    1c42:	80 e0       	ldi	r24, 0x00	; 0
    1c44:	06 da       	rcall	.-3060   	; 0x1052 <SetResponse>
    1c46:	dd 24       	eor	r13, r13
    1c48:	d3 94       	inc	r13
    1c4a:	b3 c1       	rjmp	.+870    	; 0x1fb2 <ProcessInput+0x7d2>
                }
            }
        
        //Pick up an object
        } else if (data[0] == 'p') {
    1c4c:	90 37       	cpi	r25, 0x70	; 112
    1c4e:	09 f0       	breq	.+2      	; 0x1c52 <ProcessInput+0x472>
            if (inventory[0]&&inventory[1]) {
    1c50:	ca c0       	rjmp	.+404    	; 0x1de6 <ProcessInput+0x606>
    1c52:	20 91 96 38 	lds	r18, 0x3896	; 0x803896 <inventory>
    1c56:	30 91 97 38 	lds	r19, 0x3897	; 0x803897 <inventory+0x1>
    1c5a:	23 2b       	or	r18, r19
    1c5c:	81 f0       	breq	.+32     	; 0x1c7e <ProcessInput+0x49e>
    1c5e:	20 91 98 38 	lds	r18, 0x3898	; 0x803898 <inventory+0x2>
    1c62:	30 91 99 38 	lds	r19, 0x3899	; 0x803899 <inventory+0x3>
    1c66:	23 2b       	or	r18, r19
                SetResponse(elements++, A_CARRYTWO, L_CARRYTWO, TEASER);
    1c68:	51 f0       	breq	.+20     	; 0x1c7e <ProcessInput+0x49e>
    1c6a:	21 e0       	ldi	r18, 0x01	; 1
    1c6c:	48 e5       	ldi	r20, 0x58	; 88
    1c6e:	50 e0       	ldi	r21, 0x00	; 0
    1c70:	60 e7       	ldi	r22, 0x70	; 112
    1c72:	78 e7       	ldi	r23, 0x78	; 120
    1c74:	80 e0       	ldi	r24, 0x00	; 0
    1c76:	ed d9       	rcall	.-3110   	; 0x1052 <SetResponse>
    1c78:	dd 24       	eor	r13, r13
    1c7a:	d3 94       	inc	r13
    1c7c:	9a c1       	rjmp	.+820    	; 0x1fb2 <ProcessInput+0x7d2>
            } else if (inputLen != 2) {
    1c7e:	82 30       	cpi	r24, 0x02	; 2
    1c80:	51 f0       	breq	.+20     	; 0x1c96 <ProcessInput+0x4b6>
                SetResponse(elements++, A_NOTPOSSIBLE, L_NOTPOSSIBLE, TEASER);
    1c82:	21 e0       	ldi	r18, 0x01	; 1
    1c84:	4b e1       	ldi	r20, 0x1B	; 27
    1c86:	50 e0       	ldi	r21, 0x00	; 0
    1c88:	6e ea       	ldi	r22, 0xAE	; 174
    1c8a:	76 e7       	ldi	r23, 0x76	; 118
    1c8c:	80 e0       	ldi	r24, 0x00	; 0
    1c8e:	e1 d9       	rcall	.-3134   	; 0x1052 <SetResponse>
    1c90:	dd 24       	eor	r13, r13
    1c92:	d3 94       	inc	r13
    1c94:	8e c1       	rjmp	.+796    	; 0x1fb2 <ProcessInput+0x7d2>
            } else {
                route[currDepth+1] = FindChild(route[currDepth], data[1], route[currDepth+1]);
    1c96:	80 91 8f 38 	lds	r24, 0x388F	; 0x80388f <currDepth>
    1c9a:	90 e0       	ldi	r25, 0x00	; 0
    1c9c:	6c 01       	movw	r12, r24
    1c9e:	bf ef       	ldi	r27, 0xFF	; 255
    1ca0:	cb 1a       	sub	r12, r27
    1ca2:	db 0a       	sbc	r13, r27
    1ca4:	96 01       	movw	r18, r12
    1ca6:	22 0f       	add	r18, r18
    1ca8:	33 1f       	adc	r19, r19
    1caa:	f9 01       	movw	r30, r18
    1cac:	e7 53       	subi	r30, 0x37	; 55
    1cae:	f6 4c       	sbci	r31, 0xC6	; 198
    1cb0:	6f 01       	movw	r12, r30
    1cb2:	40 81       	ld	r20, Z
    1cb4:	51 81       	ldd	r21, Z+1	; 0x01
    1cb6:	88 0f       	add	r24, r24
    1cb8:	99 1f       	adc	r25, r25
    1cba:	fc 01       	movw	r30, r24
    1cbc:	e7 53       	subi	r30, 0x37	; 55
    1cbe:	f6 4c       	sbci	r31, 0xC6	; 198
    1cc0:	d8 01       	movw	r26, r16
    1cc2:	11 96       	adiw	r26, 0x01	; 1
    1cc4:	6c 91       	ld	r22, X
    1cc6:	80 81       	ld	r24, Z
    1cc8:	91 81       	ldd	r25, Z+1	; 0x01
    1cca:	0e db       	rcall	.-2532   	; 0x12e8 <FindChild>
    1ccc:	f6 01       	movw	r30, r12
    1cce:	80 83       	st	Z, r24
    1cd0:	91 83       	std	Z+1, r25	; 0x01
                if (route[currDepth+1]) {
    1cd2:	e0 91 8f 38 	lds	r30, 0x388F	; 0x80388f <currDepth>
    1cd6:	f0 e0       	ldi	r31, 0x00	; 0
    1cd8:	31 96       	adiw	r30, 0x01	; 1
    1cda:	ee 0f       	add	r30, r30
    1cdc:	ff 1f       	adc	r31, r31
    1cde:	e7 53       	subi	r30, 0x37	; 55
    1ce0:	f6 4c       	sbci	r31, 0xC6	; 198
    1ce2:	80 81       	ld	r24, Z
    1ce4:	91 81       	ldd	r25, Z+1	; 0x01
    1ce6:	00 97       	sbiw	r24, 0x00	; 0
    1ce8:	09 f4       	brne	.+2      	; 0x1cec <ProcessInput+0x50c>
    1cea:	73 c0       	rjmp	.+230    	; 0x1dd2 <ProcessInput+0x5f2>
                    if ((route[currDepth+1] == inventory[0])||(route[currDepth+1] == inventory[1])) {
    1cec:	20 91 96 38 	lds	r18, 0x3896	; 0x803896 <inventory>
    1cf0:	30 91 97 38 	lds	r19, 0x3897	; 0x803897 <inventory+0x1>
    1cf4:	82 17       	cp	r24, r18
    1cf6:	93 07       	cpc	r25, r19
    1cf8:	39 f0       	breq	.+14     	; 0x1d08 <ProcessInput+0x528>
    1cfa:	20 91 98 38 	lds	r18, 0x3898	; 0x803898 <inventory+0x2>
    1cfe:	30 91 99 38 	lds	r19, 0x3899	; 0x803899 <inventory+0x3>
    1d02:	82 17       	cp	r24, r18
    1d04:	93 07       	cpc	r25, r19
                        SetResponse(elements++, A_ALREADYCARRYING, L_ALREADYCARRYING, TEASER);
    1d06:	a1 f4       	brne	.+40     	; 0x1d30 <ProcessInput+0x550>
    1d08:	21 e0       	ldi	r18, 0x01	; 1
    1d0a:	45 e2       	ldi	r20, 0x25	; 37
    1d0c:	50 e0       	ldi	r21, 0x00	; 0
    1d0e:	6b e4       	ldi	r22, 0x4B	; 75
    1d10:	78 e7       	ldi	r23, 0x78	; 120
    1d12:	80 e0       	ldi	r24, 0x00	; 0
    1d14:	9e d9       	rcall	.-3268   	; 0x1052 <SetResponse>
                        route[currDepth+1] = 0;
    1d16:	e0 91 8f 38 	lds	r30, 0x388F	; 0x80388f <currDepth>
    1d1a:	f0 e0       	ldi	r31, 0x00	; 0
    1d1c:	31 96       	adiw	r30, 0x01	; 1
    1d1e:	ee 0f       	add	r30, r30
    1d20:	ff 1f       	adc	r31, r31
    1d22:	e7 53       	subi	r30, 0x37	; 55
    1d24:	f6 4c       	sbci	r31, 0xC6	; 198
    1d26:	10 82       	st	Z, r1
    1d28:	11 82       	std	Z+1, r1	; 0x01
                SetResponse(elements++, A_NOTPOSSIBLE, L_NOTPOSSIBLE, TEASER);
            } else {
                route[currDepth+1] = FindChild(route[currDepth], data[1], route[currDepth+1]);
                if (route[currDepth+1]) {
                    if ((route[currDepth+1] == inventory[0])||(route[currDepth+1] == inventory[1])) {
                        SetResponse(elements++, A_ALREADYCARRYING, L_ALREADYCARRYING, TEASER);
    1d2a:	dd 24       	eor	r13, r13
    1d2c:	d3 94       	inc	r13
                        route[currDepth+1] = 0;
    1d2e:	41 c1       	rjmp	.+642    	; 0x1fb2 <ProcessInput+0x7d2>
                    } else {
                        //Put item in the inventory if possible
                        PopulateObject(route[currDepth+1], &actObj1);                      
    1d30:	6e ed       	ldi	r22, 0xDE	; 222
    1d32:	78 e3       	ldi	r23, 0x38	; 56
    1d34:	f1 d9       	rcall	.-3102   	; 0x1118 <PopulateObject>
    1d36:	80 91 e9 38 	lds	r24, 0x38E9	; 0x8038e9 <actObj1.3939+0xb>
                        if (actObj1.byteField[ITEM_NR]) {
    1d3a:	88 23       	and	r24, r24
    1d3c:	09 f4       	brne	.+2      	; 0x1d40 <ProcessInput+0x560>
    1d3e:	3f c0       	rjmp	.+126    	; 0x1dbe <ProcessInput+0x5de>
    1d40:	80 91 96 38 	lds	r24, 0x3896	; 0x803896 <inventory>
                            if (inventory[0]) {
    1d44:	90 91 97 38 	lds	r25, 0x3897	; 0x803897 <inventory+0x1>
    1d48:	89 2b       	or	r24, r25
    1d4a:	79 f0       	breq	.+30     	; 0x1d6a <ProcessInput+0x58a>
                                inventory[1] = route[currDepth+1];
    1d4c:	e0 91 8f 38 	lds	r30, 0x388F	; 0x80388f <currDepth>
    1d50:	f0 e0       	ldi	r31, 0x00	; 0
    1d52:	31 96       	adiw	r30, 0x01	; 1
    1d54:	ee 0f       	add	r30, r30
    1d56:	ff 1f       	adc	r31, r31
    1d58:	e7 53       	subi	r30, 0x37	; 55
    1d5a:	f6 4c       	sbci	r31, 0xC6	; 198
    1d5c:	80 81       	ld	r24, Z
    1d5e:	91 81       	ldd	r25, Z+1	; 0x01
    1d60:	80 93 98 38 	sts	0x3898, r24	; 0x803898 <inventory+0x2>
    1d64:	90 93 99 38 	sts	0x3899, r25	; 0x803899 <inventory+0x3>
                            } else {
                                inventory[0] = route[currDepth+1];
    1d68:	0e c0       	rjmp	.+28     	; 0x1d86 <ProcessInput+0x5a6>
    1d6a:	e0 91 8f 38 	lds	r30, 0x388F	; 0x80388f <currDepth>
    1d6e:	f0 e0       	ldi	r31, 0x00	; 0
    1d70:	31 96       	adiw	r30, 0x01	; 1
    1d72:	ee 0f       	add	r30, r30
    1d74:	ff 1f       	adc	r31, r31
    1d76:	e7 53       	subi	r30, 0x37	; 55
    1d78:	f6 4c       	sbci	r31, 0xC6	; 198
    1d7a:	80 81       	ld	r24, Z
    1d7c:	91 81       	ldd	r25, Z+1	; 0x01
    1d7e:	80 93 96 38 	sts	0x3896, r24	; 0x803896 <inventory>
                            }
                            SetResponse(elements++, A_NOWCARRING, L_NOWCARRING, TEASER);
    1d82:	90 93 97 38 	sts	0x3897, r25	; 0x803897 <inventory+0x1>
    1d86:	21 e0       	ldi	r18, 0x01	; 1
    1d88:	46 e1       	ldi	r20, 0x16	; 22
    1d8a:	50 e0       	ldi	r21, 0x00	; 0
    1d8c:	65 e3       	ldi	r22, 0x35	; 53
    1d8e:	78 e7       	ldi	r23, 0x78	; 120
                            SetResponse(elements++, A_SPACE, L_SPACE, TEASER);
    1d90:	80 e0       	ldi	r24, 0x00	; 0
    1d92:	5f d9       	rcall	.-3394   	; 0x1052 <SetResponse>
    1d94:	21 e0       	ldi	r18, 0x01	; 1
    1d96:	41 e0       	ldi	r20, 0x01	; 1
    1d98:	50 e0       	ldi	r21, 0x00	; 0
    1d9a:	6a e8       	ldi	r22, 0x8A	; 138
    1d9c:	7a e7       	ldi	r23, 0x7A	; 122
    1d9e:	81 e0       	ldi	r24, 0x01	; 1
                            SetResponse(elements++, actObj1.addrStr[NAME], actObj1.lenStr[NAME], GAME);
    1da0:	58 d9       	rcall	.-3408   	; 0x1052 <SetResponse>
    1da2:	ee ed       	ldi	r30, 0xDE	; 222
    1da4:	f8 e3       	ldi	r31, 0x38	; 56
    1da6:	42 8d       	ldd	r20, Z+26	; 0x1a
    1da8:	53 8d       	ldd	r21, Z+27	; 0x1b
    1daa:	64 85       	ldd	r22, Z+12	; 0x0c
    1dac:	75 85       	ldd	r23, Z+13	; 0x0d
    1dae:	20 e0       	ldi	r18, 0x00	; 0
    1db0:	82 e0       	ldi	r24, 0x02	; 2
    1db2:	4f d9       	rcall	.-3426   	; 0x1052 <SetResponse>
    1db4:	0f 2e       	mov	r0, r31
    1db6:	f3 e0       	ldi	r31, 0x03	; 3
    1db8:	df 2e       	mov	r13, r31
    1dba:	f0 2d       	mov	r31, r0
    1dbc:	fa c0       	rjmp	.+500    	; 0x1fb2 <ProcessInput+0x7d2>
                        } else {
                            SetResponse(elements++, A_NOTPOSSIBLE, L_NOTPOSSIBLE, TEASER);
    1dbe:	21 e0       	ldi	r18, 0x01	; 1
    1dc0:	4b e1       	ldi	r20, 0x1B	; 27
    1dc2:	50 e0       	ldi	r21, 0x00	; 0
    1dc4:	6e ea       	ldi	r22, 0xAE	; 174
    1dc6:	76 e7       	ldi	r23, 0x76	; 118
    1dc8:	80 e0       	ldi	r24, 0x00	; 0
    1dca:	43 d9       	rcall	.-3450   	; 0x1052 <SetResponse>
    1dcc:	dd 24       	eor	r13, r13
    1dce:	d3 94       	inc	r13
    1dd0:	f0 c0       	rjmp	.+480    	; 0x1fb2 <ProcessInput+0x7d2>
                        }
                    }
                } else SetResponse(elements++, A_NOSUCHOBJECT, L_NOSUCHOBJECT, TEASER);
    1dd2:	21 e0       	ldi	r18, 0x01	; 1
    1dd4:	44 e1       	ldi	r20, 0x14	; 20
    1dd6:	50 e0       	ldi	r21, 0x00	; 0
    1dd8:	6a e7       	ldi	r22, 0x7A	; 122
    1dda:	79 e7       	ldi	r23, 0x79	; 121
    1ddc:	80 e0       	ldi	r24, 0x00	; 0
    1dde:	39 d9       	rcall	.-3470   	; 0x1052 <SetResponse>
    1de0:	dd 24       	eor	r13, r13
    1de2:	d3 94       	inc	r13
    1de4:	e6 c0       	rjmp	.+460    	; 0x1fb2 <ProcessInput+0x7d2>
            }
        } else

        //Drop item if in inventory
        if (data[0] == 'd') {
    1de6:	94 36       	cpi	r25, 0x64	; 100
    1de8:	09 f0       	breq	.+2      	; 0x1dec <ProcessInput+0x60c>
    1dea:	83 c0       	rjmp	.+262    	; 0x1ef2 <ProcessInput+0x712>
            if ((inventory[0] == 0)&&(inventory[1] == 0)){
    1dec:	20 91 96 38 	lds	r18, 0x3896	; 0x803896 <inventory>
    1df0:	30 91 97 38 	lds	r19, 0x3897	; 0x803897 <inventory+0x1>
    1df4:	23 2b       	or	r18, r19
    1df6:	81 f4       	brne	.+32     	; 0x1e18 <ProcessInput+0x638>
    1df8:	20 91 98 38 	lds	r18, 0x3898	; 0x803898 <inventory+0x2>
    1dfc:	30 91 99 38 	lds	r19, 0x3899	; 0x803899 <inventory+0x3>
    1e00:	23 2b       	or	r18, r19
                SetResponse(elements++, A_EMPTYHANDS, L_EMPTYHANDS, TEASER);
    1e02:	51 f4       	brne	.+20     	; 0x1e18 <ProcessInput+0x638>
    1e04:	21 e0       	ldi	r18, 0x01	; 1
    1e06:	46 e2       	ldi	r20, 0x26	; 38
    1e08:	50 e0       	ldi	r21, 0x00	; 0
    1e0a:	6f e0       	ldi	r22, 0x0F	; 15
    1e0c:	78 e7       	ldi	r23, 0x78	; 120
    1e0e:	80 e0       	ldi	r24, 0x00	; 0
    1e10:	20 d9       	rcall	.-3520   	; 0x1052 <SetResponse>
    1e12:	dd 24       	eor	r13, r13
    1e14:	d3 94       	inc	r13
            } else if (inputLen != 2) {
    1e16:	cd c0       	rjmp	.+410    	; 0x1fb2 <ProcessInput+0x7d2>
    1e18:	82 30       	cpi	r24, 0x02	; 2
    1e1a:	09 f4       	brne	.+2      	; 0x1e1e <ProcessInput+0x63e>
                SetResponse(elements++, A_NOTPOSSIBLE, L_NOTPOSSIBLE, TEASER);
    1e1c:	63 c0       	rjmp	.+198    	; 0x1ee4 <ProcessInput+0x704>
    1e1e:	21 e0       	ldi	r18, 0x01	; 1
    1e20:	4b e1       	ldi	r20, 0x1B	; 27
    1e22:	50 e0       	ldi	r21, 0x00	; 0
    1e24:	6e ea       	ldi	r22, 0xAE	; 174
    1e26:	76 e7       	ldi	r23, 0x76	; 118
    1e28:	80 e0       	ldi	r24, 0x00	; 0
    1e2a:	13 d9       	rcall	.-3546   	; 0x1052 <SetResponse>
    1e2c:	dd 24       	eor	r13, r13
    1e2e:	d3 94       	inc	r13
            } else {
                for (uint8_t x=0; x<2; ++x) {
                    if (inventory[x]) {
    1e30:	c0 c0       	rjmp	.+384    	; 0x1fb2 <ProcessInput+0x7d2>
    1e32:	af 2c       	mov	r10, r15
    1e34:	b1 2c       	mov	r11, r1
    1e36:	f5 01       	movw	r30, r10
    1e38:	ee 0f       	add	r30, r30
    1e3a:	ff 1f       	adc	r31, r31
    1e3c:	ea 56       	subi	r30, 0x6A	; 106
    1e3e:	f7 4c       	sbci	r31, 0xC7	; 199
    1e40:	80 81       	ld	r24, Z
    1e42:	91 81       	ldd	r25, Z+1	; 0x01
    1e44:	00 97       	sbiw	r24, 0x00	; 0
                        if (CheckLetter(inventory[x], data[1])) {
    1e46:	09 f4       	brne	.+2      	; 0x1e4a <ProcessInput+0x66a>
    1e48:	3e c0       	rjmp	.+124    	; 0x1ec6 <ProcessInput+0x6e6>
    1e4a:	d8 01       	movw	r26, r16
    1e4c:	11 96       	adiw	r26, 0x01	; 1
    1e4e:	6c 91       	ld	r22, X
    1e50:	f1 d9       	rcall	.-3102   	; 0x1234 <CheckLetter>
                            PopulateObject(inventory[x], &actObj1);
    1e52:	88 23       	and	r24, r24
    1e54:	c1 f1       	breq	.+112    	; 0x1ec6 <ProcessInput+0x6e6>
    1e56:	c5 01       	movw	r24, r10
    1e58:	88 0f       	add	r24, r24
    1e5a:	99 1f       	adc	r25, r25
    1e5c:	fc 01       	movw	r30, r24
    1e5e:	ea 56       	subi	r30, 0x6A	; 106
    1e60:	f7 4c       	sbci	r31, 0xC7	; 199
    1e62:	5f 01       	movw	r10, r30
    1e64:	6e ed       	ldi	r22, 0xDE	; 222
    1e66:	78 e3       	ldi	r23, 0x38	; 56
    1e68:	80 81       	ld	r24, Z
                            SetResponse(elements++, A_DROPPING, L_DROPPING, TEASER);
    1e6a:	91 81       	ldd	r25, Z+1	; 0x01
    1e6c:	55 d9       	rcall	.-3414   	; 0x1118 <PopulateObject>
    1e6e:	cc 24       	eor	r12, r12
    1e70:	c3 94       	inc	r12
    1e72:	cd 0c       	add	r12, r13
    1e74:	21 e0       	ldi	r18, 0x01	; 1
    1e76:	40 e1       	ldi	r20, 0x10	; 16
    1e78:	50 e0       	ldi	r21, 0x00	; 0
    1e7a:	6f ef       	ldi	r22, 0xFF	; 255
    1e7c:	77 e7       	ldi	r23, 0x77	; 119
                            SetResponse(elements++, actObj1.addrStr[NAME], actObj1.lenStr[NAME], GAME);
    1e7e:	8d 2d       	mov	r24, r13
    1e80:	e8 d8       	rcall	.-3632   	; 0x1052 <SetResponse>
    1e82:	68 94       	set
    1e84:	ff 24       	eor	r15, r15
    1e86:	f1 f8       	bld	r15, 1
    1e88:	fd 0c       	add	r15, r13
    1e8a:	ee ed       	ldi	r30, 0xDE	; 222
    1e8c:	f8 e3       	ldi	r31, 0x38	; 56
    1e8e:	42 8d       	ldd	r20, Z+26	; 0x1a
    1e90:	53 8d       	ldd	r21, Z+27	; 0x1b
    1e92:	64 85       	ldd	r22, Z+12	; 0x0c
    1e94:	75 85       	ldd	r23, Z+13	; 0x0d
    1e96:	20 e0       	ldi	r18, 0x00	; 0
    1e98:	8c 2d       	mov	r24, r12
                            SetResponse(elements++, A_LF, 1, TEASER);
    1e9a:	db d8       	rcall	.-3658   	; 0x1052 <SetResponse>
    1e9c:	21 e0       	ldi	r18, 0x01	; 1
    1e9e:	41 e0       	ldi	r20, 0x01	; 1
    1ea0:	50 e0       	ldi	r21, 0x00	; 0
    1ea2:	66 e8       	ldi	r22, 0x86	; 134
    1ea4:	7a e7       	ldi	r23, 0x7A	; 122
    1ea6:	8f 2d       	mov	r24, r15
    1ea8:	d4 d8       	rcall	.-3672   	; 0x1052 <SetResponse>
                            SetResponse(elements++, A_RETURNING, L_RETURNING, TEASER);
    1eaa:	21 e0       	ldi	r18, 0x01	; 1
    1eac:	4d e3       	ldi	r20, 0x3D	; 61
    1eae:	50 e0       	ldi	r21, 0x00	; 0
    1eb0:	62 ec       	ldi	r22, 0xC2	; 194
    1eb2:	77 e7       	ldi	r23, 0x77	; 119
    1eb4:	83 e0       	ldi	r24, 0x03	; 3
    1eb6:	8d 0d       	add	r24, r13
    1eb8:	f4 e0       	ldi	r31, 0x04	; 4
    1eba:	df 0e       	add	r13, r31
    1ebc:	ca d8       	rcall	.-3692   	; 0x1052 <SetResponse>
                            inventory[x] = 0;
    1ebe:	d5 01       	movw	r26, r10
    1ec0:	1d 92       	st	X+, r1
    1ec2:	1c 92       	st	X, r1
                            break;
    1ec4:	76 c0       	rjmp	.+236    	; 0x1fb2 <ProcessInput+0x7d2>
                        }
                    }
                    if (x) SetResponse(elements++, A_NOTCARRYING, L_NOTCARRYING, TEASER);
    1ec6:	ff 20       	and	r15, r15
    1ec8:	59 f0       	breq	.+22     	; 0x1ee0 <ProcessInput+0x700>
    1eca:	cc 24       	eor	r12, r12
    1ecc:	c3 94       	inc	r12
    1ece:	cd 0c       	add	r12, r13
    1ed0:	21 e0       	ldi	r18, 0x01	; 1
    1ed2:	41 e2       	ldi	r20, 0x21	; 33
    1ed4:	50 e0       	ldi	r21, 0x00	; 0
    1ed6:	6e e8       	ldi	r22, 0x8E	; 142
    1ed8:	79 e7       	ldi	r23, 0x79	; 121
    1eda:	8d 2d       	mov	r24, r13
    1edc:	ba d8       	rcall	.-3724   	; 0x1052 <SetResponse>
            if ((inventory[0] == 0)&&(inventory[1] == 0)){
                SetResponse(elements++, A_EMPTYHANDS, L_EMPTYHANDS, TEASER);
            } else if (inputLen != 2) {
                SetResponse(elements++, A_NOTPOSSIBLE, L_NOTPOSSIBLE, TEASER);
            } else {
                for (uint8_t x=0; x<2; ++x) {
    1ede:	dc 2c       	mov	r13, r12
    1ee0:	f3 94       	inc	r15
    1ee2:	02 c0       	rjmp	.+4      	; 0x1ee8 <ProcessInput+0x708>
    1ee4:	f1 2c       	mov	r15, r1
    1ee6:	d1 2c       	mov	r13, r1
    1ee8:	b1 e0       	ldi	r27, 0x01	; 1
    1eea:	bf 15       	cp	r27, r15
    1eec:	08 f0       	brcs	.+2      	; 0x1ef0 <ProcessInput+0x710>
    1eee:	a1 cf       	rjmp	.-190    	; 0x1e32 <ProcessInput+0x652>
                        }
                    }
                    if (x) SetResponse(elements++, A_NOTCARRYING, L_NOTCARRYING, TEASER);
                }
            }
        } else if (data[0] == 'i') {
    1ef0:	60 c0       	rjmp	.+192    	; 0x1fb2 <ProcessInput+0x7d2>
    1ef2:	99 36       	cpi	r25, 0x69	; 105
    1ef4:	09 f0       	breq	.+2      	; 0x1ef8 <ProcessInput+0x718>
            if ((inventory[0] == 0)&&(inventory[1] == 0)){
    1ef6:	5c c0       	rjmp	.+184    	; 0x1fb0 <ProcessInput+0x7d0>
    1ef8:	80 91 96 38 	lds	r24, 0x3896	; 0x803896 <inventory>
    1efc:	90 91 97 38 	lds	r25, 0x3897	; 0x803897 <inventory+0x1>
    1f00:	89 2b       	or	r24, r25
    1f02:	81 f4       	brne	.+32     	; 0x1f24 <ProcessInput+0x744>
    1f04:	80 91 98 38 	lds	r24, 0x3898	; 0x803898 <inventory+0x2>
    1f08:	90 91 99 38 	lds	r25, 0x3899	; 0x803899 <inventory+0x3>
                SetResponse(elements++, A_EMPTYHANDS, L_EMPTYHANDS, TEASER);
    1f0c:	89 2b       	or	r24, r25
    1f0e:	51 f4       	brne	.+20     	; 0x1f24 <ProcessInput+0x744>
    1f10:	21 e0       	ldi	r18, 0x01	; 1
    1f12:	46 e2       	ldi	r20, 0x26	; 38
    1f14:	50 e0       	ldi	r21, 0x00	; 0
    1f16:	6f e0       	ldi	r22, 0x0F	; 15
    1f18:	78 e7       	ldi	r23, 0x78	; 120
    1f1a:	80 e0       	ldi	r24, 0x00	; 0
    1f1c:	9a d8       	rcall	.-3788   	; 0x1052 <SetResponse>
            } else {
                SetResponse(elements++, A_NOWCARRING, L_NOWCARRING, TEASER);
    1f1e:	dd 24       	eor	r13, r13
    1f20:	d3 94       	inc	r13
    1f22:	47 c0       	rjmp	.+142    	; 0x1fb2 <ProcessInput+0x7d2>
    1f24:	21 e0       	ldi	r18, 0x01	; 1
    1f26:	46 e1       	ldi	r20, 0x16	; 22
    1f28:	50 e0       	ldi	r21, 0x00	; 0
    1f2a:	65 e3       	ldi	r22, 0x35	; 53
    1f2c:	78 e7       	ldi	r23, 0x78	; 120
                SetResponse(elements++, A_SPACE, L_SPACE, TEASER);
    1f2e:	80 e0       	ldi	r24, 0x00	; 0
    1f30:	90 d8       	rcall	.-3808   	; 0x1052 <SetResponse>
    1f32:	21 e0       	ldi	r18, 0x01	; 1
    1f34:	41 e0       	ldi	r20, 0x01	; 1
    1f36:	50 e0       	ldi	r21, 0x00	; 0
    1f38:	6a e8       	ldi	r22, 0x8A	; 138
    1f3a:	7a e7       	ldi	r23, 0x7A	; 122
                
                for (uint8_t x=0; x<2; ++x) {
    1f3c:	81 e0       	ldi	r24, 0x01	; 1
        } else if (data[0] == 'i') {
            if ((inventory[0] == 0)&&(inventory[1] == 0)){
                SetResponse(elements++, A_EMPTYHANDS, L_EMPTYHANDS, TEASER);
            } else {
                SetResponse(elements++, A_NOWCARRING, L_NOWCARRING, TEASER);
                SetResponse(elements++, A_SPACE, L_SPACE, TEASER);
    1f3e:	89 d8       	rcall	.-3822   	; 0x1052 <SetResponse>
    1f40:	f1 2c       	mov	r15, r1
    1f42:	68 94       	set
                
                for (uint8_t x=0; x<2; ++x) {
    1f44:	dd 24       	eor	r13, r13
                    if (inventory[x]) {
    1f46:	d1 f8       	bld	r13, 1
    1f48:	2b c0       	rjmp	.+86     	; 0x1fa0 <ProcessInput+0x7c0>
    1f4a:	ef 2d       	mov	r30, r15
    1f4c:	f0 e0       	ldi	r31, 0x00	; 0
    1f4e:	ee 0f       	add	r30, r30
    1f50:	ff 1f       	adc	r31, r31
    1f52:	ea 56       	subi	r30, 0x6A	; 106
    1f54:	f7 4c       	sbci	r31, 0xC7	; 199
    1f56:	80 81       	ld	r24, Z
                        PopulateObject(inventory[x], &actObj1);
    1f58:	91 81       	ldd	r25, Z+1	; 0x01
    1f5a:	00 97       	sbiw	r24, 0x00	; 0
    1f5c:	01 f1       	breq	.+64     	; 0x1f9e <ProcessInput+0x7be>
    1f5e:	6e ed       	ldi	r22, 0xDE	; 222
                        SetResponse(elements++, actObj1.addrStr[NAME], actObj1.lenStr[NAME], GAME);
    1f60:	78 e3       	ldi	r23, 0x38	; 56
    1f62:	da d8       	rcall	.-3660   	; 0x1118 <PopulateObject>
    1f64:	cc 24       	eor	r12, r12
    1f66:	c3 94       	inc	r12
    1f68:	cd 0c       	add	r12, r13
    1f6a:	ee ed       	ldi	r30, 0xDE	; 222
    1f6c:	f8 e3       	ldi	r31, 0x38	; 56
    1f6e:	42 8d       	ldd	r20, Z+26	; 0x1a
    1f70:	53 8d       	ldd	r21, Z+27	; 0x1b
    1f72:	64 85       	ldd	r22, Z+12	; 0x0c
    1f74:	75 85       	ldd	r23, Z+13	; 0x0d
    1f76:	20 e0       	ldi	r18, 0x00	; 0
    1f78:	8d 2d       	mov	r24, r13
                        SetResponse(elements++, A_COMMA, L_COMMA, TEASER);
    1f7a:	6b d8       	rcall	.-3882   	; 0x1052 <SetResponse>
    1f7c:	21 e0       	ldi	r18, 0x01	; 1
    1f7e:	42 e0       	ldi	r20, 0x02	; 2
    1f80:	50 e0       	ldi	r21, 0x00	; 0
    1f82:	64 e8       	ldi	r22, 0x84	; 132
    1f84:	7a e7       	ldi	r23, 0x7A	; 122
    1f86:	8c 2d       	mov	r24, r12
    1f88:	64 d8       	rcall	.-3896   	; 0x1052 <SetResponse>
                        SetResponse(elements++, A_SPACE, L_SPACE, TEASER);
    1f8a:	21 e0       	ldi	r18, 0x01	; 1
    1f8c:	41 e0       	ldi	r20, 0x01	; 1
    1f8e:	50 e0       	ldi	r21, 0x00	; 0
    1f90:	6a e8       	ldi	r22, 0x8A	; 138
    1f92:	7a e7       	ldi	r23, 0x7A	; 122
    1f94:	82 e0       	ldi	r24, 0x02	; 2
    1f96:	8d 0d       	add	r24, r13
    1f98:	e3 e0       	ldi	r30, 0x03	; 3
    1f9a:	de 0e       	add	r13, r30
    1f9c:	5a d8       	rcall	.-3916   	; 0x1052 <SetResponse>
    1f9e:	f3 94       	inc	r15
                SetResponse(elements++, A_EMPTYHANDS, L_EMPTYHANDS, TEASER);
            } else {
                SetResponse(elements++, A_NOWCARRING, L_NOWCARRING, TEASER);
                SetResponse(elements++, A_SPACE, L_SPACE, TEASER);
                
                for (uint8_t x=0; x<2; ++x) {
    1fa0:	f1 e0       	ldi	r31, 0x01	; 1
    1fa2:	ff 15       	cp	r31, r15
    1fa4:	90 f6       	brcc	.-92     	; 0x1f4a <ProcessInput+0x76a>
    1fa6:	da 94       	dec	r13
                        SetResponse(elements++, actObj1.addrStr[NAME], actObj1.lenStr[NAME], GAME);
                        SetResponse(elements++, A_COMMA, L_COMMA, TEASER);
                        SetResponse(elements++, A_SPACE, L_SPACE, TEASER);
                    }
                }
                elements -= 2;
    1fa8:	da 94       	dec	r13
    1faa:	03 c0       	rjmp	.+6      	; 0x1fb2 <ProcessInput+0x7d2>
    1fac:	d1 2c       	mov	r13, r1

//The game logic!
uint8_t ProcessInput(uint8_t *data){
//    enum {NAME, DESC, ACTION_STR1, ACTION_STR2, OPEN_ACL_MSG, ACTION_ACL_MSG, ACTION_MSG};
    static object_model_t actObj1, actObj2;
    uint8_t elements = 0;
    1fae:	01 c0       	rjmp	.+2      	; 0x1fb2 <ProcessInput+0x7d2>
    1fb0:	d1 2c       	mov	r13, r1
    1fb2:	d8 01       	movw	r26, r16
            ;//No clue, no valid input...
                
        }
            
        //Input handled
        data[0] = 0;
    1fb4:	1c 92       	st	X, r1
    1fb6:	10 92 9c 38 	sts	0x389C, r1	; 0x80389c <serRxDone>
        serRxDone = 0;
    1fba:	1d ba       	out	0x1d, r1	; 29
        RXCNT = 0;
    1fbc:	8d 2d       	mov	r24, r13
        responseList = SetStandardResponse(elements);
    1fbe:	64 d8       	rcall	.-3896   	; 0x1088 <SetStandardResponse>
    1fc0:	80 93 08 39 	sts	0x3908, r24	; 0x803908 <responseList>
    1fc4:	80 e0       	ldi	r24, 0x00	; 0
    1fc6:	0f 90       	pop	r0
    }
    
    return 0;
}
    1fc8:	df 91       	pop	r29
    1fca:	cf 91       	pop	r28
    1fcc:	1f 91       	pop	r17
    1fce:	0f 91       	pop	r16
    1fd0:	ff 90       	pop	r15
    1fd2:	df 90       	pop	r13
    1fd4:	cf 90       	pop	r12
    1fd6:	bf 90       	pop	r11
    1fd8:	af 90       	pop	r10
    1fda:	08 95       	ret

00001fdc <TextAdventure>:
    1fdc:	cf 93       	push	r28
    1fde:	13 da       	rcall	.-3034   	; 0x1406 <CheckSend>
// Main game loop
uint8_t TextAdventure(){
    static uint8_t serInput[RXLEN];
    
    //Sending data to serial?
    if (CheckSend()) return 1;
    1fe0:	81 11       	cpse	r24, r1
    1fe2:	0f c0       	rjmp	.+30     	; 0x2002 <TextAdventure+0x26>

    //Not sending? Process next response part to send
    if (CheckResponse()) return 1;        
    1fe4:	64 da       	rcall	.-2872   	; 0x14ae <CheckResponse>
    1fe6:	81 11       	cpse	r24, r1
    1fe8:	0e c0       	rjmp	.+28     	; 0x2006 <TextAdventure+0x2a>
    1fea:	8d e9       	ldi	r24, 0x9D	; 157

    //No responses to send, check if there is user input.
    if (CheckInput(&serInput[0])) return 2; //No (valid) input
    1fec:	98 e3       	ldi	r25, 0x38	; 56
    1fee:	a9 da       	rcall	.-2734   	; 0x1542 <CheckInput>
    1ff0:	c8 2f       	mov	r28, r24
    1ff2:	81 11       	cpse	r24, r1
    1ff4:	0a c0       	rjmp	.+20     	; 0x200a <TextAdventure+0x2e>
    1ff6:	8d e9       	ldi	r24, 0x9D	; 157

    //Input found, process and save (changes only)
    ProcessInput(&serInput[0]);
    1ff8:	98 e3       	ldi	r25, 0x38	; 56
    1ffa:	f2 db       	rcall	.-2076   	; 0x17e0 <ProcessInput>
    1ffc:	0e 94 fc 05 	call	0xbf8	; 0xbf8 <SaveGameState>
    SaveGameState();
    2000:	05 c0       	rjmp	.+10     	; 0x200c <TextAdventure+0x30>
    2002:	c1 e0       	ldi	r28, 0x01	; 1

    return 0;
    2004:	03 c0       	rjmp	.+6      	; 0x200c <TextAdventure+0x30>
// Main game loop
uint8_t TextAdventure(){
    static uint8_t serInput[RXLEN];
    
    //Sending data to serial?
    if (CheckSend()) return 1;
    2006:	c1 e0       	ldi	r28, 0x01	; 1
    2008:	01 c0       	rjmp	.+2      	; 0x200c <TextAdventure+0x30>

    //Not sending? Process next response part to send
    if (CheckResponse()) return 1;        
    200a:	c2 e0       	ldi	r28, 0x02	; 2
    200c:	8c 2f       	mov	r24, r28

    //No responses to send, check if there is user input.
    if (CheckInput(&serInput[0])) return 2; //No (valid) input
    200e:	cf 91       	pop	r28
    //Input found, process and save (changes only)
    ProcessInput(&serInput[0]);
    SaveGameState();

    return 0;
    2010:	08 95       	ret

00002012 <main>:
    2012:	0e 94 ae 01 	call	0x35c	; 0x35c <Setup>

    //SerSpeed(1);
    //unsigned char strTest[]="\aHckerHotel2020 badge pest!\b\b\b\b\bt\n";
    //SerSend(&strTest[0]);

    SerSpeed(255);
    2016:	8f ef       	ldi	r24, 0xFF	; 255
    2018:	0e 94 19 05 	call	0xa32	; 0xa32 <SerSpeed>
    ////Turn on LEDs on low setting to check for interrupt glitches

    //"Hacker"
    for (uint8_t n=0; n<6; n++){
    201c:	80 e0       	ldi	r24, 0x00	; 0
    201e:	11 c0       	rjmp	.+34     	; 0x2042 <main+0x30>
        iLED[HCKR[R][n]] = 1;
    2020:	a8 2f       	mov	r26, r24
    2022:	b0 e0       	ldi	r27, 0x00	; 0
    2024:	aa 57       	subi	r26, 0x7A	; 122
    2026:	be 45       	sbci	r27, 0x5E	; 94
    2028:	ec 91       	ld	r30, X
    202a:	f0 e0       	ldi	r31, 0x00	; 0
    202c:	e4 53       	subi	r30, 0x34	; 52
    202e:	f5 4c       	sbci	r31, 0xC5	; 197
    2030:	91 e0       	ldi	r25, 0x01	; 1
    2032:	90 83       	st	Z, r25
        iLED[HCKR[G][n]] = 1;
    2034:	16 96       	adiw	r26, 0x06	; 6
    2036:	ec 91       	ld	r30, X
    2038:	f0 e0       	ldi	r31, 0x00	; 0
    203a:	e4 53       	subi	r30, 0x34	; 52
    203c:	f5 4c       	sbci	r31, 0xC5	; 197
    203e:	90 83       	st	Z, r25

    SerSpeed(255);
    ////Turn on LEDs on low setting to check for interrupt glitches

    //"Hacker"
    for (uint8_t n=0; n<6; n++){
    2040:	8f 5f       	subi	r24, 0xFF	; 255
    2042:	86 30       	cpi	r24, 0x06	; 6
    2044:	68 f3       	brcs	.-38     	; 0x2020 <main+0xe>
    2046:	80 e0       	ldi	r24, 0x00	; 0
    2048:	12 c0       	rjmp	.+36     	; 0x206e <main+0x5c>
        iLED[HCKR[G][n]] = 1;
    }

    //"Wings"
    for (uint8_t n=0; n<5; n++){
        iLED[WING[L][n]] = 1;
    204a:	a8 2f       	mov	r26, r24
    204c:	b0 e0       	ldi	r27, 0x00	; 0
    204e:	a8 58       	subi	r26, 0x88	; 136
    2050:	be 45       	sbci	r27, 0x5E	; 94
    2052:	15 96       	adiw	r26, 0x05	; 5
    2054:	ec 91       	ld	r30, X
    2056:	15 97       	sbiw	r26, 0x05	; 5
    2058:	f0 e0       	ldi	r31, 0x00	; 0
    205a:	e4 53       	subi	r30, 0x34	; 52
    205c:	f5 4c       	sbci	r31, 0xC5	; 197
    205e:	91 e0       	ldi	r25, 0x01	; 1
    2060:	90 83       	st	Z, r25
        iLED[WING[R][n]] = 1;
    2062:	ec 91       	ld	r30, X
    2064:	f0 e0       	ldi	r31, 0x00	; 0
    2066:	e4 53       	subi	r30, 0x34	; 52
    2068:	f5 4c       	sbci	r31, 0xC5	; 197
    206a:	90 83       	st	Z, r25
        iLED[HCKR[R][n]] = 1;
        iLED[HCKR[G][n]] = 1;
    }

    //"Wings"
    for (uint8_t n=0; n<5; n++){
    206c:	8f 5f       	subi	r24, 0xFF	; 255
    206e:	85 30       	cpi	r24, 0x05	; 5
    2070:	60 f3       	brcs	.-40     	; 0x204a <main+0x38>
        iLED[WING[L][n]] = 1;
        iLED[WING[R][n]] = 1;
    }    

    //"Others"
    iLED[EYE[G][R]] = 1;
    2072:	a2 e8       	ldi	r26, 0x82	; 130
    2074:	b1 ea       	ldi	r27, 0xA1	; 161
    2076:	12 96       	adiw	r26, 0x02	; 2
    2078:	ec 91       	ld	r30, X
    207a:	12 97       	sbiw	r26, 0x02	; 2
    207c:	f0 e0       	ldi	r31, 0x00	; 0
    207e:	e4 53       	subi	r30, 0x34	; 52
    2080:	f5 4c       	sbci	r31, 0xC5	; 197
    2082:	81 e0       	ldi	r24, 0x01	; 1
    2084:	80 83       	st	Z, r24
    iLED[EYE[G][L]] = 1;
    2086:	13 96       	adiw	r26, 0x03	; 3
    2088:	ec 91       	ld	r30, X
    208a:	13 97       	sbiw	r26, 0x03	; 3
    208c:	f0 e0       	ldi	r31, 0x00	; 0
    208e:	e4 53       	subi	r30, 0x34	; 52
    2090:	f5 4c       	sbci	r31, 0xC5	; 197
    2092:	80 83       	st	Z, r24
    iLED[EYE[R][R]] = 1;
    2094:	ec 91       	ld	r30, X
    2096:	f0 e0       	ldi	r31, 0x00	; 0
    2098:	e4 53       	subi	r30, 0x34	; 52
    209a:	f5 4c       	sbci	r31, 0xC5	; 197
    209c:	80 83       	st	Z, r24
    iLED[EYE[R][L]] = 1;
    209e:	11 96       	adiw	r26, 0x01	; 1
    20a0:	ec 91       	ld	r30, X
    20a2:	f0 e0       	ldi	r31, 0x00	; 0
    20a4:	e4 53       	subi	r30, 0x34	; 52
    20a6:	f5 4c       	sbci	r31, 0xC5	; 197
    20a8:	80 83       	st	Z, r24
    iLED[GEM[R]] = 1;
    20aa:	a6 e7       	ldi	r26, 0x76	; 118
    20ac:	b1 ea       	ldi	r27, 0xA1	; 161
    20ae:	ec 91       	ld	r30, X
    20b0:	f0 e0       	ldi	r31, 0x00	; 0
    20b2:	e4 53       	subi	r30, 0x34	; 52
    20b4:	f5 4c       	sbci	r31, 0xC5	; 197
    20b6:	80 83       	st	Z, r24
    iLED[GEM[G]] = 1;
    20b8:	11 96       	adiw	r26, 0x01	; 1
    20ba:	ec 91       	ld	r30, X
    20bc:	f0 e0       	ldi	r31, 0x00	; 0
    20be:	e4 53       	subi	r30, 0x34	; 52
    20c0:	f5 4c       	sbci	r31, 0xC5	; 197
    20c2:	80 83       	st	Z, r24
    iLED[RAT] = 1;
    20c4:	e0 91 75 a1 	lds	r30, 0xA175	; 0x80a175 <__bss_end+0x665c>
    20c8:	f0 e0       	ldi	r31, 0x00	; 0
    20ca:	e4 53       	subi	r30, 0x34	; 52
    20cc:	f5 4c       	sbci	r31, 0xC5	; 197
    20ce:	80 83       	st	Z, r24
    iLED[CAT] = 1;
    20d0:	e0 91 74 a1 	lds	r30, 0xA174	; 0x80a174 <__bss_end+0x665b>
    20d4:	f0 e0       	ldi	r31, 0x00	; 0
    20d6:	e4 53       	subi	r30, 0x34	; 52
    20d8:	f5 4c       	sbci	r31, 0xC5	; 197
    20da:	80 83       	st	Z, r24
    //uint8_t txBuffer[TXLEN];                    //Buffer for string data

    while (1)
    {
        GenerateAudio();
    20dc:	0e 94 e1 06 	call	0xdc2	; 0xdc2 <GenerateAudio>

        if (buttonMark){
    20e0:	80 91 9a 38 	lds	r24, 0x389A	; 0x80389a <buttonMark>
    20e4:	88 23       	and	r24, r24
    20e6:	d1 f3       	breq	.-12     	; 0x20dc <main+0xca>
            buttonState = CheckButtons(buttonState);
    20e8:	80 91 4b 3a 	lds	r24, 0x3A4B	; 0x803a4b <buttonState>
    20ec:	0e 94 27 05 	call	0xa4e	; 0xa4e <CheckButtons>
    20f0:	80 93 4b 3a 	sts	0x3A4B, r24	; 0x803a4b <buttonState>
            buttonMark = 0;
    20f4:	10 92 9a 38 	sts	0x389A, r1	; 0x80389a <buttonMark>
                    if (serTxDone){
                        txBuffer[0] = buttonState;
                        SerSend(&txBuffer[0]);
                    }
*/
            TextAdventure();
    20f8:	71 df       	rcall	.-286    	; 0x1fdc <TextAdventure>
          
            //Other games & user interaction checks
            //MagnetMaze();
            BastetDictates();
    20fa:	0e 94 5b 07 	call	0xeb6	; 0xeb6 <BastetDictates>
            //MasterMind-ishThing(); //Not sure if to be implemented
            //LanyardCode();
            //MakeFriends();
             
            //Check light sensor status (added hysteresis to preserve writing cycles to internal EEPROM)
            if (adcPhot < 10) WriteStatusBit(116, 1);
    20fe:	80 91 a9 3a 	lds	r24, 0x3AA9	; 0x803aa9 <adcPhot>
    2102:	90 91 aa 3a 	lds	r25, 0x3AAA	; 0x803aaa <adcPhot+0x1>
    2106:	0a 97       	sbiw	r24, 0x0a	; 10
    2108:	20 f4       	brcc	.+8      	; 0x2112 <main+0x100>
    210a:	61 e0       	ldi	r22, 0x01	; 1
    210c:	84 e7       	ldi	r24, 0x74	; 116
    210e:	0e 94 7f 06 	call	0xcfe	; 0xcfe <WriteStatusBit>
            if (adcPhot > 100) WriteStatusBit(116, 0);
    2112:	80 91 a9 3a 	lds	r24, 0x3AA9	; 0x803aa9 <adcPhot>
    2116:	90 91 aa 3a 	lds	r25, 0x3AAA	; 0x803aaa <adcPhot+0x1>
    211a:	85 36       	cpi	r24, 0x65	; 101
    211c:	91 05       	cpc	r25, r1
    211e:	f0 f2       	brcs	.-68     	; 0x20dc <main+0xca>
    2120:	60 e0       	ldi	r22, 0x00	; 0
    2122:	84 e7       	ldi	r24, 0x74	; 116
    2124:	0e 94 7f 06 	call	0xcfe	; 0xcfe <WriteStatusBit>
    2128:	d9 cf       	rjmp	.-78     	; 0x20dc <main+0xca>

0000212a <__udivmodhi4>:
    212a:	aa 1b       	sub	r26, r26
    212c:	bb 1b       	sub	r27, r27
    212e:	51 e1       	ldi	r21, 0x11	; 17
    2130:	07 c0       	rjmp	.+14     	; 0x2140 <__udivmodhi4_ep>

00002132 <__udivmodhi4_loop>:
    2132:	aa 1f       	adc	r26, r26
    2134:	bb 1f       	adc	r27, r27
    2136:	a6 17       	cp	r26, r22
    2138:	b7 07       	cpc	r27, r23
    213a:	10 f0       	brcs	.+4      	; 0x2140 <__udivmodhi4_ep>
    213c:	a6 1b       	sub	r26, r22
    213e:	b7 0b       	sbc	r27, r23

00002140 <__udivmodhi4_ep>:
    2140:	88 1f       	adc	r24, r24
    2142:	99 1f       	adc	r25, r25
    2144:	5a 95       	dec	r21
    2146:	a9 f7       	brne	.-22     	; 0x2132 <__udivmodhi4_loop>
    2148:	80 95       	com	r24
    214a:	90 95       	com	r25
    214c:	bc 01       	movw	r22, r24
    214e:	cd 01       	movw	r24, r26
    2150:	08 95       	ret

00002152 <__umulhisi3>:
    2152:	a2 9f       	mul	r26, r18
    2154:	b0 01       	movw	r22, r0
    2156:	b3 9f       	mul	r27, r19
    2158:	c0 01       	movw	r24, r0
    215a:	a3 9f       	mul	r26, r19
    215c:	70 0d       	add	r23, r0
    215e:	81 1d       	adc	r24, r1
    2160:	11 24       	eor	r1, r1
    2162:	91 1d       	adc	r25, r1
    2164:	b2 9f       	mul	r27, r18
    2166:	70 0d       	add	r23, r0
    2168:	81 1d       	adc	r24, r1
    216a:	11 24       	eor	r1, r1
    216c:	91 1d       	adc	r25, r1
    216e:	08 95       	ret

00002170 <_exit>:
    2170:	f8 94       	cli

00002172 <__stop_program>:
    2172:	ff cf       	rjmp	.-2      	; 0x2172 <__stop_program>
